ccopy_reg
_reconstructor
p0
(c__main__
Story
p1
c__builtin__
object
p2
Ntp3
Rp4
(dp5
S'text'
p6
g0
(c__main__
Document
p7
g2
Ntp8
Rp9
(dp10
S'_Document__initialContent'
p11
S'There was once a poor woman who gave birth to a little son,\nand as he came into the world with a caul on, it was predicted\nthat in his fourteenth year he would have the king\'s daughter\nfor his wife.  It happened that soon afterwards the king\ncame into the village, and no one knew that he was the king,\nand when he asked the people what news there was, they answered,\na child has just been born with a caul on, whatever anyone so\nborn undertakes turns out well.  It is prophesied, too, that\nin his fourteenth year he will have the king\'s daughter for his\nwife.\n\nThe king, who had a bad heart, and was angry about the prophecy,\nwent to the parents, and, seeming quite friendly, said, you poor\npeople, let me have your child, and I will take care of it.  At\nfirst they refused, but when the stranger offered them a large\namount of gold for it, and they thought, it is a child of good\nfortune, and everything must turn out well for it, they at last\nconsented, and gave him the child.\n\nThe king put it in a box and rode away with it until he came to\na deep piece of water, then he threw the box into it and thought,\nI have freed my daughter from her undesired suitor.\n\nThe box, however, did not sink, but floated like a boat, and not\na drop of water made its way into it.  And it floated to within\ntwo miles of the king\'s chief city, where there was a mill, and\nit came to a halt at the mill-dam.  A miller\'s boy, who by good\nluck was standing there, noticed it and pulled it out with a hook,\nthinking that he had found a great treasure, but when he opened\nit there lay a pretty boy inside, quite fresh and lively.  He\ntook him to the miller and his wife, and as they had no children\nthey were glad, and said, "God has given him to us."  They took\ngreat care of the foundling, and he grew up in all goodness.\n\nIt happened that once in a storm, the king went into the mill, and\nasked the mill-folk if the tall youth were their son.  No,\nanswered they, he\'s a foundling.  Fourteen years ago he floated\ndown to the mill-dam in a box, and the mill-boy pulled him out\nof the water.\n\nThen the king knew that it was none other than the child of\ngood fortune which he had thrown into the water, and he said,\nmy good people, could not the youth take a letter to the queen.\nI will give him two gold pieces as a reward.  Just as the king\ncommands, answered they, and they told the boy to hold himself\nin readiness.  Then the king wrote a letter to the queen, wherein\nhe said, as soon as the boy arrives with this letter, let him be\nkilled and buried, and all must be done before I come home.\nThe boy set out with this letter, but he lost his way, and in the\nevening came to a large forest.  In the darkness he saw a small\nlight, he went towards it and reached a cottage.  When he went in,\nan old woman was sitting by the fire quite alone.  She started\nwhen she saw the boy, and said, whence do you come, and whither\nare you going.  I come from the mill, he answered, and wish\nto go to the queen, to whom I am taking a letter, but as I have\nlost my way in the forest I should like to stay here over night.\nYou poor boy, said the woman, you have come into a den of thieves,\nand when they come home they will kill you.  Let them come,\nsaid the boy, I am not afraid, but I am so tired that I cannot go\nany farther.  And he stretched himself upon a bench and fell\nasleep.\n\nSoon afterwards the robbers came, and angrily asked what strange\nboy was lying there.  Ah, said the old woman, it is an innocent\nchild who has lost himself in the forest, and out of pity I have\nlet him come in, he has to take a letter to the queen.  The robbers\nopened the letter and read it, and in it was written that the\nboy as soon as he arrived should be put to death.  Then the\nhardhearted robbers felt pity, and their leader tore up the letter\nand wrote another, saying, that as soon as the boy came, he should\nbe married at once to the king\'s daughter.  Then they let him lie\nquietly on the bench until the next morning, and when he awoke\nthey gave him the letter, and showed him the right way.\n\nAnd the queen, when she had received the letter and read it,\ndid as was written in it, and had a splendid wedding-feast\nprepared, and the king\'s daughter was married to the child of\ngood fortune, and as the youth was handsome and friendly she lived\nwith him in joy and contentment.\n\nAfter some time the king returned to his palace and saw that\nthe prophecy was fulfilled, and the child married to his daughter.\nHow has that come to pass, said he, I gave quite another order\nin my letter.\n\nSo the queen gave him the letter, and said that he might see for\nhimself what was written in it.  The king read the letter and\nsaw quite well that it had been exchanged for the other.  He\nasked the youth what had become of the letter entrusted to him,\nand why he had brought another instead of it.  I know nothing\nabout it, answered he, it must have been changed in the night,\nwhen I slept in the forest.  The king said in a passion, you shall\nnot have everything quite so much your own way, whosoever marries\nmy daughter must fetch me from hell three golden hairs from\nthe head of the devil, bring me what I want, and you shall keep\nmy daughter.  In this way the king hoped to be rid of him for ever.\nBut the child of good fortune answered, I will fetch the golden\nhairs, I am not afraid of the devil.  Whereupon he took leave of\nthem and began his journey.\n\nThe road led him to a large town, where the watchman by the gates\nasked him what his trade was, and what he knew.  I know\neverything, answered the child of good fortune.  Then you can do us\na favor, said the watchman, if you will tell us why our market\nfountain, which once flowed with wine has become dry, and no\nlonger gives even water.  That you shall know, answered he, only\nwait until I come back.\n\nThen he went farther and came to another town, and there also the\ngatekeeper asked him what was his trade, and what he knew.\nI know everything, answered he.  Then you can do us a favor and\ntell us why a tree in our town which once bore golden apples now\ndoes not even put forth leaves.  You shall know that, answered he,\nonly wait until I come back.\n\nThen he went on and came to a wide river over which he must cross.\nThe ferryman asked him what his trade was, and what he knew.  I\nknow everything, answered he.  Then you can do me a favor, said\nthe ferryman, and tell me why I must always be rowing backwards\nand forwards, and am never set free.  You shall know that,\nanswered he, only wait until I come back.\n\nWhen he had crossed the water he found the entrance to hell.  It\nwas black and sooty within, and the devil was not at home, but\nhis grandmother was sitting in a large arm-chair.  What do you\nwant, said she to him, but she did not look so very wicked.  I\nshould like to have three golden hairs from the devil\'s head,\nanswered he, else I cannot keep my wife.  That is a good deal\nto ask for, said she, if the devil comes home and finds you, it\nwill cost you your life, but as I pity you, I will see if I cannot\nhelp you.\n\nShe changed him into an ant and said, creep into the folds of my\ndress, you will be safe there.  Yes, answered he, so far, so good,\nbut there are three things besides that I want to know - why a\nfountain which once flowed with wine has become dry, and no\nlonger gives even water, why a tree which once bore golden apples\ndoes not even put forth leaves, and why a ferryman must always be\ngoing backwards and forwards, and is never set free.\nThose are difficult questions, answered she, but just be silent\nand quiet and pay attention to what the devil says when I pull out\nthe three golden hairs.\n\nAs the evening came on, the devil returned home.  No sooner had he\nentered than he noticed that the air was not pure.  I smell man\'s\nflesh, said he, all is not right here.  Then he pried into\nevery corner, and searched, but could not find anything.  His\ngrandmother scolded him.  It has just been swept, said she, and\neverything put in order, and now you are upsetting it again, you\nhave always got man\'s flesh in your nose.  Sit down and eat your\nsupper.\n\nWhen he had eaten and drunk he was tired, and laid his head in\nhis grandmother\'s lap, and told her she should louse him a little.\nIt was not long before he was fast asleep, snoring and breathing\nheavily.  Then the old woman took hold of a golden hair, pulled\nit out, and laid it down beside her.  Oh, cried the devil,\nwhat are you doing.  I have had a bad dream, answered the\ngrandmother, so I seized hold of your hair.  What did you dream\nthen, said the devil.  I dreamt that a fountain in a market-place\nfrom which wine once flowed was dried up, and not even water\nwould flow out of it - what is the cause of it.  Oh, ho, if they\ndid but know it, answered the devil, there is a toad sitting\nunder a stone in the well - if they killed it, the wine would flow\nagain.\n\nThe grandmother loused him again until he went to sleep and\nsnored so that the windows shook.  Then she pulled the second hair\nout.  Ha, what are you doing, cried the devil angrily.  Do not\ntake it ill, said she, I did it in a dream.  What have you dreamt\nthis time, asked he.  I dreamt that in a certain kingdom there\nstood an apple-tree which had once borne golden apples, but now\nwould not even bear leaves.  What, think you, was the reason.\nOh, if they did but know, answered the devil.  A mouse is\ngnawing at the root - if they killed it they would have golden\napples again, but if it gnaws much longer the tree will wither\naltogether.  But I have had enough of your dreams, if you disturb\nme in my sleep again you will get a box on the ear.\n\nThe grandmother spoke gently to him and picked his lice once\nmore until he fell asleep and snored.  Then she took hold of the\nthird golden hair and pulled it out.  The devil jumped up,\nroared out, and would have treated her ill if she had not\nquieted him again and said, who can help bad dreams.  What\nwas the dream, then, asked he, and was quite curious.  I dreamt\nof a ferryman who complained that he must always ferry from\none side to the other, and was never released.  What is the\ncause of it.  Ah, the fool, answered the devil, when anyone\ncomes and wants to go across he must put the oar in his hand,\nand the other man will have\nto ferry and he will be free.  As the grandmother had plucked\nout the three golden hairs, and the three questions were\nanswered, she let the old devil alone, and he slept until\ndaybreak.\n\nWhen the devil had gone out again the old woman took the ant\nout of the folds of her dress, and gave the child of good\nfortune his human shape again.  There are the three golden\nhairs for you, said she.  What the devil said to your three\nquestions, I suppose you heard.  Yes, answered he, I heard, and\nwill take care to remember.  You have what you want, said she,\nand now you can go your way.  He thanked the old woman for\nhelping him in his need, and left hell well content that\neverything had turned out so fortunately.\n\nWhen he came to the ferryman he was expected to give the\npromised answer.  Ferry me across first, said the child of good\nfortune, and then I will tell you how you can be set free, and\nwhen he reached the opposite shore he gave him the devil\'s advice.\nNext time anyone comes, who wants to be ferried over, just put the\noar in his hand.\n\nHe went on and came to the town wherein stood the unfruitful\ntree, and there too the watchman wanted an answer.  So he\ntold him what he had heard from the devil.  Kill the mouse\nwhich is gnawing at its root, and it will again bear golden\napples.  Then the watchman thanked him, and gave him as a reward\ntwo asses laden with gold, which followed him.\n\nFinally, he came to the town whose well was dry.  He told the\nwatchman what the devil had said, a toad is in the well beneath\na stone, you must find it and kill it, and the well will again\ngive wine in plenty.  The watchman thanked him, and also\ngave him two asses laden with gold.\n\nAt last the child of good fortune got home to his wife, who\nwas heartily glad to see him again, and to hear how well he had\nprospered in everything.  To the king he took what he had asked\nfor, the devil\'s three golden hairs, and when the king saw the\nfour asses laden with gold he was quite content, and said, now\nall the conditions are fulfilled, and you can keep my daughter.\n\nBut tell\nme, dear son-in-law, where did all that gold come from - this\nis tremendous wealth.  I was rowed across a river, answered he,\nand got it there, it lies on the shore instead of sand.  Can I\ntoo fetch some of it, said the king, and he was quite eager\nabout it.  As much as you like, answered he.  There is a\nferryman on the river, let him ferry you over, and you can fill\nyour sacks on the other side.  The greedy king set out in all\nhaste, and when he came to the river he beckoned to the ferryman\nto put him across.  The ferryman came and bade him get in,\nand when they got to the other shore he put the oar in his\nhand and sprang over.  But from this time forth the king had to\nferry, as a punishment for his sins.  Perhaps he is ferrying\nstill.  If he is, it is because no one has taken the oar from\nhim.\n'
p12
sS'sentences'
p13
(lp14
(i__main__
Sentence
p15
(dp16
S'index'
p17
I0
sS'words'
p18
(lp19
S'There'
p20
aS'was'
p21
aS'once'
p22
aS'a'
p23
aS'poor'
p24
aS'woman'
p25
aS'who'
p26
aS'gave'
p27
aS'birth'
p28
aS'to'
p29
aS'a'
p30
aS'little'
p31
aS'son'
p32
aS','
p33
aS'and'
p34
aS'as'
p35
aS'he'
p36
aS'came'
p37
aS'into'
p38
aS'the'
p39
aS'world'
p40
aS'with'
p41
aS'a'
p42
aS'caul'
p43
aS'on'
p44
aS','
p45
aS'it'
p46
aS'was'
p47
aS'predicted'
p48
aS'that'
p49
aS'in'
p50
aS'his'
p51
aS'fourteenth'
p52
aS'year'
p53
aS'he'
p54
aS'would'
p55
aS'have'
p56
aS'the'
p57
aS'king'
p58
aS"'s"
p59
aS'daughter'
p60
aS'for'
p61
aS'his'
p62
aS'wife'
p63
aS'.'
p64
asS'lemmas'
p65
(lp66
VThere
p67
aVbe
p68
aVonce
p69
aVa
p70
aVpoor
p71
aVwoman
p72
aVwho
p73
aVgive
p74
aVbirth
p75
aVto
p76
ag70
aVlittle
p77
aVson
p78
aV,
p79
aVand
p80
ag70
aVhe
p81
aVcome
p82
aVinto
p83
aVthe
p84
aVworld
p85
aVwith
p86
ag70
aVcaul
p87
aVon
p88
ag79
aVit
p89
ag68
aVpredict
p90
aVthat
p91
aVin
p92
aVhis
p93
aVfourteenth
p94
aVyear
p95
aVhe
p96
aVwould
p97
aVhave
p98
aVthe
p99
aVking
p100
aV's
p101
aVdaughter
p102
aVfor
p103
aVhis
p104
aVwife
p105
aV.
p106
asS'nerTags'
p107
(lp108
VO
p109
ag109
ag109
ag109
ag109
ag109
ag109
ag109
ag109
ag109
ag109
ag109
ag109
ag109
ag109
ag109
ag109
ag109
ag109
ag109
ag109
ag109
ag109
ag109
ag109
ag109
ag109
ag109
ag109
ag109
ag109
ag109
ag109
ag109
ag109
ag109
ag109
ag109
ag109
ag109
ag109
ag109
ag109
ag109
ag109
asS'posTags'
p110
(lp111
S'EX'
p112
aS'VBD'
p113
aS'RB'
p114
aS'DT'
p115
aS'JJ'
p116
aS'NN'
p117
aS'WP'
p118
ag113
ag116
aS'TO'
p119
ag115
ag114
ag117
aS','
p120
aS'CC'
p121
aS'IN'
p122
aS'PRP'
p123
ag113
ag122
ag115
ag117
ag122
ag115
ag116
ag122
ag120
ag123
ag113
aS'VBN'
p124
ag122
ag122
aS'PRP$'
p125
ag117
ag117
ag123
aS'MD'
p126
aS'VB'
p127
ag115
aS'VBG'
p128
aS'POS'
p129
ag117
ag122
ag125
ag117
aS'.'
p130
asS'_Sentence__initialContent'
p131
VThere was once a poor woman who gave birth to a little son, and as he came into the world with a caul on, it was predicted that in his fourteenth year he would have the king's daughter for his wife.
p132
sba(i__main__
Sentence
p133
(dp134
g17
I1
sg18
(lp135
S'It'
p136
aS'happened'
p137
aS'that'
p138
aS'soon'
p139
aS'afterwards'
p140
aS'the'
p141
aS'king'
p142
aS'came'
p143
aS'into'
p144
aS'the'
p145
aS'village'
p146
aS','
p147
aS'and'
p148
aS'no'
p149
aS'one'
p150
aS'knew'
p151
aS'that'
p152
aS'he'
p153
aS'was'
p154
aS'the'
p155
aS'king'
p156
aS','
p157
aS'and'
p158
aS'when'
p159
aS'he'
p160
aS'asked'
p161
aS'the'
p162
aS'people'
p163
aS'what'
p164
aS'news'
p165
aS'there'
p166
aS'was'
p167
aS','
p168
aS'they'
p169
aS'answered'
p170
aS','
p171
aS'a'
p172
aS'child'
p173
aS'has'
p174
aS'just'
p175
aS'been'
p176
aS'born'
p177
aS'with'
p178
aS'a'
p179
aS'caul'
p180
aS'on'
p181
aS','
p182
aS'whatever'
p183
aS'anyone'
p184
aS'so'
p185
aS'born'
p186
aS'undertakes'
p187
aS'turns'
p188
aS'out'
p189
aS'well'
p190
aS'.'
p191
asg65
(lp192
VIt
p193
aVhappen
p194
aVthat
p195
aVsoon
p196
aVafterwards
p197
aVthe
p198
aVking
p199
ag82
aVinto
p200
aVthe
p201
aVvillage
p202
ag79
aVand
p203
aVno
p204
aVone
p205
aVknow
p206
aVthat
p207
aVhe
p208
ag68
aVthe
p209
aVking
p210
ag79
aVand
p211
aVwhen
p212
aVhe
p213
aVask
p214
aVthe
p215
aVpeople
p216
aVwhat
p217
aVnews
p218
aVthere
p219
ag68
ag79
aVthey
p220
aVanswer
p221
ag79
ag70
aVchild
p222
aVhave
p223
aVjust
p224
aVbe
p225
aVbear
p226
aVwith
p227
ag70
aVcaul
p228
aVon
p229
ag79
aVwhatever
p230
aVanyone
p231
aVso
p232
aVborn
p233
aVundertakes
p234
aVturn
p235
aVout
p236
aVwell
p237
ag106
asg107
(lp238
g109
ag109
ag109
ag109
ag109
ag109
ag109
ag109
ag109
ag109
ag109
ag109
ag109
ag109
ag109
ag109
ag109
ag109
ag109
ag109
ag109
ag109
ag109
ag109
ag109
ag109
ag109
ag109
ag109
ag109
ag109
ag109
ag109
ag109
ag109
ag109
ag109
ag109
ag109
ag109
ag109
ag109
ag109
ag109
ag109
ag109
ag109
ag109
ag109
ag109
ag109
ag109
ag109
ag109
ag109
ag109
asg110
(lp239
g123
ag113
ag122
ag114
aS'NNS'
p240
ag115
ag128
ag113
ag122
ag115
ag117
ag120
ag121
ag115
ag117
ag113
ag122
ag123
ag113
ag115
ag117
ag120
ag121
aS'WRB'
p241
ag123
ag113
ag115
ag240
ag118
ag117
ag114
ag113
ag120
ag123
ag113
ag120
ag115
ag117
aS'VBZ'
p242
ag114
ag124
ag124
ag122
ag115
ag116
ag122
ag120
ag117
ag117
ag114
ag117
ag240
ag242
aS'RP'
p243
ag114
ag130
asg131
VIt happened that soon afterwards the king came into the village, and no one knew that he was the king, and when he asked the people what news there was, they answered, a child has just been born with a caul on, whatever anyone so born undertakes turns out well.
p244
sba(i__main__
Sentence
p245
(dp246
g17
I2
sg18
(lp247
S'It'
p248
aS'is'
p249
aS'prophesied'
p250
aS','
p251
aS'too'
p252
aS','
p253
aS'that'
p254
aS'in'
p255
aS'his'
p256
aS'fourteenth'
p257
aS'year'
p258
aS'he'
p259
aS'will'
p260
aS'have'
p261
aS'the'
p262
aS'king'
p263
aS"'s"
p264
aS'daughter'
p265
aS'for'
p266
aS'his'
p267
aS'wife'
p268
aS'.'
p269
asg65
(lp270
VIt
p271
aVbe
p272
aVprophesy
p273
ag79
aVtoo
p274
ag79
aVthat
p275
aVin
p276
aVhis
p277
aVfourteenth
p278
aVyear
p279
aVhe
p280
aVwill
p281
aVhave
p282
aVthe
p283
aVking
p284
aV's
p285
aVdaughter
p286
aVfor
p287
aVhis
p288
aVwife
p289
ag106
asg107
(lp290
g109
ag109
ag109
ag109
ag109
ag109
ag109
ag109
ag109
ag109
ag109
ag109
ag109
ag109
ag109
ag109
ag109
ag109
ag109
ag109
ag109
ag109
asg110
(lp291
g123
ag242
ag124
ag120
ag114
ag120
ag122
ag122
ag125
ag117
ag117
ag123
ag126
ag127
ag115
ag128
ag129
ag117
ag122
ag125
ag117
ag130
asg131
VIt is prophesied, too, that in his fourteenth year he will have the king's daughter for his wife.
p292
sba(i__main__
Sentence
p293
(dp294
g17
I3
sg18
(lp295
S'The'
p296
aS'king'
p297
aS','
p298
aS'who'
p299
aS'had'
p300
aS'a'
p301
aS'bad'
p302
aS'heart'
p303
aS','
p304
aS'and'
p305
aS'was'
p306
aS'angry'
p307
aS'about'
p308
aS'the'
p309
aS'prophecy'
p310
aS','
p311
aS'went'
p312
aS'to'
p313
aS'the'
p314
aS'parents'
p315
aS','
p316
aS'and'
p317
aS','
p318
aS'seeming'
p319
aS'quite'
p320
aS'friendly'
p321
aS','
p322
aS'said'
p323
aS','
p324
aS'you'
p325
aS'poor'
p326
aS'people'
p327
aS','
p328
aS'let'
p329
aS'me'
p330
aS'have'
p331
aS'your'
p332
aS'child'
p333
aS','
p334
aS'and'
p335
aS'I'
p336
aS'will'
p337
aS'take'
p338
aS'care'
p339
aS'of'
p340
aS'it'
p341
aS'.'
p342
asg65
(lp343
VThe
p344
aVking
p345
ag79
aVwho
p346
aVhave
p347
ag70
aVbad
p348
aVheart
p349
ag79
aVand
p350
ag68
aVangry
p351
aVabout
p352
aVthe
p353
aVprophecy
p354
ag79
aVgo
p355
aVto
p356
aVthe
p357
aVparent
p358
ag79
aVand
p359
ag79
aVseem
p360
aVquite
p361
aVfriendly
p362
ag79
aVsay
p363
ag79
aVyou
p364
aVpoor
p365
aVpeople
p366
ag79
aVlet
p367
aVme
p368
aVhave
p369
aVyour
p370
aVchild
p371
ag79
aVand
p372
aVI
p373
aVwill
p374
aVtake
p375
aVcare
p376
aVof
p377
aVit
p378
ag106
asg107
(lp379
g109
ag109
ag109
ag109
ag109
ag109
ag109
ag109
ag109
ag109
ag109
ag109
ag109
ag109
ag109
ag109
ag109
ag109
ag109
ag109
ag109
ag109
ag109
ag109
ag109
ag109
ag109
ag109
ag109
ag109
ag109
ag109
ag109
ag109
ag109
ag109
ag109
ag109
ag109
ag109
ag109
ag109
ag109
ag109
ag109
ag109
ag109
asg110
(lp380
g115
ag117
ag120
ag118
ag113
ag115
ag116
ag117
ag120
ag121
ag113
ag116
ag122
ag115
ag117
ag120
ag113
ag119
ag115
ag240
ag120
ag121
ag120
ag128
ag114
ag116
ag120
ag113
ag120
ag123
aS'VBP'
p381
ag240
ag120
ag127
ag123
ag127
ag125
ag117
ag120
ag121
ag123
ag126
ag127
ag117
ag122
ag123
ag130
asg131
VThe king, who had a bad heart, and was angry about the prophecy, went to the parents, and, seeming quite friendly, said, you poor people, let me have your child, and I will take care of it.
p382
sba(i__main__
Sentence
p383
(dp384
g17
I4
sg18
(lp385
S'At'
p386
aS'first'
p387
aS'they'
p388
aS'refused'
p389
aS','
p390
aS'but'
p391
aS'when'
p392
aS'the'
p393
aS'stranger'
p394
aS'offered'
p395
aS'them'
p396
aS'a'
p397
aS'large'
p398
aS'amount'
p399
aS'of'
p400
aS'gold'
p401
aS'for'
p402
aS'it'
p403
aS','
p404
aS'and'
p405
aS'they'
p406
aS'thought'
p407
aS','
p408
aS'it'
p409
aS'is'
p410
aS'a'
p411
aS'child'
p412
aS'of'
p413
aS'good'
p414
aS'fortune'
p415
aS','
p416
aS'and'
p417
aS'everything'
p418
aS'must'
p419
aS'turn'
p420
aS'out'
p421
aS'well'
p422
aS'for'
p423
aS'it'
p424
aS','
p425
aS'they'
p426
aS'at'
p427
aS'last'
p428
aS'consented'
p429
aS','
p430
aS'and'
p431
aS'gave'
p432
aS'him'
p433
aS'the'
p434
aS'child'
p435
aS'.'
p436
asg65
(lp437
VAt
p438
aVfirst
p439
aVthey
p440
aVrefuse
p441
ag79
aVbut
p442
aVwhen
p443
aVthe
p444
aVstranger
p445
aVoffer
p446
aVthem
p447
ag70
aVlarge
p448
aVamount
p449
aVof
p450
aVgold
p451
aVfor
p452
aVit
p453
ag79
aVand
p454
aVthey
p455
aVthink
p456
ag79
aVit
p457
ag272
ag70
aVchild
p458
aVof
p459
aVgood
p460
aVfortune
p461
ag79
aVand
p462
aVeverything
p463
aVmust
p464
aVturn
p465
aVout
p466
aVwell
p467
aVfor
p468
aVit
p469
ag79
aVthey
p470
aVat
p471
aVlast
p472
aVconsent
p473
ag79
aVand
p474
ag74
aVhim
p475
aVthe
p476
aVchild
p477
ag106
asg107
(lp478
g109
ag109
ag109
ag109
ag109
ag109
ag109
ag109
ag109
ag109
ag109
ag109
ag109
ag109
ag109
ag109
ag109
ag109
ag109
ag109
ag109
ag109
ag109
ag109
ag109
ag109
ag109
ag109
ag109
ag109
ag109
ag109
ag109
ag109
ag109
ag109
ag109
ag109
ag109
ag109
ag109
ag109
ag109
ag109
ag109
ag109
ag109
ag109
ag109
ag109
ag109
asg110
(lp479
g122
ag116
ag123
ag113
ag120
ag121
ag241
ag115
ag117
ag113
ag123
ag115
ag116
ag117
ag122
ag117
ag122
ag123
ag120
ag121
ag123
ag113
ag120
ag123
ag242
ag115
ag117
ag122
ag116
ag117
ag120
ag121
ag117
ag126
ag127
ag243
ag114
ag122
ag123
ag120
ag123
ag122
ag116
ag124
ag120
ag121
ag113
ag123
ag115
ag117
ag130
asg131
VAt first they refused, but when the stranger offered them a large amount of gold for it, and they thought, it is a child of good fortune, and everything must turn out well for it, they at last consented, and gave him the child.
p480
sba(i__main__
Sentence
p481
(dp482
g17
I5
sg18
(lp483
S'The'
p484
aS'king'
p485
aS'put'
p486
aS'it'
p487
aS'in'
p488
aS'a'
p489
aS'box'
p490
aS'and'
p491
aS'rode'
p492
aS'away'
p493
aS'with'
p494
aS'it'
p495
aS'until'
p496
aS'he'
p497
aS'came'
p498
aS'to'
p499
aS'a'
p500
aS'deep'
p501
aS'piece'
p502
aS'of'
p503
aS'water'
p504
aS','
p505
aS'then'
p506
aS'he'
p507
aS'threw'
p508
aS'the'
p509
aS'box'
p510
aS'into'
p511
aS'it'
p512
aS'and'
p513
aS'thought'
p514
aS','
p515
aS'I'
p516
aS'have'
p517
aS'freed'
p518
aS'my'
p519
aS'daughter'
p520
aS'from'
p521
aS'her'
p522
aS'undesired'
p523
aS'suitor'
p524
aS'.'
p525
asg65
(lp526
VThe
p527
aVking
p528
aVput
p529
aVit
p530
aVin
p531
ag70
aVbox
p532
aVand
p533
aVrode
p534
aVaway
p535
aVwith
p536
aVit
p537
aVuntil
p538
aVhe
p539
ag82
aVto
p540
ag70
aVdeep
p541
aVpiece
p542
aVof
p543
aVwater
p544
ag79
aVthen
p545
aVhe
p546
aVthrow
p547
aVthe
p548
aVbox
p549
aVinto
p550
aVit
p551
aVand
p552
ag456
ag79
ag373
aVhave
p553
aVfree
p554
aVmy
p555
aVdaughter
p556
aVfrom
p557
aVher
p558
aVundesired
p559
aVsuitor
p560
ag106
asg107
(lp561
g109
ag109
ag109
ag109
ag109
ag109
ag109
ag109
ag109
ag109
ag109
ag109
ag109
ag109
ag109
ag109
ag109
ag109
ag109
ag109
ag109
ag109
ag109
ag109
ag109
ag109
ag109
ag109
ag109
ag109
ag109
ag109
ag109
ag109
ag109
ag109
ag109
ag109
ag109
ag109
ag109
ag109
asg110
(lp562
g115
ag117
ag113
ag123
ag122
ag115
ag117
ag121
ag117
ag114
ag122
ag123
ag122
ag123
ag113
ag119
ag115
ag117
ag117
ag122
ag117
ag120
ag114
ag123
ag113
ag115
ag117
ag122
ag123
ag121
ag113
ag120
ag123
ag381
ag124
ag125
ag117
ag122
ag125
ag124
ag117
ag130
asg131
VThe king put it in a box and rode away with it until he came to a deep piece of water, then he threw the box into it and thought, I have freed my daughter from her undesired suitor.
p563
sba(i__main__
Sentence
p564
(dp565
g17
I6
sg18
(lp566
S'The'
p567
aS'box'
p568
aS','
p569
aS'however'
p570
aS','
p571
aS'did'
p572
aS'not'
p573
aS'sink'
p574
aS','
p575
aS'but'
p576
aS'floated'
p577
aS'like'
p578
aS'a'
p579
aS'boat'
p580
aS','
p581
aS'and'
p582
aS'not'
p583
aS'a'
p584
aS'drop'
p585
aS'of'
p586
aS'water'
p587
aS'made'
p588
aS'its'
p589
aS'way'
p590
aS'into'
p591
aS'it'
p592
aS'.'
p593
asg65
(lp594
VThe
p595
aVbox
p596
ag79
aVhowever
p597
ag79
aVdo
p598
aVnot
p599
aVsink
p600
ag79
aVbut
p601
aVfloat
p602
aVlike
p603
ag70
aVboat
p604
ag79
aVand
p605
aVnot
p606
ag70
aVdrop
p607
aVof
p608
aVwater
p609
aVmake
p610
aVit
p611
aVway
p612
aVinto
p613
aVit
p614
ag106
asg107
(lp615
g109
ag109
ag109
ag109
ag109
ag109
ag109
ag109
ag109
ag109
ag109
ag109
ag109
ag109
ag109
ag109
ag109
ag109
ag109
ag109
ag109
ag109
ag109
ag109
ag109
ag109
ag109
asg110
(lp616
g115
ag117
ag120
ag114
ag120
ag113
ag114
ag127
ag120
ag121
ag113
ag122
ag115
ag116
ag120
ag121
ag114
ag115
ag117
ag122
ag117
ag124
ag125
ag117
ag122
ag123
ag130
asg131
VThe box, however, did not sink, but floated like a boat, and not a drop of water made its way into it.
p617
sba(i__main__
Sentence
p618
(dp619
g17
I7
sg18
(lp620
S'And'
p621
aS'it'
p622
aS'floated'
p623
aS'to'
p624
aS'within'
p625
aS'two'
p626
aS'miles'
p627
aS'of'
p628
aS'the'
p629
aS'king'
p630
aS"'s"
p631
aS'chief'
p632
aS'city'
p633
aS','
p634
aS'where'
p635
aS'there'
p636
aS'was'
p637
aS'a'
p638
aS'mill'
p639
aS','
p640
aS'and'
p641
aS'it'
p642
aS'came'
p643
aS'to'
p644
aS'a'
p645
aS'halt'
p646
aS'at'
p647
aS'the'
p648
aS'mill-dam'
p649
aS'.'
p650
asg65
(lp651
VAnd
p652
aVit
p653
aVfloat
p654
aVto
p655
aVwithin
p656
aVtwo
p657
aVmile
p658
aVof
p659
aVthe
p660
aVking
p661
aV's
p662
aVchief
p663
aVcity
p664
ag79
aVwhere
p665
aVthere
p666
ag68
ag70
aVmill
p667
ag79
aVand
p668
aVit
p669
ag82
aVto
p670
ag70
aVhalt
p671
aVat
p672
aVthe
p673
aVmill-dam
p674
ag106
asg107
(lp675
g109
ag109
ag109
ag109
ag109
ag109
ag109
ag109
ag109
ag109
ag109
ag109
ag109
ag109
ag109
ag109
ag109
ag109
ag109
ag109
ag109
ag109
ag109
ag109
ag109
ag109
ag109
ag109
ag109
ag109
asg110
(lp676
g121
ag123
ag113
ag119
ag127
aS'CD'
p677
ag240
ag122
ag115
ag117
ag129
ag117
ag117
ag120
ag241
ag112
ag113
ag115
ag117
ag120
ag121
ag123
ag113
ag119
ag115
ag117
ag122
ag115
ag117
ag130
asg131
VAnd it floated to within two miles of the king's chief city, where there was a mill, and it came to a halt at the mill-dam.
p678
sba(i__main__
Sentence
p679
(dp680
g17
I8
sg18
(lp681
S'A'
p682
aS'miller'
p683
aS"'s"
p684
aS'boy'
p685
aS','
p686
aS'who'
p687
aS'by'
p688
aS'good'
p689
aS'luck'
p690
aS'was'
p691
aS'standing'
p692
aS'there'
p693
aS','
p694
aS'noticed'
p695
aS'it'
p696
aS'and'
p697
aS'pulled'
p698
aS'it'
p699
aS'out'
p700
aS'with'
p701
aS'a'
p702
aS'hook'
p703
aS','
p704
aS'thinking'
p705
aS'that'
p706
aS'he'
p707
aS'had'
p708
aS'found'
p709
aS'a'
p710
aS'great'
p711
aS'treasure'
p712
aS','
p713
aS'but'
p714
aS'when'
p715
aS'he'
p716
aS'opened'
p717
aS'it'
p718
aS'there'
p719
aS'lay'
p720
aS'a'
p721
aS'pretty'
p722
aS'boy'
p723
aS'inside'
p724
aS','
p725
aS'quite'
p726
aS'fresh'
p727
aS'and'
p728
aS'lively'
p729
aS'.'
p730
asg65
(lp731
VA
p732
aVmiller
p733
aV's
p734
aVboy
p735
ag79
aVwho
p736
aVby
p737
aVgood
p738
aVluck
p739
ag68
aVstand
p740
aVthere
p741
ag79
aVnotice
p742
aVit
p743
aVand
p744
aVpull
p745
aVit
p746
aVout
p747
aVwith
p748
ag70
aVhook
p749
ag79
aVthink
p750
aVthat
p751
aVhe
p752
ag347
aVfind
p753
ag70
aVgreat
p754
aVtreasure
p755
ag79
aVbut
p756
aVwhen
p757
aVhe
p758
aVopen
p759
aVit
p760
aVthere
p761
aVlay
p762
ag70
aVpretty
p763
aVboy
p764
aVinside
p765
ag79
aVquite
p766
aVfresh
p767
aVand
p768
aVlively
p769
ag106
asg107
(lp770
g109
ag109
ag109
ag109
ag109
ag109
ag109
ag109
ag109
ag109
ag109
ag109
ag109
ag109
ag109
ag109
ag109
ag109
ag109
ag109
ag109
ag109
ag109
ag109
ag109
ag109
ag109
ag109
ag109
ag109
ag109
ag109
ag109
ag109
ag109
ag109
ag109
ag109
ag109
ag109
ag109
ag109
ag109
ag109
ag109
ag109
ag109
ag109
ag109
asg110
(lp771
g115
ag117
ag129
ag117
ag120
ag118
ag122
ag116
ag117
ag113
ag128
ag114
ag120
ag124
ag123
ag121
ag113
ag123
ag122
ag122
ag115
ag117
ag120
ag128
ag122
ag123
ag113
ag124
ag115
ag116
ag117
ag120
ag121
ag241
ag123
ag113
ag123
ag114
ag381
ag115
ag114
ag116
ag117
ag120
ag114
ag116
ag121
ag114
ag130
asg131
VA miller's boy, who by good luck was standing there, noticed it and pulled it out with a hook, thinking that he had found a great treasure, but when he opened it there lay a pretty boy inside, quite fresh and lively.
p772
sba(i__main__
Sentence
p773
(dp774
g17
I9
sg18
(lp775
S'He'
p776
aS'took'
p777
aS'him'
p778
aS'to'
p779
aS'the'
p780
aS'miller'
p781
aS'and'
p782
aS'his'
p783
aS'wife'
p784
aS','
p785
aS'and'
p786
aS'as'
p787
aS'they'
p788
aS'had'
p789
aS'no'
p790
aS'children'
p791
aS'they'
p792
aS'were'
p793
aS'glad'
p794
aS','
p795
aS'and'
p796
aS'said'
p797
aS','
p798
aS'``'
p799
aS'God'
p800
aS'has'
p801
aS'given'
p802
aS'him'
p803
aS'to'
p804
aS'us'
p805
aS'.'
p806
aS"''"
p807
asg65
(lp808
VHe
p809
aVtake
p810
aVhim
p811
aVto
p812
aVthe
p813
aVmiller
p814
aVand
p815
aVhis
p816
aVwife
p817
ag79
aVand
p818
ag70
aVthey
p819
ag347
aVno
p820
aVchild
p821
aVthey
p822
aVbe
p823
aVglad
p824
ag79
aVand
p825
ag363
ag79
aV``
p826
aVGod
p827
ag223
aVgive
p828
aVhim
p829
aVto
p830
aVu
p831
ag106
aV''
p832
asg107
(lp833
g109
ag109
ag109
ag109
ag109
ag109
ag109
ag109
ag109
ag109
ag109
ag109
ag109
ag109
ag109
ag109
ag109
ag109
ag109
ag109
ag109
ag109
ag109
ag109
ag109
ag109
ag109
ag109
ag109
ag109
ag109
ag109
asg110
(lp834
g123
ag113
ag123
ag119
ag115
ag117
ag121
ag125
ag117
ag120
ag121
ag122
ag123
ag113
ag115
ag240
ag123
ag113
ag124
ag120
ag121
ag113
ag120
aS'``'
p835
aS'NNP'
p836
ag242
ag124
ag123
ag119
ag123
ag130
aS"''"
p837
asg131
VHe took him to the miller and his wife, and as they had no children they were glad, and said, "God has given him to us."
p838
sba(i__main__
Sentence
p839
(dp840
g17
I10
sg18
(lp841
S'They'
p842
aS'took'
p843
aS'great'
p844
aS'care'
p845
aS'of'
p846
aS'the'
p847
aS'foundling'
p848
aS','
p849
aS'and'
p850
aS'he'
p851
aS'grew'
p852
aS'up'
p853
aS'in'
p854
aS'all'
p855
aS'goodness'
p856
aS'.'
p857
asg65
(lp858
VThey
p859
ag810
aVgreat
p860
aVcare
p861
aVof
p862
aVthe
p863
aVfoundling
p864
ag79
aVand
p865
aVhe
p866
aVgrow
p867
aVup
p868
aVin
p869
aVall
p870
aVgoodness
p871
ag106
asg107
(lp872
g109
ag109
ag109
ag109
ag109
ag109
ag109
ag109
ag109
ag109
ag109
ag109
ag109
ag109
ag109
ag109
asg110
(lp873
g123
ag113
ag116
ag117
ag122
ag115
ag117
ag120
ag121
ag123
ag113
ag243
ag122
ag115
ag117
ag130
asg131
VThey took great care of the foundling, and he grew up in all goodness.
p874
sba(i__main__
Sentence
p875
(dp876
g17
I11
sg18
(lp877
S'It'
p878
aS'happened'
p879
aS'that'
p880
aS'once'
p881
aS'in'
p882
aS'a'
p883
aS'storm'
p884
aS','
p885
aS'the'
p886
aS'king'
p887
aS'went'
p888
aS'into'
p889
aS'the'
p890
aS'mill'
p891
aS','
p892
aS'and'
p893
aS'asked'
p894
aS'the'
p895
aS'mill-folk'
p896
aS'if'
p897
aS'the'
p898
aS'tall'
p899
aS'youth'
p900
aS'were'
p901
aS'their'
p902
aS'son'
p903
aS'.'
p904
asg65
(lp905
VIt
p906
aVhappen
p907
aVthat
p908
aVonce
p909
aVin
p910
ag70
aVstorm
p911
ag79
aVthe
p912
aVking
p913
ag355
aVinto
p914
aVthe
p915
aVmill
p916
ag79
aVand
p917
aVask
p918
aVthe
p919
aVmill-folk
p920
aVif
p921
aVthe
p922
aVtall
p923
aVyouth
p924
ag823
aVtheir
p925
aVson
p926
ag106
asg107
(lp927
g109
ag109
ag109
ag109
ag109
ag109
ag109
ag109
ag109
ag109
ag109
ag109
ag109
ag109
ag109
ag109
ag109
ag109
ag109
ag109
ag109
ag109
ag109
ag109
ag109
ag109
ag109
asg110
(lp928
g123
ag113
ag122
ag114
ag122
ag115
ag117
ag120
ag115
ag117
ag113
ag122
ag115
ag117
ag120
ag121
ag113
ag115
ag117
ag122
ag115
ag116
ag117
ag113
ag125
ag117
ag130
asg131
VIt happened that once in a storm, the king went into the mill, and asked the mill-folk if the tall youth were their son.
p929
sba(i__main__
Sentence
p930
(dp931
g17
I12
sg18
(lp932
S'No'
p933
aS','
p934
aS'answered'
p935
aS'they'
p936
aS','
p937
aS'he'
p938
aS"'s"
p939
aS'a'
p940
aS'foundling'
p941
aS'.'
p942
asg65
(lp943
VNo
p944
ag79
aVanswer
p945
aVthey
p946
ag79
aVhe
p947
aV's
p948
ag70
aVfoundling
p949
ag106
asg107
(lp950
g109
ag109
ag109
ag109
ag109
ag109
ag109
ag109
ag109
ag109
asg110
(lp951
g115
ag120
ag124
ag123
ag120
ag123
ag242
ag115
ag117
ag130
asg131
VNo, answered they, he's a foundling.
p952
sba(i__main__
Sentence
p953
(dp954
g17
I13
sg18
(lp955
S'Fourteen'
p956
aS'years'
p957
aS'ago'
p958
aS'he'
p959
aS'floated'
p960
aS'down'
p961
aS'to'
p962
aS'the'
p963
aS'mill-dam'
p964
aS'in'
p965
aS'a'
p966
aS'box'
p967
aS','
p968
aS'and'
p969
aS'the'
p970
aS'mill-boy'
p971
aS'pulled'
p972
aS'him'
p973
aS'out'
p974
aS'of'
p975
aS'the'
p976
aS'water'
p977
aS'.'
p978
asg65
(lp979
VFourteen
p980
aVyear
p981
aVago
p982
aVhe
p983
aVfloat
p984
aVdown
p985
aVto
p986
aVthe
p987
aVmill-dam
p988
aVin
p989
ag70
aVbox
p990
ag79
aVand
p991
aVthe
p992
aVmill-boy
p993
aVpull
p994
aVhim
p995
aVout
p996
aVof
p997
aVthe
p998
aVwater
p999
ag106
asg107
(lp1000
g109
ag109
ag109
ag109
ag109
ag109
ag109
ag109
ag109
ag109
ag109
ag109
ag109
ag109
ag109
ag109
ag109
ag109
ag109
ag109
ag109
ag109
ag109
asg110
(lp1001
g677
ag240
ag114
ag123
ag113
ag243
ag119
ag115
ag117
ag122
ag115
ag117
ag120
ag121
ag115
ag116
ag124
ag123
ag243
ag122
ag115
ag117
ag130
asg131
VFourteen years ago he floated down to the mill-dam in a box, and the mill-boy pulled him out of the water.
p1002
sba(i__main__
Sentence
p1003
(dp1004
g17
I14
sg18
(lp1005
S'Then'
p1006
aS'the'
p1007
aS'king'
p1008
aS'knew'
p1009
aS'that'
p1010
aS'it'
p1011
aS'was'
p1012
aS'none'
p1013
aS'other'
p1014
aS'than'
p1015
aS'the'
p1016
aS'child'
p1017
aS'of'
p1018
aS'good'
p1019
aS'fortune'
p1020
aS'which'
p1021
aS'he'
p1022
aS'had'
p1023
aS'thrown'
p1024
aS'into'
p1025
aS'the'
p1026
aS'water'
p1027
aS','
p1028
aS'and'
p1029
aS'he'
p1030
aS'said'
p1031
aS','
p1032
aS'my'
p1033
aS'good'
p1034
aS'people'
p1035
aS','
p1036
aS'could'
p1037
aS'not'
p1038
aS'the'
p1039
aS'youth'
p1040
aS'take'
p1041
aS'a'
p1042
aS'letter'
p1043
aS'to'
p1044
aS'the'
p1045
aS'queen'
p1046
aS'.'
p1047
asg65
(lp1048
VThen
p1049
aVthe
p1050
aVking
p1051
ag206
aVthat
p1052
aVit
p1053
ag68
aVnone
p1054
aVother
p1055
aVthan
p1056
aVthe
p1057
aVchild
p1058
aVof
p1059
aVgood
p1060
aVfortune
p1061
aVwhich
p1062
aVhe
p1063
ag347
aVthrow
p1064
aVinto
p1065
aVthe
p1066
aVwater
p1067
ag79
aVand
p1068
aVhe
p1069
ag363
ag79
aVmy
p1070
aVgood
p1071
aVpeople
p1072
ag79
aVcould
p1073
aVnot
p1074
aVthe
p1075
aVyouth
p1076
aVtake
p1077
ag70
aVletter
p1078
aVto
p1079
aVthe
p1080
aVqueen
p1081
ag106
asg107
(lp1082
g109
ag109
ag109
ag109
ag109
ag109
ag109
ag109
ag109
ag109
ag109
ag109
ag109
ag109
ag109
ag109
ag109
ag109
ag109
ag109
ag109
ag109
ag109
ag109
ag109
ag109
ag109
ag109
ag109
ag109
ag109
ag109
ag109
ag109
ag109
ag109
ag109
ag109
ag109
ag109
ag109
ag109
asg110
(lp1083
g114
ag115
ag117
ag113
ag122
ag123
ag113
ag117
ag116
ag122
ag115
ag117
ag122
ag116
ag117
aS'WDT'
p1084
ag123
ag113
ag124
ag122
ag115
ag117
ag120
ag121
ag123
ag113
ag120
ag125
ag116
ag240
ag120
ag126
ag114
ag115
ag117
ag117
ag115
ag117
ag119
ag115
ag117
ag130
asg131
VThen the king knew that it was none other than the child of good fortune which he had thrown into the water, and he said, my good people, could not the youth take a letter to the queen.
p1085
sba(i__main__
Sentence
p1086
(dp1087
g17
I15
sg18
(lp1088
S'I'
p1089
aS'will'
p1090
aS'give'
p1091
aS'him'
p1092
aS'two'
p1093
aS'gold'
p1094
aS'pieces'
p1095
aS'as'
p1096
aS'a'
p1097
aS'reward'
p1098
aS'.'
p1099
asg65
(lp1100
g373
aVwill
p1101
aVgive
p1102
aVhim
p1103
aVtwo
p1104
aVgold
p1105
aVpiece
p1106
ag70
ag70
aVreward
p1107
ag106
asg107
(lp1108
g109
ag109
ag109
ag109
ag109
ag109
ag109
ag109
ag109
ag109
ag109
asg110
(lp1109
g123
ag126
ag127
ag123
ag677
ag117
ag240
ag122
ag115
ag117
ag130
asg131
VI will give him two gold pieces as a reward.
p1110
sba(i__main__
Sentence
p1111
(dp1112
g17
I16
sg18
(lp1113
S'Just'
p1114
aS'as'
p1115
aS'the'
p1116
aS'king'
p1117
aS'commands'
p1118
aS','
p1119
aS'answered'
p1120
aS'they'
p1121
aS','
p1122
aS'and'
p1123
aS'they'
p1124
aS'told'
p1125
aS'the'
p1126
aS'boy'
p1127
aS'to'
p1128
aS'hold'
p1129
aS'himself'
p1130
aS'in'
p1131
aS'readiness'
p1132
aS'.'
p1133
asg65
(lp1134
VJust
p1135
ag70
aVthe
p1136
aVking
p1137
aVcommand
p1138
ag79
aVanswer
p1139
aVthey
p1140
ag79
aVand
p1141
aVthey
p1142
aVtell
p1143
aVthe
p1144
aVboy
p1145
aVto
p1146
aVhold
p1147
aVhimself
p1148
aVin
p1149
aVreadiness
p1150
ag106
asg107
(lp1151
g109
ag109
ag109
ag109
ag109
ag109
ag109
ag109
ag109
ag109
ag109
ag109
ag109
ag109
ag109
ag109
ag109
ag109
ag109
ag109
asg110
(lp1152
g114
ag122
ag115
ag117
ag240
ag120
ag113
ag123
ag120
ag121
ag123
ag113
ag115
ag117
ag119
ag127
ag123
ag122
ag117
ag130
asg131
VJust as the king commands, answered they, and they told the boy to hold himself in readiness.
p1153
sba(i__main__
Sentence
p1154
(dp1155
g17
I17
sg18
(lp1156
S'Then'
p1157
aS'the'
p1158
aS'king'
p1159
aS'wrote'
p1160
aS'a'
p1161
aS'letter'
p1162
aS'to'
p1163
aS'the'
p1164
aS'queen'
p1165
aS','
p1166
aS'wherein'
p1167
aS'he'
p1168
aS'said'
p1169
aS','
p1170
aS'as'
p1171
aS'soon'
p1172
aS'as'
p1173
aS'the'
p1174
aS'boy'
p1175
aS'arrives'
p1176
aS'with'
p1177
aS'this'
p1178
aS'letter'
p1179
aS','
p1180
aS'let'
p1181
aS'him'
p1182
aS'be'
p1183
aS'killed'
p1184
aS'and'
p1185
aS'buried'
p1186
aS','
p1187
aS'and'
p1188
aS'all'
p1189
aS'must'
p1190
aS'be'
p1191
aS'done'
p1192
aS'before'
p1193
aS'I'
p1194
aS'come'
p1195
aS'home'
p1196
aS'.'
p1197
asg65
(lp1198
VThen
p1199
aVthe
p1200
aVking
p1201
aVwrite
p1202
ag70
aVletter
p1203
aVto
p1204
aVthe
p1205
aVqueen
p1206
ag79
aVwherein
p1207
aVhe
p1208
ag363
ag79
ag70
aVsoon
p1209
ag70
aVthe
p1210
aVboy
p1211
aVarrive
p1212
aVwith
p1213
aVthis
p1214
aVletter
p1215
ag79
aVlet
p1216
aVhim
p1217
aVbe
p1218
aVkill
p1219
aVand
p1220
aVbury
p1221
ag79
aVand
p1222
aVall
p1223
aVmust
p1224
aVbe
p1225
aVdo
p1226
aVbefore
p1227
ag373
aVcome
p1228
aVhome
p1229
ag106
asg107
(lp1230
g109
ag109
ag109
ag109
ag109
ag109
ag109
ag109
ag109
ag109
ag109
ag109
ag109
ag109
ag109
ag109
ag109
ag109
ag109
ag109
ag109
ag109
ag109
ag109
ag109
ag109
ag109
ag109
ag109
ag109
ag109
ag109
ag109
ag109
ag109
ag109
ag109
ag109
ag109
ag109
ag109
asg110
(lp1231
g114
ag115
ag117
ag113
ag115
ag117
ag119
ag115
ag117
ag120
ag117
ag123
ag113
ag120
ag122
ag114
ag122
ag115
ag117
ag242
ag122
ag115
ag117
ag120
ag127
ag123
ag127
ag124
ag121
ag113
ag120
ag121
ag115
ag126
ag127
ag124
ag122
ag123
ag381
ag114
ag130
asg131
VThen the king wrote a letter to the queen, wherein he said, as soon as the boy arrives with this letter, let him be killed and buried, and all must be done before I come home.
p1232
sba(i__main__
Sentence
p1233
(dp1234
g17
I18
sg18
(lp1235
S'The'
p1236
aS'boy'
p1237
aS'set'
p1238
aS'out'
p1239
aS'with'
p1240
aS'this'
p1241
aS'letter'
p1242
aS','
p1243
aS'but'
p1244
aS'he'
p1245
aS'lost'
p1246
aS'his'
p1247
aS'way'
p1248
aS','
p1249
aS'and'
p1250
aS'in'
p1251
aS'the'
p1252
aS'evening'
p1253
aS'came'
p1254
aS'to'
p1255
aS'a'
p1256
aS'large'
p1257
aS'forest'
p1258
aS'.'
p1259
asg65
(lp1260
VThe
p1261
aVboy
p1262
aVset
p1263
aVout
p1264
aVwith
p1265
aVthis
p1266
aVletter
p1267
ag79
aVbut
p1268
aVhe
p1269
aVlose
p1270
aVhis
p1271
aVway
p1272
ag79
aVand
p1273
aVin
p1274
aVthe
p1275
aVevening
p1276
ag82
aVto
p1277
ag70
aVlarge
p1278
aVforest
p1279
ag106
asg107
(lp1280
g109
ag109
ag109
ag109
ag109
ag109
ag109
ag109
ag109
ag109
ag109
ag109
ag109
ag109
ag109
ag109
ag109
ag109
ag109
ag109
ag109
ag109
ag109
ag109
asg110
(lp1281
g115
ag117
ag113
ag243
ag122
ag115
ag117
ag120
ag121
ag123
ag113
ag125
ag117
ag120
ag121
ag122
ag115
ag117
ag113
ag119
ag115
ag116
ag117
ag130
asg131
VThe boy set out with this letter, but he lost his way, and in the evening came to a large forest.
p1282
sba(i__main__
Sentence
p1283
(dp1284
g17
I19
sg18
(lp1285
S'In'
p1286
aS'the'
p1287
aS'darkness'
p1288
aS'he'
p1289
aS'saw'
p1290
aS'a'
p1291
aS'small'
p1292
aS'light'
p1293
aS','
p1294
aS'he'
p1295
aS'went'
p1296
aS'towards'
p1297
aS'it'
p1298
aS'and'
p1299
aS'reached'
p1300
aS'a'
p1301
aS'cottage'
p1302
aS'.'
p1303
asg65
(lp1304
VIn
p1305
aVthe
p1306
aVdarkness
p1307
aVhe
p1308
aVsaw
p1309
ag70
aVsmall
p1310
aVlight
p1311
ag79
aVhe
p1312
ag355
aVtowards
p1313
aVit
p1314
aVand
p1315
aVreach
p1316
ag70
aVcottage
p1317
ag106
asg107
(lp1318
g109
ag109
ag109
ag109
ag109
ag109
ag109
ag109
ag109
ag109
ag109
ag109
ag109
ag109
ag109
ag109
ag109
ag109
asg110
(lp1319
g122
ag115
ag117
ag123
ag113
ag115
ag116
ag117
ag120
ag123
ag113
ag240
ag123
ag121
ag113
ag115
ag117
ag130
asg131
VIn the darkness he saw a small light, he went towards it and reached a cottage.
p1320
sba(i__main__
Sentence
p1321
(dp1322
g17
I20
sg18
(lp1323
S'When'
p1324
aS'he'
p1325
aS'went'
p1326
aS'in'
p1327
aS','
p1328
aS'an'
p1329
aS'old'
p1330
aS'woman'
p1331
aS'was'
p1332
aS'sitting'
p1333
aS'by'
p1334
aS'the'
p1335
aS'fire'
p1336
aS'quite'
p1337
aS'alone'
p1338
aS'.'
p1339
asg65
(lp1340
VWhen
p1341
aVhe
p1342
ag355
aVin
p1343
ag79
aVan
p1344
aVold
p1345
aVwoman
p1346
ag68
aVsit
p1347
aVby
p1348
aVthe
p1349
aVfire
p1350
aVquite
p1351
aValone
p1352
ag106
asg107
(lp1353
g109
ag109
ag109
ag109
ag109
ag109
ag109
ag109
ag109
ag109
ag109
ag109
ag109
ag109
ag109
ag109
asg110
(lp1354
g241
ag123
ag113
ag122
ag120
ag115
ag116
ag117
ag113
ag128
ag122
ag115
ag117
ag114
ag114
ag130
asg131
VWhen he went in, an old woman was sitting by the fire quite alone.
p1355
sba(i__main__
Sentence
p1356
(dp1357
g17
I21
sg18
(lp1358
S'She'
p1359
aS'started'
p1360
aS'when'
p1361
aS'she'
p1362
aS'saw'
p1363
aS'the'
p1364
aS'boy'
p1365
aS','
p1366
aS'and'
p1367
aS'said'
p1368
aS','
p1369
aS'whence'
p1370
aS'do'
p1371
aS'you'
p1372
aS'come'
p1373
aS','
p1374
aS'and'
p1375
aS'whither'
p1376
aS'are'
p1377
aS'you'
p1378
aS'going'
p1379
aS'.'
p1380
asg65
(lp1381
VShe
p1382
aVstart
p1383
aVwhen
p1384
aVshe
p1385
aVsaw
p1386
aVthe
p1387
aVboy
p1388
ag79
aVand
p1389
ag363
ag79
aVwhence
p1390
aVdo
p1391
aVyou
p1392
aVcome
p1393
ag79
aVand
p1394
aVwhither
p1395
aVbe
p1396
aVyou
p1397
aVgo
p1398
ag106
asg107
(lp1399
g109
ag109
ag109
ag109
ag109
ag109
ag109
ag109
ag109
ag109
ag109
ag109
ag109
ag109
ag109
ag109
ag109
ag109
ag109
ag109
ag109
ag109
asg110
(lp1400
g123
ag113
ag241
ag123
ag113
ag115
ag117
ag120
ag121
ag113
ag120
ag117
ag127
ag123
ag127
ag120
ag121
ag115
ag381
ag123
ag128
ag130
asg131
VShe started when she saw the boy, and said, whence do you come, and whither are you going.
p1401
sba(i__main__
Sentence
p1402
(dp1403
g17
I22
sg18
(lp1404
S'I'
p1405
aS'come'
p1406
aS'from'
p1407
aS'the'
p1408
aS'mill'
p1409
aS','
p1410
aS'he'
p1411
aS'answered'
p1412
aS','
p1413
aS'and'
p1414
aS'wish'
p1415
aS'to'
p1416
aS'go'
p1417
aS'to'
p1418
aS'the'
p1419
aS'queen'
p1420
aS','
p1421
aS'to'
p1422
aS'whom'
p1423
aS'I'
p1424
aS'am'
p1425
aS'taking'
p1426
aS'a'
p1427
aS'letter'
p1428
aS','
p1429
aS'but'
p1430
aS'as'
p1431
aS'I'
p1432
aS'have'
p1433
aS'lost'
p1434
aS'my'
p1435
aS'way'
p1436
aS'in'
p1437
aS'the'
p1438
aS'forest'
p1439
aS'I'
p1440
aS'should'
p1441
aS'like'
p1442
aS'to'
p1443
aS'stay'
p1444
aS'here'
p1445
aS'over'
p1446
aS'night'
p1447
aS'.'
p1448
asg65
(lp1449
g373
aVcome
p1450
aVfrom
p1451
aVthe
p1452
aVmill
p1453
ag79
aVhe
p1454
aVanswer
p1455
ag79
aVand
p1456
aVwish
p1457
aVto
p1458
aVgo
p1459
aVto
p1460
aVthe
p1461
aVqueen
p1462
ag79
aVto
p1463
aVwhom
p1464
ag373
aVbe
p1465
aVtake
p1466
ag70
aVletter
p1467
ag79
aVbut
p1468
ag70
ag373
aVhave
p1469
ag1270
aVmy
p1470
aVway
p1471
aVin
p1472
aVthe
p1473
aVforest
p1474
ag373
aVshould
p1475
aVlike
p1476
aVto
p1477
aVstay
p1478
aVhere
p1479
aVover
p1480
aVnight
p1481
ag106
asg107
(lp1482
g109
ag109
ag109
ag109
ag109
ag109
ag109
ag109
ag109
ag109
ag109
ag109
ag109
ag109
ag109
ag109
ag109
ag109
ag109
ag109
ag109
ag109
ag109
ag109
ag109
ag109
ag109
ag109
ag109
ag109
ag109
ag109
ag109
ag109
ag109
ag109
ag109
ag109
ag109
ag109
ag109
ag109
ag109
ag109
asg110
(lp1483
g123
ag381
ag122
ag115
ag117
ag120
ag123
ag113
ag120
ag121
ag117
ag119
ag127
ag119
ag115
ag117
ag120
ag119
ag127
ag123
ag381
ag128
ag115
ag117
ag120
ag121
ag122
ag123
ag381
ag124
ag125
ag117
ag122
ag115
ag117
ag123
ag126
ag127
ag119
ag127
ag114
ag122
ag117
ag130
asg131
VI come from the mill, he answered, and wish to go to the queen, to whom I am taking a letter, but as I have lost my way in the forest I should like to stay here over night.
p1484
sba(i__main__
Sentence
p1485
(dp1486
g17
I23
sg18
(lp1487
S'You'
p1488
aS'poor'
p1489
aS'boy'
p1490
aS','
p1491
aS'said'
p1492
aS'the'
p1493
aS'woman'
p1494
aS','
p1495
aS'you'
p1496
aS'have'
p1497
aS'come'
p1498
aS'into'
p1499
aS'a'
p1500
aS'den'
p1501
aS'of'
p1502
aS'thieves'
p1503
aS','
p1504
aS'and'
p1505
aS'when'
p1506
aS'they'
p1507
aS'come'
p1508
aS'home'
p1509
aS'they'
p1510
aS'will'
p1511
aS'kill'
p1512
aS'you'
p1513
aS'.'
p1514
asg65
(lp1515
VYou
p1516
aVpoor
p1517
aVboy
p1518
ag79
ag363
aVthe
p1519
aVwoman
p1520
ag79
aVyou
p1521
aVhave
p1522
aVcome
p1523
aVinto
p1524
ag70
aVden
p1525
aVof
p1526
aVthief
p1527
ag79
aVand
p1528
aVwhen
p1529
aVthey
p1530
aVcome
p1531
aVhome
p1532
aVthey
p1533
aVwill
p1534
aVkill
p1535
aVyou
p1536
ag106
asg107
(lp1537
g109
ag109
ag109
ag109
ag109
ag109
ag109
ag109
ag109
ag109
ag109
ag109
ag109
ag109
ag109
ag109
ag109
ag109
ag109
ag109
ag109
ag109
ag109
ag109
ag109
ag109
ag109
asg110
(lp1538
g123
ag381
ag116
ag120
ag113
ag115
ag117
ag120
ag123
ag381
ag124
ag122
ag115
ag116
ag122
ag240
ag120
ag121
ag241
ag123
ag381
ag117
ag123
ag126
ag127
ag123
ag130
asg131
VYou poor boy, said the woman, you have come into a den of thieves, and when they come home they will kill you.
p1539
sba(i__main__
Sentence
p1540
(dp1541
g17
I24
sg18
(lp1542
S'Let'
p1543
aS'them'
p1544
aS'come'
p1545
aS','
p1546
aS'said'
p1547
aS'the'
p1548
aS'boy'
p1549
aS','
p1550
aS'I'
p1551
aS'am'
p1552
aS'not'
p1553
aS'afraid'
p1554
aS','
p1555
aS'but'
p1556
aS'I'
p1557
aS'am'
p1558
aS'so'
p1559
aS'tired'
p1560
aS'that'
p1561
aS'I'
p1562
aS'can'
p1563
aS'not'
p1564
aS'go'
p1565
aS'any'
p1566
aS'farther'
p1567
aS'.'
p1568
asg65
(lp1569
VLet
p1570
aVthem
p1571
aVcome
p1572
ag79
ag363
aVthe
p1573
aVboy
p1574
ag79
ag373
ag1465
aVnot
p1575
aVafraid
p1576
ag79
aVbut
p1577
ag373
ag1465
aVso
p1578
aVtire
p1579
aVthat
p1580
ag373
aVcan
p1581
aVnot
p1582
aVgo
p1583
aVany
p1584
aVfarther
p1585
ag106
asg107
(lp1586
g109
ag109
ag109
ag109
ag109
ag109
ag109
ag109
ag109
ag109
ag109
ag109
ag109
ag109
ag109
ag109
ag109
ag109
ag109
ag109
ag109
ag109
ag109
ag109
ag109
ag109
asg110
(lp1587
g836
ag123
ag381
ag120
ag113
ag115
ag117
ag120
ag123
ag381
ag114
ag124
ag120
ag121
ag123
ag381
ag114
ag124
ag122
ag123
ag126
ag114
ag127
ag115
ag117
ag130
asg131
VLet them come, said the boy, I am not afraid, but I am so tired that I cannot go any farther.
p1588
sba(i__main__
Sentence
p1589
(dp1590
g17
I25
sg18
(lp1591
S'And'
p1592
aS'he'
p1593
aS'stretched'
p1594
aS'himself'
p1595
aS'upon'
p1596
aS'a'
p1597
aS'bench'
p1598
aS'and'
p1599
aS'fell'
p1600
aS'asleep'
p1601
aS'.'
p1602
asg65
(lp1603
VAnd
p1604
aVhe
p1605
aVstretch
p1606
aVhimself
p1607
aVupon
p1608
ag70
aVbench
p1609
aVand
p1610
aVfell
p1611
aVasleep
p1612
ag106
asg107
(lp1613
g109
ag109
ag109
ag109
ag109
ag109
ag109
ag109
ag109
ag109
ag109
asg110
(lp1614
g121
ag123
ag113
ag123
ag122
ag115
ag117
ag121
ag113
ag127
ag130
asg131
VAnd he stretched himself upon a bench and fell asleep.
p1615
sba(i__main__
Sentence
p1616
(dp1617
g17
I26
sg18
(lp1618
S'Soon'
p1619
aS'afterwards'
p1620
aS'the'
p1621
aS'robbers'
p1622
aS'came'
p1623
aS','
p1624
aS'and'
p1625
aS'angrily'
p1626
aS'asked'
p1627
aS'what'
p1628
aS'strange'
p1629
aS'boy'
p1630
aS'was'
p1631
aS'lying'
p1632
aS'there'
p1633
aS'.'
p1634
asg65
(lp1635
VSoon
p1636
aVafterwards
p1637
aVthe
p1638
aVrobber
p1639
ag82
ag79
aVand
p1640
aVangrily
p1641
aVask
p1642
aVwhat
p1643
aVstrange
p1644
aVboy
p1645
ag68
aVlie
p1646
aVthere
p1647
ag106
asg107
(lp1648
g109
ag109
ag109
ag109
ag109
ag109
ag109
ag109
ag109
ag109
ag109
ag109
ag109
ag109
ag109
ag109
asg110
(lp1649
g114
ag114
ag115
ag240
ag113
ag120
ag121
ag114
ag113
ag118
ag117
ag117
ag113
ag128
ag114
ag130
asg131
VSoon afterwards the robbers came, and angrily asked what strange boy was lying there.
p1650
sba(i__main__
Sentence
p1651
(dp1652
g17
I27
sg18
(lp1653
S'Ah'
p1654
aS','
p1655
aS'said'
p1656
aS'the'
p1657
aS'old'
p1658
aS'woman'
p1659
aS','
p1660
aS'it'
p1661
aS'is'
p1662
aS'an'
p1663
aS'innocent'
p1664
aS'child'
p1665
aS'who'
p1666
aS'has'
p1667
aS'lost'
p1668
aS'himself'
p1669
aS'in'
p1670
aS'the'
p1671
aS'forest'
p1672
aS','
p1673
aS'and'
p1674
aS'out'
p1675
aS'of'
p1676
aS'pity'
p1677
aS'I'
p1678
aS'have'
p1679
aS'let'
p1680
aS'him'
p1681
aS'come'
p1682
aS'in'
p1683
aS','
p1684
aS'he'
p1685
aS'has'
p1686
aS'to'
p1687
aS'take'
p1688
aS'a'
p1689
aS'letter'
p1690
aS'to'
p1691
aS'the'
p1692
aS'queen'
p1693
aS'.'
p1694
asg65
(lp1695
VAh
p1696
ag79
ag363
aVthe
p1697
aVold
p1698
aVwoman
p1699
ag79
aVit
p1700
ag272
aVan
p1701
aVinnocent
p1702
aVchild
p1703
aVwho
p1704
ag223
ag1270
aVhimself
p1705
aVin
p1706
aVthe
p1707
aVforest
p1708
ag79
aVand
p1709
aVout
p1710
aVof
p1711
aVpity
p1712
ag373
aVhave
p1713
aVlet
p1714
aVhim
p1715
aVcome
p1716
aVin
p1717
ag79
aVhe
p1718
ag223
aVto
p1719
aVtake
p1720
ag70
aVletter
p1721
aVto
p1722
aVthe
p1723
aVqueen
p1724
ag106
asg107
(lp1725
g109
ag109
ag109
ag109
ag109
ag109
ag109
ag109
ag109
ag109
ag109
ag109
ag109
ag109
ag109
ag109
ag109
ag109
ag109
ag109
ag109
ag109
ag109
ag109
ag109
ag109
ag109
ag109
ag109
ag109
ag109
ag109
ag109
ag109
ag109
ag109
ag109
ag109
ag109
ag109
ag109
asg110
(lp1726
g836
ag120
ag113
ag115
ag116
ag117
ag120
ag123
ag242
ag115
ag117
ag117
ag118
ag242
ag124
ag123
ag122
ag115
ag117
ag120
ag121
ag122
ag122
ag117
ag123
ag381
ag124
ag123
ag381
ag122
ag120
ag123
ag242
ag119
ag127
ag115
ag117
ag119
ag115
ag117
ag130
asg131
VAh, said the old woman, it is an innocent child who has lost himself in the forest, and out of pity I have let him come in, he has to take a letter to the queen.
p1727
sba(i__main__
Sentence
p1728
(dp1729
g17
I28
sg18
(lp1730
S'The'
p1731
aS'robbers'
p1732
aS'opened'
p1733
aS'the'
p1734
aS'letter'
p1735
aS'and'
p1736
aS'read'
p1737
aS'it'
p1738
aS','
p1739
aS'and'
p1740
aS'in'
p1741
aS'it'
p1742
aS'was'
p1743
aS'written'
p1744
aS'that'
p1745
aS'the'
p1746
aS'boy'
p1747
aS'as'
p1748
aS'soon'
p1749
aS'as'
p1750
aS'he'
p1751
aS'arrived'
p1752
aS'should'
p1753
aS'be'
p1754
aS'put'
p1755
aS'to'
p1756
aS'death'
p1757
aS'.'
p1758
asg65
(lp1759
VThe
p1760
aVrobber
p1761
aVopen
p1762
aVthe
p1763
aVletter
p1764
aVand
p1765
aVread
p1766
aVit
p1767
ag79
aVand
p1768
aVin
p1769
aVit
p1770
ag68
aVwrite
p1771
aVthat
p1772
aVthe
p1773
aVboy
p1774
ag70
aVsoon
p1775
ag70
aVhe
p1776
aVarrive
p1777
aVshould
p1778
aVbe
p1779
aVput
p1780
aVto
p1781
aVdeath
p1782
ag106
asg107
(lp1783
g109
ag109
ag109
ag109
ag109
ag109
ag109
ag109
ag109
ag109
ag109
ag109
ag109
ag109
ag109
ag109
ag109
ag109
ag109
ag109
ag109
ag109
ag109
ag109
ag109
ag109
ag109
ag109
asg110
(lp1784
g115
ag240
ag113
ag115
ag117
ag121
ag127
ag123
ag120
ag121
ag122
ag123
ag113
ag124
ag122
ag115
ag117
ag122
ag114
ag122
ag123
ag113
ag126
ag127
ag124
ag119
ag117
ag130
asg131
VThe robbers opened the letter and read it, and in it was written that the boy as soon as he arrived should be put to death.
p1785
sba(i__main__
Sentence
p1786
(dp1787
g17
I29
sg18
(lp1788
S'Then'
p1789
aS'the'
p1790
aS'hardhearted'
p1791
aS'robbers'
p1792
aS'felt'
p1793
aS'pity'
p1794
aS','
p1795
aS'and'
p1796
aS'their'
p1797
aS'leader'
p1798
aS'tore'
p1799
aS'up'
p1800
aS'the'
p1801
aS'letter'
p1802
aS'and'
p1803
aS'wrote'
p1804
aS'another'
p1805
aS','
p1806
aS'saying'
p1807
aS','
p1808
aS'that'
p1809
aS'as'
p1810
aS'soon'
p1811
aS'as'
p1812
aS'the'
p1813
aS'boy'
p1814
aS'came'
p1815
aS','
p1816
aS'he'
p1817
aS'should'
p1818
aS'be'
p1819
aS'married'
p1820
aS'at'
p1821
aS'once'
p1822
aS'to'
p1823
aS'the'
p1824
aS'king'
p1825
aS"'s"
p1826
aS'daughter'
p1827
aS'.'
p1828
asg65
(lp1829
VThen
p1830
aVthe
p1831
aVhardhearted
p1832
aVrobber
p1833
aVfelt
p1834
aVpity
p1835
ag79
aVand
p1836
aVtheir
p1837
aVleader
p1838
aVtore
p1839
aVup
p1840
aVthe
p1841
aVletter
p1842
aVand
p1843
ag1202
aVanother
p1844
ag79
aVsay
p1845
ag79
aVthat
p1846
ag70
aVsoon
p1847
ag70
aVthe
p1848
aVboy
p1849
ag82
ag79
aVhe
p1850
aVshould
p1851
aVbe
p1852
aVmarry
p1853
aVat
p1854
aVonce
p1855
aVto
p1856
aVthe
p1857
aVking
p1858
aV's
p1859
aVdaughter
p1860
ag106
asg107
(lp1861
g109
ag109
ag109
ag109
ag109
ag109
ag109
ag109
ag109
ag109
ag109
ag109
ag109
ag109
ag109
ag109
ag109
ag109
ag109
ag109
ag109
ag109
ag109
ag109
ag109
ag109
ag109
ag109
ag109
ag109
ag109
ag109
ag109
ag109
ag109
ag109
ag109
ag109
ag109
ag109
asg110
(lp1862
g114
ag115
ag124
ag240
ag113
ag117
ag120
ag121
ag125
ag117
ag117
ag122
ag115
ag117
ag121
ag113
ag115
ag120
ag128
ag120
ag122
ag122
ag114
ag122
ag115
ag117
ag113
ag120
ag123
ag126
ag127
ag124
ag122
ag114
ag119
ag115
ag117
ag129
ag117
ag130
asg131
VThen the hardhearted robbers felt pity, and their leader tore up the letter and wrote another, saying, that as soon as the boy came, he should be married at once to the king's daughter.
p1863
sba(i__main__
Sentence
p1864
(dp1865
g17
I30
sg18
(lp1866
S'Then'
p1867
aS'they'
p1868
aS'let'
p1869
aS'him'
p1870
aS'lie'
p1871
aS'quietly'
p1872
aS'on'
p1873
aS'the'
p1874
aS'bench'
p1875
aS'until'
p1876
aS'the'
p1877
aS'next'
p1878
aS'morning'
p1879
aS','
p1880
aS'and'
p1881
aS'when'
p1882
aS'he'
p1883
aS'awoke'
p1884
aS'they'
p1885
aS'gave'
p1886
aS'him'
p1887
aS'the'
p1888
aS'letter'
p1889
aS','
p1890
aS'and'
p1891
aS'showed'
p1892
aS'him'
p1893
aS'the'
p1894
aS'right'
p1895
aS'way'
p1896
aS'.'
p1897
asg65
(lp1898
VThen
p1899
aVthey
p1900
aVlet
p1901
aVhim
p1902
aVlie
p1903
aVquietly
p1904
aVon
p1905
aVthe
p1906
aVbench
p1907
aVuntil
p1908
aVthe
p1909
aVnext
p1910
aVmorning
p1911
ag79
aVand
p1912
aVwhen
p1913
aVhe
p1914
aVawake
p1915
aVthey
p1916
ag74
aVhim
p1917
aVthe
p1918
aVletter
p1919
ag79
aVand
p1920
aVshow
p1921
aVhim
p1922
aVthe
p1923
aVright
p1924
aVway
p1925
ag106
asg107
(lp1926
g109
ag109
ag109
ag109
ag109
ag109
ag109
ag109
ag109
ag109
ag109
ag109
ag109
ag109
ag109
ag109
ag109
ag109
ag109
ag109
ag109
ag109
ag109
ag109
ag109
ag109
ag109
ag109
ag109
ag109
ag109
asg110
(lp1927
g114
ag123
ag381
ag123
ag127
ag114
ag122
ag115
ag117
ag122
ag115
ag116
ag117
ag120
ag121
ag241
ag123
ag381
ag123
ag381
ag123
ag115
ag117
ag120
ag121
ag113
ag123
ag115
ag117
ag117
ag130
asg131
VThen they let him lie quietly on the bench until the next morning, and when he awoke they gave him the letter, and showed him the right way.
p1928
sba(i__main__
Sentence
p1929
(dp1930
g17
I31
sg18
(lp1931
S'And'
p1932
aS'the'
p1933
aS'queen'
p1934
aS','
p1935
aS'when'
p1936
aS'she'
p1937
aS'had'
p1938
aS'received'
p1939
aS'the'
p1940
aS'letter'
p1941
aS'and'
p1942
aS'read'
p1943
aS'it'
p1944
aS','
p1945
aS'did'
p1946
aS'as'
p1947
aS'was'
p1948
aS'written'
p1949
aS'in'
p1950
aS'it'
p1951
aS','
p1952
aS'and'
p1953
aS'had'
p1954
aS'a'
p1955
aS'splendid'
p1956
aS'wedding-feast'
p1957
aS'prepared'
p1958
aS','
p1959
aS'and'
p1960
aS'the'
p1961
aS'king'
p1962
aS"'s"
p1963
aS'daughter'
p1964
aS'was'
p1965
aS'married'
p1966
aS'to'
p1967
aS'the'
p1968
aS'child'
p1969
aS'of'
p1970
aS'good'
p1971
aS'fortune'
p1972
aS','
p1973
aS'and'
p1974
aS'as'
p1975
aS'the'
p1976
aS'youth'
p1977
aS'was'
p1978
aS'handsome'
p1979
aS'and'
p1980
aS'friendly'
p1981
aS'she'
p1982
aS'lived'
p1983
aS'with'
p1984
aS'him'
p1985
aS'in'
p1986
aS'joy'
p1987
aS'and'
p1988
aS'contentment'
p1989
aS'.'
p1990
asg65
(lp1991
VAnd
p1992
aVthe
p1993
aVqueen
p1994
ag79
aVwhen
p1995
aVshe
p1996
ag347
aVreceive
p1997
aVthe
p1998
aVletter
p1999
aVand
p2000
aVread
p2001
aVit
p2002
ag79
ag598
ag70
ag68
ag1771
aVin
p2003
aVit
p2004
ag79
aVand
p2005
ag347
ag70
aVsplendid
p2006
aVwedding-feast
p2007
aVprepare
p2008
ag79
aVand
p2009
aVthe
p2010
aVking
p2011
aV's
p2012
aVdaughter
p2013
ag68
ag1853
aVto
p2014
aVthe
p2015
aVchild
p2016
aVof
p2017
aVgood
p2018
aVfortune
p2019
ag79
aVand
p2020
ag70
aVthe
p2021
aVyouth
p2022
ag68
aVhandsome
p2023
aVand
p2024
aVfriendly
p2025
aVshe
p2026
aVlive
p2027
aVwith
p2028
aVhim
p2029
aVin
p2030
aVjoy
p2031
aVand
p2032
aVcontentment
p2033
ag106
asg107
(lp2034
g109
ag109
ag109
ag109
ag109
ag109
ag109
ag109
ag109
ag109
ag109
ag109
ag109
ag109
ag109
ag109
ag109
ag109
ag109
ag109
ag109
ag109
ag109
ag109
ag109
ag109
ag109
ag109
ag109
ag109
ag109
ag109
ag109
ag109
ag109
ag109
ag109
ag109
ag109
ag109
ag109
ag109
ag109
ag109
ag109
ag109
ag109
ag109
ag109
ag109
ag109
ag109
ag109
ag109
ag109
ag109
ag109
ag109
ag109
asg110
(lp2035
g121
ag115
ag117
ag120
ag241
ag123
ag113
ag124
ag115
ag117
ag121
ag127
ag123
ag120
ag113
ag122
ag113
ag124
ag122
ag123
ag120
ag121
ag113
ag115
ag116
ag116
ag124
ag120
ag121
ag115
ag117
ag129
ag117
ag113
ag124
ag119
ag115
ag117
ag122
ag116
ag117
ag120
ag121
ag122
ag115
ag117
ag113
ag124
ag121
ag114
ag123
ag113
ag122
ag123
ag122
ag117
ag121
ag117
ag130
asg131
VAnd the queen, when she had received the letter and read it, did as was written in it, and had a splendid wedding-feast prepared, and the king's daughter was married to the child of good fortune, and as the youth was handsome and friendly she lived with him in joy and contentment.
p2036
sba(i__main__
Sentence
p2037
(dp2038
g17
I32
sg18
(lp2039
S'After'
p2040
aS'some'
p2041
aS'time'
p2042
aS'the'
p2043
aS'king'
p2044
aS'returned'
p2045
aS'to'
p2046
aS'his'
p2047
aS'palace'
p2048
aS'and'
p2049
aS'saw'
p2050
aS'that'
p2051
aS'the'
p2052
aS'prophecy'
p2053
aS'was'
p2054
aS'fulfilled'
p2055
aS','
p2056
aS'and'
p2057
aS'the'
p2058
aS'child'
p2059
aS'married'
p2060
aS'to'
p2061
aS'his'
p2062
aS'daughter'
p2063
aS'.'
p2064
asg65
(lp2065
VAfter
p2066
aVsome
p2067
aVtime
p2068
aVthe
p2069
aVking
p2070
aVreturn
p2071
aVto
p2072
aVhis
p2073
aVpalace
p2074
aVand
p2075
aVsaw
p2076
aVthat
p2077
aVthe
p2078
aVprophecy
p2079
ag68
aVfulfil
p2080
ag79
aVand
p2081
aVthe
p2082
aVchild
p2083
ag1853
aVto
p2084
aVhis
p2085
aVdaughter
p2086
ag106
asg107
(lp2087
g109
ag109
ag109
ag109
ag109
ag109
ag109
ag109
ag109
ag109
ag109
ag109
ag109
ag109
ag109
ag109
ag109
ag109
ag109
ag109
ag109
ag109
ag109
ag109
ag109
asg110
(lp2088
g122
ag115
ag117
ag115
ag117
ag113
ag119
ag125
ag117
ag121
ag113
ag122
ag115
ag117
ag113
ag124
ag120
ag121
ag115
ag117
ag113
ag119
ag125
ag117
ag130
asg131
VAfter some time the king returned to his palace and saw that the prophecy was fulfilled, and the child married to his daughter.
p2089
sba(i__main__
Sentence
p2090
(dp2091
g17
I33
sg18
(lp2092
S'How'
p2093
aS'has'
p2094
aS'that'
p2095
aS'come'
p2096
aS'to'
p2097
aS'pass'
p2098
aS','
p2099
aS'said'
p2100
aS'he'
p2101
aS','
p2102
aS'I'
p2103
aS'gave'
p2104
aS'quite'
p2105
aS'another'
p2106
aS'order'
p2107
aS'in'
p2108
aS'my'
p2109
aS'letter'
p2110
aS'.'
p2111
asg65
(lp2112
VHow
p2113
ag223
aVthat
p2114
aVcome
p2115
aVto
p2116
aVpass
p2117
ag79
ag363
aVhe
p2118
ag79
ag373
ag74
aVquite
p2119
aVanother
p2120
aVorder
p2121
aVin
p2122
aVmy
p2123
aVletter
p2124
ag106
asg107
(lp2125
g109
ag109
ag109
ag109
ag109
ag109
ag109
ag109
ag109
ag109
ag109
ag109
ag109
ag109
ag109
ag109
ag109
ag109
ag109
asg110
(lp2126
g241
ag242
ag115
ag117
ag119
ag127
ag120
ag113
ag123
ag120
ag123
ag113
ag114
ag115
ag117
ag122
ag125
ag117
ag130
asg131
VHow has that come to pass, said he, I gave quite another order in my letter.
p2127
sba(i__main__
Sentence
p2128
(dp2129
g17
I34
sg18
(lp2130
S'So'
p2131
aS'the'
p2132
aS'queen'
p2133
aS'gave'
p2134
aS'him'
p2135
aS'the'
p2136
aS'letter'
p2137
aS','
p2138
aS'and'
p2139
aS'said'
p2140
aS'that'
p2141
aS'he'
p2142
aS'might'
p2143
aS'see'
p2144
aS'for'
p2145
aS'himself'
p2146
aS'what'
p2147
aS'was'
p2148
aS'written'
p2149
aS'in'
p2150
aS'it'
p2151
aS'.'
p2152
asg65
(lp2153
VSo
p2154
aVthe
p2155
aVqueen
p2156
ag74
aVhim
p2157
aVthe
p2158
aVletter
p2159
ag79
aVand
p2160
ag363
aVthat
p2161
aVhe
p2162
aVmight
p2163
aVsee
p2164
aVfor
p2165
aVhimself
p2166
aVwhat
p2167
ag68
ag1771
aVin
p2168
aVit
p2169
ag106
asg107
(lp2170
g109
ag109
ag109
ag109
ag109
ag109
ag109
ag109
ag109
ag109
ag109
ag109
ag109
ag109
ag109
ag109
ag109
ag109
ag109
ag109
ag109
ag109
asg110
(lp2171
g122
ag115
ag117
ag113
ag123
ag115
ag117
ag120
ag121
ag113
ag122
ag123
ag126
ag127
ag122
ag123
ag118
ag113
ag124
ag122
ag123
ag130
asg131
VSo the queen gave him the letter, and said that he might see for himself what was written in it.
p2172
sba(i__main__
Sentence
p2173
(dp2174
g17
I35
sg18
(lp2175
S'The'
p2176
aS'king'
p2177
aS'read'
p2178
aS'the'
p2179
aS'letter'
p2180
aS'and'
p2181
aS'saw'
p2182
aS'quite'
p2183
aS'well'
p2184
aS'that'
p2185
aS'it'
p2186
aS'had'
p2187
aS'been'
p2188
aS'exchanged'
p2189
aS'for'
p2190
aS'the'
p2191
aS'other'
p2192
aS'.'
p2193
asg65
(lp2194
VThe
p2195
aVking
p2196
aVread
p2197
aVthe
p2198
aVletter
p2199
aVand
p2200
aVsaw
p2201
aVquite
p2202
aVwell
p2203
aVthat
p2204
aVit
p2205
ag347
ag225
aVexchange
p2206
aVfor
p2207
aVthe
p2208
aVother
p2209
ag106
asg107
(lp2210
g109
ag109
ag109
ag109
ag109
ag109
ag109
ag109
ag109
ag109
ag109
ag109
ag109
ag109
ag109
ag109
ag109
ag109
asg110
(lp2211
g115
ag117
ag117
ag115
ag117
ag121
ag113
ag114
ag114
ag122
ag123
ag113
ag124
ag124
ag122
ag115
ag116
ag130
asg131
VThe king read the letter and saw quite well that it had been exchanged for the other.
p2212
sba(i__main__
Sentence
p2213
(dp2214
g17
I36
sg18
(lp2215
S'He'
p2216
aS'asked'
p2217
aS'the'
p2218
aS'youth'
p2219
aS'what'
p2220
aS'had'
p2221
aS'become'
p2222
aS'of'
p2223
aS'the'
p2224
aS'letter'
p2225
aS'entrusted'
p2226
aS'to'
p2227
aS'him'
p2228
aS','
p2229
aS'and'
p2230
aS'why'
p2231
aS'he'
p2232
aS'had'
p2233
aS'brought'
p2234
aS'another'
p2235
aS'instead'
p2236
aS'of'
p2237
aS'it'
p2238
aS'.'
p2239
asg65
(lp2240
VHe
p2241
aVask
p2242
aVthe
p2243
aVyouth
p2244
aVwhat
p2245
ag347
aVbecome
p2246
aVof
p2247
aVthe
p2248
aVletter
p2249
aVentrust
p2250
aVto
p2251
aVhim
p2252
ag79
aVand
p2253
aVwhy
p2254
aVhe
p2255
ag347
aVbring
p2256
aVanother
p2257
aVinstead
p2258
aVof
p2259
aVit
p2260
ag106
asg107
(lp2261
g109
ag109
ag109
ag109
ag109
ag109
ag109
ag109
ag109
ag109
ag109
ag109
ag109
ag109
ag109
ag109
ag109
ag109
ag109
ag109
ag109
ag109
ag109
ag109
asg110
(lp2262
g123
ag113
ag115
ag117
ag118
ag113
ag124
ag122
ag115
ag117
ag113
ag119
ag123
ag120
ag121
ag241
ag123
ag113
ag124
ag115
ag117
ag122
ag123
ag130
asg131
VHe asked the youth what had become of the letter entrusted to him, and why he had brought another instead of it.
p2263
sba(i__main__
Sentence
p2264
(dp2265
g17
I37
sg18
(lp2266
S'I'
p2267
aS'know'
p2268
aS'nothing'
p2269
aS'about'
p2270
aS'it'
p2271
aS','
p2272
aS'answered'
p2273
aS'he'
p2274
aS','
p2275
aS'it'
p2276
aS'must'
p2277
aS'have'
p2278
aS'been'
p2279
aS'changed'
p2280
aS'in'
p2281
aS'the'
p2282
aS'night'
p2283
aS','
p2284
aS'when'
p2285
aS'I'
p2286
aS'slept'
p2287
aS'in'
p2288
aS'the'
p2289
aS'forest'
p2290
aS'.'
p2291
asg65
(lp2292
g373
aVknow
p2293
aVnothing
p2294
aVabout
p2295
aVit
p2296
ag79
aVanswer
p2297
aVhe
p2298
ag79
aVit
p2299
aVmust
p2300
aVhave
p2301
ag225
aVchange
p2302
aVin
p2303
aVthe
p2304
aVnight
p2305
ag79
aVwhen
p2306
ag373
aVsleep
p2307
aVin
p2308
aVthe
p2309
aVforest
p2310
ag106
asg107
(lp2311
g109
ag109
ag109
ag109
ag109
ag109
ag109
ag109
ag109
ag109
ag109
ag109
ag109
ag109
ag109
ag109
ag109
ag109
ag109
ag109
ag109
ag109
ag109
ag109
ag109
asg110
(lp2312
g123
ag381
ag117
ag122
ag123
ag120
ag113
ag123
ag120
ag123
ag126
ag127
ag124
ag124
ag122
ag115
ag117
ag120
ag241
ag123
ag381
ag122
ag115
ag117
ag130
asg131
VI know nothing about it, answered he, it must have been changed in the night, when I slept in the forest.
p2313
sba(i__main__
Sentence
p2314
(dp2315
g17
I38
sg18
(lp2316
S'The'
p2317
aS'king'
p2318
aS'said'
p2319
aS'in'
p2320
aS'a'
p2321
aS'passion'
p2322
aS','
p2323
aS'you'
p2324
aS'shall'
p2325
aS'not'
p2326
aS'have'
p2327
aS'everything'
p2328
aS'quite'
p2329
aS'so'
p2330
aS'much'
p2331
aS'your'
p2332
aS'own'
p2333
aS'way'
p2334
aS','
p2335
aS'whosoever'
p2336
aS'marries'
p2337
aS'my'
p2338
aS'daughter'
p2339
aS'must'
p2340
aS'fetch'
p2341
aS'me'
p2342
aS'from'
p2343
aS'hell'
p2344
aS'three'
p2345
aS'golden'
p2346
aS'hairs'
p2347
aS'from'
p2348
aS'the'
p2349
aS'head'
p2350
aS'of'
p2351
aS'the'
p2352
aS'devil'
p2353
aS','
p2354
aS'bring'
p2355
aS'me'
p2356
aS'what'
p2357
aS'I'
p2358
aS'want'
p2359
aS','
p2360
aS'and'
p2361
aS'you'
p2362
aS'shall'
p2363
aS'keep'
p2364
aS'my'
p2365
aS'daughter'
p2366
aS'.'
p2367
asg65
(lp2368
VThe
p2369
aVking
p2370
ag363
aVin
p2371
ag70
aVpassion
p2372
ag79
aVyou
p2373
aVshall
p2374
aVnot
p2375
aVhave
p2376
aVeverything
p2377
aVquite
p2378
aVso
p2379
aVmuch
p2380
aVyour
p2381
aVown
p2382
aVway
p2383
ag79
aVwhosoever
p2384
aVmarry
p2385
aVmy
p2386
aVdaughter
p2387
aVmust
p2388
aVfetch
p2389
aVme
p2390
aVfrom
p2391
aVhell
p2392
aVthree
p2393
aVgolden
p2394
aVhair
p2395
aVfrom
p2396
aVthe
p2397
aVhead
p2398
aVof
p2399
aVthe
p2400
aVdevil
p2401
ag79
aVbring
p2402
aVme
p2403
aVwhat
p2404
ag373
aVwant
p2405
ag79
aVand
p2406
aVyou
p2407
aVshall
p2408
aVkeep
p2409
aVmy
p2410
aVdaughter
p2411
ag106
asg107
(lp2412
g109
ag109
ag109
ag109
ag109
ag109
ag109
ag109
ag109
ag109
ag109
ag109
ag109
ag109
ag109
ag109
ag109
ag109
ag109
ag109
ag109
ag109
ag109
ag109
ag109
ag109
ag109
ag109
ag109
ag109
ag109
ag109
ag109
ag109
ag109
ag109
ag109
ag109
ag109
ag109
ag109
ag109
ag109
ag109
ag109
ag109
ag109
ag109
ag109
ag109
ag109
asg110
(lp2413
g115
ag117
ag113
ag122
ag115
ag117
ag120
ag123
ag126
ag114
ag127
ag117
ag114
ag114
ag114
ag125
ag116
ag117
ag120
ag114
ag242
ag125
ag117
ag126
ag127
ag123
ag122
ag117
ag677
ag240
ag240
ag122
ag115
ag117
ag122
ag115
ag117
ag120
ag127
ag123
ag118
ag123
ag381
ag120
ag121
ag123
ag126
ag127
ag125
ag117
ag130
asg131
VThe king said in a passion, you shall not have everything quite so much your own way, whosoever marries my daughter must fetch me from hell three golden hairs from the head of the devil, bring me what I want, and you shall keep my daughter.
p2414
sba(i__main__
Sentence
p2415
(dp2416
g17
I39
sg18
(lp2417
S'In'
p2418
aS'this'
p2419
aS'way'
p2420
aS'the'
p2421
aS'king'
p2422
aS'hoped'
p2423
aS'to'
p2424
aS'be'
p2425
aS'rid'
p2426
aS'of'
p2427
aS'him'
p2428
aS'for'
p2429
aS'ever'
p2430
aS'.'
p2431
asg65
(lp2432
VIn
p2433
aVthis
p2434
aVway
p2435
aVthe
p2436
aVking
p2437
aVhop
p2438
aVto
p2439
aVbe
p2440
aVrid
p2441
aVof
p2442
aVhim
p2443
aVfor
p2444
aVever
p2445
ag106
asg107
(lp2446
g109
ag109
ag109
ag109
ag109
ag109
ag109
ag109
ag109
ag109
ag109
ag109
ag109
ag109
asg110
(lp2447
g122
ag115
ag117
ag115
ag117
ag113
ag119
ag127
ag124
ag122
ag123
ag122
ag114
ag130
asg131
VIn this way the king hoped to be rid of him for ever.
p2448
sba(i__main__
Sentence
p2449
(dp2450
g17
I40
sg18
(lp2451
S'But'
p2452
aS'the'
p2453
aS'child'
p2454
aS'of'
p2455
aS'good'
p2456
aS'fortune'
p2457
aS'answered'
p2458
aS','
p2459
aS'I'
p2460
aS'will'
p2461
aS'fetch'
p2462
aS'the'
p2463
aS'golden'
p2464
aS'hairs'
p2465
aS','
p2466
aS'I'
p2467
aS'am'
p2468
aS'not'
p2469
aS'afraid'
p2470
aS'of'
p2471
aS'the'
p2472
aS'devil'
p2473
aS'.'
p2474
asg65
(lp2475
VBut
p2476
aVthe
p2477
aVchild
p2478
aVof
p2479
aVgood
p2480
aVfortune
p2481
aVanswer
p2482
ag79
ag373
aVwill
p2483
aVfetch
p2484
aVthe
p2485
aVgolden
p2486
aVhair
p2487
ag79
ag373
ag1465
aVnot
p2488
aVafraid
p2489
aVof
p2490
aVthe
p2491
aVdevil
p2492
ag106
asg107
(lp2493
g109
ag109
ag109
ag109
ag109
ag109
ag109
ag109
ag109
ag109
ag109
ag109
ag109
ag109
ag109
ag109
ag109
ag109
ag109
ag109
ag109
ag109
ag109
asg110
(lp2494
g121
ag115
ag117
ag122
ag116
ag117
ag113
ag120
ag123
ag126
ag127
ag115
ag116
ag240
ag120
ag123
ag381
ag114
ag124
ag122
ag115
ag117
ag130
asg131
VBut the child of good fortune answered, I will fetch the golden hairs, I am not afraid of the devil.
p2495
sba(i__main__
Sentence
p2496
(dp2497
g17
I41
sg18
(lp2498
S'Whereupon'
p2499
aS'he'
p2500
aS'took'
p2501
aS'leave'
p2502
aS'of'
p2503
aS'them'
p2504
aS'and'
p2505
aS'began'
p2506
aS'his'
p2507
aS'journey'
p2508
aS'.'
p2509
asg65
(lp2510
VWhereupon
p2511
aVhe
p2512
ag810
aVleave
p2513
aVof
p2514
aVthem
p2515
aVand
p2516
aVbegin
p2517
aVhis
p2518
aVjourney
p2519
ag106
asg107
(lp2520
g109
ag109
ag109
ag109
ag109
ag109
ag109
ag109
ag109
ag109
ag109
asg110
(lp2521
g836
ag123
ag113
ag127
ag122
ag123
ag121
ag113
ag125
ag117
ag130
asg131
VWhereupon he took leave of them and began his journey.
p2522
sba(i__main__
Sentence
p2523
(dp2524
g17
I42
sg18
(lp2525
S'The'
p2526
aS'road'
p2527
aS'led'
p2528
aS'him'
p2529
aS'to'
p2530
aS'a'
p2531
aS'large'
p2532
aS'town'
p2533
aS','
p2534
aS'where'
p2535
aS'the'
p2536
aS'watchman'
p2537
aS'by'
p2538
aS'the'
p2539
aS'gates'
p2540
aS'asked'
p2541
aS'him'
p2542
aS'what'
p2543
aS'his'
p2544
aS'trade'
p2545
aS'was'
p2546
aS','
p2547
aS'and'
p2548
aS'what'
p2549
aS'he'
p2550
aS'knew'
p2551
aS'.'
p2552
asg65
(lp2553
VThe
p2554
aVroad
p2555
aVlead
p2556
aVhim
p2557
aVto
p2558
ag70
aVlarge
p2559
aVtown
p2560
ag79
aVwhere
p2561
aVthe
p2562
aVwatchman
p2563
aVby
p2564
aVthe
p2565
aVgate
p2566
aVask
p2567
aVhim
p2568
aVwhat
p2569
aVhis
p2570
aVtrade
p2571
ag68
ag79
aVand
p2572
aVwhat
p2573
aVhe
p2574
ag206
ag106
asg107
(lp2575
g109
ag109
ag109
ag109
ag109
ag109
ag109
ag109
ag109
ag109
ag109
ag109
ag109
ag109
ag109
ag109
ag109
ag109
ag109
ag109
ag109
ag109
ag109
ag109
ag109
ag109
ag109
asg110
(lp2576
g115
ag117
ag113
ag123
ag119
ag115
ag116
ag117
ag120
ag241
ag115
ag117
ag122
ag115
ag240
ag113
ag123
ag118
ag125
ag117
ag113
ag120
ag121
ag118
ag123
ag113
ag130
asg131
VThe road led him to a large town, where the watchman by the gates asked him what his trade was, and what he knew.
p2577
sba(i__main__
Sentence
p2578
(dp2579
g17
I43
sg18
(lp2580
S'I'
p2581
aS'know'
p2582
aS'everything'
p2583
aS','
p2584
aS'answered'
p2585
aS'the'
p2586
aS'child'
p2587
aS'of'
p2588
aS'good'
p2589
aS'fortune'
p2590
aS'.'
p2591
asg65
(lp2592
g373
aVknow
p2593
aVeverything
p2594
ag79
aVanswer
p2595
aVthe
p2596
aVchild
p2597
aVof
p2598
aVgood
p2599
aVfortune
p2600
ag106
asg107
(lp2601
g109
ag109
ag109
ag109
ag109
ag109
ag109
ag109
ag109
ag109
ag109
asg110
(lp2602
g123
ag381
ag128
ag120
ag124
ag115
ag117
ag122
ag116
ag117
ag130
asg131
VI know everything, answered the child of good fortune.
p2603
sba(i__main__
Sentence
p2604
(dp2605
g17
I44
sg18
(lp2606
S'Then'
p2607
aS'you'
p2608
aS'can'
p2609
aS'do'
p2610
aS'us'
p2611
aS'a'
p2612
aS'favor'
p2613
aS','
p2614
aS'said'
p2615
aS'the'
p2616
aS'watchman'
p2617
aS','
p2618
aS'if'
p2619
aS'you'
p2620
aS'will'
p2621
aS'tell'
p2622
aS'us'
p2623
aS'why'
p2624
aS'our'
p2625
aS'market'
p2626
aS'fountain'
p2627
aS','
p2628
aS'which'
p2629
aS'once'
p2630
aS'flowed'
p2631
aS'with'
p2632
aS'wine'
p2633
aS'has'
p2634
aS'become'
p2635
aS'dry'
p2636
aS','
p2637
aS'and'
p2638
aS'no'
p2639
aS'longer'
p2640
aS'gives'
p2641
aS'even'
p2642
aS'water'
p2643
aS'.'
p2644
asg65
(lp2645
VThen
p2646
aVyou
p2647
aVcan
p2648
aVdo
p2649
ag831
ag70
aVfavor
p2650
ag79
ag363
aVthe
p2651
aVwatchman
p2652
ag79
aVif
p2653
aVyou
p2654
aVwill
p2655
aVtell
p2656
ag831
aVwhy
p2657
aVour
p2658
aVmarket
p2659
aVfountain
p2660
ag79
aVwhich
p2661
aVonce
p2662
aVflow
p2663
aVwith
p2664
aVwine
p2665
ag223
aVbecome
p2666
aVdry
p2667
ag79
aVand
p2668
aVno
p2669
aVlonger
p2670
aVgive
p2671
aVeven
p2672
aVwater
p2673
ag106
asg107
(lp2674
g109
ag109
ag109
ag109
ag109
ag109
ag109
ag109
ag109
ag109
ag109
ag109
ag109
ag109
ag109
ag109
ag109
ag109
ag109
ag109
ag109
ag109
ag109
ag109
ag109
ag109
ag109
ag109
ag109
ag109
ag109
ag109
ag109
ag109
ag109
ag109
ag109
ag109
asg110
(lp2675
g114
ag123
ag126
ag127
ag123
ag115
ag117
ag120
ag113
ag115
ag117
ag120
ag122
ag123
ag126
ag127
ag123
ag241
ag125
ag117
ag117
ag120
ag1084
ag114
ag113
ag122
ag117
ag242
ag124
ag116
ag120
ag121
ag115
ag117
ag242
ag114
aS'JJR'
p2676
ag130
asg131
VThen you can do us a favor, said the watchman, if you will tell us why our market fountain, which once flowed with wine has become dry, and no longer gives even water.
p2677
sba(i__main__
Sentence
p2678
(dp2679
g17
I45
sg18
(lp2680
S'That'
p2681
aS'you'
p2682
aS'shall'
p2683
aS'know'
p2684
aS','
p2685
aS'answered'
p2686
aS'he'
p2687
aS','
p2688
aS'only'
p2689
aS'wait'
p2690
aS'until'
p2691
aS'I'
p2692
aS'come'
p2693
aS'back'
p2694
aS'.'
p2695
asg65
(lp2696
VThat
p2697
aVyou
p2698
aVshall
p2699
aVknow
p2700
ag79
aVanswer
p2701
aVhe
p2702
ag79
aVonly
p2703
aVwait
p2704
aVuntil
p2705
ag373
aVcome
p2706
aVback
p2707
ag106
asg107
(lp2708
g109
ag109
ag109
ag109
ag109
ag109
ag109
ag109
ag109
ag109
ag109
ag109
ag109
ag109
ag109
asg110
(lp2709
g115
ag123
ag126
ag127
ag120
ag124
ag123
ag120
ag114
ag127
ag122
ag123
ag381
ag114
ag130
asg131
VThat you shall know, answered he, only wait until I come back.
p2710
sba(i__main__
Sentence
p2711
(dp2712
g17
I46
sg18
(lp2713
S'Then'
p2714
aS'he'
p2715
aS'went'
p2716
aS'farther'
p2717
aS'and'
p2718
aS'came'
p2719
aS'to'
p2720
aS'another'
p2721
aS'town'
p2722
aS','
p2723
aS'and'
p2724
aS'there'
p2725
aS'also'
p2726
aS'the'
p2727
aS'gatekeeper'
p2728
aS'asked'
p2729
aS'him'
p2730
aS'what'
p2731
aS'was'
p2732
aS'his'
p2733
aS'trade'
p2734
aS','
p2735
aS'and'
p2736
aS'what'
p2737
aS'he'
p2738
aS'knew'
p2739
aS'.'
p2740
asg65
(lp2741
VThen
p2742
aVhe
p2743
ag355
aVfar
p2744
aVand
p2745
ag82
aVto
p2746
aVanother
p2747
aVtown
p2748
ag79
aVand
p2749
aVthere
p2750
aValso
p2751
aVthe
p2752
aVgatekeeper
p2753
aVask
p2754
aVhim
p2755
aVwhat
p2756
ag68
aVhis
p2757
aVtrade
p2758
ag79
aVand
p2759
aVwhat
p2760
aVhe
p2761
ag206
ag106
asg107
(lp2762
g109
ag109
ag109
ag109
ag109
ag109
ag109
ag109
ag109
ag109
ag109
ag109
ag109
ag109
ag109
ag109
ag109
ag109
ag109
ag109
ag109
ag109
ag109
ag109
ag109
ag109
ag109
asg110
(lp2763
g114
ag123
ag113
ag114
ag121
ag113
ag119
ag115
ag117
ag120
ag121
ag112
ag114
ag115
ag117
ag113
ag123
ag118
ag113
ag125
ag117
ag120
ag121
ag118
ag123
ag113
ag130
asg131
VThen he went farther and came to another town, and there also the gatekeeper asked him what was his trade, and what he knew.
p2764
sba(i__main__
Sentence
p2765
(dp2766
g17
I47
sg18
(lp2767
S'I'
p2768
aS'know'
p2769
aS'everything'
p2770
aS','
p2771
aS'answered'
p2772
aS'he'
p2773
aS'.'
p2774
asg65
(lp2775
g373
aVknow
p2776
aVeverything
p2777
ag79
aVanswer
p2778
aVhe
p2779
ag106
asg107
(lp2780
g109
ag109
ag109
ag109
ag109
ag109
ag109
asg110
(lp2781
g123
ag381
ag128
ag120
ag124
ag123
ag130
asg131
VI know everything, answered he.
p2782
sba(i__main__
Sentence
p2783
(dp2784
g17
I48
sg18
(lp2785
S'Then'
p2786
aS'you'
p2787
aS'can'
p2788
aS'do'
p2789
aS'us'
p2790
aS'a'
p2791
aS'favor'
p2792
aS'and'
p2793
aS'tell'
p2794
aS'us'
p2795
aS'why'
p2796
aS'a'
p2797
aS'tree'
p2798
aS'in'
p2799
aS'our'
p2800
aS'town'
p2801
aS'which'
p2802
aS'once'
p2803
aS'bore'
p2804
aS'golden'
p2805
aS'apples'
p2806
aS'now'
p2807
aS'does'
p2808
aS'not'
p2809
aS'even'
p2810
aS'put'
p2811
aS'forth'
p2812
aS'leaves'
p2813
aS'.'
p2814
asg65
(lp2815
VThen
p2816
aVyou
p2817
aVcan
p2818
aVdo
p2819
ag831
ag70
aVfavor
p2820
aVand
p2821
aVtell
p2822
ag831
aVwhy
p2823
ag70
aVtree
p2824
aVin
p2825
aVour
p2826
aVtown
p2827
aVwhich
p2828
aVonce
p2829
aVbore
p2830
aVgolden
p2831
aVapple
p2832
aVnow
p2833
aVdo
p2834
aVnot
p2835
aVeven
p2836
aVput
p2837
aVforth
p2838
aVleaf
p2839
ag106
asg107
(lp2840
g109
ag109
ag109
ag109
ag109
ag109
ag109
ag109
ag109
ag109
ag109
ag109
ag109
ag109
ag109
ag109
ag109
ag109
ag109
ag109
ag109
ag109
ag109
ag109
ag109
ag109
ag109
ag109
ag109
asg110
(lp2841
g114
ag123
ag126
ag127
ag123
ag115
ag117
ag121
ag117
ag123
ag241
ag115
ag117
ag122
ag125
ag117
ag1084
ag114
ag381
ag124
ag240
ag114
ag242
ag114
ag114
ag124
ag116
ag240
ag130
asg131
VThen you can do us a favor and tell us why a tree in our town which once bore golden apples now does not even put forth leaves.
p2842
sba(i__main__
Sentence
p2843
(dp2844
g17
I49
sg18
(lp2845
S'You'
p2846
aS'shall'
p2847
aS'know'
p2848
aS'that'
p2849
aS','
p2850
aS'answered'
p2851
aS'he'
p2852
aS','
p2853
aS'only'
p2854
aS'wait'
p2855
aS'until'
p2856
aS'I'
p2857
aS'come'
p2858
aS'back'
p2859
aS'.'
p2860
asg65
(lp2861
VYou
p2862
aVshall
p2863
aVknow
p2864
aVthat
p2865
ag79
aVanswer
p2866
aVhe
p2867
ag79
aVonly
p2868
aVwait
p2869
aVuntil
p2870
ag373
aVcome
p2871
aVback
p2872
ag106
asg107
(lp2873
g109
ag109
ag109
ag109
ag109
ag109
ag109
ag109
ag109
ag109
ag109
ag109
ag109
ag109
ag109
asg110
(lp2874
g123
ag126
ag127
ag122
ag120
ag113
ag123
ag120
ag114
ag127
ag122
ag123
ag381
ag114
ag130
asg131
VYou shall know that, answered he, only wait until I come back.
p2875
sba(i__main__
Sentence
p2876
(dp2877
g17
I50
sg18
(lp2878
S'Then'
p2879
aS'he'
p2880
aS'went'
p2881
aS'on'
p2882
aS'and'
p2883
aS'came'
p2884
aS'to'
p2885
aS'a'
p2886
aS'wide'
p2887
aS'river'
p2888
aS'over'
p2889
aS'which'
p2890
aS'he'
p2891
aS'must'
p2892
aS'cross'
p2893
aS'.'
p2894
asg65
(lp2895
VThen
p2896
aVhe
p2897
ag355
aVon
p2898
aVand
p2899
ag82
aVto
p2900
ag70
aVwide
p2901
aVriver
p2902
aVover
p2903
aVwhich
p2904
aVhe
p2905
aVmust
p2906
aVcross
p2907
ag106
asg107
(lp2908
g109
ag109
ag109
ag109
ag109
ag109
ag109
ag109
ag109
ag109
ag109
ag109
ag109
ag109
ag109
ag109
asg110
(lp2909
g114
ag123
ag113
ag122
ag121
ag113
ag119
ag115
ag116
ag117
ag122
ag1084
ag123
ag126
ag127
ag130
asg131
VThen he went on and came to a wide river over which he must cross.
p2910
sba(i__main__
Sentence
p2911
(dp2912
g17
I51
sg18
(lp2913
S'The'
p2914
aS'ferryman'
p2915
aS'asked'
p2916
aS'him'
p2917
aS'what'
p2918
aS'his'
p2919
aS'trade'
p2920
aS'was'
p2921
aS','
p2922
aS'and'
p2923
aS'what'
p2924
aS'he'
p2925
aS'knew'
p2926
aS'.'
p2927
asg65
(lp2928
VThe
p2929
aVferryman
p2930
aVask
p2931
aVhim
p2932
aVwhat
p2933
aVhis
p2934
aVtrade
p2935
ag68
ag79
aVand
p2936
aVwhat
p2937
aVhe
p2938
ag206
ag106
asg107
(lp2939
g109
ag109
ag109
ag109
ag109
ag109
ag109
ag109
ag109
ag109
ag109
ag109
ag109
ag109
asg110
(lp2940
g115
ag117
ag113
ag123
ag118
ag125
ag117
ag113
ag120
ag121
ag118
ag123
ag113
ag130
asg131
VThe ferryman asked him what his trade was, and what he knew.
p2941
sba(i__main__
Sentence
p2942
(dp2943
g17
I52
sg18
(lp2944
S'I'
p2945
aS'know'
p2946
aS'everything'
p2947
aS','
p2948
aS'answered'
p2949
aS'he'
p2950
aS'.'
p2951
asg65
(lp2952
g373
aVknow
p2953
aVeverything
p2954
ag79
aVanswer
p2955
aVhe
p2956
ag106
asg107
(lp2957
g109
ag109
ag109
ag109
ag109
ag109
ag109
asg110
(lp2958
g123
ag381
ag128
ag120
ag124
ag123
ag130
asg131
VI know everything, answered he.
p2959
sba(i__main__
Sentence
p2960
(dp2961
g17
I53
sg18
(lp2962
S'Then'
p2963
aS'you'
p2964
aS'can'
p2965
aS'do'
p2966
aS'me'
p2967
aS'a'
p2968
aS'favor'
p2969
aS','
p2970
aS'said'
p2971
aS'the'
p2972
aS'ferryman'
p2973
aS','
p2974
aS'and'
p2975
aS'tell'
p2976
aS'me'
p2977
aS'why'
p2978
aS'I'
p2979
aS'must'
p2980
aS'always'
p2981
aS'be'
p2982
aS'rowing'
p2983
aS'backwards'
p2984
aS'and'
p2985
aS'forwards'
p2986
aS','
p2987
aS'and'
p2988
aS'am'
p2989
aS'never'
p2990
aS'set'
p2991
aS'free'
p2992
aS'.'
p2993
asg65
(lp2994
VThen
p2995
aVyou
p2996
aVcan
p2997
aVdo
p2998
aVme
p2999
ag70
aVfavor
p3000
ag79
ag363
aVthe
p3001
aVferryman
p3002
ag79
aVand
p3003
aVtell
p3004
aVme
p3005
aVwhy
p3006
ag373
aVmust
p3007
aValways
p3008
aVbe
p3009
aVrow
p3010
aVbackwards
p3011
aVand
p3012
aVforward
p3013
ag79
aVand
p3014
aVam
p3015
aVnever
p3016
aVset
p3017
aVfree
p3018
ag106
asg107
(lp3019
g109
ag109
ag109
ag109
ag109
ag109
ag109
ag109
ag109
ag109
ag109
ag109
ag109
ag109
ag109
ag109
ag109
ag109
ag109
ag109
ag109
ag109
ag109
ag109
ag109
ag109
ag109
ag109
ag109
ag109
ag109
asg110
(lp3020
g114
ag123
ag126
ag127
ag123
ag115
ag117
ag120
ag113
ag115
ag117
ag120
ag121
ag117
ag123
ag241
ag123
ag126
ag114
ag127
ag128
ag240
ag121
ag240
ag120
ag121
ag117
ag114
ag124
ag116
ag130
asg131
VThen you can do me a favor, said the ferryman, and tell me why I must always be rowing backwards and forwards, and am never set free.
p3021
sba(i__main__
Sentence
p3022
(dp3023
g17
I54
sg18
(lp3024
S'You'
p3025
aS'shall'
p3026
aS'know'
p3027
aS'that'
p3028
aS','
p3029
aS'answered'
p3030
aS'he'
p3031
aS','
p3032
aS'only'
p3033
aS'wait'
p3034
aS'until'
p3035
aS'I'
p3036
aS'come'
p3037
aS'back'
p3038
aS'.'
p3039
asg65
(lp3040
VYou
p3041
aVshall
p3042
aVknow
p3043
aVthat
p3044
ag79
aVanswer
p3045
aVhe
p3046
ag79
aVonly
p3047
aVwait
p3048
aVuntil
p3049
ag373
aVcome
p3050
aVback
p3051
ag106
asg107
(lp3052
g109
ag109
ag109
ag109
ag109
ag109
ag109
ag109
ag109
ag109
ag109
ag109
ag109
ag109
ag109
asg110
(lp3053
g123
ag126
ag127
ag122
ag120
ag113
ag123
ag120
ag114
ag127
ag122
ag123
ag381
ag114
ag130
asg131
VYou shall know that, answered he, only wait until I come back.
p3054
sba(i__main__
Sentence
p3055
(dp3056
g17
I55
sg18
(lp3057
S'When'
p3058
aS'he'
p3059
aS'had'
p3060
aS'crossed'
p3061
aS'the'
p3062
aS'water'
p3063
aS'he'
p3064
aS'found'
p3065
aS'the'
p3066
aS'entrance'
p3067
aS'to'
p3068
aS'hell'
p3069
aS'.'
p3070
asg65
(lp3071
VWhen
p3072
aVhe
p3073
ag347
aVcross
p3074
aVthe
p3075
aVwater
p3076
aVhe
p3077
ag753
aVthe
p3078
aVentrance
p3079
aVto
p3080
aVhell
p3081
ag106
asg107
(lp3082
g109
ag109
ag109
ag109
ag109
ag109
ag109
ag109
ag109
ag109
ag109
ag109
ag109
asg110
(lp3083
g241
ag123
ag113
ag124
ag115
ag117
ag123
ag113
ag115
ag117
ag119
ag127
ag130
asg131
VWhen he had crossed the water he found the entrance to hell.
p3084
sba(i__main__
Sentence
p3085
(dp3086
g17
I56
sg18
(lp3087
S'It'
p3088
aS'was'
p3089
aS'black'
p3090
aS'and'
p3091
aS'sooty'
p3092
aS'within'
p3093
aS','
p3094
aS'and'
p3095
aS'the'
p3096
aS'devil'
p3097
aS'was'
p3098
aS'not'
p3099
aS'at'
p3100
aS'home'
p3101
aS','
p3102
aS'but'
p3103
aS'his'
p3104
aS'grandmother'
p3105
aS'was'
p3106
aS'sitting'
p3107
aS'in'
p3108
aS'a'
p3109
aS'large'
p3110
aS'arm-chair'
p3111
aS'.'
p3112
asg65
(lp3113
VIt
p3114
ag68
aVblack
p3115
aVand
p3116
aVsooty
p3117
aVwithin
p3118
ag79
aVand
p3119
aVthe
p3120
aVdevil
p3121
ag68
aVnot
p3122
aVat
p3123
aVhome
p3124
ag79
aVbut
p3125
aVhis
p3126
aVgrandmother
p3127
ag68
ag1347
aVin
p3128
ag70
aVlarge
p3129
aVarm-chair
p3130
ag106
asg107
(lp3131
g109
ag109
ag109
ag109
ag109
ag109
ag109
ag109
ag109
ag109
ag109
ag109
ag109
ag109
ag109
ag109
ag109
ag109
ag109
ag109
ag109
ag109
ag109
ag109
ag109
asg110
(lp3132
g123
ag113
ag116
ag121
ag117
ag122
ag120
ag121
ag115
ag117
ag113
ag114
ag122
ag117
ag120
ag121
ag125
ag117
ag113
ag128
ag122
ag115
ag116
ag116
ag130
asg131
VIt was black and sooty within, and the devil was not at home, but his grandmother was sitting in a large arm-chair.
p3133
sba(i__main__
Sentence
p3134
(dp3135
g17
I57
sg18
(lp3136
S'What'
p3137
aS'do'
p3138
aS'you'
p3139
aS'want'
p3140
aS','
p3141
aS'said'
p3142
aS'she'
p3143
aS'to'
p3144
aS'him'
p3145
aS','
p3146
aS'but'
p3147
aS'she'
p3148
aS'did'
p3149
aS'not'
p3150
aS'look'
p3151
aS'so'
p3152
aS'very'
p3153
aS'wicked'
p3154
aS'.'
p3155
asg65
(lp3156
VWhat
p3157
aVdo
p3158
aVyou
p3159
aVwant
p3160
ag79
ag363
aVshe
p3161
aVto
p3162
aVhim
p3163
ag79
aVbut
p3164
aVshe
p3165
ag598
aVnot
p3166
aVlook
p3167
aVso
p3168
aVvery
p3169
aVwicked
p3170
ag106
asg107
(lp3171
g109
ag109
ag109
ag109
ag109
ag109
ag109
ag109
ag109
ag109
ag109
ag109
ag109
ag109
ag109
ag109
ag109
ag109
ag109
asg110
(lp3172
g118
ag381
ag123
ag127
ag120
ag113
ag123
ag119
ag123
ag120
ag121
ag123
ag113
ag114
ag127
ag114
ag114
ag124
ag130
asg131
VWhat do you want, said she to him, but she did not look so very wicked.
p3173
sba(i__main__
Sentence
p3174
(dp3175
g17
I58
sg18
(lp3176
S'I'
p3177
aS'should'
p3178
aS'like'
p3179
aS'to'
p3180
aS'have'
p3181
aS'three'
p3182
aS'golden'
p3183
aS'hairs'
p3184
aS'from'
p3185
aS'the'
p3186
aS'devil'
p3187
aS"'s"
p3188
aS'head'
p3189
aS','
p3190
aS'answered'
p3191
aS'he'
p3192
aS','
p3193
aS'else'
p3194
aS'I'
p3195
aS'can'
p3196
aS'not'
p3197
aS'keep'
p3198
aS'my'
p3199
aS'wife'
p3200
aS'.'
p3201
asg65
(lp3202
g373
aVshould
p3203
aVlike
p3204
aVto
p3205
aVhave
p3206
aVthree
p3207
aVgolden
p3208
aVhair
p3209
aVfrom
p3210
aVthe
p3211
aVdevil
p3212
aV's
p3213
aVhead
p3214
ag79
aVanswer
p3215
aVhe
p3216
ag79
aVelse
p3217
ag373
aVcan
p3218
aVnot
p3219
aVkeep
p3220
aVmy
p3221
aVwife
p3222
ag106
asg107
(lp3223
g109
ag109
ag109
ag109
ag109
ag109
ag109
ag109
ag109
ag109
ag109
ag109
ag109
ag109
ag109
ag109
ag109
ag109
ag109
ag109
ag109
ag109
ag109
ag109
ag109
asg110
(lp3224
g123
ag126
ag127
ag119
ag127
ag677
ag124
ag240
ag122
ag115
ag117
ag129
ag117
ag120
ag113
ag123
ag120
ag114
ag123
ag126
ag114
ag127
ag125
ag117
ag130
asg131
VI should like to have three golden hairs from the devil's head, answered he, else I cannot keep my wife.
p3225
sba(i__main__
Sentence
p3226
(dp3227
g17
I59
sg18
(lp3228
S'That'
p3229
aS'is'
p3230
aS'a'
p3231
aS'good'
p3232
aS'deal'
p3233
aS'to'
p3234
aS'ask'
p3235
aS'for'
p3236
aS','
p3237
aS'said'
p3238
aS'she'
p3239
aS','
p3240
aS'if'
p3241
aS'the'
p3242
aS'devil'
p3243
aS'comes'
p3244
aS'home'
p3245
aS'and'
p3246
aS'finds'
p3247
aS'you'
p3248
aS','
p3249
aS'it'
p3250
aS'will'
p3251
aS'cost'
p3252
aS'you'
p3253
aS'your'
p3254
aS'life'
p3255
aS','
p3256
aS'but'
p3257
aS'as'
p3258
aS'I'
p3259
aS'pity'
p3260
aS'you'
p3261
aS','
p3262
aS'I'
p3263
aS'will'
p3264
aS'see'
p3265
aS'if'
p3266
aS'I'
p3267
aS'can'
p3268
aS'not'
p3269
aS'help'
p3270
aS'you'
p3271
aS'.'
p3272
asg65
(lp3273
VThat
p3274
ag272
ag70
aVgood
p3275
aVdeal
p3276
aVto
p3277
aVask
p3278
aVfor
p3279
ag79
ag363
aVshe
p3280
ag79
aVif
p3281
aVthe
p3282
aVdevil
p3283
aVcome
p3284
aVhome
p3285
aVand
p3286
aVfind
p3287
aVyou
p3288
ag79
aVit
p3289
aVwill
p3290
aVcost
p3291
aVyou
p3292
aVyour
p3293
aVlife
p3294
ag79
aVbut
p3295
ag70
ag373
aVpity
p3296
aVyou
p3297
ag79
ag373
aVwill
p3298
aVsee
p3299
aVif
p3300
ag373
aVcan
p3301
aVnot
p3302
aVhelp
p3303
aVyou
p3304
ag106
asg107
(lp3305
g109
ag109
ag109
ag109
ag109
ag109
ag109
ag109
ag109
ag109
ag109
ag109
ag109
ag109
ag109
ag109
ag109
ag109
ag109
ag109
ag109
ag109
ag109
ag109
ag109
ag109
ag109
ag109
ag109
ag109
ag109
ag109
ag109
ag109
ag109
ag109
ag109
ag109
ag109
ag109
ag109
ag109
ag109
ag109
asg110
(lp3306
g115
ag242
ag115
ag116
ag117
ag119
ag127
ag122
ag120
ag113
ag123
ag120
ag122
ag115
ag117
ag242
ag117
ag121
ag240
ag123
ag120
ag123
ag126
ag127
ag123
ag125
ag117
ag120
ag121
ag122
ag123
ag117
ag123
ag120
ag123
ag126
ag127
ag122
ag123
ag126
ag114
ag127
ag123
ag130
asg131
VThat is a good deal to ask for, said she, if the devil comes home and finds you, it will cost you your life, but as I pity you, I will see if I cannot help you.
p3307
sba(i__main__
Sentence
p3308
(dp3309
g17
I60
sg18
(lp3310
S'She'
p3311
aS'changed'
p3312
aS'him'
p3313
aS'into'
p3314
aS'an'
p3315
aS'ant'
p3316
aS'and'
p3317
aS'said'
p3318
aS','
p3319
aS'creep'
p3320
aS'into'
p3321
aS'the'
p3322
aS'folds'
p3323
aS'of'
p3324
aS'my'
p3325
aS'dress'
p3326
aS','
p3327
aS'you'
p3328
aS'will'
p3329
aS'be'
p3330
aS'safe'
p3331
aS'there'
p3332
aS'.'
p3333
asg65
(lp3334
VShe
p3335
aVchange
p3336
aVhim
p3337
aVinto
p3338
aVan
p3339
aVant
p3340
aVand
p3341
ag363
ag79
aVcreep
p3342
aVinto
p3343
aVthe
p3344
aVfold
p3345
aVof
p3346
aVmy
p3347
aVdress
p3348
ag79
aVyou
p3349
aVwill
p3350
aVbe
p3351
aVsafe
p3352
aVthere
p3353
ag106
asg107
(lp3354
g109
ag109
ag109
ag109
ag109
ag109
ag109
ag109
ag109
ag109
ag109
ag109
ag109
ag109
ag109
ag109
ag109
ag109
ag109
ag109
ag109
ag109
ag109
asg110
(lp3355
g123
ag113
ag123
ag122
ag115
ag116
ag121
ag113
ag120
ag117
ag122
ag115
ag240
ag122
ag125
ag117
ag120
ag123
ag126
ag127
ag116
ag112
ag130
asg131
VShe changed him into an ant and said, creep into the folds of my dress, you will be safe there.
p3356
sba(i__main__
Sentence
p3357
(dp3358
g17
I61
sg18
(lp3359
S'Yes'
p3360
aS','
p3361
aS'answered'
p3362
aS'he'
p3363
aS','
p3364
aS'so'
p3365
aS'far'
p3366
aS','
p3367
aS'so'
p3368
aS'good'
p3369
aS','
p3370
aS'but'
p3371
aS'there'
p3372
aS'are'
p3373
aS'three'
p3374
aS'things'
p3375
aS'besides'
p3376
aS'that'
p3377
aS'I'
p3378
aS'want'
p3379
aS'to'
p3380
aS'know'
p3381
aS'-'
p3382
aS'why'
p3383
aS'a'
p3384
aS'fountain'
p3385
aS'which'
p3386
aS'once'
p3387
aS'flowed'
p3388
aS'with'
p3389
aS'wine'
p3390
aS'has'
p3391
aS'become'
p3392
aS'dry'
p3393
aS','
p3394
aS'and'
p3395
aS'no'
p3396
aS'longer'
p3397
aS'gives'
p3398
aS'even'
p3399
aS'water'
p3400
aS','
p3401
aS'why'
p3402
aS'a'
p3403
aS'tree'
p3404
aS'which'
p3405
aS'once'
p3406
aS'bore'
p3407
aS'golden'
p3408
aS'apples'
p3409
aS'does'
p3410
aS'not'
p3411
aS'even'
p3412
aS'put'
p3413
aS'forth'
p3414
aS'leaves'
p3415
aS','
p3416
aS'and'
p3417
aS'why'
p3418
aS'a'
p3419
aS'ferryman'
p3420
aS'must'
p3421
aS'always'
p3422
aS'be'
p3423
aS'going'
p3424
aS'backwards'
p3425
aS'and'
p3426
aS'forwards'
p3427
aS','
p3428
aS'and'
p3429
aS'is'
p3430
aS'never'
p3431
aS'set'
p3432
aS'free'
p3433
aS'.'
p3434
asg65
(lp3435
VYes
p3436
ag79
aVanswer
p3437
aVhe
p3438
ag79
aVso
p3439
aVfar
p3440
ag79
aVso
p3441
aVgood
p3442
ag79
aVbut
p3443
aVthere
p3444
ag1396
aVthree
p3445
aVthing
p3446
aVbesides
p3447
aVthat
p3448
ag373
aVwant
p3449
aVto
p3450
aVknow
p3451
aV-
p3452
aVwhy
p3453
ag70
aVfountain
p3454
aVwhich
p3455
aVonce
p3456
aVflow
p3457
aVwith
p3458
aVwine
p3459
ag223
aVbecome
p3460
aVdry
p3461
ag79
aVand
p3462
aVno
p3463
aVlonger
p3464
aVgive
p3465
aVeven
p3466
aVwater
p3467
ag79
aVwhy
p3468
ag70
aVtree
p3469
aVwhich
p3470
aVonce
p3471
aVbore
p3472
aVgolden
p3473
aVapple
p3474
aVdo
p3475
aVnot
p3476
aVeven
p3477
aVput
p3478
aVforth
p3479
ag2839
ag79
aVand
p3480
aVwhy
p3481
ag70
aVferryman
p3482
aVmust
p3483
aValways
p3484
aVbe
p3485
aVgo
p3486
aVbackwards
p3487
aVand
p3488
aVforward
p3489
ag79
aVand
p3490
ag272
aVnever
p3491
aVset
p3492
aVfree
p3493
ag106
asg107
(lp3494
g109
ag109
ag109
ag109
ag109
ag109
ag109
ag109
ag109
ag109
ag109
ag109
ag109
ag109
ag109
ag109
ag109
ag109
ag109
ag109
ag109
ag109
ag109
ag109
ag109
ag109
ag109
ag109
ag109
ag109
ag109
ag109
ag109
ag109
ag109
ag109
ag109
ag109
ag109
ag109
ag109
ag109
ag109
ag109
ag109
ag109
ag109
ag109
ag109
ag109
ag109
ag109
ag109
ag109
ag109
ag109
ag109
ag109
ag109
ag109
ag109
ag109
ag109
ag109
ag109
ag109
ag109
ag109
ag109
ag109
ag109
ag109
ag109
ag109
ag109
asg110
(lp3495
g240
ag120
ag113
ag123
ag120
ag114
ag114
ag120
ag114
ag116
ag120
ag121
ag112
ag381
ag677
ag240
ag242
ag122
ag123
ag381
ag119
ag127
aS':'
p3496
ag241
ag115
ag117
ag1084
ag114
ag113
ag122
ag117
ag242
ag124
ag116
ag120
ag121
ag115
ag117
ag242
ag114
ag2676
ag120
ag241
ag115
ag117
ag1084
ag114
ag381
ag124
ag240
ag242
ag114
ag114
ag124
ag116
ag240
ag120
ag121
ag241
ag115
ag117
ag126
ag114
ag127
ag128
ag240
ag121
ag240
ag120
ag121
ag242
ag114
ag124
ag116
ag130
asg131
VYes, answered he, so far, so good, but there are three things besides that I want to know - why a fountain which once flowed with wine has become dry, and no longer gives even water, why a tree which once bore golden apples does not even put forth leaves, and why a ferryman must always be going backwards and forwards, and is never set free.
p3497
sba(i__main__
Sentence
p3498
(dp3499
g17
I62
sg18
(lp3500
S'Those'
p3501
aS'are'
p3502
aS'difficult'
p3503
aS'questions'
p3504
aS','
p3505
aS'answered'
p3506
aS'she'
p3507
aS','
p3508
aS'but'
p3509
aS'just'
p3510
aS'be'
p3511
aS'silent'
p3512
aS'and'
p3513
aS'quiet'
p3514
aS'and'
p3515
aS'pay'
p3516
aS'attention'
p3517
aS'to'
p3518
aS'what'
p3519
aS'the'
p3520
aS'devil'
p3521
aS'says'
p3522
aS'when'
p3523
aS'I'
p3524
aS'pull'
p3525
aS'out'
p3526
aS'the'
p3527
aS'three'
p3528
aS'golden'
p3529
aS'hairs'
p3530
aS'.'
p3531
asg65
(lp3532
VThose
p3533
ag1396
aVdifficult
p3534
aVquestion
p3535
ag79
aVanswer
p3536
aVshe
p3537
ag79
aVbut
p3538
aVjust
p3539
aVbe
p3540
aVsilent
p3541
aVand
p3542
aVquiet
p3543
aVand
p3544
aVpay
p3545
aVattention
p3546
aVto
p3547
aVwhat
p3548
aVthe
p3549
aVdevil
p3550
aVsay
p3551
aVwhen
p3552
ag373
aVpull
p3553
aVout
p3554
aVthe
p3555
aVthree
p3556
aVgolden
p3557
aVhair
p3558
ag106
asg107
(lp3559
g109
ag109
ag109
ag109
ag109
ag109
ag109
ag109
ag109
ag109
ag109
ag109
ag109
ag109
ag109
ag109
ag109
ag109
ag109
ag109
ag109
ag109
ag109
ag109
ag109
ag109
ag109
ag109
ag109
ag109
ag109
asg110
(lp3560
g115
ag381
ag116
ag240
ag120
ag113
ag123
ag120
ag121
ag114
ag127
ag116
ag121
ag116
ag121
ag117
ag117
ag119
ag118
ag115
ag117
ag242
ag241
ag123
ag381
ag243
ag115
ag677
ag116
ag240
ag130
asg131
VThose are difficult questions, answered she, but just be silent and quiet and pay attention to what the devil says when I pull out the three golden hairs.
p3561
sba(i__main__
Sentence
p3562
(dp3563
g17
I63
sg18
(lp3564
S'As'
p3565
aS'the'
p3566
aS'evening'
p3567
aS'came'
p3568
aS'on'
p3569
aS','
p3570
aS'the'
p3571
aS'devil'
p3572
aS'returned'
p3573
aS'home'
p3574
aS'.'
p3575
asg65
(lp3576
VAs
p3577
aVthe
p3578
aVevening
p3579
ag82
aVon
p3580
ag79
aVthe
p3581
aVdevil
p3582
aVreturn
p3583
aVhome
p3584
ag106
asg107
(lp3585
g109
ag109
ag109
ag109
ag109
ag109
ag109
ag109
ag109
ag109
ag109
asg110
(lp3586
g122
ag115
ag117
ag113
ag122
ag120
ag115
ag117
ag113
ag117
ag130
asg131
VAs the evening came on, the devil returned home.
p3587
sba(i__main__
Sentence
p3588
(dp3589
g17
I64
sg18
(lp3590
S'No'
p3591
aS'sooner'
p3592
aS'had'
p3593
aS'he'
p3594
aS'entered'
p3595
aS'than'
p3596
aS'he'
p3597
aS'noticed'
p3598
aS'that'
p3599
aS'the'
p3600
aS'air'
p3601
aS'was'
p3602
aS'not'
p3603
aS'pure'
p3604
aS'.'
p3605
asg65
(lp3606
VNo
p3607
aVsooner
p3608
ag347
aVhe
p3609
aVenter
p3610
aVthan
p3611
aVhe
p3612
aVnotice
p3613
aVthat
p3614
aVthe
p3615
aVair
p3616
ag68
aVnot
p3617
aVpure
p3618
ag106
asg107
(lp3619
g109
ag109
ag109
ag109
ag109
ag109
ag109
ag109
ag109
ag109
ag109
ag109
ag109
ag109
ag109
asg110
(lp3620
g115
ag117
ag113
ag123
ag113
ag122
ag123
ag113
ag122
ag115
ag117
ag113
ag114
ag127
ag130
asg131
VNo sooner had he entered than he noticed that the air was not pure.
p3621
sba(i__main__
Sentence
p3622
(dp3623
g17
I65
sg18
(lp3624
S'I'
p3625
aS'smell'
p3626
aS'man'
p3627
aS"'s"
p3628
aS'flesh'
p3629
aS','
p3630
aS'said'
p3631
aS'he'
p3632
aS','
p3633
aS'all'
p3634
aS'is'
p3635
aS'not'
p3636
aS'right'
p3637
aS'here'
p3638
aS'.'
p3639
asg65
(lp3640
g373
aVsmell
p3641
aVman
p3642
aV's
p3643
aVflesh
p3644
ag79
ag363
aVhe
p3645
ag79
aVall
p3646
ag272
aVnot
p3647
aVright
p3648
aVhere
p3649
ag106
asg107
(lp3650
g109
ag109
ag109
ag109
ag109
ag109
ag109
ag109
ag109
ag109
ag109
ag109
ag109
ag109
ag109
asg110
(lp3651
g123
ag381
ag117
ag129
ag116
ag120
ag113
ag123
ag120
ag115
ag242
ag114
ag114
ag114
ag130
asg131
VI smell man's flesh, said he, all is not right here.
p3652
sba(i__main__
Sentence
p3653
(dp3654
g17
I66
sg18
(lp3655
S'Then'
p3656
aS'he'
p3657
aS'pried'
p3658
aS'into'
p3659
aS'every'
p3660
aS'corner'
p3661
aS','
p3662
aS'and'
p3663
aS'searched'
p3664
aS','
p3665
aS'but'
p3666
aS'could'
p3667
aS'not'
p3668
aS'find'
p3669
aS'anything'
p3670
aS'.'
p3671
asg65
(lp3672
VThen
p3673
aVhe
p3674
aVpry
p3675
aVinto
p3676
aVevery
p3677
aVcorner
p3678
ag79
aVand
p3679
aVsearch
p3680
ag79
aVbut
p3681
aVcould
p3682
aVnot
p3683
aVfind
p3684
aVanything
p3685
ag106
asg107
(lp3686
g109
ag109
ag109
ag109
ag109
ag109
ag109
ag109
ag109
ag109
ag109
ag109
ag109
ag109
ag109
ag109
asg110
(lp3687
g114
ag123
ag113
ag122
ag115
ag117
ag120
ag121
ag113
ag120
ag121
ag126
ag114
ag127
ag117
ag130
asg131
VThen he pried into every corner, and searched, but could not find anything.
p3688
sba(i__main__
Sentence
p3689
(dp3690
g17
I67
sg18
(lp3691
S'His'
p3692
aS'grandmother'
p3693
aS'scolded'
p3694
aS'him'
p3695
aS'.'
p3696
asg65
(lp3697
VHis
p3698
aVgrandmother
p3699
aVscold
p3700
aVhim
p3701
ag106
asg107
(lp3702
g109
ag109
ag109
ag109
ag109
asg110
(lp3703
g125
ag117
ag113
ag123
ag130
asg131
VHis grandmother scolded him.
p3704
sba(i__main__
Sentence
p3705
(dp3706
g17
I68
sg18
(lp3707
S'It'
p3708
aS'has'
p3709
aS'just'
p3710
aS'been'
p3711
aS'swept'
p3712
aS','
p3713
aS'said'
p3714
aS'she'
p3715
aS','
p3716
aS'and'
p3717
aS'everything'
p3718
aS'put'
p3719
aS'in'
p3720
aS'order'
p3721
aS','
p3722
aS'and'
p3723
aS'now'
p3724
aS'you'
p3725
aS'are'
p3726
aS'upsetting'
p3727
aS'it'
p3728
aS'again'
p3729
aS','
p3730
aS'you'
p3731
aS'have'
p3732
aS'always'
p3733
aS'got'
p3734
aS'man'
p3735
aS"'s"
p3736
aS'flesh'
p3737
aS'in'
p3738
aS'your'
p3739
aS'nose'
p3740
aS'.'
p3741
asg65
(lp3742
VIt
p3743
ag223
aVjust
p3744
ag225
aVswept
p3745
ag79
ag363
aVshe
p3746
ag79
aVand
p3747
aVeverything
p3748
aVput
p3749
aVin
p3750
aVorder
p3751
ag79
aVand
p3752
aVnow
p3753
aVyou
p3754
ag1396
aVupset
p3755
aVit
p3756
aVagain
p3757
ag79
aVyou
p3758
aVhave
p3759
aValways
p3760
aVget
p3761
aVman
p3762
aV's
p3763
aVflesh
p3764
aVin
p3765
aVyour
p3766
aVnose
p3767
ag106
asg107
(lp3768
g109
ag109
ag109
ag109
ag109
ag109
ag109
ag109
ag109
ag109
ag109
ag109
ag109
ag109
ag109
ag109
ag109
ag109
ag109
ag109
ag109
ag109
ag109
ag109
ag109
ag109
ag109
ag109
ag109
ag109
ag109
ag109
ag109
ag109
asg110
(lp3769
g123
ag242
ag114
ag124
ag116
ag120
ag113
ag123
ag120
ag121
ag117
ag113
ag122
ag117
ag120
ag121
ag114
ag123
ag381
ag128
ag123
ag114
ag120
ag123
ag381
ag114
ag124
ag117
ag129
ag116
ag122
ag125
ag117
ag130
asg131
VIt has just been swept, said she, and everything put in order, and now you are upsetting it again, you have always got man's flesh in your nose.
p3770
sba(i__main__
Sentence
p3771
(dp3772
g17
I69
sg18
(lp3773
S'Sit'
p3774
aS'down'
p3775
aS'and'
p3776
aS'eat'
p3777
aS'your'
p3778
aS'supper'
p3779
aS'.'
p3780
asg65
(lp3781
VSit
p3782
aVdown
p3783
aVand
p3784
aVeat
p3785
aVyour
p3786
aVsupper
p3787
ag106
asg107
(lp3788
g109
ag109
ag109
ag109
ag109
ag109
ag109
asg110
(lp3789
g117
ag114
ag121
ag127
ag125
ag117
ag130
asg131
VSit down and eat your supper.
p3790
sba(i__main__
Sentence
p3791
(dp3792
g17
I70
sg18
(lp3793
S'When'
p3794
aS'he'
p3795
aS'had'
p3796
aS'eaten'
p3797
aS'and'
p3798
aS'drunk'
p3799
aS'he'
p3800
aS'was'
p3801
aS'tired'
p3802
aS','
p3803
aS'and'
p3804
aS'laid'
p3805
aS'his'
p3806
aS'head'
p3807
aS'in'
p3808
aS'his'
p3809
aS'grandmother'
p3810
aS"'s"
p3811
aS'lap'
p3812
aS','
p3813
aS'and'
p3814
aS'told'
p3815
aS'her'
p3816
aS'she'
p3817
aS'should'
p3818
aS'louse'
p3819
aS'him'
p3820
aS'a'
p3821
aS'little'
p3822
aS'.'
p3823
asg65
(lp3824
VWhen
p3825
aVhe
p3826
ag347
aVeat
p3827
aVand
p3828
aVdrunk
p3829
aVhe
p3830
ag68
aVtire
p3831
ag79
aVand
p3832
aVlay
p3833
aVhis
p3834
aVhead
p3835
aVin
p3836
aVhis
p3837
aVgrandmother
p3838
aV's
p3839
aVlap
p3840
ag79
aVand
p3841
ag1143
aVher
p3842
aVshe
p3843
aVshould
p3844
aVlouse
p3845
aVhim
p3846
ag70
aVlittle
p3847
ag106
asg107
(lp3848
g109
ag109
ag109
ag109
ag109
ag109
ag109
ag109
ag109
ag109
ag109
ag109
ag109
ag109
ag109
ag109
ag109
ag109
ag109
ag109
ag109
ag109
ag109
ag109
ag109
ag109
ag109
ag109
ag109
ag109
asg110
(lp3849
g241
ag123
ag113
ag124
ag121
ag117
ag123
ag113
ag124
ag120
ag121
ag113
ag125
ag117
ag122
ag125
ag117
ag129
ag117
ag120
ag121
ag113
ag123
ag123
ag126
ag127
ag123
ag115
ag114
ag130
asg131
VWhen he had eaten and drunk he was tired, and laid his head in his grandmother's lap, and told her she should louse him a little.
p3850
sba(i__main__
Sentence
p3851
(dp3852
g17
I71
sg18
(lp3853
S'It'
p3854
aS'was'
p3855
aS'not'
p3856
aS'long'
p3857
aS'before'
p3858
aS'he'
p3859
aS'was'
p3860
aS'fast'
p3861
aS'asleep'
p3862
aS','
p3863
aS'snoring'
p3864
aS'and'
p3865
aS'breathing'
p3866
aS'heavily'
p3867
aS'.'
p3868
asg65
(lp3869
VIt
p3870
ag68
aVnot
p3871
aVlong
p3872
aVbefore
p3873
aVhe
p3874
ag68
aVfast
p3875
aVasleep
p3876
ag79
aVsnore
p3877
aVand
p3878
aVbreathe
p3879
aVheavily
p3880
ag106
asg107
(lp3881
g109
ag109
ag109
ag109
ag109
ag109
ag109
ag109
ag109
ag109
ag109
ag109
ag109
ag109
ag109
asg110
(lp3882
g123
ag113
ag114
ag114
ag122
ag123
ag113
ag114
ag127
ag120
ag128
ag121
ag128
ag114
ag130
asg131
VIt was not long before he was fast asleep, snoring and breathing heavily.
p3883
sba(i__main__
Sentence
p3884
(dp3885
g17
I72
sg18
(lp3886
S'Then'
p3887
aS'the'
p3888
aS'old'
p3889
aS'woman'
p3890
aS'took'
p3891
aS'hold'
p3892
aS'of'
p3893
aS'a'
p3894
aS'golden'
p3895
aS'hair'
p3896
aS','
p3897
aS'pulled'
p3898
aS'it'
p3899
aS'out'
p3900
aS','
p3901
aS'and'
p3902
aS'laid'
p3903
aS'it'
p3904
aS'down'
p3905
aS'beside'
p3906
aS'her'
p3907
aS'.'
p3908
asg65
(lp3909
VThen
p3910
aVthe
p3911
aVold
p3912
aVwoman
p3913
ag810
aVhold
p3914
aVof
p3915
ag70
aVgolden
p3916
aVhair
p3917
ag79
aVpull
p3918
aVit
p3919
aVout
p3920
ag79
aVand
p3921
ag3833
aVit
p3922
aVdown
p3923
aVbeside
p3924
aVher
p3925
ag106
asg107
(lp3926
g109
ag109
ag109
ag109
ag109
ag109
ag109
ag109
ag109
ag109
ag109
ag109
ag109
ag109
ag109
ag109
ag109
ag109
ag109
ag109
ag109
ag109
asg110
(lp3927
g114
ag115
ag116
ag117
ag113
ag117
ag122
ag115
ag116
ag117
ag120
ag113
ag123
ag122
ag120
ag121
ag113
ag123
ag122
ag117
ag125
ag130
asg131
VThen the old woman took hold of a golden hair, pulled it out, and laid it down beside her.
p3928
sba(i__main__
Sentence
p3929
(dp3930
g17
I73
sg18
(lp3931
S'Oh'
p3932
aS','
p3933
aS'cried'
p3934
aS'the'
p3935
aS'devil'
p3936
aS','
p3937
aS'what'
p3938
aS'are'
p3939
aS'you'
p3940
aS'doing'
p3941
aS'.'
p3942
asg65
(lp3943
VOh
p3944
ag79
aVcry
p3945
aVthe
p3946
aVdevil
p3947
ag79
aVwhat
p3948
ag1396
aVyou
p3949
aVdo
p3950
ag106
asg107
(lp3951
g109
ag109
ag109
ag109
ag109
ag109
ag109
ag109
ag109
ag109
ag109
asg110
(lp3952
S'UH'
p3953
ag120
ag113
ag115
ag117
ag120
ag118
ag381
ag123
ag128
ag130
asg131
VOh, cried the devil, what are you doing.
p3954
sba(i__main__
Sentence
p3955
(dp3956
g17
I74
sg18
(lp3957
S'I'
p3958
aS'have'
p3959
aS'had'
p3960
aS'a'
p3961
aS'bad'
p3962
aS'dream'
p3963
aS','
p3964
aS'answered'
p3965
aS'the'
p3966
aS'grandmother'
p3967
aS','
p3968
aS'so'
p3969
aS'I'
p3970
aS'seized'
p3971
aS'hold'
p3972
aS'of'
p3973
aS'your'
p3974
aS'hair'
p3975
aS'.'
p3976
asg65
(lp3977
g373
aVhave
p3978
ag347
ag70
aVbad
p3979
aVdream
p3980
ag79
aVanswer
p3981
aVthe
p3982
aVgrandmother
p3983
ag79
aVso
p3984
ag373
aVseize
p3985
aVhold
p3986
aVof
p3987
aVyour
p3988
aVhair
p3989
ag106
asg107
(lp3990
g109
ag109
ag109
ag109
ag109
ag109
ag109
ag109
ag109
ag109
ag109
ag109
ag109
ag109
ag109
ag109
ag109
ag109
ag109
asg110
(lp3991
g123
ag381
ag124
ag115
ag116
ag117
ag120
ag113
ag115
ag117
ag120
ag114
ag123
ag113
ag116
ag122
ag125
ag117
ag130
asg131
VI have had a bad dream, answered the grandmother, so I seized hold of your hair.
p3992
sba(i__main__
Sentence
p3993
(dp3994
g17
I75
sg18
(lp3995
S'What'
p3996
aS'did'
p3997
aS'you'
p3998
aS'dream'
p3999
aS'then'
p4000
aS','
p4001
aS'said'
p4002
aS'the'
p4003
aS'devil'
p4004
aS'.'
p4005
asg65
(lp4006
VWhat
p4007
ag598
aVyou
p4008
aVdream
p4009
aVthen
p4010
ag79
ag363
aVthe
p4011
aVdevil
p4012
ag106
asg107
(lp4013
g109
ag109
ag109
ag109
ag109
ag109
ag109
ag109
ag109
ag109
asg110
(lp4014
g118
ag113
ag123
ag127
ag114
ag120
ag113
ag115
ag117
ag130
asg131
VWhat did you dream then, said the devil.
p4015
sba(i__main__
Sentence
p4016
(dp4017
g17
I76
sg18
(lp4018
S'I'
p4019
aS'dreamt'
p4020
aS'that'
p4021
aS'a'
p4022
aS'fountain'
p4023
aS'in'
p4024
aS'a'
p4025
aS'market-place'
p4026
aS'from'
p4027
aS'which'
p4028
aS'wine'
p4029
aS'once'
p4030
aS'flowed'
p4031
aS'was'
p4032
aS'dried'
p4033
aS'up'
p4034
aS','
p4035
aS'and'
p4036
aS'not'
p4037
aS'even'
p4038
aS'water'
p4039
aS'would'
p4040
aS'flow'
p4041
aS'out'
p4042
aS'of'
p4043
aS'it'
p4044
aS'-'
p4045
aS'what'
p4046
aS'is'
p4047
aS'the'
p4048
aS'cause'
p4049
aS'of'
p4050
aS'it'
p4051
aS'.'
p4052
asg65
(lp4053
g373
aVdream
p4054
aVthat
p4055
ag70
aVfountain
p4056
aVin
p4057
ag70
aVmarket-place
p4058
aVfrom
p4059
aVwhich
p4060
aVwine
p4061
aVonce
p4062
aVflow
p4063
ag68
aVdry
p4064
aVup
p4065
ag79
aVand
p4066
aVnot
p4067
aVeven
p4068
aVwater
p4069
aVwould
p4070
aVflow
p4071
aVout
p4072
aVof
p4073
aVit
p4074
ag3452
aVwhat
p4075
ag272
aVthe
p4076
aVcause
p4077
aVof
p4078
aVit
p4079
ag106
asg107
(lp4080
g109
ag109
ag109
ag109
ag109
ag109
ag109
ag109
ag109
ag109
ag109
ag109
ag109
ag109
ag109
ag109
ag109
ag109
ag109
ag109
ag109
ag109
ag109
ag109
ag109
ag109
ag109
ag109
ag109
ag109
ag109
ag109
ag109
ag109
asg110
(lp4081
g123
ag113
ag122
ag115
ag117
ag122
ag115
ag117
ag122
ag1084
ag117
ag114
ag113
ag113
ag124
ag243
ag120
ag121
ag114
ag114
ag2676
ag126
ag127
ag243
ag122
ag123
ag3496
ag118
ag242
ag115
ag117
ag122
ag123
ag130
asg131
VI dreamt that a fountain in a market-place from which wine once flowed was dried up, and not even water would flow out of it - what is the cause of it.
p4082
sba(i__main__
Sentence
p4083
(dp4084
g17
I77
sg18
(lp4085
S'Oh'
p4086
aS','
p4087
aS'ho'
p4088
aS','
p4089
aS'if'
p4090
aS'they'
p4091
aS'did'
p4092
aS'but'
p4093
aS'know'
p4094
aS'it'
p4095
aS','
p4096
aS'answered'
p4097
aS'the'
p4098
aS'devil'
p4099
aS','
p4100
aS'there'
p4101
aS'is'
p4102
aS'a'
p4103
aS'toad'
p4104
aS'sitting'
p4105
aS'under'
p4106
aS'a'
p4107
aS'stone'
p4108
aS'in'
p4109
aS'the'
p4110
aS'well'
p4111
aS'-'
p4112
aS'if'
p4113
aS'they'
p4114
aS'killed'
p4115
aS'it'
p4116
aS','
p4117
aS'the'
p4118
aS'wine'
p4119
aS'would'
p4120
aS'flow'
p4121
aS'again'
p4122
aS'.'
p4123
asg65
(lp4124
VOh
p4125
ag79
aVho
p4126
ag79
aVif
p4127
aVthey
p4128
ag598
aVbut
p4129
aVknow
p4130
aVit
p4131
ag79
aVanswer
p4132
aVthe
p4133
aVdevil
p4134
ag79
aVthere
p4135
ag272
ag70
aVtoad
p4136
ag1347
aVunder
p4137
ag70
aVstone
p4138
aVin
p4139
aVthe
p4140
aVwell
p4141
ag3452
aVif
p4142
aVthey
p4143
aVkill
p4144
aVit
p4145
ag79
aVthe
p4146
aVwine
p4147
aVwould
p4148
aVflow
p4149
aVagain
p4150
ag106
asg107
(lp4151
g109
ag109
ag109
ag109
ag109
ag109
ag109
ag109
ag109
ag109
ag109
ag109
ag109
ag109
ag109
ag109
ag109
ag109
ag109
ag109
ag109
ag109
ag109
ag109
ag109
ag109
ag109
ag109
ag109
ag109
ag109
ag109
ag109
ag109
ag109
ag109
ag109
ag109
asg110
(lp4152
g3953
ag120
ag117
ag120
ag122
ag123
ag113
ag121
ag127
ag123
ag120
ag113
ag115
ag117
ag120
ag112
ag242
ag115
ag117
ag128
ag122
ag115
ag117
ag122
ag115
ag117
ag3496
ag122
ag123
ag113
ag123
ag120
ag115
ag117
ag126
ag127
ag114
ag130
asg131
VOh, ho, if they did but know it, answered the devil, there is a toad sitting under a stone in the well - if they killed it, the wine would flow again.
p4153
sba(i__main__
Sentence
p4154
(dp4155
g17
I78
sg18
(lp4156
S'The'
p4157
aS'grandmother'
p4158
aS'loused'
p4159
aS'him'
p4160
aS'again'
p4161
aS'until'
p4162
aS'he'
p4163
aS'went'
p4164
aS'to'
p4165
aS'sleep'
p4166
aS'and'
p4167
aS'snored'
p4168
aS'so'
p4169
aS'that'
p4170
aS'the'
p4171
aS'windows'
p4172
aS'shook'
p4173
aS'.'
p4174
asg65
(lp4175
VThe
p4176
aVgrandmother
p4177
aVloused
p4178
aVhim
p4179
aVagain
p4180
aVuntil
p4181
aVhe
p4182
ag355
aVto
p4183
aVsleep
p4184
aVand
p4185
aVsnore
p4186
aVso
p4187
aVthat
p4188
aVthe
p4189
aVwindow
p4190
aVshake
p4191
ag106
asg107
(lp4192
g109
ag109
ag109
ag109
ag109
ag109
ag109
ag109
ag109
ag109
ag109
ag109
ag109
ag109
ag109
ag109
ag109
ag109
asg110
(lp4193
g115
ag117
ag113
ag123
ag114
ag122
ag123
ag113
ag119
ag127
ag121
ag124
ag114
ag122
ag115
ag240
ag381
ag130
asg131
VThe grandmother loused him again until he went to sleep and snored so that the windows shook.
p4194
sba(i__main__
Sentence
p4195
(dp4196
g17
I79
sg18
(lp4197
S'Then'
p4198
aS'she'
p4199
aS'pulled'
p4200
aS'the'
p4201
aS'second'
p4202
aS'hair'
p4203
aS'out'
p4204
aS'.'
p4205
asg65
(lp4206
VThen
p4207
aVshe
p4208
aVpull
p4209
aVthe
p4210
aVsecond
p4211
aVhair
p4212
aVout
p4213
ag106
asg107
(lp4214
g109
ag109
ag109
ag109
ag109
ag109
ag109
ag109
asg110
(lp4215
g114
ag123
ag113
ag115
ag116
ag117
ag122
ag130
asg131
VThen she pulled the second hair out.
p4216
sba(i__main__
Sentence
p4217
(dp4218
g17
I80
sg18
(lp4219
S'Ha'
p4220
aS','
p4221
aS'what'
p4222
aS'are'
p4223
aS'you'
p4224
aS'doing'
p4225
aS','
p4226
aS'cried'
p4227
aS'the'
p4228
aS'devil'
p4229
aS'angrily'
p4230
aS'.'
p4231
asg65
(lp4232
VHa
p4233
ag79
aVwhat
p4234
ag1396
aVyou
p4235
aVdo
p4236
ag79
aVcried
p4237
aVthe
p4238
aVdevil
p4239
aVangrily
p4240
ag106
asg107
(lp4241
g109
ag109
ag109
ag109
ag109
ag109
ag109
ag109
ag109
ag109
ag109
ag109
asg110
(lp4242
g836
ag120
ag118
ag381
ag123
ag128
ag120
ag116
ag115
ag117
ag114
ag130
asg131
VHa, what are you doing, cried the devil angrily.
p4243
sba(i__main__
Sentence
p4244
(dp4245
g17
I81
sg18
(lp4246
S'Do'
p4247
aS'not'
p4248
aS'take'
p4249
aS'it'
p4250
aS'ill'
p4251
aS','
p4252
aS'said'
p4253
aS'she'
p4254
aS','
p4255
aS'I'
p4256
aS'did'
p4257
aS'it'
p4258
aS'in'
p4259
aS'a'
p4260
aS'dream'
p4261
aS'.'
p4262
asg65
(lp4263
VDo
p4264
aVnot
p4265
aVtake
p4266
aVit
p4267
aVill
p4268
ag79
ag363
aVshe
p4269
ag79
ag373
ag598
aVit
p4270
aVin
p4271
ag70
aVdream
p4272
ag106
asg107
(lp4273
g109
ag109
ag109
ag109
ag109
ag109
ag109
ag109
ag109
ag109
ag109
ag109
ag109
ag109
ag109
ag109
asg110
(lp4274
g836
ag114
ag127
ag123
ag126
ag120
ag113
ag123
ag120
ag123
ag113
ag123
ag122
ag115
ag117
ag130
asg131
VDo not take it ill, said she, I did it in a dream.
p4275
sba(i__main__
Sentence
p4276
(dp4277
g17
I82
sg18
(lp4278
S'What'
p4279
aS'have'
p4280
aS'you'
p4281
aS'dreamt'
p4282
aS'this'
p4283
aS'time'
p4284
aS','
p4285
aS'asked'
p4286
aS'he'
p4287
aS'.'
p4288
asg65
(lp4289
VWhat
p4290
aVhave
p4291
aVyou
p4292
ag4054
aVthis
p4293
aVtime
p4294
ag79
aVask
p4295
aVhe
p4296
ag106
asg107
(lp4297
g109
ag109
ag109
ag109
ag109
ag109
ag109
ag109
ag109
ag109
asg110
(lp4298
g118
ag381
ag123
ag113
ag115
ag117
ag120
ag113
ag123
ag130
asg131
VWhat have you dreamt this time, asked he.
p4299
sba(i__main__
Sentence
p4300
(dp4301
g17
I83
sg18
(lp4302
S'I'
p4303
aS'dreamt'
p4304
aS'that'
p4305
aS'in'
p4306
aS'a'
p4307
aS'certain'
p4308
aS'kingdom'
p4309
aS'there'
p4310
aS'stood'
p4311
aS'an'
p4312
aS'apple-tree'
p4313
aS'which'
p4314
aS'had'
p4315
aS'once'
p4316
aS'borne'
p4317
aS'golden'
p4318
aS'apples'
p4319
aS','
p4320
aS'but'
p4321
aS'now'
p4322
aS'would'
p4323
aS'not'
p4324
aS'even'
p4325
aS'bear'
p4326
aS'leaves'
p4327
aS'.'
p4328
asg65
(lp4329
g373
ag4054
aVthat
p4330
aVin
p4331
ag70
aVcertain
p4332
aVkingdom
p4333
aVthere
p4334
aVstood
p4335
aVan
p4336
aVapple-tree
p4337
aVwhich
p4338
ag347
aVonce
p4339
aVbear
p4340
aVgolden
p4341
aVapple
p4342
ag79
aVbut
p4343
aVnow
p4344
aVwould
p4345
aVnot
p4346
aVeven
p4347
aVbear
p4348
ag2839
ag106
asg107
(lp4349
g109
ag109
ag109
ag109
ag109
ag109
ag109
ag109
ag109
ag109
ag109
ag109
ag109
ag109
ag109
ag109
ag109
ag109
ag109
ag109
ag109
ag109
ag109
ag109
ag109
ag109
asg110
(lp4350
g123
ag113
ag122
ag122
ag115
ag116
ag117
ag112
ag117
ag115
ag116
ag1084
ag113
ag114
ag124
ag116
ag240
ag120
ag121
ag114
ag126
ag114
ag114
ag127
ag240
ag130
asg131
VI dreamt that in a certain kingdom there stood an apple-tree which had once borne golden apples, but now would not even bear leaves.
p4351
sba(i__main__
Sentence
p4352
(dp4353
g17
I84
sg18
(lp4354
S'What'
p4355
aS','
p4356
aS'think'
p4357
aS'you'
p4358
aS','
p4359
aS'was'
p4360
aS'the'
p4361
aS'reason'
p4362
aS'.'
p4363
asg65
(lp4364
VWhat
p4365
ag79
aVthink
p4366
aVyou
p4367
ag79
ag68
aVthe
p4368
aVreason
p4369
ag106
asg107
(lp4370
g109
ag109
ag109
ag109
ag109
ag109
ag109
ag109
ag109
asg110
(lp4371
g118
ag120
ag381
ag123
ag120
ag113
ag115
ag117
ag130
asg131
VWhat, think you, was the reason.
p4372
sba(i__main__
Sentence
p4373
(dp4374
g17
I85
sg18
(lp4375
S'Oh'
p4376
aS','
p4377
aS'if'
p4378
aS'they'
p4379
aS'did'
p4380
aS'but'
p4381
aS'know'
p4382
aS','
p4383
aS'answered'
p4384
aS'the'
p4385
aS'devil'
p4386
aS'.'
p4387
asg65
(lp4388
VOh
p4389
ag79
aVif
p4390
aVthey
p4391
ag598
aVbut
p4392
aVknow
p4393
ag79
aVanswer
p4394
aVthe
p4395
aVdevil
p4396
ag106
asg107
(lp4397
g109
ag109
ag109
ag109
ag109
ag109
ag109
ag109
ag109
ag109
ag109
ag109
asg110
(lp4398
g3953
ag120
ag122
ag123
ag113
ag121
ag127
ag120
ag124
ag115
ag117
ag130
asg131
VOh, if they did but know, answered the devil.
p4399
sba(i__main__
Sentence
p4400
(dp4401
g17
I86
sg18
(lp4402
S'A'
p4403
aS'mouse'
p4404
aS'is'
p4405
aS'gnawing'
p4406
aS'at'
p4407
aS'the'
p4408
aS'root'
p4409
aS'-'
p4410
aS'if'
p4411
aS'they'
p4412
aS'killed'
p4413
aS'it'
p4414
aS'they'
p4415
aS'would'
p4416
aS'have'
p4417
aS'golden'
p4418
aS'apples'
p4419
aS'again'
p4420
aS','
p4421
aS'but'
p4422
aS'if'
p4423
aS'it'
p4424
aS'gnaws'
p4425
aS'much'
p4426
aS'longer'
p4427
aS'the'
p4428
aS'tree'
p4429
aS'will'
p4430
aS'wither'
p4431
aS'altogether'
p4432
aS'.'
p4433
asg65
(lp4434
g732
aVmouse
p4435
ag272
aVgnaw
p4436
aVat
p4437
aVthe
p4438
aVroot
p4439
ag3452
aVif
p4440
aVthey
p4441
aVkill
p4442
aVit
p4443
aVthey
p4444
aVwould
p4445
aVhave
p4446
aVgolden
p4447
aVapple
p4448
aVagain
p4449
ag79
aVbut
p4450
aVif
p4451
aVit
p4452
aVgnaw
p4453
aVmuch
p4454
aVlong
p4455
aVthe
p4456
aVtree
p4457
aVwill
p4458
aVwither
p4459
aValtogether
p4460
ag106
asg107
(lp4461
g109
ag109
ag109
ag109
ag109
ag109
ag109
ag109
ag109
ag109
ag109
ag109
ag109
ag109
ag109
ag109
ag109
ag109
ag109
ag109
ag109
ag109
ag109
ag109
ag109
ag109
ag109
ag109
ag109
ag109
ag109
asg110
(lp4462
g115
ag117
ag242
ag128
ag122
ag115
ag117
ag3496
ag122
ag123
ag113
ag123
ag123
ag126
ag127
ag124
ag240
ag114
ag120
ag121
ag122
ag123
ag242
ag114
ag2676
ag115
ag117
ag126
ag127
ag114
ag130
asg131
VA mouse is gnawing at the root - if they killed it they would have golden apples again, but if it gnaws much longer the tree will wither altogether.
p4463
sba(i__main__
Sentence
p4464
(dp4465
g17
I87
sg18
(lp4466
S'But'
p4467
aS'I'
p4468
aS'have'
p4469
aS'had'
p4470
aS'enough'
p4471
aS'of'
p4472
aS'your'
p4473
aS'dreams'
p4474
aS','
p4475
aS'if'
p4476
aS'you'
p4477
aS'disturb'
p4478
aS'me'
p4479
aS'in'
p4480
aS'my'
p4481
aS'sleep'
p4482
aS'again'
p4483
aS'you'
p4484
aS'will'
p4485
aS'get'
p4486
aS'a'
p4487
aS'box'
p4488
aS'on'
p4489
aS'the'
p4490
aS'ear'
p4491
aS'.'
p4492
asg65
(lp4493
VBut
p4494
ag373
aVhave
p4495
ag347
aVenough
p4496
aVof
p4497
aVyour
p4498
aVdream
p4499
ag79
aVif
p4500
aVyou
p4501
aVdisturb
p4502
aVme
p4503
aVin
p4504
aVmy
p4505
aVsleep
p4506
aVagain
p4507
aVyou
p4508
aVwill
p4509
aVget
p4510
ag70
aVbox
p4511
aVon
p4512
aVthe
p4513
aVear
p4514
ag106
asg107
(lp4515
g109
ag109
ag109
ag109
ag109
ag109
ag109
ag109
ag109
ag109
ag109
ag109
ag109
ag109
ag109
ag109
ag109
ag109
ag109
ag109
ag109
ag109
ag109
ag109
ag109
ag109
asg110
(lp4516
g121
ag123
ag381
ag124
ag116
ag122
ag125
ag240
ag120
ag122
ag123
ag381
ag123
ag122
ag125
ag117
ag114
ag123
ag126
ag127
ag115
ag117
ag122
ag115
ag117
ag130
asg131
VBut I have had enough of your dreams, if you disturb me in my sleep again you will get a box on the ear.
p4517
sba(i__main__
Sentence
p4518
(dp4519
g17
I88
sg18
(lp4520
S'The'
p4521
aS'grandmother'
p4522
aS'spoke'
p4523
aS'gently'
p4524
aS'to'
p4525
aS'him'
p4526
aS'and'
p4527
aS'picked'
p4528
aS'his'
p4529
aS'lice'
p4530
aS'once'
p4531
aS'more'
p4532
aS'until'
p4533
aS'he'
p4534
aS'fell'
p4535
aS'asleep'
p4536
aS'and'
p4537
aS'snored'
p4538
aS'.'
p4539
asg65
(lp4540
VThe
p4541
aVgrandmother
p4542
aVspoke
p4543
aVgently
p4544
aVto
p4545
aVhim
p4546
aVand
p4547
aVpick
p4548
aVhis
p4549
aVlouse
p4550
aVonce
p4551
aVmore
p4552
aVuntil
p4553
aVhe
p4554
aVfell
p4555
aVasleep
p4556
aVand
p4557
aVsnore
p4558
ag106
asg107
(lp4559
g109
ag109
ag109
ag109
ag109
ag109
ag109
ag109
ag109
ag109
ag109
ag109
ag109
ag109
ag109
ag109
ag109
ag109
ag109
asg110
(lp4560
g115
ag117
ag117
ag114
ag119
ag123
ag121
ag113
ag125
ag117
ag114
aS'RBR'
p4561
ag122
ag123
ag113
ag127
ag121
ag124
ag130
asg131
VThe grandmother spoke gently to him and picked his lice once more until he fell asleep and snored.
p4562
sba(i__main__
Sentence
p4563
(dp4564
g17
I89
sg18
(lp4565
S'Then'
p4566
aS'she'
p4567
aS'took'
p4568
aS'hold'
p4569
aS'of'
p4570
aS'the'
p4571
aS'third'
p4572
aS'golden'
p4573
aS'hair'
p4574
aS'and'
p4575
aS'pulled'
p4576
aS'it'
p4577
aS'out'
p4578
aS'.'
p4579
asg65
(lp4580
VThen
p4581
aVshe
p4582
ag810
aVhold
p4583
aVof
p4584
aVthe
p4585
aVthird
p4586
aVgolden
p4587
aVhair
p4588
aVand
p4589
aVpull
p4590
aVit
p4591
aVout
p4592
ag106
asg107
(lp4593
g109
ag109
ag109
ag109
ag109
ag109
ag109
ag109
ag109
ag109
ag109
ag109
ag109
ag109
asg110
(lp4594
g114
ag123
ag113
ag116
ag122
ag115
ag116
ag117
ag117
ag121
ag113
ag123
ag122
ag130
asg131
VThen she took hold of the third golden hair and pulled it out.
p4595
sba(i__main__
Sentence
p4596
(dp4597
g17
I90
sg18
(lp4598
S'The'
p4599
aS'devil'
p4600
aS'jumped'
p4601
aS'up'
p4602
aS','
p4603
aS'roared'
p4604
aS'out'
p4605
aS','
p4606
aS'and'
p4607
aS'would'
p4608
aS'have'
p4609
aS'treated'
p4610
aS'her'
p4611
aS'ill'
p4612
aS'if'
p4613
aS'she'
p4614
aS'had'
p4615
aS'not'
p4616
aS'quieted'
p4617
aS'him'
p4618
aS'again'
p4619
aS'and'
p4620
aS'said'
p4621
aS','
p4622
aS'who'
p4623
aS'can'
p4624
aS'help'
p4625
aS'bad'
p4626
aS'dreams'
p4627
aS'.'
p4628
asg65
(lp4629
VThe
p4630
aVdevil
p4631
aVjump
p4632
aVup
p4633
ag79
aVroar
p4634
aVout
p4635
ag79
aVand
p4636
aVwould
p4637
aVhave
p4638
aVtreat
p4639
aVher
p4640
aVill
p4641
aVif
p4642
aVshe
p4643
ag347
aVnot
p4644
aVquiet
p4645
aVhim
p4646
aVagain
p4647
aVand
p4648
ag363
ag79
aVwho
p4649
aVcan
p4650
aVhelp
p4651
aVbad
p4652
aVdream
p4653
ag106
asg107
(lp4654
g109
ag109
ag109
ag109
ag109
ag109
ag109
ag109
ag109
ag109
ag109
ag109
ag109
ag109
ag109
ag109
ag109
ag109
ag109
ag109
ag109
ag109
ag109
ag109
ag109
ag109
ag109
ag109
ag109
ag109
asg110
(lp4655
g115
ag117
ag113
ag243
ag120
ag113
ag243
ag120
ag121
ag126
ag127
ag124
ag123
ag126
ag122
ag123
ag113
ag114
ag124
ag123
ag114
ag121
ag113
ag120
ag118
ag126
ag127
ag116
ag240
ag130
asg131
VThe devil jumped up, roared out, and would have treated her ill if she had not quieted him again and said, who can help bad dreams.
p4656
sba(i__main__
Sentence
p4657
(dp4658
g17
I91
sg18
(lp4659
S'What'
p4660
aS'was'
p4661
aS'the'
p4662
aS'dream'
p4663
aS','
p4664
aS'then'
p4665
aS','
p4666
aS'asked'
p4667
aS'he'
p4668
aS','
p4669
aS'and'
p4670
aS'was'
p4671
aS'quite'
p4672
aS'curious'
p4673
aS'.'
p4674
asg65
(lp4675
VWhat
p4676
ag68
aVthe
p4677
aVdream
p4678
ag79
aVthen
p4679
ag79
aVask
p4680
aVhe
p4681
ag79
aVand
p4682
ag68
aVquite
p4683
aVcurious
p4684
ag106
asg107
(lp4685
g109
ag109
ag109
ag109
ag109
ag109
ag109
ag109
ag109
ag109
ag109
ag109
ag109
ag109
ag109
asg110
(lp4686
g118
ag113
ag115
ag117
ag120
ag114
ag120
ag113
ag123
ag120
ag121
ag113
ag114
ag116
ag130
asg131
VWhat was the dream, then, asked he, and was quite curious.
p4687
sba(i__main__
Sentence
p4688
(dp4689
g17
I92
sg18
(lp4690
S'I'
p4691
aS'dreamt'
p4692
aS'of'
p4693
aS'a'
p4694
aS'ferryman'
p4695
aS'who'
p4696
aS'complained'
p4697
aS'that'
p4698
aS'he'
p4699
aS'must'
p4700
aS'always'
p4701
aS'ferry'
p4702
aS'from'
p4703
aS'one'
p4704
aS'side'
p4705
aS'to'
p4706
aS'the'
p4707
aS'other'
p4708
aS','
p4709
aS'and'
p4710
aS'was'
p4711
aS'never'
p4712
aS'released'
p4713
aS'.'
p4714
asg65
(lp4715
g373
ag4054
aVof
p4716
ag70
aVferryman
p4717
aVwho
p4718
aVcomplain
p4719
aVthat
p4720
aVhe
p4721
aVmust
p4722
aValways
p4723
aVferry
p4724
aVfrom
p4725
aVone
p4726
aVside
p4727
aVto
p4728
aVthe
p4729
aVother
p4730
ag79
aVand
p4731
ag68
aVnever
p4732
aVrelease
p4733
ag106
asg107
(lp4734
g109
ag109
ag109
ag109
ag109
ag109
ag109
ag109
ag109
ag109
ag109
ag109
ag109
ag109
ag109
ag109
ag109
ag109
ag109
ag109
ag109
ag109
ag109
ag109
asg110
(lp4735
g123
ag113
ag122
ag115
ag117
ag118
ag113
ag122
ag123
ag126
ag114
ag127
ag122
ag677
ag117
ag119
ag115
ag116
ag120
ag121
ag113
ag114
ag124
ag130
asg131
VI dreamt of a ferryman who complained that he must always ferry from one side to the other, and was never released.
p4736
sba(i__main__
Sentence
p4737
(dp4738
g17
I93
sg18
(lp4739
S'What'
p4740
aS'is'
p4741
aS'the'
p4742
aS'cause'
p4743
aS'of'
p4744
aS'it'
p4745
aS'.'
p4746
asg65
(lp4747
VWhat
p4748
ag272
aVthe
p4749
aVcause
p4750
aVof
p4751
aVit
p4752
ag106
asg107
(lp4753
g109
ag109
ag109
ag109
ag109
ag109
ag109
asg110
(lp4754
g118
ag242
ag115
ag117
ag122
ag123
ag130
asg131
VWhat is the cause of it.
p4755
sba(i__main__
Sentence
p4756
(dp4757
g17
I94
sg18
(lp4758
S'Ah'
p4759
aS','
p4760
aS'the'
p4761
aS'fool'
p4762
aS','
p4763
aS'answered'
p4764
aS'the'
p4765
aS'devil'
p4766
aS','
p4767
aS'when'
p4768
aS'anyone'
p4769
aS'comes'
p4770
aS'and'
p4771
aS'wants'
p4772
aS'to'
p4773
aS'go'
p4774
aS'across'
p4775
aS'he'
p4776
aS'must'
p4777
aS'put'
p4778
aS'the'
p4779
aS'oar'
p4780
aS'in'
p4781
aS'his'
p4782
aS'hand'
p4783
aS','
p4784
aS'and'
p4785
aS'the'
p4786
aS'other'
p4787
aS'man'
p4788
aS'will'
p4789
aS'have'
p4790
aS'to'
p4791
aS'ferry'
p4792
aS'and'
p4793
aS'he'
p4794
aS'will'
p4795
aS'be'
p4796
aS'free'
p4797
aS'.'
p4798
asg65
(lp4799
VAh
p4800
ag79
aVthe
p4801
aVfool
p4802
ag79
aVanswer
p4803
aVthe
p4804
aVdevil
p4805
ag79
aVwhen
p4806
aVanyone
p4807
aVcome
p4808
aVand
p4809
aVwant
p4810
aVto
p4811
aVgo
p4812
aVacross
p4813
aVhe
p4814
aVmust
p4815
aVput
p4816
aVthe
p4817
aVoar
p4818
aVin
p4819
aVhis
p4820
aVhand
p4821
ag79
aVand
p4822
aVthe
p4823
aVother
p4824
aVman
p4825
aVwill
p4826
aVhave
p4827
aVto
p4828
aVferry
p4829
aVand
p4830
aVhe
p4831
aVwill
p4832
aVbe
p4833
aVfree
p4834
ag106
asg107
(lp4835
g109
ag109
ag109
ag109
ag109
ag109
ag109
ag109
ag109
ag109
ag109
ag109
ag109
ag109
ag109
ag109
ag109
ag109
ag109
ag109
ag109
ag109
ag109
ag109
ag109
ag109
ag109
ag109
ag109
ag109
ag109
ag109
ag109
ag109
ag109
ag109
ag109
ag109
ag109
ag109
asg110
(lp4836
g836
ag120
ag115
ag117
ag120
ag113
ag115
ag117
ag120
ag241
ag117
ag242
ag121
ag240
ag119
ag127
ag243
ag123
ag126
ag127
ag115
ag117
ag122
ag125
ag117
ag120
ag121
ag115
ag116
ag117
ag126
ag127
ag119
ag127
ag121
ag123
ag126
ag127
ag116
ag130
asg131
VAh, the fool, answered the devil, when anyone comes and wants to go across he must put the oar in his hand, and the other man will have to ferry and he will be free.
p4837
sba(i__main__
Sentence
p4838
(dp4839
g17
I95
sg18
(lp4840
S'As'
p4841
aS'the'
p4842
aS'grandmother'
p4843
aS'had'
p4844
aS'plucked'
p4845
aS'out'
p4846
aS'the'
p4847
aS'three'
p4848
aS'golden'
p4849
aS'hairs'
p4850
aS','
p4851
aS'and'
p4852
aS'the'
p4853
aS'three'
p4854
aS'questions'
p4855
aS'were'
p4856
aS'answered'
p4857
aS','
p4858
aS'she'
p4859
aS'let'
p4860
aS'the'
p4861
aS'old'
p4862
aS'devil'
p4863
aS'alone'
p4864
aS','
p4865
aS'and'
p4866
aS'he'
p4867
aS'slept'
p4868
aS'until'
p4869
aS'daybreak'
p4870
aS'.'
p4871
asg65
(lp4872
VAs
p4873
aVthe
p4874
aVgrandmother
p4875
ag347
aVpluck
p4876
aVout
p4877
aVthe
p4878
aVthree
p4879
aVgolden
p4880
aVhair
p4881
ag79
aVand
p4882
aVthe
p4883
aVthree
p4884
aVquestion
p4885
ag823
aVanswer
p4886
ag79
aVshe
p4887
aVlet
p4888
aVthe
p4889
aVold
p4890
aVdevil
p4891
aValone
p4892
ag79
aVand
p4893
aVhe
p4894
ag2307
aVuntil
p4895
aVdaybreak
p4896
ag106
asg107
(lp4897
g109
ag109
ag109
ag109
ag109
ag109
ag109
ag109
ag109
ag109
ag109
ag109
ag109
ag109
ag109
ag109
ag109
ag109
ag109
ag109
ag109
ag109
ag109
ag109
ag109
ag109
ag109
ag109
ag109
ag109
ag109
asg110
(lp4898
g122
ag115
ag117
ag113
ag124
ag243
ag115
ag677
ag116
ag240
ag120
ag121
ag115
ag677
ag240
ag113
ag124
ag120
ag123
ag113
ag115
ag116
ag117
ag117
ag120
ag121
ag123
ag113
ag122
ag117
ag130
asg131
VAs the grandmother had plucked out the three golden hairs, and the three questions were answered, she let the old devil alone, and he slept until daybreak.
p4899
sba(i__main__
Sentence
p4900
(dp4901
g17
I96
sg18
(lp4902
S'When'
p4903
aS'the'
p4904
aS'devil'
p4905
aS'had'
p4906
aS'gone'
p4907
aS'out'
p4908
aS'again'
p4909
aS'the'
p4910
aS'old'
p4911
aS'woman'
p4912
aS'took'
p4913
aS'the'
p4914
aS'ant'
p4915
aS'out'
p4916
aS'of'
p4917
aS'the'
p4918
aS'folds'
p4919
aS'of'
p4920
aS'her'
p4921
aS'dress'
p4922
aS','
p4923
aS'and'
p4924
aS'gave'
p4925
aS'the'
p4926
aS'child'
p4927
aS'of'
p4928
aS'good'
p4929
aS'fortune'
p4930
aS'his'
p4931
aS'human'
p4932
aS'shape'
p4933
aS'again'
p4934
aS'.'
p4935
asg65
(lp4936
VWhen
p4937
aVthe
p4938
aVdevil
p4939
ag347
aVgo
p4940
aVout
p4941
aVagain
p4942
aVthe
p4943
aVold
p4944
aVwoman
p4945
ag810
aVthe
p4946
aVant
p4947
aVout
p4948
aVof
p4949
aVthe
p4950
aVfold
p4951
aVof
p4952
aVher
p4953
aVdress
p4954
ag79
aVand
p4955
ag74
aVthe
p4956
aVchild
p4957
aVof
p4958
aVgood
p4959
aVfortune
p4960
aVhis
p4961
aVhuman
p4962
aVshape
p4963
aVagain
p4964
ag106
asg107
(lp4965
g109
ag109
ag109
ag109
ag109
ag109
ag109
ag109
ag109
ag109
ag109
ag109
ag109
ag109
ag109
ag109
ag109
ag109
ag109
ag109
ag109
ag109
ag109
ag109
ag109
ag109
ag109
ag109
ag109
ag109
ag109
ag109
ag109
asg110
(lp4966
g241
ag115
ag117
ag113
ag124
ag243
ag114
ag115
ag116
ag117
ag113
ag115
ag117
ag122
ag122
ag115
ag240
ag122
ag125
ag117
ag120
ag121
ag113
ag115
ag117
ag122
ag116
ag117
ag125
ag117
ag117
ag114
ag130
asg131
VWhen the devil had gone out again the old woman took the ant out of the folds of her dress, and gave the child of good fortune his human shape again.
p4967
sba(i__main__
Sentence
p4968
(dp4969
g17
I97
sg18
(lp4970
S'There'
p4971
aS'are'
p4972
aS'the'
p4973
aS'three'
p4974
aS'golden'
p4975
aS'hairs'
p4976
aS'for'
p4977
aS'you'
p4978
aS','
p4979
aS'said'
p4980
aS'she'
p4981
aS'.'
p4982
asg65
(lp4983
VThere
p4984
ag1396
aVthe
p4985
aVthree
p4986
aVgolden
p4987
aVhair
p4988
aVfor
p4989
aVyou
p4990
ag79
ag363
aVshe
p4991
ag106
asg107
(lp4992
g109
ag109
ag109
ag109
ag109
ag109
ag109
ag109
ag109
ag109
ag109
ag109
asg110
(lp4993
g112
ag381
ag115
ag677
ag116
ag240
ag122
ag123
ag120
ag113
ag123
ag130
asg131
VThere are the three golden hairs for you, said she.
p4994
sba(i__main__
Sentence
p4995
(dp4996
g17
I98
sg18
(lp4997
S'What'
p4998
aS'the'
p4999
aS'devil'
p5000
aS'said'
p5001
aS'to'
p5002
aS'your'
p5003
aS'three'
p5004
aS'questions'
p5005
aS','
p5006
aS'I'
p5007
aS'suppose'
p5008
aS'you'
p5009
aS'heard'
p5010
aS'.'
p5011
asg65
(lp5012
VWhat
p5013
aVthe
p5014
aVdevil
p5015
ag363
aVto
p5016
aVyour
p5017
aVthree
p5018
aVquestion
p5019
ag79
ag373
aVsuppose
p5020
aVyou
p5021
aVhear
p5022
ag106
asg107
(lp5023
g109
ag109
ag109
ag109
ag109
ag109
ag109
ag109
ag109
ag109
ag109
ag109
ag109
ag109
asg110
(lp5024
g118
ag115
ag117
ag113
ag119
ag125
ag677
ag240
ag120
ag123
ag381
ag123
ag381
ag130
asg131
VWhat the devil said to your three questions, I suppose you heard.
p5025
sba(i__main__
Sentence
p5026
(dp5027
g17
I99
sg18
(lp5028
S'Yes'
p5029
aS','
p5030
aS'answered'
p5031
aS'he'
p5032
aS','
p5033
aS'I'
p5034
aS'heard'
p5035
aS','
p5036
aS'and'
p5037
aS'will'
p5038
aS'take'
p5039
aS'care'
p5040
aS'to'
p5041
aS'remember'
p5042
aS'.'
p5043
asg65
(lp5044
VYes
p5045
ag79
aVanswer
p5046
aVhe
p5047
ag79
ag373
ag5022
ag79
aVand
p5048
aVwill
p5049
aVtake
p5050
aVcare
p5051
aVto
p5052
aVremember
p5053
ag106
asg107
(lp5054
g109
ag109
ag109
ag109
ag109
ag109
ag109
ag109
ag109
ag109
ag109
ag109
ag109
ag109
ag109
asg110
(lp5055
g240
ag120
ag113
ag123
ag120
ag123
ag381
ag120
ag121
ag126
ag127
ag117
ag119
ag127
ag130
asg131
VYes, answered he, I heard, and will take care to remember.
p5056
sba(i__main__
Sentence
p5057
(dp5058
g17
I100
sg18
(lp5059
S'You'
p5060
aS'have'
p5061
aS'what'
p5062
aS'you'
p5063
aS'want'
p5064
aS','
p5065
aS'said'
p5066
aS'she'
p5067
aS','
p5068
aS'and'
p5069
aS'now'
p5070
aS'you'
p5071
aS'can'
p5072
aS'go'
p5073
aS'your'
p5074
aS'way'
p5075
aS'.'
p5076
asg65
(lp5077
VYou
p5078
aVhave
p5079
aVwhat
p5080
aVyou
p5081
aVwant
p5082
ag79
ag363
aVshe
p5083
ag79
aVand
p5084
aVnow
p5085
aVyou
p5086
aVcan
p5087
aVgo
p5088
aVyour
p5089
aVway
p5090
ag106
asg107
(lp5091
g109
ag109
ag109
ag109
ag109
ag109
ag109
ag109
ag109
ag109
ag109
ag109
ag109
ag109
ag109
ag109
ag109
asg110
(lp5092
g123
ag381
ag118
ag123
ag381
ag120
ag113
ag123
ag120
ag121
ag114
ag123
ag126
ag127
ag125
ag117
ag130
asg131
VYou have what you want, said she, and now you can go your way.
p5093
sba(i__main__
Sentence
p5094
(dp5095
g17
I101
sg18
(lp5096
S'He'
p5097
aS'thanked'
p5098
aS'the'
p5099
aS'old'
p5100
aS'woman'
p5101
aS'for'
p5102
aS'helping'
p5103
aS'him'
p5104
aS'in'
p5105
aS'his'
p5106
aS'need'
p5107
aS','
p5108
aS'and'
p5109
aS'left'
p5110
aS'hell'
p5111
aS'well'
p5112
aS'content'
p5113
aS'that'
p5114
aS'everything'
p5115
aS'had'
p5116
aS'turned'
p5117
aS'out'
p5118
aS'so'
p5119
aS'fortunately'
p5120
aS'.'
p5121
asg65
(lp5122
VHe
p5123
aVthank
p5124
aVthe
p5125
aVold
p5126
aVwoman
p5127
aVfor
p5128
aVhelp
p5129
aVhim
p5130
aVin
p5131
aVhis
p5132
aVneed
p5133
ag79
aVand
p5134
aVleave
p5135
aVhell
p5136
aVwell
p5137
aVcontent
p5138
aVthat
p5139
aVeverything
p5140
ag347
aVturn
p5141
aVout
p5142
aVso
p5143
aVfortunately
p5144
ag106
asg107
(lp5145
g109
ag109
ag109
ag109
ag109
ag109
ag109
ag109
ag109
ag109
ag109
ag109
ag109
ag109
ag109
ag109
ag109
ag109
ag109
ag109
ag109
ag109
ag109
ag109
ag109
asg110
(lp5146
g123
ag113
ag115
ag116
ag117
ag122
ag128
ag123
ag122
ag125
ag117
ag120
ag121
ag113
ag117
ag114
ag116
ag122
ag117
ag113
ag124
ag243
ag114
ag114
ag130
asg131
VHe thanked the old woman for helping him in his need, and left hell well content that everything had turned out so fortunately.
p5147
sba(i__main__
Sentence
p5148
(dp5149
g17
I102
sg18
(lp5150
S'When'
p5151
aS'he'
p5152
aS'came'
p5153
aS'to'
p5154
aS'the'
p5155
aS'ferryman'
p5156
aS'he'
p5157
aS'was'
p5158
aS'expected'
p5159
aS'to'
p5160
aS'give'
p5161
aS'the'
p5162
aS'promised'
p5163
aS'answer'
p5164
aS'.'
p5165
asg65
(lp5166
VWhen
p5167
aVhe
p5168
ag82
aVto
p5169
aVthe
p5170
aVferryman
p5171
aVhe
p5172
ag68
aVexpect
p5173
aVto
p5174
aVgive
p5175
aVthe
p5176
aVpromise
p5177
aVanswer
p5178
ag106
asg107
(lp5179
g109
ag109
ag109
ag109
ag109
ag109
ag109
ag109
ag109
ag109
ag109
ag109
ag109
ag109
ag109
asg110
(lp5180
g241
ag123
ag113
ag119
ag115
ag117
ag123
ag113
ag124
ag119
ag127
ag115
ag124
ag117
ag130
asg131
VWhen he came to the ferryman he was expected to give the promised answer.
p5181
sba(i__main__
Sentence
p5182
(dp5183
g17
I103
sg18
(lp5184
S'Ferry'
p5185
aS'me'
p5186
aS'across'
p5187
aS'first'
p5188
aS','
p5189
aS'said'
p5190
aS'the'
p5191
aS'child'
p5192
aS'of'
p5193
aS'good'
p5194
aS'fortune'
p5195
aS','
p5196
aS'and'
p5197
aS'then'
p5198
aS'I'
p5199
aS'will'
p5200
aS'tell'
p5201
aS'you'
p5202
aS'how'
p5203
aS'you'
p5204
aS'can'
p5205
aS'be'
p5206
aS'set'
p5207
aS'free'
p5208
aS','
p5209
aS'and'
p5210
aS'when'
p5211
aS'he'
p5212
aS'reached'
p5213
aS'the'
p5214
aS'opposite'
p5215
aS'shore'
p5216
aS'he'
p5217
aS'gave'
p5218
aS'him'
p5219
aS'the'
p5220
aS'devil'
p5221
aS"'s"
p5222
aS'advice'
p5223
aS'.'
p5224
asg65
(lp5225
VFerry
p5226
aVme
p5227
aVacross
p5228
aVfirst
p5229
ag79
ag363
aVthe
p5230
aVchild
p5231
aVof
p5232
aVgood
p5233
aVfortune
p5234
ag79
aVand
p5235
aVthen
p5236
ag373
aVwill
p5237
aVtell
p5238
aVyou
p5239
aVhow
p5240
aVyou
p5241
aVcan
p5242
aVbe
p5243
aVset
p5244
aVfree
p5245
ag79
aVand
p5246
aVwhen
p5247
aVhe
p5248
aVreach
p5249
aVthe
p5250
aVopposite
p5251
aVshore
p5252
aVhe
p5253
ag74
aVhim
p5254
aVthe
p5255
aVdevil
p5256
aV's
p5257
aVadvice
p5258
ag106
asg107
(lp5259
g109
ag109
ag109
ag109
ag109
ag109
ag109
ag109
ag109
ag109
ag109
ag109
ag109
ag109
ag109
ag109
ag109
ag109
ag109
ag109
ag109
ag109
ag109
ag109
ag109
ag109
ag109
ag109
ag109
ag109
ag109
ag109
ag109
ag109
ag109
ag109
ag109
ag109
ag109
ag109
asg110
(lp5260
g836
ag123
ag122
ag116
ag120
ag113
ag115
ag117
ag122
ag116
ag117
ag120
ag121
ag114
ag123
ag126
ag127
ag123
ag241
ag123
ag126
ag127
ag124
ag116
ag120
ag121
ag241
ag123
ag113
ag115
ag116
ag117
ag123
ag113
ag123
ag115
ag117
ag129
ag117
ag130
asg131
VFerry me across first, said the child of good fortune, and then I will tell you how you can be set free, and when he reached the opposite shore he gave him the devil's advice.
p5261
sba(i__main__
Sentence
p5262
(dp5263
g17
I104
sg18
(lp5264
S'Next'
p5265
aS'time'
p5266
aS'anyone'
p5267
aS'comes'
p5268
aS','
p5269
aS'who'
p5270
aS'wants'
p5271
aS'to'
p5272
aS'be'
p5273
aS'ferried'
p5274
aS'over'
p5275
aS','
p5276
aS'just'
p5277
aS'put'
p5278
aS'the'
p5279
aS'oar'
p5280
aS'in'
p5281
aS'his'
p5282
aS'hand'
p5283
aS'.'
p5284
asg65
(lp5285
VNext
p5286
aVtime
p5287
aVanyone
p5288
aVcome
p5289
ag79
aVwho
p5290
aVwant
p5291
aVto
p5292
aVbe
p5293
aVferry
p5294
aVover
p5295
ag79
aVjust
p5296
aVput
p5297
aVthe
p5298
aVoar
p5299
aVin
p5300
aVhis
p5301
aVhand
p5302
ag106
asg107
(lp5303
g109
ag109
ag109
ag109
ag109
ag109
ag109
ag109
ag109
ag109
ag109
ag109
ag109
ag109
ag109
ag109
ag109
ag109
ag109
ag109
asg110
(lp5304
g116
ag117
ag117
ag242
ag120
ag118
ag240
ag119
ag127
ag124
ag243
ag120
ag114
ag113
ag115
ag117
ag122
ag125
ag117
ag130
asg131
VNext time anyone comes, who wants to be ferried over, just put the oar in his hand.
p5305
sba(i__main__
Sentence
p5306
(dp5307
g17
I105
sg18
(lp5308
S'He'
p5309
aS'went'
p5310
aS'on'
p5311
aS'and'
p5312
aS'came'
p5313
aS'to'
p5314
aS'the'
p5315
aS'town'
p5316
aS'wherein'
p5317
aS'stood'
p5318
aS'the'
p5319
aS'unfruitful'
p5320
aS'tree'
p5321
aS','
p5322
aS'and'
p5323
aS'there'
p5324
aS'too'
p5325
aS'the'
p5326
aS'watchman'
p5327
aS'wanted'
p5328
aS'an'
p5329
aS'answer'
p5330
aS'.'
p5331
asg65
(lp5332
VHe
p5333
ag355
aVon
p5334
aVand
p5335
ag82
aVto
p5336
aVthe
p5337
aVtown
p5338
aVwherein
p5339
aVstand
p5340
aVthe
p5341
aVunfruitful
p5342
aVtree
p5343
ag79
aVand
p5344
aVthere
p5345
aVtoo
p5346
aVthe
p5347
aVwatchman
p5348
aVwant
p5349
aVan
p5350
aVanswer
p5351
ag106
asg107
(lp5352
g109
ag109
ag109
ag109
ag109
ag109
ag109
ag109
ag109
ag109
ag109
ag109
ag109
ag109
ag109
ag109
ag109
ag109
ag109
ag109
ag109
ag109
ag109
asg110
(lp5353
g123
ag113
ag122
ag121
ag113
ag119
ag115
ag117
ag117
ag113
ag115
ag116
ag117
ag120
ag121
ag112
ag114
ag115
ag117
ag113
ag115
ag117
ag130
asg131
VHe went on and came to the town wherein stood the unfruitful tree, and there too the watchman wanted an answer.
p5354
sba(i__main__
Sentence
p5355
(dp5356
g17
I106
sg18
(lp5357
S'So'
p5358
aS'he'
p5359
aS'told'
p5360
aS'him'
p5361
aS'what'
p5362
aS'he'
p5363
aS'had'
p5364
aS'heard'
p5365
aS'from'
p5366
aS'the'
p5367
aS'devil'
p5368
aS'.'
p5369
asg65
(lp5370
VSo
p5371
aVhe
p5372
ag1143
aVhim
p5373
aVwhat
p5374
aVhe
p5375
ag347
ag5022
aVfrom
p5376
aVthe
p5377
aVdevil
p5378
ag106
asg107
(lp5379
g109
ag109
ag109
ag109
ag109
ag109
ag109
ag109
ag109
ag109
ag109
ag109
asg110
(lp5380
g122
ag123
ag113
ag123
ag118
ag123
ag113
ag124
ag122
ag115
ag117
ag130
asg131
VSo he told him what he had heard from the devil.
p5381
sba(i__main__
Sentence
p5382
(dp5383
g17
I107
sg18
(lp5384
S'Kill'
p5385
aS'the'
p5386
aS'mouse'
p5387
aS'which'
p5388
aS'is'
p5389
aS'gnawing'
p5390
aS'at'
p5391
aS'its'
p5392
aS'root'
p5393
aS','
p5394
aS'and'
p5395
aS'it'
p5396
aS'will'
p5397
aS'again'
p5398
aS'bear'
p5399
aS'golden'
p5400
aS'apples'
p5401
aS'.'
p5402
asg65
(lp5403
VKill
p5404
aVthe
p5405
aVmouse
p5406
aVwhich
p5407
ag272
aVgnaw
p5408
aVat
p5409
aVit
p5410
aVroot
p5411
ag79
aVand
p5412
aVit
p5413
aVwill
p5414
aVagain
p5415
aVbear
p5416
aVgolden
p5417
aVapple
p5418
ag106
asg107
(lp5419
g109
ag109
ag109
ag109
ag109
ag109
ag109
ag109
ag109
ag109
ag109
ag109
ag109
ag109
ag109
ag109
ag109
ag109
asg110
(lp5420
g836
ag115
ag117
ag1084
ag242
ag128
ag122
ag125
ag117
ag120
ag121
ag123
ag126
ag127
ag116
ag117
ag240
ag130
asg131
VKill the mouse which is gnawing at its root, and it will again bear golden apples.
p5421
sba(i__main__
Sentence
p5422
(dp5423
g17
I108
sg18
(lp5424
S'Then'
p5425
aS'the'
p5426
aS'watchman'
p5427
aS'thanked'
p5428
aS'him'
p5429
aS','
p5430
aS'and'
p5431
aS'gave'
p5432
aS'him'
p5433
aS'as'
p5434
aS'a'
p5435
aS'reward'
p5436
aS'two'
p5437
aS'asses'
p5438
aS'laden'
p5439
aS'with'
p5440
aS'gold'
p5441
aS','
p5442
aS'which'
p5443
aS'followed'
p5444
aS'him'
p5445
aS'.'
p5446
asg65
(lp5447
VThen
p5448
aVthe
p5449
aVwatchman
p5450
aVthank
p5451
aVhim
p5452
ag79
aVand
p5453
ag74
aVhim
p5454
ag70
ag70
aVreward
p5455
aVtwo
p5456
aVass
p5457
aVlade
p5458
aVwith
p5459
aVgold
p5460
ag79
aVwhich
p5461
aVfollow
p5462
aVhim
p5463
ag106
asg107
(lp5464
g109
ag109
ag109
ag109
ag109
ag109
ag109
ag109
ag109
ag109
ag109
ag109
ag109
ag109
ag109
ag109
ag109
ag109
ag109
ag109
ag109
ag109
asg110
(lp5465
g114
ag115
ag117
ag113
ag123
ag120
ag121
ag113
ag123
ag122
ag115
ag117
ag677
ag240
ag124
ag122
ag117
ag120
ag1084
ag124
ag123
ag130
asg131
VThen the watchman thanked him, and gave him as a reward two asses laden with gold, which followed him.
p5466
sba(i__main__
Sentence
p5467
(dp5468
g17
I109
sg18
(lp5469
S'Finally'
p5470
aS','
p5471
aS'he'
p5472
aS'came'
p5473
aS'to'
p5474
aS'the'
p5475
aS'town'
p5476
aS'whose'
p5477
aS'well'
p5478
aS'was'
p5479
aS'dry'
p5480
aS'.'
p5481
asg65
(lp5482
VFinally
p5483
ag79
aVhe
p5484
ag82
aVto
p5485
aVthe
p5486
aVtown
p5487
aVwhose
p5488
aVwell
p5489
ag68
aVdry
p5490
ag106
asg107
(lp5491
g109
ag109
ag109
ag109
ag109
ag109
ag109
ag109
ag109
ag109
ag109
ag109
asg110
(lp5492
g114
ag120
ag123
ag113
ag119
ag115
ag117
aS'WP$'
p5493
ag114
ag113
ag116
ag130
asg131
VFinally, he came to the town whose well was dry.
p5494
sba(i__main__
Sentence
p5495
(dp5496
g17
I110
sg18
(lp5497
S'He'
p5498
aS'told'
p5499
aS'the'
p5500
aS'watchman'
p5501
aS'what'
p5502
aS'the'
p5503
aS'devil'
p5504
aS'had'
p5505
aS'said'
p5506
aS','
p5507
aS'a'
p5508
aS'toad'
p5509
aS'is'
p5510
aS'in'
p5511
aS'the'
p5512
aS'well'
p5513
aS'beneath'
p5514
aS'a'
p5515
aS'stone'
p5516
aS','
p5517
aS'you'
p5518
aS'must'
p5519
aS'find'
p5520
aS'it'
p5521
aS'and'
p5522
aS'kill'
p5523
aS'it'
p5524
aS','
p5525
aS'and'
p5526
aS'the'
p5527
aS'well'
p5528
aS'will'
p5529
aS'again'
p5530
aS'give'
p5531
aS'wine'
p5532
aS'in'
p5533
aS'plenty'
p5534
aS'.'
p5535
asg65
(lp5536
VHe
p5537
ag1143
aVthe
p5538
aVwatchman
p5539
aVwhat
p5540
aVthe
p5541
aVdevil
p5542
ag347
ag363
ag79
ag70
aVtoad
p5543
ag272
aVin
p5544
aVthe
p5545
aVwell
p5546
aVbeneath
p5547
ag70
aVstone
p5548
ag79
aVyou
p5549
aVmust
p5550
aVfind
p5551
aVit
p5552
aVand
p5553
aVkill
p5554
aVit
p5555
ag79
aVand
p5556
aVthe
p5557
aVwell
p5558
aVwill
p5559
aVagain
p5560
aVgive
p5561
aVwine
p5562
aVin
p5563
aVplenty
p5564
ag106
asg107
(lp5565
g109
ag109
ag109
ag109
ag109
ag109
ag109
ag109
ag109
ag109
ag109
ag109
ag109
ag109
ag109
ag109
ag109
ag109
ag109
ag109
ag109
ag109
ag109
ag109
ag109
ag109
ag109
ag109
ag109
ag109
ag109
ag109
ag109
ag109
ag109
ag109
ag109
ag109
asg110
(lp5566
g123
ag113
ag115
ag117
ag118
ag115
ag117
ag113
ag124
ag120
ag115
ag117
ag242
ag122
ag115
ag117
ag117
ag115
ag117
ag120
ag123
ag126
ag127
ag123
ag121
ag127
ag123
ag120
ag121
ag115
ag117
ag126
ag127
ag116
ag117
ag122
ag117
ag130
asg131
VHe told the watchman what the devil had said, a toad is in the well beneath a stone, you must find it and kill it, and the well will again give wine in plenty.
p5567
sba(i__main__
Sentence
p5568
(dp5569
g17
I111
sg18
(lp5570
S'The'
p5571
aS'watchman'
p5572
aS'thanked'
p5573
aS'him'
p5574
aS','
p5575
aS'and'
p5576
aS'also'
p5577
aS'gave'
p5578
aS'him'
p5579
aS'two'
p5580
aS'asses'
p5581
aS'laden'
p5582
aS'with'
p5583
aS'gold'
p5584
aS'.'
p5585
asg65
(lp5586
VThe
p5587
aVwatchman
p5588
aVthank
p5589
aVhim
p5590
ag79
aVand
p5591
aValso
p5592
ag74
aVhim
p5593
aVtwo
p5594
aVass
p5595
ag5458
aVwith
p5596
aVgold
p5597
ag106
asg107
(lp5598
g109
ag109
ag109
ag109
ag109
ag109
ag109
ag109
ag109
ag109
ag109
ag109
ag109
ag109
ag109
asg110
(lp5599
g115
ag117
ag113
ag123
ag120
ag121
ag114
ag113
ag123
ag677
ag240
ag124
ag122
ag117
ag130
asg131
VThe watchman thanked him, and also gave him two asses laden with gold.
p5600
sba(i__main__
Sentence
p5601
(dp5602
g17
I112
sg18
(lp5603
S'At'
p5604
aS'last'
p5605
aS'the'
p5606
aS'child'
p5607
aS'of'
p5608
aS'good'
p5609
aS'fortune'
p5610
aS'got'
p5611
aS'home'
p5612
aS'to'
p5613
aS'his'
p5614
aS'wife'
p5615
aS','
p5616
aS'who'
p5617
aS'was'
p5618
aS'heartily'
p5619
aS'glad'
p5620
aS'to'
p5621
aS'see'
p5622
aS'him'
p5623
aS'again'
p5624
aS','
p5625
aS'and'
p5626
aS'to'
p5627
aS'hear'
p5628
aS'how'
p5629
aS'well'
p5630
aS'he'
p5631
aS'had'
p5632
aS'prospered'
p5633
aS'in'
p5634
aS'everything'
p5635
aS'.'
p5636
asg65
(lp5637
VAt
p5638
aVlast
p5639
aVthe
p5640
aVchild
p5641
aVof
p5642
aVgood
p5643
aVfortune
p5644
ag3761
aVhome
p5645
aVto
p5646
aVhis
p5647
aVwife
p5648
ag79
aVwho
p5649
ag68
aVheartily
p5650
aVglad
p5651
aVto
p5652
aVsee
p5653
aVhim
p5654
aVagain
p5655
ag79
aVand
p5656
aVto
p5657
aVhear
p5658
aVhow
p5659
aVwell
p5660
aVhe
p5661
ag347
aVprosper
p5662
aVin
p5663
aVeverything
p5664
ag106
asg107
(lp5665
g109
ag109
ag109
ag109
ag109
ag109
ag109
ag109
ag109
ag109
ag109
ag109
ag109
ag109
ag109
ag109
ag109
ag109
ag109
ag109
ag109
ag109
ag109
ag109
ag109
ag109
ag109
ag109
ag109
ag109
ag109
ag109
ag109
asg110
(lp5666
g122
ag116
ag115
ag117
ag122
ag116
ag117
ag113
ag117
ag119
ag125
ag117
ag120
ag118
ag113
ag114
ag124
ag119
ag127
ag123
ag114
ag120
ag121
ag119
ag127
ag241
ag114
ag123
ag113
ag124
ag122
ag117
ag130
asg131
VAt last the child of good fortune got home to his wife, who was heartily glad to see him again, and to hear how well he had prospered in everything.
p5667
sba(i__main__
Sentence
p5668
(dp5669
g17
I113
sg18
(lp5670
S'To'
p5671
aS'the'
p5672
aS'king'
p5673
aS'he'
p5674
aS'took'
p5675
aS'what'
p5676
aS'he'
p5677
aS'had'
p5678
aS'asked'
p5679
aS'for'
p5680
aS','
p5681
aS'the'
p5682
aS'devil'
p5683
aS"'s"
p5684
aS'three'
p5685
aS'golden'
p5686
aS'hairs'
p5687
aS','
p5688
aS'and'
p5689
aS'when'
p5690
aS'the'
p5691
aS'king'
p5692
aS'saw'
p5693
aS'the'
p5694
aS'four'
p5695
aS'asses'
p5696
aS'laden'
p5697
aS'with'
p5698
aS'gold'
p5699
aS'he'
p5700
aS'was'
p5701
aS'quite'
p5702
aS'content'
p5703
aS','
p5704
aS'and'
p5705
aS'said'
p5706
aS','
p5707
aS'now'
p5708
aS'all'
p5709
aS'the'
p5710
aS'conditions'
p5711
aS'are'
p5712
aS'fulfilled'
p5713
aS','
p5714
aS'and'
p5715
aS'you'
p5716
aS'can'
p5717
aS'keep'
p5718
aS'my'
p5719
aS'daughter'
p5720
aS'.'
p5721
asg65
(lp5722
VTo
p5723
aVthe
p5724
aVking
p5725
aVhe
p5726
ag810
aVwhat
p5727
aVhe
p5728
ag347
aVask
p5729
aVfor
p5730
ag79
aVthe
p5731
aVdevil
p5732
aV's
p5733
aVthree
p5734
aVgolden
p5735
aVhair
p5736
ag79
aVand
p5737
aVwhen
p5738
aVthe
p5739
aVking
p5740
aVsaw
p5741
aVthe
p5742
aVfour
p5743
aVass
p5744
ag5458
aVwith
p5745
aVgold
p5746
aVhe
p5747
ag68
aVquite
p5748
aVcontent
p5749
ag79
aVand
p5750
ag363
ag79
aVnow
p5751
aVall
p5752
aVthe
p5753
aVcondition
p5754
ag1396
ag2080
ag79
aVand
p5755
aVyou
p5756
aVcan
p5757
aVkeep
p5758
aVmy
p5759
aVdaughter
p5760
ag106
asg107
(lp5761
g109
ag109
ag109
ag109
ag109
ag109
ag109
ag109
ag109
ag109
ag109
ag109
ag109
ag109
ag109
ag109
ag109
ag109
ag109
ag109
ag109
ag109
ag109
ag109
ag109
ag109
ag109
ag109
ag109
ag109
ag109
ag109
ag109
ag109
ag109
ag109
ag109
ag109
ag109
ag109
ag109
ag109
ag109
ag109
ag109
ag109
ag109
ag109
ag109
ag109
ag109
asg110
(lp5762
g119
ag115
ag117
ag123
ag113
ag118
ag123
ag113
ag124
ag122
ag120
ag115
ag117
ag129
ag677
ag117
ag240
ag120
ag121
ag241
ag115
ag117
ag113
ag115
ag677
ag240
ag124
ag122
ag117
ag123
ag113
ag114
ag116
ag120
ag121
ag113
ag120
ag114
ag115
ag115
ag240
ag381
ag124
ag120
ag121
ag123
ag126
ag127
ag125
ag117
ag130
asg131
VTo the king he took what he had asked for, the devil's three golden hairs, and when the king saw the four asses laden with gold he was quite content, and said, now all the conditions are fulfilled, and you can keep my daughter.
p5763
sba(i__main__
Sentence
p5764
(dp5765
g17
I114
sg18
(lp5766
S'But'
p5767
aS'tell'
p5768
aS'me'
p5769
aS','
p5770
aS'dear'
p5771
aS'son-in-law'
p5772
aS','
p5773
aS'where'
p5774
aS'did'
p5775
aS'all'
p5776
aS'that'
p5777
aS'gold'
p5778
aS'come'
p5779
aS'from'
p5780
aS'-'
p5781
aS'this'
p5782
aS'is'
p5783
aS'tremendous'
p5784
aS'wealth'
p5785
aS'.'
p5786
asg65
(lp5787
VBut
p5788
aVtell
p5789
aVme
p5790
ag79
aVdear
p5791
aVson-in-law
p5792
ag79
aVwhere
p5793
ag598
aVall
p5794
aVthat
p5795
aVgold
p5796
aVcome
p5797
aVfrom
p5798
ag3452
aVthis
p5799
ag272
aVtremendous
p5800
aVwealth
p5801
ag106
asg107
(lp5802
g109
ag109
ag109
ag109
ag109
ag109
ag109
ag109
ag109
ag109
ag109
ag109
ag109
ag109
ag109
ag109
ag109
ag109
ag109
ag109
asg110
(lp5803
g121
ag113
ag123
ag120
ag116
ag117
ag120
ag241
ag113
ag115
ag115
ag117
ag117
ag122
ag3496
ag115
ag242
ag116
ag117
ag130
asg131
VBut tell me, dear son-in-law, where did all that gold come from - this is tremendous wealth.
p5804
sba(i__main__
Sentence
p5805
(dp5806
g17
I115
sg18
(lp5807
S'I'
p5808
aS'was'
p5809
aS'rowed'
p5810
aS'across'
p5811
aS'a'
p5812
aS'river'
p5813
aS','
p5814
aS'answered'
p5815
aS'he'
p5816
aS','
p5817
aS'and'
p5818
aS'got'
p5819
aS'it'
p5820
aS'there'
p5821
aS','
p5822
aS'it'
p5823
aS'lies'
p5824
aS'on'
p5825
aS'the'
p5826
aS'shore'
p5827
aS'instead'
p5828
aS'of'
p5829
aS'sand'
p5830
aS'.'
p5831
asg65
(lp5832
g373
ag68
aVrow
p5833
aVacross
p5834
ag70
aVriver
p5835
ag79
aVanswer
p5836
aVhe
p5837
ag79
aVand
p5838
ag3761
aVit
p5839
aVthere
p5840
ag79
aVit
p5841
aVlie
p5842
aVon
p5843
aVthe
p5844
aVshore
p5845
aVinstead
p5846
aVof
p5847
aVsand
p5848
ag106
asg107
(lp5849
g109
ag109
ag109
ag109
ag109
ag109
ag109
ag109
ag109
ag109
ag109
ag109
ag109
ag109
ag109
ag109
ag109
ag109
ag109
ag109
ag109
ag109
ag109
ag109
asg110
(lp5850
g123
ag113
ag124
ag122
ag115
ag117
ag120
ag113
ag123
ag120
ag121
ag113
ag123
ag114
ag120
ag123
ag242
ag122
ag115
ag117
ag114
ag122
ag117
ag130
asg131
VI was rowed across a river, answered he, and got it there, it lies on the shore instead of sand.
p5851
sba(i__main__
Sentence
p5852
(dp5853
g17
I116
sg18
(lp5854
S'Can'
p5855
aS'I'
p5856
aS'too'
p5857
aS'fetch'
p5858
aS'some'
p5859
aS'of'
p5860
aS'it'
p5861
aS','
p5862
aS'said'
p5863
aS'the'
p5864
aS'king'
p5865
aS','
p5866
aS'and'
p5867
aS'he'
p5868
aS'was'
p5869
aS'quite'
p5870
aS'eager'
p5871
aS'about'
p5872
aS'it'
p5873
aS'.'
p5874
asg65
(lp5875
VCan
p5876
ag373
aVtoo
p5877
aVfetch
p5878
aVsome
p5879
aVof
p5880
aVit
p5881
ag79
ag363
aVthe
p5882
aVking
p5883
ag79
aVand
p5884
aVhe
p5885
ag68
aVquite
p5886
aVeager
p5887
aVabout
p5888
aVit
p5889
ag106
asg107
(lp5890
g109
ag109
ag109
ag109
ag109
ag109
ag109
ag109
ag109
ag109
ag109
ag109
ag109
ag109
ag109
ag109
ag109
ag109
ag109
ag109
asg110
(lp5891
g836
ag123
ag114
ag116
ag115
ag122
ag123
ag120
ag113
ag115
ag117
ag120
ag121
ag123
ag113
ag114
ag116
ag122
ag123
ag130
asg131
VCan I too fetch some of it, said the king, and he was quite eager about it.
p5892
sba(i__main__
Sentence
p5893
(dp5894
g17
I117
sg18
(lp5895
S'As'
p5896
aS'much'
p5897
aS'as'
p5898
aS'you'
p5899
aS'like'
p5900
aS','
p5901
aS'answered'
p5902
aS'he'
p5903
aS'.'
p5904
asg65
(lp5905
VAs
p5906
aVmuch
p5907
ag70
aVyou
p5908
aVlike
p5909
ag79
aVanswer
p5910
aVhe
p5911
ag106
asg107
(lp5912
g109
ag109
ag109
ag109
ag109
ag109
ag109
ag109
ag109
asg110
(lp5913
g122
ag116
ag122
ag123
ag122
ag120
ag124
ag123
ag130
asg131
VAs much as you like, answered he.
p5914
sba(i__main__
Sentence
p5915
(dp5916
g17
I118
sg18
(lp5917
S'There'
p5918
aS'is'
p5919
aS'a'
p5920
aS'ferryman'
p5921
aS'on'
p5922
aS'the'
p5923
aS'river'
p5924
aS','
p5925
aS'let'
p5926
aS'him'
p5927
aS'ferry'
p5928
aS'you'
p5929
aS'over'
p5930
aS','
p5931
aS'and'
p5932
aS'you'
p5933
aS'can'
p5934
aS'fill'
p5935
aS'your'
p5936
aS'sacks'
p5937
aS'on'
p5938
aS'the'
p5939
aS'other'
p5940
aS'side'
p5941
aS'.'
p5942
asg65
(lp5943
VThere
p5944
ag272
ag70
aVferryman
p5945
aVon
p5946
aVthe
p5947
aVriver
p5948
ag79
aVlet
p5949
aVhim
p5950
aVferry
p5951
aVyou
p5952
aVover
p5953
ag79
aVand
p5954
aVyou
p5955
aVcan
p5956
aVfill
p5957
aVyour
p5958
aVsack
p5959
aVon
p5960
aVthe
p5961
aVother
p5962
aVside
p5963
ag106
asg107
(lp5964
g109
ag109
ag109
ag109
ag109
ag109
ag109
ag109
ag109
ag109
ag109
ag109
ag109
ag109
ag109
ag109
ag109
ag109
ag109
ag109
ag109
ag109
ag109
ag109
ag109
asg110
(lp5965
g112
ag242
ag115
ag117
ag122
ag115
ag117
ag120
ag127
ag123
ag127
ag123
ag122
ag120
ag121
ag123
ag126
ag127
ag125
ag240
ag122
ag115
ag116
ag117
ag130
asg131
VThere is a ferryman on the river, let him ferry you over, and you can fill your sacks on the other side.
p5966
sba(i__main__
Sentence
p5967
(dp5968
g17
I119
sg18
(lp5969
S'The'
p5970
aS'greedy'
p5971
aS'king'
p5972
aS'set'
p5973
aS'out'
p5974
aS'in'
p5975
aS'all'
p5976
aS'haste'
p5977
aS','
p5978
aS'and'
p5979
aS'when'
p5980
aS'he'
p5981
aS'came'
p5982
aS'to'
p5983
aS'the'
p5984
aS'river'
p5985
aS'he'
p5986
aS'beckoned'
p5987
aS'to'
p5988
aS'the'
p5989
aS'ferryman'
p5990
aS'to'
p5991
aS'put'
p5992
aS'him'
p5993
aS'across'
p5994
aS'.'
p5995
asg65
(lp5996
VThe
p5997
aVgreedy
p5998
aVking
p5999
aVset
p6000
aVout
p6001
aVin
p6002
aVall
p6003
aVhaste
p6004
ag79
aVand
p6005
aVwhen
p6006
aVhe
p6007
ag82
aVto
p6008
aVthe
p6009
aVriver
p6010
aVhe
p6011
aVbeckon
p6012
aVto
p6013
aVthe
p6014
aVferryman
p6015
aVto
p6016
aVput
p6017
aVhim
p6018
aVacross
p6019
ag106
asg107
(lp6020
g109
ag109
ag109
ag109
ag109
ag109
ag109
ag109
ag109
ag109
ag109
ag109
ag109
ag109
ag109
ag109
ag109
ag109
ag109
ag109
ag109
ag109
ag109
ag109
ag109
ag109
asg110
(lp6021
g115
ag117
ag128
ag117
ag243
ag122
ag115
ag117
ag120
ag121
ag241
ag123
ag113
ag119
ag115
ag117
ag123
ag113
ag119
ag115
ag117
ag119
ag127
ag123
ag122
ag130
asg131
VThe greedy king set out in all haste, and when he came to the river he beckoned to the ferryman to put him across.
p6022
sba(i__main__
Sentence
p6023
(dp6024
g17
I120
sg18
(lp6025
S'The'
p6026
aS'ferryman'
p6027
aS'came'
p6028
aS'and'
p6029
aS'bade'
p6030
aS'him'
p6031
aS'get'
p6032
aS'in'
p6033
aS','
p6034
aS'and'
p6035
aS'when'
p6036
aS'they'
p6037
aS'got'
p6038
aS'to'
p6039
aS'the'
p6040
aS'other'
p6041
aS'shore'
p6042
aS'he'
p6043
aS'put'
p6044
aS'the'
p6045
aS'oar'
p6046
aS'in'
p6047
aS'his'
p6048
aS'hand'
p6049
aS'and'
p6050
aS'sprang'
p6051
aS'over'
p6052
aS'.'
p6053
asg65
(lp6054
VThe
p6055
aVferryman
p6056
ag82
aVand
p6057
aVbade
p6058
aVhim
p6059
aVget
p6060
aVin
p6061
ag79
aVand
p6062
aVwhen
p6063
aVthey
p6064
ag3761
aVto
p6065
aVthe
p6066
aVother
p6067
aVshore
p6068
aVhe
p6069
aVput
p6070
aVthe
p6071
aVoar
p6072
aVin
p6073
aVhis
p6074
aVhand
p6075
aVand
p6076
aVsprang
p6077
aVover
p6078
ag106
asg107
(lp6079
g109
ag109
ag109
ag109
ag109
ag109
ag109
ag109
ag109
ag109
ag109
ag109
ag109
ag109
ag109
ag109
ag109
ag109
ag109
ag109
ag109
ag109
ag109
ag109
ag109
ag109
ag109
ag109
asg110
(lp6080
g115
ag117
ag113
ag121
ag117
ag123
ag381
ag122
ag120
ag121
ag241
ag123
ag113
ag119
ag115
ag116
ag117
ag123
ag113
ag115
ag117
ag122
ag125
ag117
ag121
ag117
ag122
ag130
asg131
VThe ferryman came and bade him get in, and when they got to the other shore he put the oar in his hand and sprang over.
p6081
sba(i__main__
Sentence
p6082
(dp6083
g17
I121
sg18
(lp6084
S'But'
p6085
aS'from'
p6086
aS'this'
p6087
aS'time'
p6088
aS'forth'
p6089
aS'the'
p6090
aS'king'
p6091
aS'had'
p6092
aS'to'
p6093
aS'ferry'
p6094
aS','
p6095
aS'as'
p6096
aS'a'
p6097
aS'punishment'
p6098
aS'for'
p6099
aS'his'
p6100
aS'sins'
p6101
aS'.'
p6102
asg65
(lp6103
VBut
p6104
aVfrom
p6105
aVthis
p6106
aVtime
p6107
aVforth
p6108
aVthe
p6109
aVking
p6110
ag347
aVto
p6111
aVferry
p6112
ag79
ag70
ag70
aVpunishment
p6113
aVfor
p6114
aVhis
p6115
aVsin
p6116
ag106
asg107
(lp6117
g109
ag109
ag109
ag109
ag109
ag109
ag109
ag109
ag109
ag109
ag109
ag109
ag109
ag109
ag109
ag109
ag109
ag109
asg110
(lp6118
g121
ag122
ag115
ag117
ag117
ag115
ag117
ag113
ag119
ag127
ag120
ag122
ag115
ag117
ag122
ag125
ag240
ag130
asg131
VBut from this time forth the king had to ferry, as a punishment for his sins.
p6119
sba(i__main__
Sentence
p6120
(dp6121
g17
I122
sg18
(lp6122
S'Perhaps'
p6123
aS'he'
p6124
aS'is'
p6125
aS'ferrying'
p6126
aS'still'
p6127
aS'.'
p6128
asg65
(lp6129
VPerhaps
p6130
aVhe
p6131
ag272
aVferry
p6132
aVstill
p6133
ag106
asg107
(lp6134
g109
ag109
ag109
ag109
ag109
ag109
asg110
(lp6135
g114
ag123
ag242
ag128
ag114
ag130
asg131
VPerhaps he is ferrying still.
p6136
sba(i__main__
Sentence
p6137
(dp6138
g17
I123
sg18
(lp6139
S'If'
p6140
aS'he'
p6141
aS'is'
p6142
aS','
p6143
aS'it'
p6144
aS'is'
p6145
aS'because'
p6146
aS'no'
p6147
aS'one'
p6148
aS'has'
p6149
aS'taken'
p6150
aS'the'
p6151
aS'oar'
p6152
aS'from'
p6153
aS'him'
p6154
aS'.'
p6155
asg65
(lp6156
VIf
p6157
aVhe
p6158
ag272
ag79
aVit
p6159
ag272
aVbecause
p6160
aVno
p6161
aVone
p6162
ag223
aVtake
p6163
aVthe
p6164
aVoar
p6165
aVfrom
p6166
aVhim
p6167
ag106
asg107
(lp6168
g109
ag109
ag109
ag109
ag109
ag109
ag109
ag109
ag109
ag109
ag109
ag109
ag109
ag109
ag109
ag109
asg110
(lp6169
g122
ag123
ag242
ag120
ag123
ag242
ag122
ag115
ag117
ag242
ag124
ag115
ag117
ag122
ag123
ag130
asg131
VIf he is, it is because no one has taken the oar from him. 
p6170
sbasbsS'summary'
p6171
g0
(g7
g2
Ntp6172
Rp6173
(dp6174
g11
S"A king tries desperately to kill a child who is prophesied to marry the king's daughter. The king finally sends the boy to pluck three golden hairs from the devil's head, a feat he feels the boy cannot perform. Not only does the boy return with the hairs, he also brings back riches from other kingdoms that he helped along the way. The greedy king wants treasure of his own so he also goes to visit the devil. However, he is tricked into taking the place of a ferrier and is forced to row back and forth across a river the rest of his life. "
p6175
sg13
(lp6176
(i__main__
Sentence
p6177
(dp6178
g17
I0
sg18
(lp6179
S'A'
p6180
aS'king'
p6181
aS'tries'
p6182
aS'desperately'
p6183
aS'to'
p6184
aS'kill'
p6185
aS'a'
p6186
aS'child'
p6187
aS'who'
p6188
aS'is'
p6189
aS'prophesied'
p6190
aS'to'
p6191
aS'marry'
p6192
aS'the'
p6193
aS'king'
p6194
aS"'s"
p6195
aS'daughter'
p6196
aS'.'
p6197
asg65
(lp6198
g732
aVking
p6199
aVtry
p6200
aVdesperately
p6201
aVto
p6202
aVkill
p6203
ag70
aVchild
p6204
aVwho
p6205
ag272
ag273
aVto
p6206
aVmarry
p6207
aVthe
p6208
aVking
p6209
aV's
p6210
aVdaughter
p6211
ag106
asg107
(lp6212
g109
ag109
ag109
ag109
ag109
ag109
ag109
ag109
ag109
ag109
ag109
ag109
ag109
ag109
ag109
ag109
ag109
ag109
asg110
(lp6213
g115
ag117
ag240
ag114
ag119
ag127
ag115
ag117
ag118
ag242
ag124
ag119
ag127
ag115
ag117
ag129
ag117
ag130
asg131
VA king tries desperately to kill a child who is prophesied to marry the king's daughter.
p6214
sba(i__main__
Sentence
p6215
(dp6216
g17
I1
sg18
(lp6217
S'The'
p6218
aS'king'
p6219
aS'finally'
p6220
aS'sends'
p6221
aS'the'
p6222
aS'boy'
p6223
aS'to'
p6224
aS'pluck'
p6225
aS'three'
p6226
aS'golden'
p6227
aS'hairs'
p6228
aS'from'
p6229
aS'the'
p6230
aS'devil'
p6231
aS"'s"
p6232
aS'head'
p6233
aS','
p6234
aS'a'
p6235
aS'feat'
p6236
aS'he'
p6237
aS'feels'
p6238
aS'the'
p6239
aS'boy'
p6240
aS'can'
p6241
aS'not'
p6242
aS'perform'
p6243
aS'.'
p6244
asg65
(lp6245
VThe
p6246
aVking
p6247
aVfinally
p6248
aVsend
p6249
aVthe
p6250
aVboy
p6251
aVto
p6252
aVpluck
p6253
aVthree
p6254
aVgolden
p6255
aVhair
p6256
aVfrom
p6257
aVthe
p6258
aVdevil
p6259
aV's
p6260
aVhead
p6261
ag79
ag70
aVfeat
p6262
aVhe
p6263
aVfeel
p6264
aVthe
p6265
aVboy
p6266
aVcan
p6267
aVnot
p6268
aVperform
p6269
ag106
asg107
(lp6270
g109
ag109
ag109
ag109
ag109
ag109
ag109
ag109
ag109
ag109
ag109
ag109
ag109
ag109
ag109
ag109
ag109
ag109
ag109
ag109
ag109
ag109
ag109
ag109
ag109
ag109
ag109
asg110
(lp6271
g115
ag117
ag114
ag242
ag115
ag117
ag119
ag127
ag677
ag116
ag240
ag122
ag115
ag117
ag129
ag117
ag120
ag115
ag117
ag123
ag242
ag115
ag117
ag126
ag114
ag127
ag130
asg131
VThe king finally sends the boy to pluck three golden hairs from the devil's head, a feat he feels the boy cannot perform.
p6272
sba(i__main__
Sentence
p6273
(dp6274
g17
I2
sg18
(lp6275
S'Not'
p6276
aS'only'
p6277
aS'does'
p6278
aS'the'
p6279
aS'boy'
p6280
aS'return'
p6281
aS'with'
p6282
aS'the'
p6283
aS'hairs'
p6284
aS','
p6285
aS'he'
p6286
aS'also'
p6287
aS'brings'
p6288
aS'back'
p6289
aS'riches'
p6290
aS'from'
p6291
aS'other'
p6292
aS'kingdoms'
p6293
aS'that'
p6294
aS'he'
p6295
aS'helped'
p6296
aS'along'
p6297
aS'the'
p6298
aS'way'
p6299
aS'.'
p6300
asg65
(lp6301
VNot
p6302
aVonly
p6303
aVdo
p6304
aVthe
p6305
aVboy
p6306
aVreturn
p6307
aVwith
p6308
aVthe
p6309
aVhair
p6310
ag79
aVhe
p6311
aValso
p6312
aVbring
p6313
aVback
p6314
aVriches
p6315
aVfrom
p6316
aVother
p6317
aVkingdom
p6318
aVthat
p6319
aVhe
p6320
aVhelp
p6321
aValong
p6322
aVthe
p6323
aVway
p6324
ag106
asg107
(lp6325
g109
ag109
ag109
ag109
ag109
ag109
ag109
ag109
ag109
ag109
ag109
ag109
ag109
ag109
ag109
ag109
ag109
ag109
ag109
ag109
ag109
ag109
ag109
ag109
ag109
asg110
(lp6326
g114
ag114
ag242
ag115
ag117
ag117
ag122
ag115
ag240
ag120
ag123
ag114
ag242
ag114
ag242
ag122
ag116
ag240
ag122
ag123
ag113
ag122
ag115
ag117
ag130
asg131
VNot only does the boy return with the hairs, he also brings back riches from other kingdoms that he helped along the way.
p6327
sba(i__main__
Sentence
p6328
(dp6329
g17
I3
sg18
(lp6330
S'The'
p6331
aS'greedy'
p6332
aS'king'
p6333
aS'wants'
p6334
aS'treasure'
p6335
aS'of'
p6336
aS'his'
p6337
aS'own'
p6338
aS'so'
p6339
aS'he'
p6340
aS'also'
p6341
aS'goes'
p6342
aS'to'
p6343
aS'visit'
p6344
aS'the'
p6345
aS'devil'
p6346
aS'.'
p6347
asg65
(lp6348
VThe
p6349
aVgreedy
p6350
aVking
p6351
aVwant
p6352
aVtreasure
p6353
aVof
p6354
aVhis
p6355
aVown
p6356
aVso
p6357
aVhe
p6358
aValso
p6359
aVgo
p6360
aVto
p6361
aVvisit
p6362
aVthe
p6363
aVdevil
p6364
ag106
asg107
(lp6365
g109
ag109
ag109
ag109
ag109
ag109
ag109
ag109
ag109
ag109
ag109
ag109
ag109
ag109
ag109
ag109
ag109
asg110
(lp6366
g115
ag117
ag128
ag240
ag117
ag122
ag125
ag116
ag114
ag123
ag114
ag242
ag119
ag127
ag115
ag117
ag130
asg131
VThe greedy king wants treasure of his own so he also goes to visit the devil.
p6367
sba(i__main__
Sentence
p6368
(dp6369
g17
I4
sg18
(lp6370
S'However'
p6371
aS','
p6372
aS'he'
p6373
aS'is'
p6374
aS'tricked'
p6375
aS'into'
p6376
aS'taking'
p6377
aS'the'
p6378
aS'place'
p6379
aS'of'
p6380
aS'a'
p6381
aS'ferrier'
p6382
aS'and'
p6383
aS'is'
p6384
aS'forced'
p6385
aS'to'
p6386
aS'row'
p6387
aS'back'
p6388
aS'and'
p6389
aS'forth'
p6390
aS'across'
p6391
aS'a'
p6392
aS'river'
p6393
aS'the'
p6394
aS'rest'
p6395
aS'of'
p6396
aS'his'
p6397
aS'life'
p6398
aS'.'
p6399
asg65
(lp6400
VHowever
p6401
ag79
aVhe
p6402
ag272
aVtrick
p6403
aVinto
p6404
aVtaking
p6405
aVthe
p6406
aVplace
p6407
aVof
p6408
ag70
aVferrier
p6409
aVand
p6410
ag272
aVforce
p6411
aVto
p6412
aVrow
p6413
aVback
p6414
aVand
p6415
aVforth
p6416
aVacross
p6417
ag70
aVriver
p6418
aVthe
p6419
aVrest
p6420
aVof
p6421
aVhis
p6422
aVlife
p6423
ag106
asg107
(lp6424
g109
ag109
ag109
ag109
ag109
ag109
ag109
ag109
ag109
ag109
ag109
ag109
ag109
ag109
ag109
ag109
ag109
ag109
ag109
ag109
ag109
ag109
ag109
ag109
ag109
ag109
ag109
ag109
ag109
asg110
(lp6425
g114
ag120
ag123
ag242
ag124
ag122
ag117
ag115
ag117
ag122
ag115
ag2676
ag121
ag242
ag124
ag119
ag127
ag114
ag121
ag116
ag122
ag115
ag117
ag115
ag117
ag122
ag125
ag117
ag130
asg131
VHowever, he is tricked into taking the place of a ferrier and is forced to row back and forth across a river the rest of his life. 
p6426
sbasbsS'name'
p6427
S'The Devil with the Three Golden Hairs'
p6428
sS'summaries'
p6429
(lp6430
g6173
asb.