ccopy_reg
_reconstructor
p0
(c__main__
Story
p1
c__builtin__
object
p2
Ntp3
Rp4
(dp5
S'text'
p6
g0
(c__main__
Document
p7
g2
Ntp8
Rp9
(dp10
S'_Document__initialContent'
p11
S"Unless one is wealthy there is no use in being a charming fellow. Romance is the privilege of the rich, not the profession of the unemployed. The poor should be practical and prosaic. It is better to have a permanent income than to be fascinating. These are the great truths of modern life which Hughie Erskine never realised. Poor Hughie! Intellectually, we must admit, he was not of much importance. He never said a brilliant or even an ill-natured thing in his life. But then he was wonderfully good-looking, with his crisp brown hair, his clear-cut profile, and his grey eyes. He was as popular with men as he was with women, and he had every accomplishment except that of making money. His father had bequeathed him his cavalry sword, and a History of the Peninsular War in fifteen volumes. Hughie hung the first over his looking-glass, put the second on a shelf between Ruff's Guide and Bailey's Magazine, and lived on two hundred a year that an old aunt allowed him. He had tried everything. He had gone on the Stock Exchange for six months; but what was a butterfly to do among bulls and bears? He had been a tea-merchant for a little longer, but had soon tired of pekoe and souchong. Then he had tried selling dry sherry. That did not answer; the sherry was a little too dry. Ultimately he became nothing, a delightful, ineffectual young man with a perfect profile and no profession.\n\n\n\nTo make matters worse, he was in love. The girl he loved was Laura Merton, the daughter of a retired Colonel who had lost his temper and his digestion in India, and had never found either of them again. Laura adored him, and he was ready to kiss her shoe-strings. They were the handsomest couple in London, and had not a penny-piece between them. The Colonel was very fond of Hughie, but would not hear of any engagement.\n\n\n\n'Come to me, my boy, when you have got ten thousand pounds of your own, and we will see about it,' he used to say; and Hughie looked very glum on those days, and had to go to Laura for consolation.\n\n\n\nOne morning, as he was on his way to Holland Park, where the Mertons lived, he dropped in to see a great friend of his, Alan Trevor. Trevor was a painter. Indeed, few people escape that nowadays. But he was also an artist, and artists are rather rare. Personally he was a strange rough fellow, with a freckled face and a red ragged beard. However, when he took up the brush he was a real master, and his pictures were eagerly sought after. He had been very much attracted by Hughie at first, it must be acknowledged, entirely on account of his personal charm. 'The only people a painter should know,' he used to say, 'are people who are bete and beautiful, people who are an artistic pleasure to look at and an intellectual repose to talk to. Men who are dandies and women who are darlings rule the world, at least they should do so.' However, after he got to know Hughie better, he liked him quite as much for his bright buoyant spirits and his generous reckless nature, and had given him the permanent entree to his studio.\n\n\n\nWhen Hughie came in he found Trevor putting the finishing touches to a wonderful life-size picture of a beggar-man. The beggar himself was standing on a raised platform in a corner of the studio. He was a wizened old man, with a face like wrinkled parchment, and a most piteous expression. Over his shoulders was flung a coarse brown cloak, all tears and tatters; his thick boots were patched and cobbled, and with one hand he leant on a rough stick, while with the other he held out his battered hat for alms.\n\n\n\n'What an amazing model!' whispered Hughie, as he shook hands with his friend.\n\n\n\n'An amazing model?' shouted Trevor at the top of his voice; 'I should think so! Such beggars as he are not to be met with every day. A trouvaille, mort cher; a living Velasquez! My stars! what an etching Rembrandt would have made of him!'\n\n\n\n'Poor old chap! said Hughie, 'how miserable he looks! But I suppose, to you painters, his face is his fortune?'\n\n\n\n'Certainly,' replied Trevor, 'you don't want a beggar to look happy, do you?'\n\n\n\n'How much does a model get for sitting?' asked Hughie, as he found himself a comfortable seat on a divan.\n\n\n\n'A shilling an hour.'\n\n\n\n'And how much do you get for your picture, Alan?'\n\n\n\n'Oh, for this I get two thousand!'\n\n\n\n'Pounds?'\n\n\n\n'Guineas. Painters, poets, and physicians always get guineas.'\n\n\n\n'Well, I think the model should have a percentage,' cried Hughie, laughing; 'they work quite as hard as you do.'\n\n\n\n'Nonsense, nonsense! Why, look at the trouble of laying on the paint alone, and standing all day long at one's easel! It's all very well, Hughie, for you to talk, but I assure you that there are moments when Art almost attains to the dignity of manual labour. But you mustn't chatter; I'm very busy. Smoke a cigarette, and keep quiet.'\n\n\n\nAfter some time the servant came in, and told Trevor that the frame-maker wanted to speak to him.\n\n\n\n'Don't run away, Hughie,' he said, as he went out, 'I will be back in a moment.'\n\n\n\nThe old beggar-man took advantage of Trevor's absence to rest for a moment on a wooden bench that was behind him. He looked so forlorn and wretched that Hughie could not help pitying him, and felt in his pockets to see what money he had. All he could find was a sovereign and some coppers. 'Poor old fellow,' he thought to himself, 'he wants it more than I do, but it means no hansoms for a fortnight;' and he walked across the studio and slipped the sovereign into the beggar's hand.\n\n\n\nThe old man started, and a faint smile flitted across his withered lips. 'Thank you, sir,' he said, 'thank you.'\n\n\n\nThen Trevor arrived, and Hughie took his leave, blushing a little at what he had done. He spent the day with Laura, got a charming scolding for his extravagance, and had to walk home.\n\n\n\nThat night he strolled into the Palette Club about eleven o'clock, and found Trevor sitting by himself in the smoking-room drinking hock and seltzer.\n\n\n\n'Well, Alan, did you get the picture finished all right?' he said, as he lit his cigarette.\n\n\n\n'Finished and framed, my boy!' answered Trevor; 'and, by-the-bye, you have made a conquest. That old model you saw is quite devoted to you. I had to tell him all about you - who you are, where you live, what your income is, what prospects you have--'\n\n\n\n'My dear Alan,' cried Hughie, 'I shall probably find him waiting for me when I go home. But of course you are only joking. Poor old wretch! I wish I could do something for him. I think it is dreadful that any one should be so miserable. I have got heaps of old clothes at home - do you think he would care for any of them? Why, his rags were falling to bits.'\n\n\n\n'But he looks splendid in them,' said Trevor. 'I wouldn't paint him in a frock-coat for anything. What you call rags I call romance. What seems poverty to you is picturesqueness to me. However, I'll tell him of your offer.'\n\n\n\n'Alan,' said Hughie seriously, 'you painters are a heartless lot.'\n\n\n\n'An artist's heart is his head,' replied Trevor; 'and besides, our business is to realise the world as we see it, not to reform it as we know it. a chacun son metier. And now tell me how Laura is. The old model was quite interested in her.'\n\n\n\n'You don't mean to say you talked to him about her?' said Hughie.\n\n\n\n'Certainly I did. He knows all about the relentless colonel, the lovely Laura, and the 10,000.'\n\n\n\n'You told that old beggar all my private affairs?' cried Hughie, looking very red and angry.\n\n\n\n'My dear boy,' said Trevor, smiling, 'that old beggar, as you call him, is one of the richest men in Europe. He could buy all London to-morrow without overdrawing his account. He has a house in every capital, dines off gold plate, and can prevent Russia going to war when he chooses.'\n\n\n\n'What on earth do you mean?' exclaimed Hughie.\n\n\n\n'What I say,' said Trevor. 'The old man you saw to-day in the studio was Baron Hausberg. He is a great friend of mine, buys all my pictures and that sort of thing, and gave me a commission a month ago to paint him as a beggar. Que voulez-vous? La fantaisie d'un millionnaire! And I must say he made a magnificent figure in his rags, or perhaps I should say in my rags; they are an old suit I got in Spain.'\n\n\n\n'Baron Hausberg!' cried Hughie. 'Good heavens! I gave him a sovereign!' and he sank into an armchair the picture of dismay.\n\n\n\n'Gave him a sovereign!' shouted Trevor, and he burst into a roar of laughter. 'My dear boy, you'll never see it again. Son affaire c'est l'argent des autres.'\n\n\n\n'I think you might have told me, Alan,' said Hughie sulkily, 'and not have let me make such a fool of myself.'\n\n\n\n'Well, to begin with, Hughie,' said Trevor, 'it never entered my mind that you went about distributing alms in that reckless way. I can understand your kissing a pretty model, but your giving a sovereign to an ugly one - by Jove, no! Besides, the fact is that I really was not at home to-day to any one; and when you came in I didn't know whether Hausberg would like his name mentioned. You know he wasn't in full dress.'\n\n\n\n'What a duffer he must think me!' said Hughie.\n\n\n\n'Not at all. He was in the highest spirits after you left; kept chuckling to himself and rubbing his old wrinkled hands together. I couldn't make out why he was so interested to know all about you; but I see it all now. He'll invest your sovereign for you, Hughie, pay you the interest every six months, and have a capital story to tell after dinner.'\n\n\n\n'I am an unlucky devil,' growled Hughie. 'The best thing I can do is to go to bed; and, my dear Alan, you mustn't tell any one. I shouldn't dare show my face in the Row.'\n\n\n\n'Nonsense! It reflects the highest credit on your philanthropic spirit, Hughie. And don't run away. Have another cigarette, and you can talk about Laura as much as you like.'\n\n\n\nHowever, Hughie wouldn't stop, but walked home, feeling very unhappy, and leaving Alan Trevor in fits of laughter.\n\n\n\nThe next morning, as he was at breakfast, the servant brought him up a card on which was written, 'Monsieur Gustave Naudin, de la part de M. le Baron Hausberg.'\n\n\n\n'I suppose he has come for an apology,' said Hughie to himself; and he told the servant to show the visitor up.\n\n\n\nAn old gentleman with gold spectacles and grey hair came into the room, and said, in a slight French accent, 'Have I the honour of addressing Monsieur Erskine?'\n\n\n\nHughie bowed.\n\n\n\n'I have come from Baron Hausberg,' he continued. 'The Baron--'\n\n\n\n'I beg, sir, that you will offer him my sincerest apologies,' stammered Hughie.\n\n\n\n'The Baron,' said the old gentleman, with a smile, 'has commissioned me to bring you this letter;' and he extended a sealed envelope.\n\n\n\nOn the outside was written, 'A wedding present to Hugh Erskine and Laura Merton, from an old beggar,' and inside was a cheque for 10,000.\n\n\n\nWhen they were married Alan Trevor was the best-man, and the Baron made a speech at the wedding-breakfast.\n\n\n\n'Millionaire models,' remarked Alan, 'are rare enough; but, by Jove, model millionaires are rarer still!'"
p12
sS'sentences'
p13
(lp14
(i__main__
Sentence
p15
(dp16
S'index'
p17
I0
sS'words'
p18
(lp19
S'Unless'
p20
aS'one'
p21
aS'is'
p22
aS'wealthy'
p23
aS'there'
p24
aS'is'
p25
aS'no'
p26
aS'use'
p27
aS'in'
p28
aS'being'
p29
aS'a'
p30
aS'charming'
p31
aS'fellow'
p32
aS'.'
p33
asS'lemmas'
p34
(lp35
VUnless
p36
aVone
p37
aVbe
p38
aVwealthy
p39
aVthere
p40
ag38
aVno
p41
aVuse
p42
aVin
p43
aVbe
p44
aVa
p45
aVcharm
p46
aVfellow
p47
aV.
p48
asS'nerTags'
p49
(lp50
VO
p51
ag51
ag51
ag51
ag51
ag51
ag51
ag51
ag51
ag51
ag51
ag51
ag51
ag51
asS'posTags'
p52
(lp53
S'IN'
p54
aS'CD'
p55
aS'VBZ'
p56
aS'JJ'
p57
aS'EX'
p58
ag56
aS'DT'
p59
aS'NN'
p60
ag54
aS'VBG'
p61
ag59
ag61
ag57
aS'.'
p62
asS'_Sentence__initialContent'
p63
VUnless one is wealthy there is no use in being a charming fellow.
p64
sba(i__main__
Sentence
p65
(dp66
g17
I1
sg18
(lp67
S'Romance'
p68
aS'is'
p69
aS'the'
p70
aS'privilege'
p71
aS'of'
p72
aS'the'
p73
aS'rich'
p74
aS','
p75
aS'not'
p76
aS'the'
p77
aS'profession'
p78
aS'of'
p79
aS'the'
p80
aS'unemployed'
p81
aS'.'
p82
asg34
(lp83
VRomance
p84
ag38
aVthe
p85
aVprivilege
p86
aVof
p87
aVthe
p88
aVrich
p89
aV,
p90
aVnot
p91
aVthe
p92
aVprofession
p93
aVof
p94
aVthe
p95
aVunemployed
p96
ag48
asg49
(lp97
g51
ag51
ag51
ag51
ag51
ag51
ag51
ag51
ag51
ag51
ag51
ag51
ag51
ag51
ag51
asg52
(lp98
g60
ag56
ag59
ag60
ag54
ag59
ag57
aS','
p99
aS'RB'
p100
ag59
ag60
ag54
ag59
aS'VBN'
p101
ag62
asg63
VRomance is the privilege of the rich, not the profession of the unemployed.
p102
sba(i__main__
Sentence
p103
(dp104
g17
I2
sg18
(lp105
S'The'
p106
aS'poor'
p107
aS'should'
p108
aS'be'
p109
aS'practical'
p110
aS'and'
p111
aS'prosaic'
p112
aS'.'
p113
asg34
(lp114
VThe
p115
aVpoor
p116
aVshould
p117
aVbe
p118
aVpractical
p119
aVand
p120
aVprosaic
p121
ag48
asg49
(lp122
g51
ag51
ag51
ag51
ag51
ag51
ag51
ag51
asg52
(lp123
g59
ag57
aS'MD'
p124
aS'VB'
p125
ag57
aS'CC'
p126
ag57
ag62
asg63
VThe poor should be practical and prosaic.
p127
sba(i__main__
Sentence
p128
(dp129
g17
I3
sg18
(lp130
S'It'
p131
aS'is'
p132
aS'better'
p133
aS'to'
p134
aS'have'
p135
aS'a'
p136
aS'permanent'
p137
aS'income'
p138
aS'than'
p139
aS'to'
p140
aS'be'
p141
aS'fascinating'
p142
aS'.'
p143
asg34
(lp144
VIt
p145
ag38
aVwell
p146
aVto
p147
aVhave
p148
ag45
aVpermanent
p149
aVincome
p150
aVthan
p151
aVto
p152
aVbe
p153
aVfascinate
p154
ag48
asg49
(lp155
g51
ag51
ag51
ag51
ag51
ag51
ag51
ag51
ag51
ag51
ag51
ag51
ag51
asg52
(lp156
S'PRP'
p157
ag56
aS'RBR'
p158
aS'TO'
p159
ag125
ag59
ag60
ag60
ag54
ag159
ag125
ag61
ag62
asg63
VIt is better to have a permanent income than to be fascinating.
p160
sba(i__main__
Sentence
p161
(dp162
g17
I4
sg18
(lp163
S'These'
p164
aS'are'
p165
aS'the'
p166
aS'great'
p167
aS'truths'
p168
aS'of'
p169
aS'modern'
p170
aS'life'
p171
aS'which'
p172
aS'Hughie'
p173
aS'Erskine'
p174
aS'never'
p175
aS'realised'
p176
aS'.'
p177
asg34
(lp178
VThese
p179
aVbe
p180
aVthe
p181
aVgreat
p182
aVtruth
p183
aVof
p184
aVmodern
p185
aVlife
p186
aVwhich
p187
aVHughie
p188
aVErskine
p189
aVnever
p190
aVrealise
p191
ag48
asg49
(lp192
g51
ag51
ag51
ag51
ag51
ag51
ag51
ag51
ag51
aVPERSON
p193
aVPERSON
p194
ag51
ag51
ag51
asg52
(lp195
g59
aS'VBP'
p196
ag59
ag57
aS'NNS'
p197
ag54
ag57
ag60
aS'WDT'
p198
aS'NNP'
p199
ag199
ag100
aS'VBD'
p200
ag62
asg63
VThese are the great truths of modern life which Hughie Erskine never realised.
p201
sba(i__main__
Sentence
p202
(dp203
g17
I5
sg18
(lp204
S'Poor'
p205
aS'Hughie'
p206
aS'!'
p207
asg34
(lp208
VPoor
p209
aVHughie
p210
aV!
p211
asg49
(lp212
g51
ag51
ag51
asg52
(lp213
g199
ag199
ag62
asg63
VPoor Hughie!
p214
sba(i__main__
Sentence
p215
(dp216
g17
I6
sg18
(lp217
S'Intellectually'
p218
aS','
p219
aS'we'
p220
aS'must'
p221
aS'admit'
p222
aS','
p223
aS'he'
p224
aS'was'
p225
aS'not'
p226
aS'of'
p227
aS'much'
p228
aS'importance'
p229
aS'.'
p230
asg34
(lp231
VIntellectually
p232
ag90
aVwe
p233
aVmust
p234
aVadmit
p235
ag90
aVhe
p236
aVbe
p237
aVnot
p238
aVof
p239
aVmuch
p240
aVimportance
p241
ag48
asg49
(lp242
g51
ag51
ag51
ag51
ag51
ag51
ag51
ag51
ag51
ag51
ag51
ag51
ag51
asg52
(lp243
g100
ag99
ag157
ag124
ag125
ag99
ag157
ag200
ag100
ag54
ag100
ag60
ag62
asg63
VIntellectually, we must admit, he was not of much importance.
p244
sba(i__main__
Sentence
p245
(dp246
g17
I7
sg18
(lp247
S'He'
p248
aS'never'
p249
aS'said'
p250
aS'a'
p251
aS'brilliant'
p252
aS'or'
p253
aS'even'
p254
aS'an'
p255
aS'ill-natured'
p256
aS'thing'
p257
aS'in'
p258
aS'his'
p259
aS'life'
p260
aS'.'
p261
asg34
(lp262
VHe
p263
aVnever
p264
aVsay
p265
ag45
aVbrilliant
p266
aVor
p267
aVeven
p268
aVan
p269
aVill-natured
p270
aVthing
p271
aVin
p272
aVhis
p273
aVlife
p274
ag48
asg49
(lp275
g51
ag51
ag51
ag51
ag51
ag51
ag51
ag51
ag51
ag51
ag51
ag51
ag51
ag51
asg52
(lp276
g157
ag100
ag200
ag59
ag57
ag126
ag100
ag59
ag57
ag60
ag54
aS'PRP$'
p277
ag60
ag62
asg63
VHe never said a brilliant or even an ill-natured thing in his life.
p278
sba(i__main__
Sentence
p279
(dp280
g17
I8
sg18
(lp281
S'But'
p282
aS'then'
p283
aS'he'
p284
aS'was'
p285
aS'wonderfully'
p286
aS'good-looking'
p287
aS','
p288
aS'with'
p289
aS'his'
p290
aS'crisp'
p291
aS'brown'
p292
aS'hair'
p293
aS','
p294
aS'his'
p295
aS'clear-cut'
p296
aS'profile'
p297
aS','
p298
aS'and'
p299
aS'his'
p300
aS'grey'
p301
aS'eyes'
p302
aS'.'
p303
asg34
(lp304
VBut
p305
aVthen
p306
aVhe
p307
ag237
aVwonderfully
p308
aVgood-looking
p309
ag90
aVwith
p310
aVhis
p311
aVcrisp
p312
aVbrown
p313
aVhair
p314
ag90
aVhis
p315
aVclear-cut
p316
aVprofile
p317
ag90
aVand
p318
aVhis
p319
aVgrey
p320
aVeye
p321
ag48
asg49
(lp322
g51
ag51
ag51
ag51
ag51
ag51
ag51
ag51
ag51
ag51
ag51
ag51
ag51
ag51
ag51
ag51
ag51
ag51
ag51
ag51
ag51
ag51
asg52
(lp323
g126
ag100
ag157
ag200
ag100
ag57
ag99
ag54
ag277
ag60
ag60
ag60
ag99
ag277
ag60
ag60
ag99
ag126
ag277
ag60
ag197
ag62
asg63
VBut then he was wonderfully good-looking, with his crisp brown hair, his clear-cut profile, and his grey eyes.
p324
sba(i__main__
Sentence
p325
(dp326
g17
I9
sg18
(lp327
S'He'
p328
aS'was'
p329
aS'as'
p330
aS'popular'
p331
aS'with'
p332
aS'men'
p333
aS'as'
p334
aS'he'
p335
aS'was'
p336
aS'with'
p337
aS'women'
p338
aS','
p339
aS'and'
p340
aS'he'
p341
aS'had'
p342
aS'every'
p343
aS'accomplishment'
p344
aS'except'
p345
aS'that'
p346
aS'of'
p347
aS'making'
p348
aS'money'
p349
aS'.'
p350
asg34
(lp351
VHe
p352
ag237
ag45
aVpopular
p353
aVwith
p354
aVmen
p355
ag45
aVhe
p356
ag237
aVwith
p357
aVwoman
p358
ag90
aVand
p359
aVhe
p360
aVhave
p361
aVevery
p362
aVaccomplishment
p363
aVexcept
p364
aVthat
p365
aVof
p366
aVmake
p367
aVmoney
p368
ag48
asg49
(lp369
g51
ag51
ag51
ag51
ag51
ag51
ag51
ag51
ag51
ag51
ag51
ag51
ag51
ag51
ag51
ag51
ag51
ag51
ag51
ag51
ag51
ag51
ag51
asg52
(lp370
g157
ag200
ag54
ag57
ag54
ag197
ag54
ag157
ag200
ag54
ag197
ag99
ag126
ag157
ag200
ag59
ag60
ag54
ag59
ag54
ag61
ag60
ag62
asg63
VHe was as popular with men as he was with women, and he had every accomplishment except that of making money.
p371
sba(i__main__
Sentence
p372
(dp373
g17
I10
sg18
(lp374
S'His'
p375
aS'father'
p376
aS'had'
p377
aS'bequeathed'
p378
aS'him'
p379
aS'his'
p380
aS'cavalry'
p381
aS'sword'
p382
aS','
p383
aS'and'
p384
aS'a'
p385
aS'History'
p386
aS'of'
p387
aS'the'
p388
aS'Peninsular'
p389
aS'War'
p390
aS'in'
p391
aS'fifteen'
p392
aS'volumes'
p393
aS'.'
p394
asg34
(lp395
VHis
p396
aVfather
p397
ag361
aVbequeath
p398
aVhim
p399
aVhis
p400
aVcavalry
p401
aVsword
p402
ag90
aVand
p403
ag45
aVHistory
p404
aVof
p405
aVthe
p406
aVPeninsular
p407
aVWar
p408
aVin
p409
aVfifteen
p410
aVvolume
p411
ag48
asg49
(lp412
g51
ag51
ag51
ag51
ag51
ag51
ag51
ag51
ag51
ag51
ag51
ag51
ag51
ag51
ag51
ag51
ag51
ag51
ag51
ag51
asg52
(lp413
g277
ag60
ag200
ag101
ag157
ag277
ag60
ag60
ag99
ag126
ag59
ag199
ag54
ag59
ag199
ag199
ag54
ag57
ag197
ag62
asg63
VHis father had bequeathed him his cavalry sword, and a History of the Peninsular War in fifteen volumes.
p414
sba(i__main__
Sentence
p415
(dp416
g17
I11
sg18
(lp417
S'Hughie'
p418
aS'hung'
p419
aS'the'
p420
aS'first'
p421
aS'over'
p422
aS'his'
p423
aS'looking-glass'
p424
aS','
p425
aS'put'
p426
aS'the'
p427
aS'second'
p428
aS'on'
p429
aS'a'
p430
aS'shelf'
p431
aS'between'
p432
aS'Ruff'
p433
aS"'s"
p434
aS'Guide'
p435
aS'and'
p436
aS'Bailey'
p437
aS"'s"
p438
aS'Magazine'
p439
aS','
p440
aS'and'
p441
aS'lived'
p442
aS'on'
p443
aS'two'
p444
aS'hundred'
p445
aS'a'
p446
aS'year'
p447
aS'that'
p448
aS'an'
p449
aS'old'
p450
aS'aunt'
p451
aS'allowed'
p452
aS'him'
p453
aS'.'
p454
asg34
(lp455
VHughie
p456
aVhang
p457
aVthe
p458
aVfirst
p459
aVover
p460
aVhis
p461
aVlooking-glass
p462
ag90
aVput
p463
aVthe
p464
aVsecond
p465
aVon
p466
ag45
aVshelf
p467
aVbetween
p468
aVRuff
p469
aV's
p470
aVGuide
p471
aVand
p472
aVBailey
p473
aV's
p474
aVMagazine
p475
ag90
aVand
p476
aVlive
p477
aVon
p478
aVtwo
p479
aVhundred
p480
ag45
aVyear
p481
aVthat
p482
aVan
p483
aVold
p484
aVaunt
p485
aVallow
p486
aVhim
p487
ag48
asg49
(lp488
VPERSON
p489
ag51
ag51
ag51
ag51
ag51
ag51
ag51
ag51
ag51
ag51
ag51
ag51
ag51
ag51
aVPERSON
p490
ag51
ag51
ag51
aVPERSON
p491
ag51
ag51
ag51
ag51
ag51
ag51
ag51
ag51
ag51
ag51
ag51
ag51
ag51
ag51
ag51
ag51
ag51
asg52
(lp492
g199
ag200
ag59
ag57
ag54
ag277
ag60
ag99
ag200
ag59
ag57
ag54
ag59
ag60
ag54
ag199
aS'POS'
p493
ag199
ag126
ag199
ag493
ag199
ag99
ag126
ag200
ag54
ag55
ag101
ag59
ag60
ag198
ag59
ag57
ag60
ag200
ag157
ag62
asg63
VHughie hung the first over his looking-glass, put the second on a shelf between Ruff's Guide and Bailey's Magazine, and lived on two hundred a year that an old aunt allowed him.
p494
sba(i__main__
Sentence
p495
(dp496
g17
I12
sg18
(lp497
S'He'
p498
aS'had'
p499
aS'tried'
p500
aS'everything'
p501
aS'.'
p502
asg34
(lp503
VHe
p504
ag361
aVtry
p505
aVeverything
p506
ag48
asg49
(lp507
g51
ag51
ag51
ag51
ag51
asg52
(lp508
g157
ag200
ag101
ag60
ag62
asg63
VHe had tried everything.
p509
sba(i__main__
Sentence
p510
(dp511
g17
I13
sg18
(lp512
S'He'
p513
aS'had'
p514
aS'gone'
p515
aS'on'
p516
aS'the'
p517
aS'Stock'
p518
aS'Exchange'
p519
aS'for'
p520
aS'six'
p521
aS'months'
p522
aS';'
p523
aS'but'
p524
aS'what'
p525
aS'was'
p526
aS'a'
p527
aS'butterfly'
p528
aS'to'
p529
aS'do'
p530
aS'among'
p531
aS'bulls'
p532
aS'and'
p533
aS'bears'
p534
aS'?'
p535
asg34
(lp536
VHe
p537
ag361
aVgo
p538
aVon
p539
aVthe
p540
aVStock
p541
aVExchange
p542
aVfor
p543
aVsix
p544
aVmonth
p545
aV;
p546
aVbut
p547
aVwhat
p548
ag237
ag45
aVbutterfly
p549
aVto
p550
aVdo
p551
aVamong
p552
aVbull
p553
aVand
p554
aVbear
p555
aV?
p556
asg49
(lp557
g51
ag51
ag51
ag51
ag51
aVORGANIZATION
p558
aVORGANIZATION
p559
ag51
ag51
ag51
ag51
ag51
ag51
ag51
ag51
ag51
ag51
ag51
ag51
ag51
ag51
ag51
ag51
asg52
(lp560
g157
ag200
ag101
ag54
ag59
ag199
ag199
ag54
ag55
ag197
aS':'
p561
ag126
aS'WP'
p562
ag200
ag59
ag100
ag159
ag125
ag54
ag197
ag126
ag197
ag62
asg63
VHe had gone on the Stock Exchange for six months; but what was a butterfly to do among bulls and bears?
p563
sba(i__main__
Sentence
p564
(dp565
g17
I14
sg18
(lp566
S'He'
p567
aS'had'
p568
aS'been'
p569
aS'a'
p570
aS'tea-merchant'
p571
aS'for'
p572
aS'a'
p573
aS'little'
p574
aS'longer'
p575
aS','
p576
aS'but'
p577
aS'had'
p578
aS'soon'
p579
aS'tired'
p580
aS'of'
p581
aS'pekoe'
p582
aS'and'
p583
aS'souchong'
p584
aS'.'
p585
asg34
(lp586
VHe
p587
ag361
aVbe
p588
ag45
aVtea-merchant
p589
aVfor
p590
ag45
aVlittle
p591
aVlonger
p592
ag90
aVbut
p593
ag361
aVsoon
p594
aVtire
p595
aVof
p596
aVpekoe
p597
aVand
p598
aVsouchong
p599
ag48
asg49
(lp600
g51
ag51
ag51
ag51
ag51
ag51
ag51
ag51
ag51
ag51
ag51
ag51
ag51
ag51
ag51
ag51
ag51
ag51
ag51
asg52
(lp601
g157
ag200
ag101
ag59
ag57
ag54
ag59
ag100
ag158
ag99
ag126
ag200
ag100
ag101
ag54
ag60
ag126
ag57
ag62
asg63
VHe had been a tea-merchant for a little longer, but had soon tired of pekoe and souchong.
p602
sba(i__main__
Sentence
p603
(dp604
g17
I15
sg18
(lp605
S'Then'
p606
aS'he'
p607
aS'had'
p608
aS'tried'
p609
aS'selling'
p610
aS'dry'
p611
aS'sherry'
p612
aS'.'
p613
asg34
(lp614
VThen
p615
aVhe
p616
ag361
ag505
aVsell
p617
aVdry
p618
aVsherry
p619
ag48
asg49
(lp620
g51
ag51
ag51
ag51
ag51
ag51
ag51
ag51
asg52
(lp621
g100
ag157
ag200
ag101
ag61
ag57
ag60
ag62
asg63
VThen he had tried selling dry sherry.
p622
sba(i__main__
Sentence
p623
(dp624
g17
I16
sg18
(lp625
S'That'
p626
aS'did'
p627
aS'not'
p628
aS'answer'
p629
aS';'
p630
aS'the'
p631
aS'sherry'
p632
aS'was'
p633
aS'a'
p634
aS'little'
p635
aS'too'
p636
aS'dry'
p637
aS'.'
p638
asg34
(lp639
VThat
p640
aVdo
p641
aVnot
p642
aVanswer
p643
ag546
aVthe
p644
aVsherry
p645
ag237
ag45
aVlittle
p646
aVtoo
p647
aVdry
p648
ag48
asg49
(lp649
g51
ag51
ag51
ag51
ag51
ag51
ag51
ag51
ag51
ag51
ag51
ag51
ag51
asg52
(lp650
g59
ag200
ag100
ag125
ag561
ag59
ag60
ag200
ag59
ag100
ag100
ag57
ag62
asg63
VThat did not answer; the sherry was a little too dry.
p651
sba(i__main__
Sentence
p652
(dp653
g17
I17
sg18
(lp654
S'Ultimately'
p655
aS'he'
p656
aS'became'
p657
aS'nothing'
p658
aS','
p659
aS'a'
p660
aS'delightful'
p661
aS','
p662
aS'ineffectual'
p663
aS'young'
p664
aS'man'
p665
aS'with'
p666
aS'a'
p667
aS'perfect'
p668
aS'profile'
p669
aS'and'
p670
aS'no'
p671
aS'profession'
p672
aS'.'
p673
asg34
(lp674
VUltimately
p675
aVhe
p676
aVbecome
p677
aVnothing
p678
ag90
ag45
aVdelightful
p679
ag90
aVineffectual
p680
aVyoung
p681
aVman
p682
aVwith
p683
ag45
aVperfect
p684
aVprofile
p685
aVand
p686
aVno
p687
aVprofession
p688
ag48
asg49
(lp689
g51
ag51
ag51
ag51
ag51
ag51
ag51
ag51
ag51
ag51
ag51
ag51
ag51
ag51
ag51
ag51
ag51
ag51
ag51
asg52
(lp690
g100
ag157
ag200
ag60
ag99
ag59
ag57
ag99
ag57
ag57
ag60
ag54
ag59
ag60
ag60
ag126
ag59
ag60
ag62
asg63
VUltimately he became nothing, a delightful, ineffectual young man with a perfect profile and no profession.
p691
sba(i__main__
Sentence
p692
(dp693
g17
I18
sg18
(lp694
S'To'
p695
aS'make'
p696
aS'matters'
p697
aS'worse'
p698
aS','
p699
aS'he'
p700
aS'was'
p701
aS'in'
p702
aS'love'
p703
aS'.'
p704
asg34
(lp705
VTo
p706
aVmake
p707
aVmatter
p708
aVbad
p709
ag90
aVhe
p710
ag237
aVin
p711
aVlove
p712
ag48
asg49
(lp713
g51
ag51
ag51
ag51
ag51
ag51
ag51
ag51
ag51
ag51
asg52
(lp714
g159
ag125
ag197
aS'JJR'
p715
ag99
ag157
ag200
ag54
ag60
ag62
asg63
VTo make matters worse, he was in love.
p716
sba(i__main__
Sentence
p717
(dp718
g17
I19
sg18
(lp719
S'The'
p720
aS'girl'
p721
aS'he'
p722
aS'loved'
p723
aS'was'
p724
aS'Laura'
p725
aS'Merton'
p726
aS','
p727
aS'the'
p728
aS'daughter'
p729
aS'of'
p730
aS'a'
p731
aS'retired'
p732
aS'Colonel'
p733
aS'who'
p734
aS'had'
p735
aS'lost'
p736
aS'his'
p737
aS'temper'
p738
aS'and'
p739
aS'his'
p740
aS'digestion'
p741
aS'in'
p742
aS'India'
p743
aS','
p744
aS'and'
p745
aS'had'
p746
aS'never'
p747
aS'found'
p748
aS'either'
p749
aS'of'
p750
aS'them'
p751
aS'again'
p752
aS'.'
p753
asg34
(lp754
VThe
p755
aVgirl
p756
aVhe
p757
aVlove
p758
ag237
aVLaura
p759
aVMerton
p760
ag90
aVthe
p761
aVdaughter
p762
aVof
p763
ag45
aVretire
p764
aVColonel
p765
aVwho
p766
ag361
aVlose
p767
aVhis
p768
aVtemper
p769
aVand
p770
aVhis
p771
aVdigestion
p772
aVin
p773
aVIndia
p774
ag90
aVand
p775
ag361
aVnever
p776
aVfind
p777
aVeither
p778
aVof
p779
aVthem
p780
aVagain
p781
ag48
asg49
(lp782
g51
ag51
ag51
ag51
ag51
aVPERSON
p783
aVPERSON
p784
ag51
ag51
ag51
ag51
ag51
ag51
ag51
ag51
ag51
ag51
ag51
ag51
ag51
ag51
ag51
ag51
aVLOCATION
p785
ag51
ag51
ag51
ag51
ag51
ag51
ag51
ag51
ag51
ag51
asg52
(lp786
g59
ag60
ag157
ag200
ag200
ag199
ag199
ag99
ag59
ag60
ag54
ag59
ag101
ag199
ag562
ag200
ag101
ag277
ag60
ag126
ag277
ag60
ag54
ag199
ag99
ag126
ag200
ag100
ag101
ag59
ag54
ag157
ag100
ag62
asg63
VThe girl he loved was Laura Merton, the daughter of a retired Colonel who had lost his temper and his digestion in India, and had never found either of them again.
p787
sba(i__main__
Sentence
p788
(dp789
g17
I20
sg18
(lp790
S'Laura'
p791
aS'adored'
p792
aS'him'
p793
aS','
p794
aS'and'
p795
aS'he'
p796
aS'was'
p797
aS'ready'
p798
aS'to'
p799
aS'kiss'
p800
aS'her'
p801
aS'shoe-strings'
p802
aS'.'
p803
asg34
(lp804
VLaura
p805
aVadore
p806
aVhim
p807
ag90
aVand
p808
aVhe
p809
ag237
aVready
p810
aVto
p811
aVkiss
p812
aVher
p813
aVshoe-strings
p814
ag48
asg49
(lp815
VPERSON
p816
ag51
ag51
ag51
ag51
ag51
ag51
ag51
ag51
ag51
ag51
ag51
ag51
asg52
(lp817
g199
ag200
ag157
ag99
ag126
ag157
ag200
ag100
ag159
ag125
ag277
ag197
ag62
asg63
VLaura adored him, and he was ready to kiss her shoe-strings.
p818
sba(i__main__
Sentence
p819
(dp820
g17
I21
sg18
(lp821
S'They'
p822
aS'were'
p823
aS'the'
p824
aS'handsomest'
p825
aS'couple'
p826
aS'in'
p827
aS'London'
p828
aS','
p829
aS'and'
p830
aS'had'
p831
aS'not'
p832
aS'a'
p833
aS'penny-piece'
p834
aS'between'
p835
aS'them'
p836
aS'.'
p837
asg34
(lp838
VThey
p839
aVbe
p840
aVthe
p841
aVhandsome
p842
aVcouple
p843
aVin
p844
aVLondon
p845
ag90
aVand
p846
ag361
aVnot
p847
ag45
aVpenny-piece
p848
aVbetween
p849
aVthem
p850
ag48
asg49
(lp851
g51
ag51
ag51
ag51
ag51
ag51
aVLOCATION
p852
ag51
ag51
ag51
ag51
ag51
ag51
ag51
ag51
ag51
asg52
(lp853
g157
ag200
ag59
aS'JJS'
p854
ag60
ag54
ag199
ag99
ag126
ag200
ag100
ag59
ag57
ag54
ag157
ag62
asg63
VThey were the handsomest couple in London, and had not a penny-piece between them.
p855
sba(i__main__
Sentence
p856
(dp857
g17
I22
sg18
(lp858
S'The'
p859
aS'Colonel'
p860
aS'was'
p861
aS'very'
p862
aS'fond'
p863
aS'of'
p864
aS'Hughie'
p865
aS','
p866
aS'but'
p867
aS'would'
p868
aS'not'
p869
aS'hear'
p870
aS'of'
p871
aS'any'
p872
aS'engagement'
p873
aS'.'
p874
asg34
(lp875
VThe
p876
aVColonel
p877
ag237
aVvery
p878
aVfond
p879
aVof
p880
aVHughie
p881
ag90
aVbut
p882
aVwould
p883
aVnot
p884
aVhear
p885
aVof
p886
aVany
p887
aVengagement
p888
ag48
asg49
(lp889
g51
ag51
ag51
ag51
ag51
ag51
aVPERSON
p890
ag51
ag51
ag51
ag51
ag51
ag51
ag51
ag51
ag51
asg52
(lp891
g59
ag199
ag200
ag100
ag57
ag54
ag199
ag99
ag126
ag124
ag100
ag125
ag54
ag59
ag60
ag62
asg63
VThe Colonel was very fond of Hughie, but would not hear of any engagement.
p892
sba(i__main__
Sentence
p893
(dp894
g17
I23
sg18
(lp895
S"'Come"
p896
aS'to'
p897
aS'me'
p898
aS','
p899
aS'my'
p900
aS'boy'
p901
aS','
p902
aS'when'
p903
aS'you'
p904
aS'have'
p905
aS'got'
p906
aS'ten'
p907
aS'thousand'
p908
aS'pounds'
p909
aS'of'
p910
aS'your'
p911
aS'own'
p912
aS','
p913
aS'and'
p914
aS'we'
p915
aS'will'
p916
aS'see'
p917
aS'about'
p918
aS'it'
p919
aS','
p920
aS"'"
p921
aS'he'
p922
aS'used'
p923
aS'to'
p924
aS'say'
p925
aS';'
p926
aS'and'
p927
aS'Hughie'
p928
aS'looked'
p929
aS'very'
p930
aS'glum'
p931
aS'on'
p932
aS'those'
p933
aS'days'
p934
aS','
p935
aS'and'
p936
aS'had'
p937
aS'to'
p938
aS'go'
p939
aS'to'
p940
aS'Laura'
p941
aS'for'
p942
aS'consolation'
p943
aS'.'
p944
asg34
(lp945
V'Come
p946
aVto
p947
aVme
p948
ag90
aVmy
p949
aVboy
p950
ag90
aVwhen
p951
aVyou
p952
aVhave
p953
aVget
p954
aVten
p955
aVthousand
p956
aVpound
p957
aVof
p958
aVyour
p959
aVown
p960
ag90
aVand
p961
aVwe
p962
aVwill
p963
aVsee
p964
aVabout
p965
aVit
p966
ag90
aV'
p967
aVhe
p968
aVuse
p969
aVto
p970
aVsay
p971
ag546
aVand
p972
aVHughie
p973
aVlook
p974
aVvery
p975
aVglum
p976
aVon
p977
aVthose
p978
aVday
p979
ag90
aVand
p980
ag361
aVto
p981
aVgo
p982
aVto
p983
aVLaura
p984
aVfor
p985
aVconsolation
p986
ag48
asg49
(lp987
g51
ag51
ag51
ag51
ag51
ag51
ag51
ag51
ag51
ag51
ag51
ag51
ag51
ag51
ag51
ag51
ag51
ag51
ag51
ag51
ag51
ag51
ag51
ag51
ag51
ag51
ag51
ag51
ag51
ag51
ag51
ag51
ag51
ag51
ag51
ag51
ag51
ag51
ag51
ag51
ag51
ag51
ag51
ag51
ag51
aVPERSON
p988
ag51
ag51
ag51
asg52
(lp989
g57
ag159
ag157
ag99
ag277
ag60
ag99
aS'WRB'
p990
ag157
ag196
ag101
ag101
ag60
ag197
ag54
ag277
ag57
ag99
ag126
ag157
ag124
ag125
ag54
ag157
ag99
aS"''"
p991
ag157
ag200
ag159
ag125
ag561
ag126
ag199
ag200
ag100
ag60
ag54
ag59
ag197
ag99
ag126
ag200
ag159
ag125
ag159
ag199
ag54
ag60
ag62
asg63
V'Come to me, my boy, when you have got ten thousand pounds of your own, and we will see about it,' he used to say; and Hughie looked very glum on those days, and had to go to Laura for consolation.
p992
sba(i__main__
Sentence
p993
(dp994
g17
I24
sg18
(lp995
S'One'
p996
aS'morning'
p997
aS','
p998
aS'as'
p999
aS'he'
p1000
aS'was'
p1001
aS'on'
p1002
aS'his'
p1003
aS'way'
p1004
aS'to'
p1005
aS'Holland'
p1006
aS'Park'
p1007
aS','
p1008
aS'where'
p1009
aS'the'
p1010
aS'Mertons'
p1011
aS'lived'
p1012
aS','
p1013
aS'he'
p1014
aS'dropped'
p1015
aS'in'
p1016
aS'to'
p1017
aS'see'
p1018
aS'a'
p1019
aS'great'
p1020
aS'friend'
p1021
aS'of'
p1022
aS'his'
p1023
aS','
p1024
aS'Alan'
p1025
aS'Trevor'
p1026
aS'.'
p1027
asg34
(lp1028
VOne
p1029
aVmorning
p1030
ag90
ag45
aVhe
p1031
ag237
aVon
p1032
aVhis
p1033
aVway
p1034
aVto
p1035
aVHolland
p1036
aVPark
p1037
ag90
aVwhere
p1038
aVthe
p1039
aVMertons
p1040
aVlive
p1041
ag90
aVhe
p1042
aVdrop
p1043
aVin
p1044
aVto
p1045
aVsee
p1046
ag45
aVgreat
p1047
aVfriend
p1048
aVof
p1049
aVhis
p1050
ag90
aVAlan
p1051
aVTrevor
p1052
ag48
asg49
(lp1053
g51
ag51
ag51
ag51
ag51
ag51
ag51
ag51
ag51
ag51
aVLOCATION
p1054
aVLOCATION
p1055
ag51
ag51
ag51
aVPERSON
p1056
ag51
ag51
ag51
ag51
ag51
ag51
ag51
ag51
ag51
ag51
ag51
ag51
ag51
aVPERSON
p1057
aVPERSON
p1058
ag51
asg52
(lp1059
g55
ag60
ag99
ag54
ag157
ag200
ag54
ag277
ag60
ag159
ag199
ag199
ag99
ag990
ag59
ag197
ag200
ag99
ag157
ag200
ag54
ag159
ag125
ag59
ag57
ag60
ag54
ag277
ag99
ag199
ag199
ag62
asg63
VOne morning, as he was on his way to Holland Park, where the Mertons lived, he dropped in to see a great friend of his, Alan Trevor.
p1060
sba(i__main__
Sentence
p1061
(dp1062
g17
I25
sg18
(lp1063
S'Trevor'
p1064
aS'was'
p1065
aS'a'
p1066
aS'painter'
p1067
aS'.'
p1068
asg34
(lp1069
VTrevor
p1070
ag237
ag45
aVpainter
p1071
ag48
asg49
(lp1072
VPERSON
p1073
ag51
ag51
ag51
ag51
asg52
(lp1074
g199
ag200
ag59
ag60
ag62
asg63
VTrevor was a painter.
p1075
sba(i__main__
Sentence
p1076
(dp1077
g17
I26
sg18
(lp1078
S'Indeed'
p1079
aS','
p1080
aS'few'
p1081
aS'people'
p1082
aS'escape'
p1083
aS'that'
p1084
aS'nowadays'
p1085
aS'.'
p1086
asg34
(lp1087
VIndeed
p1088
ag90
aVfew
p1089
aVpeople
p1090
aVescape
p1091
aVthat
p1092
aVnowadays
p1093
ag48
asg49
(lp1094
g51
ag51
ag51
ag51
ag51
ag51
ag51
ag51
asg52
(lp1095
g100
ag99
ag57
ag197
ag60
ag54
ag197
ag62
asg63
VIndeed, few people escape that nowadays.
p1096
sba(i__main__
Sentence
p1097
(dp1098
g17
I27
sg18
(lp1099
S'But'
p1100
aS'he'
p1101
aS'was'
p1102
aS'also'
p1103
aS'an'
p1104
aS'artist'
p1105
aS','
p1106
aS'and'
p1107
aS'artists'
p1108
aS'are'
p1109
aS'rather'
p1110
aS'rare'
p1111
aS'.'
p1112
asg34
(lp1113
VBut
p1114
aVhe
p1115
ag237
aValso
p1116
aVan
p1117
aVartist
p1118
ag90
aVand
p1119
aVartist
p1120
ag180
aVrather
p1121
aVrare
p1122
ag48
asg49
(lp1123
g51
ag51
ag51
ag51
ag51
ag51
ag51
ag51
ag51
ag51
ag51
ag51
ag51
asg52
(lp1124
g126
ag157
ag200
ag100
ag59
ag60
ag99
ag126
ag197
ag196
ag100
ag57
ag62
asg63
VBut he was also an artist, and artists are rather rare.
p1125
sba(i__main__
Sentence
p1126
(dp1127
g17
I28
sg18
(lp1128
S'Personally'
p1129
aS'he'
p1130
aS'was'
p1131
aS'a'
p1132
aS'strange'
p1133
aS'rough'
p1134
aS'fellow'
p1135
aS','
p1136
aS'with'
p1137
aS'a'
p1138
aS'freckled'
p1139
aS'face'
p1140
aS'and'
p1141
aS'a'
p1142
aS'red'
p1143
aS'ragged'
p1144
aS'beard'
p1145
aS'.'
p1146
asg34
(lp1147
VPersonally
p1148
aVhe
p1149
ag237
ag45
aVstrange
p1150
aVrough
p1151
aVfellow
p1152
ag90
aVwith
p1153
ag45
aVfreckle
p1154
aVface
p1155
aVand
p1156
ag45
aVred
p1157
aVragged
p1158
aVbeard
p1159
ag48
asg49
(lp1160
g51
ag51
ag51
ag51
ag51
ag51
ag51
ag51
ag51
ag51
ag51
ag51
ag51
ag51
ag51
ag51
ag51
ag51
asg52
(lp1161
g100
ag157
ag200
ag59
ag60
ag54
ag57
ag99
ag54
ag59
ag101
ag60
ag126
ag59
ag57
ag57
ag60
ag62
asg63
VPersonally he was a strange rough fellow, with a freckled face and a red ragged beard.
p1162
sba(i__main__
Sentence
p1163
(dp1164
g17
I29
sg18
(lp1165
S'However'
p1166
aS','
p1167
aS'when'
p1168
aS'he'
p1169
aS'took'
p1170
aS'up'
p1171
aS'the'
p1172
aS'brush'
p1173
aS'he'
p1174
aS'was'
p1175
aS'a'
p1176
aS'real'
p1177
aS'master'
p1178
aS','
p1179
aS'and'
p1180
aS'his'
p1181
aS'pictures'
p1182
aS'were'
p1183
aS'eagerly'
p1184
aS'sought'
p1185
aS'after'
p1186
aS'.'
p1187
asg34
(lp1188
VHowever
p1189
ag90
aVwhen
p1190
aVhe
p1191
aVtake
p1192
aVup
p1193
aVthe
p1194
aVbrush
p1195
aVhe
p1196
ag237
ag45
aVreal
p1197
aVmaster
p1198
ag90
aVand
p1199
aVhis
p1200
aVpicture
p1201
ag840
aVeagerly
p1202
aVseek
p1203
aVafter
p1204
ag48
asg49
(lp1205
g51
ag51
ag51
ag51
ag51
ag51
ag51
ag51
ag51
ag51
ag51
ag51
ag51
ag51
ag51
ag51
ag51
ag51
ag51
ag51
ag51
ag51
asg52
(lp1206
g100
ag99
ag990
ag157
ag200
aS'RP'
p1207
ag59
ag60
ag157
ag200
ag59
ag57
ag60
ag99
ag126
ag277
ag197
ag200
ag100
ag101
ag54
ag62
asg63
VHowever, when he took up the brush he was a real master, and his pictures were eagerly sought after.
p1208
sba(i__main__
Sentence
p1209
(dp1210
g17
I30
sg18
(lp1211
S'He'
p1212
aS'had'
p1213
aS'been'
p1214
aS'very'
p1215
aS'much'
p1216
aS'attracted'
p1217
aS'by'
p1218
aS'Hughie'
p1219
aS'at'
p1220
aS'first'
p1221
aS','
p1222
aS'it'
p1223
aS'must'
p1224
aS'be'
p1225
aS'acknowledged'
p1226
aS','
p1227
aS'entirely'
p1228
aS'on'
p1229
aS'account'
p1230
aS'of'
p1231
aS'his'
p1232
aS'personal'
p1233
aS'charm'
p1234
aS'.'
p1235
asg34
(lp1236
VHe
p1237
ag361
ag588
aVvery
p1238
aVmuch
p1239
aVattract
p1240
aVby
p1241
aVHughie
p1242
aVat
p1243
aVfirst
p1244
ag90
aVit
p1245
aVmust
p1246
aVbe
p1247
aVacknowledge
p1248
ag90
aVentirely
p1249
aVon
p1250
aVaccount
p1251
aVof
p1252
aVhis
p1253
aVpersonal
p1254
aVcharm
p1255
ag48
asg49
(lp1256
g51
ag51
ag51
ag51
ag51
ag51
ag51
aVPERSON
p1257
ag51
ag51
ag51
ag51
ag51
ag51
ag51
ag51
ag51
ag51
ag51
ag51
ag51
ag51
ag51
ag51
asg52
(lp1258
g157
ag200
ag101
ag100
ag100
ag101
ag54
ag199
ag54
ag57
ag99
ag157
ag124
ag125
ag101
ag99
ag100
ag54
ag60
ag54
ag277
ag57
ag60
ag62
asg63
VHe had been very much attracted by Hughie at first, it must be acknowledged, entirely on account of his personal charm.
p1259
sba(i__main__
Sentence
p1260
(dp1261
g17
I31
sg18
(lp1262
S"'The"
p1263
aS'only'
p1264
aS'people'
p1265
aS'a'
p1266
aS'painter'
p1267
aS'should'
p1268
aS'know'
p1269
aS','
p1270
aS"'"
p1271
aS'he'
p1272
aS'used'
p1273
aS'to'
p1274
aS'say'
p1275
aS','
p1276
aS"'are"
p1277
aS'people'
p1278
aS'who'
p1279
aS'are'
p1280
aS'bete'
p1281
aS'and'
p1282
aS'beautiful'
p1283
aS','
p1284
aS'people'
p1285
aS'who'
p1286
aS'are'
p1287
aS'an'
p1288
aS'artistic'
p1289
aS'pleasure'
p1290
aS'to'
p1291
aS'look'
p1292
aS'at'
p1293
aS'and'
p1294
aS'an'
p1295
aS'intellectual'
p1296
aS'repose'
p1297
aS'to'
p1298
aS'talk'
p1299
aS'to'
p1300
aS'.'
p1301
asg34
(lp1302
V'The
p1303
aVonly
p1304
aVpeople
p1305
ag45
aVpainter
p1306
aVshould
p1307
aVknow
p1308
ag90
ag967
aVhe
p1309
aVuse
p1310
aVto
p1311
aVsay
p1312
ag90
aV'are
p1313
aVpeople
p1314
aVwho
p1315
ag180
aVbete
p1316
aVand
p1317
aVbeautiful
p1318
ag90
aVpeople
p1319
aVwho
p1320
ag180
aVan
p1321
aVartistic
p1322
aVpleasure
p1323
aVto
p1324
aVlook
p1325
aVat
p1326
aVand
p1327
aVan
p1328
aVintellectual
p1329
aVrepose
p1330
aVto
p1331
aVtalk
p1332
aVto
p1333
ag48
asg49
(lp1334
g51
ag51
ag51
ag51
ag51
ag51
ag51
ag51
ag51
ag51
ag51
ag51
ag51
ag51
ag51
ag51
ag51
ag51
ag51
ag51
ag51
ag51
ag51
ag51
ag51
ag51
ag51
ag51
ag51
ag51
ag51
ag51
ag51
ag51
ag51
ag51
ag51
ag51
ag51
asg52
(lp1335
g59
ag100
ag197
ag59
ag60
ag124
ag125
ag99
ag991
ag157
ag200
ag159
ag125
ag99
ag57
ag197
ag562
ag196
ag196
ag126
ag57
ag99
ag197
ag562
ag196
ag59
ag57
ag60
ag159
ag125
ag54
ag126
ag59
ag57
ag60
ag159
ag125
ag159
ag62
asg63
V'The only people a painter should know,' he used to say, 'are people who are bete and beautiful, people who are an artistic pleasure to look at and an intellectual repose to talk to.
p1336
sba(i__main__
Sentence
p1337
(dp1338
g17
I32
sg18
(lp1339
S'Men'
p1340
aS'who'
p1341
aS'are'
p1342
aS'dandies'
p1343
aS'and'
p1344
aS'women'
p1345
aS'who'
p1346
aS'are'
p1347
aS'darlings'
p1348
aS'rule'
p1349
aS'the'
p1350
aS'world'
p1351
aS','
p1352
aS'at'
p1353
aS'least'
p1354
aS'they'
p1355
aS'should'
p1356
aS'do'
p1357
aS'so'
p1358
aS'.'
p1359
aS"'"
p1360
asg34
(lp1361
VMen
p1362
aVwho
p1363
ag180
aVdandy
p1364
aVand
p1365
aVwoman
p1366
aVwho
p1367
ag180
aVdarling
p1368
aVrule
p1369
aVthe
p1370
aVworld
p1371
ag90
aVat
p1372
aVleast
p1373
aVthey
p1374
aVshould
p1375
aVdo
p1376
aVso
p1377
ag48
ag967
asg49
(lp1378
g51
ag51
ag51
ag51
ag51
ag51
ag51
ag51
ag51
ag51
ag51
ag51
ag51
ag51
ag51
ag51
ag51
ag51
ag51
ag51
ag51
asg52
(lp1379
g197
ag562
ag196
ag197
ag126
ag197
ag562
ag196
ag197
ag60
ag59
ag60
ag99
ag54
ag854
ag157
ag124
ag125
ag100
ag62
ag991
asg63
VMen who are dandies and women who are darlings rule the world, at least they should do so.'
p1380
sba(i__main__
Sentence
p1381
(dp1382
g17
I33
sg18
(lp1383
S'However'
p1384
aS','
p1385
aS'after'
p1386
aS'he'
p1387
aS'got'
p1388
aS'to'
p1389
aS'know'
p1390
aS'Hughie'
p1391
aS'better'
p1392
aS','
p1393
aS'he'
p1394
aS'liked'
p1395
aS'him'
p1396
aS'quite'
p1397
aS'as'
p1398
aS'much'
p1399
aS'for'
p1400
aS'his'
p1401
aS'bright'
p1402
aS'buoyant'
p1403
aS'spirits'
p1404
aS'and'
p1405
aS'his'
p1406
aS'generous'
p1407
aS'reckless'
p1408
aS'nature'
p1409
aS','
p1410
aS'and'
p1411
aS'had'
p1412
aS'given'
p1413
aS'him'
p1414
aS'the'
p1415
aS'permanent'
p1416
aS'entree'
p1417
aS'to'
p1418
aS'his'
p1419
aS'studio'
p1420
aS'.'
p1421
asg34
(lp1422
VHowever
p1423
ag90
aVafter
p1424
aVhe
p1425
ag954
aVto
p1426
aVknow
p1427
aVHughie
p1428
ag146
ag90
aVhe
p1429
aVlike
p1430
aVhim
p1431
aVquite
p1432
ag45
aVmuch
p1433
aVfor
p1434
aVhis
p1435
aVbright
p1436
aVbuoyant
p1437
aVspirit
p1438
aVand
p1439
aVhis
p1440
aVgenerous
p1441
aVreckless
p1442
aVnature
p1443
ag90
aVand
p1444
ag361
aVgive
p1445
aVhim
p1446
aVthe
p1447
aVpermanent
p1448
aVentree
p1449
aVto
p1450
aVhis
p1451
aVstudio
p1452
ag48
asg49
(lp1453
g51
ag51
ag51
ag51
ag51
ag51
ag51
aVPERSON
p1454
ag51
ag51
ag51
ag51
ag51
ag51
ag51
ag51
ag51
ag51
ag51
ag51
ag51
ag51
ag51
ag51
ag51
ag51
ag51
ag51
ag51
ag51
ag51
ag51
ag51
ag51
ag51
ag51
ag51
ag51
asg52
(lp1455
g100
ag99
ag54
ag157
ag200
ag159
ag125
ag199
ag158
ag99
ag157
ag200
ag157
ag100
ag54
ag57
ag54
ag277
ag60
ag60
ag197
ag126
ag277
ag57
ag60
ag60
ag99
ag126
ag200
ag101
ag157
ag59
ag60
ag60
ag159
ag277
ag60
ag62
asg63
VHowever, after he got to know Hughie better, he liked him quite as much for his bright buoyant spirits and his generous reckless nature, and had given him the permanent entree to his studio.
p1456
sba(i__main__
Sentence
p1457
(dp1458
g17
I34
sg18
(lp1459
S'When'
p1460
aS'Hughie'
p1461
aS'came'
p1462
aS'in'
p1463
aS'he'
p1464
aS'found'
p1465
aS'Trevor'
p1466
aS'putting'
p1467
aS'the'
p1468
aS'finishing'
p1469
aS'touches'
p1470
aS'to'
p1471
aS'a'
p1472
aS'wonderful'
p1473
aS'life-size'
p1474
aS'picture'
p1475
aS'of'
p1476
aS'a'
p1477
aS'beggar-man'
p1478
aS'.'
p1479
asg34
(lp1480
VWhen
p1481
aVHughie
p1482
aVcome
p1483
aVin
p1484
aVhe
p1485
ag777
aVTrevor
p1486
aVputting
p1487
aVthe
p1488
aVfinishing
p1489
aVtouch
p1490
aVto
p1491
ag45
aVwonderful
p1492
aVlife-size
p1493
aVpicture
p1494
aVof
p1495
ag45
aVbeggar-man
p1496
ag48
asg49
(lp1497
g51
aVPERSON
p1498
ag51
ag51
ag51
ag51
aVPERSON
p1499
ag51
ag51
ag51
ag51
ag51
ag51
ag51
ag51
ag51
ag51
ag51
ag51
ag51
asg52
(lp1500
g990
ag199
ag200
ag54
ag157
ag200
ag199
ag60
ag59
ag60
ag56
ag159
ag59
ag57
ag60
ag60
ag54
ag59
ag57
ag62
asg63
VWhen Hughie came in he found Trevor putting the finishing touches to a wonderful life-size picture of a beggar-man.
p1501
sba(i__main__
Sentence
p1502
(dp1503
g17
I35
sg18
(lp1504
S'The'
p1505
aS'beggar'
p1506
aS'himself'
p1507
aS'was'
p1508
aS'standing'
p1509
aS'on'
p1510
aS'a'
p1511
aS'raised'
p1512
aS'platform'
p1513
aS'in'
p1514
aS'a'
p1515
aS'corner'
p1516
aS'of'
p1517
aS'the'
p1518
aS'studio'
p1519
aS'.'
p1520
asg34
(lp1521
VThe
p1522
aVbeggar
p1523
aVhimself
p1524
ag237
aVstand
p1525
aVon
p1526
ag45
aVraise
p1527
aVplatform
p1528
aVin
p1529
ag45
aVcorner
p1530
aVof
p1531
aVthe
p1532
aVstudio
p1533
ag48
asg49
(lp1534
g51
ag51
ag51
ag51
ag51
ag51
ag51
ag51
ag51
ag51
ag51
ag51
ag51
ag51
ag51
ag51
asg52
(lp1535
g59
ag60
ag157
ag200
ag61
ag54
ag59
ag101
ag60
ag54
ag59
ag60
ag54
ag59
ag60
ag62
asg63
VThe beggar himself was standing on a raised platform in a corner of the studio.
p1536
sba(i__main__
Sentence
p1537
(dp1538
g17
I36
sg18
(lp1539
S'He'
p1540
aS'was'
p1541
aS'a'
p1542
aS'wizened'
p1543
aS'old'
p1544
aS'man'
p1545
aS','
p1546
aS'with'
p1547
aS'a'
p1548
aS'face'
p1549
aS'like'
p1550
aS'wrinkled'
p1551
aS'parchment'
p1552
aS','
p1553
aS'and'
p1554
aS'a'
p1555
aS'most'
p1556
aS'piteous'
p1557
aS'expression'
p1558
aS'.'
p1559
asg34
(lp1560
VHe
p1561
ag237
ag45
aVwizened
p1562
aVold
p1563
aVman
p1564
ag90
aVwith
p1565
ag45
aVface
p1566
aVlike
p1567
aVwrinkle
p1568
aVparchment
p1569
ag90
aVand
p1570
ag45
aVmost
p1571
aVpiteous
p1572
aVexpression
p1573
ag48
asg49
(lp1574
g51
ag51
ag51
ag51
ag51
ag51
ag51
ag51
ag51
ag51
ag51
ag51
ag51
ag51
ag51
ag51
ag51
ag51
ag51
ag51
asg52
(lp1575
g157
ag200
ag59
ag101
ag57
ag60
ag99
ag54
ag59
ag60
ag54
ag101
ag60
ag99
ag126
ag59
aS'RBS'
p1576
ag57
ag60
ag62
asg63
VHe was a wizened old man, with a face like wrinkled parchment, and a most piteous expression.
p1577
sba(i__main__
Sentence
p1578
(dp1579
g17
I37
sg18
(lp1580
S'Over'
p1581
aS'his'
p1582
aS'shoulders'
p1583
aS'was'
p1584
aS'flung'
p1585
aS'a'
p1586
aS'coarse'
p1587
aS'brown'
p1588
aS'cloak'
p1589
aS','
p1590
aS'all'
p1591
aS'tears'
p1592
aS'and'
p1593
aS'tatters'
p1594
aS';'
p1595
aS'his'
p1596
aS'thick'
p1597
aS'boots'
p1598
aS'were'
p1599
aS'patched'
p1600
aS'and'
p1601
aS'cobbled'
p1602
aS','
p1603
aS'and'
p1604
aS'with'
p1605
aS'one'
p1606
aS'hand'
p1607
aS'he'
p1608
aS'leant'
p1609
aS'on'
p1610
aS'a'
p1611
aS'rough'
p1612
aS'stick'
p1613
aS','
p1614
aS'while'
p1615
aS'with'
p1616
aS'the'
p1617
aS'other'
p1618
aS'he'
p1619
aS'held'
p1620
aS'out'
p1621
aS'his'
p1622
aS'battered'
p1623
aS'hat'
p1624
aS'for'
p1625
aS'alms'
p1626
aS'.'
p1627
asg34
(lp1628
VOver
p1629
aVhis
p1630
aVshoulder
p1631
ag237
aVflung
p1632
ag45
aVcoarse
p1633
aVbrown
p1634
aVcloak
p1635
ag90
aVall
p1636
aVtear
p1637
aVand
p1638
aVtatter
p1639
ag546
aVhis
p1640
aVthick
p1641
aVboot
p1642
ag840
aVpatch
p1643
aVand
p1644
aVcobble
p1645
ag90
aVand
p1646
aVwith
p1647
aVone
p1648
aVhand
p1649
aVhe
p1650
aVlean
p1651
aVon
p1652
ag45
aVrough
p1653
aVstick
p1654
ag90
aVwhile
p1655
aVwith
p1656
aVthe
p1657
aVother
p1658
aVhe
p1659
aVhold
p1660
aVout
p1661
aVhis
p1662
aVbatter
p1663
aVhat
p1664
aVfor
p1665
aValms
p1666
ag48
asg49
(lp1667
g51
ag51
ag51
ag51
ag51
ag51
ag51
ag51
ag51
ag51
ag51
ag51
ag51
ag51
ag51
ag51
ag51
ag51
ag51
ag51
ag51
ag51
ag51
ag51
ag51
ag51
ag51
ag51
ag51
ag51
ag51
ag51
ag51
ag51
ag51
ag51
ag51
ag51
ag51
ag51
ag51
ag51
ag51
ag51
ag51
ag51
ag51
asg52
(lp1668
g54
ag277
ag197
ag200
ag57
ag59
ag60
ag60
ag60
ag99
ag59
ag197
ag126
ag197
ag561
ag277
ag60
ag197
ag200
ag101
ag126
ag101
ag99
ag126
ag54
ag55
ag60
ag157
ag200
ag54
ag59
ag57
ag60
ag99
ag54
ag54
ag59
ag57
ag157
ag200
ag1207
ag277
ag101
ag60
ag54
ag197
ag62
asg63
VOver his shoulders was flung a coarse brown cloak, all tears and tatters; his thick boots were patched and cobbled, and with one hand he leant on a rough stick, while with the other he held out his battered hat for alms.
p1669
sba(i__main__
Sentence
p1670
(dp1671
g17
I38
sg18
(lp1672
S"'What"
p1673
aS'an'
p1674
aS'amazing'
p1675
aS'model'
p1676
aS'!'
p1677
aS"'"
p1678
asg34
(lp1679
V'What
p1680
aVan
p1681
aVamazing
p1682
aVmodel
p1683
ag211
ag967
asg49
(lp1684
g51
ag51
ag51
ag51
ag51
ag51
asg52
(lp1685
g57
ag59
ag60
ag60
ag62
ag991
asg63
V'What an amazing model!'
p1686
sba(i__main__
Sentence
p1687
(dp1688
g17
I39
sg18
(lp1689
S'whispered'
p1690
aS'Hughie'
p1691
aS','
p1692
aS'as'
p1693
aS'he'
p1694
aS'shook'
p1695
aS'hands'
p1696
aS'with'
p1697
aS'his'
p1698
aS'friend'
p1699
aS'.'
p1700
asg34
(lp1701
Vwhisper
p1702
aVHughie
p1703
ag90
ag45
aVhe
p1704
aVshake
p1705
aVhand
p1706
aVwith
p1707
aVhis
p1708
aVfriend
p1709
ag48
asg49
(lp1710
g51
aVPERSON
p1711
ag51
ag51
ag51
ag51
ag51
ag51
ag51
ag51
ag51
asg52
(lp1712
g200
ag199
ag99
ag54
ag157
ag200
ag197
ag54
ag277
ag60
ag62
asg63
Vwhispered Hughie, as he shook hands with his friend.
p1713
sba(i__main__
Sentence
p1714
(dp1715
g17
I40
sg18
(lp1716
S"'An"
p1717
aS'amazing'
p1718
aS'model'
p1719
aS'?'
p1720
aS"'"
p1721
asg34
(lp1722
V'An
p1723
aVamazing
p1724
aVmodel
p1725
ag556
ag967
asg49
(lp1726
g51
ag51
ag51
ag51
ag51
asg52
(lp1727
g57
ag60
ag60
ag62
ag991
asg63
V'An amazing model?'
p1728
sba(i__main__
Sentence
p1729
(dp1730
g17
I41
sg18
(lp1731
S'shouted'
p1732
aS'Trevor'
p1733
aS'at'
p1734
aS'the'
p1735
aS'top'
p1736
aS'of'
p1737
aS'his'
p1738
aS'voice'
p1739
aS';'
p1740
aS"'I"
p1741
aS'should'
p1742
aS'think'
p1743
aS'so'
p1744
aS'!'
p1745
asg34
(lp1746
Vshout
p1747
aVTrevor
p1748
aVat
p1749
aVthe
p1750
aVtop
p1751
aVof
p1752
aVhis
p1753
aVvoice
p1754
ag546
aV'I
p1755
aVshould
p1756
aVthink
p1757
aVso
p1758
ag211
asg49
(lp1759
g51
aVPERSON
p1760
ag51
ag51
ag51
ag51
ag51
ag51
ag51
ag51
ag51
ag51
ag51
ag51
asg52
(lp1761
g200
ag199
ag54
ag59
ag57
ag54
ag277
ag60
ag561
ag199
ag124
ag125
ag100
ag62
asg63
Vshouted Trevor at the top of his voice; 'I should think so!
p1762
sba(i__main__
Sentence
p1763
(dp1764
g17
I42
sg18
(lp1765
S'Such'
p1766
aS'beggars'
p1767
aS'as'
p1768
aS'he'
p1769
aS'are'
p1770
aS'not'
p1771
aS'to'
p1772
aS'be'
p1773
aS'met'
p1774
aS'with'
p1775
aS'every'
p1776
aS'day'
p1777
aS'.'
p1778
asg34
(lp1779
VSuch
p1780
aVbeggar
p1781
ag45
aVhe
p1782
ag180
aVnot
p1783
aVto
p1784
aVbe
p1785
aVmeet
p1786
aVwith
p1787
aVevery
p1788
aVday
p1789
ag48
asg49
(lp1790
g51
ag51
ag51
ag51
ag51
ag51
ag51
ag51
ag51
ag51
ag51
ag51
ag51
asg52
(lp1791
g57
ag197
ag54
ag157
ag196
ag100
ag159
ag125
ag101
ag54
ag59
ag60
ag62
asg63
VSuch beggars as he are not to be met with every day.
p1792
sba(i__main__
Sentence
p1793
(dp1794
g17
I43
sg18
(lp1795
S'A'
p1796
aS'trouvaille'
p1797
aS','
p1798
aS'mort'
p1799
aS'cher'
p1800
aS';'
p1801
aS'a'
p1802
aS'living'
p1803
aS'Velasquez'
p1804
aS'!'
p1805
asg34
(lp1806
VA
p1807
aVtrouvaille
p1808
ag90
aVmort
p1809
aVcher
p1810
ag546
ag45
aVliving
p1811
aVVelasquez
p1812
ag211
asg49
(lp1813
g51
ag51
ag51
ag51
ag51
ag51
ag51
ag51
aVPERSON
p1814
ag51
asg52
(lp1815
g59
ag60
ag99
ag60
ag60
ag561
ag59
ag60
ag199
ag62
asg63
VA trouvaille, mort cher; a living Velasquez!
p1816
sba(i__main__
Sentence
p1817
(dp1818
g17
I44
sg18
(lp1819
S'My'
p1820
aS'stars'
p1821
aS'!'
p1822
asg34
(lp1823
VMy
p1824
aVstar
p1825
ag211
asg49
(lp1826
g51
ag51
ag51
asg52
(lp1827
g277
ag197
ag62
asg63
VMy stars!
p1828
sba(i__main__
Sentence
p1829
(dp1830
g17
I45
sg18
(lp1831
S'what'
p1832
aS'an'
p1833
aS'etching'
p1834
aS'Rembrandt'
p1835
aS'would'
p1836
aS'have'
p1837
aS'made'
p1838
aS'of'
p1839
aS'him'
p1840
aS'!'
p1841
aS"'"
p1842
asg34
(lp1843
Vwhat
p1844
aVan
p1845
aVetch
p1846
aVRembrandt
p1847
aVwould
p1848
aVhave
p1849
aVmake
p1850
aVof
p1851
aVhim
p1852
ag211
ag967
asg49
(lp1853
g51
ag51
ag51
aVPERSON
p1854
ag51
ag51
ag51
ag51
ag51
ag51
ag51
asg52
(lp1855
g562
ag59
ag61
ag199
ag124
ag125
ag101
ag54
ag157
ag62
ag991
asg63
Vwhat an etching Rembrandt would have made of him!'
p1856
sba(i__main__
Sentence
p1857
(dp1858
g17
I46
sg18
(lp1859
S"'Poor"
p1860
aS'old'
p1861
aS'chap'
p1862
aS'!'
p1863
asg34
(lp1864
V'Poor
p1865
aVold
p1866
aVchap
p1867
ag211
asg49
(lp1868
g51
ag51
ag51
ag51
asg52
(lp1869
g57
ag57
ag60
ag62
asg63
V'Poor old chap!
p1870
sba(i__main__
Sentence
p1871
(dp1872
g17
I47
sg18
(lp1873
S'said'
p1874
aS'Hughie'
p1875
aS','
p1876
aS"'how"
p1877
aS'miserable'
p1878
aS'he'
p1879
aS'looks'
p1880
aS'!'
p1881
asg34
(lp1882
g265
aVHughie
p1883
ag90
aV'how
p1884
aVmiserable
p1885
aVhe
p1886
aVlook
p1887
ag211
asg49
(lp1888
g51
aVPERSON
p1889
ag51
ag51
ag51
ag51
ag51
ag51
asg52
(lp1890
g200
ag199
ag99
ag199
ag57
ag157
ag56
ag62
asg63
Vsaid Hughie, 'how miserable he looks!
p1891
sba(i__main__
Sentence
p1892
(dp1893
g17
I48
sg18
(lp1894
S'But'
p1895
aS'I'
p1896
aS'suppose'
p1897
aS','
p1898
aS'to'
p1899
aS'you'
p1900
aS'painters'
p1901
aS','
p1902
aS'his'
p1903
aS'face'
p1904
aS'is'
p1905
aS'his'
p1906
aS'fortune'
p1907
aS'?'
p1908
aS"'"
p1909
asg34
(lp1910
VBut
p1911
aVI
p1912
aVsuppose
p1913
ag90
aVto
p1914
aVyou
p1915
aVpainter
p1916
ag90
aVhis
p1917
aVface
p1918
ag38
aVhis
p1919
aVfortune
p1920
ag556
ag967
asg49
(lp1921
g51
ag51
ag51
ag51
ag51
ag51
ag51
ag51
ag51
ag51
ag51
ag51
ag51
ag51
ag51
asg52
(lp1922
g126
ag157
ag196
ag99
ag159
ag157
ag197
ag99
ag277
ag60
ag56
ag277
ag60
ag62
ag991
asg63
VBut I suppose, to you painters, his face is his fortune?'
p1923
sba(i__main__
Sentence
p1924
(dp1925
g17
I49
sg18
(lp1926
S"'Certainly"
p1927
aS','
p1928
aS"'"
p1929
aS'replied'
p1930
aS'Trevor'
p1931
aS','
p1932
aS"'you"
p1933
aS'do'
p1934
aS"n't"
p1935
aS'want'
p1936
aS'a'
p1937
aS'beggar'
p1938
aS'to'
p1939
aS'look'
p1940
aS'happy'
p1941
aS','
p1942
aS'do'
p1943
aS'you'
p1944
aS'?'
p1945
aS"'"
p1946
asg34
(lp1947
V'Certainly
p1948
ag90
ag967
aVreply
p1949
aVTrevor
p1950
ag90
aV'you
p1951
aVdo
p1952
aVn't
p1953
aVwant
p1954
ag45
aVbeggar
p1955
aVto
p1956
aVlook
p1957
aVhappy
p1958
ag90
aVdo
p1959
aVyou
p1960
ag556
ag967
asg49
(lp1961
g51
ag51
ag51
ag51
aVPERSON
p1962
ag51
ag51
ag51
ag51
ag51
ag51
ag51
ag51
ag51
ag51
ag51
ag51
ag51
ag51
ag51
asg52
(lp1963
g100
ag99
ag991
ag200
ag199
ag99
ag199
ag196
ag100
ag125
ag59
ag60
ag159
ag125
ag57
ag99
ag196
ag157
ag62
ag991
asg63
V'Certainly,' replied Trevor, 'you don't want a beggar to look happy, do you?'
p1964
sba(i__main__
Sentence
p1965
(dp1966
g17
I50
sg18
(lp1967
S"'How"
p1968
aS'much'
p1969
aS'does'
p1970
aS'a'
p1971
aS'model'
p1972
aS'get'
p1973
aS'for'
p1974
aS'sitting'
p1975
aS'?'
p1976
aS"'"
p1977
asg34
(lp1978
V'How
p1979
aVmuch
p1980
aVdo
p1981
ag45
aVmodel
p1982
aVget
p1983
aVfor
p1984
aVsit
p1985
ag556
ag967
asg49
(lp1986
g51
ag51
ag51
ag51
ag51
ag51
ag51
ag51
ag51
ag51
asg52
(lp1987
g57
ag57
ag56
ag59
ag60
ag60
ag54
ag61
ag62
ag991
asg63
V'How much does a model get for sitting?'
p1988
sba(i__main__
Sentence
p1989
(dp1990
g17
I51
sg18
(lp1991
S'asked'
p1992
aS'Hughie'
p1993
aS','
p1994
aS'as'
p1995
aS'he'
p1996
aS'found'
p1997
aS'himself'
p1998
aS'a'
p1999
aS'comfortable'
p2000
aS'seat'
p2001
aS'on'
p2002
aS'a'
p2003
aS'divan'
p2004
aS'.'
p2005
asg34
(lp2006
Vask
p2007
aVHughie
p2008
ag90
ag45
aVhe
p2009
ag777
aVhimself
p2010
ag45
aVcomfortable
p2011
aVseat
p2012
aVon
p2013
ag45
aVdivan
p2014
ag48
asg49
(lp2015
g51
aVPERSON
p2016
ag51
ag51
ag51
ag51
ag51
ag51
ag51
ag51
ag51
ag51
ag51
ag51
asg52
(lp2017
g200
ag199
ag99
ag54
ag157
ag200
ag157
ag59
ag57
ag60
ag54
ag59
ag60
ag62
asg63
Vasked Hughie, as he found himself a comfortable seat on a divan.
p2018
sba(i__main__
Sentence
p2019
(dp2020
g17
I52
sg18
(lp2021
S"'A"
p2022
aS'shilling'
p2023
aS'an'
p2024
aS'hour'
p2025
aS'.'
p2026
aS"'"
p2027
asg34
(lp2028
V'A
p2029
aVshill
p2030
aVan
p2031
aVhour
p2032
ag48
ag967
asg49
(lp2033
g51
ag51
ag51
ag51
ag51
ag51
asg52
(lp2034
g60
ag61
ag59
ag60
ag62
ag991
asg63
V'A shilling an hour.'
p2035
sba(i__main__
Sentence
p2036
(dp2037
g17
I53
sg18
(lp2038
S"'And"
p2039
aS'how'
p2040
aS'much'
p2041
aS'do'
p2042
aS'you'
p2043
aS'get'
p2044
aS'for'
p2045
aS'your'
p2046
aS'picture'
p2047
aS','
p2048
aS'Alan'
p2049
aS'?'
p2050
aS"'"
p2051
asg34
(lp2052
V'And
p2053
aVhow
p2054
aVmuch
p2055
aVdo
p2056
aVyou
p2057
aVget
p2058
aVfor
p2059
aVyour
p2060
aVpicture
p2061
ag90
aVAlan
p2062
ag556
ag967
asg49
(lp2063
g51
ag51
ag51
ag51
ag51
ag51
ag51
ag51
ag51
ag51
aVPERSON
p2064
ag51
ag51
asg52
(lp2065
g57
ag990
ag57
ag196
ag157
ag125
ag54
ag277
ag60
ag99
ag199
ag62
ag991
asg63
V'And how much do you get for your picture, Alan?'
p2066
sba(i__main__
Sentence
p2067
(dp2068
g17
I54
sg18
(lp2069
S"'Oh"
p2070
aS','
p2071
aS'for'
p2072
aS'this'
p2073
aS'I'
p2074
aS'get'
p2075
aS'two'
p2076
aS'thousand'
p2077
aS'!'
p2078
aS"'"
p2079
asg34
(lp2080
V'Oh
p2081
ag90
aVfor
p2082
aVthis
p2083
ag1912
aVget
p2084
aVtwo
p2085
aVthousand
p2086
ag211
ag967
asg49
(lp2087
g51
ag51
ag51
ag51
ag51
ag51
ag51
ag51
ag51
ag51
asg52
(lp2088
g57
ag99
ag54
ag59
ag157
ag196
ag55
ag60
ag62
ag991
asg63
V'Oh, for this I get two thousand!'
p2089
sba(i__main__
Sentence
p2090
(dp2091
g17
I55
sg18
(lp2092
S"'Pounds"
p2093
aS'?'
p2094
aS"'"
p2095
asg34
(lp2096
V'Pounds
p2097
ag556
ag967
asg49
(lp2098
g51
ag51
ag51
asg52
(lp2099
g197
ag62
ag991
asg63
V'Pounds?'
p2100
sba(i__main__
Sentence
p2101
(dp2102
g17
I56
sg18
(lp2103
S"'Guineas"
p2104
aS'.'
p2105
asg34
(lp2106
V'Guineas
p2107
ag48
asg49
(lp2108
g51
ag51
asg52
(lp2109
g57
ag62
asg63
V'Guineas.
p2110
sba(i__main__
Sentence
p2111
(dp2112
g17
I57
sg18
(lp2113
S'Painters'
p2114
aS','
p2115
aS'poets'
p2116
aS','
p2117
aS'and'
p2118
aS'physicians'
p2119
aS'always'
p2120
aS'get'
p2121
aS'guineas'
p2122
aS'.'
p2123
aS"'"
p2124
asg34
(lp2125
VPainters
p2126
ag90
aVpoet
p2127
ag90
aVand
p2128
aVphysician
p2129
aValways
p2130
aVget
p2131
aVguinea
p2132
ag48
ag967
asg49
(lp2133
g51
ag51
ag51
ag51
ag51
ag51
ag51
ag51
ag51
ag51
ag51
asg52
(lp2134
g197
ag99
ag197
ag99
ag126
ag197
ag100
ag125
ag197
ag62
ag991
asg63
VPainters, poets, and physicians always get guineas.'
p2135
sba(i__main__
Sentence
p2136
(dp2137
g17
I58
sg18
(lp2138
S"'Well"
p2139
aS','
p2140
aS'I'
p2141
aS'think'
p2142
aS'the'
p2143
aS'model'
p2144
aS'should'
p2145
aS'have'
p2146
aS'a'
p2147
aS'percentage'
p2148
aS','
p2149
aS"'"
p2150
aS'cried'
p2151
aS'Hughie'
p2152
aS','
p2153
aS'laughing'
p2154
aS';'
p2155
aS"'they"
p2156
aS'work'
p2157
aS'quite'
p2158
aS'as'
p2159
aS'hard'
p2160
aS'as'
p2161
aS'you'
p2162
aS'do'
p2163
aS'.'
p2164
aS"'"
p2165
asg34
(lp2166
V'Well
p2167
ag90
ag1912
aVthink
p2168
aVthe
p2169
aVmodel
p2170
aVshould
p2171
aVhave
p2172
ag45
aVpercentage
p2173
ag90
ag967
aVcry
p2174
aVHughie
p2175
ag90
aVlaugh
p2176
ag546
aV'they
p2177
aVwork
p2178
aVquite
p2179
ag45
aVhard
p2180
ag45
aVyou
p2181
aVdo
p2182
ag48
ag967
asg49
(lp2183
g51
ag51
ag51
ag51
ag51
ag51
ag51
ag51
ag51
ag51
ag51
ag51
ag51
aVPERSON
p2184
ag51
ag51
ag51
ag51
ag51
ag51
ag51
ag51
ag51
ag51
ag51
ag51
ag51
asg52
(lp2185
g57
ag99
ag157
ag196
ag59
ag60
ag124
ag125
ag59
ag60
ag99
ag991
ag200
ag199
ag99
ag61
ag561
ag57
ag60
ag100
ag54
ag57
ag54
ag157
ag196
ag62
ag991
asg63
V'Well, I think the model should have a percentage,' cried Hughie, laughing; 'they work quite as hard as you do.'
p2186
sba(i__main__
Sentence
p2187
(dp2188
g17
I59
sg18
(lp2189
S"'Nonsense"
p2190
aS','
p2191
aS'nonsense'
p2192
aS'!'
p2193
asg34
(lp2194
V'Nonsense
p2195
ag90
aVnonsense
p2196
ag211
asg49
(lp2197
g51
ag51
ag51
ag51
asg52
(lp2198
g57
ag99
ag60
ag62
asg63
V'Nonsense, nonsense!
p2199
sba(i__main__
Sentence
p2200
(dp2201
g17
I60
sg18
(lp2202
S'Why'
p2203
aS','
p2204
aS'look'
p2205
aS'at'
p2206
aS'the'
p2207
aS'trouble'
p2208
aS'of'
p2209
aS'laying'
p2210
aS'on'
p2211
aS'the'
p2212
aS'paint'
p2213
aS'alone'
p2214
aS','
p2215
aS'and'
p2216
aS'standing'
p2217
aS'all'
p2218
aS'day'
p2219
aS'long'
p2220
aS'at'
p2221
aS'one'
p2222
aS"'s"
p2223
aS'easel'
p2224
aS'!'
p2225
asg34
(lp2226
VWhy
p2227
ag90
aVlook
p2228
aVat
p2229
aVthe
p2230
aVtrouble
p2231
aVof
p2232
aVlay
p2233
aVon
p2234
aVthe
p2235
aVpaint
p2236
aValone
p2237
ag90
aVand
p2238
aVstanding
p2239
aVall
p2240
aVday
p2241
aVlong
p2242
aVat
p2243
aVone
p2244
aV's
p2245
aVeasel
p2246
ag211
asg49
(lp2247
g51
ag51
ag51
ag51
ag51
ag51
ag51
ag51
ag51
ag51
ag51
ag51
ag51
ag51
ag51
ag51
ag51
ag51
ag51
ag51
ag51
ag51
ag51
asg52
(lp2248
g990
ag99
ag196
ag54
ag59
ag60
ag54
ag61
ag54
ag59
ag60
ag60
ag99
ag126
ag60
ag59
ag60
ag100
ag54
ag55
ag493
ag60
ag62
asg63
VWhy, look at the trouble of laying on the paint alone, and standing all day long at one's easel!
p2249
sba(i__main__
Sentence
p2250
(dp2251
g17
I61
sg18
(lp2252
S'It'
p2253
aS"'s"
p2254
aS'all'
p2255
aS'very'
p2256
aS'well'
p2257
aS','
p2258
aS'Hughie'
p2259
aS','
p2260
aS'for'
p2261
aS'you'
p2262
aS'to'
p2263
aS'talk'
p2264
aS','
p2265
aS'but'
p2266
aS'I'
p2267
aS'assure'
p2268
aS'you'
p2269
aS'that'
p2270
aS'there'
p2271
aS'are'
p2272
aS'moments'
p2273
aS'when'
p2274
aS'Art'
p2275
aS'almost'
p2276
aS'attains'
p2277
aS'to'
p2278
aS'the'
p2279
aS'dignity'
p2280
aS'of'
p2281
aS'manual'
p2282
aS'labour'
p2283
aS'.'
p2284
asg34
(lp2285
VIt
p2286
aV's
p2287
aVall
p2288
aVvery
p2289
aVwell
p2290
ag90
aVHughie
p2291
ag90
aVfor
p2292
aVyou
p2293
aVto
p2294
aVtalk
p2295
ag90
aVbut
p2296
ag1912
aVassure
p2297
aVyou
p2298
aVthat
p2299
aVthere
p2300
ag180
aVmoment
p2301
aVwhen
p2302
aVArt
p2303
aValmost
p2304
aVattain
p2305
aVto
p2306
aVthe
p2307
aVdignity
p2308
aVof
p2309
aVmanual
p2310
aVlabour
p2311
ag48
asg49
(lp2312
g51
ag51
ag51
ag51
ag51
ag51
aVPERSON
p2313
ag51
ag51
ag51
ag51
ag51
ag51
ag51
ag51
ag51
ag51
ag51
ag51
ag51
ag51
ag51
ag51
ag51
ag51
ag51
ag51
ag51
ag51
ag51
ag51
ag51
asg52
(lp2314
g157
ag56
ag59
ag100
ag100
ag99
ag199
ag99
ag54
ag157
ag159
ag125
ag99
ag126
ag157
ag196
ag157
ag54
ag58
ag196
ag197
ag990
ag199
ag100
ag56
ag159
ag59
ag60
ag54
ag57
ag60
ag62
asg63
VIt's all very well, Hughie, for you to talk, but I assure you that there are moments when Art almost attains to the dignity of manual labour.
p2315
sba(i__main__
Sentence
p2316
(dp2317
g17
I62
sg18
(lp2318
S'But'
p2319
aS'you'
p2320
aS'must'
p2321
aS"n't"
p2322
aS'chatter'
p2323
aS';'
p2324
aS'I'
p2325
aS"'m"
p2326
aS'very'
p2327
aS'busy'
p2328
aS'.'
p2329
asg34
(lp2330
VBut
p2331
aVyou
p2332
aVmust
p2333
aVn't
p2334
aVchatter
p2335
ag546
ag1912
aV'm
p2336
aVvery
p2337
aVbusy
p2338
ag48
asg49
(lp2339
g51
ag51
ag51
ag51
ag51
ag51
ag51
ag51
ag51
ag51
ag51
asg52
(lp2340
g126
ag157
ag124
ag100
ag125
ag561
ag157
ag196
ag100
ag57
ag62
asg63
VBut you mustn't chatter; I'm very busy.
p2341
sba(i__main__
Sentence
p2342
(dp2343
g17
I63
sg18
(lp2344
S'Smoke'
p2345
aS'a'
p2346
aS'cigarette'
p2347
aS','
p2348
aS'and'
p2349
aS'keep'
p2350
aS'quiet'
p2351
aS'.'
p2352
aS"'"
p2353
asg34
(lp2354
VSmoke
p2355
ag45
aVcigarette
p2356
ag90
aVand
p2357
aVkeep
p2358
aVquiet
p2359
ag48
ag967
asg49
(lp2360
g51
ag51
ag51
ag51
ag51
ag51
ag51
ag51
ag51
asg52
(lp2361
g199
ag59
ag60
ag99
ag126
ag125
ag57
ag62
ag991
asg63
VSmoke a cigarette, and keep quiet.'
p2362
sba(i__main__
Sentence
p2363
(dp2364
g17
I64
sg18
(lp2365
S'After'
p2366
aS'some'
p2367
aS'time'
p2368
aS'the'
p2369
aS'servant'
p2370
aS'came'
p2371
aS'in'
p2372
aS','
p2373
aS'and'
p2374
aS'told'
p2375
aS'Trevor'
p2376
aS'that'
p2377
aS'the'
p2378
aS'frame-maker'
p2379
aS'wanted'
p2380
aS'to'
p2381
aS'speak'
p2382
aS'to'
p2383
aS'him'
p2384
aS'.'
p2385
asg34
(lp2386
VAfter
p2387
aVsome
p2388
aVtime
p2389
aVthe
p2390
aVservant
p2391
ag1483
aVin
p2392
ag90
aVand
p2393
aVtell
p2394
aVTrevor
p2395
aVthat
p2396
aVthe
p2397
aVframe-maker
p2398
aVwant
p2399
aVto
p2400
aVspeak
p2401
aVto
p2402
aVhim
p2403
ag48
asg49
(lp2404
g51
ag51
ag51
ag51
ag51
ag51
ag51
ag51
ag51
ag51
aVPERSON
p2405
ag51
ag51
ag51
ag51
ag51
ag51
ag51
ag51
ag51
asg52
(lp2406
g54
ag59
ag60
ag59
ag60
ag200
ag54
ag99
ag126
ag200
ag199
ag54
ag59
ag60
ag200
ag159
ag125
ag159
ag157
ag62
asg63
VAfter some time the servant came in, and told Trevor that the frame-maker wanted to speak to him.
p2407
sba(i__main__
Sentence
p2408
(dp2409
g17
I65
sg18
(lp2410
S"'Do"
p2411
aS"n't"
p2412
aS'run'
p2413
aS'away'
p2414
aS','
p2415
aS'Hughie'
p2416
aS','
p2417
aS"'"
p2418
aS'he'
p2419
aS'said'
p2420
aS','
p2421
aS'as'
p2422
aS'he'
p2423
aS'went'
p2424
aS'out'
p2425
aS','
p2426
aS"'I"
p2427
aS'will'
p2428
aS'be'
p2429
aS'back'
p2430
aS'in'
p2431
aS'a'
p2432
aS'moment'
p2433
aS'.'
p2434
aS"'"
p2435
asg34
(lp2436
V'Do
p2437
aVn't
p2438
aVrun
p2439
aVaway
p2440
ag90
aVHughie
p2441
ag90
ag967
aVhe
p2442
ag265
ag90
ag45
aVhe
p2443
aVgo
p2444
aVout
p2445
ag90
aV'I
p2446
aVwill
p2447
aVbe
p2448
aVback
p2449
aVin
p2450
ag45
aVmoment
p2451
ag48
ag967
asg49
(lp2452
g51
ag51
ag51
ag51
ag51
aVPERSON
p2453
ag51
ag51
ag51
ag51
ag51
ag51
ag51
ag51
ag51
ag51
ag51
ag51
ag51
ag51
ag51
ag51
ag51
ag51
ag51
asg52
(lp2454
g60
ag100
ag101
ag100
ag99
ag199
ag99
ag991
ag157
ag200
ag99
ag54
ag157
ag200
ag54
ag99
ag199
ag124
ag125
ag100
ag54
ag59
ag60
ag62
ag991
asg63
V'Don't run away, Hughie,' he said, as he went out, 'I will be back in a moment.'
p2455
sba(i__main__
Sentence
p2456
(dp2457
g17
I66
sg18
(lp2458
S'The'
p2459
aS'old'
p2460
aS'beggar-man'
p2461
aS'took'
p2462
aS'advantage'
p2463
aS'of'
p2464
aS'Trevor'
p2465
aS"'s"
p2466
aS'absence'
p2467
aS'to'
p2468
aS'rest'
p2469
aS'for'
p2470
aS'a'
p2471
aS'moment'
p2472
aS'on'
p2473
aS'a'
p2474
aS'wooden'
p2475
aS'bench'
p2476
aS'that'
p2477
aS'was'
p2478
aS'behind'
p2479
aS'him'
p2480
aS'.'
p2481
asg34
(lp2482
VThe
p2483
aVold
p2484
aVbeggar-man
p2485
ag1192
aVadvantage
p2486
aVof
p2487
aVTrevor
p2488
aV's
p2489
aVabsence
p2490
aVto
p2491
aVrest
p2492
aVfor
p2493
ag45
aVmoment
p2494
aVon
p2495
ag45
aVwooden
p2496
aVbench
p2497
aVthat
p2498
ag237
aVbehind
p2499
aVhim
p2500
ag48
asg49
(lp2501
g51
ag51
ag51
ag51
ag51
ag51
aVPERSON
p2502
ag51
ag51
ag51
ag51
ag51
ag51
ag51
ag51
ag51
ag51
ag51
ag51
ag51
ag51
ag51
ag51
asg52
(lp2503
g59
ag57
ag60
ag200
ag60
ag54
ag199
ag493
ag60
ag159
ag60
ag54
ag59
ag60
ag54
ag59
ag60
ag60
ag198
ag200
ag196
ag157
ag62
asg63
VThe old beggar-man took advantage of Trevor's absence to rest for a moment on a wooden bench that was behind him.
p2504
sba(i__main__
Sentence
p2505
(dp2506
g17
I67
sg18
(lp2507
S'He'
p2508
aS'looked'
p2509
aS'so'
p2510
aS'forlorn'
p2511
aS'and'
p2512
aS'wretched'
p2513
aS'that'
p2514
aS'Hughie'
p2515
aS'could'
p2516
aS'not'
p2517
aS'help'
p2518
aS'pitying'
p2519
aS'him'
p2520
aS','
p2521
aS'and'
p2522
aS'felt'
p2523
aS'in'
p2524
aS'his'
p2525
aS'pockets'
p2526
aS'to'
p2527
aS'see'
p2528
aS'what'
p2529
aS'money'
p2530
aS'he'
p2531
aS'had'
p2532
aS'.'
p2533
asg34
(lp2534
VHe
p2535
aVlook
p2536
aVso
p2537
aVforlorn
p2538
aVand
p2539
aVwretched
p2540
aVthat
p2541
aVHughie
p2542
aVcould
p2543
aVnot
p2544
aVhelp
p2545
aVpity
p2546
aVhim
p2547
ag90
aVand
p2548
aVfelt
p2549
aVin
p2550
aVhis
p2551
aVpocket
p2552
aVto
p2553
aVsee
p2554
aVwhat
p2555
aVmoney
p2556
aVhe
p2557
ag361
ag48
asg49
(lp2558
g51
ag51
ag51
ag51
ag51
ag51
ag51
aVPERSON
p2559
ag51
ag51
ag51
ag51
ag51
ag51
ag51
ag51
ag51
ag51
ag51
ag51
ag51
ag51
ag51
ag51
ag51
ag51
asg52
(lp2560
g157
ag200
ag100
ag60
ag126
ag200
ag54
ag199
ag124
ag100
ag125
ag61
ag157
ag99
ag126
ag200
ag54
ag277
ag197
ag159
ag125
ag562
ag60
ag157
ag200
ag62
asg63
VHe looked so forlorn and wretched that Hughie could not help pitying him, and felt in his pockets to see what money he had.
p2561
sba(i__main__
Sentence
p2562
(dp2563
g17
I68
sg18
(lp2564
S'All'
p2565
aS'he'
p2566
aS'could'
p2567
aS'find'
p2568
aS'was'
p2569
aS'a'
p2570
aS'sovereign'
p2571
aS'and'
p2572
aS'some'
p2573
aS'coppers'
p2574
aS'.'
p2575
asg34
(lp2576
VAll
p2577
aVhe
p2578
aVcould
p2579
aVfind
p2580
ag237
ag45
aVsovereign
p2581
aVand
p2582
aVsome
p2583
aVcopper
p2584
ag48
asg49
(lp2585
g51
ag51
ag51
ag51
ag51
ag51
ag51
ag51
ag51
ag51
ag51
asg52
(lp2586
g59
ag157
ag124
ag125
ag200
ag59
ag60
ag126
ag59
ag197
ag62
asg63
VAll he could find was a sovereign and some coppers.
p2587
sba(i__main__
Sentence
p2588
(dp2589
g17
I69
sg18
(lp2590
S"'Poor"
p2591
aS'old'
p2592
aS'fellow'
p2593
aS','
p2594
aS"'"
p2595
aS'he'
p2596
aS'thought'
p2597
aS'to'
p2598
aS'himself'
p2599
aS','
p2600
aS"'he"
p2601
aS'wants'
p2602
aS'it'
p2603
aS'more'
p2604
aS'than'
p2605
aS'I'
p2606
aS'do'
p2607
aS','
p2608
aS'but'
p2609
aS'it'
p2610
aS'means'
p2611
aS'no'
p2612
aS'hansoms'
p2613
aS'for'
p2614
aS'a'
p2615
aS'fortnight'
p2616
aS';'
p2617
aS"'"
p2618
aS'and'
p2619
aS'he'
p2620
aS'walked'
p2621
aS'across'
p2622
aS'the'
p2623
aS'studio'
p2624
aS'and'
p2625
aS'slipped'
p2626
aS'the'
p2627
aS'sovereign'
p2628
aS'into'
p2629
aS'the'
p2630
aS'beggar'
p2631
aS"'s"
p2632
aS'hand'
p2633
aS'.'
p2634
asg34
(lp2635
V'Poor
p2636
aVold
p2637
aVfellow
p2638
ag90
ag967
aVhe
p2639
aVthink
p2640
aVto
p2641
aVhimself
p2642
ag90
aV'he
p2643
aVwant
p2644
aVit
p2645
aVmore
p2646
aVthan
p2647
ag1912
aVdo
p2648
ag90
aVbut
p2649
aVit
p2650
aVmean
p2651
aVno
p2652
aVhansom
p2653
aVfor
p2654
ag45
aVfortnight
p2655
ag546
ag967
aVand
p2656
aVhe
p2657
aVwalk
p2658
aVacross
p2659
aVthe
p2660
aVstudio
p2661
aVand
p2662
aVslip
p2663
aVthe
p2664
aVsovereign
p2665
aVinto
p2666
aVthe
p2667
aVbeggar
p2668
aV's
p2669
aVhand
p2670
ag48
asg49
(lp2671
g51
ag51
ag51
ag51
ag51
ag51
ag51
ag51
ag51
ag51
ag51
ag51
ag51
ag51
ag51
ag51
ag51
ag51
ag51
ag51
ag51
ag51
ag51
ag51
ag51
ag51
ag51
ag51
ag51
ag51
ag51
ag51
ag51
ag51
ag51
ag51
ag51
ag51
ag51
ag51
ag51
ag51
ag51
ag51
asg52
(lp2672
g57
ag57
ag60
ag99
ag991
ag157
ag200
ag159
ag157
ag99
ag199
ag56
ag157
ag715
ag54
ag157
ag196
ag99
ag126
ag157
ag56
ag59
ag197
ag54
ag59
ag60
ag561
ag991
ag126
ag157
ag200
ag54
ag59
ag60
ag126
ag200
ag59
ag60
ag54
ag59
ag60
ag493
ag60
ag62
asg63
V'Poor old fellow,' he thought to himself, 'he wants it more than I do, but it means no hansoms for a fortnight;' and he walked across the studio and slipped the sovereign into the beggar's hand.
p2673
sba(i__main__
Sentence
p2674
(dp2675
g17
I70
sg18
(lp2676
S'The'
p2677
aS'old'
p2678
aS'man'
p2679
aS'started'
p2680
aS','
p2681
aS'and'
p2682
aS'a'
p2683
aS'faint'
p2684
aS'smile'
p2685
aS'flitted'
p2686
aS'across'
p2687
aS'his'
p2688
aS'withered'
p2689
aS'lips'
p2690
aS'.'
p2691
asg34
(lp2692
VThe
p2693
aVold
p2694
aVman
p2695
aVstart
p2696
ag90
aVand
p2697
ag45
aVfaint
p2698
aVsmile
p2699
aVflit
p2700
aVacross
p2701
aVhis
p2702
aVwither
p2703
aVlip
p2704
ag48
asg49
(lp2705
g51
ag51
ag51
ag51
ag51
ag51
ag51
ag51
ag51
ag51
ag51
ag51
ag51
ag51
ag51
asg52
(lp2706
g59
ag57
ag60
ag200
ag99
ag126
ag59
ag60
ag60
ag200
ag54
ag277
ag101
ag197
ag62
asg63
VThe old man started, and a faint smile flitted across his withered lips.
p2707
sba(i__main__
Sentence
p2708
(dp2709
g17
I71
sg18
(lp2710
S"'Thank"
p2711
aS'you'
p2712
aS','
p2713
aS'sir'
p2714
aS','
p2715
aS"'"
p2716
aS'he'
p2717
aS'said'
p2718
aS','
p2719
aS"'thank"
p2720
aS'you'
p2721
aS'.'
p2722
aS"'"
p2723
asg34
(lp2724
V'Thank
p2725
aVyou
p2726
ag90
aVsir
p2727
ag90
ag967
aVhe
p2728
ag265
ag90
aV'thank
p2729
aVyou
p2730
ag48
ag967
asg49
(lp2731
g51
ag51
ag51
ag51
ag51
ag51
ag51
ag51
ag51
ag51
ag51
ag51
ag51
asg52
(lp2732
g60
ag157
ag99
ag196
ag99
ag991
ag157
ag200
ag99
ag57
ag157
ag62
ag991
asg63
V'Thank you, sir,' he said, 'thank you.'
p2733
sba(i__main__
Sentence
p2734
(dp2735
g17
I72
sg18
(lp2736
S'Then'
p2737
aS'Trevor'
p2738
aS'arrived'
p2739
aS','
p2740
aS'and'
p2741
aS'Hughie'
p2742
aS'took'
p2743
aS'his'
p2744
aS'leave'
p2745
aS','
p2746
aS'blushing'
p2747
aS'a'
p2748
aS'little'
p2749
aS'at'
p2750
aS'what'
p2751
aS'he'
p2752
aS'had'
p2753
aS'done'
p2754
aS'.'
p2755
asg34
(lp2756
VThen
p2757
aVTrevor
p2758
aVarrive
p2759
ag90
aVand
p2760
aVHughie
p2761
ag1192
aVhis
p2762
aVleave
p2763
ag90
aVblush
p2764
ag45
aVlittle
p2765
aVat
p2766
aVwhat
p2767
aVhe
p2768
ag361
aVdo
p2769
ag48
asg49
(lp2770
g51
aVPERSON
p2771
ag51
ag51
ag51
aVPERSON
p2772
ag51
ag51
ag51
ag51
ag51
ag51
ag51
ag51
ag51
ag51
ag51
ag51
ag51
asg52
(lp2773
g100
ag199
ag200
ag99
ag126
ag199
ag200
ag277
ag60
ag99
ag61
ag59
ag100
ag54
ag562
ag157
ag200
ag101
ag62
asg63
VThen Trevor arrived, and Hughie took his leave, blushing a little at what he had done.
p2774
sba(i__main__
Sentence
p2775
(dp2776
g17
I73
sg18
(lp2777
S'He'
p2778
aS'spent'
p2779
aS'the'
p2780
aS'day'
p2781
aS'with'
p2782
aS'Laura'
p2783
aS','
p2784
aS'got'
p2785
aS'a'
p2786
aS'charming'
p2787
aS'scolding'
p2788
aS'for'
p2789
aS'his'
p2790
aS'extravagance'
p2791
aS','
p2792
aS'and'
p2793
aS'had'
p2794
aS'to'
p2795
aS'walk'
p2796
aS'home'
p2797
aS'.'
p2798
asg34
(lp2799
VHe
p2800
aVspend
p2801
aVthe
p2802
aVday
p2803
aVwith
p2804
aVLaura
p2805
ag90
ag954
ag45
aVcharming
p2806
aVscold
p2807
aVfor
p2808
aVhis
p2809
aVextravagance
p2810
ag90
aVand
p2811
ag361
aVto
p2812
aVwalk
p2813
aVhome
p2814
ag48
asg49
(lp2815
g51
ag51
ag51
ag51
ag51
aVPERSON
p2816
ag51
ag51
ag51
ag51
ag51
ag51
ag51
ag51
ag51
ag51
ag51
ag51
ag51
ag51
ag51
asg52
(lp2817
g157
ag200
ag59
ag60
ag54
ag199
ag99
ag200
ag59
ag60
ag61
ag54
ag277
ag60
ag99
ag126
ag200
ag159
ag125
ag60
ag62
asg63
VHe spent the day with Laura, got a charming scolding for his extravagance, and had to walk home.
p2818
sba(i__main__
Sentence
p2819
(dp2820
g17
I74
sg18
(lp2821
S'That'
p2822
aS'night'
p2823
aS'he'
p2824
aS'strolled'
p2825
aS'into'
p2826
aS'the'
p2827
aS'Palette'
p2828
aS'Club'
p2829
aS'about'
p2830
aS'eleven'
p2831
aS"o'clock"
p2832
aS','
p2833
aS'and'
p2834
aS'found'
p2835
aS'Trevor'
p2836
aS'sitting'
p2837
aS'by'
p2838
aS'himself'
p2839
aS'in'
p2840
aS'the'
p2841
aS'smoking-room'
p2842
aS'drinking'
p2843
aS'hock'
p2844
aS'and'
p2845
aS'seltzer'
p2846
aS'.'
p2847
asg34
(lp2848
VThat
p2849
aVnight
p2850
aVhe
p2851
aVstroll
p2852
aVinto
p2853
aVthe
p2854
aVPalette
p2855
aVClub
p2856
aVabout
p2857
aVeleven
p2858
aVo'clock
p2859
ag90
aVand
p2860
ag777
aVTrevor
p2861
aVsitting
p2862
aVby
p2863
aVhimself
p2864
aVin
p2865
aVthe
p2866
aVsmoking-room
p2867
aVdrink
p2868
aVhock
p2869
aVand
p2870
aVseltzer
p2871
ag48
asg49
(lp2872
g51
ag51
ag51
ag51
ag51
ag51
aVORGANIZATION
p2873
aVORGANIZATION
p2874
ag51
ag51
ag51
ag51
ag51
ag51
aVPERSON
p2875
ag51
ag51
ag51
ag51
ag51
ag51
ag51
ag51
ag51
ag51
ag51
asg52
(lp2876
g59
ag60
ag157
ag200
ag54
ag59
ag199
ag199
ag54
ag55
ag60
ag99
ag126
ag101
ag199
ag60
ag54
ag157
ag54
ag59
ag60
ag61
ag60
ag126
ag60
ag62
asg63
VThat night he strolled into the Palette Club about eleven o'clock, and found Trevor sitting by himself in the smoking-room drinking hock and seltzer.
p2877
sba(i__main__
Sentence
p2878
(dp2879
g17
I75
sg18
(lp2880
S"'Well"
p2881
aS','
p2882
aS'Alan'
p2883
aS','
p2884
aS'did'
p2885
aS'you'
p2886
aS'get'
p2887
aS'the'
p2888
aS'picture'
p2889
aS'finished'
p2890
aS'all'
p2891
aS'right'
p2892
aS'?'
p2893
aS"'"
p2894
asg34
(lp2895
V'Well
p2896
ag90
aVAlan
p2897
ag90
ag641
aVyou
p2898
aVget
p2899
aVthe
p2900
aVpicture
p2901
aVfinish
p2902
aVall
p2903
aVright
p2904
ag556
ag967
asg49
(lp2905
g51
ag51
aVPERSON
p2906
ag51
ag51
ag51
ag51
ag51
ag51
ag51
ag51
ag51
ag51
ag51
asg52
(lp2907
g57
ag99
ag199
ag99
ag200
ag157
ag125
ag59
ag60
ag200
ag59
ag60
ag62
ag991
asg63
V'Well, Alan, did you get the picture finished all right?'
p2908
sba(i__main__
Sentence
p2909
(dp2910
g17
I76
sg18
(lp2911
S'he'
p2912
aS'said'
p2913
aS','
p2914
aS'as'
p2915
aS'he'
p2916
aS'lit'
p2917
aS'his'
p2918
aS'cigarette'
p2919
aS'.'
p2920
asg34
(lp2921
Vhe
p2922
ag265
ag90
ag45
aVhe
p2923
aVlight
p2924
aVhis
p2925
aVcigarette
p2926
ag48
asg49
(lp2927
g51
ag51
ag51
ag51
ag51
ag51
ag51
ag51
ag51
asg52
(lp2928
g157
ag200
ag99
ag54
ag157
ag200
ag277
ag60
ag62
asg63
Vhe said, as he lit his cigarette.
p2929
sba(i__main__
Sentence
p2930
(dp2931
g17
I77
sg18
(lp2932
S"'Finished"
p2933
aS'and'
p2934
aS'framed'
p2935
aS','
p2936
aS'my'
p2937
aS'boy'
p2938
aS'!'
p2939
aS"'"
p2940
asg34
(lp2941
V'Finished
p2942
aVand
p2943
aVframe
p2944
ag90
aVmy
p2945
aVboy
p2946
ag211
ag967
asg49
(lp2947
g51
ag51
ag51
ag51
ag51
ag51
ag51
ag51
asg52
(lp2948
g57
ag126
ag200
ag99
ag277
ag60
ag62
ag991
asg63
V'Finished and framed, my boy!'
p2949
sba(i__main__
Sentence
p2950
(dp2951
g17
I78
sg18
(lp2952
S'answered'
p2953
aS'Trevor'
p2954
aS';'
p2955
aS"'and"
p2956
aS','
p2957
aS'by-the-bye'
p2958
aS','
p2959
aS'you'
p2960
aS'have'
p2961
aS'made'
p2962
aS'a'
p2963
aS'conquest'
p2964
aS'.'
p2965
asg34
(lp2966
Vanswer
p2967
aVTrevor
p2968
ag546
aV'and
p2969
ag90
aVby-the-bye
p2970
ag90
aVyou
p2971
aVhave
p2972
ag1850
ag45
aVconquest
p2973
ag48
asg49
(lp2974
g51
aVPERSON
p2975
ag51
ag51
ag51
ag51
ag51
ag51
ag51
ag51
ag51
ag51
ag51
asg52
(lp2976
g200
ag199
ag561
ag199
ag99
ag57
ag99
ag157
ag196
ag101
ag59
ag60
ag62
asg63
Vanswered Trevor; 'and, by-the-bye, you have made a conquest.
p2977
sba(i__main__
Sentence
p2978
(dp2979
g17
I79
sg18
(lp2980
S'That'
p2981
aS'old'
p2982
aS'model'
p2983
aS'you'
p2984
aS'saw'
p2985
aS'is'
p2986
aS'quite'
p2987
aS'devoted'
p2988
aS'to'
p2989
aS'you'
p2990
aS'.'
p2991
asg34
(lp2992
VThat
p2993
aVold
p2994
aVmodel
p2995
aVyou
p2996
aVsaw
p2997
ag38
aVquite
p2998
aVdevote
p2999
aVto
p3000
aVyou
p3001
ag48
asg49
(lp3002
g51
ag51
ag51
ag51
ag51
ag51
ag51
ag51
ag51
ag51
ag51
asg52
(lp3003
g59
ag57
ag60
ag157
ag200
ag56
ag100
ag101
ag159
ag157
ag62
asg63
VThat old model you saw is quite devoted to you.
p3004
sba(i__main__
Sentence
p3005
(dp3006
g17
I80
sg18
(lp3007
S'I'
p3008
aS'had'
p3009
aS'to'
p3010
aS'tell'
p3011
aS'him'
p3012
aS'all'
p3013
aS'about'
p3014
aS'you'
p3015
aS'-'
p3016
aS'who'
p3017
aS'you'
p3018
aS'are'
p3019
aS','
p3020
aS'where'
p3021
aS'you'
p3022
aS'live'
p3023
aS','
p3024
aS'what'
p3025
aS'your'
p3026
aS'income'
p3027
aS'is'
p3028
aS','
p3029
aS'what'
p3030
aS'prospects'
p3031
aS'you'
p3032
aS'have'
p3033
aS'--'
p3034
aS"'"
p3035
aS"'My"
p3036
aS'dear'
p3037
aS'Alan'
p3038
aS','
p3039
aS"'"
p3040
aS'cried'
p3041
aS'Hughie'
p3042
aS','
p3043
aS"'I"
p3044
aS'shall'
p3045
aS'probably'
p3046
aS'find'
p3047
aS'him'
p3048
aS'waiting'
p3049
aS'for'
p3050
aS'me'
p3051
aS'when'
p3052
aS'I'
p3053
aS'go'
p3054
aS'home'
p3055
aS'.'
p3056
asg34
(lp3057
g1912
ag361
aVto
p3058
aVtell
p3059
aVhim
p3060
aVall
p3061
aVabout
p3062
aVyou
p3063
aV-
p3064
aVwho
p3065
aVyou
p3066
ag180
ag90
aVwhere
p3067
aVyou
p3068
aVlive
p3069
ag90
aVwhat
p3070
aVyour
p3071
aVincome
p3072
ag38
ag90
aVwhat
p3073
aVprospect
p3074
aVyou
p3075
aVhave
p3076
aV--
p3077
ag967
aV'My
p3078
aVdear
p3079
aVAlan
p3080
ag90
ag967
ag2174
aVHughie
p3081
ag90
aV'I
p3082
aVshall
p3083
aVprobably
p3084
aVfind
p3085
aVhim
p3086
aVwait
p3087
aVfor
p3088
aVme
p3089
aVwhen
p3090
ag1912
aVgo
p3091
aVhome
p3092
ag48
asg49
(lp3093
g51
ag51
ag51
ag51
ag51
ag51
ag51
ag51
ag51
ag51
ag51
ag51
ag51
ag51
ag51
ag51
ag51
ag51
ag51
ag51
ag51
ag51
ag51
ag51
ag51
ag51
ag51
ag51
ag51
ag51
aVPERSON
p3094
ag51
ag51
ag51
aVPERSON
p3095
ag51
ag51
ag51
ag51
ag51
ag51
ag51
ag51
ag51
ag51
ag51
ag51
ag51
ag51
asg52
(lp3096
g157
ag200
ag159
ag125
ag157
ag59
ag54
ag157
ag561
ag562
ag157
ag196
ag99
ag990
ag157
ag196
ag99
ag562
ag277
ag60
ag56
ag99
ag562
ag197
ag157
ag196
ag561
ag991
ag57
ag60
ag199
ag99
ag991
ag200
ag199
ag99
ag199
ag124
ag100
ag125
ag157
ag61
ag54
ag157
ag990
ag157
ag196
ag100
ag62
asg63
VI had to tell him all about you - who you are, where you live, what your income is, what prospects you have--'    'My dear Alan,' cried Hughie, 'I shall probably find him waiting for me when I go home.
p3097
sba(i__main__
Sentence
p3098
(dp3099
g17
I81
sg18
(lp3100
S'But'
p3101
aS'of'
p3102
aS'course'
p3103
aS'you'
p3104
aS'are'
p3105
aS'only'
p3106
aS'joking'
p3107
aS'.'
p3108
asg34
(lp3109
VBut
p3110
aVof
p3111
aVcourse
p3112
aVyou
p3113
ag180
aVonly
p3114
aVjoke
p3115
ag48
asg49
(lp3116
g51
ag51
ag51
ag51
ag51
ag51
ag51
ag51
asg52
(lp3117
g126
ag54
ag60
ag157
ag196
ag100
ag61
ag62
asg63
VBut of course you are only joking.
p3118
sba(i__main__
Sentence
p3119
(dp3120
g17
I82
sg18
(lp3121
S'Poor'
p3122
aS'old'
p3123
aS'wretch'
p3124
aS'!'
p3125
asg34
(lp3126
VPoor
p3127
aVold
p3128
aVwretch
p3129
ag211
asg49
(lp3130
g51
ag51
ag51
ag51
asg52
(lp3131
g199
ag200
ag60
ag62
asg63
VPoor old wretch!
p3132
sba(i__main__
Sentence
p3133
(dp3134
g17
I83
sg18
(lp3135
S'I'
p3136
aS'wish'
p3137
aS'I'
p3138
aS'could'
p3139
aS'do'
p3140
aS'something'
p3141
aS'for'
p3142
aS'him'
p3143
aS'.'
p3144
asg34
(lp3145
g1912
aVwish
p3146
ag1912
aVcould
p3147
aVdo
p3148
aVsomething
p3149
aVfor
p3150
aVhim
p3151
ag48
asg49
(lp3152
g51
ag51
ag51
ag51
ag51
ag51
ag51
ag51
ag51
asg52
(lp3153
g157
ag196
ag157
ag124
ag125
ag60
ag54
ag157
ag62
asg63
VI wish I could do something for him.
p3154
sba(i__main__
Sentence
p3155
(dp3156
g17
I84
sg18
(lp3157
S'I'
p3158
aS'think'
p3159
aS'it'
p3160
aS'is'
p3161
aS'dreadful'
p3162
aS'that'
p3163
aS'any'
p3164
aS'one'
p3165
aS'should'
p3166
aS'be'
p3167
aS'so'
p3168
aS'miserable'
p3169
aS'.'
p3170
asg34
(lp3171
g1912
aVthink
p3172
aVit
p3173
ag38
aVdreadful
p3174
aVthat
p3175
aVany
p3176
aVone
p3177
aVshould
p3178
aVbe
p3179
aVso
p3180
aVmiserable
p3181
ag48
asg49
(lp3182
g51
ag51
ag51
ag51
ag51
ag51
ag51
ag51
ag51
ag51
ag51
ag51
ag51
asg52
(lp3183
g157
ag196
ag157
ag56
ag57
ag54
ag59
ag55
ag124
ag125
ag100
ag57
ag62
asg63
VI think it is dreadful that any one should be so miserable.
p3184
sba(i__main__
Sentence
p3185
(dp3186
g17
I85
sg18
(lp3187
S'I'
p3188
aS'have'
p3189
aS'got'
p3190
aS'heaps'
p3191
aS'of'
p3192
aS'old'
p3193
aS'clothes'
p3194
aS'at'
p3195
aS'home'
p3196
aS'-'
p3197
aS'do'
p3198
aS'you'
p3199
aS'think'
p3200
aS'he'
p3201
aS'would'
p3202
aS'care'
p3203
aS'for'
p3204
aS'any'
p3205
aS'of'
p3206
aS'them'
p3207
aS'?'
p3208
asg34
(lp3209
g1912
aVhave
p3210
ag954
aVheap
p3211
aVof
p3212
aVold
p3213
aVclothes
p3214
aVat
p3215
aVhome
p3216
ag3064
aVdo
p3217
aVyou
p3218
aVthink
p3219
aVhe
p3220
aVwould
p3221
aVcare
p3222
aVfor
p3223
aVany
p3224
aVof
p3225
aVthem
p3226
ag556
asg49
(lp3227
g51
ag51
ag51
ag51
ag51
ag51
ag51
ag51
ag51
ag51
ag51
ag51
ag51
ag51
ag51
ag51
ag51
ag51
ag51
ag51
ag51
asg52
(lp3228
g157
ag196
ag101
ag197
ag54
ag57
ag197
ag54
ag60
ag561
ag196
ag157
ag125
ag157
ag124
ag125
ag54
ag59
ag54
ag157
ag62
asg63
VI have got heaps of old clothes at home - do you think he would care for any of them?
p3229
sba(i__main__
Sentence
p3230
(dp3231
g17
I86
sg18
(lp3232
S'Why'
p3233
aS','
p3234
aS'his'
p3235
aS'rags'
p3236
aS'were'
p3237
aS'falling'
p3238
aS'to'
p3239
aS'bits'
p3240
aS'.'
p3241
aS"'"
p3242
asg34
(lp3243
VWhy
p3244
ag90
aVhis
p3245
aVrag
p3246
ag840
aVfall
p3247
aVto
p3248
aVbit
p3249
ag48
ag967
asg49
(lp3250
g51
ag51
ag51
ag51
ag51
ag51
ag51
ag51
ag51
ag51
asg52
(lp3251
g990
ag99
ag277
ag197
ag200
ag61
ag159
ag197
ag62
ag991
asg63
VWhy, his rags were falling to bits.'
p3252
sba(i__main__
Sentence
p3253
(dp3254
g17
I87
sg18
(lp3255
S"'But"
p3256
aS'he'
p3257
aS'looks'
p3258
aS'splendid'
p3259
aS'in'
p3260
aS'them'
p3261
aS','
p3262
aS"'"
p3263
aS'said'
p3264
aS'Trevor'
p3265
aS'.'
p3266
asg34
(lp3267
V'But
p3268
aVhe
p3269
aVlook
p3270
aVsplendid
p3271
aVin
p3272
aVthem
p3273
ag90
ag967
ag265
aVTrevor
p3274
ag48
asg49
(lp3275
g51
ag51
ag51
ag51
ag51
ag51
ag51
ag51
ag51
aVPERSON
p3276
ag51
asg52
(lp3277
g57
ag157
ag56
ag57
ag54
ag157
ag99
ag991
ag200
ag199
ag62
asg63
V'But he looks splendid in them,' said Trevor.
p3278
sba(i__main__
Sentence
p3279
(dp3280
g17
I88
sg18
(lp3281
S"'I"
p3282
aS'would'
p3283
aS"n't"
p3284
aS'paint'
p3285
aS'him'
p3286
aS'in'
p3287
aS'a'
p3288
aS'frock-coat'
p3289
aS'for'
p3290
aS'anything'
p3291
aS'.'
p3292
asg34
(lp3293
V'I
p3294
aVwould
p3295
aVn't
p3296
aVpaint
p3297
aVhim
p3298
aVin
p3299
ag45
aVfrock-coat
p3300
aVfor
p3301
aVanything
p3302
ag48
asg49
(lp3303
g51
ag51
ag51
ag51
ag51
ag51
ag51
ag51
ag51
ag51
ag51
asg52
(lp3304
g60
ag124
ag100
ag125
ag157
ag54
ag59
ag57
ag54
ag60
ag62
asg63
V'I wouldn't paint him in a frock-coat for anything.
p3305
sba(i__main__
Sentence
p3306
(dp3307
g17
I89
sg18
(lp3308
S'What'
p3309
aS'you'
p3310
aS'call'
p3311
aS'rags'
p3312
aS'I'
p3313
aS'call'
p3314
aS'romance'
p3315
aS'.'
p3316
asg34
(lp3317
VWhat
p3318
aVyou
p3319
aVcall
p3320
aVrag
p3321
ag1912
aVcall
p3322
aVromance
p3323
ag48
asg49
(lp3324
g51
ag51
ag51
ag51
ag51
ag51
ag51
ag51
asg52
(lp3325
g562
ag157
ag196
ag197
ag157
ag196
ag60
ag62
asg63
VWhat you call rags I call romance.
p3326
sba(i__main__
Sentence
p3327
(dp3328
g17
I90
sg18
(lp3329
S'What'
p3330
aS'seems'
p3331
aS'poverty'
p3332
aS'to'
p3333
aS'you'
p3334
aS'is'
p3335
aS'picturesqueness'
p3336
aS'to'
p3337
aS'me'
p3338
aS'.'
p3339
asg34
(lp3340
VWhat
p3341
aVseem
p3342
aVpoverty
p3343
aVto
p3344
aVyou
p3345
ag38
aVpicturesqueness
p3346
aVto
p3347
aVme
p3348
ag48
asg49
(lp3349
g51
ag51
ag51
ag51
ag51
ag51
ag51
ag51
ag51
ag51
asg52
(lp3350
g562
ag56
ag60
ag159
ag157
ag56
ag57
ag159
ag157
ag62
asg63
VWhat seems poverty to you is picturesqueness to me.
p3351
sba(i__main__
Sentence
p3352
(dp3353
g17
I91
sg18
(lp3354
S'However'
p3355
aS','
p3356
aS'I'
p3357
aS"'ll"
p3358
aS'tell'
p3359
aS'him'
p3360
aS'of'
p3361
aS'your'
p3362
aS'offer'
p3363
aS'.'
p3364
aS"'"
p3365
asg34
(lp3366
VHowever
p3367
ag90
ag1912
aV'll
p3368
aVtell
p3369
aVhim
p3370
aVof
p3371
aVyour
p3372
aVoffer
p3373
ag48
ag967
asg49
(lp3374
g51
ag51
ag51
ag51
ag51
ag51
ag51
ag51
ag51
ag51
ag51
asg52
(lp3375
g100
ag99
ag157
ag124
ag125
ag157
ag54
ag277
ag60
ag62
ag991
asg63
VHowever, I'll tell him of your offer.'
p3376
sba(i__main__
Sentence
p3377
(dp3378
g17
I92
sg18
(lp3379
S"'Alan"
p3380
aS','
p3381
aS"'"
p3382
aS'said'
p3383
aS'Hughie'
p3384
aS'seriously'
p3385
aS','
p3386
aS"'you"
p3387
aS'painters'
p3388
aS'are'
p3389
aS'a'
p3390
aS'heartless'
p3391
aS'lot'
p3392
aS'.'
p3393
aS"'"
p3394
asg34
(lp3395
V'Alan
p3396
ag90
ag967
ag265
aVHughie
p3397
aVseriously
p3398
ag90
aV'you
p3399
aVpainter
p3400
ag180
ag45
aVheartless
p3401
aVlot
p3402
ag48
ag967
asg49
(lp3403
g51
ag51
ag51
ag51
aVPERSON
p3404
ag51
ag51
ag51
ag51
ag51
ag51
ag51
ag51
ag51
ag51
asg52
(lp3405
g57
ag99
ag991
ag200
ag199
ag100
ag99
ag157
ag197
ag196
ag59
ag60
ag60
ag62
ag991
asg63
V'Alan,' said Hughie seriously, 'you painters are a heartless lot.'
p3406
sba(i__main__
Sentence
p3407
(dp3408
g17
I93
sg18
(lp3409
S"'An"
p3410
aS'artist'
p3411
aS"'s"
p3412
aS'heart'
p3413
aS'is'
p3414
aS'his'
p3415
aS'head'
p3416
aS','
p3417
aS"'"
p3418
aS'replied'
p3419
aS'Trevor'
p3420
aS';'
p3421
aS"'and"
p3422
aS'besides'
p3423
aS','
p3424
aS'our'
p3425
aS'business'
p3426
aS'is'
p3427
aS'to'
p3428
aS'realise'
p3429
aS'the'
p3430
aS'world'
p3431
aS'as'
p3432
aS'we'
p3433
aS'see'
p3434
aS'it'
p3435
aS','
p3436
aS'not'
p3437
aS'to'
p3438
aS'reform'
p3439
aS'it'
p3440
aS'as'
p3441
aS'we'
p3442
aS'know'
p3443
aS'it'
p3444
aS'.'
p3445
asg34
(lp3446
V'An
p3447
aVartist
p3448
aV's
p3449
aVheart
p3450
ag38
aVhis
p3451
aVhead
p3452
ag90
ag967
ag1949
aVTrevor
p3453
ag546
aV'and
p3454
aVbesides
p3455
ag90
aVour
p3456
aVbusiness
p3457
ag38
aVto
p3458
aVrealise
p3459
aVthe
p3460
aVworld
p3461
ag45
aVwe
p3462
aVsee
p3463
aVit
p3464
ag90
aVnot
p3465
aVto
p3466
aVreform
p3467
aVit
p3468
ag45
aVwe
p3469
aVknow
p3470
aVit
p3471
ag48
asg49
(lp3472
g51
ag51
ag51
ag51
ag51
ag51
ag51
ag51
ag51
ag51
aVPERSON
p3473
ag51
ag51
ag51
ag51
ag51
ag51
ag51
ag51
ag51
ag51
ag51
ag51
ag51
ag51
ag51
ag51
ag51
ag51
ag51
ag51
ag51
ag51
ag51
ag51
ag51
asg52
(lp3474
g57
ag60
ag493
ag60
ag56
ag277
ag60
ag99
ag991
ag200
ag199
ag561
ag199
ag56
ag99
ag277
ag60
ag56
ag159
ag125
ag59
ag60
ag54
ag157
ag196
ag157
ag99
ag100
ag159
ag125
ag157
ag54
ag157
ag196
ag157
ag62
asg63
V'An artist's heart is his head,' replied Trevor; 'and besides, our business is to realise the world as we see it, not to reform it as we know it.
p3475
sba(i__main__
Sentence
p3476
(dp3477
g17
I94
sg18
(lp3478
S'a'
p3479
aS'chacun'
p3480
aS'son'
p3481
aS'metier'
p3482
aS'.'
p3483
asg34
(lp3484
g45
aVchacun
p3485
aVson
p3486
aVmetier
p3487
ag48
asg49
(lp3488
g51
ag51
ag51
ag51
ag51
asg52
(lp3489
g59
ag60
ag60
ag60
ag62
asg63
Va chacun son metier.
p3490
sba(i__main__
Sentence
p3491
(dp3492
g17
I95
sg18
(lp3493
S'And'
p3494
aS'now'
p3495
aS'tell'
p3496
aS'me'
p3497
aS'how'
p3498
aS'Laura'
p3499
aS'is'
p3500
aS'.'
p3501
asg34
(lp3502
VAnd
p3503
aVnow
p3504
aVtell
p3505
aVme
p3506
aVhow
p3507
aVLaura
p3508
ag38
ag48
asg49
(lp3509
g51
ag51
ag51
ag51
ag51
aVPERSON
p3510
ag51
ag51
asg52
(lp3511
g126
ag100
ag196
ag157
ag990
ag199
ag56
ag62
asg63
VAnd now tell me how Laura is.
p3512
sba(i__main__
Sentence
p3513
(dp3514
g17
I96
sg18
(lp3515
S'The'
p3516
aS'old'
p3517
aS'model'
p3518
aS'was'
p3519
aS'quite'
p3520
aS'interested'
p3521
aS'in'
p3522
aS'her'
p3523
aS'.'
p3524
aS"'"
p3525
asg34
(lp3526
VThe
p3527
aVold
p3528
aVmodel
p3529
ag237
aVquite
p3530
aVinterested
p3531
aVin
p3532
aVher
p3533
ag48
ag967
asg49
(lp3534
g51
ag51
ag51
ag51
ag51
ag51
ag51
ag51
ag51
ag51
asg52
(lp3535
g59
ag57
ag60
ag200
ag100
ag57
ag54
ag277
ag62
ag991
asg63
VThe old model was quite interested in her.'
p3536
sba(i__main__
Sentence
p3537
(dp3538
g17
I97
sg18
(lp3539
S"'You"
p3540
aS'do'
p3541
aS"n't"
p3542
aS'mean'
p3543
aS'to'
p3544
aS'say'
p3545
aS'you'
p3546
aS'talked'
p3547
aS'to'
p3548
aS'him'
p3549
aS'about'
p3550
aS'her'
p3551
aS'?'
p3552
aS"'"
p3553
asg34
(lp3554
V'You
p3555
aVdo
p3556
aVn't
p3557
aVmean
p3558
aVto
p3559
aVsay
p3560
aVyou
p3561
aVtalk
p3562
aVto
p3563
aVhim
p3564
aVabout
p3565
aVher
p3566
ag556
ag967
asg49
(lp3567
g51
ag51
ag51
ag51
ag51
ag51
ag51
ag51
ag51
ag51
ag51
ag51
ag51
ag51
asg52
(lp3568
g157
ag196
ag100
ag125
ag159
ag125
ag157
ag200
ag159
ag157
ag54
ag277
ag62
ag991
asg63
V'You don't mean to say you talked to him about her?'
p3569
sba(i__main__
Sentence
p3570
(dp3571
g17
I98
sg18
(lp3572
S'said'
p3573
aS'Hughie'
p3574
aS'.'
p3575
asg34
(lp3576
g265
aVHughie
p3577
ag48
asg49
(lp3578
g51
aVPERSON
p3579
ag51
asg52
(lp3580
g200
ag199
ag62
asg63
Vsaid Hughie.
p3581
sba(i__main__
Sentence
p3582
(dp3583
g17
I99
sg18
(lp3584
S"'Certainly"
p3585
aS'I'
p3586
aS'did'
p3587
aS'.'
p3588
asg34
(lp3589
V'Certainly
p3590
ag1912
ag641
ag48
asg49
(lp3591
g51
ag51
ag51
ag51
asg52
(lp3592
g100
ag157
ag200
ag62
asg63
V'Certainly I did.
p3593
sba(i__main__
Sentence
p3594
(dp3595
g17
I100
sg18
(lp3596
S'He'
p3597
aS'knows'
p3598
aS'all'
p3599
aS'about'
p3600
aS'the'
p3601
aS'relentless'
p3602
aS'colonel'
p3603
aS','
p3604
aS'the'
p3605
aS'lovely'
p3606
aS'Laura'
p3607
aS','
p3608
aS'and'
p3609
aS'the'
p3610
aS'10,000'
p3611
aS'.'
p3612
aS"'"
p3613
asg34
(lp3614
VHe
p3615
aVknow
p3616
aVall
p3617
aVabout
p3618
aVthe
p3619
aVrelentless
p3620
aVcolonel
p3621
ag90
aVthe
p3622
aVlovely
p3623
aVLaura
p3624
ag90
aVand
p3625
aVthe
p3626
aV10,000
p3627
ag48
ag967
asg49
(lp3628
g51
ag51
ag51
ag51
ag51
ag51
ag51
ag51
ag51
ag51
aVPERSON
p3629
ag51
ag51
ag51
ag51
ag51
ag51
asg52
(lp3630
g157
ag56
ag59
ag54
ag59
ag60
ag60
ag99
ag59
ag100
ag199
ag99
ag126
ag59
ag55
ag62
ag991
asg63
VHe knows all about the relentless colonel, the lovely Laura, and the 10,000.'
p3631
sba(i__main__
Sentence
p3632
(dp3633
g17
I101
sg18
(lp3634
S"'You"
p3635
aS'told'
p3636
aS'that'
p3637
aS'old'
p3638
aS'beggar'
p3639
aS'all'
p3640
aS'my'
p3641
aS'private'
p3642
aS'affairs'
p3643
aS'?'
p3644
aS"'"
p3645
asg34
(lp3646
V'You
p3647
ag2394
aVthat
p3648
aVold
p3649
aVbeggar
p3650
aVall
p3651
aVmy
p3652
aVprivate
p3653
aVaffair
p3654
ag556
ag967
asg49
(lp3655
g51
ag51
ag51
ag51
ag51
ag51
ag51
ag51
ag51
ag51
ag51
asg52
(lp3656
g157
ag200
ag54
ag57
ag60
ag59
ag277
ag57
ag197
ag62
ag991
asg63
V'You told that old beggar all my private affairs?'
p3657
sba(i__main__
Sentence
p3658
(dp3659
g17
I102
sg18
(lp3660
S'cried'
p3661
aS'Hughie'
p3662
aS','
p3663
aS'looking'
p3664
aS'very'
p3665
aS'red'
p3666
aS'and'
p3667
aS'angry'
p3668
aS'.'
p3669
asg34
(lp3670
g2174
aVHughie
p3671
ag90
aVlook
p3672
aVvery
p3673
aVred
p3674
aVand
p3675
aVangry
p3676
ag48
asg49
(lp3677
g51
aVPERSON
p3678
ag51
ag51
ag51
ag51
ag51
ag51
ag51
asg52
(lp3679
g200
ag199
ag99
ag61
ag100
ag101
ag126
ag57
ag62
asg63
Vcried Hughie, looking very red and angry.
p3680
sba(i__main__
Sentence
p3681
(dp3682
g17
I103
sg18
(lp3683
S"'My"
p3684
aS'dear'
p3685
aS'boy'
p3686
aS','
p3687
aS"'"
p3688
aS'said'
p3689
aS'Trevor'
p3690
aS','
p3691
aS'smiling'
p3692
aS','
p3693
aS"'that"
p3694
aS'old'
p3695
aS'beggar'
p3696
aS','
p3697
aS'as'
p3698
aS'you'
p3699
aS'call'
p3700
aS'him'
p3701
aS','
p3702
aS'is'
p3703
aS'one'
p3704
aS'of'
p3705
aS'the'
p3706
aS'richest'
p3707
aS'men'
p3708
aS'in'
p3709
aS'Europe'
p3710
aS'.'
p3711
asg34
(lp3712
V'My
p3713
aVdear
p3714
aVboy
p3715
ag90
ag967
ag265
aVTrevor
p3716
ag90
aVsmile
p3717
ag90
aV'that
p3718
aVold
p3719
aVbeggar
p3720
ag90
ag45
aVyou
p3721
aVcall
p3722
aVhim
p3723
ag90
ag38
aVone
p3724
aVof
p3725
aVthe
p3726
aVrich
p3727
aVmen
p3728
aVin
p3729
aVEurope
p3730
ag48
asg49
(lp3731
g51
ag51
ag51
ag51
ag51
ag51
aVPERSON
p3732
ag51
ag51
ag51
ag51
ag51
ag51
ag51
ag51
ag51
ag51
ag51
ag51
ag51
ag51
ag51
ag51
ag51
ag51
ag51
aVLOCATION
p3733
ag51
asg52
(lp3734
g57
ag60
ag60
ag99
ag991
ag200
ag199
ag99
ag61
ag99
ag57
ag57
ag60
ag99
ag54
ag157
ag196
ag157
ag99
ag56
ag55
ag54
ag59
ag854
ag197
ag54
ag199
ag62
asg63
V'My dear boy,' said Trevor, smiling, 'that old beggar, as you call him, is one of the richest men in Europe.
p3735
sba(i__main__
Sentence
p3736
(dp3737
g17
I104
sg18
(lp3738
S'He'
p3739
aS'could'
p3740
aS'buy'
p3741
aS'all'
p3742
aS'London'
p3743
aS'to-morrow'
p3744
aS'without'
p3745
aS'overdrawing'
p3746
aS'his'
p3747
aS'account'
p3748
aS'.'
p3749
asg34
(lp3750
VHe
p3751
aVcould
p3752
aVbuy
p3753
aVall
p3754
aVLondon
p3755
aVto-morrow
p3756
aVwithout
p3757
aVoverdrawing
p3758
aVhis
p3759
aVaccount
p3760
ag48
asg49
(lp3761
g51
ag51
ag51
ag51
aVLOCATION
p3762
ag51
ag51
ag51
ag51
ag51
ag51
asg52
(lp3763
g157
ag124
ag125
ag59
ag199
ag60
ag54
ag60
ag277
ag60
ag62
asg63
VHe could buy all London to-morrow without overdrawing his account.
p3764
sba(i__main__
Sentence
p3765
(dp3766
g17
I105
sg18
(lp3767
S'He'
p3768
aS'has'
p3769
aS'a'
p3770
aS'house'
p3771
aS'in'
p3772
aS'every'
p3773
aS'capital'
p3774
aS','
p3775
aS'dines'
p3776
aS'off'
p3777
aS'gold'
p3778
aS'plate'
p3779
aS','
p3780
aS'and'
p3781
aS'can'
p3782
aS'prevent'
p3783
aS'Russia'
p3784
aS'going'
p3785
aS'to'
p3786
aS'war'
p3787
aS'when'
p3788
aS'he'
p3789
aS'chooses'
p3790
aS'.'
p3791
aS"'"
p3792
asg34
(lp3793
VHe
p3794
aVhave
p3795
ag45
aVhouse
p3796
aVin
p3797
aVevery
p3798
aVcapital
p3799
ag90
aVdines
p3800
aVoff
p3801
aVgold
p3802
aVplate
p3803
ag90
aVand
p3804
aVcan
p3805
aVprevent
p3806
aVRussia
p3807
aVgo
p3808
aVto
p3809
aVwar
p3810
aVwhen
p3811
aVhe
p3812
aVchoose
p3813
ag48
ag967
asg49
(lp3814
g51
ag51
ag51
ag51
ag51
ag51
ag51
ag51
ag51
ag51
ag51
ag51
ag51
ag51
ag51
ag51
aVLOCATION
p3815
ag51
ag51
ag51
ag51
ag51
ag51
ag51
ag51
asg52
(lp3816
g157
ag56
ag59
ag60
ag54
ag59
ag60
ag99
ag197
ag54
ag60
ag60
ag99
ag126
ag124
ag125
ag199
ag61
ag159
ag60
ag990
ag157
ag56
ag62
ag991
asg63
VHe has a house in every capital, dines off gold plate, and can prevent Russia going to war when he chooses.'
p3817
sba(i__main__
Sentence
p3818
(dp3819
g17
I106
sg18
(lp3820
S"'What"
p3821
aS'on'
p3822
aS'earth'
p3823
aS'do'
p3824
aS'you'
p3825
aS'mean'
p3826
aS'?'
p3827
aS"'"
p3828
asg34
(lp3829
V'What
p3830
aVon
p3831
aVearth
p3832
aVdo
p3833
aVyou
p3834
aVmean
p3835
ag556
ag967
asg49
(lp3836
g51
ag51
ag51
ag51
ag51
ag51
ag51
ag51
asg52
(lp3837
g57
ag54
ag57
ag60
ag157
ag125
ag62
ag991
asg63
V'What on earth do you mean?'
p3838
sba(i__main__
Sentence
p3839
(dp3840
g17
I107
sg18
(lp3841
S'exclaimed'
p3842
aS'Hughie'
p3843
aS'.'
p3844
asg34
(lp3845
Vexclaim
p3846
aVHughie
p3847
ag48
asg49
(lp3848
g51
aVPERSON
p3849
ag51
asg52
(lp3850
g200
ag199
ag62
asg63
Vexclaimed Hughie.
p3851
sba(i__main__
Sentence
p3852
(dp3853
g17
I108
sg18
(lp3854
S"'What"
p3855
aS'I'
p3856
aS'say'
p3857
aS','
p3858
aS"'"
p3859
aS'said'
p3860
aS'Trevor'
p3861
aS'.'
p3862
asg34
(lp3863
V'What
p3864
ag1912
aVsay
p3865
ag90
ag967
ag265
aVTrevor
p3866
ag48
asg49
(lp3867
g51
ag51
ag51
ag51
ag51
ag51
aVPERSON
p3868
ag51
asg52
(lp3869
g57
ag157
ag196
ag99
ag991
ag200
ag199
ag62
asg63
V'What I say,' said Trevor.
p3870
sba(i__main__
Sentence
p3871
(dp3872
g17
I109
sg18
(lp3873
S"'The"
p3874
aS'old'
p3875
aS'man'
p3876
aS'you'
p3877
aS'saw'
p3878
aS'to-day'
p3879
aS'in'
p3880
aS'the'
p3881
aS'studio'
p3882
aS'was'
p3883
aS'Baron'
p3884
aS'Hausberg'
p3885
aS'.'
p3886
asg34
(lp3887
V'The
p3888
aVold
p3889
aVman
p3890
aVyou
p3891
aVsaw
p3892
aVto-day
p3893
aVin
p3894
aVthe
p3895
aVstudio
p3896
ag237
aVBaron
p3897
aVHausberg
p3898
ag48
asg49
(lp3899
g51
ag51
ag51
ag51
ag51
ag51
ag51
ag51
ag51
ag51
aVPERSON
p3900
aVPERSON
p3901
ag51
asg52
(lp3902
g59
ag57
ag60
ag157
ag200
ag57
ag54
ag59
ag60
ag200
ag199
ag199
ag62
asg63
V'The old man you saw to-day in the studio was Baron Hausberg.
p3903
sba(i__main__
Sentence
p3904
(dp3905
g17
I110
sg18
(lp3906
S'He'
p3907
aS'is'
p3908
aS'a'
p3909
aS'great'
p3910
aS'friend'
p3911
aS'of'
p3912
aS'mine'
p3913
aS','
p3914
aS'buys'
p3915
aS'all'
p3916
aS'my'
p3917
aS'pictures'
p3918
aS'and'
p3919
aS'that'
p3920
aS'sort'
p3921
aS'of'
p3922
aS'thing'
p3923
aS','
p3924
aS'and'
p3925
aS'gave'
p3926
aS'me'
p3927
aS'a'
p3928
aS'commission'
p3929
aS'a'
p3930
aS'month'
p3931
aS'ago'
p3932
aS'to'
p3933
aS'paint'
p3934
aS'him'
p3935
aS'as'
p3936
aS'a'
p3937
aS'beggar'
p3938
aS'.'
p3939
asg34
(lp3940
VHe
p3941
ag38
ag45
aVgreat
p3942
aVfriend
p3943
aVof
p3944
aVmine
p3945
ag90
aVbuy
p3946
aVall
p3947
aVmy
p3948
aVpicture
p3949
aVand
p3950
aVthat
p3951
aVsort
p3952
aVof
p3953
aVthing
p3954
ag90
aVand
p3955
aVgive
p3956
aVme
p3957
ag45
aVcommission
p3958
ag45
aVmonth
p3959
aVago
p3960
aVto
p3961
aVpaint
p3962
aVhim
p3963
ag45
ag45
aVbeggar
p3964
ag48
asg49
(lp3965
g51
ag51
ag51
ag51
ag51
ag51
ag51
ag51
ag51
ag51
ag51
ag51
ag51
ag51
ag51
ag51
ag51
ag51
ag51
ag51
ag51
ag51
ag51
ag51
ag51
ag51
ag51
ag51
ag51
ag51
ag51
ag51
ag51
asg52
(lp3966
g157
ag56
ag59
ag57
ag60
ag54
ag57
ag99
ag56
ag59
ag277
ag197
ag126
ag54
ag60
ag54
ag60
ag99
ag126
ag200
ag157
ag59
ag60
ag59
ag60
ag100
ag159
ag125
ag157
ag54
ag59
ag60
ag62
asg63
VHe is a great friend of mine, buys all my pictures and that sort of thing, and gave me a commission a month ago to paint him as a beggar.
p3967
sba(i__main__
Sentence
p3968
(dp3969
g17
I111
sg18
(lp3970
S'Que'
p3971
aS'voulez-vous'
p3972
aS'?'
p3973
asg34
(lp3974
VQue
p3975
aVvoulez-vous
p3976
ag556
asg49
(lp3977
g51
ag51
ag51
asg52
(lp3978
g199
ag57
ag62
asg63
VQue voulez-vous?
p3979
sba(i__main__
Sentence
p3980
(dp3981
g17
I112
sg18
(lp3982
S'La'
p3983
aS'fantaisie'
p3984
aS"d'un"
p3985
aS'millionnaire'
p3986
aS'!'
p3987
asg34
(lp3988
VLa
p3989
aVfantaisie
p3990
aVd'un
p3991
aVmillionnaire
p3992
ag211
asg49
(lp3993
g51
ag51
ag51
ag51
ag51
asg52
(lp3994
g199
ag60
aS'-NONE-'
p3995
ag60
ag62
asg63
VLa fantaisie d'un millionnaire!
p3996
sba(i__main__
Sentence
p3997
(dp3998
g17
I113
sg18
(lp3999
S'And'
p4000
aS'I'
p4001
aS'must'
p4002
aS'say'
p4003
aS'he'
p4004
aS'made'
p4005
aS'a'
p4006
aS'magnificent'
p4007
aS'figure'
p4008
aS'in'
p4009
aS'his'
p4010
aS'rags'
p4011
aS','
p4012
aS'or'
p4013
aS'perhaps'
p4014
aS'I'
p4015
aS'should'
p4016
aS'say'
p4017
aS'in'
p4018
aS'my'
p4019
aS'rags'
p4020
aS';'
p4021
aS'they'
p4022
aS'are'
p4023
aS'an'
p4024
aS'old'
p4025
aS'suit'
p4026
aS'I'
p4027
aS'got'
p4028
aS'in'
p4029
aS'Spain'
p4030
aS'.'
p4031
aS"'"
p4032
asg34
(lp4033
VAnd
p4034
ag1912
aVmust
p4035
aVsay
p4036
aVhe
p4037
ag1850
ag45
aVmagnificent
p4038
aVfigure
p4039
aVin
p4040
aVhis
p4041
aVrag
p4042
ag90
aVor
p4043
aVperhaps
p4044
ag1912
aVshould
p4045
aVsay
p4046
aVin
p4047
aVmy
p4048
aVrag
p4049
ag546
aVthey
p4050
ag180
aVan
p4051
aVold
p4052
aVsuit
p4053
ag1912
ag954
aVin
p4054
aVSpain
p4055
ag48
ag967
asg49
(lp4056
g51
ag51
ag51
ag51
ag51
ag51
ag51
ag51
ag51
ag51
ag51
ag51
ag51
ag51
ag51
ag51
ag51
ag51
ag51
ag51
ag51
ag51
ag51
ag51
ag51
ag51
ag51
ag51
ag51
ag51
aVLOCATION
p4057
ag51
ag51
asg52
(lp4058
g126
ag157
ag124
ag125
ag157
ag200
ag59
ag60
ag60
ag54
ag277
ag197
ag99
ag126
ag100
ag157
ag124
ag125
ag54
ag277
ag197
ag561
ag157
ag196
ag59
ag57
ag60
ag157
ag200
ag54
ag199
ag62
ag991
asg63
VAnd I must say he made a magnificent figure in his rags, or perhaps I should say in my rags; they are an old suit I got in Spain.'
p4059
sba(i__main__
Sentence
p4060
(dp4061
g17
I114
sg18
(lp4062
S"'Baron"
p4063
aS'Hausberg'
p4064
aS'!'
p4065
aS"'"
p4066
asg34
(lp4067
V'Baron
p4068
aVHausberg
p4069
ag211
ag967
asg49
(lp4070
g51
ag51
ag51
ag51
asg52
(lp4071
g57
ag199
ag62
ag991
asg63
V'Baron Hausberg!'
p4072
sba(i__main__
Sentence
p4073
(dp4074
g17
I115
sg18
(lp4075
S'cried'
p4076
aS'Hughie'
p4077
aS'.'
p4078
asg34
(lp4079
g2174
aVHughie
p4080
ag48
asg49
(lp4081
g51
aVPERSON
p4082
ag51
asg52
(lp4083
g200
ag199
ag62
asg63
Vcried Hughie.
p4084
sba(i__main__
Sentence
p4085
(dp4086
g17
I116
sg18
(lp4087
S"'Good"
p4088
aS'heavens'
p4089
aS'!'
p4090
asg34
(lp4091
V'Good
p4092
aVheaven
p4093
ag211
asg49
(lp4094
g51
ag51
ag51
asg52
(lp4095
g60
ag197
ag62
asg63
V'Good heavens!
p4096
sba(i__main__
Sentence
p4097
(dp4098
g17
I117
sg18
(lp4099
S'I'
p4100
aS'gave'
p4101
aS'him'
p4102
aS'a'
p4103
aS'sovereign'
p4104
aS'!'
p4105
aS"'"
p4106
asg34
(lp4107
g1912
ag3956
aVhim
p4108
ag45
aVsovereign
p4109
ag211
ag967
asg49
(lp4110
g51
ag51
ag51
ag51
ag51
ag51
ag51
asg52
(lp4111
g157
ag200
ag157
ag59
ag60
ag62
ag991
asg63
VI gave him a sovereign!'
p4112
sba(i__main__
Sentence
p4113
(dp4114
g17
I118
sg18
(lp4115
S'and'
p4116
aS'he'
p4117
aS'sank'
p4118
aS'into'
p4119
aS'an'
p4120
aS'armchair'
p4121
aS'the'
p4122
aS'picture'
p4123
aS'of'
p4124
aS'dismay'
p4125
aS'.'
p4126
asg34
(lp4127
Vand
p4128
aVhe
p4129
aVsink
p4130
aVinto
p4131
aVan
p4132
aVarmchair
p4133
aVthe
p4134
aVpicture
p4135
aVof
p4136
aVdismay
p4137
ag48
asg49
(lp4138
g51
ag51
ag51
ag51
ag51
ag51
ag51
ag51
ag51
ag51
ag51
asg52
(lp4139
g126
ag157
ag200
ag54
ag59
ag57
ag59
ag60
ag54
ag60
ag62
asg63
Vand he sank into an armchair the picture of dismay.
p4140
sba(i__main__
Sentence
p4141
(dp4142
g17
I119
sg18
(lp4143
S"'Gave"
p4144
aS'him'
p4145
aS'a'
p4146
aS'sovereign'
p4147
aS'!'
p4148
aS"'"
p4149
asg34
(lp4150
V'Gave
p4151
aVhim
p4152
ag45
aVsovereign
p4153
ag211
ag967
asg49
(lp4154
g51
ag51
ag51
ag51
ag51
ag51
asg52
(lp4155
g57
ag157
ag59
ag60
ag62
ag991
asg63
V'Gave him a sovereign!'
p4156
sba(i__main__
Sentence
p4157
(dp4158
g17
I120
sg18
(lp4159
S'shouted'
p4160
aS'Trevor'
p4161
aS','
p4162
aS'and'
p4163
aS'he'
p4164
aS'burst'
p4165
aS'into'
p4166
aS'a'
p4167
aS'roar'
p4168
aS'of'
p4169
aS'laughter'
p4170
aS'.'
p4171
asg34
(lp4172
Vshout
p4173
aVTrevor
p4174
ag90
aVand
p4175
aVhe
p4176
aVburst
p4177
aVinto
p4178
ag45
aVroar
p4179
aVof
p4180
aVlaughter
p4181
ag48
asg49
(lp4182
g51
aVPERSON
p4183
ag51
ag51
ag51
ag51
ag51
ag51
ag51
ag51
ag51
ag51
asg52
(lp4184
g200
ag199
ag99
ag126
ag157
ag200
ag54
ag59
ag57
ag54
ag60
ag62
asg63
Vshouted Trevor, and he burst into a roar of laughter.
p4185
sba(i__main__
Sentence
p4186
(dp4187
g17
I121
sg18
(lp4188
S"'My"
p4189
aS'dear'
p4190
aS'boy'
p4191
aS','
p4192
aS'you'
p4193
aS"'ll"
p4194
aS'never'
p4195
aS'see'
p4196
aS'it'
p4197
aS'again'
p4198
aS'.'
p4199
asg34
(lp4200
V'My
p4201
aVdear
p4202
aVboy
p4203
ag90
aVyou
p4204
aV'll
p4205
aVnever
p4206
aVsee
p4207
aVit
p4208
aVagain
p4209
ag48
asg49
(lp4210
g51
ag51
ag51
ag51
ag51
ag51
ag51
ag51
ag51
ag51
ag51
asg52
(lp4211
g57
ag60
ag60
ag99
ag157
ag124
ag100
ag125
ag157
ag100
ag62
asg63
V'My dear boy, you'll never see it again.
p4212
sba(i__main__
Sentence
p4213
(dp4214
g17
I122
sg18
(lp4215
S'Son'
p4216
aS'affaire'
p4217
aS"c'est"
p4218
aS"l'argent"
p4219
aS'des'
p4220
aS'autres'
p4221
aS'.'
p4222
aS"'"
p4223
asg34
(lp4224
VSon
p4225
aVaffaire
p4226
aVc'est
p4227
aVl'argent
p4228
aVde
p4229
aVautres
p4230
ag48
ag967
asg49
(lp4231
g51
ag51
ag51
ag51
ag51
ag51
ag51
ag51
asg52
(lp4232
g199
ag196
ag57
ag57
ag197
ag197
ag62
ag991
asg63
VSon affaire c'est l'argent des autres.'
p4233
sba(i__main__
Sentence
p4234
(dp4235
g17
I123
sg18
(lp4236
S"'I"
p4237
aS'think'
p4238
aS'you'
p4239
aS'might'
p4240
aS'have'
p4241
aS'told'
p4242
aS'me'
p4243
aS','
p4244
aS'Alan'
p4245
aS','
p4246
aS"'"
p4247
aS'said'
p4248
aS'Hughie'
p4249
aS'sulkily'
p4250
aS','
p4251
aS"'and"
p4252
aS'not'
p4253
aS'have'
p4254
aS'let'
p4255
aS'me'
p4256
aS'make'
p4257
aS'such'
p4258
aS'a'
p4259
aS'fool'
p4260
aS'of'
p4261
aS'myself'
p4262
aS'.'
p4263
aS"'"
p4264
asg34
(lp4265
V'I
p4266
aVthink
p4267
aVyou
p4268
aVmight
p4269
aVhave
p4270
ag2394
aVme
p4271
ag90
aVAlan
p4272
ag90
ag967
ag265
aVHughie
p4273
aVsulkily
p4274
ag90
aV'and
p4275
aVnot
p4276
aVhave
p4277
aVlet
p4278
aVme
p4279
aVmake
p4280
aVsuch
p4281
ag45
aVfool
p4282
aVof
p4283
aVmyself
p4284
ag48
ag967
asg49
(lp4285
g51
ag51
ag51
ag51
ag51
ag51
ag51
ag51
aVPERSON
p4286
ag51
ag51
ag51
aVPERSON
p4287
ag51
ag51
ag51
ag51
ag51
ag51
ag51
ag51
ag51
ag51
ag51
ag51
ag51
ag51
ag51
asg52
(lp4288
g60
ag196
ag157
ag124
ag125
ag101
ag157
ag99
ag199
ag99
ag991
ag200
ag199
ag100
ag99
ag57
ag100
ag196
ag101
ag157
ag196
ag57
ag59
ag60
ag54
ag157
ag62
ag991
asg63
V'I think you might have told me, Alan,' said Hughie sulkily, 'and not have let me make such a fool of myself.'
p4289
sba(i__main__
Sentence
p4290
(dp4291
g17
I124
sg18
(lp4292
S"'Well"
p4293
aS','
p4294
aS'to'
p4295
aS'begin'
p4296
aS'with'
p4297
aS','
p4298
aS'Hughie'
p4299
aS','
p4300
aS"'"
p4301
aS'said'
p4302
aS'Trevor'
p4303
aS','
p4304
aS"'it"
p4305
aS'never'
p4306
aS'entered'
p4307
aS'my'
p4308
aS'mind'
p4309
aS'that'
p4310
aS'you'
p4311
aS'went'
p4312
aS'about'
p4313
aS'distributing'
p4314
aS'alms'
p4315
aS'in'
p4316
aS'that'
p4317
aS'reckless'
p4318
aS'way'
p4319
aS'.'
p4320
asg34
(lp4321
V'Well
p4322
ag90
aVto
p4323
aVbegin
p4324
aVwith
p4325
ag90
aVHughie
p4326
ag90
ag967
ag265
aVTrevor
p4327
ag90
aV'it
p4328
aVnever
p4329
aVenter
p4330
aVmy
p4331
aVmind
p4332
aVthat
p4333
aVyou
p4334
ag2444
aVabout
p4335
aVdistribute
p4336
aValms
p4337
aVin
p4338
aVthat
p4339
aVreckless
p4340
aVway
p4341
ag48
asg49
(lp4342
g51
ag51
ag51
ag51
ag51
ag51
aVPERSON
p4343
ag51
ag51
ag51
aVPERSON
p4344
ag51
ag51
ag51
ag51
ag51
ag51
ag51
ag51
ag51
ag51
ag51
ag51
ag51
ag51
ag51
ag51
ag51
asg52
(lp4345
g57
ag99
ag159
ag125
ag54
ag99
ag199
ag99
ag991
ag200
ag199
ag99
ag57
ag100
ag101
ag277
ag60
ag198
ag157
ag200
ag54
ag61
ag197
ag54
ag59
ag60
ag60
ag62
asg63
V'Well, to begin with, Hughie,' said Trevor, 'it never entered my mind that you went about distributing alms in that reckless way.
p4346
sba(i__main__
Sentence
p4347
(dp4348
g17
I125
sg18
(lp4349
S'I'
p4350
aS'can'
p4351
aS'understand'
p4352
aS'your'
p4353
aS'kissing'
p4354
aS'a'
p4355
aS'pretty'
p4356
aS'model'
p4357
aS','
p4358
aS'but'
p4359
aS'your'
p4360
aS'giving'
p4361
aS'a'
p4362
aS'sovereign'
p4363
aS'to'
p4364
aS'an'
p4365
aS'ugly'
p4366
aS'one'
p4367
aS'-'
p4368
aS'by'
p4369
aS'Jove'
p4370
aS','
p4371
aS'no'
p4372
aS'!'
p4373
asg34
(lp4374
g1912
aVcan
p4375
aVunderstand
p4376
aVyour
p4377
aVkissing
p4378
ag45
aVpretty
p4379
aVmodel
p4380
ag90
aVbut
p4381
aVyour
p4382
aVgiving
p4383
ag45
aVsovereign
p4384
aVto
p4385
aVan
p4386
aVugly
p4387
aVone
p4388
ag3064
aVby
p4389
aVJove
p4390
ag90
aVno
p4391
ag211
asg49
(lp4392
g51
ag51
ag51
ag51
ag51
ag51
ag51
ag51
ag51
ag51
ag51
ag51
ag51
ag51
ag51
ag51
ag51
ag51
ag51
ag51
aVPERSON
p4393
ag51
ag51
ag51
asg52
(lp4394
g157
ag124
ag125
ag277
ag60
ag59
ag100
ag60
ag99
ag126
ag277
ag60
ag59
ag60
ag159
ag59
ag57
ag55
ag561
ag54
ag199
ag99
ag59
ag62
asg63
VI can understand your kissing a pretty model, but your giving a sovereign to an ugly one - by Jove, no!
p4395
sba(i__main__
Sentence
p4396
(dp4397
g17
I126
sg18
(lp4398
S'Besides'
p4399
aS','
p4400
aS'the'
p4401
aS'fact'
p4402
aS'is'
p4403
aS'that'
p4404
aS'I'
p4405
aS'really'
p4406
aS'was'
p4407
aS'not'
p4408
aS'at'
p4409
aS'home'
p4410
aS'to-day'
p4411
aS'to'
p4412
aS'any'
p4413
aS'one'
p4414
aS';'
p4415
aS'and'
p4416
aS'when'
p4417
aS'you'
p4418
aS'came'
p4419
aS'in'
p4420
aS'I'
p4421
aS'did'
p4422
aS"n't"
p4423
aS'know'
p4424
aS'whether'
p4425
aS'Hausberg'
p4426
aS'would'
p4427
aS'like'
p4428
aS'his'
p4429
aS'name'
p4430
aS'mentioned'
p4431
aS'.'
p4432
asg34
(lp4433
VBesides
p4434
ag90
aVthe
p4435
aVfact
p4436
ag38
aVthat
p4437
ag1912
aVreally
p4438
ag237
aVnot
p4439
aVat
p4440
aVhome
p4441
aVto-day
p4442
aVto
p4443
aVany
p4444
aVone
p4445
ag546
aVand
p4446
aVwhen
p4447
aVyou
p4448
ag1483
aVin
p4449
ag1912
ag641
aVn't
p4450
aVknow
p4451
aVwhether
p4452
aVHausberg
p4453
aVwould
p4454
aVlike
p4455
aVhis
p4456
aVname
p4457
aVmention
p4458
ag48
asg49
(lp4459
g51
ag51
ag51
ag51
ag51
ag51
ag51
ag51
ag51
ag51
ag51
ag51
ag51
ag51
ag51
ag51
ag51
ag51
ag51
ag51
ag51
ag51
ag51
ag51
ag51
ag51
ag51
aVPERSON
p4460
ag51
ag51
ag51
ag51
ag51
ag51
asg52
(lp4461
g54
ag99
ag59
ag60
ag56
ag54
ag157
ag100
ag200
ag100
ag54
ag60
ag60
ag159
ag59
ag55
ag561
ag126
ag990
ag157
ag200
ag54
ag157
ag200
ag100
ag125
ag54
ag199
ag124
ag125
ag277
ag60
ag200
ag62
asg63
VBesides, the fact is that I really was not at home to-day to any one; and when you came in I didn't know whether Hausberg would like his name mentioned.
p4462
sba(i__main__
Sentence
p4463
(dp4464
g17
I127
sg18
(lp4465
S'You'
p4466
aS'know'
p4467
aS'he'
p4468
aS'was'
p4469
aS"n't"
p4470
aS'in'
p4471
aS'full'
p4472
aS'dress'
p4473
aS'.'
p4474
aS"'"
p4475
asg34
(lp4476
VYou
p4477
aVknow
p4478
aVhe
p4479
ag237
aVn't
p4480
aVin
p4481
aVfull
p4482
aVdress
p4483
ag48
ag967
asg49
(lp4484
g51
ag51
ag51
ag51
ag51
ag51
ag51
ag51
ag51
ag51
asg52
(lp4485
g157
ag196
ag157
ag200
ag100
ag54
ag57
ag60
ag62
ag991
asg63
VYou know he wasn't in full dress.'
p4486
sba(i__main__
Sentence
p4487
(dp4488
g17
I128
sg18
(lp4489
S"'What"
p4490
aS'a'
p4491
aS'duffer'
p4492
aS'he'
p4493
aS'must'
p4494
aS'think'
p4495
aS'me'
p4496
aS'!'
p4497
aS"'"
p4498
asg34
(lp4499
V'What
p4500
ag45
aVduffer
p4501
aVhe
p4502
aVmust
p4503
aVthink
p4504
aVme
p4505
ag211
ag967
asg49
(lp4506
g51
ag51
ag51
ag51
ag51
ag51
ag51
ag51
ag51
asg52
(lp4507
g57
ag59
ag60
ag157
ag124
ag125
ag157
ag62
ag991
asg63
V'What a duffer he must think me!'
p4508
sba(i__main__
Sentence
p4509
(dp4510
g17
I129
sg18
(lp4511
S'said'
p4512
aS'Hughie'
p4513
aS'.'
p4514
asg34
(lp4515
g265
aVHughie
p4516
ag48
asg49
(lp4517
g51
aVPERSON
p4518
ag51
asg52
(lp4519
g200
ag199
ag62
asg63
Vsaid Hughie.
p4520
sba(i__main__
Sentence
p4521
(dp4522
g17
I130
sg18
(lp4523
S"'Not"
p4524
aS'at'
p4525
aS'all'
p4526
aS'.'
p4527
asg34
(lp4528
V'Not
p4529
aVat
p4530
aVall
p4531
ag48
asg49
(lp4532
g51
ag51
ag51
ag51
asg52
(lp4533
g57
ag54
ag59
ag62
asg63
V'Not at all.
p4534
sba(i__main__
Sentence
p4535
(dp4536
g17
I131
sg18
(lp4537
S'He'
p4538
aS'was'
p4539
aS'in'
p4540
aS'the'
p4541
aS'highest'
p4542
aS'spirits'
p4543
aS'after'
p4544
aS'you'
p4545
aS'left'
p4546
aS';'
p4547
aS'kept'
p4548
aS'chuckling'
p4549
aS'to'
p4550
aS'himself'
p4551
aS'and'
p4552
aS'rubbing'
p4553
aS'his'
p4554
aS'old'
p4555
aS'wrinkled'
p4556
aS'hands'
p4557
aS'together'
p4558
aS'.'
p4559
asg34
(lp4560
VHe
p4561
ag237
aVin
p4562
aVthe
p4563
aVhigh
p4564
aVspirit
p4565
aVafter
p4566
aVyou
p4567
aVleave
p4568
ag546
aVkept
p4569
aVchuckling
p4570
aVto
p4571
aVhimself
p4572
aVand
p4573
aVrub
p4574
aVhis
p4575
aVold
p4576
aVwrinkle
p4577
aVhand
p4578
aVtogether
p4579
ag48
asg49
(lp4580
g51
ag51
ag51
ag51
ag51
ag51
ag51
ag51
ag51
ag51
ag51
ag51
ag51
ag51
ag51
ag51
ag51
ag51
ag51
ag51
ag51
ag51
asg52
(lp4581
g157
ag200
ag54
ag59
ag854
ag197
ag54
ag157
ag200
ag561
ag60
ag60
ag159
ag157
ag126
ag61
ag277
ag57
ag101
ag197
ag100
ag62
asg63
VHe was in the highest spirits after you left; kept chuckling to himself and rubbing his old wrinkled hands together.
p4582
sba(i__main__
Sentence
p4583
(dp4584
g17
I132
sg18
(lp4585
S'I'
p4586
aS'could'
p4587
aS"n't"
p4588
aS'make'
p4589
aS'out'
p4590
aS'why'
p4591
aS'he'
p4592
aS'was'
p4593
aS'so'
p4594
aS'interested'
p4595
aS'to'
p4596
aS'know'
p4597
aS'all'
p4598
aS'about'
p4599
aS'you'
p4600
aS';'
p4601
aS'but'
p4602
aS'I'
p4603
aS'see'
p4604
aS'it'
p4605
aS'all'
p4606
aS'now'
p4607
aS'.'
p4608
asg34
(lp4609
g1912
aVcould
p4610
aVn't
p4611
aVmake
p4612
aVout
p4613
aVwhy
p4614
aVhe
p4615
ag237
aVso
p4616
aVinterested
p4617
aVto
p4618
aVknow
p4619
aVall
p4620
aVabout
p4621
aVyou
p4622
ag546
aVbut
p4623
ag1912
aVsee
p4624
aVit
p4625
aVall
p4626
aVnow
p4627
ag48
asg49
(lp4628
g51
ag51
ag51
ag51
ag51
ag51
ag51
ag51
ag51
ag51
ag51
ag51
ag51
ag51
ag51
ag51
ag51
ag51
ag51
ag51
ag51
ag51
ag51
asg52
(lp4629
g157
ag124
ag100
ag125
ag1207
ag990
ag157
ag200
ag100
ag57
ag159
ag125
aS'PDT'
p4630
ag54
ag157
ag561
ag126
ag157
ag196
ag157
ag59
ag100
ag62
asg63
VI couldn't make out why he was so interested to know all about you; but I see it all now.
p4631
sba(i__main__
Sentence
p4632
(dp4633
g17
I133
sg18
(lp4634
S'He'
p4635
aS"'ll"
p4636
aS'invest'
p4637
aS'your'
p4638
aS'sovereign'
p4639
aS'for'
p4640
aS'you'
p4641
aS','
p4642
aS'Hughie'
p4643
aS','
p4644
aS'pay'
p4645
aS'you'
p4646
aS'the'
p4647
aS'interest'
p4648
aS'every'
p4649
aS'six'
p4650
aS'months'
p4651
aS','
p4652
aS'and'
p4653
aS'have'
p4654
aS'a'
p4655
aS'capital'
p4656
aS'story'
p4657
aS'to'
p4658
aS'tell'
p4659
aS'after'
p4660
aS'dinner'
p4661
aS'.'
p4662
aS"'"
p4663
asg34
(lp4664
VHe
p4665
aV'll
p4666
aVinvest
p4667
aVyour
p4668
aVsovereign
p4669
aVfor
p4670
aVyou
p4671
ag90
aVHughie
p4672
ag90
aVpay
p4673
aVyou
p4674
aVthe
p4675
aVinterest
p4676
aVevery
p4677
aVsix
p4678
aVmonth
p4679
ag90
aVand
p4680
aVhave
p4681
ag45
aVcapital
p4682
aVstory
p4683
aVto
p4684
aVtell
p4685
aVafter
p4686
aVdinner
p4687
ag48
ag967
asg49
(lp4688
g51
ag51
ag51
ag51
ag51
ag51
ag51
ag51
aVPERSON
p4689
ag51
ag51
ag51
ag51
ag51
ag51
ag51
ag51
ag51
ag51
ag51
ag51
ag51
ag51
ag51
ag51
ag51
ag51
ag51
ag51
asg52
(lp4690
g157
ag124
ag125
ag277
ag60
ag54
ag157
ag99
ag199
ag99
ag60
ag157
ag59
ag60
ag59
ag55
ag197
ag99
ag126
ag196
ag59
ag60
ag60
ag159
ag125
ag54
ag60
ag62
ag991
asg63
VHe'll invest your sovereign for you, Hughie, pay you the interest every six months, and have a capital story to tell after dinner.'
p4691
sba(i__main__
Sentence
p4692
(dp4693
g17
I134
sg18
(lp4694
S"'I"
p4695
aS'am'
p4696
aS'an'
p4697
aS'unlucky'
p4698
aS'devil'
p4699
aS','
p4700
aS"'"
p4701
aS'growled'
p4702
aS'Hughie'
p4703
aS'.'
p4704
asg34
(lp4705
V'I
p4706
aVbe
p4707
aVan
p4708
aVunlucky
p4709
aVdevil
p4710
ag90
ag967
aVgrowl
p4711
aVHughie
p4712
ag48
asg49
(lp4713
g51
ag51
ag51
ag51
ag51
ag51
ag51
ag51
aVPERSON
p4714
ag51
asg52
(lp4715
g60
ag196
ag59
ag57
ag60
ag99
ag991
ag200
ag199
ag62
asg63
V'I am an unlucky devil,' growled Hughie.
p4716
sba(i__main__
Sentence
p4717
(dp4718
g17
I135
sg18
(lp4719
S"'The"
p4720
aS'best'
p4721
aS'thing'
p4722
aS'I'
p4723
aS'can'
p4724
aS'do'
p4725
aS'is'
p4726
aS'to'
p4727
aS'go'
p4728
aS'to'
p4729
aS'bed'
p4730
aS';'
p4731
aS'and'
p4732
aS','
p4733
aS'my'
p4734
aS'dear'
p4735
aS'Alan'
p4736
aS','
p4737
aS'you'
p4738
aS'must'
p4739
aS"n't"
p4740
aS'tell'
p4741
aS'any'
p4742
aS'one'
p4743
aS'.'
p4744
asg34
(lp4745
V'The
p4746
aVbest
p4747
aVthing
p4748
ag1912
aVcan
p4749
aVdo
p4750
ag38
aVto
p4751
aVgo
p4752
aVto
p4753
aVbed
p4754
ag546
aVand
p4755
ag90
aVmy
p4756
aVdear
p4757
aVAlan
p4758
ag90
aVyou
p4759
aVmust
p4760
aVn't
p4761
aVtell
p4762
aVany
p4763
aVone
p4764
ag48
asg49
(lp4765
g51
ag51
ag51
ag51
ag51
ag51
ag51
ag51
ag51
ag51
ag51
ag51
ag51
ag51
ag51
ag51
aVPERSON
p4766
ag51
ag51
ag51
ag51
ag51
ag51
ag51
ag51
asg52
(lp4767
g59
ag854
ag60
ag157
ag124
ag125
ag56
ag159
ag125
ag159
ag101
ag561
ag126
ag99
ag277
ag60
ag199
ag99
ag157
ag124
ag100
ag125
ag59
ag55
ag62
asg63
V'The best thing I can do is to go to bed; and, my dear Alan, you mustn't tell any one.
p4768
sba(i__main__
Sentence
p4769
(dp4770
g17
I136
sg18
(lp4771
S'I'
p4772
aS'should'
p4773
aS"n't"
p4774
aS'dare'
p4775
aS'show'
p4776
aS'my'
p4777
aS'face'
p4778
aS'in'
p4779
aS'the'
p4780
aS'Row'
p4781
aS'.'
p4782
aS"'"
p4783
asg34
(lp4784
g1912
aVshould
p4785
aVn't
p4786
aVdare
p4787
aVshow
p4788
aVmy
p4789
aVface
p4790
aVin
p4791
aVthe
p4792
aVRow
p4793
ag48
ag967
asg49
(lp4794
g51
ag51
ag51
ag51
ag51
ag51
ag51
ag51
ag51
ag51
ag51
ag51
asg52
(lp4795
g157
ag124
ag100
ag125
ag60
ag277
ag60
ag54
ag59
ag199
ag62
ag991
asg63
VI shouldn't dare show my face in the Row.'
p4796
sba(i__main__
Sentence
p4797
(dp4798
g17
I137
sg18
(lp4799
S"'Nonsense"
p4800
aS'!'
p4801
asg34
(lp4802
V'Nonsense
p4803
ag211
asg49
(lp4804
g51
ag51
asg52
(lp4805
g57
ag60
asg63
V'Nonsense!
p4806
sba(i__main__
Sentence
p4807
(dp4808
g17
I138
sg18
(lp4809
S'It'
p4810
aS'reflects'
p4811
aS'the'
p4812
aS'highest'
p4813
aS'credit'
p4814
aS'on'
p4815
aS'your'
p4816
aS'philanthropic'
p4817
aS'spirit'
p4818
aS','
p4819
aS'Hughie'
p4820
aS'.'
p4821
asg34
(lp4822
VIt
p4823
aVreflect
p4824
aVthe
p4825
aVhigh
p4826
aVcredit
p4827
aVon
p4828
aVyour
p4829
aVphilanthropic
p4830
aVspirit
p4831
ag90
aVHughie
p4832
ag48
asg49
(lp4833
g51
ag51
ag51
ag51
ag51
ag51
ag51
ag51
ag51
ag51
ag51
ag51
asg52
(lp4834
g157
ag56
ag59
ag854
ag60
ag54
ag277
ag57
ag60
ag99
ag199
ag62
asg63
VIt reflects the highest credit on your philanthropic spirit, Hughie.
p4835
sba(i__main__
Sentence
p4836
(dp4837
g17
I139
sg18
(lp4838
S'And'
p4839
aS'do'
p4840
aS"n't"
p4841
aS'run'
p4842
aS'away'
p4843
aS'.'
p4844
asg34
(lp4845
VAnd
p4846
aVdo
p4847
aVn't
p4848
aVrun
p4849
aVaway
p4850
ag48
asg49
(lp4851
g51
ag51
ag51
ag51
ag51
ag51
asg52
(lp4852
g126
ag196
ag100
ag125
ag1207
ag62
asg63
VAnd don't run away.
p4853
sba(i__main__
Sentence
p4854
(dp4855
g17
I140
sg18
(lp4856
S'Have'
p4857
aS'another'
p4858
aS'cigarette'
p4859
aS','
p4860
aS'and'
p4861
aS'you'
p4862
aS'can'
p4863
aS'talk'
p4864
aS'about'
p4865
aS'Laura'
p4866
aS'as'
p4867
aS'much'
p4868
aS'as'
p4869
aS'you'
p4870
aS'like'
p4871
aS'.'
p4872
aS"'"
p4873
asg34
(lp4874
VHave
p4875
aVanother
p4876
aVcigarette
p4877
ag90
aVand
p4878
aVyou
p4879
aVcan
p4880
aVtalk
p4881
aVabout
p4882
aVLaura
p4883
ag45
aVmuch
p4884
ag45
aVyou
p4885
aVlike
p4886
ag48
ag967
asg49
(lp4887
g51
ag51
ag51
ag51
ag51
ag51
ag51
ag51
ag51
aVPERSON
p4888
ag51
ag51
ag51
ag51
ag51
ag51
ag51
asg52
(lp4889
g199
ag59
ag60
ag99
ag126
ag157
ag124
ag125
ag54
ag199
ag54
ag57
ag54
ag157
ag54
ag62
ag991
asg63
VHave another cigarette, and you can talk about Laura as much as you like.'
p4890
sba(i__main__
Sentence
p4891
(dp4892
g17
I141
sg18
(lp4893
S'However'
p4894
aS','
p4895
aS'Hughie'
p4896
aS'would'
p4897
aS"n't"
p4898
aS'stop'
p4899
aS','
p4900
aS'but'
p4901
aS'walked'
p4902
aS'home'
p4903
aS','
p4904
aS'feeling'
p4905
aS'very'
p4906
aS'unhappy'
p4907
aS','
p4908
aS'and'
p4909
aS'leaving'
p4910
aS'Alan'
p4911
aS'Trevor'
p4912
aS'in'
p4913
aS'fits'
p4914
aS'of'
p4915
aS'laughter'
p4916
aS'.'
p4917
asg34
(lp4918
VHowever
p4919
ag90
aVHughie
p4920
aVwould
p4921
aVn't
p4922
aVstop
p4923
ag90
aVbut
p4924
aVwalk
p4925
aVhome
p4926
ag90
aVfeel
p4927
aVvery
p4928
aVunhappy
p4929
ag90
aVand
p4930
aVleave
p4931
aVAlan
p4932
aVTrevor
p4933
aVin
p4934
aVfit
p4935
aVof
p4936
aVlaughter
p4937
ag48
asg49
(lp4938
g51
ag51
aVPERSON
p4939
ag51
ag51
ag51
ag51
ag51
ag51
ag51
ag51
ag51
ag51
ag51
ag51
ag51
ag51
aVPERSON
p4940
aVPERSON
p4941
ag51
ag51
ag51
ag51
ag51
asg52
(lp4942
g100
ag99
ag199
ag124
ag100
ag125
ag99
ag126
ag200
ag60
ag99
ag61
ag100
ag57
ag99
ag126
ag61
ag199
ag199
ag54
ag197
ag54
ag60
ag62
asg63
VHowever, Hughie wouldn't stop, but walked home, feeling very unhappy, and leaving Alan Trevor in fits of laughter.
p4943
sba(i__main__
Sentence
p4944
(dp4945
g17
I142
sg18
(lp4946
S'The'
p4947
aS'next'
p4948
aS'morning'
p4949
aS','
p4950
aS'as'
p4951
aS'he'
p4952
aS'was'
p4953
aS'at'
p4954
aS'breakfast'
p4955
aS','
p4956
aS'the'
p4957
aS'servant'
p4958
aS'brought'
p4959
aS'him'
p4960
aS'up'
p4961
aS'a'
p4962
aS'card'
p4963
aS'on'
p4964
aS'which'
p4965
aS'was'
p4966
aS'written'
p4967
aS','
p4968
aS"'Monsieur"
p4969
aS'Gustave'
p4970
aS'Naudin'
p4971
aS','
p4972
aS'de'
p4973
aS'la'
p4974
aS'part'
p4975
aS'de'
p4976
aS'M.'
p4977
aS'le'
p4978
aS'Baron'
p4979
aS'Hausberg'
p4980
aS'.'
p4981
aS"'"
p4982
asg34
(lp4983
VThe
p4984
aVnext
p4985
aVmorning
p4986
ag90
ag45
aVhe
p4987
ag237
aVat
p4988
aVbreakfast
p4989
ag90
aVthe
p4990
aVservant
p4991
aVbring
p4992
aVhim
p4993
aVup
p4994
ag45
aVcard
p4995
aVon
p4996
aVwhich
p4997
ag237
aVwrite
p4998
ag90
aV'Monsieur
p4999
aVGustave
p5000
aVNaudin
p5001
ag90
aVde
p5002
aVla
p5003
aVpart
p5004
aVde
p5005
aVM.
p5006
aVle
p5007
aVBaron
p5008
aVHausberg
p5009
ag48
ag967
asg49
(lp5010
g51
ag51
ag51
ag51
ag51
ag51
ag51
ag51
ag51
ag51
ag51
ag51
ag51
ag51
ag51
ag51
ag51
ag51
ag51
ag51
ag51
ag51
ag51
aVPERSON
p5011
aVPERSON
p5012
ag51
ag51
ag51
ag51
ag51
ag51
ag51
aVPERSON
p5013
aVPERSON
p5014
ag51
ag51
asg52
(lp5015
g59
ag57
ag60
ag99
ag54
ag157
ag200
ag54
ag57
ag99
ag59
ag60
ag200
ag157
ag1207
ag59
ag60
ag54
ag198
ag200
ag101
ag99
ag57
ag199
ag199
ag99
ag54
ag59
ag60
ag54
ag199
ag60
ag199
ag199
ag62
ag991
asg63
VThe next morning, as he was at breakfast, the servant brought him up a card on which was written, 'Monsieur Gustave Naudin, de la part de M. le Baron Hausberg.'
p5016
sba(i__main__
Sentence
p5017
(dp5018
g17
I143
sg18
(lp5019
S"'I"
p5020
aS'suppose'
p5021
aS'he'
p5022
aS'has'
p5023
aS'come'
p5024
aS'for'
p5025
aS'an'
p5026
aS'apology'
p5027
aS','
p5028
aS"'"
p5029
aS'said'
p5030
aS'Hughie'
p5031
aS'to'
p5032
aS'himself'
p5033
aS';'
p5034
aS'and'
p5035
aS'he'
p5036
aS'told'
p5037
aS'the'
p5038
aS'servant'
p5039
aS'to'
p5040
aS'show'
p5041
aS'the'
p5042
aS'visitor'
p5043
aS'up'
p5044
aS'.'
p5045
asg34
(lp5046
V'I
p5047
aVsuppose
p5048
aVhe
p5049
ag3795
aVcome
p5050
aVfor
p5051
aVan
p5052
aVapology
p5053
ag90
ag967
ag265
aVHughie
p5054
aVto
p5055
aVhimself
p5056
ag546
aVand
p5057
aVhe
p5058
ag2394
aVthe
p5059
aVservant
p5060
aVto
p5061
aVshow
p5062
aVthe
p5063
aVvisitor
p5064
aVup
p5065
ag48
asg49
(lp5066
g51
ag51
ag51
ag51
ag51
ag51
ag51
ag51
ag51
ag51
ag51
aVPERSON
p5067
ag51
ag51
ag51
ag51
ag51
ag51
ag51
ag51
ag51
ag51
ag51
ag51
ag51
ag51
asg52
(lp5068
g60
ag200
ag157
ag56
ag101
ag54
ag59
ag60
ag99
ag991
ag200
ag199
ag159
ag157
ag561
ag126
ag157
ag200
ag59
ag60
ag159
ag125
ag59
ag60
ag1207
ag62
asg63
V'I suppose he has come for an apology,' said Hughie to himself; and he told the servant to show the visitor up.
p5069
sba(i__main__
Sentence
p5070
(dp5071
g17
I144
sg18
(lp5072
S'An'
p5073
aS'old'
p5074
aS'gentleman'
p5075
aS'with'
p5076
aS'gold'
p5077
aS'spectacles'
p5078
aS'and'
p5079
aS'grey'
p5080
aS'hair'
p5081
aS'came'
p5082
aS'into'
p5083
aS'the'
p5084
aS'room'
p5085
aS','
p5086
aS'and'
p5087
aS'said'
p5088
aS','
p5089
aS'in'
p5090
aS'a'
p5091
aS'slight'
p5092
aS'French'
p5093
aS'accent'
p5094
aS','
p5095
aS"'Have"
p5096
aS'I'
p5097
aS'the'
p5098
aS'honour'
p5099
aS'of'
p5100
aS'addressing'
p5101
aS'Monsieur'
p5102
aS'Erskine'
p5103
aS'?'
p5104
aS"'"
p5105
asg34
(lp5106
VAn
p5107
aVold
p5108
aVgentleman
p5109
aVwith
p5110
aVgold
p5111
aVspectacle
p5112
aVand
p5113
aVgrey
p5114
aVhair
p5115
ag1483
aVinto
p5116
aVthe
p5117
aVroom
p5118
ag90
aVand
p5119
ag265
ag90
aVin
p5120
ag45
aVslight
p5121
aVFrench
p5122
aVaccent
p5123
ag90
aV'Have
p5124
ag1912
aVthe
p5125
aVhonour
p5126
aVof
p5127
aVaddress
p5128
aVMonsieur
p5129
aVErskine
p5130
ag556
ag967
asg49
(lp5131
g51
ag51
ag51
ag51
ag51
ag51
ag51
ag51
ag51
ag51
ag51
ag51
ag51
ag51
ag51
ag51
ag51
ag51
ag51
ag51
ag51
ag51
ag51
ag51
ag51
ag51
ag51
ag51
ag51
aVPERSON
p5132
aVPERSON
p5133
ag51
ag51
asg52
(lp5134
g59
ag57
ag60
ag54
ag60
ag197
ag126
ag60
ag60
ag200
ag54
ag59
ag60
ag99
ag126
ag200
ag99
ag54
ag59
ag60
ag60
ag60
ag99
ag57
ag157
ag59
ag60
ag54
ag61
ag199
ag199
ag62
ag991
asg63
VAn old gentleman with gold spectacles and grey hair came into the room, and said, in a slight French accent, 'Have I the honour of addressing Monsieur Erskine?'
p5135
sba(i__main__
Sentence
p5136
(dp5137
g17
I145
sg18
(lp5138
S'Hughie'
p5139
aS'bowed'
p5140
aS'.'
p5141
asg34
(lp5142
VHughie
p5143
aVbow
p5144
ag48
asg49
(lp5145
VPERSON
p5146
ag51
ag51
asg52
(lp5147
g199
ag200
ag62
asg63
VHughie bowed.
p5148
sba(i__main__
Sentence
p5149
(dp5150
g17
I146
sg18
(lp5151
S"'I"
p5152
aS'have'
p5153
aS'come'
p5154
aS'from'
p5155
aS'Baron'
p5156
aS'Hausberg'
p5157
aS','
p5158
aS"'"
p5159
aS'he'
p5160
aS'continued'
p5161
aS'.'
p5162
asg34
(lp5163
V'I
p5164
aVhave
p5165
aVcome
p5166
aVfrom
p5167
aVBaron
p5168
aVHausberg
p5169
ag90
ag967
aVhe
p5170
aVcontinue
p5171
ag48
asg49
(lp5172
g51
ag51
ag51
ag51
aVPERSON
p5173
aVPERSON
p5174
ag51
ag51
ag51
ag51
ag51
asg52
(lp5175
g60
ag196
ag101
ag54
ag199
ag199
ag99
ag991
ag157
ag200
ag62
asg63
V'I have come from Baron Hausberg,' he continued.
p5176
sba(i__main__
Sentence
p5177
(dp5178
g17
I147
sg18
(lp5179
S"'The"
p5180
aS'Baron'
p5181
aS'--'
p5182
aS"'"
p5183
aS"'I"
p5184
aS'beg'
p5185
aS','
p5186
aS'sir'
p5187
aS','
p5188
aS'that'
p5189
aS'you'
p5190
aS'will'
p5191
aS'offer'
p5192
aS'him'
p5193
aS'my'
p5194
aS'sincerest'
p5195
aS'apologies'
p5196
aS','
p5197
aS"'"
p5198
aS'stammered'
p5199
aS'Hughie'
p5200
aS'.'
p5201
asg34
(lp5202
V'The
p5203
aVBaron
p5204
aV--
p5205
ag967
aV'I
p5206
aVbeg
p5207
ag90
aVsir
p5208
ag90
aVthat
p5209
aVyou
p5210
aVwill
p5211
aVoffer
p5212
aVhim
p5213
aVmy
p5214
aVsincerest
p5215
aVapology
p5216
ag90
ag967
aVstammer
p5217
aVHughie
p5218
ag48
asg49
(lp5219
g51
ag51
ag51
ag51
ag51
ag51
ag51
ag51
ag51
ag51
ag51
ag51
ag51
ag51
ag51
ag51
ag51
ag51
ag51
ag51
aVPERSON
p5220
ag51
asg52
(lp5221
g59
ag199
ag561
ag493
ag57
ag60
ag99
ag60
ag99
ag54
ag157
ag124
ag125
ag157
ag277
ag60
ag197
ag99
ag991
ag101
ag199
ag62
asg63
V'The Baron--'    'I beg, sir, that you will offer him my sincerest apologies,' stammered Hughie.
p5222
sba(i__main__
Sentence
p5223
(dp5224
g17
I148
sg18
(lp5225
S"'The"
p5226
aS'Baron'
p5227
aS','
p5228
aS"'"
p5229
aS'said'
p5230
aS'the'
p5231
aS'old'
p5232
aS'gentleman'
p5233
aS','
p5234
aS'with'
p5235
aS'a'
p5236
aS'smile'
p5237
aS','
p5238
aS"'has"
p5239
aS'commissioned'
p5240
aS'me'
p5241
aS'to'
p5242
aS'bring'
p5243
aS'you'
p5244
aS'this'
p5245
aS'letter'
p5246
aS';'
p5247
aS"'"
p5248
aS'and'
p5249
aS'he'
p5250
aS'extended'
p5251
aS'a'
p5252
aS'sealed'
p5253
aS'envelope'
p5254
aS'.'
p5255
asg34
(lp5256
V'The
p5257
aVBaron
p5258
ag90
ag967
ag265
aVthe
p5259
aVold
p5260
aVgentleman
p5261
ag90
aVwith
p5262
ag45
aVsmile
p5263
ag90
aV'has
p5264
aVcommission
p5265
aVme
p5266
aVto
p5267
aVbring
p5268
aVyou
p5269
aVthis
p5270
aVletter
p5271
ag546
ag967
aVand
p5272
aVhe
p5273
aVextend
p5274
ag45
aVseal
p5275
aVenvelope
p5276
ag48
asg49
(lp5277
g51
aVPERSON
p5278
ag51
ag51
ag51
ag51
ag51
ag51
ag51
ag51
ag51
ag51
ag51
ag51
ag51
ag51
ag51
ag51
ag51
ag51
ag51
ag51
ag51
ag51
ag51
ag51
ag51
ag51
ag51
ag51
asg52
(lp5279
g59
ag199
ag99
ag991
ag200
ag59
ag57
ag60
ag99
ag54
ag59
ag57
ag99
ag57
ag101
ag157
ag159
ag125
ag157
ag59
ag60
ag561
ag991
ag126
ag157
ag200
ag59
ag101
ag60
ag62
asg63
V'The Baron,' said the old gentleman, with a smile, 'has commissioned me to bring you this letter;' and he extended a sealed envelope.
p5280
sba(i__main__
Sentence
p5281
(dp5282
g17
I149
sg18
(lp5283
S'On'
p5284
aS'the'
p5285
aS'outside'
p5286
aS'was'
p5287
aS'written'
p5288
aS','
p5289
aS"'A"
p5290
aS'wedding'
p5291
aS'present'
p5292
aS'to'
p5293
aS'Hugh'
p5294
aS'Erskine'
p5295
aS'and'
p5296
aS'Laura'
p5297
aS'Merton'
p5298
aS','
p5299
aS'from'
p5300
aS'an'
p5301
aS'old'
p5302
aS'beggar'
p5303
aS','
p5304
aS"'"
p5305
aS'and'
p5306
aS'inside'
p5307
aS'was'
p5308
aS'a'
p5309
aS'cheque'
p5310
aS'for'
p5311
aS'10,000'
p5312
aS'.'
p5313
asg34
(lp5314
VOn
p5315
aVthe
p5316
aVoutside
p5317
ag237
ag4998
ag90
aV'A
p5318
aVwedding
p5319
aVpresent
p5320
aVto
p5321
aVHugh
p5322
aVErskine
p5323
aVand
p5324
aVLaura
p5325
aVMerton
p5326
ag90
aVfrom
p5327
aVan
p5328
aVold
p5329
aVbeggar
p5330
ag90
ag967
aVand
p5331
aVinside
p5332
ag237
ag45
aVcheque
p5333
aVfor
p5334
aV10,000
p5335
ag48
asg49
(lp5336
g51
ag51
ag51
ag51
ag51
ag51
ag51
ag51
ag51
ag51
aVPERSON
p5337
aVPERSON
p5338
ag51
aVPERSON
p5339
aVPERSON
p5340
ag51
ag51
ag51
ag51
ag51
ag51
ag51
ag51
ag51
ag51
ag51
ag51
ag51
ag51
ag51
asg52
(lp5341
g54
ag59
ag60
ag200
ag101
ag99
ag199
ag60
ag60
ag159
ag199
ag199
ag126
ag199
ag199
ag99
ag54
ag59
ag57
ag60
ag99
ag991
ag126
ag125
ag200
ag59
ag60
ag54
ag55
ag62
asg63
VOn the outside was written, 'A wedding present to Hugh Erskine and Laura Merton, from an old beggar,' and inside was a cheque for 10,000.
p5342
sba(i__main__
Sentence
p5343
(dp5344
g17
I150
sg18
(lp5345
S'When'
p5346
aS'they'
p5347
aS'were'
p5348
aS'married'
p5349
aS'Alan'
p5350
aS'Trevor'
p5351
aS'was'
p5352
aS'the'
p5353
aS'best-man'
p5354
aS','
p5355
aS'and'
p5356
aS'the'
p5357
aS'Baron'
p5358
aS'made'
p5359
aS'a'
p5360
aS'speech'
p5361
aS'at'
p5362
aS'the'
p5363
aS'wedding-breakfast'
p5364
aS'.'
p5365
asg34
(lp5366
VWhen
p5367
aVthey
p5368
ag840
aVmarry
p5369
aVAlan
p5370
aVTrevor
p5371
ag237
aVthe
p5372
aVbest-man
p5373
ag90
aVand
p5374
aVthe
p5375
aVBaron
p5376
ag1850
ag45
aVspeech
p5377
aVat
p5378
aVthe
p5379
aVwedding-breakfast
p5380
ag48
asg49
(lp5381
g51
ag51
ag51
ag51
aVPERSON
p5382
aVPERSON
p5383
ag51
ag51
ag51
ag51
ag51
ag51
aVPERSON
p5384
ag51
ag51
ag51
ag51
ag51
ag51
ag51
asg52
(lp5385
g990
ag157
ag200
ag101
ag199
ag199
ag200
ag59
ag57
ag99
ag126
ag59
ag199
ag200
ag59
ag60
ag54
ag59
ag57
ag62
asg63
VWhen they were married Alan Trevor was the best-man, and the Baron made a speech at the wedding-breakfast.
p5386
sba(i__main__
Sentence
p5387
(dp5388
g17
I151
sg18
(lp5389
S"'Millionaire"
p5390
aS'models'
p5391
aS','
p5392
aS"'"
p5393
aS'remarked'
p5394
aS'Alan'
p5395
aS','
p5396
aS"'are"
p5397
aS'rare'
p5398
aS'enough'
p5399
aS';'
p5400
aS'but'
p5401
aS','
p5402
aS'by'
p5403
aS'Jove'
p5404
aS','
p5405
aS'model'
p5406
aS'millionaires'
p5407
aS'are'
p5408
aS'rarer'
p5409
aS'still'
p5410
aS'!'
p5411
aS"'"
p5412
asg34
(lp5413
V'Millionaire
p5414
aVmodel
p5415
ag90
ag967
aVremark
p5416
aVAlan
p5417
ag90
aV'are
p5418
aVrare
p5419
aVenough
p5420
ag546
aVbut
p5421
ag90
aVby
p5422
aVJove
p5423
ag90
aVmodel
p5424
aVmillionaire
p5425
ag180
aVrarer
p5426
aVstill
p5427
ag211
ag967
asg49
(lp5428
g51
ag51
ag51
ag51
ag51
aVPERSON
p5429
ag51
ag51
ag51
ag51
ag51
ag51
ag51
ag51
aVPERSON
p5430
ag51
ag51
ag51
ag51
ag51
ag51
ag51
ag51
asg52
(lp5431
g57
ag197
ag99
ag991
ag101
ag199
ag99
ag57
ag60
ag100
ag561
ag126
ag99
ag54
ag199
ag99
ag60
ag197
ag196
ag100
ag100
ag62
ag991
asg63
V'Millionaire models,' remarked Alan, 'are rare enough; but, by Jove, model millionaires are rarer still!'
p5432
sbasbsS'summary'
p5433
g0
(g7
g2
Ntp5434
Rp5435
(dp5436
g11
S'There was a very good-looking young man, named Hughie Erskine. He was popular and kind. However, he was not very clever and had no money. He kept changing his job but always failed. Finally he stopped working and lived on money given to him by an old aunt. He loved a girl named Laura Merton, the daughter of a retired Colonel. The Colonel would only allow them to get married if Hughie had ten thousand pounds of his own. \n\n\n\n\n\nOne day, Hughie visited his friend, Alan Trevor, who was a painter. When Hughie came, Alan was painting a model. The model was a beggar-man. Hughie felt sorry for the model, so he gave him a sovereign. Later that night, Hughie met Alan at Palette Club. They had a talk. Hughie found out from Alan that the model was actually not a beggar-man, but a millionaire, named Baron Hausberg. Hughie went home unhappily, whereas Alan laughed loudly. \n\n\n\nThe next morning, a messenger from Baron Hausberg came and brought him a letter. The letter contained a cheque for ten thousand pounds which was a wedding present to Hugh Erskine and Laura Merton from Baron Hausberg. On the day of the marriage, Alan Trevor was the best man and the Baron made a speech at the wedding breakfast. Alan said, "Millionaire models are rare enough, but model millionaires are rarer still!" '
p5437
sg13
(lp5438
(i__main__
Sentence
p5439
(dp5440
g17
I0
sg18
(lp5441
S'There'
p5442
aS'was'
p5443
aS'a'
p5444
aS'very'
p5445
aS'good-looking'
p5446
aS'young'
p5447
aS'man'
p5448
aS','
p5449
aS'named'
p5450
aS'Hughie'
p5451
aS'Erskine'
p5452
aS'.'
p5453
asg34
(lp5454
VThere
p5455
ag237
ag45
aVvery
p5456
aVgood-looking
p5457
aVyoung
p5458
aVman
p5459
ag90
aVname
p5460
aVHughie
p5461
aVErskine
p5462
ag48
asg49
(lp5463
g51
ag51
ag51
ag51
ag51
ag51
ag51
ag51
ag51
aVPERSON
p5464
aVPERSON
p5465
ag51
asg52
(lp5466
g58
ag200
ag59
ag100
ag57
ag57
ag60
ag99
ag200
ag199
ag199
ag62
asg63
VThere was a very good-looking young man, named Hughie Erskine.
p5467
sba(i__main__
Sentence
p5468
(dp5469
g17
I1
sg18
(lp5470
S'He'
p5471
aS'was'
p5472
aS'popular'
p5473
aS'and'
p5474
aS'kind'
p5475
aS'.'
p5476
asg34
(lp5477
VHe
p5478
ag237
aVpopular
p5479
aVand
p5480
aVkind
p5481
ag48
asg49
(lp5482
g51
ag51
ag51
ag51
ag51
ag51
asg52
(lp5483
g157
ag200
ag57
ag126
ag60
ag62
asg63
VHe was popular and kind.
p5484
sba(i__main__
Sentence
p5485
(dp5486
g17
I2
sg18
(lp5487
S'However'
p5488
aS','
p5489
aS'he'
p5490
aS'was'
p5491
aS'not'
p5492
aS'very'
p5493
aS'clever'
p5494
aS'and'
p5495
aS'had'
p5496
aS'no'
p5497
aS'money'
p5498
aS'.'
p5499
asg34
(lp5500
VHowever
p5501
ag90
aVhe
p5502
ag237
aVnot
p5503
aVvery
p5504
aVclever
p5505
aVand
p5506
ag361
aVno
p5507
aVmoney
p5508
ag48
asg49
(lp5509
g51
ag51
ag51
ag51
ag51
ag51
ag51
ag51
ag51
ag51
ag51
ag51
asg52
(lp5510
g100
ag99
ag157
ag200
ag100
ag100
ag100
ag126
ag200
ag59
ag60
ag62
asg63
VHowever, he was not very clever and had no money.
p5511
sba(i__main__
Sentence
p5512
(dp5513
g17
I3
sg18
(lp5514
S'He'
p5515
aS'kept'
p5516
aS'changing'
p5517
aS'his'
p5518
aS'job'
p5519
aS'but'
p5520
aS'always'
p5521
aS'failed'
p5522
aS'.'
p5523
asg34
(lp5524
VHe
p5525
aVkeep
p5526
aVchange
p5527
aVhis
p5528
aVjob
p5529
aVbut
p5530
aValways
p5531
aVfail
p5532
ag48
asg49
(lp5533
g51
ag51
ag51
ag51
ag51
ag51
ag51
ag51
ag51
asg52
(lp5534
g157
ag200
ag61
ag277
ag60
ag126
ag100
ag200
ag62
asg63
VHe kept changing his job but always failed.
p5535
sba(i__main__
Sentence
p5536
(dp5537
g17
I4
sg18
(lp5538
S'Finally'
p5539
aS'he'
p5540
aS'stopped'
p5541
aS'working'
p5542
aS'and'
p5543
aS'lived'
p5544
aS'on'
p5545
aS'money'
p5546
aS'given'
p5547
aS'to'
p5548
aS'him'
p5549
aS'by'
p5550
aS'an'
p5551
aS'old'
p5552
aS'aunt'
p5553
aS'.'
p5554
asg34
(lp5555
VFinally
p5556
aVhe
p5557
aVstop
p5558
aVwork
p5559
aVand
p5560
aVlive
p5561
aVon
p5562
aVmoney
p5563
ag1445
aVto
p5564
aVhim
p5565
aVby
p5566
aVan
p5567
aVold
p5568
aVaunt
p5569
ag48
asg49
(lp5570
g51
ag51
ag51
ag51
ag51
ag51
ag51
ag51
ag51
ag51
ag51
ag51
ag51
ag51
ag51
ag51
asg52
(lp5571
g100
ag157
ag200
ag61
ag126
ag200
ag54
ag60
ag101
ag159
ag157
ag54
ag59
ag57
ag60
ag62
asg63
VFinally he stopped working and lived on money given to him by an old aunt.
p5572
sba(i__main__
Sentence
p5573
(dp5574
g17
I5
sg18
(lp5575
S'He'
p5576
aS'loved'
p5577
aS'a'
p5578
aS'girl'
p5579
aS'named'
p5580
aS'Laura'
p5581
aS'Merton'
p5582
aS','
p5583
aS'the'
p5584
aS'daughter'
p5585
aS'of'
p5586
aS'a'
p5587
aS'retired'
p5588
aS'Colonel'
p5589
aS'.'
p5590
asg34
(lp5591
VHe
p5592
aVlove
p5593
ag45
aVgirl
p5594
aVname
p5595
aVLaura
p5596
aVMerton
p5597
ag90
aVthe
p5598
aVdaughter
p5599
aVof
p5600
ag45
aVretire
p5601
aVColonel
p5602
ag48
asg49
(lp5603
g51
ag51
ag51
ag51
ag51
aVPERSON
p5604
aVPERSON
p5605
ag51
ag51
ag51
ag51
ag51
ag51
ag51
ag51
asg52
(lp5606
g157
ag200
ag59
ag60
ag101
ag199
ag199
ag99
ag59
ag60
ag54
ag59
ag101
ag199
ag62
asg63
VHe loved a girl named Laura Merton, the daughter of a retired Colonel.
p5607
sba(i__main__
Sentence
p5608
(dp5609
g17
I6
sg18
(lp5610
S'The'
p5611
aS'Colonel'
p5612
aS'would'
p5613
aS'only'
p5614
aS'allow'
p5615
aS'them'
p5616
aS'to'
p5617
aS'get'
p5618
aS'married'
p5619
aS'if'
p5620
aS'Hughie'
p5621
aS'had'
p5622
aS'ten'
p5623
aS'thousand'
p5624
aS'pounds'
p5625
aS'of'
p5626
aS'his'
p5627
aS'own'
p5628
aS'.'
p5629
asg34
(lp5630
VThe
p5631
aVColonel
p5632
aVwould
p5633
aVonly
p5634
aVallow
p5635
aVthem
p5636
aVto
p5637
aVget
p5638
ag5369
aVif
p5639
aVHughie
p5640
ag361
aVten
p5641
aVthousand
p5642
aVpound
p5643
aVof
p5644
aVhis
p5645
aVown
p5646
ag48
asg49
(lp5647
g51
ag51
ag51
ag51
ag51
ag51
ag51
ag51
ag51
ag51
aVPERSON
p5648
ag51
ag51
ag51
ag51
ag51
ag51
ag51
ag51
asg52
(lp5649
g59
ag199
ag124
ag100
ag125
ag157
ag159
ag125
ag101
ag54
ag199
ag200
ag101
ag60
ag197
ag54
ag277
ag57
ag62
asg63
VThe Colonel would only allow them to get married if Hughie had ten thousand pounds of his own.
p5650
sba(i__main__
Sentence
p5651
(dp5652
g17
I7
sg18
(lp5653
S'One'
p5654
aS'day'
p5655
aS','
p5656
aS'Hughie'
p5657
aS'visited'
p5658
aS'his'
p5659
aS'friend'
p5660
aS','
p5661
aS'Alan'
p5662
aS'Trevor'
p5663
aS','
p5664
aS'who'
p5665
aS'was'
p5666
aS'a'
p5667
aS'painter'
p5668
aS'.'
p5669
asg34
(lp5670
VOne
p5671
aVday
p5672
ag90
aVHughie
p5673
aVvisit
p5674
aVhis
p5675
aVfriend
p5676
ag90
aVAlan
p5677
aVTrevor
p5678
ag90
aVwho
p5679
ag237
ag45
aVpainter
p5680
ag48
asg49
(lp5681
g51
ag51
ag51
aVPERSON
p5682
ag51
ag51
ag51
ag51
aVPERSON
p5683
aVPERSON
p5684
ag51
ag51
ag51
ag51
ag51
ag51
asg52
(lp5685
g55
ag60
ag99
ag199
ag200
ag277
ag60
ag99
ag199
ag199
ag99
ag562
ag200
ag59
ag60
ag62
asg63
VOne day, Hughie visited his friend, Alan Trevor, who was a painter.
p5686
sba(i__main__
Sentence
p5687
(dp5688
g17
I8
sg18
(lp5689
S'When'
p5690
aS'Hughie'
p5691
aS'came'
p5692
aS','
p5693
aS'Alan'
p5694
aS'was'
p5695
aS'painting'
p5696
aS'a'
p5697
aS'model'
p5698
aS'.'
p5699
asg34
(lp5700
VWhen
p5701
aVHughie
p5702
ag1483
ag90
aVAlan
p5703
ag237
aVpaint
p5704
ag45
aVmodel
p5705
ag48
asg49
(lp5706
g51
aVPERSON
p5707
ag51
ag51
aVPERSON
p5708
ag51
ag51
ag51
ag51
ag51
asg52
(lp5709
g990
ag199
ag200
ag99
ag199
ag200
ag61
ag59
ag60
ag62
asg63
VWhen Hughie came, Alan was painting a model.
p5710
sba(i__main__
Sentence
p5711
(dp5712
g17
I9
sg18
(lp5713
S'The'
p5714
aS'model'
p5715
aS'was'
p5716
aS'a'
p5717
aS'beggar-man'
p5718
aS'.'
p5719
asg34
(lp5720
VThe
p5721
aVmodel
p5722
ag237
ag45
aVbeggar-man
p5723
ag48
asg49
(lp5724
g51
ag51
ag51
ag51
ag51
ag51
asg52
(lp5725
g59
ag60
ag200
ag59
ag57
ag62
asg63
VThe model was a beggar-man.
p5726
sba(i__main__
Sentence
p5727
(dp5728
g17
I10
sg18
(lp5729
S'Hughie'
p5730
aS'felt'
p5731
aS'sorry'
p5732
aS'for'
p5733
aS'the'
p5734
aS'model'
p5735
aS','
p5736
aS'so'
p5737
aS'he'
p5738
aS'gave'
p5739
aS'him'
p5740
aS'a'
p5741
aS'sovereign'
p5742
aS'.'
p5743
asg34
(lp5744
VHughie
p5745
aVfelt
p5746
aVsorry
p5747
aVfor
p5748
aVthe
p5749
aVmodel
p5750
ag90
aVso
p5751
aVhe
p5752
ag3956
aVhim
p5753
ag45
aVsovereign
p5754
ag48
asg49
(lp5755
VPERSON
p5756
ag51
ag51
ag51
ag51
ag51
ag51
ag51
ag51
ag51
ag51
ag51
ag51
ag51
asg52
(lp5757
g199
ag200
ag57
ag54
ag59
ag60
ag99
ag100
ag157
ag200
ag157
ag59
ag60
ag62
asg63
VHughie felt sorry for the model, so he gave him a sovereign.
p5758
sba(i__main__
Sentence
p5759
(dp5760
g17
I11
sg18
(lp5761
S'Later'
p5762
aS'that'
p5763
aS'night'
p5764
aS','
p5765
aS'Hughie'
p5766
aS'met'
p5767
aS'Alan'
p5768
aS'at'
p5769
aS'Palette'
p5770
aS'Club'
p5771
aS'.'
p5772
asg34
(lp5773
VLater
p5774
aVthat
p5775
aVnight
p5776
ag90
aVHughie
p5777
ag1786
aVAlan
p5778
aVat
p5779
aVPalette
p5780
aVClub
p5781
ag48
asg49
(lp5782
g51
ag51
ag51
ag51
aVPERSON
p5783
ag51
aVORGANIZATION
p5784
aVORGANIZATION
p5785
aVORGANIZATION
p5786
aVORGANIZATION
p5787
ag51
asg52
(lp5788
g57
ag54
ag60
ag99
ag199
ag200
ag199
ag54
ag199
ag199
ag62
asg63
VLater that night, Hughie met Alan at Palette Club.
p5789
sba(i__main__
Sentence
p5790
(dp5791
g17
I12
sg18
(lp5792
S'They'
p5793
aS'had'
p5794
aS'a'
p5795
aS'talk'
p5796
aS'.'
p5797
asg34
(lp5798
VThey
p5799
ag361
ag45
aVtalk
p5800
ag48
asg49
(lp5801
g51
ag51
ag51
ag51
ag51
asg52
(lp5802
g157
ag200
ag59
ag60
ag62
asg63
VThey had a talk.
p5803
sba(i__main__
Sentence
p5804
(dp5805
g17
I13
sg18
(lp5806
S'Hughie'
p5807
aS'found'
p5808
aS'out'
p5809
aS'from'
p5810
aS'Alan'
p5811
aS'that'
p5812
aS'the'
p5813
aS'model'
p5814
aS'was'
p5815
aS'actually'
p5816
aS'not'
p5817
aS'a'
p5818
aS'beggar-man'
p5819
aS','
p5820
aS'but'
p5821
aS'a'
p5822
aS'millionaire'
p5823
aS','
p5824
aS'named'
p5825
aS'Baron'
p5826
aS'Hausberg'
p5827
aS'.'
p5828
asg34
(lp5829
VHughie
p5830
ag777
aVout
p5831
aVfrom
p5832
aVAlan
p5833
aVthat
p5834
aVthe
p5835
aVmodel
p5836
ag237
aVactually
p5837
aVnot
p5838
ag45
aVbeggar-man
p5839
ag90
aVbut
p5840
ag45
aVmillionaire
p5841
ag90
aVname
p5842
aVBaron
p5843
aVHausberg
p5844
ag48
asg49
(lp5845
VPERSON
p5846
ag51
ag51
ag51
aVPERSON
p5847
ag51
ag51
ag51
ag51
ag51
ag51
ag51
ag51
ag51
ag51
ag51
ag51
ag51
ag51
aVPERSON
p5848
aVPERSON
p5849
ag51
asg52
(lp5850
g199
ag200
ag1207
ag54
ag199
ag54
ag59
ag60
ag200
ag100
ag100
ag59
ag57
ag99
ag126
ag59
ag60
ag99
ag200
ag199
ag199
ag62
asg63
VHughie found out from Alan that the model was actually not a beggar-man, but a millionaire, named Baron Hausberg.
p5851
sba(i__main__
Sentence
p5852
(dp5853
g17
I14
sg18
(lp5854
S'Hughie'
p5855
aS'went'
p5856
aS'home'
p5857
aS'unhappily'
p5858
aS','
p5859
aS'whereas'
p5860
aS'Alan'
p5861
aS'laughed'
p5862
aS'loudly'
p5863
aS'.'
p5864
asg34
(lp5865
VHughie
p5866
ag2444
aVhome
p5867
aVunhappily
p5868
ag90
aVwhereas
p5869
aVAlan
p5870
aVlaugh
p5871
aVloudly
p5872
ag48
asg49
(lp5873
g51
ag51
ag51
ag51
ag51
ag51
aVPERSON
p5874
ag51
ag51
ag51
asg52
(lp5875
g199
ag200
ag60
ag100
ag99
ag54
ag199
ag200
ag100
ag62
asg63
VHughie went home unhappily, whereas Alan laughed loudly.
p5876
sba(i__main__
Sentence
p5877
(dp5878
g17
I15
sg18
(lp5879
S'The'
p5880
aS'next'
p5881
aS'morning'
p5882
aS','
p5883
aS'a'
p5884
aS'messenger'
p5885
aS'from'
p5886
aS'Baron'
p5887
aS'Hausberg'
p5888
aS'came'
p5889
aS'and'
p5890
aS'brought'
p5891
aS'him'
p5892
aS'a'
p5893
aS'letter'
p5894
aS'.'
p5895
asg34
(lp5896
VThe
p5897
aVnext
p5898
aVmorning
p5899
ag90
ag45
aVmessenger
p5900
aVfrom
p5901
aVBaron
p5902
aVHausberg
p5903
ag1483
aVand
p5904
ag4992
aVhim
p5905
ag45
aVletter
p5906
ag48
asg49
(lp5907
g51
ag51
ag51
ag51
ag51
ag51
ag51
aVPERSON
p5908
aVPERSON
p5909
ag51
ag51
ag51
ag51
ag51
ag51
ag51
asg52
(lp5910
g59
ag57
ag60
ag99
ag59
ag60
ag54
ag199
ag199
ag200
ag126
ag101
ag157
ag59
ag60
ag62
asg63
VThe next morning, a messenger from Baron Hausberg came and brought him a letter.
p5911
sba(i__main__
Sentence
p5912
(dp5913
g17
I16
sg18
(lp5914
S'The'
p5915
aS'letter'
p5916
aS'contained'
p5917
aS'a'
p5918
aS'cheque'
p5919
aS'for'
p5920
aS'ten'
p5921
aS'thousand'
p5922
aS'pounds'
p5923
aS'which'
p5924
aS'was'
p5925
aS'a'
p5926
aS'wedding'
p5927
aS'present'
p5928
aS'to'
p5929
aS'Hugh'
p5930
aS'Erskine'
p5931
aS'and'
p5932
aS'Laura'
p5933
aS'Merton'
p5934
aS'from'
p5935
aS'Baron'
p5936
aS'Hausberg'
p5937
aS'.'
p5938
asg34
(lp5939
VThe
p5940
aVletter
p5941
aVcontain
p5942
ag45
aVcheque
p5943
aVfor
p5944
aVten
p5945
aVthousand
p5946
aVpound
p5947
aVwhich
p5948
ag237
ag45
aVwedding
p5949
aVpresent
p5950
aVto
p5951
aVHugh
p5952
aVErskine
p5953
aVand
p5954
aVLaura
p5955
aVMerton
p5956
aVfrom
p5957
aVBaron
p5958
aVHausberg
p5959
ag48
asg49
(lp5960
g51
ag51
ag51
ag51
ag51
ag51
ag51
ag51
ag51
ag51
ag51
ag51
ag51
ag51
ag51
aVPERSON
p5961
aVPERSON
p5962
ag51
aVPERSON
p5963
aVPERSON
p5964
ag51
aVPERSON
p5965
aVPERSON
p5966
ag51
asg52
(lp5967
g59
ag60
ag200
ag59
ag60
ag54
ag100
ag196
ag197
ag198
ag200
ag59
ag60
ag60
ag159
ag199
ag199
ag126
ag199
ag199
ag54
ag199
ag199
ag62
asg63
VThe letter contained a cheque for ten thousand pounds which was a wedding present to Hugh Erskine and Laura Merton from Baron Hausberg.
p5968
sba(i__main__
Sentence
p5969
(dp5970
g17
I17
sg18
(lp5971
S'On'
p5972
aS'the'
p5973
aS'day'
p5974
aS'of'
p5975
aS'the'
p5976
aS'marriage'
p5977
aS','
p5978
aS'Alan'
p5979
aS'Trevor'
p5980
aS'was'
p5981
aS'the'
p5982
aS'best'
p5983
aS'man'
p5984
aS'and'
p5985
aS'the'
p5986
aS'Baron'
p5987
aS'made'
p5988
aS'a'
p5989
aS'speech'
p5990
aS'at'
p5991
aS'the'
p5992
aS'wedding'
p5993
aS'breakfast'
p5994
aS'.'
p5995
asg34
(lp5996
VOn
p5997
aVthe
p5998
aVday
p5999
aVof
p6000
aVthe
p6001
aVmarriage
p6002
ag90
aVAlan
p6003
aVTrevor
p6004
ag237
aVthe
p6005
aVbest
p6006
aVman
p6007
aVand
p6008
aVthe
p6009
aVBaron
p6010
ag1850
ag45
aVspeech
p6011
aVat
p6012
aVthe
p6013
aVwedding
p6014
aVbreakfast
p6015
ag48
asg49
(lp6016
g51
ag51
ag51
ag51
ag51
ag51
ag51
aVPERSON
p6017
aVPERSON
p6018
ag51
ag51
ag51
ag51
ag51
ag51
aVPERSON
p6019
ag51
ag51
ag51
ag51
ag51
ag51
ag51
ag51
asg52
(lp6020
g54
ag59
ag60
ag54
ag59
ag60
ag99
ag199
ag199
ag200
ag59
ag854
ag60
ag126
ag59
ag199
ag200
ag59
ag60
ag54
ag59
ag60
ag60
ag62
asg63
VOn the day of the marriage, Alan Trevor was the best man and the Baron made a speech at the wedding breakfast.
p6021
sba(i__main__
Sentence
p6022
(dp6023
g17
I18
sg18
(lp6024
S'Alan'
p6025
aS'said'
p6026
aS','
p6027
aS'``'
p6028
aS'Millionaire'
p6029
aS'models'
p6030
aS'are'
p6031
aS'rare'
p6032
aS'enough'
p6033
aS','
p6034
aS'but'
p6035
aS'model'
p6036
aS'millionaires'
p6037
aS'are'
p6038
aS'rarer'
p6039
aS'still'
p6040
aS'!'
p6041
aS"''"
p6042
asg34
(lp6043
VAlan
p6044
ag265
ag90
aV``
p6045
aVMillionaire
p6046
aVmodel
p6047
ag180
aVrare
p6048
aVenough
p6049
ag90
aVbut
p6050
aVmodel
p6051
aVmillionaire
p6052
ag180
aVrarer
p6053
aVstill
p6054
ag211
aV''
p6055
asg49
(lp6056
VPERSON
p6057
ag51
ag51
ag51
ag51
ag51
ag51
ag51
ag51
ag51
ag51
ag51
ag51
ag51
ag51
ag51
ag51
ag51
asg52
(lp6058
g199
ag200
ag99
aS'``'
p6059
ag199
ag197
ag196
ag57
ag57
ag99
ag126
ag60
ag197
ag196
ag100
ag100
ag62
ag991
asg63
VAlan said, "Millionaire models are rare enough, but model millionaires are rarer still!"
p6060
sbasbsS'name'
p6061
S'The Model Millionaire'
p6062
sS'summaries'
p6063
(lp6064
g5435
asb.