ccopy_reg
_reconstructor
p0
(c__main__
Story
p1
c__builtin__
object
p2
Ntp3
Rp4
(dp5
S'text'
p6
g0
(c__main__
Document
p7
g2
Ntp8
Rp9
(dp10
S'_Document__initialContent'
p11
S'In the fall the war was always there, but we did not go to it any more. It was cold in the fall in Milan and the dark came very early. Then the electric lights came on, and it was pleasant along the streets looking in the windows. There was much game hanging outside the shops, and the snow powdered in the fur of the foxes and the wind blew their tails. The deer hung stiff and heavy and empty, and small birds blew in the wind and the wind turned their feathers. It was a cold fall and the wind came down from the mountains.\n\n\n\n\n\nWe were all at the hospital every afternoon, and there were different ways of walking across the town through the dusk to the hospital. Two of the ways were alongside canals, but they were long. Always, though, you crossed a bridge across a canal to enter the hospital. There was a choice of three bridges. On one of them a woman sold roasted chestnuts. It was warm, standing in front of her charcoal fire, and the chestnuts were warm afterward in your pocket. The hospital was very old and very beautiful, and you entered a gate and walked across a courtyard and out a gate on the other side. There were usually funerals starting from the courtyard. Beyond the old hospital were the new brick pavilions, and there we met every afternoon and were all very polite and interested in what was the matter, and sat in the machines that were to make so much difference.\n\n\n\nThe doctor came up to the machine where I was sitting and said: "What did you like best to do before the war? Did you practice a sport?"\n\nI said: "Yes, football."\n\n"Good," he said. "You will be able to play football again better than ever."\n\nMy knee did not bend and the leg dropped straight from the knee to the ankle without a calf, and the machine was to bend the knee and make it move as riding a tricycle. But it did not bend yet, and instead the machine lurched when it came to the bending part. The doctor said:" That will all pass. You are a fortunate young man. You will play football again like a champion."\n\n\n\nIn the next machine was a major who had a little hand like a baby\'s. He winked at me when the doctor examined his hand, which was between two leather straps that bounced up and down and flapped the stiff fingers, and said: "And will I too play football, captain-doctor?" He had been a very great fencer, and before the war the greatest fencer in Italy.\n\n\n\nThe doctor went to his office in a back room and brought a photograph which showed a hand that had been withered almost as small as the major\'s, before it had taken a machine course, and after was a little larger. The major held the photograph with his good hand and looked at it very carefully. "A wound?" he asked.\n\n"An industrial accident," the doctor said.\n\n"Very interesting, very interesting," the major said, and handed it back to the doctor.\n\n"You have confidence?"\n\n"No," said the major.\n\nThere were three boys who came each day who were about the same age I was. They were all three from Milan, and one of them was to be a lawyer, and one was to be a painter, and one had intended to be a soldier, and after we were finished with the machines, sometimes we walked back together to the Caf Cova, which was next door to the Scala. We walked the short way through the communist quarter because we were four together. The people hated us because we were officers, and from a wine-shop someone called out, "A basso gli ufficiali!" as we passed. Another boy who walked with us sometimes and made us five wore a black silk handkerchief across his face because he had no nose then and his face was to be rebuilt. He had gone out to the front from the military academy and been wounded within an hour after he had gone into the front line for the first time. They rebuilt his face, but he came from a very old family and they could never get the nose exactly right. He went to South America and worked in a bank. But this was a long time ago, and then we did not any of us know how it was going to be afterward. We only knew then that there was always the war, but that we were not going to it any more.\n\n\n\n\n\nWe all had the same medals, except the boy with the black silk bandage across his face, and he had not been at the front long enough to get any medals. The tall boy with a very pale face who was to be a lawyer had been lieutenant of Arditi and had three medals of the sort we each had only one of. He had lived a very long time with death and was a little detached. We were all a little detached, and there was nothing that held us together except that we met every afternoon at the hospital. Although, as we walked to the Cova through the though part of town, walking in the dark, with light and singing coming out of the wine-shops, and sometimes having to walk into the street when the men and women would crowd together on the sidewalk so that we would have had to jostle them to et by, we felt held together by there being something that had happened that they, the people who disliked us, did not understand.\n\n\n\nWe ourselves all understood the Cova, where it was rich and warm and not too brightly lighted, and noisy and smoky at certain hours, and there were always girls at the tables and the illustrated papers on a rack on the wall. The girls at the Cova were very patriotic, and I found that the most patriotic people in Italy were the caf girls - and I believe they are still patriotic.\n\n\n\nThe boys at first were very polite about my medals and asked me what I had done to get them. I showed them the papers, which were written in very beautiful language and full of fratellanza and abnegazione, but which really said, with the adjectives removed, that I had been given the medals because I was an American. After that their manner changed a little toward me, although I was their friend against outsiders. I was a friend, but I was never really one of them after they had read the citations, because it had been different with them and they had done very different things to get their medals. I had been wounded, it was true; but we all knew that being wounded, after all, was really an accident. I was never ashamed of the ribbons, though, and sometimes, after the cocktail hour, I would imagine myself having done all the things they had done to get their medals; but walking home at night through the empty streets with the cold wind and all the shops closed, trying to keep near the street lights, I knew that  would never have done such things, and I was very much afraid to die, and often lay in bed at night by myself, afraid to die and wondering how I would be when back to the front again.\n\n\n\nThe three with the medals were like hunting-hawks; and I was not a hawk, although I might seem a hawk to those who had never hunted; they, the three, knew better and so we drifted apart. But I stayed good friends with the boy who had been wounded his first day at the front, because he would never know now how he would have turned out; so he could never be accepted either, and I liked him because I thought perhaps he would not have turned out to be a hawk either. \n\nThe major, who had been a great fencer, did not believe in bravery, and spent much time while we sat in the machines correcting my grammar. He had complimented me on how I spoke Italian, and we talked together very easily. One day I had said that Italian seemed such an easy language to me that I could not take a great interest in it; everything was so easy to say. "Ah, yes," the major said. "Why, then, do you not take up the use of grammar?" So we took up the use of grammar, and soon Italian was such a difficult language that I was afraid to talk to him until I had the grammar straight in my mind.\n\n\n\nThe major came very regularly to the hospital. I do not think he ever missed a day, although I am sure he did not believe in the machines. There was a time when none of us believed in the machines, and one day the major said it was all nonsense. The machines were new then and it was we who were to prove them. It was an idiotic idea, he said, "a theory like another". I had not learned my grammar, and he said I was a stupid impossible disgrace, and he was a fool to have bothered with me. He was a small man and he sat straight up in his chair with his right hand thrust into the machine and looked straight ahead at the wall while the straps thumbed up and down with his fingers in them.\n\n\n\n"What will you do when the was is over if it is over?" he asked me. "Speak grammatically!"\n\n"I will go to the States."\n\n"Are you married?"\n\n"No, but I hope to be."\n\n"The more a fool you are," he said. He seemed very angry. "A man must not marry."\n\n"Why, Signor Maggiore?"\n\n"Don\'t call me Signor Maggiore."\n\n"Why must not a man marry?"\n\n"He cannot marry. He cannot marry," he said angrily. "If he is to lose everything, he should not place himself in a position to lose that. He should not place himself in a position to lose. He should find things he cannot lose."\n\nHe spoke very angrily and bitterly, and looked straight ahead while he talked.\n\n"But why should he necessarily lose it?"\n\n"He\'ll lose it," the major said. He was looking at the wall. Then he looked down at the machine and jerked his little hand out from between the straps and slapped it hard against his thigh. "He\'ll lose it," he almost shouted. "Don\'t argue with me!" Then he called to the attendant who ran the machines. "Come and turn this damned thing off."\n\n\n\nHe went back into the other room for the light treatment and the massage. Then I heard him ask the doctor if he might use his telephone and he shut the door. When he came back into the room, I was sitting in another machine. He was wearing his cape and had his cap on, and he came directly toward my machine and put his arm on my shoulder.\n\n"I am sorry," he said, and patted me on the shoulder with his good hand. "I would not be rude. My wife has just died. You must forgive me."\n\n"Oh-" I said, feeling sick for him. "I am so sorry."\n\nHe stood there biting his lower lip. "It is very difficult," he said. "I cannot resign myself."\n\nHe looked straight past me and out through the window. Then he began to cry. "I am utterly unable to resign myself," he said and choked. And then crying, his head up looking at nothing, carrying himself straight and soldierly, with tears on both cheeks and biting his lips, he walked past the machines and out the door.\n\n\n\nThe doctor told me that the major\'s wife, who was very young and whom he had not married until he was definitely invalided out of the war, had died of pneumonia. She had been sick only a few days. No one expected her to die. The major did not come to the hospital for three days. Then he came at the usual hour, wearing a black band on the sleeve of his uniform. When he came back, there were large framed photographs around the wall, of all sorts of wounds before and after they had been cured by the machines. In front of the machine the major used were three photographs of hands like his that were completely restored. I do not know where the doctor got them. I always understood we were the first to use the machines. The photographs did not make much difference to the major because he only looked out of the window.\n\n\n\n\n\n\n\n '
p12
sS'sentences'
p13
(lp14
(i__main__
Sentence
p15
(dp16
S'index'
p17
I0
sS'words'
p18
(lp19
S'In'
p20
aS'the'
p21
aS'fall'
p22
aS'the'
p23
aS'war'
p24
aS'was'
p25
aS'always'
p26
aS'there'
p27
aS','
p28
aS'but'
p29
aS'we'
p30
aS'did'
p31
aS'not'
p32
aS'go'
p33
aS'to'
p34
aS'it'
p35
aS'any'
p36
aS'more'
p37
aS'.'
p38
asS'lemmas'
p39
(lp40
VIn
p41
aVthe
p42
aVfall
p43
aVthe
p44
aVwar
p45
aVbe
p46
aValways
p47
aVthere
p48
aV,
p49
aVbut
p50
aVwe
p51
aVdo
p52
aVnot
p53
aVgo
p54
aVto
p55
aVit
p56
aVany
p57
aVmore
p58
aV.
p59
asS'nerTags'
p60
(lp61
VO
p62
ag62
ag62
ag62
ag62
ag62
ag62
ag62
ag62
ag62
ag62
ag62
ag62
ag62
ag62
ag62
ag62
ag62
ag62
asS'posTags'
p63
(lp64
S'IN'
p65
aS'DT'
p66
aS'NN'
p67
ag66
ag67
aS'VBD'
p68
aS'RB'
p69
ag69
aS','
p70
aS'CC'
p71
aS'PRP'
p72
ag68
ag69
aS'VB'
p73
aS'TO'
p74
ag72
ag66
aS'RBR'
p75
aS'.'
p76
asS'_Sentence__initialContent'
p77
VIn the fall the war was always there, but we did not go to it any more.
p78
sba(i__main__
Sentence
p79
(dp80
g17
I1
sg18
(lp81
S'It'
p82
aS'was'
p83
aS'cold'
p84
aS'in'
p85
aS'the'
p86
aS'fall'
p87
aS'in'
p88
aS'Milan'
p89
aS'and'
p90
aS'the'
p91
aS'dark'
p92
aS'came'
p93
aS'very'
p94
aS'early'
p95
aS'.'
p96
asg39
(lp97
VIt
p98
ag46
aVcold
p99
aVin
p100
aVthe
p101
aVfall
p102
aVin
p103
aVMilan
p104
aVand
p105
aVthe
p106
aVdark
p107
aVcame
p108
aVvery
p109
aVearly
p110
ag59
asg60
(lp111
g62
ag62
ag62
ag62
ag62
ag62
ag62
aVLOCATION
p112
ag62
ag62
ag62
ag62
ag62
ag62
ag62
asg63
(lp113
g72
ag68
aS'VBN'
p114
ag65
ag66
ag67
ag65
aS'NNP'
p115
ag71
ag66
aS'JJ'
p116
ag67
ag69
ag116
ag76
asg77
VIt was cold in the fall in Milan and the dark came very early.
p117
sba(i__main__
Sentence
p118
(dp119
g17
I2
sg18
(lp120
S'Then'
p121
aS'the'
p122
aS'electric'
p123
aS'lights'
p124
aS'came'
p125
aS'on'
p126
aS','
p127
aS'and'
p128
aS'it'
p129
aS'was'
p130
aS'pleasant'
p131
aS'along'
p132
aS'the'
p133
aS'streets'
p134
aS'looking'
p135
aS'in'
p136
aS'the'
p137
aS'windows'
p138
aS'.'
p139
asg39
(lp140
VThen
p141
aVthe
p142
aVelectric
p143
aVlight
p144
aVcome
p145
aVon
p146
ag49
aVand
p147
aVit
p148
ag46
aVpleasant
p149
aValong
p150
aVthe
p151
aVstreet
p152
aVlook
p153
aVin
p154
aVthe
p155
aVwindow
p156
ag59
asg60
(lp157
g62
ag62
ag62
ag62
ag62
ag62
ag62
ag62
ag62
ag62
ag62
ag62
ag62
ag62
ag62
ag62
ag62
ag62
ag62
asg63
(lp158
g69
ag66
ag116
aS'NNS'
p159
ag68
ag65
ag70
ag71
ag72
ag68
ag116
ag65
ag66
ag159
aS'VBG'
p160
ag65
ag66
ag159
ag76
asg77
VThen the electric lights came on, and it was pleasant along the streets looking in the windows.
p161
sba(i__main__
Sentence
p162
(dp163
g17
I3
sg18
(lp164
S'There'
p165
aS'was'
p166
aS'much'
p167
aS'game'
p168
aS'hanging'
p169
aS'outside'
p170
aS'the'
p171
aS'shops'
p172
aS','
p173
aS'and'
p174
aS'the'
p175
aS'snow'
p176
aS'powdered'
p177
aS'in'
p178
aS'the'
p179
aS'fur'
p180
aS'of'
p181
aS'the'
p182
aS'foxes'
p183
aS'and'
p184
aS'the'
p185
aS'wind'
p186
aS'blew'
p187
aS'their'
p188
aS'tails'
p189
aS'.'
p190
asg39
(lp191
VThere
p192
ag46
aVmuch
p193
aVgame
p194
aVhang
p195
aVoutside
p196
aVthe
p197
aVshop
p198
ag49
aVand
p199
aVthe
p200
aVsnow
p201
aVpowder
p202
aVin
p203
aVthe
p204
aVfur
p205
aVof
p206
aVthe
p207
aVfox
p208
aVand
p209
aVthe
p210
aVwind
p211
aVblew
p212
aVtheir
p213
aVtail
p214
ag59
asg60
(lp215
g62
ag62
ag62
ag62
ag62
ag62
ag62
ag62
ag62
ag62
ag62
ag62
ag62
ag62
ag62
ag62
ag62
ag62
ag62
ag62
ag62
ag62
ag62
ag62
ag62
ag62
asg63
(lp216
S'EX'
p217
ag68
ag116
ag67
ag160
ag65
ag66
ag159
ag70
ag71
ag66
ag67
ag68
ag65
ag66
ag67
ag65
ag66
ag159
ag71
ag66
ag67
ag67
aS'PRP$'
p218
ag159
ag76
asg77
VThere was much game hanging outside the shops, and the snow powdered in the fur of the foxes and the wind blew their tails.
p219
sba(i__main__
Sentence
p220
(dp221
g17
I4
sg18
(lp222
S'The'
p223
aS'deer'
p224
aS'hung'
p225
aS'stiff'
p226
aS'and'
p227
aS'heavy'
p228
aS'and'
p229
aS'empty'
p230
aS','
p231
aS'and'
p232
aS'small'
p233
aS'birds'
p234
aS'blew'
p235
aS'in'
p236
aS'the'
p237
aS'wind'
p238
aS'and'
p239
aS'the'
p240
aS'wind'
p241
aS'turned'
p242
aS'their'
p243
aS'feathers'
p244
aS'.'
p245
asg39
(lp246
VThe
p247
aVdeer
p248
aVhung
p249
aVstiff
p250
aVand
p251
aVheavy
p252
aVand
p253
aVempty
p254
ag49
aVand
p255
aVsmall
p256
aVbird
p257
aVblow
p258
aVin
p259
aVthe
p260
aVwind
p261
aVand
p262
aVthe
p263
aVwind
p264
aVturn
p265
aVtheir
p266
aVfeather
p267
ag59
asg60
(lp268
g62
ag62
ag62
ag62
ag62
ag62
ag62
ag62
ag62
ag62
ag62
ag62
ag62
ag62
ag62
ag62
ag62
ag62
ag62
ag62
ag62
ag62
ag62
asg63
(lp269
g66
ag67
ag67
ag67
ag71
ag116
ag71
ag67
ag70
ag71
ag116
ag159
aS'VBP'
p270
ag65
ag66
ag67
ag71
ag66
ag67
ag68
ag218
ag159
ag76
asg77
VThe deer hung stiff and heavy and empty, and small birds blew in the wind and the wind turned their feathers.
p271
sba(i__main__
Sentence
p272
(dp273
g17
I5
sg18
(lp274
S'It'
p275
aS'was'
p276
aS'a'
p277
aS'cold'
p278
aS'fall'
p279
aS'and'
p280
aS'the'
p281
aS'wind'
p282
aS'came'
p283
aS'down'
p284
aS'from'
p285
aS'the'
p286
aS'mountains'
p287
aS'.'
p288
asg39
(lp289
VIt
p290
ag46
aVa
p291
aVcold
p292
aVfall
p293
aVand
p294
aVthe
p295
aVwind
p296
ag145
aVdown
p297
aVfrom
p298
aVthe
p299
aVmountain
p300
ag59
asg60
(lp301
g62
ag62
ag62
ag62
ag62
ag62
ag62
ag62
ag62
ag62
ag62
ag62
ag62
ag62
asg63
(lp302
g72
ag68
ag66
ag116
ag67
ag71
ag66
ag67
ag68
ag65
ag65
ag66
ag159
ag76
asg77
VIt was a cold fall and the wind came down from the mountains.
p303
sba(i__main__
Sentence
p304
(dp305
g17
I6
sg18
(lp306
S'We'
p307
aS'were'
p308
aS'all'
p309
aS'at'
p310
aS'the'
p311
aS'hospital'
p312
aS'every'
p313
aS'afternoon'
p314
aS','
p315
aS'and'
p316
aS'there'
p317
aS'were'
p318
aS'different'
p319
aS'ways'
p320
aS'of'
p321
aS'walking'
p322
aS'across'
p323
aS'the'
p324
aS'town'
p325
aS'through'
p326
aS'the'
p327
aS'dusk'
p328
aS'to'
p329
aS'the'
p330
aS'hospital'
p331
aS'.'
p332
asg39
(lp333
VWe
p334
aVbe
p335
aVall
p336
aVat
p337
aVthe
p338
aVhospital
p339
aVevery
p340
aVafternoon
p341
ag49
aVand
p342
aVthere
p343
ag335
aVdifferent
p344
aVway
p345
aVof
p346
aVwalk
p347
aVacross
p348
aVthe
p349
aVtown
p350
aVthrough
p351
aVthe
p352
aVdusk
p353
aVto
p354
aVthe
p355
aVhospital
p356
ag59
asg60
(lp357
g62
ag62
ag62
ag62
ag62
ag62
ag62
ag62
ag62
ag62
ag62
ag62
ag62
ag62
ag62
ag62
ag62
ag62
ag62
ag62
ag62
ag62
ag62
ag62
ag62
ag62
asg63
(lp358
g72
ag68
aS'PDT'
p359
ag65
ag66
ag116
ag66
ag67
ag70
ag71
ag217
ag68
ag116
ag159
ag65
ag160
ag65
ag66
ag67
ag65
ag66
ag67
ag74
ag66
ag67
ag76
asg77
VWe were all at the hospital every afternoon, and there were different ways of walking across the town through the dusk to the hospital.
p360
sba(i__main__
Sentence
p361
(dp362
g17
I7
sg18
(lp363
S'Two'
p364
aS'of'
p365
aS'the'
p366
aS'ways'
p367
aS'were'
p368
aS'alongside'
p369
aS'canals'
p370
aS','
p371
aS'but'
p372
aS'they'
p373
aS'were'
p374
aS'long'
p375
aS'.'
p376
asg39
(lp377
VTwo
p378
aVof
p379
aVthe
p380
aVway
p381
ag335
aValongside
p382
aVcanal
p383
ag49
aVbut
p384
aVthey
p385
ag335
aVlong
p386
ag59
asg60
(lp387
g62
ag62
ag62
ag62
ag62
ag62
ag62
ag62
ag62
ag62
ag62
ag62
ag62
asg63
(lp388
S'CD'
p389
ag65
ag66
ag159
ag68
ag69
ag159
ag70
ag71
ag72
ag68
ag69
ag76
asg77
VTwo of the ways were alongside canals, but they were long.
p390
sba(i__main__
Sentence
p391
(dp392
g17
I8
sg18
(lp393
S'Always'
p394
aS','
p395
aS'though'
p396
aS','
p397
aS'you'
p398
aS'crossed'
p399
aS'a'
p400
aS'bridge'
p401
aS'across'
p402
aS'a'
p403
aS'canal'
p404
aS'to'
p405
aS'enter'
p406
aS'the'
p407
aS'hospital'
p408
aS'.'
p409
asg39
(lp410
VAlways
p411
ag49
aVthough
p412
ag49
aVyou
p413
aVcross
p414
ag291
aVbridge
p415
aVacross
p416
ag291
aVcanal
p417
aVto
p418
aVenter
p419
aVthe
p420
aVhospital
p421
ag59
asg60
(lp422
g62
ag62
ag62
ag62
ag62
ag62
ag62
ag62
ag62
ag62
ag62
ag62
ag62
ag62
ag62
ag62
asg63
(lp423
g69
ag70
ag65
ag70
ag72
ag68
ag66
ag67
ag65
ag66
ag116
ag74
ag73
ag66
ag67
ag76
asg77
VAlways, though, you crossed a bridge across a canal to enter the hospital.
p424
sba(i__main__
Sentence
p425
(dp426
g17
I9
sg18
(lp427
S'There'
p428
aS'was'
p429
aS'a'
p430
aS'choice'
p431
aS'of'
p432
aS'three'
p433
aS'bridges'
p434
aS'.'
p435
asg39
(lp436
VThere
p437
ag46
ag291
aVchoice
p438
aVof
p439
aVthree
p440
aVbridge
p441
ag59
asg60
(lp442
g62
ag62
ag62
ag62
ag62
ag62
ag62
ag62
asg63
(lp443
g217
ag68
ag66
ag67
ag65
ag389
ag159
ag76
asg77
VThere was a choice of three bridges.
p444
sba(i__main__
Sentence
p445
(dp446
g17
I10
sg18
(lp447
S'On'
p448
aS'one'
p449
aS'of'
p450
aS'them'
p451
aS'a'
p452
aS'woman'
p453
aS'sold'
p454
aS'roasted'
p455
aS'chestnuts'
p456
aS'.'
p457
asg39
(lp458
VOn
p459
aVone
p460
aVof
p461
aVthem
p462
ag291
aVwoman
p463
aVsell
p464
aVroast
p465
aVchestnut
p466
ag59
asg60
(lp467
g62
ag62
ag62
ag62
ag62
ag62
ag62
ag62
ag62
ag62
asg63
(lp468
g65
ag389
ag65
ag72
ag66
ag67
ag114
ag114
ag159
ag76
asg77
VOn one of them a woman sold roasted chestnuts.
p469
sba(i__main__
Sentence
p470
(dp471
g17
I11
sg18
(lp472
S'It'
p473
aS'was'
p474
aS'warm'
p475
aS','
p476
aS'standing'
p477
aS'in'
p478
aS'front'
p479
aS'of'
p480
aS'her'
p481
aS'charcoal'
p482
aS'fire'
p483
aS','
p484
aS'and'
p485
aS'the'
p486
aS'chestnuts'
p487
aS'were'
p488
aS'warm'
p489
aS'afterward'
p490
aS'in'
p491
aS'your'
p492
aS'pocket'
p493
aS'.'
p494
asg39
(lp495
VIt
p496
ag46
aVwarm
p497
ag49
aVstanding
p498
aVin
p499
aVfront
p500
aVof
p501
aVher
p502
aVcharcoal
p503
aVfire
p504
ag49
aVand
p505
aVthe
p506
aVchestnut
p507
ag335
aVwarm
p508
aVafterward
p509
aVin
p510
aVyour
p511
aVpocket
p512
ag59
asg60
(lp513
g62
ag62
ag62
ag62
ag62
ag62
ag62
ag62
ag62
ag62
ag62
ag62
ag62
ag62
ag62
ag62
ag62
ag62
ag62
ag62
ag62
ag62
asg63
(lp514
g72
ag68
ag67
ag70
ag67
ag65
ag67
ag65
ag218
ag67
ag67
ag70
ag71
ag66
ag159
ag68
ag67
ag67
ag65
ag218
ag67
ag76
asg77
VIt was warm, standing in front of her charcoal fire, and the chestnuts were warm afterward in your pocket.
p515
sba(i__main__
Sentence
p516
(dp517
g17
I12
sg18
(lp518
S'The'
p519
aS'hospital'
p520
aS'was'
p521
aS'very'
p522
aS'old'
p523
aS'and'
p524
aS'very'
p525
aS'beautiful'
p526
aS','
p527
aS'and'
p528
aS'you'
p529
aS'entered'
p530
aS'a'
p531
aS'gate'
p532
aS'and'
p533
aS'walked'
p534
aS'across'
p535
aS'a'
p536
aS'courtyard'
p537
aS'and'
p538
aS'out'
p539
aS'a'
p540
aS'gate'
p541
aS'on'
p542
aS'the'
p543
aS'other'
p544
aS'side'
p545
aS'.'
p546
asg39
(lp547
VThe
p548
aVhospital
p549
ag46
aVvery
p550
aVold
p551
aVand
p552
aVvery
p553
aVbeautiful
p554
ag49
aVand
p555
aVyou
p556
aVenter
p557
ag291
aVgate
p558
aVand
p559
aVwalk
p560
aVacross
p561
ag291
aVcourtyard
p562
aVand
p563
aVout
p564
ag291
aVgate
p565
aVon
p566
aVthe
p567
aVother
p568
aVside
p569
ag59
asg60
(lp570
g62
ag62
ag62
ag62
ag62
ag62
ag62
ag62
ag62
ag62
ag62
ag62
ag62
ag62
ag62
ag62
ag62
ag62
ag62
ag62
ag62
ag62
ag62
ag62
ag62
ag62
ag62
ag62
asg63
(lp571
g66
ag67
ag68
ag69
ag116
ag71
ag69
ag116
ag70
ag71
ag72
ag68
ag66
ag67
ag71
ag68
ag65
ag66
ag67
ag71
ag65
ag66
ag67
ag65
ag66
ag116
ag67
ag76
asg77
VThe hospital was very old and very beautiful, and you entered a gate and walked across a courtyard and out a gate on the other side.
p572
sba(i__main__
Sentence
p573
(dp574
g17
I13
sg18
(lp575
S'There'
p576
aS'were'
p577
aS'usually'
p578
aS'funerals'
p579
aS'starting'
p580
aS'from'
p581
aS'the'
p582
aS'courtyard'
p583
aS'.'
p584
asg39
(lp585
VThere
p586
ag335
aVusually
p587
aVfuneral
p588
aVstart
p589
aVfrom
p590
aVthe
p591
aVcourtyard
p592
ag59
asg60
(lp593
g62
ag62
ag62
ag62
ag62
ag62
ag62
ag62
ag62
asg63
(lp594
g217
ag68
ag69
ag159
ag160
ag65
ag66
ag67
ag76
asg77
VThere were usually funerals starting from the courtyard.
p595
sba(i__main__
Sentence
p596
(dp597
g17
I14
sg18
(lp598
S'Beyond'
p599
aS'the'
p600
aS'old'
p601
aS'hospital'
p602
aS'were'
p603
aS'the'
p604
aS'new'
p605
aS'brick'
p606
aS'pavilions'
p607
aS','
p608
aS'and'
p609
aS'there'
p610
aS'we'
p611
aS'met'
p612
aS'every'
p613
aS'afternoon'
p614
aS'and'
p615
aS'were'
p616
aS'all'
p617
aS'very'
p618
aS'polite'
p619
aS'and'
p620
aS'interested'
p621
aS'in'
p622
aS'what'
p623
aS'was'
p624
aS'the'
p625
aS'matter'
p626
aS','
p627
aS'and'
p628
aS'sat'
p629
aS'in'
p630
aS'the'
p631
aS'machines'
p632
aS'that'
p633
aS'were'
p634
aS'to'
p635
aS'make'
p636
aS'so'
p637
aS'much'
p638
aS'difference'
p639
aS'.'
p640
asg39
(lp641
VBeyond
p642
aVthe
p643
aVold
p644
aVhospital
p645
ag335
aVthe
p646
aVnew
p647
aVbrick
p648
aVpavilion
p649
ag49
aVand
p650
aVthere
p651
aVwe
p652
aVmeet
p653
aVevery
p654
aVafternoon
p655
aVand
p656
ag335
aVall
p657
aVvery
p658
aVpolite
p659
aVand
p660
aVinterested
p661
aVin
p662
aVwhat
p663
ag46
aVthe
p664
aVmatter
p665
ag49
aVand
p666
aVsit
p667
aVin
p668
aVthe
p669
aVmachine
p670
aVthat
p671
ag335
aVto
p672
aVmake
p673
aVso
p674
aVmuch
p675
aVdifference
p676
ag59
asg60
(lp677
g62
ag62
ag62
ag62
ag62
ag62
ag62
ag62
ag62
ag62
ag62
ag62
ag62
ag62
ag62
ag62
ag62
ag62
ag62
ag62
ag62
ag62
ag62
ag62
ag62
ag62
ag62
ag62
ag62
ag62
ag62
ag62
ag62
ag62
ag62
ag62
ag62
ag62
ag62
ag62
ag62
ag62
asg63
(lp678
g115
ag66
ag116
ag67
ag68
ag66
ag116
ag67
ag159
ag70
ag71
ag217
ag72
ag270
ag66
ag67
ag71
ag68
ag66
ag69
ag116
ag71
ag116
ag65
aS'WP'
p679
ag68
ag66
ag67
ag70
ag71
ag73
ag65
ag66
ag159
aS'WDT'
p680
ag68
ag74
ag73
ag69
ag69
ag67
ag76
asg77
VBeyond the old hospital were the new brick pavilions, and there we met every afternoon and were all very polite and interested in what was the matter, and sat in the machines that were to make so much difference.
p681
sba(i__main__
Sentence
p682
(dp683
g17
I15
sg18
(lp684
S'The'
p685
aS'doctor'
p686
aS'came'
p687
aS'up'
p688
aS'to'
p689
aS'the'
p690
aS'machine'
p691
aS'where'
p692
aS'I'
p693
aS'was'
p694
aS'sitting'
p695
aS'and'
p696
aS'said'
p697
aS':'
p698
aS'``'
p699
aS'What'
p700
aS'did'
p701
aS'you'
p702
aS'like'
p703
aS'best'
p704
aS'to'
p705
aS'do'
p706
aS'before'
p707
aS'the'
p708
aS'war'
p709
aS'?'
p710
asg39
(lp711
VThe
p712
aVdoctor
p713
ag145
aVup
p714
aVto
p715
aVthe
p716
aVmachine
p717
aVwhere
p718
aVI
p719
ag46
aVsit
p720
aVand
p721
aVsay
p722
aV:
p723
aV``
p724
aVWhat
p725
ag52
aVyou
p726
aVlike
p727
aVbest
p728
aVto
p729
aVdo
p730
aVbefore
p731
aVthe
p732
aVwar
p733
aV?
p734
asg60
(lp735
g62
ag62
ag62
ag62
ag62
ag62
ag62
ag62
ag62
ag62
ag62
ag62
ag62
ag62
ag62
ag62
ag62
ag62
ag62
ag62
ag62
ag62
ag62
ag62
ag62
ag62
asg63
(lp736
g66
ag67
ag68
aS'RP'
p737
ag74
ag66
ag67
aS'WRB'
p738
ag72
ag68
ag160
ag71
ag68
aS':'
p739
aS'``'
p740
ag679
ag68
ag72
ag65
aS'JJS'
p741
ag74
ag73
ag65
ag66
ag67
ag76
asg77
VThe doctor came up to the machine where I was sitting and said: "What did you like best to do before the war?
p742
sba(i__main__
Sentence
p743
(dp744
g17
I16
sg18
(lp745
S'Did'
p746
aS'you'
p747
aS'practice'
p748
aS'a'
p749
aS'sport'
p750
aS'?'
p751
aS"''"
p752
asg39
(lp753
VDid
p754
aVyou
p755
aVpractice
p756
ag291
aVsport
p757
ag734
aV''
p758
asg60
(lp759
g62
ag62
ag62
ag62
ag62
ag62
ag62
asg63
(lp760
g115
ag72
ag67
ag66
ag67
ag76
aS"''"
p761
asg77
VDid you practice a sport?"
p762
sba(i__main__
Sentence
p763
(dp764
g17
I17
sg18
(lp765
S'I'
p766
aS'said'
p767
aS':'
p768
aS'``'
p769
aS'Yes'
p770
aS','
p771
aS'football'
p772
aS'.'
p773
aS"''"
p774
asg39
(lp775
g719
ag722
ag723
aV``
p776
aVYes
p777
ag49
aVfootball
p778
ag59
aV''
p779
asg60
(lp780
g62
ag62
ag62
ag62
ag62
ag62
ag62
ag62
ag62
asg63
(lp781
g72
ag68
ag739
ag740
ag159
ag70
ag67
ag76
ag761
asg77
VI said: "Yes, football."
p782
sba(i__main__
Sentence
p783
(dp784
g17
I18
sg18
(lp785
S'``'
p786
aS'Good'
p787
aS','
p788
aS"''"
p789
aS'he'
p790
aS'said'
p791
aS'.'
p792
asg39
(lp793
V``
p794
aVGood
p795
ag49
aV''
p796
aVhe
p797
ag722
ag59
asg60
(lp798
g62
ag62
ag62
ag62
ag62
ag62
ag62
asg63
(lp799
g740
ag116
ag70
ag761
ag72
ag68
ag76
asg77
V"Good," he said.
p800
sba(i__main__
Sentence
p801
(dp802
g17
I19
sg18
(lp803
S'``'
p804
aS'You'
p805
aS'will'
p806
aS'be'
p807
aS'able'
p808
aS'to'
p809
aS'play'
p810
aS'football'
p811
aS'again'
p812
aS'better'
p813
aS'than'
p814
aS'ever'
p815
aS'.'
p816
aS"''"
p817
asg39
(lp818
V``
p819
aVYou
p820
aVwill
p821
aVbe
p822
aVable
p823
aVto
p824
aVplay
p825
aVfootball
p826
aVagain
p827
aVwell
p828
aVthan
p829
aVever
p830
ag59
aV''
p831
asg60
(lp832
g62
ag62
ag62
ag62
ag62
ag62
ag62
ag62
ag62
ag62
ag62
ag62
ag62
ag62
asg63
(lp833
g740
ag72
aS'MD'
p834
ag73
ag116
ag74
ag73
ag67
ag69
ag75
ag65
ag69
ag76
ag761
asg77
V"You will be able to play football again better than ever."
p835
sba(i__main__
Sentence
p836
(dp837
g17
I20
sg18
(lp838
S'My'
p839
aS'knee'
p840
aS'did'
p841
aS'not'
p842
aS'bend'
p843
aS'and'
p844
aS'the'
p845
aS'leg'
p846
aS'dropped'
p847
aS'straight'
p848
aS'from'
p849
aS'the'
p850
aS'knee'
p851
aS'to'
p852
aS'the'
p853
aS'ankle'
p854
aS'without'
p855
aS'a'
p856
aS'calf'
p857
aS','
p858
aS'and'
p859
aS'the'
p860
aS'machine'
p861
aS'was'
p862
aS'to'
p863
aS'bend'
p864
aS'the'
p865
aS'knee'
p866
aS'and'
p867
aS'make'
p868
aS'it'
p869
aS'move'
p870
aS'as'
p871
aS'riding'
p872
aS'a'
p873
aS'tricycle'
p874
aS'.'
p875
asg39
(lp876
VMy
p877
aVknee
p878
ag52
aVnot
p879
aVbend
p880
aVand
p881
aVthe
p882
aVleg
p883
aVdrop
p884
aVstraight
p885
aVfrom
p886
aVthe
p887
aVknee
p888
aVto
p889
aVthe
p890
aVankle
p891
aVwithout
p892
ag291
aVcalf
p893
ag49
aVand
p894
aVthe
p895
aVmachine
p896
ag46
aVto
p897
aVbend
p898
aVthe
p899
aVknee
p900
aVand
p901
aVmake
p902
aVit
p903
aVmove
p904
ag291
aVriding
p905
ag291
aVtricycle
p906
ag59
asg60
(lp907
g62
ag62
ag62
ag62
ag62
ag62
ag62
ag62
ag62
ag62
ag62
ag62
ag62
ag62
ag62
ag62
ag62
ag62
ag62
ag62
ag62
ag62
ag62
ag62
ag62
ag62
ag62
ag62
ag62
ag62
ag62
ag62
ag62
ag62
ag62
ag62
ag62
asg63
(lp908
g218
ag67
ag68
ag69
ag73
ag71
ag66
ag67
ag68
ag69
ag65
ag66
ag67
ag74
ag66
ag67
ag65
ag66
ag67
ag70
ag71
ag66
ag67
ag68
ag74
ag73
ag66
ag67
ag71
ag73
ag72
ag73
ag65
ag67
ag66
ag67
ag76
asg77
VMy knee did not bend and the leg dropped straight from the knee to the ankle without a calf, and the machine was to bend the knee and make it move as riding a tricycle.
p909
sba(i__main__
Sentence
p910
(dp911
g17
I21
sg18
(lp912
S'But'
p913
aS'it'
p914
aS'did'
p915
aS'not'
p916
aS'bend'
p917
aS'yet'
p918
aS','
p919
aS'and'
p920
aS'instead'
p921
aS'the'
p922
aS'machine'
p923
aS'lurched'
p924
aS'when'
p925
aS'it'
p926
aS'came'
p927
aS'to'
p928
aS'the'
p929
aS'bending'
p930
aS'part'
p931
aS'.'
p932
asg39
(lp933
VBut
p934
aVit
p935
ag52
aVnot
p936
aVbend
p937
aVyet
p938
ag49
aVand
p939
aVinstead
p940
aVthe
p941
aVmachine
p942
aVlurch
p943
aVwhen
p944
aVit
p945
ag145
aVto
p946
aVthe
p947
aVbending
p948
aVpart
p949
ag59
asg60
(lp950
g62
ag62
ag62
ag62
ag62
ag62
ag62
ag62
ag62
ag62
ag62
ag62
ag62
ag62
ag62
ag62
ag62
ag62
ag62
ag62
asg63
(lp951
g71
ag72
ag68
ag69
ag73
ag69
ag70
ag71
ag69
ag66
ag67
ag68
ag738
ag72
ag68
ag74
ag66
ag67
ag67
ag76
asg77
VBut it did not bend yet, and instead the machine lurched when it came to the bending part.
p952
sba(i__main__
Sentence
p953
(dp954
g17
I22
sg18
(lp955
S'The'
p956
aS'doctor'
p957
aS'said'
p958
aS':'
p959
aS"''"
p960
aS'That'
p961
aS'will'
p962
aS'all'
p963
aS'pass'
p964
aS'.'
p965
asg39
(lp966
VThe
p967
aVdoctor
p968
ag722
ag723
aV''
p969
aVThat
p970
aVwill
p971
aVall
p972
aVpas
p973
ag59
asg60
(lp974
g62
ag62
ag62
ag62
ag62
ag62
ag62
ag62
ag62
ag62
asg63
(lp975
g66
ag67
ag68
ag739
ag761
ag680
ag834
ag73
ag159
ag76
asg77
VThe doctor said:" That will all pass.
p976
sba(i__main__
Sentence
p977
(dp978
g17
I23
sg18
(lp979
S'You'
p980
aS'are'
p981
aS'a'
p982
aS'fortunate'
p983
aS'young'
p984
aS'man'
p985
aS'.'
p986
asg39
(lp987
VYou
p988
aVbe
p989
ag291
aVfortunate
p990
aVyoung
p991
aVman
p992
ag59
asg60
(lp993
g62
ag62
ag62
ag62
ag62
ag62
ag62
asg63
(lp994
g72
ag270
ag66
ag116
ag116
ag67
ag76
asg77
VYou are a fortunate young man.
p995
sba(i__main__
Sentence
p996
(dp997
g17
I24
sg18
(lp998
S'You'
p999
aS'will'
p1000
aS'play'
p1001
aS'football'
p1002
aS'again'
p1003
aS'like'
p1004
aS'a'
p1005
aS'champion'
p1006
aS'.'
p1007
aS"''"
p1008
asg39
(lp1009
VYou
p1010
aVwill
p1011
aVplay
p1012
aVfootball
p1013
aVagain
p1014
aVlike
p1015
ag291
aVchampion
p1016
ag59
aV''
p1017
asg60
(lp1018
g62
ag62
ag62
ag62
ag62
ag62
ag62
ag62
ag62
ag62
asg63
(lp1019
g72
ag834
ag73
ag67
ag69
ag65
ag66
ag67
ag76
ag761
asg77
VYou will play football again like a champion."
p1020
sba(i__main__
Sentence
p1021
(dp1022
g17
I25
sg18
(lp1023
S'In'
p1024
aS'the'
p1025
aS'next'
p1026
aS'machine'
p1027
aS'was'
p1028
aS'a'
p1029
aS'major'
p1030
aS'who'
p1031
aS'had'
p1032
aS'a'
p1033
aS'little'
p1034
aS'hand'
p1035
aS'like'
p1036
aS'a'
p1037
aS'baby'
p1038
aS"'s"
p1039
aS'.'
p1040
asg39
(lp1041
VIn
p1042
aVthe
p1043
aVnext
p1044
aVmachine
p1045
ag46
ag291
aVmajor
p1046
aVwho
p1047
aVhave
p1048
ag291
aVlittle
p1049
aVhand
p1050
aVlike
p1051
ag291
aVbaby
p1052
aV's
p1053
ag59
asg60
(lp1054
g62
ag62
ag62
ag62
ag62
ag62
ag62
ag62
ag62
ag62
ag62
ag62
ag62
ag62
ag62
ag62
ag62
asg63
(lp1055
g65
ag66
ag116
ag67
ag68
ag66
ag116
ag679
ag68
ag66
ag69
ag67
ag65
ag66
ag67
aS'POS'
p1056
ag76
asg77
VIn the next machine was a major who had a little hand like a baby's.
p1057
sba(i__main__
Sentence
p1058
(dp1059
g17
I26
sg18
(lp1060
S'He'
p1061
aS'winked'
p1062
aS'at'
p1063
aS'me'
p1064
aS'when'
p1065
aS'the'
p1066
aS'doctor'
p1067
aS'examined'
p1068
aS'his'
p1069
aS'hand'
p1070
aS','
p1071
aS'which'
p1072
aS'was'
p1073
aS'between'
p1074
aS'two'
p1075
aS'leather'
p1076
aS'straps'
p1077
aS'that'
p1078
aS'bounced'
p1079
aS'up'
p1080
aS'and'
p1081
aS'down'
p1082
aS'and'
p1083
aS'flapped'
p1084
aS'the'
p1085
aS'stiff'
p1086
aS'fingers'
p1087
aS','
p1088
aS'and'
p1089
aS'said'
p1090
aS':'
p1091
aS'``'
p1092
aS'And'
p1093
aS'will'
p1094
aS'I'
p1095
aS'too'
p1096
aS'play'
p1097
aS'football'
p1098
aS','
p1099
aS'captain-doctor'
p1100
aS'?'
p1101
aS"''"
p1102
asg39
(lp1103
VHe
p1104
aVwink
p1105
aVat
p1106
aVme
p1107
aVwhen
p1108
aVthe
p1109
aVdoctor
p1110
aVexamine
p1111
aVhis
p1112
aVhand
p1113
ag49
aVwhich
p1114
ag46
aVbetween
p1115
aVtwo
p1116
aVleather
p1117
aVstrap
p1118
aVthat
p1119
aVbounce
p1120
aVup
p1121
aVand
p1122
aVdown
p1123
aVand
p1124
aVflap
p1125
aVthe
p1126
aVstiff
p1127
aVfinger
p1128
ag49
aVand
p1129
ag722
ag723
aV``
p1130
aVAnd
p1131
aVwill
p1132
ag719
aVtoo
p1133
aVplay
p1134
aVfootball
p1135
ag49
aVcaptain-doctor
p1136
ag734
aV''
p1137
asg60
(lp1138
g62
ag62
ag62
ag62
ag62
ag62
ag62
ag62
ag62
ag62
ag62
ag62
ag62
ag62
ag62
ag62
ag62
ag62
ag62
ag62
ag62
ag62
ag62
ag62
ag62
ag62
ag62
ag62
ag62
ag62
ag62
ag62
ag62
ag62
ag62
ag62
ag62
ag62
ag62
ag62
ag62
ag62
asg63
(lp1139
g72
ag68
ag65
ag72
ag738
ag66
ag67
ag68
ag218
ag67
ag70
ag680
ag68
ag65
ag389
ag67
ag159
ag680
ag114
ag737
ag71
ag65
ag71
ag68
ag66
ag67
ag159
ag70
ag71
ag68
ag739
ag740
ag71
ag834
ag72
ag69
ag270
ag67
ag70
ag115
ag76
ag761
asg77
VHe winked at me when the doctor examined his hand, which was between two leather straps that bounced up and down and flapped the stiff fingers, and said: "And will I too play football, captain-doctor?"
p1140
sba(i__main__
Sentence
p1141
(dp1142
g17
I27
sg18
(lp1143
S'He'
p1144
aS'had'
p1145
aS'been'
p1146
aS'a'
p1147
aS'very'
p1148
aS'great'
p1149
aS'fencer'
p1150
aS','
p1151
aS'and'
p1152
aS'before'
p1153
aS'the'
p1154
aS'war'
p1155
aS'the'
p1156
aS'greatest'
p1157
aS'fencer'
p1158
aS'in'
p1159
aS'Italy'
p1160
aS'.'
p1161
asg39
(lp1162
VHe
p1163
ag1048
aVbe
p1164
ag291
aVvery
p1165
aVgreat
p1166
aVfencer
p1167
ag49
aVand
p1168
aVbefore
p1169
aVthe
p1170
aVwar
p1171
aVthe
p1172
aVgreat
p1173
aVfencer
p1174
aVin
p1175
aVItaly
p1176
ag59
asg60
(lp1177
g62
ag62
ag62
ag62
ag62
ag62
ag62
ag62
ag62
ag62
ag62
ag62
ag62
ag62
ag62
ag62
aVLOCATION
p1178
ag62
asg63
(lp1179
g72
ag68
ag114
ag66
ag69
ag116
ag67
ag70
ag71
ag65
ag66
ag67
ag66
ag741
ag67
ag65
ag115
ag76
asg77
VHe had been a very great fencer, and before the war the greatest fencer in Italy.
p1180
sba(i__main__
Sentence
p1181
(dp1182
g17
I28
sg18
(lp1183
S'The'
p1184
aS'doctor'
p1185
aS'went'
p1186
aS'to'
p1187
aS'his'
p1188
aS'office'
p1189
aS'in'
p1190
aS'a'
p1191
aS'back'
p1192
aS'room'
p1193
aS'and'
p1194
aS'brought'
p1195
aS'a'
p1196
aS'photograph'
p1197
aS'which'
p1198
aS'showed'
p1199
aS'a'
p1200
aS'hand'
p1201
aS'that'
p1202
aS'had'
p1203
aS'been'
p1204
aS'withered'
p1205
aS'almost'
p1206
aS'as'
p1207
aS'small'
p1208
aS'as'
p1209
aS'the'
p1210
aS'major'
p1211
aS"'s"
p1212
aS','
p1213
aS'before'
p1214
aS'it'
p1215
aS'had'
p1216
aS'taken'
p1217
aS'a'
p1218
aS'machine'
p1219
aS'course'
p1220
aS','
p1221
aS'and'
p1222
aS'after'
p1223
aS'was'
p1224
aS'a'
p1225
aS'little'
p1226
aS'larger'
p1227
aS'.'
p1228
asg39
(lp1229
VThe
p1230
aVdoctor
p1231
aVgo
p1232
aVto
p1233
aVhis
p1234
aVoffice
p1235
aVin
p1236
ag291
aVback
p1237
aVroom
p1238
aVand
p1239
aVbring
p1240
ag291
aVphotograph
p1241
aVwhich
p1242
aVshow
p1243
ag291
aVhand
p1244
aVthat
p1245
ag1048
ag1164
aVwither
p1246
aValmost
p1247
ag291
aVsmall
p1248
ag291
aVthe
p1249
aVmajor
p1250
aV's
p1251
ag49
aVbefore
p1252
aVit
p1253
ag1048
aVtake
p1254
ag291
aVmachine
p1255
aVcourse
p1256
ag49
aVand
p1257
aVafter
p1258
ag46
ag291
aVlittle
p1259
aVlarge
p1260
ag59
asg60
(lp1261
g62
ag62
ag62
ag62
ag62
ag62
ag62
ag62
ag62
ag62
ag62
ag62
ag62
ag62
ag62
ag62
ag62
ag62
ag62
ag62
ag62
ag62
ag62
ag62
ag62
ag62
ag62
ag62
ag62
ag62
ag62
ag62
ag62
ag62
ag62
ag62
ag62
ag62
ag62
ag62
ag62
ag62
ag62
ag62
ag62
asg63
(lp1262
g66
ag67
ag68
ag74
ag218
ag67
ag65
ag66
ag67
ag67
ag71
ag68
ag66
ag67
ag680
ag68
ag66
ag67
ag680
ag68
ag114
ag114
ag69
ag65
ag116
ag65
ag66
ag116
ag1056
ag70
ag65
ag72
ag68
ag114
ag66
ag67
ag67
ag70
ag71
ag65
ag68
ag66
ag69
aS'JJR'
p1263
ag76
asg77
VThe doctor went to his office in a back room and brought a photograph which showed a hand that had been withered almost as small as the major's, before it had taken a machine course, and after was a little larger.
p1264
sba(i__main__
Sentence
p1265
(dp1266
g17
I29
sg18
(lp1267
S'The'
p1268
aS'major'
p1269
aS'held'
p1270
aS'the'
p1271
aS'photograph'
p1272
aS'with'
p1273
aS'his'
p1274
aS'good'
p1275
aS'hand'
p1276
aS'and'
p1277
aS'looked'
p1278
aS'at'
p1279
aS'it'
p1280
aS'very'
p1281
aS'carefully'
p1282
aS'.'
p1283
asg39
(lp1284
VThe
p1285
aVmajor
p1286
aVheld
p1287
aVthe
p1288
aVphotograph
p1289
aVwith
p1290
aVhis
p1291
aVgood
p1292
aVhand
p1293
aVand
p1294
aVlook
p1295
aVat
p1296
aVit
p1297
aVvery
p1298
aVcarefully
p1299
ag59
asg60
(lp1300
g62
ag62
ag62
ag62
ag62
ag62
ag62
ag62
ag62
ag62
ag62
ag62
ag62
ag62
ag62
ag62
asg63
(lp1301
g66
ag116
ag67
ag66
ag67
ag65
ag218
ag116
ag67
ag71
ag68
ag65
ag72
ag69
ag69
ag76
asg77
VThe major held the photograph with his good hand and looked at it very carefully.
p1302
sba(i__main__
Sentence
p1303
(dp1304
g17
I30
sg18
(lp1305
S'``'
p1306
aS'A'
p1307
aS'wound'
p1308
aS'?'
p1309
aS"''"
p1310
asg39
(lp1311
V``
p1312
aVA
p1313
aVwound
p1314
ag734
aV''
p1315
asg60
(lp1316
g62
ag62
ag62
ag62
ag62
asg63
(lp1317
g740
ag66
ag67
ag76
ag761
asg77
V"A wound?"
p1318
sba(i__main__
Sentence
p1319
(dp1320
g17
I31
sg18
(lp1321
S'he'
p1322
aS'asked'
p1323
aS'.'
p1324
asg39
(lp1325
Vhe
p1326
aVask
p1327
ag59
asg60
(lp1328
g62
ag62
ag62
asg63
(lp1329
g72
ag68
ag76
asg77
Vhe asked.
p1330
sba(i__main__
Sentence
p1331
(dp1332
g17
I32
sg18
(lp1333
S'``'
p1334
aS'An'
p1335
aS'industrial'
p1336
aS'accident'
p1337
aS','
p1338
aS"''"
p1339
aS'the'
p1340
aS'doctor'
p1341
aS'said'
p1342
aS'.'
p1343
asg39
(lp1344
V``
p1345
aVAn
p1346
aVindustrial
p1347
aVaccident
p1348
ag49
aV''
p1349
aVthe
p1350
aVdoctor
p1351
ag722
ag59
asg60
(lp1352
g62
ag62
ag62
ag62
ag62
ag62
ag62
ag62
ag62
ag62
asg63
(lp1353
g740
ag66
ag116
ag67
ag70
ag761
ag66
ag67
ag68
ag76
asg77
V"An industrial accident," the doctor said.
p1354
sba(i__main__
Sentence
p1355
(dp1356
g17
I33
sg18
(lp1357
S'``'
p1358
aS'Very'
p1359
aS'interesting'
p1360
aS','
p1361
aS'very'
p1362
aS'interesting'
p1363
aS','
p1364
aS"''"
p1365
aS'the'
p1366
aS'major'
p1367
aS'said'
p1368
aS','
p1369
aS'and'
p1370
aS'handed'
p1371
aS'it'
p1372
aS'back'
p1373
aS'to'
p1374
aS'the'
p1375
aS'doctor'
p1376
aS'.'
p1377
asg39
(lp1378
V``
p1379
aVVery
p1380
aVinteresting
p1381
ag49
aVvery
p1382
aVinteresting
p1383
ag49
aV''
p1384
aVthe
p1385
aVmajor
p1386
ag722
ag49
aVand
p1387
aVhand
p1388
aVit
p1389
aVback
p1390
aVto
p1391
aVthe
p1392
aVdoctor
p1393
ag59
asg60
(lp1394
g62
ag62
ag62
ag62
ag62
ag62
ag62
ag62
ag62
ag62
ag62
ag62
ag62
ag62
ag62
ag62
ag62
ag62
ag62
ag62
asg63
(lp1395
g740
ag69
ag116
ag70
ag69
ag116
ag70
ag761
ag66
ag116
ag68
ag70
ag71
ag68
ag72
ag69
ag74
ag66
ag67
ag76
asg77
V"Very interesting, very interesting," the major said, and handed it back to the doctor.
p1396
sba(i__main__
Sentence
p1397
(dp1398
g17
I34
sg18
(lp1399
S'``'
p1400
aS'You'
p1401
aS'have'
p1402
aS'confidence'
p1403
aS'?'
p1404
aS"''"
p1405
asg39
(lp1406
V``
p1407
aVYou
p1408
aVhave
p1409
aVconfidence
p1410
ag734
aV''
p1411
asg60
(lp1412
g62
ag62
ag62
ag62
ag62
ag62
asg63
(lp1413
g740
ag72
ag270
ag67
ag76
ag761
asg77
V"You have confidence?"
p1414
sba(i__main__
Sentence
p1415
(dp1416
g17
I35
sg18
(lp1417
S'``'
p1418
aS'No'
p1419
aS','
p1420
aS"''"
p1421
aS'said'
p1422
aS'the'
p1423
aS'major'
p1424
aS'.'
p1425
asg39
(lp1426
V``
p1427
aVNo
p1428
ag49
aV''
p1429
ag722
aVthe
p1430
aVmajor
p1431
ag59
asg60
(lp1432
g62
ag62
ag62
ag62
ag62
ag62
ag62
ag62
asg63
(lp1433
g740
ag66
ag70
ag761
ag68
ag66
ag116
ag76
asg77
V"No," said the major.
p1434
sba(i__main__
Sentence
p1435
(dp1436
g17
I36
sg18
(lp1437
S'There'
p1438
aS'were'
p1439
aS'three'
p1440
aS'boys'
p1441
aS'who'
p1442
aS'came'
p1443
aS'each'
p1444
aS'day'
p1445
aS'who'
p1446
aS'were'
p1447
aS'about'
p1448
aS'the'
p1449
aS'same'
p1450
aS'age'
p1451
aS'I'
p1452
aS'was'
p1453
aS'.'
p1454
asg39
(lp1455
VThere
p1456
ag335
aVthree
p1457
aVboy
p1458
aVwho
p1459
ag145
aVeach
p1460
aVday
p1461
aVwho
p1462
ag335
aVabout
p1463
aVthe
p1464
aVsame
p1465
aVage
p1466
ag719
ag46
ag59
asg60
(lp1467
g62
ag62
ag62
ag62
ag62
ag62
ag62
ag62
ag62
ag62
ag62
ag62
ag62
ag62
ag62
ag62
ag62
asg63
(lp1468
g217
ag68
ag389
ag159
ag679
ag68
ag66
ag67
ag679
ag68
ag65
ag66
ag116
ag67
ag72
ag68
ag76
asg77
VThere were three boys who came each day who were about the same age I was.
p1469
sba(i__main__
Sentence
p1470
(dp1471
g17
I37
sg18
(lp1472
S'They'
p1473
aS'were'
p1474
aS'all'
p1475
aS'three'
p1476
aS'from'
p1477
aS'Milan'
p1478
aS','
p1479
aS'and'
p1480
aS'one'
p1481
aS'of'
p1482
aS'them'
p1483
aS'was'
p1484
aS'to'
p1485
aS'be'
p1486
aS'a'
p1487
aS'lawyer'
p1488
aS','
p1489
aS'and'
p1490
aS'one'
p1491
aS'was'
p1492
aS'to'
p1493
aS'be'
p1494
aS'a'
p1495
aS'painter'
p1496
aS','
p1497
aS'and'
p1498
aS'one'
p1499
aS'had'
p1500
aS'intended'
p1501
aS'to'
p1502
aS'be'
p1503
aS'a'
p1504
aS'soldier'
p1505
aS','
p1506
aS'and'
p1507
aS'after'
p1508
aS'we'
p1509
aS'were'
p1510
aS'finished'
p1511
aS'with'
p1512
aS'the'
p1513
aS'machines'
p1514
aS','
p1515
aS'sometimes'
p1516
aS'we'
p1517
aS'walked'
p1518
aS'back'
p1519
aS'together'
p1520
aS'to'
p1521
aS'the'
p1522
aS'Caf'
p1523
aS'Cova'
p1524
aS','
p1525
aS'which'
p1526
aS'was'
p1527
aS'next'
p1528
aS'door'
p1529
aS'to'
p1530
aS'the'
p1531
aS'Scala'
p1532
aS'.'
p1533
asg39
(lp1534
VThey
p1535
ag335
aVall
p1536
aVthree
p1537
aVfrom
p1538
aVMilan
p1539
ag49
aVand
p1540
aVone
p1541
aVof
p1542
aVthem
p1543
ag46
aVto
p1544
aVbe
p1545
ag291
aVlawyer
p1546
ag49
aVand
p1547
aVone
p1548
ag46
aVto
p1549
aVbe
p1550
ag291
aVpainter
p1551
ag49
aVand
p1552
aVone
p1553
ag1048
aVintend
p1554
aVto
p1555
aVbe
p1556
ag291
aVsoldier
p1557
ag49
aVand
p1558
aVafter
p1559
aVwe
p1560
ag335
aVfinish
p1561
aVwith
p1562
aVthe
p1563
aVmachine
p1564
ag49
aVsometimes
p1565
aVwe
p1566
aVwalk
p1567
aVback
p1568
aVtogether
p1569
aVto
p1570
aVthe
p1571
aVCaf
p1572
aVCova
p1573
ag49
aVwhich
p1574
ag46
aVnext
p1575
aVdoor
p1576
aVto
p1577
aVthe
p1578
aVScala
p1579
ag59
asg60
(lp1580
g62
ag62
ag62
ag62
ag62
aVLOCATION
p1581
ag62
ag62
ag62
ag62
ag62
ag62
ag62
ag62
ag62
ag62
ag62
ag62
ag62
ag62
ag62
ag62
ag62
ag62
ag62
ag62
ag62
ag62
ag62
ag62
ag62
ag62
ag62
ag62
ag62
ag62
ag62
ag62
ag62
ag62
ag62
ag62
ag62
ag62
ag62
ag62
ag62
ag62
ag62
ag62
aVORGANIZATION
p1582
aVORGANIZATION
p1583
ag62
ag62
ag62
ag62
ag62
ag62
ag62
aVLOCATION
p1584
ag62
asg63
(lp1585
g72
ag68
ag359
ag389
ag65
ag115
ag70
ag71
ag389
ag65
ag72
ag68
ag74
ag73
ag66
ag67
ag70
ag71
ag389
ag68
ag74
ag73
ag66
ag67
ag70
ag71
ag389
ag68
ag114
ag74
ag73
ag66
ag1263
ag70
ag71
ag65
ag72
ag68
ag114
ag65
ag66
ag159
ag70
ag69
ag72
ag68
ag69
ag69
ag74
ag66
ag115
ag115
ag70
ag680
ag68
ag116
ag67
ag74
ag66
ag115
ag76
asg77
VThey were all three from Milan, and one of them was to be a lawyer, and one was to be a painter, and one had intended to be a soldier, and after we were finished with the machines, sometimes we walked back together to the Caf Cova, which was next door to the Scala.
p1586
sba(i__main__
Sentence
p1587
(dp1588
g17
I38
sg18
(lp1589
S'We'
p1590
aS'walked'
p1591
aS'the'
p1592
aS'short'
p1593
aS'way'
p1594
aS'through'
p1595
aS'the'
p1596
aS'communist'
p1597
aS'quarter'
p1598
aS'because'
p1599
aS'we'
p1600
aS'were'
p1601
aS'four'
p1602
aS'together'
p1603
aS'.'
p1604
asg39
(lp1605
VWe
p1606
aVwalk
p1607
aVthe
p1608
aVshort
p1609
aVway
p1610
aVthrough
p1611
aVthe
p1612
aVcommunist
p1613
aVquarter
p1614
aVbecause
p1615
aVwe
p1616
ag335
aVfour
p1617
aVtogether
p1618
ag59
asg60
(lp1619
g62
ag62
ag62
ag62
ag62
ag62
ag62
ag62
ag62
ag62
ag62
ag62
ag62
ag62
ag62
asg63
(lp1620
g72
ag68
ag66
ag116
ag67
ag65
ag66
ag67
ag67
ag65
ag72
ag68
ag389
ag69
ag76
asg77
VWe walked the short way through the communist quarter because we were four together.
p1621
sba(i__main__
Sentence
p1622
(dp1623
g17
I39
sg18
(lp1624
S'The'
p1625
aS'people'
p1626
aS'hated'
p1627
aS'us'
p1628
aS'because'
p1629
aS'we'
p1630
aS'were'
p1631
aS'officers'
p1632
aS','
p1633
aS'and'
p1634
aS'from'
p1635
aS'a'
p1636
aS'wine-shop'
p1637
aS'someone'
p1638
aS'called'
p1639
aS'out'
p1640
aS','
p1641
aS'``'
p1642
aS'A'
p1643
aS'basso'
p1644
aS'gli'
p1645
aS'ufficiali'
p1646
aS'!'
p1647
aS"''"
p1648
asg39
(lp1649
VThe
p1650
aVpeople
p1651
aVhat
p1652
aVu
p1653
aVbecause
p1654
aVwe
p1655
ag335
aVofficer
p1656
ag49
aVand
p1657
aVfrom
p1658
ag291
aVwine-shop
p1659
aVsomeone
p1660
aVcall
p1661
aVout
p1662
ag49
aV``
p1663
ag1313
aVbasso
p1664
aVgli
p1665
aVufficiali
p1666
aV!
p1667
aV''
p1668
asg60
(lp1669
g62
ag62
ag62
ag62
ag62
ag62
ag62
ag62
ag62
ag62
ag62
ag62
ag62
ag62
ag62
ag62
ag62
ag62
ag62
ag62
ag62
ag62
ag62
ag62
asg63
(lp1670
g66
ag159
ag68
ag72
ag65
ag72
ag68
ag159
ag70
ag71
ag65
ag66
ag116
ag67
ag114
ag737
ag70
ag740
ag66
ag67
ag67
ag67
ag76
ag761
asg77
VThe people hated us because we were officers, and from a wine-shop someone called out, "A basso gli ufficiali!"
p1671
sba(i__main__
Sentence
p1672
(dp1673
g17
I40
sg18
(lp1674
S'as'
p1675
aS'we'
p1676
aS'passed'
p1677
aS'.'
p1678
asg39
(lp1679
g291
aVwe
p1680
aVpass
p1681
ag59
asg60
(lp1682
g62
ag62
ag62
ag62
asg63
(lp1683
g65
ag72
ag68
ag76
asg77
Vas we passed.
p1684
sba(i__main__
Sentence
p1685
(dp1686
g17
I41
sg18
(lp1687
S'Another'
p1688
aS'boy'
p1689
aS'who'
p1690
aS'walked'
p1691
aS'with'
p1692
aS'us'
p1693
aS'sometimes'
p1694
aS'and'
p1695
aS'made'
p1696
aS'us'
p1697
aS'five'
p1698
aS'wore'
p1699
aS'a'
p1700
aS'black'
p1701
aS'silk'
p1702
aS'handkerchief'
p1703
aS'across'
p1704
aS'his'
p1705
aS'face'
p1706
aS'because'
p1707
aS'he'
p1708
aS'had'
p1709
aS'no'
p1710
aS'nose'
p1711
aS'then'
p1712
aS'and'
p1713
aS'his'
p1714
aS'face'
p1715
aS'was'
p1716
aS'to'
p1717
aS'be'
p1718
aS'rebuilt'
p1719
aS'.'
p1720
asg39
(lp1721
VAnother
p1722
aVboy
p1723
aVwho
p1724
aVwalk
p1725
aVwith
p1726
ag1653
aVsometimes
p1727
aVand
p1728
aVmake
p1729
ag1653
aVfive
p1730
aVwore
p1731
ag291
aVblack
p1732
aVsilk
p1733
aVhandkerchief
p1734
aVacross
p1735
aVhis
p1736
aVface
p1737
aVbecause
p1738
aVhe
p1739
ag1048
aVno
p1740
aVnose
p1741
aVthen
p1742
aVand
p1743
aVhis
p1744
aVface
p1745
ag46
aVto
p1746
aVbe
p1747
aVrebuild
p1748
ag59
asg60
(lp1749
g62
ag62
ag62
ag62
ag62
ag62
ag62
ag62
ag62
ag62
ag62
ag62
ag62
ag62
ag62
ag62
ag62
ag62
ag62
ag62
ag62
ag62
ag62
ag62
ag62
ag62
ag62
ag62
ag62
ag62
ag62
ag62
ag62
asg63
(lp1750
g66
ag67
ag679
ag114
ag65
ag72
ag69
ag71
ag68
ag72
ag389
ag67
ag66
ag116
ag67
ag67
ag65
ag218
ag67
ag65
ag72
ag68
ag66
ag67
ag69
ag71
ag218
ag67
ag68
ag74
ag73
ag114
ag76
asg77
VAnother boy who walked with us sometimes and made us five wore a black silk handkerchief across his face because he had no nose then and his face was to be rebuilt.
p1751
sba(i__main__
Sentence
p1752
(dp1753
g17
I42
sg18
(lp1754
S'He'
p1755
aS'had'
p1756
aS'gone'
p1757
aS'out'
p1758
aS'to'
p1759
aS'the'
p1760
aS'front'
p1761
aS'from'
p1762
aS'the'
p1763
aS'military'
p1764
aS'academy'
p1765
aS'and'
p1766
aS'been'
p1767
aS'wounded'
p1768
aS'within'
p1769
aS'an'
p1770
aS'hour'
p1771
aS'after'
p1772
aS'he'
p1773
aS'had'
p1774
aS'gone'
p1775
aS'into'
p1776
aS'the'
p1777
aS'front'
p1778
aS'line'
p1779
aS'for'
p1780
aS'the'
p1781
aS'first'
p1782
aS'time'
p1783
aS'.'
p1784
asg39
(lp1785
VHe
p1786
ag1048
aVgo
p1787
aVout
p1788
aVto
p1789
aVthe
p1790
aVfront
p1791
aVfrom
p1792
aVthe
p1793
aVmilitary
p1794
aVacademy
p1795
aVand
p1796
ag1164
aVwound
p1797
aVwithin
p1798
aVan
p1799
aVhour
p1800
aVafter
p1801
aVhe
p1802
ag1048
ag1787
aVinto
p1803
aVthe
p1804
aVfront
p1805
aVline
p1806
aVfor
p1807
aVthe
p1808
aVfirst
p1809
aVtime
p1810
ag59
asg60
(lp1811
g62
ag62
ag62
ag62
ag62
ag62
ag62
ag62
ag62
ag62
ag62
ag62
ag62
ag62
ag62
ag62
ag62
ag62
ag62
ag62
ag62
ag62
ag62
ag62
ag62
ag62
ag62
ag62
ag62
ag62
asg63
(lp1812
g72
ag68
ag114
ag737
ag74
ag66
ag67
ag65
ag66
ag116
ag67
ag71
ag114
ag114
ag65
ag66
ag67
ag65
ag72
ag68
ag114
ag65
ag66
ag67
ag67
ag65
ag66
ag116
ag67
ag76
asg77
VHe had gone out to the front from the military academy and been wounded within an hour after he had gone into the front line for the first time.
p1813
sba(i__main__
Sentence
p1814
(dp1815
g17
I43
sg18
(lp1816
S'They'
p1817
aS'rebuilt'
p1818
aS'his'
p1819
aS'face'
p1820
aS','
p1821
aS'but'
p1822
aS'he'
p1823
aS'came'
p1824
aS'from'
p1825
aS'a'
p1826
aS'very'
p1827
aS'old'
p1828
aS'family'
p1829
aS'and'
p1830
aS'they'
p1831
aS'could'
p1832
aS'never'
p1833
aS'get'
p1834
aS'the'
p1835
aS'nose'
p1836
aS'exactly'
p1837
aS'right'
p1838
aS'.'
p1839
asg39
(lp1840
VThey
p1841
ag1748
aVhis
p1842
aVface
p1843
ag49
aVbut
p1844
aVhe
p1845
ag145
aVfrom
p1846
ag291
aVvery
p1847
aVold
p1848
aVfamily
p1849
aVand
p1850
aVthey
p1851
aVcould
p1852
aVnever
p1853
aVget
p1854
aVthe
p1855
aVnose
p1856
aVexactly
p1857
aVright
p1858
ag59
asg60
(lp1859
g62
ag62
ag62
ag62
ag62
ag62
ag62
ag62
ag62
ag62
ag62
ag62
ag62
ag62
ag62
ag62
ag62
ag62
ag62
ag62
ag62
ag62
ag62
asg63
(lp1860
g72
ag68
ag218
ag67
ag70
ag71
ag72
ag68
ag65
ag66
ag69
ag116
ag67
ag71
ag72
ag834
ag69
ag73
ag66
ag67
ag69
ag69
ag76
asg77
VThey rebuilt his face, but he came from a very old family and they could never get the nose exactly right.
p1861
sba(i__main__
Sentence
p1862
(dp1863
g17
I44
sg18
(lp1864
S'He'
p1865
aS'went'
p1866
aS'to'
p1867
aS'South'
p1868
aS'America'
p1869
aS'and'
p1870
aS'worked'
p1871
aS'in'
p1872
aS'a'
p1873
aS'bank'
p1874
aS'.'
p1875
asg39
(lp1876
VHe
p1877
ag1232
aVto
p1878
aVSouth
p1879
aVAmerica
p1880
aVand
p1881
aVwork
p1882
aVin
p1883
ag291
aVbank
p1884
ag59
asg60
(lp1885
g62
ag62
ag62
aVLOCATION
p1886
aVLOCATION
p1887
ag62
ag62
ag62
ag62
ag62
ag62
asg63
(lp1888
g72
ag68
ag74
ag115
ag115
ag71
ag68
ag65
ag66
ag67
ag76
asg77
VHe went to South America and worked in a bank.
p1889
sba(i__main__
Sentence
p1890
(dp1891
g17
I45
sg18
(lp1892
S'But'
p1893
aS'this'
p1894
aS'was'
p1895
aS'a'
p1896
aS'long'
p1897
aS'time'
p1898
aS'ago'
p1899
aS','
p1900
aS'and'
p1901
aS'then'
p1902
aS'we'
p1903
aS'did'
p1904
aS'not'
p1905
aS'any'
p1906
aS'of'
p1907
aS'us'
p1908
aS'know'
p1909
aS'how'
p1910
aS'it'
p1911
aS'was'
p1912
aS'going'
p1913
aS'to'
p1914
aS'be'
p1915
aS'afterward'
p1916
aS'.'
p1917
asg39
(lp1918
VBut
p1919
aVthis
p1920
ag46
ag291
aVlong
p1921
aVtime
p1922
aVago
p1923
ag49
aVand
p1924
aVthen
p1925
aVwe
p1926
ag52
aVnot
p1927
aVany
p1928
aVof
p1929
ag1653
aVknow
p1930
aVhow
p1931
aVit
p1932
ag46
aVgo
p1933
aVto
p1934
aVbe
p1935
aVafterward
p1936
ag59
asg60
(lp1937
g62
ag62
ag62
ag62
ag62
ag62
ag62
ag62
ag62
ag62
ag62
ag62
ag62
ag62
ag62
ag62
ag62
ag62
ag62
ag62
ag62
ag62
ag62
ag62
ag62
asg63
(lp1938
g71
ag66
ag68
ag66
ag116
ag67
ag69
ag70
ag71
ag69
ag72
ag68
ag69
ag66
ag65
ag72
ag270
ag738
ag72
ag68
ag160
ag74
ag73
ag69
ag76
asg77
VBut this was a long time ago, and then we did not any of us know how it was going to be afterward.
p1939
sba(i__main__
Sentence
p1940
(dp1941
g17
I46
sg18
(lp1942
S'We'
p1943
aS'only'
p1944
aS'knew'
p1945
aS'then'
p1946
aS'that'
p1947
aS'there'
p1948
aS'was'
p1949
aS'always'
p1950
aS'the'
p1951
aS'war'
p1952
aS','
p1953
aS'but'
p1954
aS'that'
p1955
aS'we'
p1956
aS'were'
p1957
aS'not'
p1958
aS'going'
p1959
aS'to'
p1960
aS'it'
p1961
aS'any'
p1962
aS'more'
p1963
aS'.'
p1964
asg39
(lp1965
VWe
p1966
aVonly
p1967
aVknow
p1968
aVthen
p1969
aVthat
p1970
aVthere
p1971
ag46
aValways
p1972
aVthe
p1973
aVwar
p1974
ag49
aVbut
p1975
aVthat
p1976
aVwe
p1977
ag335
aVnot
p1978
aVgo
p1979
aVto
p1980
aVit
p1981
aVany
p1982
aVmore
p1983
ag59
asg60
(lp1984
g62
ag62
ag62
ag62
ag62
ag62
ag62
ag62
ag62
ag62
ag62
ag62
ag62
ag62
ag62
ag62
ag62
ag62
ag62
ag62
ag62
ag62
asg63
(lp1985
g72
ag69
ag68
ag69
ag65
ag217
ag68
ag69
ag66
ag67
ag70
ag71
ag65
ag72
ag68
ag69
ag160
ag74
ag72
ag66
ag75
ag76
asg77
VWe only knew then that there was always the war, but that we were not going to it any more.
p1986
sba(i__main__
Sentence
p1987
(dp1988
g17
I47
sg18
(lp1989
S'We'
p1990
aS'all'
p1991
aS'had'
p1992
aS'the'
p1993
aS'same'
p1994
aS'medals'
p1995
aS','
p1996
aS'except'
p1997
aS'the'
p1998
aS'boy'
p1999
aS'with'
p2000
aS'the'
p2001
aS'black'
p2002
aS'silk'
p2003
aS'bandage'
p2004
aS'across'
p2005
aS'his'
p2006
aS'face'
p2007
aS','
p2008
aS'and'
p2009
aS'he'
p2010
aS'had'
p2011
aS'not'
p2012
aS'been'
p2013
aS'at'
p2014
aS'the'
p2015
aS'front'
p2016
aS'long'
p2017
aS'enough'
p2018
aS'to'
p2019
aS'get'
p2020
aS'any'
p2021
aS'medals'
p2022
aS'.'
p2023
asg39
(lp2024
VWe
p2025
aVall
p2026
ag1048
aVthe
p2027
aVsame
p2028
aVmedal
p2029
ag49
aVexcept
p2030
aVthe
p2031
aVboy
p2032
aVwith
p2033
aVthe
p2034
aVblack
p2035
aVsilk
p2036
aVbandage
p2037
aVacross
p2038
aVhis
p2039
aVface
p2040
ag49
aVand
p2041
aVhe
p2042
ag1048
aVnot
p2043
ag1164
aVat
p2044
aVthe
p2045
aVfront
p2046
aVlong
p2047
aVenough
p2048
aVto
p2049
aVget
p2050
aVany
p2051
aVmedal
p2052
ag59
asg60
(lp2053
g62
ag62
ag62
ag62
ag62
ag62
ag62
ag62
ag62
ag62
ag62
ag62
ag62
ag62
ag62
ag62
ag62
ag62
ag62
ag62
ag62
ag62
ag62
ag62
ag62
ag62
ag62
ag62
ag62
ag62
ag62
ag62
ag62
ag62
asg63
(lp2054
g72
ag66
ag68
ag66
ag116
ag159
ag70
ag65
ag66
ag67
ag65
ag66
ag116
ag67
ag67
ag65
ag218
ag67
ag70
ag71
ag72
ag68
ag69
ag114
ag65
ag66
ag67
ag69
ag69
ag74
ag73
ag66
ag159
ag76
asg77
VWe all had the same medals, except the boy with the black silk bandage across his face, and he had not been at the front long enough to get any medals.
p2055
sba(i__main__
Sentence
p2056
(dp2057
g17
I48
sg18
(lp2058
S'The'
p2059
aS'tall'
p2060
aS'boy'
p2061
aS'with'
p2062
aS'a'
p2063
aS'very'
p2064
aS'pale'
p2065
aS'face'
p2066
aS'who'
p2067
aS'was'
p2068
aS'to'
p2069
aS'be'
p2070
aS'a'
p2071
aS'lawyer'
p2072
aS'had'
p2073
aS'been'
p2074
aS'lieutenant'
p2075
aS'of'
p2076
aS'Arditi'
p2077
aS'and'
p2078
aS'had'
p2079
aS'three'
p2080
aS'medals'
p2081
aS'of'
p2082
aS'the'
p2083
aS'sort'
p2084
aS'we'
p2085
aS'each'
p2086
aS'had'
p2087
aS'only'
p2088
aS'one'
p2089
aS'of'
p2090
aS'.'
p2091
asg39
(lp2092
VThe
p2093
aVtall
p2094
aVboy
p2095
aVwith
p2096
ag291
aVvery
p2097
aVpale
p2098
aVface
p2099
aVwho
p2100
ag46
aVto
p2101
aVbe
p2102
ag291
aVlawyer
p2103
ag1048
ag1164
aVlieutenant
p2104
aVof
p2105
aVArditi
p2106
aVand
p2107
ag1048
aVthree
p2108
aVmedal
p2109
aVof
p2110
aVthe
p2111
aVsort
p2112
aVwe
p2113
aVeach
p2114
ag1048
aVonly
p2115
aVone
p2116
aVof
p2117
ag59
asg60
(lp2118
g62
ag62
ag62
ag62
ag62
ag62
ag62
ag62
ag62
ag62
ag62
ag62
ag62
ag62
ag62
ag62
ag62
ag62
aVPERSON
p2119
ag62
ag62
ag62
ag62
ag62
ag62
ag62
ag62
ag62
ag62
ag62
ag62
ag62
ag62
asg63
(lp2120
g66
ag116
ag67
ag65
ag66
ag69
ag116
ag67
ag679
ag68
ag74
ag73
ag66
ag67
ag68
ag114
ag116
ag65
ag115
ag71
ag68
ag389
ag159
ag65
ag66
ag67
ag72
ag66
ag68
ag69
ag389
ag65
ag76
asg77
VThe tall boy with a very pale face who was to be a lawyer had been lieutenant of Arditi and had three medals of the sort we each had only one of.
p2121
sba(i__main__
Sentence
p2122
(dp2123
g17
I49
sg18
(lp2124
S'He'
p2125
aS'had'
p2126
aS'lived'
p2127
aS'a'
p2128
aS'very'
p2129
aS'long'
p2130
aS'time'
p2131
aS'with'
p2132
aS'death'
p2133
aS'and'
p2134
aS'was'
p2135
aS'a'
p2136
aS'little'
p2137
aS'detached'
p2138
aS'.'
p2139
asg39
(lp2140
VHe
p2141
ag1048
aVlive
p2142
ag291
aVvery
p2143
aVlong
p2144
aVtime
p2145
aVwith
p2146
aVdeath
p2147
aVand
p2148
ag46
ag291
aVlittle
p2149
aVdetach
p2150
ag59
asg60
(lp2151
g62
ag62
ag62
ag62
ag62
ag62
ag62
ag62
ag62
ag62
ag62
ag62
ag62
ag62
ag62
asg63
(lp2152
g72
ag68
ag114
ag66
ag69
ag116
ag67
ag65
ag67
ag71
ag68
ag66
ag69
ag114
ag76
asg77
VHe had lived a very long time with death and was a little detached.
p2153
sba(i__main__
Sentence
p2154
(dp2155
g17
I50
sg18
(lp2156
S'We'
p2157
aS'were'
p2158
aS'all'
p2159
aS'a'
p2160
aS'little'
p2161
aS'detached'
p2162
aS','
p2163
aS'and'
p2164
aS'there'
p2165
aS'was'
p2166
aS'nothing'
p2167
aS'that'
p2168
aS'held'
p2169
aS'us'
p2170
aS'together'
p2171
aS'except'
p2172
aS'that'
p2173
aS'we'
p2174
aS'met'
p2175
aS'every'
p2176
aS'afternoon'
p2177
aS'at'
p2178
aS'the'
p2179
aS'hospital'
p2180
aS'.'
p2181
asg39
(lp2182
VWe
p2183
ag335
aVall
p2184
ag291
aVlittle
p2185
aVdetach
p2186
ag49
aVand
p2187
aVthere
p2188
ag46
aVnothing
p2189
aVthat
p2190
aVheld
p2191
ag1653
aVtogether
p2192
aVexcept
p2193
aVthat
p2194
aVwe
p2195
ag653
aVevery
p2196
aVafternoon
p2197
aVat
p2198
aVthe
p2199
aVhospital
p2200
ag59
asg60
(lp2201
g62
ag62
ag62
ag62
ag62
ag62
ag62
ag62
ag62
ag62
ag62
ag62
ag62
ag62
ag62
ag62
ag62
ag62
ag62
ag62
ag62
ag62
ag62
ag62
ag62
asg63
(lp2202
g72
ag68
ag359
ag66
ag69
ag114
ag70
ag71
ag217
ag68
ag67
ag65
ag67
ag72
ag69
ag65
ag66
ag72
ag270
ag66
ag67
ag65
ag66
ag116
ag76
asg77
VWe were all a little detached, and there was nothing that held us together except that we met every afternoon at the hospital.
p2203
sba(i__main__
Sentence
p2204
(dp2205
g17
I51
sg18
(lp2206
S'Although'
p2207
aS','
p2208
aS'as'
p2209
aS'we'
p2210
aS'walked'
p2211
aS'to'
p2212
aS'the'
p2213
aS'Cova'
p2214
aS'through'
p2215
aS'the'
p2216
aS'though'
p2217
aS'part'
p2218
aS'of'
p2219
aS'town'
p2220
aS','
p2221
aS'walking'
p2222
aS'in'
p2223
aS'the'
p2224
aS'dark'
p2225
aS','
p2226
aS'with'
p2227
aS'light'
p2228
aS'and'
p2229
aS'singing'
p2230
aS'coming'
p2231
aS'out'
p2232
aS'of'
p2233
aS'the'
p2234
aS'wine-shops'
p2235
aS','
p2236
aS'and'
p2237
aS'sometimes'
p2238
aS'having'
p2239
aS'to'
p2240
aS'walk'
p2241
aS'into'
p2242
aS'the'
p2243
aS'street'
p2244
aS'when'
p2245
aS'the'
p2246
aS'men'
p2247
aS'and'
p2248
aS'women'
p2249
aS'would'
p2250
aS'crowd'
p2251
aS'together'
p2252
aS'on'
p2253
aS'the'
p2254
aS'sidewalk'
p2255
aS'so'
p2256
aS'that'
p2257
aS'we'
p2258
aS'would'
p2259
aS'have'
p2260
aS'had'
p2261
aS'to'
p2262
aS'jostle'
p2263
aS'them'
p2264
aS'to'
p2265
aS'et'
p2266
aS'by'
p2267
aS','
p2268
aS'we'
p2269
aS'felt'
p2270
aS'held'
p2271
aS'together'
p2272
aS'by'
p2273
aS'there'
p2274
aS'being'
p2275
aS'something'
p2276
aS'that'
p2277
aS'had'
p2278
aS'happened'
p2279
aS'that'
p2280
aS'they'
p2281
aS','
p2282
aS'the'
p2283
aS'people'
p2284
aS'who'
p2285
aS'disliked'
p2286
aS'us'
p2287
aS','
p2288
aS'did'
p2289
aS'not'
p2290
aS'understand'
p2291
aS'.'
p2292
asg39
(lp2293
VAlthough
p2294
ag49
ag291
aVwe
p2295
aVwalk
p2296
aVto
p2297
aVthe
p2298
aVCova
p2299
aVthrough
p2300
aVthe
p2301
aVthough
p2302
aVpart
p2303
aVof
p2304
aVtown
p2305
ag49
aVwalk
p2306
aVin
p2307
aVthe
p2308
aVdark
p2309
ag49
aVwith
p2310
aVlight
p2311
aVand
p2312
aVsing
p2313
aVcome
p2314
aVout
p2315
aVof
p2316
aVthe
p2317
aVwine-shops
p2318
ag49
aVand
p2319
aVsometimes
p2320
aVhave
p2321
aVto
p2322
aVwalk
p2323
aVinto
p2324
aVthe
p2325
aVstreet
p2326
aVwhen
p2327
aVthe
p2328
aVmen
p2329
aVand
p2330
aVwoman
p2331
aVwould
p2332
aVcrowd
p2333
aVtogether
p2334
aVon
p2335
aVthe
p2336
aVsidewalk
p2337
aVso
p2338
aVthat
p2339
aVwe
p2340
aVwould
p2341
aVhave
p2342
ag1048
aVto
p2343
aVjostle
p2344
aVthem
p2345
aVto
p2346
aVet
p2347
aVby
p2348
ag49
aVwe
p2349
aVfelt
p2350
aVhold
p2351
aVtogether
p2352
aVby
p2353
aVthere
p2354
aVbe
p2355
aVsomething
p2356
aVthat
p2357
ag1048
aVhappen
p2358
aVthat
p2359
aVthey
p2360
ag49
aVthe
p2361
aVpeople
p2362
aVwho
p2363
aVdislike
p2364
ag1653
ag49
ag52
aVnot
p2365
aVunderstand
p2366
ag59
asg60
(lp2367
g62
ag62
ag62
ag62
ag62
ag62
ag62
ag62
ag62
ag62
ag62
ag62
ag62
ag62
ag62
ag62
ag62
ag62
ag62
ag62
ag62
ag62
ag62
ag62
ag62
ag62
ag62
ag62
ag62
ag62
ag62
ag62
ag62
ag62
ag62
ag62
ag62
ag62
ag62
ag62
ag62
ag62
ag62
ag62
ag62
ag62
ag62
ag62
ag62
ag62
ag62
ag62
ag62
ag62
ag62
ag62
ag62
ag62
ag62
ag62
ag62
ag62
ag62
ag62
ag62
ag62
ag62
ag62
ag62
ag62
ag62
ag62
ag62
ag62
ag62
ag62
ag62
ag62
ag62
ag62
ag62
ag62
ag62
ag62
ag62
ag62
asg63
(lp2368
g65
ag70
ag65
ag72
ag68
ag74
ag66
ag115
ag65
ag66
ag116
ag67
ag65
ag67
ag70
ag160
ag65
ag66
ag116
ag70
ag65
ag116
ag71
ag160
ag160
ag737
ag65
ag66
ag159
ag70
ag71
ag69
ag160
ag74
ag73
ag65
ag66
ag67
ag738
ag66
ag159
ag71
ag159
ag834
ag73
ag69
ag65
ag66
ag67
ag69
ag65
ag72
ag834
ag73
ag68
ag74
ag73
ag72
ag74
ag73
ag65
ag70
ag72
ag68
ag114
ag737
ag65
ag217
ag160
ag67
ag680
ag68
ag114
ag65
ag72
ag70
ag66
ag159
ag679
ag114
ag72
ag70
ag68
ag69
ag73
ag76
asg77
VAlthough, as we walked to the Cova through the though part of town, walking in the dark, with light and singing coming out of the wine-shops, and sometimes having to walk into the street when the men and women would crowd together on the sidewalk so that we would have had to jostle them to et by, we felt held together by there being something that had happened that they, the people who disliked us, did not understand.
p2369
sba(i__main__
Sentence
p2370
(dp2371
g17
I52
sg18
(lp2372
S'We'
p2373
aS'ourselves'
p2374
aS'all'
p2375
aS'understood'
p2376
aS'the'
p2377
aS'Cova'
p2378
aS','
p2379
aS'where'
p2380
aS'it'
p2381
aS'was'
p2382
aS'rich'
p2383
aS'and'
p2384
aS'warm'
p2385
aS'and'
p2386
aS'not'
p2387
aS'too'
p2388
aS'brightly'
p2389
aS'lighted'
p2390
aS','
p2391
aS'and'
p2392
aS'noisy'
p2393
aS'and'
p2394
aS'smoky'
p2395
aS'at'
p2396
aS'certain'
p2397
aS'hours'
p2398
aS','
p2399
aS'and'
p2400
aS'there'
p2401
aS'were'
p2402
aS'always'
p2403
aS'girls'
p2404
aS'at'
p2405
aS'the'
p2406
aS'tables'
p2407
aS'and'
p2408
aS'the'
p2409
aS'illustrated'
p2410
aS'papers'
p2411
aS'on'
p2412
aS'a'
p2413
aS'rack'
p2414
aS'on'
p2415
aS'the'
p2416
aS'wall'
p2417
aS'.'
p2418
asg39
(lp2419
VWe
p2420
aVourselves
p2421
aVall
p2422
aVunderstood
p2423
aVthe
p2424
aVCova
p2425
ag49
aVwhere
p2426
aVit
p2427
ag46
aVrich
p2428
aVand
p2429
aVwarm
p2430
aVand
p2431
aVnot
p2432
aVtoo
p2433
aVbrightly
p2434
aVlight
p2435
ag49
aVand
p2436
aVnoisy
p2437
aVand
p2438
aVsmoky
p2439
aVat
p2440
aVcertain
p2441
aVhour
p2442
ag49
aVand
p2443
aVthere
p2444
ag335
aValways
p2445
aVgirl
p2446
aVat
p2447
aVthe
p2448
aVtable
p2449
aVand
p2450
aVthe
p2451
aVillustrated
p2452
aVpaper
p2453
aVon
p2454
ag291
aVrack
p2455
aVon
p2456
aVthe
p2457
aVwall
p2458
ag59
asg60
(lp2459
g62
ag62
ag62
ag62
ag62
ag62
ag62
ag62
ag62
ag62
ag62
ag62
ag62
ag62
ag62
ag62
ag62
ag62
ag62
ag62
ag62
ag62
ag62
ag62
ag62
ag62
ag62
ag62
ag62
ag62
ag62
ag62
ag62
ag62
ag62
ag62
ag62
ag62
ag62
ag62
ag62
ag62
ag62
ag62
ag62
ag62
asg63
(lp2460
g72
aS'VBZ'
p2461
ag66
ag67
ag66
ag115
ag70
ag738
ag72
ag68
ag116
ag71
ag67
ag71
ag69
ag69
ag69
ag114
ag70
ag71
ag67
ag71
ag116
ag65
ag116
ag159
ag70
ag71
ag217
ag68
ag69
ag159
ag65
ag66
ag159
ag71
ag66
ag116
ag159
ag65
ag66
ag67
ag65
ag66
ag67
ag76
asg77
VWe ourselves all understood the Cova, where it was rich and warm and not too brightly lighted, and noisy and smoky at certain hours, and there were always girls at the tables and the illustrated papers on a rack on the wall.
p2462
sba(i__main__
Sentence
p2463
(dp2464
g17
I53
sg18
(lp2465
S'The'
p2466
aS'girls'
p2467
aS'at'
p2468
aS'the'
p2469
aS'Cova'
p2470
aS'were'
p2471
aS'very'
p2472
aS'patriotic'
p2473
aS','
p2474
aS'and'
p2475
aS'I'
p2476
aS'found'
p2477
aS'that'
p2478
aS'the'
p2479
aS'most'
p2480
aS'patriotic'
p2481
aS'people'
p2482
aS'in'
p2483
aS'Italy'
p2484
aS'were'
p2485
aS'the'
p2486
aS'caf'
p2487
aS'girls'
p2488
aS'-'
p2489
aS'and'
p2490
aS'I'
p2491
aS'believe'
p2492
aS'they'
p2493
aS'are'
p2494
aS'still'
p2495
aS'patriotic'
p2496
aS'.'
p2497
asg39
(lp2498
VThe
p2499
aVgirl
p2500
aVat
p2501
aVthe
p2502
aVCova
p2503
ag335
aVvery
p2504
aVpatriotic
p2505
ag49
aVand
p2506
ag719
aVfind
p2507
aVthat
p2508
aVthe
p2509
aVmost
p2510
aVpatriotic
p2511
aVpeople
p2512
aVin
p2513
aVItaly
p2514
ag335
aVthe
p2515
aVcaf
p2516
aVgirl
p2517
aV-
p2518
aVand
p2519
ag719
aVbelieve
p2520
aVthey
p2521
ag989
aVstill
p2522
aVpatriotic
p2523
ag59
asg60
(lp2524
g62
ag62
ag62
ag62
aVORGANIZATION
p2525
ag62
ag62
ag62
ag62
ag62
ag62
ag62
ag62
ag62
ag62
ag62
ag62
ag62
aVLOCATION
p2526
ag62
ag62
ag62
ag62
ag62
ag62
ag62
ag62
ag62
ag62
ag62
ag62
ag62
asg63
(lp2527
g66
ag159
ag65
ag66
ag115
ag68
ag69
ag116
ag70
ag71
ag72
ag68
ag65
ag66
aS'RBS'
p2528
ag116
ag159
ag65
ag115
ag68
ag66
ag67
ag159
ag739
ag71
ag72
ag270
ag72
ag270
ag69
ag116
ag76
asg77
VThe girls at the Cova were very patriotic, and I found that the most patriotic people in Italy were the caf girls - and I believe they are still patriotic.
p2529
sba(i__main__
Sentence
p2530
(dp2531
g17
I54
sg18
(lp2532
S'The'
p2533
aS'boys'
p2534
aS'at'
p2535
aS'first'
p2536
aS'were'
p2537
aS'very'
p2538
aS'polite'
p2539
aS'about'
p2540
aS'my'
p2541
aS'medals'
p2542
aS'and'
p2543
aS'asked'
p2544
aS'me'
p2545
aS'what'
p2546
aS'I'
p2547
aS'had'
p2548
aS'done'
p2549
aS'to'
p2550
aS'get'
p2551
aS'them'
p2552
aS'.'
p2553
asg39
(lp2554
VThe
p2555
aVboy
p2556
aVat
p2557
aVfirst
p2558
ag335
aVvery
p2559
aVpolite
p2560
aVabout
p2561
aVmy
p2562
aVmedal
p2563
aVand
p2564
aVask
p2565
aVme
p2566
aVwhat
p2567
ag719
ag1048
aVdo
p2568
aVto
p2569
aVget
p2570
aVthem
p2571
ag59
asg60
(lp2572
g62
ag62
ag62
ag62
ag62
ag62
ag62
ag62
ag62
ag62
ag62
ag62
ag62
ag62
ag62
ag62
ag62
ag62
ag62
ag62
ag62
asg63
(lp2573
g66
ag159
ag65
ag116
ag68
ag69
ag116
ag65
ag218
ag159
ag71
ag68
ag72
ag679
ag72
ag68
ag114
ag74
ag73
ag72
ag76
asg77
VThe boys at first were very polite about my medals and asked me what I had done to get them.
p2574
sba(i__main__
Sentence
p2575
(dp2576
g17
I55
sg18
(lp2577
S'I'
p2578
aS'showed'
p2579
aS'them'
p2580
aS'the'
p2581
aS'papers'
p2582
aS','
p2583
aS'which'
p2584
aS'were'
p2585
aS'written'
p2586
aS'in'
p2587
aS'very'
p2588
aS'beautiful'
p2589
aS'language'
p2590
aS'and'
p2591
aS'full'
p2592
aS'of'
p2593
aS'fratellanza'
p2594
aS'and'
p2595
aS'abnegazione'
p2596
aS','
p2597
aS'but'
p2598
aS'which'
p2599
aS'really'
p2600
aS'said'
p2601
aS','
p2602
aS'with'
p2603
aS'the'
p2604
aS'adjectives'
p2605
aS'removed'
p2606
aS','
p2607
aS'that'
p2608
aS'I'
p2609
aS'had'
p2610
aS'been'
p2611
aS'given'
p2612
aS'the'
p2613
aS'medals'
p2614
aS'because'
p2615
aS'I'
p2616
aS'was'
p2617
aS'an'
p2618
aS'American'
p2619
aS'.'
p2620
asg39
(lp2621
g719
aVshow
p2622
aVthem
p2623
aVthe
p2624
aVpaper
p2625
ag49
aVwhich
p2626
ag335
aVwrite
p2627
aVin
p2628
aVvery
p2629
aVbeautiful
p2630
aVlanguage
p2631
aVand
p2632
aVfull
p2633
aVof
p2634
aVfratellanza
p2635
aVand
p2636
aVabnegazione
p2637
ag49
aVbut
p2638
aVwhich
p2639
aVreally
p2640
ag722
ag49
aVwith
p2641
aVthe
p2642
aVadjective
p2643
aVremove
p2644
ag49
aVthat
p2645
ag719
ag1048
ag1164
aVgive
p2646
aVthe
p2647
aVmedal
p2648
aVbecause
p2649
ag719
ag46
aVan
p2650
aVAmerican
p2651
ag59
asg60
(lp2652
g62
ag62
ag62
ag62
ag62
ag62
ag62
ag62
ag62
ag62
ag62
ag62
ag62
ag62
ag62
ag62
ag62
ag62
ag62
ag62
ag62
ag62
ag62
ag62
ag62
ag62
ag62
ag62
ag62
ag62
ag62
ag62
ag62
ag62
ag62
ag62
ag62
ag62
ag62
ag62
ag62
ag62
ag62
asg63
(lp2653
g72
ag68
ag72
ag66
ag159
ag70
ag680
ag68
ag114
ag65
ag69
ag116
ag67
ag71
ag116
ag65
ag67
ag71
ag67
ag70
ag71
ag680
ag69
ag68
ag70
ag65
ag66
ag159
ag68
ag70
ag65
ag72
ag68
ag114
ag114
ag66
ag159
ag65
ag72
ag68
ag66
ag116
ag76
asg77
VI showed them the papers, which were written in very beautiful language and full of fratellanza and abnegazione, but which really said, with the adjectives removed, that I had been given the medals because I was an American.
p2654
sba(i__main__
Sentence
p2655
(dp2656
g17
I56
sg18
(lp2657
S'After'
p2658
aS'that'
p2659
aS'their'
p2660
aS'manner'
p2661
aS'changed'
p2662
aS'a'
p2663
aS'little'
p2664
aS'toward'
p2665
aS'me'
p2666
aS','
p2667
aS'although'
p2668
aS'I'
p2669
aS'was'
p2670
aS'their'
p2671
aS'friend'
p2672
aS'against'
p2673
aS'outsiders'
p2674
aS'.'
p2675
asg39
(lp2676
VAfter
p2677
aVthat
p2678
aVtheir
p2679
aVmanner
p2680
aVchange
p2681
ag291
aVlittle
p2682
aVtoward
p2683
aVme
p2684
ag49
aValthough
p2685
ag719
ag46
aVtheir
p2686
aVfriend
p2687
aVagainst
p2688
aVoutsider
p2689
ag59
asg60
(lp2690
g62
ag62
ag62
ag62
ag62
ag62
ag62
ag62
ag62
ag62
ag62
ag62
ag62
ag62
ag62
ag62
ag62
ag62
asg63
(lp2691
g65
ag66
ag218
ag67
ag68
ag66
ag69
ag65
ag72
ag70
ag65
ag72
ag68
ag218
ag67
ag65
ag159
ag76
asg77
VAfter that their manner changed a little toward me, although I was their friend against outsiders.
p2692
sba(i__main__
Sentence
p2693
(dp2694
g17
I57
sg18
(lp2695
S'I'
p2696
aS'was'
p2697
aS'a'
p2698
aS'friend'
p2699
aS','
p2700
aS'but'
p2701
aS'I'
p2702
aS'was'
p2703
aS'never'
p2704
aS'really'
p2705
aS'one'
p2706
aS'of'
p2707
aS'them'
p2708
aS'after'
p2709
aS'they'
p2710
aS'had'
p2711
aS'read'
p2712
aS'the'
p2713
aS'citations'
p2714
aS','
p2715
aS'because'
p2716
aS'it'
p2717
aS'had'
p2718
aS'been'
p2719
aS'different'
p2720
aS'with'
p2721
aS'them'
p2722
aS'and'
p2723
aS'they'
p2724
aS'had'
p2725
aS'done'
p2726
aS'very'
p2727
aS'different'
p2728
aS'things'
p2729
aS'to'
p2730
aS'get'
p2731
aS'their'
p2732
aS'medals'
p2733
aS'.'
p2734
asg39
(lp2735
g719
ag46
ag291
aVfriend
p2736
ag49
aVbut
p2737
ag719
ag46
aVnever
p2738
aVreally
p2739
aVone
p2740
aVof
p2741
aVthem
p2742
aVafter
p2743
aVthey
p2744
ag1048
aVread
p2745
aVthe
p2746
aVcitation
p2747
ag49
aVbecause
p2748
aVit
p2749
ag1048
ag1164
aVdifferent
p2750
aVwith
p2751
aVthem
p2752
aVand
p2753
aVthey
p2754
ag1048
ag2568
aVvery
p2755
aVdifferent
p2756
aVthing
p2757
aVto
p2758
aVget
p2759
aVtheir
p2760
aVmedal
p2761
ag59
asg60
(lp2762
g62
ag62
ag62
ag62
ag62
ag62
ag62
ag62
ag62
ag62
ag62
ag62
ag62
ag62
ag62
ag62
ag62
ag62
ag62
ag62
ag62
ag62
ag62
ag62
ag62
ag62
ag62
ag62
ag62
ag62
ag62
ag62
ag62
ag62
ag62
ag62
ag62
ag62
ag62
asg63
(lp2763
g72
ag68
ag66
ag67
ag70
ag71
ag72
ag68
ag69
ag69
ag389
ag65
ag72
ag65
ag72
ag68
ag114
ag66
ag159
ag70
ag65
ag72
ag68
ag114
ag116
ag65
ag72
ag71
ag72
ag68
ag114
ag69
ag116
ag159
ag74
ag73
ag218
ag159
ag76
asg77
VI was a friend, but I was never really one of them after they had read the citations, because it had been different with them and they had done very different things to get their medals.
p2764
sba(i__main__
Sentence
p2765
(dp2766
g17
I58
sg18
(lp2767
S'I'
p2768
aS'had'
p2769
aS'been'
p2770
aS'wounded'
p2771
aS','
p2772
aS'it'
p2773
aS'was'
p2774
aS'true'
p2775
aS';'
p2776
aS'but'
p2777
aS'we'
p2778
aS'all'
p2779
aS'knew'
p2780
aS'that'
p2781
aS'being'
p2782
aS'wounded'
p2783
aS','
p2784
aS'after'
p2785
aS'all'
p2786
aS','
p2787
aS'was'
p2788
aS'really'
p2789
aS'an'
p2790
aS'accident'
p2791
aS'.'
p2792
asg39
(lp2793
g719
ag1048
ag1164
aVwound
p2794
ag49
aVit
p2795
ag46
aVtrue
p2796
aV;
p2797
aVbut
p2798
aVwe
p2799
aVall
p2800
aVknew
p2801
aVthat
p2802
aVbe
p2803
aVwound
p2804
ag49
aVafter
p2805
aVall
p2806
ag49
ag46
aVreally
p2807
aVan
p2808
aVaccident
p2809
ag59
asg60
(lp2810
g62
ag62
ag62
ag62
ag62
ag62
ag62
ag62
ag62
ag62
ag62
ag62
ag62
ag62
ag62
ag62
ag62
ag62
ag62
ag62
ag62
ag62
ag62
ag62
ag62
asg63
(lp2811
g72
ag68
ag114
ag114
ag70
ag72
ag68
ag116
ag739
ag71
ag72
ag66
ag116
ag65
ag160
ag114
ag70
ag65
ag66
ag70
ag68
ag69
ag66
ag67
ag76
asg77
VI had been wounded, it was true; but we all knew that being wounded, after all, was really an accident.
p2812
sba(i__main__
Sentence
p2813
(dp2814
g17
I59
sg18
(lp2815
S'I'
p2816
aS'was'
p2817
aS'never'
p2818
aS'ashamed'
p2819
aS'of'
p2820
aS'the'
p2821
aS'ribbons'
p2822
aS','
p2823
aS'though'
p2824
aS','
p2825
aS'and'
p2826
aS'sometimes'
p2827
aS','
p2828
aS'after'
p2829
aS'the'
p2830
aS'cocktail'
p2831
aS'hour'
p2832
aS','
p2833
aS'I'
p2834
aS'would'
p2835
aS'imagine'
p2836
aS'myself'
p2837
aS'having'
p2838
aS'done'
p2839
aS'all'
p2840
aS'the'
p2841
aS'things'
p2842
aS'they'
p2843
aS'had'
p2844
aS'done'
p2845
aS'to'
p2846
aS'get'
p2847
aS'their'
p2848
aS'medals'
p2849
aS';'
p2850
aS'but'
p2851
aS'walking'
p2852
aS'home'
p2853
aS'at'
p2854
aS'night'
p2855
aS'through'
p2856
aS'the'
p2857
aS'empty'
p2858
aS'streets'
p2859
aS'with'
p2860
aS'the'
p2861
aS'cold'
p2862
aS'wind'
p2863
aS'and'
p2864
aS'all'
p2865
aS'the'
p2866
aS'shops'
p2867
aS'closed'
p2868
aS','
p2869
aS'trying'
p2870
aS'to'
p2871
aS'keep'
p2872
aS'near'
p2873
aS'the'
p2874
aS'street'
p2875
aS'lights'
p2876
aS','
p2877
aS'I'
p2878
aS'knew'
p2879
aS'that'
p2880
aS'would'
p2881
aS'never'
p2882
aS'have'
p2883
aS'done'
p2884
aS'such'
p2885
aS'things'
p2886
aS','
p2887
aS'and'
p2888
aS'I'
p2889
aS'was'
p2890
aS'very'
p2891
aS'much'
p2892
aS'afraid'
p2893
aS'to'
p2894
aS'die'
p2895
aS','
p2896
aS'and'
p2897
aS'often'
p2898
aS'lay'
p2899
aS'in'
p2900
aS'bed'
p2901
aS'at'
p2902
aS'night'
p2903
aS'by'
p2904
aS'myself'
p2905
aS','
p2906
aS'afraid'
p2907
aS'to'
p2908
aS'die'
p2909
aS'and'
p2910
aS'wondering'
p2911
aS'how'
p2912
aS'I'
p2913
aS'would'
p2914
aS'be'
p2915
aS'when'
p2916
aS'back'
p2917
aS'to'
p2918
aS'the'
p2919
aS'front'
p2920
aS'again'
p2921
aS'.'
p2922
asg39
(lp2923
g719
ag46
aVnever
p2924
aVashamed
p2925
aVof
p2926
aVthe
p2927
aVribbon
p2928
ag49
aVthough
p2929
ag49
aVand
p2930
aVsometimes
p2931
ag49
aVafter
p2932
aVthe
p2933
aVcocktail
p2934
aVhour
p2935
ag49
ag719
aVwould
p2936
aVimagine
p2937
aVmyself
p2938
aVhave
p2939
aVdone
p2940
aVall
p2941
aVthe
p2942
aVthing
p2943
aVthey
p2944
ag1048
ag2568
aVto
p2945
aVget
p2946
aVtheir
p2947
aVmedal
p2948
ag2797
aVbut
p2949
aVwalk
p2950
aVhome
p2951
aVat
p2952
aVnight
p2953
aVthrough
p2954
aVthe
p2955
aVempty
p2956
aVstreet
p2957
aVwith
p2958
aVthe
p2959
aVcold
p2960
aVwind
p2961
aVand
p2962
aVall
p2963
aVthe
p2964
aVshop
p2965
aVclose
p2966
ag49
aVtry
p2967
aVto
p2968
aVkeep
p2969
aVnear
p2970
aVthe
p2971
aVstreet
p2972
aVlight
p2973
ag49
ag719
ag1968
aVthat
p2974
aVwould
p2975
aVnever
p2976
aVhave
p2977
ag2568
aVsuch
p2978
aVthing
p2979
ag49
aVand
p2980
ag719
ag46
aVvery
p2981
aVmuch
p2982
aVafraid
p2983
aVto
p2984
aVdie
p2985
ag49
aVand
p2986
aVoften
p2987
aVlay
p2988
aVin
p2989
aVbed
p2990
aVat
p2991
aVnight
p2992
aVby
p2993
aVmyself
p2994
ag49
aVafraid
p2995
aVto
p2996
aVdie
p2997
aVand
p2998
aVwonder
p2999
aVhow
p3000
ag719
aVwould
p3001
aVbe
p3002
aVwhen
p3003
aVback
p3004
aVto
p3005
aVthe
p3006
aVfront
p3007
aVagain
p3008
ag59
asg60
(lp3009
g62
ag62
ag62
ag62
ag62
ag62
ag62
ag62
ag62
ag62
ag62
ag62
ag62
ag62
ag62
ag62
ag62
ag62
ag62
ag62
ag62
ag62
ag62
ag62
ag62
ag62
ag62
ag62
ag62
ag62
ag62
ag62
ag62
ag62
ag62
ag62
ag62
ag62
ag62
ag62
ag62
ag62
ag62
ag62
ag62
ag62
ag62
ag62
ag62
ag62
ag62
ag62
ag62
ag62
ag62
ag62
ag62
ag62
ag62
ag62
ag62
ag62
ag62
ag62
ag62
ag62
ag62
ag62
ag62
ag62
ag62
ag62
ag62
ag62
ag62
ag62
ag62
ag62
ag62
ag62
ag62
ag62
ag62
ag62
ag62
ag62
ag62
ag62
ag62
ag62
ag62
ag62
ag62
ag62
ag62
ag62
ag62
ag62
ag62
ag62
ag62
ag62
ag62
ag62
ag62
ag62
ag62
asg63
(lp3010
g72
ag68
ag69
ag114
ag65
ag66
ag159
ag70
ag65
ag70
ag71
ag69
ag70
ag65
ag66
ag67
ag67
ag70
ag72
ag834
ag73
ag72
ag160
ag67
ag66
ag66
ag159
ag72
ag68
ag114
ag74
ag73
ag218
ag159
ag739
ag71
ag160
ag67
ag65
ag67
ag65
ag66
ag67
ag159
ag65
ag66
ag67
ag67
ag71
ag66
ag66
ag159
ag68
ag70
ag160
ag74
ag73
ag65
ag66
ag67
ag159
ag70
ag72
ag68
ag65
ag834
ag69
ag73
ag114
ag116
ag159
ag70
ag71
ag72
ag68
ag69
ag69
ag68
ag74
ag73
ag70
ag71
ag69
ag270
ag65
ag114
ag65
ag67
ag65
ag67
ag70
ag68
ag74
ag73
ag71
ag160
ag738
ag72
ag834
ag73
ag738
ag737
ag74
ag66
ag67
ag69
ag76
asg77
VI was never ashamed of the ribbons, though, and sometimes, after the cocktail hour, I would imagine myself having done all the things they had done to get their medals; but walking home at night through the empty streets with the cold wind and all the shops closed, trying to keep near the street lights, I knew that  would never have done such things, and I was very much afraid to die, and often lay in bed at night by myself, afraid to die and wondering how I would be when back to the front again.
p3011
sba(i__main__
Sentence
p3012
(dp3013
g17
I60
sg18
(lp3014
S'The'
p3015
aS'three'
p3016
aS'with'
p3017
aS'the'
p3018
aS'medals'
p3019
aS'were'
p3020
aS'like'
p3021
aS'hunting-hawks'
p3022
aS';'
p3023
aS'and'
p3024
aS'I'
p3025
aS'was'
p3026
aS'not'
p3027
aS'a'
p3028
aS'hawk'
p3029
aS','
p3030
aS'although'
p3031
aS'I'
p3032
aS'might'
p3033
aS'seem'
p3034
aS'a'
p3035
aS'hawk'
p3036
aS'to'
p3037
aS'those'
p3038
aS'who'
p3039
aS'had'
p3040
aS'never'
p3041
aS'hunted'
p3042
aS';'
p3043
aS'they'
p3044
aS','
p3045
aS'the'
p3046
aS'three'
p3047
aS','
p3048
aS'knew'
p3049
aS'better'
p3050
aS'and'
p3051
aS'so'
p3052
aS'we'
p3053
aS'drifted'
p3054
aS'apart'
p3055
aS'.'
p3056
asg39
(lp3057
VThe
p3058
aVthree
p3059
aVwith
p3060
aVthe
p3061
aVmedal
p3062
ag335
aVlike
p3063
aVhunting-hawks
p3064
ag2797
aVand
p3065
ag719
ag46
aVnot
p3066
ag291
aVhawk
p3067
ag49
aValthough
p3068
ag719
aVmight
p3069
aVseem
p3070
ag291
aVhawk
p3071
aVto
p3072
aVthose
p3073
aVwho
p3074
ag1048
aVnever
p3075
aVhunt
p3076
ag2797
aVthey
p3077
ag49
aVthe
p3078
aVthree
p3079
ag49
aVknew
p3080
aVbetter
p3081
aVand
p3082
aVso
p3083
aVwe
p3084
aVdrift
p3085
aVapart
p3086
ag59
asg60
(lp3087
g62
ag62
ag62
ag62
ag62
ag62
ag62
ag62
ag62
ag62
ag62
ag62
ag62
ag62
ag62
ag62
ag62
ag62
ag62
ag62
ag62
ag62
ag62
ag62
ag62
ag62
ag62
ag62
ag62
ag62
ag62
ag62
ag62
ag62
ag62
ag62
ag62
ag62
ag62
ag62
ag62
ag62
asg63
(lp3088
g66
ag389
ag65
ag66
ag159
ag68
ag65
ag159
ag739
ag71
ag72
ag68
ag69
ag66
ag67
ag70
ag65
ag72
ag834
ag73
ag66
ag67
ag74
ag66
ag679
ag68
ag69
ag114
ag739
ag72
ag70
ag66
ag389
ag70
ag116
ag67
ag71
ag69
ag72
ag68
ag67
ag76
asg77
VThe three with the medals were like hunting-hawks; and I was not a hawk, although I might seem a hawk to those who had never hunted; they, the three, knew better and so we drifted apart.
p3089
sba(i__main__
Sentence
p3090
(dp3091
g17
I61
sg18
(lp3092
S'But'
p3093
aS'I'
p3094
aS'stayed'
p3095
aS'good'
p3096
aS'friends'
p3097
aS'with'
p3098
aS'the'
p3099
aS'boy'
p3100
aS'who'
p3101
aS'had'
p3102
aS'been'
p3103
aS'wounded'
p3104
aS'his'
p3105
aS'first'
p3106
aS'day'
p3107
aS'at'
p3108
aS'the'
p3109
aS'front'
p3110
aS','
p3111
aS'because'
p3112
aS'he'
p3113
aS'would'
p3114
aS'never'
p3115
aS'know'
p3116
aS'now'
p3117
aS'how'
p3118
aS'he'
p3119
aS'would'
p3120
aS'have'
p3121
aS'turned'
p3122
aS'out'
p3123
aS';'
p3124
aS'so'
p3125
aS'he'
p3126
aS'could'
p3127
aS'never'
p3128
aS'be'
p3129
aS'accepted'
p3130
aS'either'
p3131
aS','
p3132
aS'and'
p3133
aS'I'
p3134
aS'liked'
p3135
aS'him'
p3136
aS'because'
p3137
aS'I'
p3138
aS'thought'
p3139
aS'perhaps'
p3140
aS'he'
p3141
aS'would'
p3142
aS'not'
p3143
aS'have'
p3144
aS'turned'
p3145
aS'out'
p3146
aS'to'
p3147
aS'be'
p3148
aS'a'
p3149
aS'hawk'
p3150
aS'either'
p3151
aS'.'
p3152
asg39
(lp3153
VBut
p3154
ag719
aVstay
p3155
aVgood
p3156
aVfriend
p3157
aVwith
p3158
aVthe
p3159
aVboy
p3160
aVwho
p3161
ag1048
ag1164
aVwound
p3162
aVhis
p3163
aVfirst
p3164
aVday
p3165
aVat
p3166
aVthe
p3167
aVfront
p3168
ag49
aVbecause
p3169
aVhe
p3170
aVwould
p3171
aVnever
p3172
aVknow
p3173
aVnow
p3174
aVhow
p3175
aVhe
p3176
aVwould
p3177
aVhave
p3178
aVturn
p3179
aVout
p3180
ag2797
aVso
p3181
aVhe
p3182
aVcould
p3183
aVnever
p3184
aVbe
p3185
aVaccept
p3186
aVeither
p3187
ag49
aVand
p3188
ag719
aVlike
p3189
aVhim
p3190
aVbecause
p3191
ag719
aVthink
p3192
aVperhaps
p3193
aVhe
p3194
aVwould
p3195
aVnot
p3196
aVhave
p3197
aVturn
p3198
aVout
p3199
aVto
p3200
aVbe
p3201
ag291
aVhawk
p3202
aVeither
p3203
ag59
asg60
(lp3204
g62
ag62
ag62
ag62
ag62
ag62
ag62
ag62
ag62
ag62
ag62
ag62
ag62
ag62
ag62
ag62
ag62
ag62
ag62
ag62
ag62
ag62
ag62
ag62
ag62
ag62
ag62
ag62
ag62
ag62
ag62
ag62
ag62
ag62
ag62
ag62
ag62
ag62
ag62
ag62
ag62
ag62
ag62
ag62
ag62
ag62
ag62
ag62
ag62
ag62
ag62
ag62
ag62
ag62
ag62
ag62
ag62
ag62
ag62
ag62
asg63
(lp3205
g71
ag72
ag68
ag116
ag159
ag65
ag66
ag67
ag679
ag68
ag114
ag114
ag218
ag116
ag67
ag65
ag66
ag67
ag70
ag65
ag72
ag834
ag69
ag73
ag69
ag738
ag72
ag834
ag73
ag114
ag737
ag739
ag69
ag72
ag834
ag69
ag73
ag114
ag66
ag70
ag71
ag72
ag68
ag72
ag65
ag72
ag68
ag69
ag72
ag834
ag69
ag73
ag114
ag737
ag74
ag73
ag66
ag67
ag67
ag76
asg77
VBut I stayed good friends with the boy who had been wounded his first day at the front, because he would never know now how he would have turned out; so he could never be accepted either, and I liked him because I thought perhaps he would not have turned out to be a hawk either.
p3206
sba(i__main__
Sentence
p3207
(dp3208
g17
I62
sg18
(lp3209
S'The'
p3210
aS'major'
p3211
aS','
p3212
aS'who'
p3213
aS'had'
p3214
aS'been'
p3215
aS'a'
p3216
aS'great'
p3217
aS'fencer'
p3218
aS','
p3219
aS'did'
p3220
aS'not'
p3221
aS'believe'
p3222
aS'in'
p3223
aS'bravery'
p3224
aS','
p3225
aS'and'
p3226
aS'spent'
p3227
aS'much'
p3228
aS'time'
p3229
aS'while'
p3230
aS'we'
p3231
aS'sat'
p3232
aS'in'
p3233
aS'the'
p3234
aS'machines'
p3235
aS'correcting'
p3236
aS'my'
p3237
aS'grammar'
p3238
aS'.'
p3239
asg39
(lp3240
VThe
p3241
aVmajor
p3242
ag49
aVwho
p3243
ag1048
ag1164
ag291
aVgreat
p3244
aVfencer
p3245
ag49
ag52
aVnot
p3246
aVbelieve
p3247
aVin
p3248
aVbravery
p3249
ag49
aVand
p3250
aVspend
p3251
aVmuch
p3252
aVtime
p3253
aVwhile
p3254
aVwe
p3255
ag667
aVin
p3256
aVthe
p3257
aVmachine
p3258
aVcorrect
p3259
aVmy
p3260
aVgrammar
p3261
ag59
asg60
(lp3262
g62
ag62
ag62
ag62
ag62
ag62
ag62
ag62
ag62
ag62
ag62
ag62
ag62
ag62
ag62
ag62
ag62
ag62
ag62
ag62
ag62
ag62
ag62
ag62
ag62
ag62
ag62
ag62
ag62
ag62
asg63
(lp3263
g66
ag116
ag70
ag679
ag68
ag114
ag66
ag116
ag67
ag70
ag68
ag69
ag73
ag65
ag67
ag70
ag71
ag68
ag116
ag67
ag65
ag72
ag270
ag65
ag66
ag159
ag160
ag218
ag67
ag76
asg77
VThe major, who had been a great fencer, did not believe in bravery, and spent much time while we sat in the machines correcting my grammar.
p3264
sba(i__main__
Sentence
p3265
(dp3266
g17
I63
sg18
(lp3267
S'He'
p3268
aS'had'
p3269
aS'complimented'
p3270
aS'me'
p3271
aS'on'
p3272
aS'how'
p3273
aS'I'
p3274
aS'spoke'
p3275
aS'Italian'
p3276
aS','
p3277
aS'and'
p3278
aS'we'
p3279
aS'talked'
p3280
aS'together'
p3281
aS'very'
p3282
aS'easily'
p3283
aS'.'
p3284
asg39
(lp3285
VHe
p3286
ag1048
aVcompliment
p3287
aVme
p3288
aVon
p3289
aVhow
p3290
ag719
aVspeak
p3291
aVItalian
p3292
ag49
aVand
p3293
aVwe
p3294
aVtalk
p3295
aVtogether
p3296
aVvery
p3297
aVeasily
p3298
ag59
asg60
(lp3299
g62
ag62
ag62
ag62
ag62
ag62
ag62
ag62
ag62
ag62
ag62
ag62
ag62
ag62
ag62
ag62
ag62
asg63
(lp3300
g72
ag68
ag114
ag72
ag65
ag738
ag72
ag270
ag116
ag70
ag71
ag72
ag68
ag69
ag69
ag69
ag76
asg77
VHe had complimented me on how I spoke Italian, and we talked together very easily.
p3301
sba(i__main__
Sentence
p3302
(dp3303
g17
I64
sg18
(lp3304
S'One'
p3305
aS'day'
p3306
aS'I'
p3307
aS'had'
p3308
aS'said'
p3309
aS'that'
p3310
aS'Italian'
p3311
aS'seemed'
p3312
aS'such'
p3313
aS'an'
p3314
aS'easy'
p3315
aS'language'
p3316
aS'to'
p3317
aS'me'
p3318
aS'that'
p3319
aS'I'
p3320
aS'could'
p3321
aS'not'
p3322
aS'take'
p3323
aS'a'
p3324
aS'great'
p3325
aS'interest'
p3326
aS'in'
p3327
aS'it'
p3328
aS';'
p3329
aS'everything'
p3330
aS'was'
p3331
aS'so'
p3332
aS'easy'
p3333
aS'to'
p3334
aS'say'
p3335
aS'.'
p3336
asg39
(lp3337
VOne
p3338
aVday
p3339
ag719
ag1048
ag722
aVthat
p3340
aVItalian
p3341
aVseem
p3342
aVsuch
p3343
aVan
p3344
aVeasy
p3345
aVlanguage
p3346
aVto
p3347
aVme
p3348
aVthat
p3349
ag719
aVcould
p3350
aVnot
p3351
aVtake
p3352
ag291
aVgreat
p3353
aVinterest
p3354
aVin
p3355
aVit
p3356
ag2797
aVeverything
p3357
ag46
aVso
p3358
aVeasy
p3359
aVto
p3360
aVsay
p3361
ag59
asg60
(lp3362
g62
ag62
ag62
ag62
ag62
ag62
ag62
ag62
ag62
ag62
ag62
ag62
ag62
ag62
ag62
ag62
ag62
ag62
ag62
ag62
ag62
ag62
ag62
ag62
ag62
ag62
ag62
ag62
ag62
ag62
ag62
ag62
asg63
(lp3363
g389
ag67
ag72
ag68
ag114
ag65
ag116
ag68
ag116
ag66
ag116
ag67
ag74
ag72
ag65
ag72
ag834
ag69
ag73
ag66
ag116
ag67
ag65
ag72
ag739
ag160
ag68
ag69
ag116
ag74
ag73
ag76
asg77
VOne day I had said that Italian seemed such an easy language to me that I could not take a great interest in it; everything was so easy to say.
p3364
sba(i__main__
Sentence
p3365
(dp3366
g17
I65
sg18
(lp3367
S'``'
p3368
aS'Ah'
p3369
aS','
p3370
aS'yes'
p3371
aS','
p3372
aS"''"
p3373
aS'the'
p3374
aS'major'
p3375
aS'said'
p3376
aS'.'
p3377
asg39
(lp3378
V``
p3379
aVAh
p3380
ag49
aVyes
p3381
ag49
aV''
p3382
aVthe
p3383
aVmajor
p3384
ag722
ag59
asg60
(lp3385
g62
ag62
ag62
ag62
ag62
ag62
ag62
ag62
ag62
ag62
asg63
(lp3386
g740
ag115
ag70
ag2461
ag70
ag761
ag66
ag116
ag68
ag76
asg77
V"Ah, yes," the major said.
p3387
sba(i__main__
Sentence
p3388
(dp3389
g17
I66
sg18
(lp3390
S'``'
p3391
aS'Why'
p3392
aS','
p3393
aS'then'
p3394
aS','
p3395
aS'do'
p3396
aS'you'
p3397
aS'not'
p3398
aS'take'
p3399
aS'up'
p3400
aS'the'
p3401
aS'use'
p3402
aS'of'
p3403
aS'grammar'
p3404
aS'?'
p3405
aS"''"
p3406
asg39
(lp3407
V``
p3408
aVWhy
p3409
ag49
aVthen
p3410
ag49
aVdo
p3411
aVyou
p3412
aVnot
p3413
aVtake
p3414
aVup
p3415
aVthe
p3416
aVuse
p3417
aVof
p3418
aVgrammar
p3419
ag734
aV''
p3420
asg60
(lp3421
g62
ag62
ag62
ag62
ag62
ag62
ag62
ag62
ag62
ag62
ag62
ag62
ag62
ag62
ag62
ag62
asg63
(lp3422
g740
ag738
ag70
ag69
ag70
ag270
ag72
ag69
ag73
ag737
ag66
ag67
ag65
ag67
ag76
ag761
asg77
V"Why, then, do you not take up the use of grammar?"
p3423
sba(i__main__
Sentence
p3424
(dp3425
g17
I67
sg18
(lp3426
S'So'
p3427
aS'we'
p3428
aS'took'
p3429
aS'up'
p3430
aS'the'
p3431
aS'use'
p3432
aS'of'
p3433
aS'grammar'
p3434
aS','
p3435
aS'and'
p3436
aS'soon'
p3437
aS'Italian'
p3438
aS'was'
p3439
aS'such'
p3440
aS'a'
p3441
aS'difficult'
p3442
aS'language'
p3443
aS'that'
p3444
aS'I'
p3445
aS'was'
p3446
aS'afraid'
p3447
aS'to'
p3448
aS'talk'
p3449
aS'to'
p3450
aS'him'
p3451
aS'until'
p3452
aS'I'
p3453
aS'had'
p3454
aS'the'
p3455
aS'grammar'
p3456
aS'straight'
p3457
aS'in'
p3458
aS'my'
p3459
aS'mind'
p3460
aS'.'
p3461
asg39
(lp3462
VSo
p3463
aVwe
p3464
aVtake
p3465
aVup
p3466
aVthe
p3467
aVuse
p3468
aVof
p3469
aVgrammar
p3470
ag49
aVand
p3471
aVsoon
p3472
aVItalian
p3473
ag46
aVsuch
p3474
ag291
aVdifficult
p3475
aVlanguage
p3476
aVthat
p3477
ag719
ag46
aVafraid
p3478
aVto
p3479
aVtalk
p3480
aVto
p3481
aVhim
p3482
aVuntil
p3483
ag719
ag1048
aVthe
p3484
aVgrammar
p3485
aVstraight
p3486
aVin
p3487
aVmy
p3488
aVmind
p3489
ag59
asg60
(lp3490
g62
ag62
ag62
ag62
ag62
ag62
ag62
ag62
ag62
ag62
ag62
ag62
ag62
ag62
ag62
ag62
ag62
ag62
ag62
ag62
ag62
ag62
ag62
ag62
ag62
ag62
ag62
ag62
ag62
ag62
ag62
ag62
ag62
ag62
ag62
asg63
(lp3491
g65
ag72
ag68
ag737
ag66
ag67
ag65
ag67
ag70
ag71
ag69
ag116
ag68
ag116
ag66
ag67
ag67
ag65
ag72
ag68
ag116
ag74
ag73
ag74
ag72
ag65
ag72
ag68
ag66
ag67
ag67
ag65
ag218
ag67
ag76
asg77
VSo we took up the use of grammar, and soon Italian was such a difficult language that I was afraid to talk to him until I had the grammar straight in my mind.
p3492
sba(i__main__
Sentence
p3493
(dp3494
g17
I68
sg18
(lp3495
S'The'
p3496
aS'major'
p3497
aS'came'
p3498
aS'very'
p3499
aS'regularly'
p3500
aS'to'
p3501
aS'the'
p3502
aS'hospital'
p3503
aS'.'
p3504
asg39
(lp3505
VThe
p3506
aVmajor
p3507
aVcame
p3508
aVvery
p3509
aVregularly
p3510
aVto
p3511
aVthe
p3512
aVhospital
p3513
ag59
asg60
(lp3514
g62
ag62
ag62
ag62
ag62
ag62
ag62
ag62
ag62
asg63
(lp3515
g66
ag116
ag67
ag69
ag69
ag74
ag66
ag67
ag76
asg77
VThe major came very regularly to the hospital.
p3516
sba(i__main__
Sentence
p3517
(dp3518
g17
I69
sg18
(lp3519
S'I'
p3520
aS'do'
p3521
aS'not'
p3522
aS'think'
p3523
aS'he'
p3524
aS'ever'
p3525
aS'missed'
p3526
aS'a'
p3527
aS'day'
p3528
aS','
p3529
aS'although'
p3530
aS'I'
p3531
aS'am'
p3532
aS'sure'
p3533
aS'he'
p3534
aS'did'
p3535
aS'not'
p3536
aS'believe'
p3537
aS'in'
p3538
aS'the'
p3539
aS'machines'
p3540
aS'.'
p3541
asg39
(lp3542
g719
aVdo
p3543
aVnot
p3544
aVthink
p3545
aVhe
p3546
aVever
p3547
aVmiss
p3548
ag291
aVday
p3549
ag49
aValthough
p3550
ag719
aVbe
p3551
aVsure
p3552
aVhe
p3553
ag52
aVnot
p3554
aVbelieve
p3555
aVin
p3556
aVthe
p3557
aVmachine
p3558
ag59
asg60
(lp3559
g62
ag62
ag62
ag62
ag62
ag62
ag62
ag62
ag62
ag62
ag62
ag62
ag62
ag62
ag62
ag62
ag62
ag62
ag62
ag62
ag62
ag62
asg63
(lp3560
g72
ag270
ag69
ag73
ag72
ag69
ag114
ag66
ag67
ag70
ag65
ag72
ag270
ag116
ag72
ag68
ag69
ag73
ag65
ag66
ag159
ag76
asg77
VI do not think he ever missed a day, although I am sure he did not believe in the machines.
p3561
sba(i__main__
Sentence
p3562
(dp3563
g17
I70
sg18
(lp3564
S'There'
p3565
aS'was'
p3566
aS'a'
p3567
aS'time'
p3568
aS'when'
p3569
aS'none'
p3570
aS'of'
p3571
aS'us'
p3572
aS'believed'
p3573
aS'in'
p3574
aS'the'
p3575
aS'machines'
p3576
aS','
p3577
aS'and'
p3578
aS'one'
p3579
aS'day'
p3580
aS'the'
p3581
aS'major'
p3582
aS'said'
p3583
aS'it'
p3584
aS'was'
p3585
aS'all'
p3586
aS'nonsense'
p3587
aS'.'
p3588
asg39
(lp3589
VThere
p3590
ag46
ag291
aVtime
p3591
aVwhen
p3592
aVnone
p3593
aVof
p3594
ag1653
aVbelieve
p3595
aVin
p3596
aVthe
p3597
aVmachine
p3598
ag49
aVand
p3599
aVone
p3600
aVday
p3601
aVthe
p3602
aVmajor
p3603
ag722
aVit
p3604
ag46
aVall
p3605
aVnonsense
p3606
ag59
asg60
(lp3607
g62
ag62
ag62
ag62
ag62
ag62
ag62
ag62
ag62
ag62
ag62
ag62
ag62
ag62
ag62
ag62
ag62
ag62
ag62
ag62
ag62
ag62
ag62
ag62
asg63
(lp3608
g217
ag68
ag66
ag67
ag738
ag67
ag65
ag72
ag68
ag65
ag66
ag159
ag70
ag71
ag389
ag67
ag66
ag116
ag68
ag72
ag68
ag359
ag67
ag76
asg77
VThere was a time when none of us believed in the machines, and one day the major said it was all nonsense.
p3609
sba(i__main__
Sentence
p3610
(dp3611
g17
I71
sg18
(lp3612
S'The'
p3613
aS'machines'
p3614
aS'were'
p3615
aS'new'
p3616
aS'then'
p3617
aS'and'
p3618
aS'it'
p3619
aS'was'
p3620
aS'we'
p3621
aS'who'
p3622
aS'were'
p3623
aS'to'
p3624
aS'prove'
p3625
aS'them'
p3626
aS'.'
p3627
asg39
(lp3628
VThe
p3629
aVmachine
p3630
ag335
aVnew
p3631
aVthen
p3632
aVand
p3633
aVit
p3634
ag46
aVwe
p3635
aVwho
p3636
ag335
aVto
p3637
aVprove
p3638
aVthem
p3639
ag59
asg60
(lp3640
g62
ag62
ag62
ag62
ag62
ag62
ag62
ag62
ag62
ag62
ag62
ag62
ag62
ag62
ag62
asg63
(lp3641
g66
ag159
ag68
ag116
ag69
ag71
ag72
ag68
ag72
ag679
ag68
ag74
ag73
ag72
ag76
asg77
VThe machines were new then and it was we who were to prove them.
p3642
sba(i__main__
Sentence
p3643
(dp3644
g17
I72
sg18
(lp3645
S'It'
p3646
aS'was'
p3647
aS'an'
p3648
aS'idiotic'
p3649
aS'idea'
p3650
aS','
p3651
aS'he'
p3652
aS'said'
p3653
aS','
p3654
aS'``'
p3655
aS'a'
p3656
aS'theory'
p3657
aS'like'
p3658
aS'another'
p3659
aS"''"
p3660
aS'.'
p3661
asg39
(lp3662
VIt
p3663
ag46
aVan
p3664
aVidiotic
p3665
aVidea
p3666
ag49
aVhe
p3667
ag722
ag49
aV``
p3668
ag291
aVtheory
p3669
aVlike
p3670
aVanother
p3671
aV''
p3672
ag59
asg60
(lp3673
g62
ag62
ag62
ag62
ag62
ag62
ag62
ag62
ag62
ag62
ag62
ag62
ag62
ag62
ag62
ag62
asg63
(lp3674
g72
ag68
ag66
ag116
ag67
ag70
ag72
ag68
ag70
ag740
ag66
ag67
ag65
ag66
ag761
ag76
asg77
VIt was an idiotic idea, he said, "a theory like another".
p3675
sba(i__main__
Sentence
p3676
(dp3677
g17
I73
sg18
(lp3678
S'I'
p3679
aS'had'
p3680
aS'not'
p3681
aS'learned'
p3682
aS'my'
p3683
aS'grammar'
p3684
aS','
p3685
aS'and'
p3686
aS'he'
p3687
aS'said'
p3688
aS'I'
p3689
aS'was'
p3690
aS'a'
p3691
aS'stupid'
p3692
aS'impossible'
p3693
aS'disgrace'
p3694
aS','
p3695
aS'and'
p3696
aS'he'
p3697
aS'was'
p3698
aS'a'
p3699
aS'fool'
p3700
aS'to'
p3701
aS'have'
p3702
aS'bothered'
p3703
aS'with'
p3704
aS'me'
p3705
aS'.'
p3706
asg39
(lp3707
g719
ag1048
aVnot
p3708
aVlearn
p3709
aVmy
p3710
aVgrammar
p3711
ag49
aVand
p3712
aVhe
p3713
ag722
ag719
ag46
ag291
aVstupid
p3714
aVimpossible
p3715
aVdisgrace
p3716
ag49
aVand
p3717
aVhe
p3718
ag46
ag291
aVfool
p3719
aVto
p3720
aVhave
p3721
aVbother
p3722
aVwith
p3723
aVme
p3724
ag59
asg60
(lp3725
g62
ag62
ag62
ag62
ag62
ag62
ag62
ag62
ag62
ag62
ag62
ag62
ag62
ag62
ag62
ag62
ag62
ag62
ag62
ag62
ag62
ag62
ag62
ag62
ag62
ag62
ag62
ag62
asg63
(lp3726
g72
ag68
ag69
ag114
ag218
ag67
ag70
ag71
ag72
ag68
ag72
ag68
ag66
ag116
ag116
ag67
ag70
ag71
ag72
ag68
ag66
ag67
ag74
ag73
ag114
ag65
ag72
ag76
asg77
VI had not learned my grammar, and he said I was a stupid impossible disgrace, and he was a fool to have bothered with me.
p3727
sba(i__main__
Sentence
p3728
(dp3729
g17
I74
sg18
(lp3730
S'He'
p3731
aS'was'
p3732
aS'a'
p3733
aS'small'
p3734
aS'man'
p3735
aS'and'
p3736
aS'he'
p3737
aS'sat'
p3738
aS'straight'
p3739
aS'up'
p3740
aS'in'
p3741
aS'his'
p3742
aS'chair'
p3743
aS'with'
p3744
aS'his'
p3745
aS'right'
p3746
aS'hand'
p3747
aS'thrust'
p3748
aS'into'
p3749
aS'the'
p3750
aS'machine'
p3751
aS'and'
p3752
aS'looked'
p3753
aS'straight'
p3754
aS'ahead'
p3755
aS'at'
p3756
aS'the'
p3757
aS'wall'
p3758
aS'while'
p3759
aS'the'
p3760
aS'straps'
p3761
aS'thumbed'
p3762
aS'up'
p3763
aS'and'
p3764
aS'down'
p3765
aS'with'
p3766
aS'his'
p3767
aS'fingers'
p3768
aS'in'
p3769
aS'them'
p3770
aS'.'
p3771
asg39
(lp3772
VHe
p3773
ag46
ag291
aVsmall
p3774
aVman
p3775
aVand
p3776
aVhe
p3777
ag667
aVstraight
p3778
aVup
p3779
aVin
p3780
aVhis
p3781
aVchair
p3782
aVwith
p3783
aVhis
p3784
aVright
p3785
aVhand
p3786
aVthrust
p3787
aVinto
p3788
aVthe
p3789
aVmachine
p3790
aVand
p3791
aVlook
p3792
aVstraight
p3793
aVahead
p3794
aVat
p3795
aVthe
p3796
aVwall
p3797
aVwhile
p3798
aVthe
p3799
aVstrap
p3800
aVthumb
p3801
aVup
p3802
aVand
p3803
aVdown
p3804
aVwith
p3805
aVhis
p3806
aVfinger
p3807
aVin
p3808
aVthem
p3809
ag59
asg60
(lp3810
g62
ag62
ag62
ag62
ag62
ag62
ag62
ag62
ag62
ag62
ag62
ag62
ag62
ag62
ag62
ag62
ag62
ag62
ag62
ag62
ag62
ag62
ag62
ag62
ag62
ag62
ag62
ag62
ag62
ag62
ag62
ag62
ag62
ag62
ag62
ag62
ag62
ag62
ag62
ag62
ag62
asg63
(lp3811
g72
ag68
ag66
ag116
ag67
ag71
ag72
ag68
ag69
ag65
ag65
ag218
ag67
ag65
ag218
ag67
ag67
ag67
ag65
ag66
ag67
ag71
ag68
ag69
ag69
ag65
ag66
ag67
ag65
ag66
ag159
ag68
ag737
ag71
ag65
ag65
ag218
ag159
ag65
ag72
ag76
asg77
VHe was a small man and he sat straight up in his chair with his right hand thrust into the machine and looked straight ahead at the wall while the straps thumbed up and down with his fingers in them.
p3812
sba(i__main__
Sentence
p3813
(dp3814
g17
I75
sg18
(lp3815
S'``'
p3816
aS'What'
p3817
aS'will'
p3818
aS'you'
p3819
aS'do'
p3820
aS'when'
p3821
aS'the'
p3822
aS'was'
p3823
aS'is'
p3824
aS'over'
p3825
aS'if'
p3826
aS'it'
p3827
aS'is'
p3828
aS'over'
p3829
aS'?'
p3830
aS"''"
p3831
asg39
(lp3832
V``
p3833
aVWhat
p3834
aVwill
p3835
aVyou
p3836
aVdo
p3837
aVwhen
p3838
aVthe
p3839
ag46
aVbe
p3840
aVover
p3841
aVif
p3842
aVit
p3843
ag3840
aVover
p3844
ag734
aV''
p3845
asg60
(lp3846
g62
ag62
ag62
ag62
ag62
ag62
ag62
ag62
ag62
ag62
ag62
ag62
ag62
ag62
ag62
ag62
asg63
(lp3847
g740
ag679
ag834
ag72
ag73
ag738
ag66
ag68
ag2461
ag65
ag65
ag72
ag2461
ag65
ag76
ag761
asg77
V"What will you do when the was is over if it is over?"
p3848
sba(i__main__
Sentence
p3849
(dp3850
g17
I76
sg18
(lp3851
S'he'
p3852
aS'asked'
p3853
aS'me'
p3854
aS'.'
p3855
asg39
(lp3856
Vhe
p3857
aVask
p3858
aVme
p3859
ag59
asg60
(lp3860
g62
ag62
ag62
ag62
asg63
(lp3861
g72
ag68
ag72
ag76
asg77
Vhe asked me.
p3862
sba(i__main__
Sentence
p3863
(dp3864
g17
I77
sg18
(lp3865
S'``'
p3866
aS'Speak'
p3867
aS'grammatically'
p3868
aS'!'
p3869
aS"''"
p3870
asg39
(lp3871
V``
p3872
aVSpeak
p3873
aVgrammatically
p3874
ag1667
aV''
p3875
asg60
(lp3876
g62
ag62
ag62
ag62
ag62
asg63
(lp3877
g740
ag115
ag69
ag76
ag761
asg77
V"Speak grammatically!"
p3878
sba(i__main__
Sentence
p3879
(dp3880
g17
I78
sg18
(lp3881
S'``'
p3882
aS'I'
p3883
aS'will'
p3884
aS'go'
p3885
aS'to'
p3886
aS'the'
p3887
aS'States'
p3888
aS'.'
p3889
aS"''"
p3890
asg39
(lp3891
V``
p3892
ag719
aVwill
p3893
aVgo
p3894
aVto
p3895
aVthe
p3896
aVStates
p3897
ag59
aV''
p3898
asg60
(lp3899
g62
ag62
ag62
ag62
ag62
ag62
aVLOCATION
p3900
ag62
ag62
asg63
(lp3901
g740
ag72
ag834
ag73
ag74
ag66
aS'NNPS'
p3902
ag76
ag761
asg77
V"I will go to the States."
p3903
sba(i__main__
Sentence
p3904
(dp3905
g17
I79
sg18
(lp3906
S'``'
p3907
aS'Are'
p3908
aS'you'
p3909
aS'married'
p3910
aS'?'
p3911
aS"''"
p3912
asg39
(lp3913
V``
p3914
aVAre
p3915
aVyou
p3916
aVmarry
p3917
ag734
aV''
p3918
asg60
(lp3919
g62
ag62
ag62
ag62
ag62
ag62
asg63
(lp3920
g740
ag270
ag72
ag68
ag76
ag761
asg77
V"Are you married?"
p3921
sba(i__main__
Sentence
p3922
(dp3923
g17
I80
sg18
(lp3924
S'``'
p3925
aS'No'
p3926
aS','
p3927
aS'but'
p3928
aS'I'
p3929
aS'hope'
p3930
aS'to'
p3931
aS'be'
p3932
aS'.'
p3933
aS"''"
p3934
asg39
(lp3935
V``
p3936
aVNo
p3937
ag49
aVbut
p3938
ag719
aVhope
p3939
aVto
p3940
aVbe
p3941
ag59
aV''
p3942
asg60
(lp3943
g62
ag62
ag62
ag62
ag62
ag62
ag62
ag62
ag62
ag62
asg63
(lp3944
g740
ag66
ag70
ag71
ag72
ag270
ag74
ag73
ag76
ag761
asg77
V"No, but I hope to be."
p3945
sba(i__main__
Sentence
p3946
(dp3947
g17
I81
sg18
(lp3948
S'``'
p3949
aS'The'
p3950
aS'more'
p3951
aS'a'
p3952
aS'fool'
p3953
aS'you'
p3954
aS'are'
p3955
aS','
p3956
aS"''"
p3957
aS'he'
p3958
aS'said'
p3959
aS'.'
p3960
asg39
(lp3961
V``
p3962
aVThe
p3963
aVmore
p3964
ag291
aVfool
p3965
aVyou
p3966
ag989
ag49
aV''
p3967
aVhe
p3968
ag722
ag59
asg60
(lp3969
g62
ag62
ag62
ag62
ag62
ag62
ag62
ag62
ag62
ag62
ag62
ag62
asg63
(lp3970
g740
ag66
ag75
ag66
ag67
ag72
ag270
ag70
ag761
ag72
ag68
ag76
asg77
V"The more a fool you are," he said.
p3971
sba(i__main__
Sentence
p3972
(dp3973
g17
I82
sg18
(lp3974
S'He'
p3975
aS'seemed'
p3976
aS'very'
p3977
aS'angry'
p3978
aS'.'
p3979
asg39
(lp3980
VHe
p3981
aVseem
p3982
aVvery
p3983
aVangry
p3984
ag59
asg60
(lp3985
g62
ag62
ag62
ag62
ag62
asg63
(lp3986
g72
ag68
ag69
ag116
ag76
asg77
VHe seemed very angry.
p3987
sba(i__main__
Sentence
p3988
(dp3989
g17
I83
sg18
(lp3990
S'``'
p3991
aS'A'
p3992
aS'man'
p3993
aS'must'
p3994
aS'not'
p3995
aS'marry'
p3996
aS'.'
p3997
aS"''"
p3998
asg39
(lp3999
V``
p4000
ag1313
aVman
p4001
aVmust
p4002
aVnot
p4003
aVmarry
p4004
ag59
aV''
p4005
asg60
(lp4006
g62
ag62
ag62
ag62
ag62
ag62
ag62
ag62
asg63
(lp4007
g740
ag66
ag67
ag834
ag69
ag73
ag76
ag761
asg77
V"A man must not marry."
p4008
sba(i__main__
Sentence
p4009
(dp4010
g17
I84
sg18
(lp4011
S'``'
p4012
aS'Why'
p4013
aS','
p4014
aS'Signor'
p4015
aS'Maggiore'
p4016
aS'?'
p4017
aS"''"
p4018
asg39
(lp4019
V``
p4020
aVWhy
p4021
ag49
aVSignor
p4022
aVMaggiore
p4023
ag734
aV''
p4024
asg60
(lp4025
g62
ag62
ag62
aVPERSON
p4026
aVPERSON
p4027
ag62
ag62
asg63
(lp4028
g740
ag738
ag70
ag115
ag115
ag76
ag761
asg77
V"Why, Signor Maggiore?"
p4029
sba(i__main__
Sentence
p4030
(dp4031
g17
I85
sg18
(lp4032
S'``'
p4033
aS'Do'
p4034
aS"n't"
p4035
aS'call'
p4036
aS'me'
p4037
aS'Signor'
p4038
aS'Maggiore'
p4039
aS'.'
p4040
aS"''"
p4041
asg39
(lp4042
V``
p4043
aVDo
p4044
aVn't
p4045
aVcall
p4046
aVme
p4047
aVSignor
p4048
aVMaggiore
p4049
ag59
aV''
p4050
asg60
(lp4051
g62
ag62
ag62
ag62
ag62
aVPERSON
p4052
aVPERSON
p4053
ag62
ag62
asg63
(lp4054
g740
ag270
ag69
ag73
ag72
ag115
ag115
ag76
ag761
asg77
V"Don't call me Signor Maggiore."
p4055
sba(i__main__
Sentence
p4056
(dp4057
g17
I86
sg18
(lp4058
S'``'
p4059
aS'Why'
p4060
aS'must'
p4061
aS'not'
p4062
aS'a'
p4063
aS'man'
p4064
aS'marry'
p4065
aS'?'
p4066
aS"''"
p4067
asg39
(lp4068
V``
p4069
aVWhy
p4070
aVmust
p4071
aVnot
p4072
ag291
aVman
p4073
aVmarry
p4074
ag734
aV''
p4075
asg60
(lp4076
g62
ag62
ag62
ag62
ag62
ag62
ag62
ag62
ag62
asg63
(lp4077
g740
ag738
ag834
ag69
ag66
ag67
ag67
ag76
ag761
asg77
V"Why must not a man marry?"
p4078
sba(i__main__
Sentence
p4079
(dp4080
g17
I87
sg18
(lp4081
S'``'
p4082
aS'He'
p4083
aS'can'
p4084
aS'not'
p4085
aS'marry'
p4086
aS'.'
p4087
asg39
(lp4088
V``
p4089
aVHe
p4090
aVcan
p4091
aVnot
p4092
aVmarry
p4093
ag59
asg60
(lp4094
g62
ag62
ag62
ag62
ag62
ag62
asg63
(lp4095
g740
ag72
ag834
ag69
ag73
ag76
asg77
V"He cannot marry.
p4096
sba(i__main__
Sentence
p4097
(dp4098
g17
I88
sg18
(lp4099
S'He'
p4100
aS'can'
p4101
aS'not'
p4102
aS'marry'
p4103
aS','
p4104
aS"''"
p4105
aS'he'
p4106
aS'said'
p4107
aS'angrily'
p4108
aS'.'
p4109
asg39
(lp4110
VHe
p4111
aVcan
p4112
aVnot
p4113
aVmarry
p4114
ag49
aV''
p4115
aVhe
p4116
ag722
aVangrily
p4117
ag59
asg60
(lp4118
g62
ag62
ag62
ag62
ag62
ag62
ag62
ag62
ag62
ag62
asg63
(lp4119
g72
ag834
ag69
ag73
ag70
ag761
ag72
ag68
ag69
ag76
asg77
VHe cannot marry," he said angrily.
p4120
sba(i__main__
Sentence
p4121
(dp4122
g17
I89
sg18
(lp4123
S'``'
p4124
aS'If'
p4125
aS'he'
p4126
aS'is'
p4127
aS'to'
p4128
aS'lose'
p4129
aS'everything'
p4130
aS','
p4131
aS'he'
p4132
aS'should'
p4133
aS'not'
p4134
aS'place'
p4135
aS'himself'
p4136
aS'in'
p4137
aS'a'
p4138
aS'position'
p4139
aS'to'
p4140
aS'lose'
p4141
aS'that'
p4142
aS'.'
p4143
asg39
(lp4144
V``
p4145
aVIf
p4146
aVhe
p4147
ag3840
aVto
p4148
aVlose
p4149
aVeverything
p4150
ag49
aVhe
p4151
aVshould
p4152
aVnot
p4153
aVplace
p4154
aVhimself
p4155
aVin
p4156
ag291
aVposition
p4157
aVto
p4158
aVlose
p4159
aVthat
p4160
ag59
asg60
(lp4161
g62
ag62
ag62
ag62
ag62
ag62
ag62
ag62
ag62
ag62
ag62
ag62
ag62
ag62
ag62
ag62
ag62
ag62
ag62
ag62
asg63
(lp4162
g740
ag65
ag72
ag2461
ag74
ag73
ag67
ag70
ag72
ag834
ag69
ag73
ag72
ag65
ag66
ag67
ag74
ag73
ag65
ag76
asg77
V"If he is to lose everything, he should not place himself in a position to lose that.
p4163
sba(i__main__
Sentence
p4164
(dp4165
g17
I90
sg18
(lp4166
S'He'
p4167
aS'should'
p4168
aS'not'
p4169
aS'place'
p4170
aS'himself'
p4171
aS'in'
p4172
aS'a'
p4173
aS'position'
p4174
aS'to'
p4175
aS'lose'
p4176
aS'.'
p4177
asg39
(lp4178
VHe
p4179
aVshould
p4180
aVnot
p4181
aVplace
p4182
aVhimself
p4183
aVin
p4184
ag291
aVposition
p4185
aVto
p4186
aVlose
p4187
ag59
asg60
(lp4188
g62
ag62
ag62
ag62
ag62
ag62
ag62
ag62
ag62
ag62
ag62
asg63
(lp4189
g72
ag834
ag69
ag73
ag72
ag65
ag66
ag67
ag74
ag73
ag76
asg77
VHe should not place himself in a position to lose.
p4190
sba(i__main__
Sentence
p4191
(dp4192
g17
I91
sg18
(lp4193
S'He'
p4194
aS'should'
p4195
aS'find'
p4196
aS'things'
p4197
aS'he'
p4198
aS'can'
p4199
aS'not'
p4200
aS'lose'
p4201
aS'.'
p4202
aS"''"
p4203
asg39
(lp4204
VHe
p4205
aVshould
p4206
aVfind
p4207
aVthing
p4208
aVhe
p4209
aVcan
p4210
aVnot
p4211
aVlose
p4212
ag59
aV''
p4213
asg60
(lp4214
g62
ag62
ag62
ag62
ag62
ag62
ag62
ag62
ag62
ag62
asg63
(lp4215
g72
ag834
ag73
ag159
ag72
ag834
ag69
ag73
ag76
ag761
asg77
VHe should find things he cannot lose."
p4216
sba(i__main__
Sentence
p4217
(dp4218
g17
I92
sg18
(lp4219
S'He'
p4220
aS'spoke'
p4221
aS'very'
p4222
aS'angrily'
p4223
aS'and'
p4224
aS'bitterly'
p4225
aS','
p4226
aS'and'
p4227
aS'looked'
p4228
aS'straight'
p4229
aS'ahead'
p4230
aS'while'
p4231
aS'he'
p4232
aS'talked'
p4233
aS'.'
p4234
asg39
(lp4235
VHe
p4236
ag3291
aVvery
p4237
aVangrily
p4238
aVand
p4239
aVbitterly
p4240
ag49
aVand
p4241
aVlook
p4242
aVstraight
p4243
aVahead
p4244
aVwhile
p4245
aVhe
p4246
aVtalk
p4247
ag59
asg60
(lp4248
g62
ag62
ag62
ag62
ag62
ag62
ag62
ag62
ag62
ag62
ag62
ag62
ag62
ag62
ag62
asg63
(lp4249
g72
ag68
ag69
ag69
ag71
ag69
ag70
ag71
ag68
ag69
ag69
ag65
ag72
ag68
ag76
asg77
VHe spoke very angrily and bitterly, and looked straight ahead while he talked.
p4250
sba(i__main__
Sentence
p4251
(dp4252
g17
I93
sg18
(lp4253
S'``'
p4254
aS'But'
p4255
aS'why'
p4256
aS'should'
p4257
aS'he'
p4258
aS'necessarily'
p4259
aS'lose'
p4260
aS'it'
p4261
aS'?'
p4262
aS"''"
p4263
asg39
(lp4264
V``
p4265
aVBut
p4266
aVwhy
p4267
aVshould
p4268
aVhe
p4269
aVnecessarily
p4270
aVlose
p4271
aVit
p4272
ag734
aV''
p4273
asg60
(lp4274
g62
ag62
ag62
ag62
ag62
ag62
ag62
ag62
ag62
ag62
asg63
(lp4275
g740
ag71
ag738
ag834
ag72
ag69
ag73
ag72
ag76
ag761
asg77
V"But why should he necessarily lose it?"
p4276
sba(i__main__
Sentence
p4277
(dp4278
g17
I94
sg18
(lp4279
S'``'
p4280
aS'He'
p4281
aS"'ll"
p4282
aS'lose'
p4283
aS'it'
p4284
aS','
p4285
aS"''"
p4286
aS'the'
p4287
aS'major'
p4288
aS'said'
p4289
aS'.'
p4290
asg39
(lp4291
V``
p4292
aVHe
p4293
aV'll
p4294
aVlose
p4295
aVit
p4296
ag49
aV''
p4297
aVthe
p4298
aVmajor
p4299
ag722
ag59
asg60
(lp4300
g62
ag62
ag62
ag62
ag62
ag62
ag62
ag62
ag62
ag62
ag62
asg63
(lp4301
g740
ag72
ag834
ag73
ag72
ag70
ag761
ag66
ag116
ag68
ag76
asg77
V"He'll lose it," the major said.
p4302
sba(i__main__
Sentence
p4303
(dp4304
g17
I95
sg18
(lp4305
S'He'
p4306
aS'was'
p4307
aS'looking'
p4308
aS'at'
p4309
aS'the'
p4310
aS'wall'
p4311
aS'.'
p4312
asg39
(lp4313
VHe
p4314
ag46
aVlook
p4315
aVat
p4316
aVthe
p4317
aVwall
p4318
ag59
asg60
(lp4319
g62
ag62
ag62
ag62
ag62
ag62
ag62
asg63
(lp4320
g72
ag68
ag160
ag65
ag66
ag67
ag76
asg77
VHe was looking at the wall.
p4321
sba(i__main__
Sentence
p4322
(dp4323
g17
I96
sg18
(lp4324
S'Then'
p4325
aS'he'
p4326
aS'looked'
p4327
aS'down'
p4328
aS'at'
p4329
aS'the'
p4330
aS'machine'
p4331
aS'and'
p4332
aS'jerked'
p4333
aS'his'
p4334
aS'little'
p4335
aS'hand'
p4336
aS'out'
p4337
aS'from'
p4338
aS'between'
p4339
aS'the'
p4340
aS'straps'
p4341
aS'and'
p4342
aS'slapped'
p4343
aS'it'
p4344
aS'hard'
p4345
aS'against'
p4346
aS'his'
p4347
aS'thigh'
p4348
aS'.'
p4349
asg39
(lp4350
VThen
p4351
aVhe
p4352
aVlook
p4353
aVdown
p4354
aVat
p4355
aVthe
p4356
aVmachine
p4357
aVand
p4358
aVjerk
p4359
aVhis
p4360
aVlittle
p4361
aVhand
p4362
aVout
p4363
aVfrom
p4364
aVbetween
p4365
aVthe
p4366
aVstrap
p4367
aVand
p4368
aVslap
p4369
aVit
p4370
aVhard
p4371
aVagainst
p4372
aVhis
p4373
aVthigh
p4374
ag59
asg60
(lp4375
g62
ag62
ag62
ag62
ag62
ag62
ag62
ag62
ag62
ag62
ag62
ag62
ag62
ag62
ag62
ag62
ag62
ag62
ag62
ag62
ag62
ag62
ag62
ag62
ag62
asg63
(lp4376
g69
ag72
ag68
ag737
ag65
ag66
ag67
ag71
ag68
ag218
ag116
ag67
ag65
ag65
ag65
ag66
ag159
ag71
ag68
ag72
ag69
ag65
ag218
ag67
ag76
asg77
VThen he looked down at the machine and jerked his little hand out from between the straps and slapped it hard against his thigh.
p4377
sba(i__main__
Sentence
p4378
(dp4379
g17
I97
sg18
(lp4380
S'``'
p4381
aS'He'
p4382
aS"'ll"
p4383
aS'lose'
p4384
aS'it'
p4385
aS','
p4386
aS"''"
p4387
aS'he'
p4388
aS'almost'
p4389
aS'shouted'
p4390
aS'.'
p4391
asg39
(lp4392
V``
p4393
aVHe
p4394
aV'll
p4395
aVlose
p4396
aVit
p4397
ag49
aV''
p4398
aVhe
p4399
aValmost
p4400
aVshout
p4401
ag59
asg60
(lp4402
g62
ag62
ag62
ag62
ag62
ag62
ag62
ag62
ag62
ag62
ag62
asg63
(lp4403
g740
ag72
ag834
ag73
ag72
ag70
ag761
ag72
ag69
ag68
ag76
asg77
V"He'll lose it," he almost shouted.
p4404
sba(i__main__
Sentence
p4405
(dp4406
g17
I98
sg18
(lp4407
S'``'
p4408
aS'Do'
p4409
aS"n't"
p4410
aS'argue'
p4411
aS'with'
p4412
aS'me'
p4413
aS'!'
p4414
aS"''"
p4415
asg39
(lp4416
V``
p4417
aVDo
p4418
aVn't
p4419
aVargue
p4420
aVwith
p4421
aVme
p4422
ag1667
aV''
p4423
asg60
(lp4424
g62
ag62
ag62
ag62
ag62
ag62
ag62
ag62
asg63
(lp4425
g740
ag270
ag69
ag73
ag65
ag72
ag76
ag761
asg77
V"Don't argue with me!"
p4426
sba(i__main__
Sentence
p4427
(dp4428
g17
I99
sg18
(lp4429
S'Then'
p4430
aS'he'
p4431
aS'called'
p4432
aS'to'
p4433
aS'the'
p4434
aS'attendant'
p4435
aS'who'
p4436
aS'ran'
p4437
aS'the'
p4438
aS'machines'
p4439
aS'.'
p4440
asg39
(lp4441
VThen
p4442
aVhe
p4443
aVcall
p4444
aVto
p4445
aVthe
p4446
aVattendant
p4447
aVwho
p4448
aVrun
p4449
aVthe
p4450
aVmachine
p4451
ag59
asg60
(lp4452
g62
ag62
ag62
ag62
ag62
ag62
ag62
ag62
ag62
ag62
ag62
asg63
(lp4453
g69
ag72
ag68
ag74
ag66
ag67
ag679
ag68
ag66
ag159
ag76
asg77
VThen he called to the attendant who ran the machines.
p4454
sba(i__main__
Sentence
p4455
(dp4456
g17
I100
sg18
(lp4457
S'``'
p4458
aS'Come'
p4459
aS'and'
p4460
aS'turn'
p4461
aS'this'
p4462
aS'damned'
p4463
aS'thing'
p4464
aS'off'
p4465
aS'.'
p4466
aS"''"
p4467
asg39
(lp4468
V``
p4469
aVCome
p4470
aVand
p4471
aVturn
p4472
aVthis
p4473
aVdamn
p4474
aVthing
p4475
aVoff
p4476
ag59
aV''
p4477
asg60
(lp4478
g62
ag62
ag62
ag62
ag62
ag62
ag62
ag62
ag62
ag62
asg63
(lp4479
g740
ag115
ag71
ag73
ag66
ag114
ag67
ag737
ag76
ag761
asg77
V"Come and turn this damned thing off."
p4480
sba(i__main__
Sentence
p4481
(dp4482
g17
I101
sg18
(lp4483
S'He'
p4484
aS'went'
p4485
aS'back'
p4486
aS'into'
p4487
aS'the'
p4488
aS'other'
p4489
aS'room'
p4490
aS'for'
p4491
aS'the'
p4492
aS'light'
p4493
aS'treatment'
p4494
aS'and'
p4495
aS'the'
p4496
aS'massage'
p4497
aS'.'
p4498
asg39
(lp4499
VHe
p4500
ag1232
aVback
p4501
aVinto
p4502
aVthe
p4503
aVother
p4504
aVroom
p4505
aVfor
p4506
aVthe
p4507
aVlight
p4508
aVtreatment
p4509
aVand
p4510
aVthe
p4511
aVmassage
p4512
ag59
asg60
(lp4513
g62
ag62
ag62
ag62
ag62
ag62
ag62
ag62
ag62
ag62
ag62
ag62
ag62
ag62
ag62
asg63
(lp4514
g72
ag68
ag69
ag65
ag66
ag116
ag67
ag65
ag66
ag116
ag67
ag71
ag66
ag67
ag76
asg77
VHe went back into the other room for the light treatment and the massage.
p4515
sba(i__main__
Sentence
p4516
(dp4517
g17
I102
sg18
(lp4518
S'Then'
p4519
aS'I'
p4520
aS'heard'
p4521
aS'him'
p4522
aS'ask'
p4523
aS'the'
p4524
aS'doctor'
p4525
aS'if'
p4526
aS'he'
p4527
aS'might'
p4528
aS'use'
p4529
aS'his'
p4530
aS'telephone'
p4531
aS'and'
p4532
aS'he'
p4533
aS'shut'
p4534
aS'the'
p4535
aS'door'
p4536
aS'.'
p4537
asg39
(lp4538
VThen
p4539
ag719
aVhear
p4540
aVhim
p4541
aVask
p4542
aVthe
p4543
aVdoctor
p4544
aVif
p4545
aVhe
p4546
aVmight
p4547
aVuse
p4548
aVhis
p4549
aVtelephone
p4550
aVand
p4551
aVhe
p4552
aVshut
p4553
aVthe
p4554
aVdoor
p4555
ag59
asg60
(lp4556
g62
ag62
ag62
ag62
ag62
ag62
ag62
ag62
ag62
ag62
ag62
ag62
ag62
ag62
ag62
ag62
ag62
ag62
ag62
asg63
(lp4557
g69
ag72
ag270
ag72
ag270
ag66
ag67
ag65
ag72
ag834
ag73
ag218
ag67
ag71
ag72
ag68
ag66
ag67
ag76
asg77
VThen I heard him ask the doctor if he might use his telephone and he shut the door.
p4558
sba(i__main__
Sentence
p4559
(dp4560
g17
I103
sg18
(lp4561
S'When'
p4562
aS'he'
p4563
aS'came'
p4564
aS'back'
p4565
aS'into'
p4566
aS'the'
p4567
aS'room'
p4568
aS','
p4569
aS'I'
p4570
aS'was'
p4571
aS'sitting'
p4572
aS'in'
p4573
aS'another'
p4574
aS'machine'
p4575
aS'.'
p4576
asg39
(lp4577
VWhen
p4578
aVhe
p4579
ag145
aVback
p4580
aVinto
p4581
aVthe
p4582
aVroom
p4583
ag49
ag719
ag46
ag720
aVin
p4584
aVanother
p4585
aVmachine
p4586
ag59
asg60
(lp4587
g62
ag62
ag62
ag62
ag62
ag62
ag62
ag62
ag62
ag62
ag62
ag62
ag62
ag62
ag62
asg63
(lp4588
g738
ag72
ag68
ag69
ag65
ag66
ag67
ag70
ag72
ag68
ag160
ag65
ag66
ag67
ag76
asg77
VWhen he came back into the room, I was sitting in another machine.
p4589
sba(i__main__
Sentence
p4590
(dp4591
g17
I104
sg18
(lp4592
S'He'
p4593
aS'was'
p4594
aS'wearing'
p4595
aS'his'
p4596
aS'cape'
p4597
aS'and'
p4598
aS'had'
p4599
aS'his'
p4600
aS'cap'
p4601
aS'on'
p4602
aS','
p4603
aS'and'
p4604
aS'he'
p4605
aS'came'
p4606
aS'directly'
p4607
aS'toward'
p4608
aS'my'
p4609
aS'machine'
p4610
aS'and'
p4611
aS'put'
p4612
aS'his'
p4613
aS'arm'
p4614
aS'on'
p4615
aS'my'
p4616
aS'shoulder'
p4617
aS'.'
p4618
asg39
(lp4619
VHe
p4620
ag46
aVwear
p4621
aVhis
p4622
aVcape
p4623
aVand
p4624
ag1048
aVhis
p4625
aVcap
p4626
aVon
p4627
ag49
aVand
p4628
aVhe
p4629
ag145
aVdirectly
p4630
aVtoward
p4631
aVmy
p4632
aVmachine
p4633
aVand
p4634
aVput
p4635
aVhis
p4636
aVarm
p4637
aVon
p4638
aVmy
p4639
aVshoulder
p4640
ag59
asg60
(lp4641
g62
ag62
ag62
ag62
ag62
ag62
ag62
ag62
ag62
ag62
ag62
ag62
ag62
ag62
ag62
ag62
ag62
ag62
ag62
ag62
ag62
ag62
ag62
ag62
ag62
ag62
asg63
(lp4642
g72
ag68
ag160
ag218
ag67
ag71
ag68
ag218
ag67
ag65
ag70
ag71
ag72
ag68
ag69
ag65
ag218
ag67
ag71
ag68
ag218
ag67
ag65
ag218
ag67
ag76
asg77
VHe was wearing his cape and had his cap on, and he came directly toward my machine and put his arm on my shoulder.
p4643
sba(i__main__
Sentence
p4644
(dp4645
g17
I105
sg18
(lp4646
S'``'
p4647
aS'I'
p4648
aS'am'
p4649
aS'sorry'
p4650
aS','
p4651
aS"''"
p4652
aS'he'
p4653
aS'said'
p4654
aS','
p4655
aS'and'
p4656
aS'patted'
p4657
aS'me'
p4658
aS'on'
p4659
aS'the'
p4660
aS'shoulder'
p4661
aS'with'
p4662
aS'his'
p4663
aS'good'
p4664
aS'hand'
p4665
aS'.'
p4666
asg39
(lp4667
V``
p4668
ag719
ag3551
aVsorry
p4669
ag49
aV''
p4670
aVhe
p4671
ag722
ag49
aVand
p4672
aVpat
p4673
aVme
p4674
aVon
p4675
aVthe
p4676
aVshoulder
p4677
aVwith
p4678
aVhis
p4679
aVgood
p4680
aVhand
p4681
ag59
asg60
(lp4682
g62
ag62
ag62
ag62
ag62
ag62
ag62
ag62
ag62
ag62
ag62
ag62
ag62
ag62
ag62
ag62
ag62
ag62
ag62
ag62
asg63
(lp4683
g740
ag72
ag270
ag116
ag70
ag761
ag72
ag68
ag70
ag71
ag68
ag72
ag65
ag66
ag67
ag65
ag218
ag116
ag67
ag76
asg77
V"I am sorry," he said, and patted me on the shoulder with his good hand.
p4684
sba(i__main__
Sentence
p4685
(dp4686
g17
I106
sg18
(lp4687
S'``'
p4688
aS'I'
p4689
aS'would'
p4690
aS'not'
p4691
aS'be'
p4692
aS'rude'
p4693
aS'.'
p4694
asg39
(lp4695
V``
p4696
ag719
aVwould
p4697
aVnot
p4698
aVbe
p4699
aVrude
p4700
ag59
asg60
(lp4701
g62
ag62
ag62
ag62
ag62
ag62
ag62
asg63
(lp4702
g740
ag72
ag834
ag69
ag73
ag114
ag76
asg77
V"I would not be rude.
p4703
sba(i__main__
Sentence
p4704
(dp4705
g17
I107
sg18
(lp4706
S'My'
p4707
aS'wife'
p4708
aS'has'
p4709
aS'just'
p4710
aS'died'
p4711
aS'.'
p4712
asg39
(lp4713
VMy
p4714
aVwife
p4715
aVhave
p4716
aVjust
p4717
aVdie
p4718
ag59
asg60
(lp4719
g62
ag62
ag62
ag62
ag62
ag62
asg63
(lp4720
g218
ag67
ag2461
ag69
ag114
ag76
asg77
VMy wife has just died.
p4721
sba(i__main__
Sentence
p4722
(dp4723
g17
I108
sg18
(lp4724
S'You'
p4725
aS'must'
p4726
aS'forgive'
p4727
aS'me'
p4728
aS'.'
p4729
aS"''"
p4730
asg39
(lp4731
VYou
p4732
aVmust
p4733
aVforgive
p4734
aVme
p4735
ag59
aV''
p4736
asg60
(lp4737
g62
ag62
ag62
ag62
ag62
ag62
asg63
(lp4738
g72
ag834
ag73
ag72
ag76
ag761
asg77
VYou must forgive me."
p4739
sba(i__main__
Sentence
p4740
(dp4741
g17
I109
sg18
(lp4742
S'``'
p4743
aS'Oh-'
p4744
aS"''"
p4745
aS'I'
p4746
aS'said'
p4747
aS','
p4748
aS'feeling'
p4749
aS'sick'
p4750
aS'for'
p4751
aS'him'
p4752
aS'.'
p4753
asg39
(lp4754
V``
p4755
aVOh-
p4756
aV''
p4757
ag719
ag722
ag49
aVfeeling
p4758
aVsick
p4759
aVfor
p4760
aVhim
p4761
ag59
asg60
(lp4762
g62
ag62
ag62
ag62
ag62
ag62
ag62
ag62
ag62
ag62
ag62
asg63
(lp4763
g740
ag116
ag761
ag72
ag68
ag70
ag67
ag67
ag65
ag72
ag76
asg77
V"Oh-" I said, feeling sick for him.
p4764
sba(i__main__
Sentence
p4765
(dp4766
g17
I110
sg18
(lp4767
S'``'
p4768
aS'I'
p4769
aS'am'
p4770
aS'so'
p4771
aS'sorry'
p4772
aS'.'
p4773
aS"''"
p4774
asg39
(lp4775
V``
p4776
ag719
ag3551
aVso
p4777
aVsorry
p4778
ag59
aV''
p4779
asg60
(lp4780
g62
ag62
ag62
ag62
ag62
ag62
ag62
asg63
(lp4781
g740
ag72
ag270
ag69
ag116
ag76
ag761
asg77
V"I am so sorry."
p4782
sba(i__main__
Sentence
p4783
(dp4784
g17
I111
sg18
(lp4785
S'He'
p4786
aS'stood'
p4787
aS'there'
p4788
aS'biting'
p4789
aS'his'
p4790
aS'lower'
p4791
aS'lip'
p4792
aS'.'
p4793
asg39
(lp4794
VHe
p4795
aVstand
p4796
aVthere
p4797
aVbite
p4798
aVhis
p4799
aVlow
p4800
aVlip
p4801
ag59
asg60
(lp4802
g62
ag62
ag62
ag62
ag62
ag62
ag62
ag62
asg63
(lp4803
g72
ag68
ag69
ag160
ag218
ag1263
ag67
ag76
asg77
VHe stood there biting his lower lip.
p4804
sba(i__main__
Sentence
p4805
(dp4806
g17
I112
sg18
(lp4807
S'``'
p4808
aS'It'
p4809
aS'is'
p4810
aS'very'
p4811
aS'difficult'
p4812
aS','
p4813
aS"''"
p4814
aS'he'
p4815
aS'said'
p4816
aS'.'
p4817
asg39
(lp4818
V``
p4819
aVIt
p4820
ag3840
aVvery
p4821
aVdifficult
p4822
ag49
aV''
p4823
aVhe
p4824
ag722
ag59
asg60
(lp4825
g62
ag62
ag62
ag62
ag62
ag62
ag62
ag62
ag62
ag62
asg63
(lp4826
g740
ag72
ag2461
ag69
ag116
ag70
ag761
ag72
ag68
ag76
asg77
V"It is very difficult," he said.
p4827
sba(i__main__
Sentence
p4828
(dp4829
g17
I113
sg18
(lp4830
S'``'
p4831
aS'I'
p4832
aS'can'
p4833
aS'not'
p4834
aS'resign'
p4835
aS'myself'
p4836
aS'.'
p4837
aS"''"
p4838
asg39
(lp4839
V``
p4840
ag719
aVcan
p4841
aVnot
p4842
aVresign
p4843
aVmyself
p4844
ag59
aV''
p4845
asg60
(lp4846
g62
ag62
ag62
ag62
ag62
ag62
ag62
ag62
asg63
(lp4847
g740
ag72
ag834
ag69
ag73
ag72
ag76
ag761
asg77
V"I cannot resign myself."
p4848
sba(i__main__
Sentence
p4849
(dp4850
g17
I114
sg18
(lp4851
S'He'
p4852
aS'looked'
p4853
aS'straight'
p4854
aS'past'
p4855
aS'me'
p4856
aS'and'
p4857
aS'out'
p4858
aS'through'
p4859
aS'the'
p4860
aS'window'
p4861
aS'.'
p4862
asg39
(lp4863
VHe
p4864
aVlook
p4865
aVstraight
p4866
aVpast
p4867
aVme
p4868
aVand
p4869
aVout
p4870
aVthrough
p4871
aVthe
p4872
aVwindow
p4873
ag59
asg60
(lp4874
g62
ag62
ag62
ag62
ag62
ag62
ag62
ag62
ag62
ag62
ag62
asg63
(lp4875
g72
ag68
ag69
ag116
ag72
ag71
ag65
ag65
ag66
ag67
ag76
asg77
VHe looked straight past me and out through the window.
p4876
sba(i__main__
Sentence
p4877
(dp4878
g17
I115
sg18
(lp4879
S'Then'
p4880
aS'he'
p4881
aS'began'
p4882
aS'to'
p4883
aS'cry'
p4884
aS'.'
p4885
asg39
(lp4886
VThen
p4887
aVhe
p4888
aVbegin
p4889
aVto
p4890
aVcry
p4891
ag59
asg60
(lp4892
g62
ag62
ag62
ag62
ag62
ag62
asg63
(lp4893
g69
ag72
ag68
ag74
ag67
ag76
asg77
VThen he began to cry.
p4894
sba(i__main__
Sentence
p4895
(dp4896
g17
I116
sg18
(lp4897
S'``'
p4898
aS'I'
p4899
aS'am'
p4900
aS'utterly'
p4901
aS'unable'
p4902
aS'to'
p4903
aS'resign'
p4904
aS'myself'
p4905
aS','
p4906
aS"''"
p4907
aS'he'
p4908
aS'said'
p4909
aS'and'
p4910
aS'choked'
p4911
aS'.'
p4912
asg39
(lp4913
V``
p4914
ag719
ag3551
aVutterly
p4915
aVunable
p4916
aVto
p4917
aVresign
p4918
aVmyself
p4919
ag49
aV''
p4920
aVhe
p4921
ag722
aVand
p4922
aVchoke
p4923
ag59
asg60
(lp4924
g62
ag62
ag62
ag62
ag62
ag62
ag62
ag62
ag62
ag62
ag62
ag62
ag62
ag62
ag62
asg63
(lp4925
g740
ag72
ag270
ag69
ag116
ag74
ag73
ag72
ag70
ag761
ag72
ag68
ag71
ag114
ag76
asg77
V"I am utterly unable to resign myself," he said and choked.
p4926
sba(i__main__
Sentence
p4927
(dp4928
g17
I117
sg18
(lp4929
S'And'
p4930
aS'then'
p4931
aS'crying'
p4932
aS','
p4933
aS'his'
p4934
aS'head'
p4935
aS'up'
p4936
aS'looking'
p4937
aS'at'
p4938
aS'nothing'
p4939
aS','
p4940
aS'carrying'
p4941
aS'himself'
p4942
aS'straight'
p4943
aS'and'
p4944
aS'soldierly'
p4945
aS','
p4946
aS'with'
p4947
aS'tears'
p4948
aS'on'
p4949
aS'both'
p4950
aS'cheeks'
p4951
aS'and'
p4952
aS'biting'
p4953
aS'his'
p4954
aS'lips'
p4955
aS','
p4956
aS'he'
p4957
aS'walked'
p4958
aS'past'
p4959
aS'the'
p4960
aS'machines'
p4961
aS'and'
p4962
aS'out'
p4963
aS'the'
p4964
aS'door'
p4965
aS'.'
p4966
asg39
(lp4967
VAnd
p4968
aVthen
p4969
aVcry
p4970
ag49
aVhis
p4971
aVhead
p4972
aVup
p4973
aVlook
p4974
aVat
p4975
aVnothing
p4976
ag49
aVcarry
p4977
aVhimself
p4978
aVstraight
p4979
aVand
p4980
aVsoldierly
p4981
ag49
aVwith
p4982
aVtear
p4983
aVon
p4984
aVboth
p4985
aVcheek
p4986
aVand
p4987
aVbite
p4988
aVhis
p4989
aVlip
p4990
ag49
aVhe
p4991
aVwalk
p4992
aVpast
p4993
aVthe
p4994
aVmachine
p4995
aVand
p4996
aVout
p4997
aVthe
p4998
aVdoor
p4999
ag59
asg60
(lp5000
g62
ag62
ag62
ag62
ag62
ag62
ag62
ag62
ag62
ag62
ag62
ag62
ag62
ag62
ag62
ag62
ag62
ag62
ag62
ag62
ag62
ag62
ag62
ag62
ag62
ag62
ag62
ag62
ag62
ag62
ag62
ag62
ag62
ag62
ag62
ag62
ag62
asg63
(lp5001
g71
ag69
ag160
ag70
ag218
ag67
ag65
ag160
ag65
ag67
ag70
ag160
ag72
ag69
ag71
ag69
ag70
ag65
ag159
ag65
ag66
ag159
ag71
ag160
ag218
ag159
ag70
ag72
ag68
ag116
ag66
ag159
ag71
ag65
ag66
ag67
ag76
asg77
VAnd then crying, his head up looking at nothing, carrying himself straight and soldierly, with tears on both cheeks and biting his lips, he walked past the machines and out the door.
p5002
sba(i__main__
Sentence
p5003
(dp5004
g17
I118
sg18
(lp5005
S'The'
p5006
aS'doctor'
p5007
aS'told'
p5008
aS'me'
p5009
aS'that'
p5010
aS'the'
p5011
aS'major'
p5012
aS"'s"
p5013
aS'wife'
p5014
aS','
p5015
aS'who'
p5016
aS'was'
p5017
aS'very'
p5018
aS'young'
p5019
aS'and'
p5020
aS'whom'
p5021
aS'he'
p5022
aS'had'
p5023
aS'not'
p5024
aS'married'
p5025
aS'until'
p5026
aS'he'
p5027
aS'was'
p5028
aS'definitely'
p5029
aS'invalided'
p5030
aS'out'
p5031
aS'of'
p5032
aS'the'
p5033
aS'war'
p5034
aS','
p5035
aS'had'
p5036
aS'died'
p5037
aS'of'
p5038
aS'pneumonia'
p5039
aS'.'
p5040
asg39
(lp5041
VThe
p5042
aVdoctor
p5043
aVtell
p5044
aVme
p5045
aVthat
p5046
aVthe
p5047
aVmajor
p5048
aV's
p5049
aVwife
p5050
ag49
aVwho
p5051
ag46
aVvery
p5052
aVyoung
p5053
aVand
p5054
aVwhom
p5055
aVhe
p5056
ag1048
aVnot
p5057
ag3917
aVuntil
p5058
aVhe
p5059
ag46
aVdefinitely
p5060
aVinvalid
p5061
aVout
p5062
aVof
p5063
aVthe
p5064
aVwar
p5065
ag49
ag1048
aVdie
p5066
aVof
p5067
aVpneumonia
p5068
ag59
asg60
(lp5069
g62
ag62
ag62
ag62
ag62
ag62
ag62
ag62
ag62
ag62
ag62
ag62
ag62
ag62
ag62
ag62
ag62
ag62
ag62
ag62
ag62
ag62
ag62
ag62
ag62
ag62
ag62
ag62
ag62
ag62
ag62
ag62
ag62
ag62
ag62
asg63
(lp5070
g66
ag67
ag68
ag72
ag65
ag66
ag116
ag1056
ag67
ag70
ag679
ag68
ag69
ag116
ag71
ag679
ag72
ag68
ag69
ag114
ag65
ag72
ag68
ag69
ag114
ag737
ag65
ag66
ag67
ag70
ag68
ag114
ag65
ag67
ag76
asg77
VThe doctor told me that the major's wife, who was very young and whom he had not married until he was definitely invalided out of the war, had died of pneumonia.
p5071
sba(i__main__
Sentence
p5072
(dp5073
g17
I119
sg18
(lp5074
S'She'
p5075
aS'had'
p5076
aS'been'
p5077
aS'sick'
p5078
aS'only'
p5079
aS'a'
p5080
aS'few'
p5081
aS'days'
p5082
aS'.'
p5083
asg39
(lp5084
VShe
p5085
ag1048
ag1164
aVsick
p5086
aVonly
p5087
ag291
aVfew
p5088
aVday
p5089
ag59
asg60
(lp5090
g62
ag62
ag62
ag62
ag62
ag62
ag62
ag62
ag62
asg63
(lp5091
g72
ag68
ag114
ag116
ag69
ag66
ag116
ag159
ag76
asg77
VShe had been sick only a few days.
p5092
sba(i__main__
Sentence
p5093
(dp5094
g17
I120
sg18
(lp5095
S'No'
p5096
aS'one'
p5097
aS'expected'
p5098
aS'her'
p5099
aS'to'
p5100
aS'die'
p5101
aS'.'
p5102
asg39
(lp5103
VNo
p5104
aVone
p5105
aVexpect
p5106
aVher
p5107
aVto
p5108
aVdie
p5109
ag59
asg60
(lp5110
g62
ag62
ag62
ag62
ag62
ag62
ag62
asg63
(lp5111
g66
ag67
ag114
ag218
ag74
ag73
ag76
asg77
VNo one expected her to die.
p5112
sba(i__main__
Sentence
p5113
(dp5114
g17
I121
sg18
(lp5115
S'The'
p5116
aS'major'
p5117
aS'did'
p5118
aS'not'
p5119
aS'come'
p5120
aS'to'
p5121
aS'the'
p5122
aS'hospital'
p5123
aS'for'
p5124
aS'three'
p5125
aS'days'
p5126
aS'.'
p5127
asg39
(lp5128
VThe
p5129
aVmajor
p5130
ag52
aVnot
p5131
aVcome
p5132
aVto
p5133
aVthe
p5134
aVhospital
p5135
aVfor
p5136
aVthree
p5137
aVday
p5138
ag59
asg60
(lp5139
g62
ag62
ag62
ag62
ag62
ag62
ag62
ag62
ag62
ag62
ag62
ag62
asg63
(lp5140
g66
ag116
ag68
ag69
ag114
ag74
ag66
ag67
ag65
ag389
ag159
ag76
asg77
VThe major did not come to the hospital for three days.
p5141
sba(i__main__
Sentence
p5142
(dp5143
g17
I122
sg18
(lp5144
S'Then'
p5145
aS'he'
p5146
aS'came'
p5147
aS'at'
p5148
aS'the'
p5149
aS'usual'
p5150
aS'hour'
p5151
aS','
p5152
aS'wearing'
p5153
aS'a'
p5154
aS'black'
p5155
aS'band'
p5156
aS'on'
p5157
aS'the'
p5158
aS'sleeve'
p5159
aS'of'
p5160
aS'his'
p5161
aS'uniform'
p5162
aS'.'
p5163
asg39
(lp5164
VThen
p5165
aVhe
p5166
ag145
aVat
p5167
aVthe
p5168
aVusual
p5169
aVhour
p5170
ag49
aVwear
p5171
ag291
aVblack
p5172
aVband
p5173
aVon
p5174
aVthe
p5175
aVsleeve
p5176
aVof
p5177
aVhis
p5178
aVuniform
p5179
ag59
asg60
(lp5180
g62
ag62
ag62
ag62
ag62
ag62
ag62
ag62
ag62
ag62
ag62
ag62
ag62
ag62
ag62
ag62
ag62
ag62
ag62
asg63
(lp5181
g69
ag72
ag68
ag65
ag66
ag116
ag67
ag70
ag160
ag66
ag116
ag67
ag65
ag66
ag67
ag65
ag218
ag67
ag76
asg77
VThen he came at the usual hour, wearing a black band on the sleeve of his uniform.
p5182
sba(i__main__
Sentence
p5183
(dp5184
g17
I123
sg18
(lp5185
S'When'
p5186
aS'he'
p5187
aS'came'
p5188
aS'back'
p5189
aS','
p5190
aS'there'
p5191
aS'were'
p5192
aS'large'
p5193
aS'framed'
p5194
aS'photographs'
p5195
aS'around'
p5196
aS'the'
p5197
aS'wall'
p5198
aS','
p5199
aS'of'
p5200
aS'all'
p5201
aS'sorts'
p5202
aS'of'
p5203
aS'wounds'
p5204
aS'before'
p5205
aS'and'
p5206
aS'after'
p5207
aS'they'
p5208
aS'had'
p5209
aS'been'
p5210
aS'cured'
p5211
aS'by'
p5212
aS'the'
p5213
aS'machines'
p5214
aS'.'
p5215
asg39
(lp5216
VWhen
p5217
aVhe
p5218
ag145
aVback
p5219
ag49
aVthere
p5220
ag335
aVlarge
p5221
aVframe
p5222
aVphotograph
p5223
aVaround
p5224
aVthe
p5225
aVwall
p5226
ag49
aVof
p5227
aVall
p5228
aVsort
p5229
aVof
p5230
aVwound
p5231
aVbefore
p5232
aVand
p5233
aVafter
p5234
aVthey
p5235
ag1048
ag1164
aVcure
p5236
aVby
p5237
aVthe
p5238
aVmachine
p5239
ag59
asg60
(lp5240
g62
ag62
ag62
ag62
ag62
ag62
ag62
ag62
ag62
ag62
ag62
ag62
ag62
ag62
ag62
ag62
ag62
ag62
ag62
ag62
ag62
ag62
ag62
ag62
ag62
ag62
ag62
ag62
ag62
ag62
asg63
(lp5241
g738
ag72
ag68
ag69
ag70
ag217
ag68
ag116
ag114
ag159
ag65
ag66
ag67
ag70
ag65
ag66
ag159
ag65
ag159
ag65
ag71
ag65
ag72
ag68
ag114
ag114
ag65
ag66
ag159
ag76
asg77
VWhen he came back, there were large framed photographs around the wall, of all sorts of wounds before and after they had been cured by the machines.
p5242
sba(i__main__
Sentence
p5243
(dp5244
g17
I124
sg18
(lp5245
S'In'
p5246
aS'front'
p5247
aS'of'
p5248
aS'the'
p5249
aS'machine'
p5250
aS'the'
p5251
aS'major'
p5252
aS'used'
p5253
aS'were'
p5254
aS'three'
p5255
aS'photographs'
p5256
aS'of'
p5257
aS'hands'
p5258
aS'like'
p5259
aS'his'
p5260
aS'that'
p5261
aS'were'
p5262
aS'completely'
p5263
aS'restored'
p5264
aS'.'
p5265
asg39
(lp5266
VIn
p5267
aVfront
p5268
aVof
p5269
aVthe
p5270
aVmachine
p5271
aVthe
p5272
aVmajor
p5273
aVuse
p5274
ag335
aVthree
p5275
aVphotograph
p5276
aVof
p5277
aVhand
p5278
aVlike
p5279
aVhis
p5280
aVthat
p5281
ag335
aVcompletely
p5282
aVrestore
p5283
ag59
asg60
(lp5284
g62
ag62
ag62
ag62
ag62
ag62
ag62
ag62
ag62
ag62
ag62
ag62
ag62
ag62
ag62
ag62
ag62
ag62
ag62
ag62
asg63
(lp5285
g65
ag67
ag65
ag66
ag67
ag66
ag116
ag114
ag68
ag389
ag159
ag65
ag159
ag65
ag218
ag65
ag68
ag69
ag114
ag76
asg77
VIn front of the machine the major used were three photographs of hands like his that were completely restored.
p5286
sba(i__main__
Sentence
p5287
(dp5288
g17
I125
sg18
(lp5289
S'I'
p5290
aS'do'
p5291
aS'not'
p5292
aS'know'
p5293
aS'where'
p5294
aS'the'
p5295
aS'doctor'
p5296
aS'got'
p5297
aS'them'
p5298
aS'.'
p5299
asg39
(lp5300
g719
aVdo
p5301
aVnot
p5302
aVknow
p5303
aVwhere
p5304
aVthe
p5305
aVdoctor
p5306
aVget
p5307
aVthem
p5308
ag59
asg60
(lp5309
g62
ag62
ag62
ag62
ag62
ag62
ag62
ag62
ag62
ag62
asg63
(lp5310
g72
ag270
ag69
ag73
ag738
ag66
ag67
ag68
ag72
ag76
asg77
VI do not know where the doctor got them.
p5311
sba(i__main__
Sentence
p5312
(dp5313
g17
I126
sg18
(lp5314
S'I'
p5315
aS'always'
p5316
aS'understood'
p5317
aS'we'
p5318
aS'were'
p5319
aS'the'
p5320
aS'first'
p5321
aS'to'
p5322
aS'use'
p5323
aS'the'
p5324
aS'machines'
p5325
aS'.'
p5326
asg39
(lp5327
g719
aValways
p5328
aVunderstand
p5329
aVwe
p5330
ag335
aVthe
p5331
aVfirst
p5332
aVto
p5333
aVuse
p5334
aVthe
p5335
aVmachine
p5336
ag59
asg60
(lp5337
g62
ag62
ag62
ag62
ag62
ag62
ag62
ag62
ag62
ag62
ag62
ag62
asg63
(lp5338
g72
ag69
ag68
ag72
ag68
ag66
ag116
ag74
ag73
ag66
ag159
ag76
asg77
VI always understood we were the first to use the machines.
p5339
sba(i__main__
Sentence
p5340
(dp5341
g17
I127
sg18
(lp5342
S'The'
p5343
aS'photographs'
p5344
aS'did'
p5345
aS'not'
p5346
aS'make'
p5347
aS'much'
p5348
aS'difference'
p5349
aS'to'
p5350
aS'the'
p5351
aS'major'
p5352
aS'because'
p5353
aS'he'
p5354
aS'only'
p5355
aS'looked'
p5356
aS'out'
p5357
aS'of'
p5358
aS'the'
p5359
aS'window'
p5360
aS'.'
p5361
asg39
(lp5362
VThe
p5363
aVphotograph
p5364
ag52
aVnot
p5365
aVmake
p5366
aVmuch
p5367
aVdifference
p5368
aVto
p5369
aVthe
p5370
aVmajor
p5371
aVbecause
p5372
aVhe
p5373
aVonly
p5374
aVlook
p5375
aVout
p5376
aVof
p5377
aVthe
p5378
aVwindow
p5379
ag59
asg60
(lp5380
g62
ag62
ag62
ag62
ag62
ag62
ag62
ag62
ag62
ag62
ag62
ag62
ag62
ag62
ag62
ag62
ag62
ag62
ag62
asg63
(lp5381
g66
ag159
ag68
ag69
ag73
ag116
ag67
ag74
ag66
ag116
ag65
ag72
ag69
ag68
ag737
ag65
ag66
ag67
ag76
asg77
VThe photographs did not make much difference to the major because he only looked out of the window.         
p5382
sbasbsS'summary'
p5383
g0
(g7
g2
Ntp5384
Rp5385
(dp5386
g11
S"Soldiers recovering from war are in Milan making their daily trips to the hospital.  Each day, they needed to cross a bridge to get there and selected the one with woman who sold roasted chestnuts on the bridge.  The narrator explains that one day when he appeared, the doctor assured him that he would someday be able to play football again, despite his knee not being able to bend.  Each soldier is hooked up to a machine to help help recover.  When someone else asks about their recovery, the doctor fetches a picture of before and after picture of a recovered limb.  The soldiers would walk together to and from the hospital because they were often disliked by some of the residents.  One of the soliders would convince everyone to wear black handkerchiefs around their face as a group to hid his missing nose.  The narrator discusses the reasons for different soldiers who have or haven't received medals.  When he explains to his soldiers that he largely got a medal for being an America, his fellow soldiers largely stop being friendly, except out of necessity.  In losing this kinship, he begins to have more conversations with a major who also attends the hospital.  The major inquires about his plans after the war and the narrator mentions getting married.  The major tells him to forget it and to never take up things he can lose--that the war should have taught him that.  The major leaves but when he returns he explains that he had just found out that his wife had died.  He begins to cry.  The narrator learns that the man had married her after he had returned with his injury.  The major begins to wear the black band in honor of his dead wife and now just looks out the window."
p5387
sg13
(lp5388
(i__main__
Sentence
p5389
(dp5390
g17
I0
sg18
(lp5391
S'Soldiers'
p5392
aS'recovering'
p5393
aS'from'
p5394
aS'war'
p5395
aS'are'
p5396
aS'in'
p5397
aS'Milan'
p5398
aS'making'
p5399
aS'their'
p5400
aS'daily'
p5401
aS'trips'
p5402
aS'to'
p5403
aS'the'
p5404
aS'hospital'
p5405
aS'.'
p5406
asg39
(lp5407
VSoldiers
p5408
aVrecover
p5409
aVfrom
p5410
aVwar
p5411
ag989
aVin
p5412
aVMilan
p5413
aVmake
p5414
aVtheir
p5415
aVdaily
p5416
aVtrip
p5417
aVto
p5418
aVthe
p5419
aVhospital
p5420
ag59
asg60
(lp5421
g62
ag62
ag62
ag62
ag62
ag62
aVLOCATION
p5422
ag62
ag62
ag62
ag62
ag62
ag62
ag62
ag62
asg63
(lp5423
g159
ag160
ag65
ag67
ag270
ag65
ag115
ag160
ag218
ag116
ag159
ag74
ag66
ag67
ag76
asg77
VSoldiers recovering from war are in Milan making their daily trips to the hospital.
p5424
sba(i__main__
Sentence
p5425
(dp5426
g17
I1
sg18
(lp5427
S'Each'
p5428
aS'day'
p5429
aS','
p5430
aS'they'
p5431
aS'needed'
p5432
aS'to'
p5433
aS'cross'
p5434
aS'a'
p5435
aS'bridge'
p5436
aS'to'
p5437
aS'get'
p5438
aS'there'
p5439
aS'and'
p5440
aS'selected'
p5441
aS'the'
p5442
aS'one'
p5443
aS'with'
p5444
aS'woman'
p5445
aS'who'
p5446
aS'sold'
p5447
aS'roasted'
p5448
aS'chestnuts'
p5449
aS'on'
p5450
aS'the'
p5451
aS'bridge'
p5452
aS'.'
p5453
asg39
(lp5454
VEach
p5455
aVday
p5456
ag49
aVthey
p5457
aVneed
p5458
aVto
p5459
aVcross
p5460
ag291
aVbridge
p5461
aVto
p5462
aVget
p5463
aVthere
p5464
aVand
p5465
aVselect
p5466
aVthe
p5467
aVone
p5468
aVwith
p5469
aVwoman
p5470
aVwho
p5471
ag464
aVroast
p5472
aVchestnut
p5473
aVon
p5474
aVthe
p5475
aVbridge
p5476
ag59
asg60
(lp5477
g62
ag62
ag62
ag62
ag62
ag62
ag62
ag62
ag62
ag62
ag62
ag62
ag62
ag62
ag62
ag62
ag62
ag62
ag62
ag62
ag62
ag62
ag62
ag62
ag62
ag62
asg63
(lp5478
g66
ag67
ag70
ag72
ag68
ag74
ag159
ag66
ag67
ag74
ag73
ag69
ag71
ag114
ag66
ag389
ag65
ag67
ag679
ag114
ag68
ag159
ag65
ag66
ag67
ag76
asg77
VEach day, they needed to cross a bridge to get there and selected the one with woman who sold roasted chestnuts on the bridge.
p5479
sba(i__main__
Sentence
p5480
(dp5481
g17
I2
sg18
(lp5482
S'The'
p5483
aS'narrator'
p5484
aS'explains'
p5485
aS'that'
p5486
aS'one'
p5487
aS'day'
p5488
aS'when'
p5489
aS'he'
p5490
aS'appeared'
p5491
aS','
p5492
aS'the'
p5493
aS'doctor'
p5494
aS'assured'
p5495
aS'him'
p5496
aS'that'
p5497
aS'he'
p5498
aS'would'
p5499
aS'someday'
p5500
aS'be'
p5501
aS'able'
p5502
aS'to'
p5503
aS'play'
p5504
aS'football'
p5505
aS'again'
p5506
aS','
p5507
aS'despite'
p5508
aS'his'
p5509
aS'knee'
p5510
aS'not'
p5511
aS'being'
p5512
aS'able'
p5513
aS'to'
p5514
aS'bend'
p5515
aS'.'
p5516
asg39
(lp5517
VThe
p5518
aVnarrator
p5519
aVexplain
p5520
aVthat
p5521
aVone
p5522
aVday
p5523
aVwhen
p5524
aVhe
p5525
aVappear
p5526
ag49
aVthe
p5527
aVdoctor
p5528
aVassure
p5529
aVhim
p5530
aVthat
p5531
aVhe
p5532
aVwould
p5533
aVsomeday
p5534
aVbe
p5535
aVable
p5536
aVto
p5537
aVplay
p5538
aVfootball
p5539
aVagain
p5540
ag49
aVdespite
p5541
aVhis
p5542
aVknee
p5543
aVnot
p5544
aVbe
p5545
aVable
p5546
aVto
p5547
aVbend
p5548
ag59
asg60
(lp5549
g62
ag62
ag62
ag62
ag62
ag62
ag62
ag62
ag62
ag62
ag62
ag62
ag62
ag62
ag62
ag62
ag62
ag62
ag62
ag62
ag62
ag62
ag62
ag62
ag62
ag62
ag62
ag62
ag62
ag62
ag62
ag62
ag62
ag62
asg63
(lp5550
g66
ag67
ag2461
ag65
ag389
ag67
ag738
ag72
ag68
ag70
ag66
ag67
ag68
ag72
ag65
ag72
ag834
ag73
ag73
ag116
ag74
ag73
ag67
ag69
ag70
ag65
ag218
ag67
ag69
ag160
ag116
ag74
ag73
ag76
asg77
VThe narrator explains that one day when he appeared, the doctor assured him that he would someday be able to play football again, despite his knee not being able to bend.
p5551
sba(i__main__
Sentence
p5552
(dp5553
g17
I3
sg18
(lp5554
S'Each'
p5555
aS'soldier'
p5556
aS'is'
p5557
aS'hooked'
p5558
aS'up'
p5559
aS'to'
p5560
aS'a'
p5561
aS'machine'
p5562
aS'to'
p5563
aS'help'
p5564
aS'help'
p5565
aS'recover'
p5566
aS'.'
p5567
asg39
(lp5568
VEach
p5569
aVsoldier
p5570
ag3840
aVhook
p5571
aVup
p5572
aVto
p5573
ag291
aVmachine
p5574
aVto
p5575
aVhelp
p5576
aVhelp
p5577
aVrecover
p5578
ag59
asg60
(lp5579
g62
ag62
ag62
ag62
ag62
ag62
ag62
ag62
ag62
ag62
ag62
ag62
ag62
asg63
(lp5580
g66
ag1263
ag2461
ag114
ag737
ag74
ag66
ag67
ag74
ag73
ag67
ag73
ag76
asg77
VEach soldier is hooked up to a machine to help help recover.
p5581
sba(i__main__
Sentence
p5582
(dp5583
g17
I4
sg18
(lp5584
S'When'
p5585
aS'someone'
p5586
aS'else'
p5587
aS'asks'
p5588
aS'about'
p5589
aS'their'
p5590
aS'recovery'
p5591
aS','
p5592
aS'the'
p5593
aS'doctor'
p5594
aS'fetches'
p5595
aS'a'
p5596
aS'picture'
p5597
aS'of'
p5598
aS'before'
p5599
aS'and'
p5600
aS'after'
p5601
aS'picture'
p5602
aS'of'
p5603
aS'a'
p5604
aS'recovered'
p5605
aS'limb'
p5606
aS'.'
p5607
asg39
(lp5608
VWhen
p5609
aVsomeone
p5610
aVelse
p5611
aVask
p5612
aVabout
p5613
aVtheir
p5614
aVrecovery
p5615
ag49
aVthe
p5616
aVdoctor
p5617
aVfetch
p5618
ag291
aVpicture
p5619
aVof
p5620
aVbefore
p5621
aVand
p5622
aVafter
p5623
aVpicture
p5624
aVof
p5625
ag291
aVrecover
p5626
aVlimb
p5627
ag59
asg60
(lp5628
g62
ag62
ag62
ag62
ag62
ag62
ag62
ag62
ag62
ag62
ag62
ag62
ag62
ag62
ag62
ag62
ag62
ag62
ag62
ag62
ag62
ag62
ag62
asg63
(lp5629
g738
ag67
ag69
ag2461
ag65
ag218
ag67
ag70
ag66
ag67
ag2461
ag66
ag67
ag65
ag65
ag71
ag65
ag67
ag65
ag66
ag114
ag67
ag76
asg77
VWhen someone else asks about their recovery, the doctor fetches a picture of before and after picture of a recovered limb.
p5630
sba(i__main__
Sentence
p5631
(dp5632
g17
I5
sg18
(lp5633
S'The'
p5634
aS'soldiers'
p5635
aS'would'
p5636
aS'walk'
p5637
aS'together'
p5638
aS'to'
p5639
aS'and'
p5640
aS'from'
p5641
aS'the'
p5642
aS'hospital'
p5643
aS'because'
p5644
aS'they'
p5645
aS'were'
p5646
aS'often'
p5647
aS'disliked'
p5648
aS'by'
p5649
aS'some'
p5650
aS'of'
p5651
aS'the'
p5652
aS'residents'
p5653
aS'.'
p5654
asg39
(lp5655
VThe
p5656
aVsoldier
p5657
aVwould
p5658
aVwalk
p5659
aVtogether
p5660
aVto
p5661
aVand
p5662
aVfrom
p5663
aVthe
p5664
aVhospital
p5665
aVbecause
p5666
aVthey
p5667
ag335
aVoften
p5668
aVdislike
p5669
aVby
p5670
aVsome
p5671
aVof
p5672
aVthe
p5673
aVresident
p5674
ag59
asg60
(lp5675
g62
ag62
ag62
ag62
ag62
ag62
ag62
ag62
ag62
ag62
ag62
ag62
ag62
ag62
ag62
ag62
ag62
ag62
ag62
ag62
ag62
asg63
(lp5676
g66
ag159
ag834
ag73
ag737
ag74
ag71
ag65
ag66
ag116
ag65
ag72
ag68
ag69
ag114
ag65
ag66
ag65
ag66
ag159
ag76
asg77
VThe soldiers would walk together to and from the hospital because they were often disliked by some of the residents.
p5677
sba(i__main__
Sentence
p5678
(dp5679
g17
I6
sg18
(lp5680
S'One'
p5681
aS'of'
p5682
aS'the'
p5683
aS'soliders'
p5684
aS'would'
p5685
aS'convince'
p5686
aS'everyone'
p5687
aS'to'
p5688
aS'wear'
p5689
aS'black'
p5690
aS'handkerchiefs'
p5691
aS'around'
p5692
aS'their'
p5693
aS'face'
p5694
aS'as'
p5695
aS'a'
p5696
aS'group'
p5697
aS'to'
p5698
aS'hid'
p5699
aS'his'
p5700
aS'missing'
p5701
aS'nose'
p5702
aS'.'
p5703
asg39
(lp5704
VOne
p5705
aVof
p5706
aVthe
p5707
aVsoliders
p5708
aVwould
p5709
aVconvince
p5710
aVeveryone
p5711
aVto
p5712
aVwear
p5713
aVblack
p5714
aVhandkerchief
p5715
aVaround
p5716
aVtheir
p5717
aVface
p5718
ag291
ag291
aVgroup
p5719
aVto
p5720
aVhide
p5721
aVhis
p5722
aVmissing
p5723
aVnose
p5724
ag59
asg60
(lp5725
g62
ag62
ag62
ag62
ag62
ag62
ag62
ag62
ag62
ag62
ag62
ag62
ag62
ag62
ag62
ag62
ag62
ag62
ag62
ag62
ag62
ag62
ag62
asg63
(lp5726
g389
ag65
ag66
ag159
ag834
ag73
ag67
ag74
ag73
ag116
ag159
ag65
ag218
ag67
ag65
ag66
ag67
ag74
ag73
ag218
ag67
ag67
ag76
asg77
VOne of the soliders would convince everyone to wear black handkerchiefs around their face as a group to hid his missing nose.
p5727
sba(i__main__
Sentence
p5728
(dp5729
g17
I7
sg18
(lp5730
S'The'
p5731
aS'narrator'
p5732
aS'discusses'
p5733
aS'the'
p5734
aS'reasons'
p5735
aS'for'
p5736
aS'different'
p5737
aS'soldiers'
p5738
aS'who'
p5739
aS'have'
p5740
aS'or'
p5741
aS'have'
p5742
aS"n't"
p5743
aS'received'
p5744
aS'medals'
p5745
aS'.'
p5746
asg39
(lp5747
VThe
p5748
aVnarrator
p5749
aVdiscuss
p5750
aVthe
p5751
aVreason
p5752
aVfor
p5753
aVdifferent
p5754
aVsoldier
p5755
aVwho
p5756
aVhave
p5757
aVor
p5758
aVhave
p5759
aVn't
p5760
aVreceive
p5761
aVmedal
p5762
ag59
asg60
(lp5763
g62
ag62
ag62
ag62
ag62
ag62
ag62
ag62
ag62
ag62
ag62
ag62
ag62
ag62
ag62
ag62
asg63
(lp5764
g66
ag67
ag2461
ag66
ag159
ag65
ag116
ag159
ag679
ag270
ag71
ag73
ag69
ag114
ag159
ag76
asg77
VThe narrator discusses the reasons for different soldiers who have or haven't received medals.
p5765
sba(i__main__
Sentence
p5766
(dp5767
g17
I8
sg18
(lp5768
S'When'
p5769
aS'he'
p5770
aS'explains'
p5771
aS'to'
p5772
aS'his'
p5773
aS'soldiers'
p5774
aS'that'
p5775
aS'he'
p5776
aS'largely'
p5777
aS'got'
p5778
aS'a'
p5779
aS'medal'
p5780
aS'for'
p5781
aS'being'
p5782
aS'an'
p5783
aS'America'
p5784
aS','
p5785
aS'his'
p5786
aS'fellow'
p5787
aS'soldiers'
p5788
aS'largely'
p5789
aS'stop'
p5790
aS'being'
p5791
aS'friendly'
p5792
aS','
p5793
aS'except'
p5794
aS'out'
p5795
aS'of'
p5796
aS'necessity'
p5797
aS'.'
p5798
asg39
(lp5799
VWhen
p5800
aVhe
p5801
aVexplain
p5802
aVto
p5803
aVhis
p5804
aVsoldier
p5805
aVthat
p5806
aVhe
p5807
aVlargely
p5808
ag5307
ag291
aVmedal
p5809
aVfor
p5810
aVbe
p5811
aVan
p5812
aVAmerica
p5813
ag49
aVhis
p5814
aVfellow
p5815
aVsoldier
p5816
aVlargely
p5817
aVstop
p5818
aVbe
p5819
aVfriendly
p5820
ag49
aVexcept
p5821
aVout
p5822
aVof
p5823
aVnecessity
p5824
ag59
asg60
(lp5825
g62
ag62
ag62
ag62
ag62
ag62
ag62
ag62
ag62
ag62
ag62
ag62
ag62
ag62
ag62
aVLOCATION
p5826
ag62
ag62
ag62
ag62
ag62
ag62
ag62
ag62
ag62
ag62
ag62
ag62
ag62
ag62
asg63
(lp5827
g738
ag72
ag2461
ag74
ag218
ag159
ag680
ag72
ag69
ag68
ag66
ag67
ag65
ag160
ag66
ag115
ag70
ag218
ag116
ag159
ag69
ag73
ag160
ag69
ag70
ag65
ag65
ag65
ag67
ag76
asg77
VWhen he explains to his soldiers that he largely got a medal for being an America, his fellow soldiers largely stop being friendly, except out of necessity.
p5828
sba(i__main__
Sentence
p5829
(dp5830
g17
I9
sg18
(lp5831
S'In'
p5832
aS'losing'
p5833
aS'this'
p5834
aS'kinship'
p5835
aS','
p5836
aS'he'
p5837
aS'begins'
p5838
aS'to'
p5839
aS'have'
p5840
aS'more'
p5841
aS'conversations'
p5842
aS'with'
p5843
aS'a'
p5844
aS'major'
p5845
aS'who'
p5846
aS'also'
p5847
aS'attends'
p5848
aS'the'
p5849
aS'hospital'
p5850
aS'.'
p5851
asg39
(lp5852
VIn
p5853
aVlosing
p5854
aVthis
p5855
aVkinship
p5856
ag49
aVhe
p5857
aVbegin
p5858
aVto
p5859
aVhave
p5860
aVmore
p5861
aVconversation
p5862
aVwith
p5863
ag291
aVmajor
p5864
aVwho
p5865
aValso
p5866
aVattend
p5867
aVthe
p5868
aVhospital
p5869
ag59
asg60
(lp5870
g62
ag62
ag62
ag62
ag62
ag62
ag62
ag62
ag62
ag62
ag62
ag62
ag62
ag62
ag62
ag62
ag62
ag62
ag62
ag62
asg63
(lp5871
g65
ag67
ag66
ag67
ag70
ag72
ag2461
ag74
ag73
ag1263
ag159
ag65
ag66
ag116
ag679
ag69
ag2461
ag66
ag67
ag76
asg77
VIn losing this kinship, he begins to have more conversations with a major who also attends the hospital.
p5872
sba(i__main__
Sentence
p5873
(dp5874
g17
I10
sg18
(lp5875
S'The'
p5876
aS'major'
p5877
aS'inquires'
p5878
aS'about'
p5879
aS'his'
p5880
aS'plans'
p5881
aS'after'
p5882
aS'the'
p5883
aS'war'
p5884
aS'and'
p5885
aS'the'
p5886
aS'narrator'
p5887
aS'mentions'
p5888
aS'getting'
p5889
aS'married'
p5890
aS'.'
p5891
asg39
(lp5892
VThe
p5893
aVmajor
p5894
aVinquires
p5895
aVabout
p5896
aVhis
p5897
aVplan
p5898
aVafter
p5899
aVthe
p5900
aVwar
p5901
aVand
p5902
aVthe
p5903
aVnarrator
p5904
aVmention
p5905
aVget
p5906
ag3917
ag59
asg60
(lp5907
g62
ag62
ag62
ag62
ag62
ag62
ag62
ag62
ag62
ag62
ag62
ag62
ag62
ag62
ag62
ag62
asg63
(lp5908
g66
ag116
ag159
ag65
ag218
ag159
ag65
ag66
ag67
ag71
ag66
ag67
ag159
ag160
ag114
ag76
asg77
VThe major inquires about his plans after the war and the narrator mentions getting married.
p5909
sba(i__main__
Sentence
p5910
(dp5911
g17
I11
sg18
(lp5912
S'The'
p5913
aS'major'
p5914
aS'tells'
p5915
aS'him'
p5916
aS'to'
p5917
aS'forget'
p5918
aS'it'
p5919
aS'and'
p5920
aS'to'
p5921
aS'never'
p5922
aS'take'
p5923
aS'up'
p5924
aS'things'
p5925
aS'he'
p5926
aS'can'
p5927
aS'lose'
p5928
aS'--'
p5929
aS'that'
p5930
aS'the'
p5931
aS'war'
p5932
aS'should'
p5933
aS'have'
p5934
aS'taught'
p5935
aS'him'
p5936
aS'that'
p5937
aS'.'
p5938
asg39
(lp5939
VThe
p5940
aVmajor
p5941
aVtell
p5942
aVhim
p5943
aVto
p5944
aVforget
p5945
aVit
p5946
aVand
p5947
aVto
p5948
aVnever
p5949
aVtake
p5950
aVup
p5951
aVthing
p5952
aVhe
p5953
aVcan
p5954
aVlose
p5955
aV--
p5956
aVthat
p5957
aVthe
p5958
aVwar
p5959
aVshould
p5960
aVhave
p5961
aVteach
p5962
aVhim
p5963
aVthat
p5964
ag59
asg60
(lp5965
g62
ag62
ag62
ag62
ag62
ag62
ag62
ag62
ag62
ag62
ag62
ag62
ag62
ag62
ag62
ag62
ag62
ag62
ag62
ag62
ag62
ag62
ag62
ag62
ag62
ag62
asg63
(lp5966
g66
ag116
ag159
ag72
ag74
ag73
ag72
ag71
ag74
ag69
ag73
ag737
ag159
ag72
ag834
ag73
ag739
ag65
ag66
ag67
ag834
ag73
ag114
ag72
ag65
ag76
asg77
VThe major tells him to forget it and to never take up things he can lose--that the war should have taught him that.
p5967
sba(i__main__
Sentence
p5968
(dp5969
g17
I12
sg18
(lp5970
S'The'
p5971
aS'major'
p5972
aS'leaves'
p5973
aS'but'
p5974
aS'when'
p5975
aS'he'
p5976
aS'returns'
p5977
aS'he'
p5978
aS'explains'
p5979
aS'that'
p5980
aS'he'
p5981
aS'had'
p5982
aS'just'
p5983
aS'found'
p5984
aS'out'
p5985
aS'that'
p5986
aS'his'
p5987
aS'wife'
p5988
aS'had'
p5989
aS'died'
p5990
aS'.'
p5991
asg39
(lp5992
VThe
p5993
aVmajor
p5994
aVleaf
p5995
aVbut
p5996
aVwhen
p5997
aVhe
p5998
aVreturn
p5999
aVhe
p6000
aVexplain
p6001
aVthat
p6002
aVhe
p6003
ag1048
aVjust
p6004
ag2507
aVout
p6005
aVthat
p6006
aVhis
p6007
aVwife
p6008
ag1048
aVdie
p6009
ag59
asg60
(lp6010
g62
ag62
ag62
ag62
ag62
ag62
ag62
ag62
ag62
ag62
ag62
ag62
ag62
ag62
ag62
ag62
ag62
ag62
ag62
ag62
ag62
asg63
(lp6011
g66
ag116
ag159
ag71
ag738
ag72
ag2461
ag72
ag2461
ag65
ag72
ag68
ag69
ag114
ag737
ag65
ag218
ag67
ag68
ag114
ag76
asg77
VThe major leaves but when he returns he explains that he had just found out that his wife had died.
p6012
sba(i__main__
Sentence
p6013
(dp6014
g17
I13
sg18
(lp6015
S'He'
p6016
aS'begins'
p6017
aS'to'
p6018
aS'cry'
p6019
aS'.'
p6020
asg39
(lp6021
VHe
p6022
aVbegin
p6023
aVto
p6024
aVcry
p6025
ag59
asg60
(lp6026
g62
ag62
ag62
ag62
ag62
asg63
(lp6027
g72
ag2461
ag74
ag67
ag76
asg77
VHe begins to cry.
p6028
sba(i__main__
Sentence
p6029
(dp6030
g17
I14
sg18
(lp6031
S'The'
p6032
aS'narrator'
p6033
aS'learns'
p6034
aS'that'
p6035
aS'the'
p6036
aS'man'
p6037
aS'had'
p6038
aS'married'
p6039
aS'her'
p6040
aS'after'
p6041
aS'he'
p6042
aS'had'
p6043
aS'returned'
p6044
aS'with'
p6045
aS'his'
p6046
aS'injury'
p6047
aS'.'
p6048
asg39
(lp6049
VThe
p6050
aVnarrator
p6051
aVlearn
p6052
aVthat
p6053
aVthe
p6054
aVman
p6055
ag1048
ag3917
aVher
p6056
aVafter
p6057
aVhe
p6058
ag1048
aVreturn
p6059
aVwith
p6060
aVhis
p6061
aVinjury
p6062
ag59
asg60
(lp6063
g62
ag62
ag62
ag62
ag62
ag62
ag62
ag62
ag62
ag62
ag62
ag62
ag62
ag62
ag62
ag62
ag62
asg63
(lp6064
g66
ag67
ag2461
ag65
ag66
ag67
ag68
ag114
ag218
ag65
ag72
ag68
ag114
ag65
ag218
ag67
ag76
asg77
VThe narrator learns that the man had married her after he had returned with his injury.
p6065
sba(i__main__
Sentence
p6066
(dp6067
g17
I15
sg18
(lp6068
S'The'
p6069
aS'major'
p6070
aS'begins'
p6071
aS'to'
p6072
aS'wear'
p6073
aS'the'
p6074
aS'black'
p6075
aS'band'
p6076
aS'in'
p6077
aS'honor'
p6078
aS'of'
p6079
aS'his'
p6080
aS'dead'
p6081
aS'wife'
p6082
aS'and'
p6083
aS'now'
p6084
aS'just'
p6085
aS'looks'
p6086
aS'out'
p6087
aS'the'
p6088
aS'window'
p6089
aS'.'
p6090
asg39
(lp6091
VThe
p6092
aVmajor
p6093
aVbegin
p6094
aVto
p6095
aVwear
p6096
aVthe
p6097
aVblack
p6098
aVband
p6099
aVin
p6100
aVhonor
p6101
aVof
p6102
aVhis
p6103
aVdead
p6104
aVwife
p6105
aVand
p6106
aVnow
p6107
aVjust
p6108
aVlook
p6109
aVout
p6110
aVthe
p6111
aVwindow
p6112
ag59
asg60
(lp6113
g62
ag62
ag62
ag62
ag62
ag62
ag62
ag62
ag62
ag62
ag62
ag62
ag62
ag62
ag62
ag62
ag62
ag62
ag62
ag62
ag62
ag62
asg63
(lp6114
g66
ag116
ag159
ag74
ag73
ag66
ag116
ag67
ag65
ag67
ag65
ag218
ag116
ag67
ag71
ag69
ag69
ag2461
ag737
ag66
ag67
ag76
asg77
VThe major begins to wear the black band in honor of his dead wife and now just looks out the window.
p6115
sbasbsS'name'
p6116
S'In Another Country'
p6117
sS'summaries'
p6118
(lp6119
g5385
asb.