ccopy_reg
_reconstructor
p0
(c__main__
Story
p1
c__builtin__
object
p2
Ntp3
Rp4
(dp5
S'text'
p6
g0
(c__main__
Document
p7
g2
Ntp8
Rp9
(dp10
S'_Document__initialContent'
p11
S'SHE sat at the window watching the evening invade the avenue. Her head was leaned against the window curtains and in her nostrils was the odour of dusty cretonne. She was tired.\n\n\n\nFew people passed. The man out of the last house passed on his way home; she heard his footsteps clacking along the concrete pavement and afterwards crunching on the cinder path before the new red houses. One time there used to be a field there in which they used to play every evening with other people\'s children. Then a man from Belfast bought the field and built houses in it -- not like their little brown houses but bright brick houses with shining roofs. The children of the avenue used to play together in that field -- the Devines, the Waters, the Dunns, little Keogh the cripple, she and her brothers and sisters. Ernest, however, never played: he was too grown up. Her father used often to hunt them in out of the field with his blackthorn stick; but usually little Keogh used to keep nix and call out when he saw her father coming. Still they seemed to have been rather happy then. Her father was not so bad then; and besides, her mother was alive. That was a long time ago; she and her brothers and sisters were all grown up her mother was dead. Tizzie Dunn was dead, too, and the Waters had gone back to England. Everything changes. Now she was going to go away like the others, to leave her home.\n\n\n\nHome! She looked round the room, reviewing all its familiar objects which she had dusted once a week for so many years, wondering where on earth all the dust came from. Perhaps she would never see again those familiar objects from which she had never dreamed of being divided. And yet during all those years she had never found out the name of the priest whose yellowing photograph hung on the wall above the broken harmonium beside the coloured print of the promises made to Blessed Margaret Mary Alacoque. He had been a school friend of her father. Whenever he showed the photograph to a visitor her father used to pass it with a casual word:\n\n\n\n"He is in Melbourne now."\n\n\n\nShe had consented to go away, to leave her home. Was that wise? She tried to weigh each side of the question. In her home anyway she had shelter and food; she had those whom she had known all her life about her. O course she had to work hard, both in the house and at business. What would they say of her in the Stores when they found out that she had run away with a fellow? Say she was a fool, perhaps; and her place would be filled up by advertisement. Miss Gavan would be glad. She had always had an edge on her, especially whenever there were people listening.\n\n\n\n"Miss Hill, don\'t you see these ladies are waiting?"\n\n\n\n"Look lively, Miss Hill, please."\n\n\n\nShe would not cry many tears at leaving the Stores.\n\n\n\nBut in her new home, in a distant unknown country, it would not be like that. Then she would be married -- she, Eveline. People would treat her with respect then. She would not be treated as her mother had been. Even now, though she was over nineteen, she sometimes felt herself in danger of her father\'s violence. She knew it was that that had given her the palpitations. When they were growing up he had never gone for her like he used to go for Harry and Ernest, because she was a girl but latterly he had begun to threaten her and say what he would do to her only for her dead mother\'s sake. And no she had nobody to protect her. Ernest was dead and Harry, who was in the church decorating business, was nearly always down somewhere in the country. Besides, the invariable squabble for money on Saturday nights had begun to weary her unspeakably. She always gave her entire wages -- seven shillings -- and Harry always sent up what he could but the trouble was to get any money from her father. He said she used to squander the money, that she had no head, that he wasn\'t going to give her his hard-earned money to throw about the streets, and much more, for he was usually fairly bad on Saturday night. In the end he would give her the money and ask her had she any intention of buying Sunday\'s dinner. Then she had to rush out as quickly as she could and do her marketing, holding her black leather purse tightly in her hand as she elbowed her way through the crowds and returning home late under her load of provisions. She had hard work to keep the house together and to see that the two young children who had been left to hr charge went to school regularly and got their meals regularly. It was hard work -- a hard life -- but now that she was about to leave it she did not find it a wholly undesirable life.\n\n\n\nShe was about to explore another life with Frank. Frank was very kind, manly, open-hearted. She was to go away with him by the night-boat to be his wife and to live with him in Buenos Ayres where he had a home waiting for her. How well she remembered the first time she had seen him; he was lodging in a house on the main road where she used to visit. It seemed a few weeks ago. He was standing at the gate, his peaked cap pushed back on his head and his hair tumbled forward over a face of bronze. Then they had come to know each other. He used to meet her outside the Stores every evening and see her home. He took her to see The Bohemian Girl and she felt elated as she sat in an unaccustomed part of the theatre with him. He was awfully fond of music and sang a little. People knew that they were courting and, when he sang about the lass that loves a sailor, she always felt pleasantly confused. He used to call her Poppens out of fun. First of all it had been an excitement for her to have a fellow and then she had begun to like him. He had tales of distant countries. He had started as a deck boy at a pound a month on a ship of the Allan Line going out to Canada. He told her the names of the ships he had been on and the names of the different services. He had sailed through the Straits of Magellan and he told her stories of the terrible Patagonians. He had fallen on his feet in Buenos Ayres, he said, and had come over to the old country just for a holiday. Of course, her father had found out the affair and had forbidden her to have anything to say to him.\n\n\n\n"I know these sailor chaps," he said.\n\n\n\nOne day he had quarrelled with Frank and after that she had to meet her lover secretly.\n\n\n\nThe evening deepened in the avenue. The white of two letters in her lap grew indistinct. One was to Harry; the other was to her father. Ernest had been her favourite but she liked Harry too. Her father was becoming old lately, she noticed; he would miss her. Sometimes he could be very nice. Not long before, when she had been laid up for a day, he had read her out a ghost story and made toast for her at the fire. Another day, when their mother was alive, they had all gone for a picnic to the Hill of Howth. She remembered her father putting on her mothers bonnet to make the children laugh.\n\n\n\nHer time was running out but she continued to sit by the window, leaning her head against the window curtain, inhaling the odour of dusty cretonne. Down far in the avenue she could hear a street organ playing. She knew the air Strange that it should come that very night to remind her of the promise to her mother, her promise to keep the home together as long as she could. She remembered the last night of her mother\'s illness; she was again in the close dark room at the other side of the hall and outside she heard a melancholy air of Italy. The organ-player had been ordered to go away and given sixpence. She remembered her father strutting back into the sickroom saying:\n\n\n\n"Damned Italians! coming over here!"\n\n\n\nAs she mused the pitiful vision of her mother\'s life laid its spell on the very quick of her being -- that life of commonplace sacrifices closing in final craziness. She trembled as she heard again her mother\'s voice saying constantly with foolish insistence:\n\n\n\n"Derevaun Seraun! Derevaun Seraun!"\n\n\n\nShe stood up in a sudden impulse of terror. Escape! She must escape! Frank would save her. He would give her life, perhaps love, too. But she wanted to live. Why should she be unhappy? She had a right to happiness. Frank would take her in his arms, fold her in his arms. He would save her.\n\n\n\nShe stood among the swaying crowd in the station at the North Wall. He held her hand and she knew that he was speaking to her, saying something about the passage over and over again. The station was full of soldiers with brown baggages. Through the wide doors of the sheds she caught a glimpse of the black mass of the boat, lying in beside the quay wall, with illumined portholes. She answered nothing. She felt her cheek pale and cold and, out of a maze of distress, she prayed to God to direct her, to show her what was her duty. The boat blew a long mournful whistle into the mist. If she went, tomorrow she would be on the sea with Frank, steaming towards Buenos Ayres. Their passage had been booked. Could she still draw back after all he had done for her? Her distress awoke a nausea in her body and she kept moving her lips in silent fervent prayer.\n\n\n\nA bell clanged upon her heart. She felt him seize her hand:\n\n\n\n"Come!"\n\n\n\nAll the seas of the world tumbled about her heart. He was drawing her into them: he would drown her. She gripped with both hands at the iron railing.\n\n\n\n"Come!"\n\n\n\nNo! No! No! It was impossible. Her hands clutched the iron in frenzy. Amid the seas she sent a cry of anguish.\n\n\n\n"Eveline! Evvy!"\n\n\n\nHe rushed beyond the barrier and called to her to follow. He was shouted at to go on but he still called to her. She set her white face to him, passive, like a helpless animal. Her eyes gave him no sign of love or farewell or recognition.'
p12
sS'sentences'
p13
(lp14
(i__main__
Sentence
p15
(dp16
S'index'
p17
I0
sS'words'
p18
(lp19
S'SHE'
p20
aS'sat'
p21
aS'at'
p22
aS'the'
p23
aS'window'
p24
aS'watching'
p25
aS'the'
p26
aS'evening'
p27
aS'invade'
p28
aS'the'
p29
aS'avenue'
p30
aS'.'
p31
asS'lemmas'
p32
(lp33
VSHE
p34
aVsit
p35
aVat
p36
aVthe
p37
aVwindow
p38
aVwatch
p39
aVthe
p40
aVevening
p41
aVinvade
p42
aVthe
p43
aVavenue
p44
aV.
p45
asS'nerTags'
p46
(lp47
VO
p48
ag48
ag48
ag48
ag48
ag48
ag48
ag48
ag48
ag48
ag48
ag48
asS'posTags'
p49
(lp50
S'PRP'
p51
aS'VBD'
p52
aS'IN'
p53
aS'DT'
p54
aS'NN'
p55
aS'VBG'
p56
ag54
ag55
ag55
ag54
ag55
aS'.'
p57
asS'_Sentence__initialContent'
p58
VSHE sat at the window watching the evening invade the avenue.
p59
sba(i__main__
Sentence
p60
(dp61
g17
I1
sg18
(lp62
S'Her'
p63
aS'head'
p64
aS'was'
p65
aS'leaned'
p66
aS'against'
p67
aS'the'
p68
aS'window'
p69
aS'curtains'
p70
aS'and'
p71
aS'in'
p72
aS'her'
p73
aS'nostrils'
p74
aS'was'
p75
aS'the'
p76
aS'odour'
p77
aS'of'
p78
aS'dusty'
p79
aS'cretonne'
p80
aS'.'
p81
asg32
(lp82
VHer
p83
aVhead
p84
aVbe
p85
aVlean
p86
aVagainst
p87
aVthe
p88
aVwindow
p89
aVcurtain
p90
aVand
p91
aVin
p92
aVher
p93
aVnostril
p94
ag85
aVthe
p95
aVodour
p96
aVof
p97
aVdusty
p98
aVcretonne
p99
ag45
asg46
(lp100
g48
ag48
ag48
ag48
ag48
ag48
ag48
ag48
ag48
ag48
ag48
ag48
ag48
ag48
ag48
ag48
ag48
ag48
ag48
asg49
(lp101
S'PRP$'
p102
ag55
ag52
aS'VBN'
p103
ag53
ag54
ag55
aS'VBZ'
p104
aS'CC'
p105
ag53
ag102
aS'NNS'
p106
ag52
ag54
ag55
ag53
ag55
ag55
ag57
asg58
VHer head was leaned against the window curtains and in her nostrils was the odour of dusty cretonne.
p107
sba(i__main__
Sentence
p108
(dp109
g17
I2
sg18
(lp110
S'She'
p111
aS'was'
p112
aS'tired'
p113
aS'.'
p114
asg32
(lp115
VShe
p116
ag85
aVtire
p117
ag45
asg46
(lp118
g48
ag48
ag48
ag48
asg49
(lp119
g51
ag52
ag103
ag57
asg58
VShe was tired.
p120
sba(i__main__
Sentence
p121
(dp122
g17
I3
sg18
(lp123
S'Few'
p124
aS'people'
p125
aS'passed'
p126
aS'.'
p127
asg32
(lp128
VFew
p129
aVpeople
p130
aVpass
p131
ag45
asg46
(lp132
g48
ag48
ag48
ag48
asg49
(lp133
S'JJ'
p134
ag106
ag103
ag57
asg58
VFew people passed.
p135
sba(i__main__
Sentence
p136
(dp137
g17
I4
sg18
(lp138
S'The'
p139
aS'man'
p140
aS'out'
p141
aS'of'
p142
aS'the'
p143
aS'last'
p144
aS'house'
p145
aS'passed'
p146
aS'on'
p147
aS'his'
p148
aS'way'
p149
aS'home'
p150
aS';'
p151
aS'she'
p152
aS'heard'
p153
aS'his'
p154
aS'footsteps'
p155
aS'clacking'
p156
aS'along'
p157
aS'the'
p158
aS'concrete'
p159
aS'pavement'
p160
aS'and'
p161
aS'afterwards'
p162
aS'crunching'
p163
aS'on'
p164
aS'the'
p165
aS'cinder'
p166
aS'path'
p167
aS'before'
p168
aS'the'
p169
aS'new'
p170
aS'red'
p171
aS'houses'
p172
aS'.'
p173
asg32
(lp174
VThe
p175
aVman
p176
aVout
p177
aVof
p178
aVthe
p179
aVlast
p180
aVhouse
p181
aVpass
p182
aVon
p183
aVhis
p184
aVway
p185
aVhome
p186
aV;
p187
aVshe
p188
aVhear
p189
aVhis
p190
aVfootstep
p191
aVclack
p192
aValong
p193
aVthe
p194
aVconcrete
p195
aVpavement
p196
aVand
p197
aVafterwards
p198
aVcrunch
p199
aVon
p200
aVthe
p201
aVcinder
p202
aVpath
p203
aVbefore
p204
aVthe
p205
aVnew
p206
aVred
p207
aVhouse
p208
ag45
asg46
(lp209
g48
ag48
ag48
ag48
ag48
ag48
ag48
ag48
ag48
ag48
ag48
ag48
ag48
ag48
ag48
ag48
ag48
ag48
ag48
ag48
ag48
ag48
ag48
ag48
ag48
ag48
ag48
ag48
ag48
ag48
ag48
ag48
ag48
ag48
ag48
asg49
(lp210
g54
ag55
ag53
ag53
ag54
ag134
ag55
ag52
ag53
ag102
ag55
ag55
aS':'
p211
ag51
ag52
ag102
ag106
ag56
ag53
ag54
ag134
ag55
ag105
ag106
ag56
ag53
ag54
ag55
ag55
ag53
ag54
ag134
ag134
ag106
ag57
asg58
VThe man out of the last house passed on his way home; she heard his footsteps clacking along the concrete pavement and afterwards crunching on the cinder path before the new red houses.
p212
sba(i__main__
Sentence
p213
(dp214
g17
I5
sg18
(lp215
S'One'
p216
aS'time'
p217
aS'there'
p218
aS'used'
p219
aS'to'
p220
aS'be'
p221
aS'a'
p222
aS'field'
p223
aS'there'
p224
aS'in'
p225
aS'which'
p226
aS'they'
p227
aS'used'
p228
aS'to'
p229
aS'play'
p230
aS'every'
p231
aS'evening'
p232
aS'with'
p233
aS'other'
p234
aS'people'
p235
aS"'s"
p236
aS'children'
p237
aS'.'
p238
asg32
(lp239
VOne
p240
aVtime
p241
aVthere
p242
aVuse
p243
aVto
p244
aVbe
p245
aVa
p246
aVfield
p247
aVthere
p248
aVin
p249
aVwhich
p250
aVthey
p251
aVuse
p252
aVto
p253
aVplay
p254
aVevery
p255
aVevening
p256
aVwith
p257
aVother
p258
aVpeople
p259
aV's
p260
aVchild
p261
ag45
asg46
(lp262
g48
ag48
ag48
ag48
ag48
ag48
ag48
ag48
ag48
ag48
ag48
ag48
ag48
ag48
ag48
ag48
ag48
ag48
ag48
ag48
ag48
ag48
ag48
asg49
(lp263
S'CD'
p264
ag55
aS'RB'
p265
ag103
aS'TO'
p266
aS'VB'
p267
ag54
ag55
aS'EX'
p268
ag53
aS'WDT'
p269
ag51
ag52
ag266
ag267
ag54
ag55
ag53
ag134
ag106
aS'POS'
p270
ag106
ag57
asg58
VOne time there used to be a field there in which they used to play every evening with other people's children.
p271
sba(i__main__
Sentence
p272
(dp273
g17
I6
sg18
(lp274
S'Then'
p275
aS'a'
p276
aS'man'
p277
aS'from'
p278
aS'Belfast'
p279
aS'bought'
p280
aS'the'
p281
aS'field'
p282
aS'and'
p283
aS'built'
p284
aS'houses'
p285
aS'in'
p286
aS'it'
p287
aS'--'
p288
aS'not'
p289
aS'like'
p290
aS'their'
p291
aS'little'
p292
aS'brown'
p293
aS'houses'
p294
aS'but'
p295
aS'bright'
p296
aS'brick'
p297
aS'houses'
p298
aS'with'
p299
aS'shining'
p300
aS'roofs'
p301
aS'.'
p302
asg32
(lp303
VThen
p304
ag246
aVman
p305
aVfrom
p306
aVBelfast
p307
aVbuy
p308
aVthe
p309
aVfield
p310
aVand
p311
aVbuild
p312
aVhouse
p313
aVin
p314
aVit
p315
aV--
p316
aVnot
p317
aVlike
p318
aVtheir
p319
aVlittle
p320
aVbrown
p321
aVhouse
p322
aVbut
p323
aVbright
p324
aVbrick
p325
aVhouse
p326
aVwith
p327
aVshin
p328
aVroof
p329
ag45
asg46
(lp330
g48
ag48
ag48
ag48
aVLOCATION
p331
ag48
ag48
ag48
ag48
ag48
ag48
ag48
ag48
ag48
ag48
ag48
ag48
ag48
ag48
ag48
ag48
ag48
ag48
ag48
ag48
ag48
ag48
ag48
asg49
(lp332
g265
ag54
ag55
ag53
aS'NNP'
p333
ag52
ag54
ag55
ag105
ag103
ag106
ag53
ag51
ag211
ag265
ag53
ag102
ag134
ag55
ag106
ag105
ag134
ag55
ag106
ag53
ag56
ag106
ag57
asg58
VThen a man from Belfast bought the field and built houses in it -- not like their little brown houses but bright brick houses with shining roofs.
p334
sba(i__main__
Sentence
p335
(dp336
g17
I7
sg18
(lp337
S'The'
p338
aS'children'
p339
aS'of'
p340
aS'the'
p341
aS'avenue'
p342
aS'used'
p343
aS'to'
p344
aS'play'
p345
aS'together'
p346
aS'in'
p347
aS'that'
p348
aS'field'
p349
aS'--'
p350
aS'the'
p351
aS'Devines'
p352
aS','
p353
aS'the'
p354
aS'Waters'
p355
aS','
p356
aS'the'
p357
aS'Dunns'
p358
aS','
p359
aS'little'
p360
aS'Keogh'
p361
aS'the'
p362
aS'cripple'
p363
aS','
p364
aS'she'
p365
aS'and'
p366
aS'her'
p367
aS'brothers'
p368
aS'and'
p369
aS'sisters'
p370
aS'.'
p371
asg32
(lp372
VThe
p373
ag261
aVof
p374
aVthe
p375
aVavenue
p376
aVuse
p377
aVto
p378
aVplay
p379
aVtogether
p380
aVin
p381
aVthat
p382
aVfield
p383
aV--
p384
aVthe
p385
aVDevines
p386
aV,
p387
aVthe
p388
aVWaters
p389
ag387
aVthe
p390
aVDunns
p391
ag387
aVlittle
p392
aVKeogh
p393
aVthe
p394
aVcripple
p395
ag387
aVshe
p396
aVand
p397
aVher
p398
aVbrother
p399
aVand
p400
aVsister
p401
ag45
asg46
(lp402
g48
ag48
ag48
ag48
ag48
ag48
ag48
ag48
ag48
ag48
ag48
ag48
ag48
ag48
aVLOCATION
p403
ag48
ag48
ag48
ag48
ag48
aVORGANIZATION
p404
ag48
ag48
aVPERSON
p405
ag48
ag48
ag48
ag48
ag48
ag48
ag48
ag48
ag48
ag48
asg49
(lp406
g54
ag106
ag53
ag54
ag55
ag52
ag266
ag267
aS'RP'
p407
ag53
ag54
ag55
ag211
ag54
ag333
aS','
p408
ag54
ag333
ag408
ag54
ag333
ag408
ag265
ag333
ag54
ag55
ag408
ag51
ag105
ag102
ag106
ag105
ag106
ag57
asg58
VThe children of the avenue used to play together in that field -- the Devines, the Waters, the Dunns, little Keogh the cripple, she and her brothers and sisters.
p409
sba(i__main__
Sentence
p410
(dp411
g17
I8
sg18
(lp412
S'Ernest'
p413
aS','
p414
aS'however'
p415
aS','
p416
aS'never'
p417
aS'played'
p418
aS':'
p419
aS'he'
p420
aS'was'
p421
aS'too'
p422
aS'grown'
p423
aS'up'
p424
aS'.'
p425
asg32
(lp426
VErnest
p427
ag387
aVhowever
p428
ag387
aVnever
p429
aVplay
p430
aV:
p431
aVhe
p432
ag85
aVtoo
p433
aVgrow
p434
aVup
p435
ag45
asg46
(lp436
VPERSON
p437
ag48
ag48
ag48
ag48
ag48
ag48
ag48
ag48
ag48
ag48
ag48
ag48
asg49
(lp438
g333
ag408
ag265
ag408
ag265
ag103
ag211
ag51
ag52
ag265
ag103
ag407
ag57
asg58
VErnest, however, never played: he was too grown up.
p439
sba(i__main__
Sentence
p440
(dp441
g17
I9
sg18
(lp442
S'Her'
p443
aS'father'
p444
aS'used'
p445
aS'often'
p446
aS'to'
p447
aS'hunt'
p448
aS'them'
p449
aS'in'
p450
aS'out'
p451
aS'of'
p452
aS'the'
p453
aS'field'
p454
aS'with'
p455
aS'his'
p456
aS'blackthorn'
p457
aS'stick'
p458
aS';'
p459
aS'but'
p460
aS'usually'
p461
aS'little'
p462
aS'Keogh'
p463
aS'used'
p464
aS'to'
p465
aS'keep'
p466
aS'nix'
p467
aS'and'
p468
aS'call'
p469
aS'out'
p470
aS'when'
p471
aS'he'
p472
aS'saw'
p473
aS'her'
p474
aS'father'
p475
aS'coming'
p476
aS'.'
p477
asg32
(lp478
VHer
p479
aVfather
p480
aVuse
p481
aVoften
p482
aVto
p483
aVhunt
p484
aVthem
p485
aVin
p486
aVout
p487
aVof
p488
aVthe
p489
aVfield
p490
aVwith
p491
aVhis
p492
aVblackthorn
p493
aVstick
p494
ag187
aVbut
p495
aVusually
p496
aVlittle
p497
aVKeogh
p498
aVuse
p499
aVto
p500
aVkeep
p501
aVnix
p502
aVand
p503
aVcall
p504
aVout
p505
aVwhen
p506
aVhe
p507
aVsaw
p508
aVher
p509
aVfather
p510
aVcome
p511
ag45
asg46
(lp512
g48
ag48
ag48
ag48
ag48
ag48
ag48
ag48
ag48
ag48
ag48
ag48
ag48
ag48
ag48
ag48
ag48
ag48
ag48
ag48
aVPERSON
p513
ag48
ag48
ag48
ag48
ag48
ag48
ag48
ag48
ag48
ag48
ag48
ag48
ag48
ag48
asg49
(lp514
g102
ag55
ag103
ag265
ag266
ag267
ag51
ag53
ag53
ag53
ag54
ag55
ag53
ag102
ag55
ag55
ag211
ag105
ag265
ag134
ag333
ag52
ag266
ag267
ag264
ag105
ag55
ag407
aS'WRB'
p515
ag51
ag52
ag51
ag265
ag56
ag57
asg58
VHer father used often to hunt them in out of the field with his blackthorn stick; but usually little Keogh used to keep nix and call out when he saw her father coming.
p516
sba(i__main__
Sentence
p517
(dp518
g17
I10
sg18
(lp519
S'Still'
p520
aS'they'
p521
aS'seemed'
p522
aS'to'
p523
aS'have'
p524
aS'been'
p525
aS'rather'
p526
aS'happy'
p527
aS'then'
p528
aS'.'
p529
asg32
(lp530
VStill
p531
aVthey
p532
aVseem
p533
aVto
p534
aVhave
p535
aVbe
p536
aVrather
p537
aVhappy
p538
aVthen
p539
ag45
asg46
(lp540
g48
ag48
ag48
ag48
ag48
ag48
ag48
ag48
ag48
ag48
asg49
(lp541
g265
ag51
ag52
ag266
ag267
ag103
ag265
ag134
ag265
ag57
asg58
VStill they seemed to have been rather happy then.
p542
sba(i__main__
Sentence
p543
(dp544
g17
I11
sg18
(lp545
S'Her'
p546
aS'father'
p547
aS'was'
p548
aS'not'
p549
aS'so'
p550
aS'bad'
p551
aS'then'
p552
aS';'
p553
aS'and'
p554
aS'besides'
p555
aS','
p556
aS'her'
p557
aS'mother'
p558
aS'was'
p559
aS'alive'
p560
aS'.'
p561
asg32
(lp562
VHer
p563
aVfather
p564
ag85
aVnot
p565
aVso
p566
aVbad
p567
aVthen
p568
ag187
aVand
p569
aVbesides
p570
ag387
aVher
p571
aVmother
p572
ag85
aValive
p573
ag45
asg46
(lp574
g48
ag48
ag48
ag48
ag48
ag48
ag48
ag48
ag48
ag48
ag48
ag48
ag48
ag48
ag48
ag48
asg49
(lp575
g102
ag55
ag52
ag265
ag265
ag134
ag265
ag211
ag105
ag104
ag408
ag102
ag55
ag52
ag134
ag57
asg58
VHer father was not so bad then; and besides, her mother was alive.
p576
sba(i__main__
Sentence
p577
(dp578
g17
I12
sg18
(lp579
S'That'
p580
aS'was'
p581
aS'a'
p582
aS'long'
p583
aS'time'
p584
aS'ago'
p585
aS';'
p586
aS'she'
p587
aS'and'
p588
aS'her'
p589
aS'brothers'
p590
aS'and'
p591
aS'sisters'
p592
aS'were'
p593
aS'all'
p594
aS'grown'
p595
aS'up'
p596
aS'her'
p597
aS'mother'
p598
aS'was'
p599
aS'dead'
p600
aS'.'
p601
asg32
(lp602
VThat
p603
ag85
ag246
aVlong
p604
aVtime
p605
aVago
p606
ag187
aVshe
p607
aVand
p608
aVher
p609
aVbrother
p610
aVand
p611
aVsister
p612
aVbe
p613
aVall
p614
ag434
aVup
p615
aVher
p616
aVmother
p617
ag85
aVdead
p618
ag45
asg46
(lp619
g48
ag48
ag48
ag48
ag48
ag48
ag48
ag48
ag48
ag48
ag48
ag48
ag48
ag48
ag48
ag48
ag48
ag48
ag48
ag48
ag48
ag48
asg49
(lp620
g54
ag52
ag54
ag134
ag55
ag265
ag211
ag51
ag105
ag102
ag106
ag105
ag106
ag52
ag54
ag103
ag407
ag102
ag55
ag52
ag134
ag57
asg58
VThat was a long time ago; she and her brothers and sisters were all grown up her mother was dead.
p621
sba(i__main__
Sentence
p622
(dp623
g17
I13
sg18
(lp624
S'Tizzie'
p625
aS'Dunn'
p626
aS'was'
p627
aS'dead'
p628
aS','
p629
aS'too'
p630
aS','
p631
aS'and'
p632
aS'the'
p633
aS'Waters'
p634
aS'had'
p635
aS'gone'
p636
aS'back'
p637
aS'to'
p638
aS'England'
p639
aS'.'
p640
asg32
(lp641
VTizzie
p642
aVDunn
p643
ag85
aVdead
p644
ag387
aVtoo
p645
ag387
aVand
p646
aVthe
p647
aVWaters
p648
aVhave
p649
aVgo
p650
aVback
p651
aVto
p652
aVEngland
p653
ag45
asg46
(lp654
VPERSON
p655
aVPERSON
p656
ag48
ag48
ag48
ag48
ag48
ag48
ag48
ag48
ag48
ag48
ag48
ag48
aVLOCATION
p657
ag48
asg49
(lp658
g333
ag333
ag52
ag134
ag408
ag265
ag408
ag105
ag54
aS'NNPS'
p659
ag52
ag103
ag265
ag266
ag333
ag57
asg58
VTizzie Dunn was dead, too, and the Waters had gone back to England.
p660
sba(i__main__
Sentence
p661
(dp662
g17
I14
sg18
(lp663
S'Everything'
p664
aS'changes'
p665
aS'.'
p666
asg32
(lp667
VEverything
p668
aVchange
p669
ag45
asg46
(lp670
g48
ag48
ag48
asg49
(lp671
g55
ag106
ag57
asg58
VEverything changes.
p672
sba(i__main__
Sentence
p673
(dp674
g17
I15
sg18
(lp675
S'Now'
p676
aS'she'
p677
aS'was'
p678
aS'going'
p679
aS'to'
p680
aS'go'
p681
aS'away'
p682
aS'like'
p683
aS'the'
p684
aS'others'
p685
aS','
p686
aS'to'
p687
aS'leave'
p688
aS'her'
p689
aS'home'
p690
aS'.'
p691
asg32
(lp692
VNow
p693
aVshe
p694
ag85
aVgo
p695
aVto
p696
aVgo
p697
aVaway
p698
aVlike
p699
aVthe
p700
aVothers
p701
ag387
aVto
p702
aVleave
p703
aVher
p704
aVhome
p705
ag45
asg46
(lp706
g48
ag48
ag48
ag48
ag48
ag48
ag48
ag48
ag48
ag48
ag48
ag48
ag48
ag48
ag48
ag48
asg49
(lp707
g265
ag51
ag52
ag56
ag266
ag267
ag265
ag53
ag54
ag106
ag408
ag266
ag267
ag102
ag55
ag57
asg58
VNow she was going to go away like the others, to leave her home.
p708
sba(i__main__
Sentence
p709
(dp710
g17
I16
sg18
(lp711
S'Home'
p712
aS'!'
p713
asg32
(lp714
VHome
p715
aV!
p716
asg46
(lp717
g48
ag48
asg49
(lp718
g55
aS'``'
p719
asg58
VHome!
p720
sba(i__main__
Sentence
p721
(dp722
g17
I17
sg18
(lp723
S'She'
p724
aS'looked'
p725
aS'round'
p726
aS'the'
p727
aS'room'
p728
aS','
p729
aS'reviewing'
p730
aS'all'
p731
aS'its'
p732
aS'familiar'
p733
aS'objects'
p734
aS'which'
p735
aS'she'
p736
aS'had'
p737
aS'dusted'
p738
aS'once'
p739
aS'a'
p740
aS'week'
p741
aS'for'
p742
aS'so'
p743
aS'many'
p744
aS'years'
p745
aS','
p746
aS'wondering'
p747
aS'where'
p748
aS'on'
p749
aS'earth'
p750
aS'all'
p751
aS'the'
p752
aS'dust'
p753
aS'came'
p754
aS'from'
p755
aS'.'
p756
asg32
(lp757
VShe
p758
aVlook
p759
aVround
p760
aVthe
p761
aVroom
p762
ag387
aVreview
p763
aVall
p764
aVit
p765
aVfamiliar
p766
aVobject
p767
aVwhich
p768
aVshe
p769
ag649
aVdust
p770
aVonce
p771
ag246
aVweek
p772
aVfor
p773
aVso
p774
aVmany
p775
aVyear
p776
ag387
aVwonder
p777
aVwhere
p778
aVon
p779
aVearth
p780
aVall
p781
aVthe
p782
aVdust
p783
aVcome
p784
aVfrom
p785
ag45
asg46
(lp786
g48
ag48
ag48
ag48
ag48
ag48
ag48
ag48
ag48
ag48
ag48
ag48
ag48
ag48
ag48
ag48
ag48
ag48
ag48
ag48
ag48
ag48
ag48
ag48
ag48
ag48
ag48
ag48
ag48
ag48
ag48
ag48
ag48
asg49
(lp787
g51
ag52
ag55
ag54
ag55
ag408
ag56
ag54
ag102
ag134
ag106
ag269
ag51
ag52
ag103
ag265
ag54
ag55
ag53
ag265
ag134
ag106
ag408
ag56
ag515
ag53
ag134
ag54
ag54
ag55
ag52
ag53
ag57
asg58
VShe looked round the room, reviewing all its familiar objects which she had dusted once a week for so many years, wondering where on earth all the dust came from.
p788
sba(i__main__
Sentence
p789
(dp790
g17
I18
sg18
(lp791
S'Perhaps'
p792
aS'she'
p793
aS'would'
p794
aS'never'
p795
aS'see'
p796
aS'again'
p797
aS'those'
p798
aS'familiar'
p799
aS'objects'
p800
aS'from'
p801
aS'which'
p802
aS'she'
p803
aS'had'
p804
aS'never'
p805
aS'dreamed'
p806
aS'of'
p807
aS'being'
p808
aS'divided'
p809
aS'.'
p810
asg32
(lp811
VPerhaps
p812
aVshe
p813
aVwould
p814
aVnever
p815
aVsee
p816
aVagain
p817
aVthose
p818
aVfamiliar
p819
aVobject
p820
aVfrom
p821
aVwhich
p822
aVshe
p823
ag649
aVnever
p824
aVdream
p825
aVof
p826
aVbe
p827
aVdivide
p828
ag45
asg46
(lp829
g48
ag48
ag48
ag48
ag48
ag48
ag48
ag48
ag48
ag48
ag48
ag48
ag48
ag48
ag48
ag48
ag48
ag48
ag48
asg49
(lp830
g265
ag51
aS'MD'
p831
ag265
ag267
ag265
ag54
ag134
ag106
ag53
ag269
ag51
ag52
ag265
ag103
ag53
ag56
ag103
ag57
asg58
VPerhaps she would never see again those familiar objects from which she had never dreamed of being divided.
p832
sba(i__main__
Sentence
p833
(dp834
g17
I19
sg18
(lp835
S'And'
p836
aS'yet'
p837
aS'during'
p838
aS'all'
p839
aS'those'
p840
aS'years'
p841
aS'she'
p842
aS'had'
p843
aS'never'
p844
aS'found'
p845
aS'out'
p846
aS'the'
p847
aS'name'
p848
aS'of'
p849
aS'the'
p850
aS'priest'
p851
aS'whose'
p852
aS'yellowing'
p853
aS'photograph'
p854
aS'hung'
p855
aS'on'
p856
aS'the'
p857
aS'wall'
p858
aS'above'
p859
aS'the'
p860
aS'broken'
p861
aS'harmonium'
p862
aS'beside'
p863
aS'the'
p864
aS'coloured'
p865
aS'print'
p866
aS'of'
p867
aS'the'
p868
aS'promises'
p869
aS'made'
p870
aS'to'
p871
aS'Blessed'
p872
aS'Margaret'
p873
aS'Mary'
p874
aS'Alacoque'
p875
aS'.'
p876
asg32
(lp877
VAnd
p878
aVyet
p879
aVduring
p880
aVall
p881
aVthose
p882
aVyear
p883
aVshe
p884
ag649
aVnever
p885
aVfind
p886
aVout
p887
aVthe
p888
aVname
p889
aVof
p890
aVthe
p891
aVpriest
p892
aVwhose
p893
aVyellow
p894
aVphotograph
p895
aVhung
p896
aVon
p897
aVthe
p898
aVwall
p899
aVabove
p900
aVthe
p901
aVbreak
p902
aVharmonium
p903
aVbeside
p904
aVthe
p905
aVcolour
p906
aVprint
p907
aVof
p908
aVthe
p909
aVpromise
p910
aVmake
p911
aVto
p912
aVBlessed
p913
aVMargaret
p914
aVMary
p915
aVAlacoque
p916
ag45
asg46
(lp917
g48
ag48
ag48
ag48
ag48
ag48
ag48
ag48
ag48
ag48
ag48
ag48
ag48
ag48
ag48
ag48
ag48
ag48
ag48
ag48
ag48
ag48
ag48
ag48
ag48
ag48
ag48
ag48
ag48
ag48
ag48
ag48
ag48
ag48
ag48
ag48
ag48
aVPERSON
p918
aVPERSON
p919
aVPERSON
p920
ag48
asg49
(lp921
g105
ag265
ag53
ag54
ag54
ag106
ag51
ag52
ag265
ag103
ag407
ag54
ag55
ag53
ag54
aS'JJS'
p922
aS'WP$'
p923
ag56
ag55
ag55
ag53
ag54
ag55
ag53
ag54
ag103
ag55
ag55
ag54
ag103
ag55
ag53
ag54
ag106
ag103
ag266
ag333
ag333
ag333
ag333
ag57
asg58
VAnd yet during all those years she had never found out the name of the priest whose yellowing photograph hung on the wall above the broken harmonium beside the coloured print of the promises made to Blessed Margaret Mary Alacoque.
p924
sba(i__main__
Sentence
p925
(dp926
g17
I20
sg18
(lp927
S'He'
p928
aS'had'
p929
aS'been'
p930
aS'a'
p931
aS'school'
p932
aS'friend'
p933
aS'of'
p934
aS'her'
p935
aS'father'
p936
aS'.'
p937
asg32
(lp938
VHe
p939
ag649
ag536
ag246
aVschool
p940
aVfriend
p941
aVof
p942
aVher
p943
aVfather
p944
ag45
asg46
(lp945
g48
ag48
ag48
ag48
ag48
ag48
ag48
ag48
ag48
ag48
asg49
(lp946
g51
ag52
ag103
ag54
ag55
ag55
ag53
ag102
ag55
ag57
asg58
VHe had been a school friend of her father.
p947
sba(i__main__
Sentence
p948
(dp949
g17
I21
sg18
(lp950
S'Whenever'
p951
aS'he'
p952
aS'showed'
p953
aS'the'
p954
aS'photograph'
p955
aS'to'
p956
aS'a'
p957
aS'visitor'
p958
aS'her'
p959
aS'father'
p960
aS'used'
p961
aS'to'
p962
aS'pass'
p963
aS'it'
p964
aS'with'
p965
aS'a'
p966
aS'casual'
p967
aS'word'
p968
aS':'
p969
aS'``'
p970
aS'He'
p971
aS'is'
p972
aS'in'
p973
aS'Melbourne'
p974
aS'now'
p975
aS'.'
p976
aS"''"
p977
asg32
(lp978
VWhenever
p979
aVhe
p980
aVshow
p981
aVthe
p982
aVphotograph
p983
aVto
p984
ag246
aVvisitor
p985
aVher
p986
aVfather
p987
aVuse
p988
aVto
p989
aVpass
p990
aVit
p991
aVwith
p992
ag246
aVcasual
p993
aVword
p994
ag431
aV``
p995
aVHe
p996
aVbe
p997
aVin
p998
aVMelbourne
p999
aVnow
p1000
ag45
aV''
p1001
asg46
(lp1002
g48
ag48
ag48
ag48
ag48
ag48
ag48
ag48
ag48
ag48
ag48
ag48
ag48
ag48
ag48
ag48
ag48
ag48
ag48
ag48
ag48
ag48
ag48
aVLOCATION
p1003
ag48
ag48
ag48
asg49
(lp1004
g265
ag51
ag52
ag54
ag55
ag266
ag54
ag55
ag51
ag265
ag103
ag266
ag267
ag51
ag53
ag54
ag134
ag55
ag211
ag719
ag51
ag104
ag53
ag333
ag265
ag57
aS"''"
p1005
asg58
VWhenever he showed the photograph to a visitor her father used to pass it with a casual word:    "He is in Melbourne now."
p1006
sba(i__main__
Sentence
p1007
(dp1008
g17
I22
sg18
(lp1009
S'She'
p1010
aS'had'
p1011
aS'consented'
p1012
aS'to'
p1013
aS'go'
p1014
aS'away'
p1015
aS','
p1016
aS'to'
p1017
aS'leave'
p1018
aS'her'
p1019
aS'home'
p1020
aS'.'
p1021
asg32
(lp1022
VShe
p1023
ag649
aVconsent
p1024
aVto
p1025
aVgo
p1026
aVaway
p1027
ag387
aVto
p1028
aVleave
p1029
aVher
p1030
aVhome
p1031
ag45
asg46
(lp1032
g48
ag48
ag48
ag48
ag48
ag48
ag48
ag48
ag48
ag48
ag48
ag48
asg49
(lp1033
g51
ag52
ag103
ag266
ag267
ag265
ag408
ag266
ag267
ag102
ag55
ag57
asg58
VShe had consented to go away, to leave her home.
p1034
sba(i__main__
Sentence
p1035
(dp1036
g17
I23
sg18
(lp1037
S'Was'
p1038
aS'that'
p1039
aS'wise'
p1040
aS'?'
p1041
asg32
(lp1042
VWas
p1043
aVthat
p1044
aVwise
p1045
aV?
p1046
asg46
(lp1047
g48
ag48
ag48
ag48
asg49
(lp1048
g333
ag53
ag55
ag57
asg58
VWas that wise?
p1049
sba(i__main__
Sentence
p1050
(dp1051
g17
I24
sg18
(lp1052
S'She'
p1053
aS'tried'
p1054
aS'to'
p1055
aS'weigh'
p1056
aS'each'
p1057
aS'side'
p1058
aS'of'
p1059
aS'the'
p1060
aS'question'
p1061
aS'.'
p1062
asg32
(lp1063
VShe
p1064
aVtry
p1065
aVto
p1066
aVweigh
p1067
aVeach
p1068
aVside
p1069
aVof
p1070
aVthe
p1071
aVquestion
p1072
ag45
asg46
(lp1073
g48
ag48
ag48
ag48
ag48
ag48
ag48
ag48
ag48
ag48
asg49
(lp1074
g51
ag52
ag266
ag267
ag54
ag55
ag53
ag54
ag55
ag57
asg58
VShe tried to weigh each side of the question.
p1075
sba(i__main__
Sentence
p1076
(dp1077
g17
I25
sg18
(lp1078
S'In'
p1079
aS'her'
p1080
aS'home'
p1081
aS'anyway'
p1082
aS'she'
p1083
aS'had'
p1084
aS'shelter'
p1085
aS'and'
p1086
aS'food'
p1087
aS';'
p1088
aS'she'
p1089
aS'had'
p1090
aS'those'
p1091
aS'whom'
p1092
aS'she'
p1093
aS'had'
p1094
aS'known'
p1095
aS'all'
p1096
aS'her'
p1097
aS'life'
p1098
aS'about'
p1099
aS'her'
p1100
aS'.'
p1101
asg32
(lp1102
VIn
p1103
aVher
p1104
aVhome
p1105
aVanyway
p1106
aVshe
p1107
ag649
aVshelter
p1108
aVand
p1109
aVfood
p1110
ag187
aVshe
p1111
ag649
aVthose
p1112
aVwhom
p1113
aVshe
p1114
ag649
aVknow
p1115
aVall
p1116
aVher
p1117
aVlife
p1118
aVabout
p1119
aVher
p1120
ag45
asg46
(lp1121
g48
ag48
ag48
ag48
ag48
ag48
ag48
ag48
ag48
ag48
ag48
ag48
ag48
ag48
ag48
ag48
ag48
ag48
ag48
ag48
ag48
ag48
ag48
asg49
(lp1122
g53
ag102
ag55
ag55
ag51
ag52
ag55
ag105
ag55
ag211
ag51
ag52
ag54
ag55
ag51
ag52
ag103
ag54
ag102
ag55
ag53
ag102
ag57
asg58
VIn her home anyway she had shelter and food; she had those whom she had known all her life about her.
p1123
sba(i__main__
Sentence
p1124
(dp1125
g17
I26
sg18
(lp1126
S'O'
p1127
aS'course'
p1128
aS'she'
p1129
aS'had'
p1130
aS'to'
p1131
aS'work'
p1132
aS'hard'
p1133
aS','
p1134
aS'both'
p1135
aS'in'
p1136
aS'the'
p1137
aS'house'
p1138
aS'and'
p1139
aS'at'
p1140
aS'business'
p1141
aS'.'
p1142
asg32
(lp1143
g48
aVcourse
p1144
aVshe
p1145
ag649
aVto
p1146
aVwork
p1147
aVhard
p1148
ag387
aVboth
p1149
aVin
p1150
aVthe
p1151
aVhouse
p1152
aVand
p1153
aVat
p1154
aVbusiness
p1155
ag45
asg46
(lp1156
g48
ag48
ag48
ag48
ag48
ag48
ag48
ag48
ag48
ag48
ag48
ag48
ag48
ag48
ag48
ag48
asg49
(lp1157
g333
ag55
ag51
ag52
ag266
ag267
ag265
ag408
ag54
ag53
ag54
ag55
ag105
ag53
ag55
ag57
asg58
VO course she had to work hard, both in the house and at business.
p1158
sba(i__main__
Sentence
p1159
(dp1160
g17
I27
sg18
(lp1161
S'What'
p1162
aS'would'
p1163
aS'they'
p1164
aS'say'
p1165
aS'of'
p1166
aS'her'
p1167
aS'in'
p1168
aS'the'
p1169
aS'Stores'
p1170
aS'when'
p1171
aS'they'
p1172
aS'found'
p1173
aS'out'
p1174
aS'that'
p1175
aS'she'
p1176
aS'had'
p1177
aS'run'
p1178
aS'away'
p1179
aS'with'
p1180
aS'a'
p1181
aS'fellow'
p1182
aS'?'
p1183
asg32
(lp1184
VWhat
p1185
aVwould
p1186
aVthey
p1187
aVsay
p1188
aVof
p1189
aVher
p1190
aVin
p1191
aVthe
p1192
aVStores
p1193
aVwhen
p1194
aVthey
p1195
ag886
aVout
p1196
aVthat
p1197
aVshe
p1198
ag649
aVrun
p1199
aVaway
p1200
aVwith
p1201
ag246
aVfellow
p1202
ag1046
asg46
(lp1203
g48
ag48
ag48
ag48
ag48
ag48
ag48
ag48
aVORGANIZATION
p1204
ag48
ag48
ag48
ag48
ag48
ag48
ag48
ag48
ag48
ag48
ag48
ag48
ag48
asg49
(lp1205
S'WP'
p1206
ag831
ag51
aS'VBP'
p1207
ag53
ag102
ag53
ag54
ag659
ag515
ag51
ag1207
ag407
ag53
ag51
ag52
ag103
ag265
ag53
ag54
ag134
ag57
asg58
VWhat would they say of her in the Stores when they found out that she had run away with a fellow?
p1208
sba(i__main__
Sentence
p1209
(dp1210
g17
I28
sg18
(lp1211
S'Say'
p1212
aS'she'
p1213
aS'was'
p1214
aS'a'
p1215
aS'fool'
p1216
aS','
p1217
aS'perhaps'
p1218
aS';'
p1219
aS'and'
p1220
aS'her'
p1221
aS'place'
p1222
aS'would'
p1223
aS'be'
p1224
aS'filled'
p1225
aS'up'
p1226
aS'by'
p1227
aS'advertisement'
p1228
aS'.'
p1229
asg32
(lp1230
VSay
p1231
aVshe
p1232
ag85
ag246
aVfool
p1233
ag387
aVperhaps
p1234
ag187
aVand
p1235
aVher
p1236
aVplace
p1237
aVwould
p1238
aVbe
p1239
aVfill
p1240
aVup
p1241
aVby
p1242
aVadvertisement
p1243
ag45
asg46
(lp1244
g48
ag48
ag48
ag48
ag48
ag48
ag48
ag48
ag48
ag48
ag48
ag48
ag48
ag48
ag48
ag48
ag48
ag48
asg49
(lp1245
g333
ag51
ag52
ag54
ag55
ag408
ag265
ag211
ag105
ag102
ag55
ag831
ag267
ag103
ag407
ag53
ag55
ag57
asg58
VSay she was a fool, perhaps; and her place would be filled up by advertisement.
p1246
sba(i__main__
Sentence
p1247
(dp1248
g17
I29
sg18
(lp1249
S'Miss'
p1250
aS'Gavan'
p1251
aS'would'
p1252
aS'be'
p1253
aS'glad'
p1254
aS'.'
p1255
asg32
(lp1256
VMiss
p1257
aVGavan
p1258
aVwould
p1259
aVbe
p1260
aVglad
p1261
ag45
asg46
(lp1262
g48
aVPERSON
p1263
ag48
ag48
ag48
ag48
asg49
(lp1264
g333
ag333
ag831
ag267
ag103
ag57
asg58
VMiss Gavan would be glad.
p1265
sba(i__main__
Sentence
p1266
(dp1267
g17
I30
sg18
(lp1268
S'She'
p1269
aS'had'
p1270
aS'always'
p1271
aS'had'
p1272
aS'an'
p1273
aS'edge'
p1274
aS'on'
p1275
aS'her'
p1276
aS','
p1277
aS'especially'
p1278
aS'whenever'
p1279
aS'there'
p1280
aS'were'
p1281
aS'people'
p1282
aS'listening'
p1283
aS'.'
p1284
asg32
(lp1285
VShe
p1286
ag649
aValways
p1287
ag649
aVan
p1288
aVedge
p1289
aVon
p1290
aVher
p1291
ag387
aVespecially
p1292
aVwhenever
p1293
aVthere
p1294
ag613
aVpeople
p1295
aVlisten
p1296
ag45
asg46
(lp1297
g48
ag48
ag48
ag48
ag48
ag48
ag48
ag48
ag48
ag48
ag48
ag48
ag48
ag48
ag48
ag48
asg49
(lp1298
g51
ag52
ag265
ag52
ag54
ag55
ag53
ag102
ag408
ag265
ag265
ag268
ag52
ag106
ag56
ag57
asg58
VShe had always had an edge on her, especially whenever there were people listening.
p1299
sba(i__main__
Sentence
p1300
(dp1301
g17
I31
sg18
(lp1302
S'``'
p1303
aS'Miss'
p1304
aS'Hill'
p1305
aS','
p1306
aS'do'
p1307
aS"n't"
p1308
aS'you'
p1309
aS'see'
p1310
aS'these'
p1311
aS'ladies'
p1312
aS'are'
p1313
aS'waiting'
p1314
aS'?'
p1315
aS"''"
p1316
asg32
(lp1317
V``
p1318
aVMiss
p1319
aVHill
p1320
ag387
aVdo
p1321
aVn't
p1322
aVyou
p1323
aVsee
p1324
aVthese
p1325
aVlady
p1326
aVbe
p1327
aVwait
p1328
ag1046
aV''
p1329
asg46
(lp1330
g48
ag48
aVPERSON
p1331
ag48
ag48
ag48
ag48
ag48
ag48
ag48
ag48
ag48
ag48
ag48
asg49
(lp1332
g719
ag134
ag333
ag408
ag1207
ag265
ag51
ag267
ag54
ag106
ag1207
ag56
ag57
ag1005
asg58
V"Miss Hill, don't you see these ladies are waiting?"
p1333
sba(i__main__
Sentence
p1334
(dp1335
g17
I32
sg18
(lp1336
S'``'
p1337
aS'Look'
p1338
aS'lively'
p1339
aS','
p1340
aS'Miss'
p1341
aS'Hill'
p1342
aS','
p1343
aS'please'
p1344
aS'.'
p1345
aS"''"
p1346
asg32
(lp1347
V``
p1348
aVLook
p1349
aVlively
p1350
ag387
aVMiss
p1351
aVHill
p1352
ag387
aVplease
p1353
ag45
aV''
p1354
asg46
(lp1355
g48
ag48
ag48
ag48
ag48
aVPERSON
p1356
ag48
ag48
ag48
ag48
asg49
(lp1357
g719
ag333
ag265
ag408
ag333
ag333
ag408
ag267
ag57
ag1005
asg58
V"Look lively, Miss Hill, please."
p1358
sba(i__main__
Sentence
p1359
(dp1360
g17
I33
sg18
(lp1361
S'She'
p1362
aS'would'
p1363
aS'not'
p1364
aS'cry'
p1365
aS'many'
p1366
aS'tears'
p1367
aS'at'
p1368
aS'leaving'
p1369
aS'the'
p1370
aS'Stores'
p1371
aS'.'
p1372
asg32
(lp1373
VShe
p1374
aVwould
p1375
aVnot
p1376
aVcry
p1377
aVmany
p1378
aVtear
p1379
aVat
p1380
aVleave
p1381
aVthe
p1382
aVStores
p1383
ag45
asg46
(lp1384
g48
ag48
ag48
ag48
ag48
ag48
ag48
ag48
ag48
ag48
ag48
asg49
(lp1385
g51
ag831
ag265
ag267
ag134
ag106
ag53
ag56
ag54
ag659
ag57
asg58
VShe would not cry many tears at leaving the Stores.
p1386
sba(i__main__
Sentence
p1387
(dp1388
g17
I34
sg18
(lp1389
S'But'
p1390
aS'in'
p1391
aS'her'
p1392
aS'new'
p1393
aS'home'
p1394
aS','
p1395
aS'in'
p1396
aS'a'
p1397
aS'distant'
p1398
aS'unknown'
p1399
aS'country'
p1400
aS','
p1401
aS'it'
p1402
aS'would'
p1403
aS'not'
p1404
aS'be'
p1405
aS'like'
p1406
aS'that'
p1407
aS'.'
p1408
asg32
(lp1409
VBut
p1410
aVin
p1411
aVher
p1412
aVnew
p1413
aVhome
p1414
ag387
aVin
p1415
ag246
aVdistant
p1416
aVunknown
p1417
aVcountry
p1418
ag387
aVit
p1419
aVwould
p1420
aVnot
p1421
aVbe
p1422
aVlike
p1423
aVthat
p1424
ag45
asg46
(lp1425
g48
ag48
ag48
ag48
ag48
ag48
ag48
ag48
ag48
ag48
ag48
ag48
ag48
ag48
ag48
ag48
ag48
ag48
ag48
asg49
(lp1426
g105
ag53
ag102
ag134
ag55
ag408
ag53
ag54
ag134
ag55
ag55
ag408
ag51
ag831
ag265
ag267
ag53
ag54
ag57
asg58
VBut in her new home, in a distant unknown country, it would not be like that.
p1427
sba(i__main__
Sentence
p1428
(dp1429
g17
I35
sg18
(lp1430
S'Then'
p1431
aS'she'
p1432
aS'would'
p1433
aS'be'
p1434
aS'married'
p1435
aS'--'
p1436
aS'she'
p1437
aS','
p1438
aS'Eveline'
p1439
aS'.'
p1440
asg32
(lp1441
VThen
p1442
aVshe
p1443
aVwould
p1444
aVbe
p1445
aVmarry
p1446
aV--
p1447
aVshe
p1448
ag387
aVEveline
p1449
ag45
asg46
(lp1450
g48
ag48
ag48
ag48
ag48
ag48
ag48
ag48
aVPERSON
p1451
ag48
asg49
(lp1452
g265
ag51
ag831
ag267
ag103
ag211
ag51
ag408
ag333
ag57
asg58
VThen she would be married -- she, Eveline.
p1453
sba(i__main__
Sentence
p1454
(dp1455
g17
I36
sg18
(lp1456
S'People'
p1457
aS'would'
p1458
aS'treat'
p1459
aS'her'
p1460
aS'with'
p1461
aS'respect'
p1462
aS'then'
p1463
aS'.'
p1464
asg32
(lp1465
VPeople
p1466
aVwould
p1467
aVtreat
p1468
aVher
p1469
aVwith
p1470
aVrespect
p1471
aVthen
p1472
ag45
asg46
(lp1473
g48
ag48
ag48
ag48
ag48
ag48
ag48
ag48
asg49
(lp1474
g106
ag831
ag267
ag51
ag53
ag55
ag265
ag57
asg58
VPeople would treat her with respect then.
p1475
sba(i__main__
Sentence
p1476
(dp1477
g17
I37
sg18
(lp1478
S'She'
p1479
aS'would'
p1480
aS'not'
p1481
aS'be'
p1482
aS'treated'
p1483
aS'as'
p1484
aS'her'
p1485
aS'mother'
p1486
aS'had'
p1487
aS'been'
p1488
aS'.'
p1489
asg32
(lp1490
VShe
p1491
aVwould
p1492
aVnot
p1493
aVbe
p1494
aVtreat
p1495
ag246
aVher
p1496
aVmother
p1497
ag649
ag536
ag45
asg46
(lp1498
g48
ag48
ag48
ag48
ag48
ag48
ag48
ag48
ag48
ag48
ag48
asg49
(lp1499
g51
ag831
ag265
ag267
ag103
ag53
ag102
ag55
ag52
ag103
ag57
asg58
VShe would not be treated as her mother had been.
p1500
sba(i__main__
Sentence
p1501
(dp1502
g17
I38
sg18
(lp1503
S'Even'
p1504
aS'now'
p1505
aS','
p1506
aS'though'
p1507
aS'she'
p1508
aS'was'
p1509
aS'over'
p1510
aS'nineteen'
p1511
aS','
p1512
aS'she'
p1513
aS'sometimes'
p1514
aS'felt'
p1515
aS'herself'
p1516
aS'in'
p1517
aS'danger'
p1518
aS'of'
p1519
aS'her'
p1520
aS'father'
p1521
aS"'s"
p1522
aS'violence'
p1523
aS'.'
p1524
asg32
(lp1525
VEven
p1526
aVnow
p1527
ag387
aVthough
p1528
aVshe
p1529
ag85
aVover
p1530
aVnineteen
p1531
ag387
aVshe
p1532
aVsometimes
p1533
aVfelt
p1534
aVherself
p1535
aVin
p1536
aVdanger
p1537
aVof
p1538
aVher
p1539
aVfather
p1540
aV's
p1541
aVviolence
p1542
ag45
asg46
(lp1543
g48
ag48
ag48
ag48
ag48
ag48
ag48
ag48
ag48
ag48
ag48
ag48
ag48
ag48
ag48
ag48
ag48
ag48
ag48
ag48
ag48
asg49
(lp1544
g265
ag265
ag408
ag53
ag51
ag52
ag265
ag103
ag408
ag51
ag265
ag52
ag51
ag53
aS'JJR'
p1545
ag53
ag102
ag55
ag270
ag55
ag57
asg58
VEven now, though she was over nineteen, she sometimes felt herself in danger of her father's violence.
p1546
sba(i__main__
Sentence
p1547
(dp1548
g17
I39
sg18
(lp1549
S'She'
p1550
aS'knew'
p1551
aS'it'
p1552
aS'was'
p1553
aS'that'
p1554
aS'that'
p1555
aS'had'
p1556
aS'given'
p1557
aS'her'
p1558
aS'the'
p1559
aS'palpitations'
p1560
aS'.'
p1561
asg32
(lp1562
VShe
p1563
aVknow
p1564
aVit
p1565
ag85
aVthat
p1566
aVthat
p1567
ag649
aVgive
p1568
aVher
p1569
aVthe
p1570
aVpalpitation
p1571
ag45
asg46
(lp1572
g48
ag48
ag48
ag48
ag48
ag48
ag48
ag48
ag48
ag48
ag48
ag48
asg49
(lp1573
g51
ag52
ag51
ag52
ag53
ag54
ag52
ag103
ag102
ag54
ag106
ag57
asg58
VShe knew it was that that had given her the palpitations.
p1574
sba(i__main__
Sentence
p1575
(dp1576
g17
I40
sg18
(lp1577
S'When'
p1578
aS'they'
p1579
aS'were'
p1580
aS'growing'
p1581
aS'up'
p1582
aS'he'
p1583
aS'had'
p1584
aS'never'
p1585
aS'gone'
p1586
aS'for'
p1587
aS'her'
p1588
aS'like'
p1589
aS'he'
p1590
aS'used'
p1591
aS'to'
p1592
aS'go'
p1593
aS'for'
p1594
aS'Harry'
p1595
aS'and'
p1596
aS'Ernest'
p1597
aS','
p1598
aS'because'
p1599
aS'she'
p1600
aS'was'
p1601
aS'a'
p1602
aS'girl'
p1603
aS'but'
p1604
aS'latterly'
p1605
aS'he'
p1606
aS'had'
p1607
aS'begun'
p1608
aS'to'
p1609
aS'threaten'
p1610
aS'her'
p1611
aS'and'
p1612
aS'say'
p1613
aS'what'
p1614
aS'he'
p1615
aS'would'
p1616
aS'do'
p1617
aS'to'
p1618
aS'her'
p1619
aS'only'
p1620
aS'for'
p1621
aS'her'
p1622
aS'dead'
p1623
aS'mother'
p1624
aS"'s"
p1625
aS'sake'
p1626
aS'.'
p1627
asg32
(lp1628
VWhen
p1629
aVthey
p1630
ag613
aVgrow
p1631
aVup
p1632
aVhe
p1633
ag649
aVnever
p1634
ag650
aVfor
p1635
aVher
p1636
aVlike
p1637
aVhe
p1638
aVuse
p1639
aVto
p1640
aVgo
p1641
aVfor
p1642
aVHarry
p1643
aVand
p1644
aVErnest
p1645
ag387
aVbecause
p1646
aVshe
p1647
ag85
ag246
aVgirl
p1648
aVbut
p1649
aVlatterly
p1650
aVhe
p1651
ag649
aVbegin
p1652
aVto
p1653
aVthreaten
p1654
aVher
p1655
aVand
p1656
aVsay
p1657
aVwhat
p1658
aVhe
p1659
aVwould
p1660
aVdo
p1661
aVto
p1662
aVher
p1663
aVonly
p1664
aVfor
p1665
aVher
p1666
aVdead
p1667
aVmother
p1668
aV's
p1669
aVsake
p1670
ag45
asg46
(lp1671
g48
ag48
ag48
ag48
ag48
ag48
ag48
ag48
ag48
ag48
ag48
ag48
ag48
ag48
ag48
ag48
ag48
aVPERSON
p1672
ag48
aVPERSON
p1673
ag48
ag48
ag48
ag48
ag48
ag48
ag48
ag48
ag48
ag48
ag48
ag48
ag48
ag48
ag48
ag48
ag48
ag48
ag48
ag48
ag48
ag48
ag48
ag48
ag48
ag48
ag48
ag48
ag48
ag48
asg49
(lp1674
g515
ag51
ag52
ag56
ag407
ag51
ag52
ag265
ag103
ag53
ag102
ag55
ag51
ag52
ag266
ag267
ag53
ag333
ag105
ag333
ag408
ag53
ag51
ag52
ag54
ag55
ag105
ag265
ag51
ag52
ag103
ag266
ag267
ag102
ag105
ag267
ag1206
ag51
ag831
ag267
ag266
ag102
ag134
ag53
ag51
ag265
ag265
ag104
ag55
ag57
asg58
VWhen they were growing up he had never gone for her like he used to go for Harry and Ernest, because she was a girl but latterly he had begun to threaten her and say what he would do to her only for her dead mother's sake.
p1675
sba(i__main__
Sentence
p1676
(dp1677
g17
I41
sg18
(lp1678
S'And'
p1679
aS'no'
p1680
aS'she'
p1681
aS'had'
p1682
aS'nobody'
p1683
aS'to'
p1684
aS'protect'
p1685
aS'her'
p1686
aS'.'
p1687
asg32
(lp1688
VAnd
p1689
aVno
p1690
aVshe
p1691
ag649
aVnobody
p1692
aVto
p1693
aVprotect
p1694
aVher
p1695
ag45
asg46
(lp1696
g48
ag48
ag48
ag48
ag48
ag48
ag48
ag48
ag48
asg49
(lp1697
g105
ag54
ag51
ag52
ag55
ag266
ag267
ag51
ag57
asg58
VAnd no she had nobody to protect her.
p1698
sba(i__main__
Sentence
p1699
(dp1700
g17
I42
sg18
(lp1701
S'Ernest'
p1702
aS'was'
p1703
aS'dead'
p1704
aS'and'
p1705
aS'Harry'
p1706
aS','
p1707
aS'who'
p1708
aS'was'
p1709
aS'in'
p1710
aS'the'
p1711
aS'church'
p1712
aS'decorating'
p1713
aS'business'
p1714
aS','
p1715
aS'was'
p1716
aS'nearly'
p1717
aS'always'
p1718
aS'down'
p1719
aS'somewhere'
p1720
aS'in'
p1721
aS'the'
p1722
aS'country'
p1723
aS'.'
p1724
asg32
(lp1725
VErnest
p1726
ag85
aVdead
p1727
aVand
p1728
aVHarry
p1729
ag387
aVwho
p1730
ag85
aVin
p1731
aVthe
p1732
aVchurch
p1733
aVdecorate
p1734
aVbusiness
p1735
ag387
ag85
aVnearly
p1736
aValways
p1737
aVdown
p1738
aVsomewhere
p1739
aVin
p1740
aVthe
p1741
aVcountry
p1742
ag45
asg46
(lp1743
VPERSON
p1744
ag48
ag48
ag48
aVPERSON
p1745
ag48
ag48
ag48
ag48
ag48
ag48
ag48
ag48
ag48
ag48
ag48
ag48
ag48
ag48
ag48
ag48
ag48
ag48
asg49
(lp1746
g333
ag52
ag134
ag105
ag333
ag408
ag1206
ag52
ag53
ag54
ag55
ag56
ag55
ag408
ag52
ag265
ag265
ag53
ag265
ag53
ag54
ag55
ag57
asg58
VErnest was dead and Harry, who was in the church decorating business, was nearly always down somewhere in the country.
p1747
sba(i__main__
Sentence
p1748
(dp1749
g17
I43
sg18
(lp1750
S'Besides'
p1751
aS','
p1752
aS'the'
p1753
aS'invariable'
p1754
aS'squabble'
p1755
aS'for'
p1756
aS'money'
p1757
aS'on'
p1758
aS'Saturday'
p1759
aS'nights'
p1760
aS'had'
p1761
aS'begun'
p1762
aS'to'
p1763
aS'weary'
p1764
aS'her'
p1765
aS'unspeakably'
p1766
aS'.'
p1767
asg32
(lp1768
VBesides
p1769
ag387
aVthe
p1770
aVinvariable
p1771
aVsquabble
p1772
aVfor
p1773
aVmoney
p1774
aVon
p1775
aVSaturday
p1776
aVnight
p1777
ag649
ag1652
aVto
p1778
aVweary
p1779
aVher
p1780
aVunspeakably
p1781
ag45
asg46
(lp1782
g48
ag48
ag48
ag48
ag48
ag48
ag48
ag48
ag48
ag48
ag48
ag48
ag48
ag48
ag48
ag48
ag48
asg49
(lp1783
g53
ag408
ag54
ag134
ag134
ag53
ag55
ag53
ag333
ag106
ag52
ag103
ag266
ag134
ag102
ag55
ag57
asg58
VBesides, the invariable squabble for money on Saturday nights had begun to weary her unspeakably.
p1784
sba(i__main__
Sentence
p1785
(dp1786
g17
I44
sg18
(lp1787
S'She'
p1788
aS'always'
p1789
aS'gave'
p1790
aS'her'
p1791
aS'entire'
p1792
aS'wages'
p1793
aS'--'
p1794
aS'seven'
p1795
aS'shillings'
p1796
aS'--'
p1797
aS'and'
p1798
aS'Harry'
p1799
aS'always'
p1800
aS'sent'
p1801
aS'up'
p1802
aS'what'
p1803
aS'he'
p1804
aS'could'
p1805
aS'but'
p1806
aS'the'
p1807
aS'trouble'
p1808
aS'was'
p1809
aS'to'
p1810
aS'get'
p1811
aS'any'
p1812
aS'money'
p1813
aS'from'
p1814
aS'her'
p1815
aS'father'
p1816
aS'.'
p1817
asg32
(lp1818
VShe
p1819
aValways
p1820
aVgive
p1821
aVher
p1822
aVentire
p1823
aVwage
p1824
aV--
p1825
aVseven
p1826
aVshilling
p1827
aV--
p1828
aVand
p1829
aVHarry
p1830
aValways
p1831
aVsend
p1832
aVup
p1833
aVwhat
p1834
aVhe
p1835
aVcould
p1836
aVbut
p1837
aVthe
p1838
aVtrouble
p1839
ag85
aVto
p1840
aVget
p1841
aVany
p1842
aVmoney
p1843
aVfrom
p1844
aVher
p1845
aVfather
p1846
ag45
asg46
(lp1847
g48
ag48
ag48
ag48
ag48
ag48
ag48
ag48
ag48
ag48
ag48
aVPERSON
p1848
ag48
ag48
ag48
ag48
ag48
ag48
ag48
ag48
ag48
ag48
ag48
ag48
ag48
ag48
ag48
ag48
ag48
ag48
asg49
(lp1849
g51
ag265
ag52
ag51
ag134
ag106
ag211
ag264
ag106
ag211
ag105
ag333
ag265
ag103
ag407
ag1206
ag51
ag831
ag267
ag54
ag55
ag52
ag266
ag267
ag54
ag55
ag53
ag102
ag55
ag57
asg58
VShe always gave her entire wages -- seven shillings -- and Harry always sent up what he could but the trouble was to get any money from her father.
p1850
sba(i__main__
Sentence
p1851
(dp1852
g17
I45
sg18
(lp1853
S'He'
p1854
aS'said'
p1855
aS'she'
p1856
aS'used'
p1857
aS'to'
p1858
aS'squander'
p1859
aS'the'
p1860
aS'money'
p1861
aS','
p1862
aS'that'
p1863
aS'she'
p1864
aS'had'
p1865
aS'no'
p1866
aS'head'
p1867
aS','
p1868
aS'that'
p1869
aS'he'
p1870
aS'was'
p1871
aS"n't"
p1872
aS'going'
p1873
aS'to'
p1874
aS'give'
p1875
aS'her'
p1876
aS'his'
p1877
aS'hard-earned'
p1878
aS'money'
p1879
aS'to'
p1880
aS'throw'
p1881
aS'about'
p1882
aS'the'
p1883
aS'streets'
p1884
aS','
p1885
aS'and'
p1886
aS'much'
p1887
aS'more'
p1888
aS','
p1889
aS'for'
p1890
aS'he'
p1891
aS'was'
p1892
aS'usually'
p1893
aS'fairly'
p1894
aS'bad'
p1895
aS'on'
p1896
aS'Saturday'
p1897
aS'night'
p1898
aS'.'
p1899
asg32
(lp1900
VHe
p1901
aVsay
p1902
aVshe
p1903
aVuse
p1904
aVto
p1905
aVsquander
p1906
aVthe
p1907
aVmoney
p1908
ag387
aVthat
p1909
aVshe
p1910
ag649
aVno
p1911
aVhead
p1912
ag387
aVthat
p1913
aVhe
p1914
ag85
aVn't
p1915
aVgo
p1916
aVto
p1917
aVgive
p1918
aVher
p1919
aVhis
p1920
aVhard-earned
p1921
aVmoney
p1922
aVto
p1923
aVthrow
p1924
aVabout
p1925
aVthe
p1926
aVstreet
p1927
ag387
aVand
p1928
aVmuch
p1929
aVmore
p1930
ag387
aVfor
p1931
aVhe
p1932
ag85
aVusually
p1933
aVfairly
p1934
aVbad
p1935
aVon
p1936
aVSaturday
p1937
aVnight
p1938
ag45
asg46
(lp1939
g48
ag48
ag48
ag48
ag48
ag48
ag48
ag48
ag48
ag48
ag48
ag48
ag48
ag48
ag48
ag48
ag48
ag48
ag48
ag48
ag48
ag48
ag48
ag48
ag48
ag48
ag48
ag48
ag48
ag48
ag48
ag48
ag48
ag48
ag48
ag48
ag48
ag48
ag48
ag48
ag48
ag48
ag48
ag48
ag48
ag48
asg49
(lp1940
g51
ag52
ag51
ag52
ag266
ag55
ag54
ag55
ag408
ag53
ag51
ag52
ag54
ag55
ag408
ag53
ag51
ag52
ag265
ag56
ag266
ag267
ag102
ag102
ag134
ag55
ag266
ag267
ag53
ag54
ag106
ag408
ag105
ag134
aS'RBR'
p1941
ag408
ag53
ag51
ag52
ag265
ag265
ag134
ag53
ag333
ag55
ag57
asg58
VHe said she used to squander the money, that she had no head, that he wasn't going to give her his hard-earned money to throw about the streets, and much more, for he was usually fairly bad on Saturday night.
p1942
sba(i__main__
Sentence
p1943
(dp1944
g17
I46
sg18
(lp1945
S'In'
p1946
aS'the'
p1947
aS'end'
p1948
aS'he'
p1949
aS'would'
p1950
aS'give'
p1951
aS'her'
p1952
aS'the'
p1953
aS'money'
p1954
aS'and'
p1955
aS'ask'
p1956
aS'her'
p1957
aS'had'
p1958
aS'she'
p1959
aS'any'
p1960
aS'intention'
p1961
aS'of'
p1962
aS'buying'
p1963
aS'Sunday'
p1964
aS"'s"
p1965
aS'dinner'
p1966
aS'.'
p1967
asg32
(lp1968
VIn
p1969
aVthe
p1970
aVend
p1971
aVhe
p1972
aVwould
p1973
aVgive
p1974
aVher
p1975
aVthe
p1976
aVmoney
p1977
aVand
p1978
aVask
p1979
aVher
p1980
aVhad
p1981
aVshe
p1982
aVany
p1983
aVintention
p1984
aVof
p1985
aVbuying
p1986
aVSunday
p1987
aV's
p1988
aVdinner
p1989
ag45
asg46
(lp1990
g48
ag48
ag48
ag48
ag48
ag48
ag48
ag48
ag48
ag48
ag48
ag48
ag48
ag48
ag48
ag48
ag48
ag48
ag48
ag48
ag48
ag48
asg49
(lp1991
g53
ag54
ag55
ag51
ag831
ag267
ag51
ag54
ag55
ag105
ag267
ag102
ag55
ag51
ag54
ag55
ag53
ag55
ag333
ag270
ag55
ag57
asg58
VIn the end he would give her the money and ask her had she any intention of buying Sunday's dinner.
p1992
sba(i__main__
Sentence
p1993
(dp1994
g17
I47
sg18
(lp1995
S'Then'
p1996
aS'she'
p1997
aS'had'
p1998
aS'to'
p1999
aS'rush'
p2000
aS'out'
p2001
aS'as'
p2002
aS'quickly'
p2003
aS'as'
p2004
aS'she'
p2005
aS'could'
p2006
aS'and'
p2007
aS'do'
p2008
aS'her'
p2009
aS'marketing'
p2010
aS','
p2011
aS'holding'
p2012
aS'her'
p2013
aS'black'
p2014
aS'leather'
p2015
aS'purse'
p2016
aS'tightly'
p2017
aS'in'
p2018
aS'her'
p2019
aS'hand'
p2020
aS'as'
p2021
aS'she'
p2022
aS'elbowed'
p2023
aS'her'
p2024
aS'way'
p2025
aS'through'
p2026
aS'the'
p2027
aS'crowds'
p2028
aS'and'
p2029
aS'returning'
p2030
aS'home'
p2031
aS'late'
p2032
aS'under'
p2033
aS'her'
p2034
aS'load'
p2035
aS'of'
p2036
aS'provisions'
p2037
aS'.'
p2038
asg32
(lp2039
VThen
p2040
aVshe
p2041
ag649
aVto
p2042
aVrush
p2043
aVout
p2044
aVas
p2045
aVquickly
p2046
ag246
aVshe
p2047
aVcould
p2048
aVand
p2049
aVdo
p2050
aVher
p2051
aVmarketing
p2052
ag387
aVhold
p2053
aVher
p2054
aVblack
p2055
aVleather
p2056
aVpurse
p2057
aVtightly
p2058
aVin
p2059
aVher
p2060
aVhand
p2061
ag246
aVshe
p2062
aVelbow
p2063
aVher
p2064
aVway
p2065
aVthrough
p2066
aVthe
p2067
aVcrowd
p2068
aVand
p2069
aVreturn
p2070
aVhome
p2071
aVlate
p2072
aVunder
p2073
aVher
p2074
aVload
p2075
aVof
p2076
aVprovision
p2077
ag45
asg46
(lp2078
g48
ag48
ag48
ag48
ag48
ag48
ag48
ag48
ag48
ag48
ag48
ag48
ag48
ag48
ag48
ag48
ag48
ag48
ag48
ag48
ag48
ag48
ag48
ag48
ag48
ag48
ag48
ag48
ag48
ag48
ag48
ag48
ag48
ag48
ag48
ag48
ag48
ag48
ag48
ag48
ag48
ag48
ag48
asg49
(lp2079
g265
ag51
ag52
ag266
ag267
ag407
ag265
ag265
ag53
ag51
ag831
ag105
ag267
ag102
ag55
ag408
ag56
ag51
ag1207
ag265
ag55
ag265
ag53
ag102
ag55
ag53
ag51
ag52
ag102
ag55
ag53
ag54
ag106
ag105
ag56
ag55
ag265
ag53
ag102
ag55
ag53
ag106
ag57
asg58
VThen she had to rush out as quickly as she could and do her marketing, holding her black leather purse tightly in her hand as she elbowed her way through the crowds and returning home late under her load of provisions.
p2080
sba(i__main__
Sentence
p2081
(dp2082
g17
I48
sg18
(lp2083
S'She'
p2084
aS'had'
p2085
aS'hard'
p2086
aS'work'
p2087
aS'to'
p2088
aS'keep'
p2089
aS'the'
p2090
aS'house'
p2091
aS'together'
p2092
aS'and'
p2093
aS'to'
p2094
aS'see'
p2095
aS'that'
p2096
aS'the'
p2097
aS'two'
p2098
aS'young'
p2099
aS'children'
p2100
aS'who'
p2101
aS'had'
p2102
aS'been'
p2103
aS'left'
p2104
aS'to'
p2105
aS'hr'
p2106
aS'charge'
p2107
aS'went'
p2108
aS'to'
p2109
aS'school'
p2110
aS'regularly'
p2111
aS'and'
p2112
aS'got'
p2113
aS'their'
p2114
aS'meals'
p2115
aS'regularly'
p2116
aS'.'
p2117
asg32
(lp2118
VShe
p2119
ag649
aVhard
p2120
aVwork
p2121
aVto
p2122
aVkeep
p2123
aVthe
p2124
aVhouse
p2125
aVtogether
p2126
aVand
p2127
aVto
p2128
aVsee
p2129
aVthat
p2130
aVthe
p2131
aVtwo
p2132
aVyoung
p2133
ag261
aVwho
p2134
ag649
ag536
aVleave
p2135
aVto
p2136
aVhr
p2137
aVcharge
p2138
aVwent
p2139
aVto
p2140
aVschool
p2141
aVregularly
p2142
aVand
p2143
aVget
p2144
aVtheir
p2145
aVmeal
p2146
aVregularly
p2147
ag45
asg46
(lp2148
g48
ag48
ag48
ag48
ag48
ag48
ag48
ag48
ag48
ag48
ag48
ag48
ag48
ag48
ag48
ag48
ag48
ag48
ag48
ag48
ag48
ag48
ag48
ag48
ag48
ag48
ag48
ag48
ag48
ag48
ag48
ag48
ag48
ag48
asg49
(lp2149
g51
ag52
ag265
ag267
ag266
ag267
ag54
ag55
ag55
ag105
ag266
ag267
ag53
ag54
ag264
ag134
ag106
ag1206
ag52
ag103
ag103
ag266
ag267
ag55
ag55
ag266
ag55
ag265
ag105
ag52
ag102
ag106
ag265
ag57
asg58
VShe had hard work to keep the house together and to see that the two young children who had been left to hr charge went to school regularly and got their meals regularly.
p2150
sba(i__main__
Sentence
p2151
(dp2152
g17
I49
sg18
(lp2153
S'It'
p2154
aS'was'
p2155
aS'hard'
p2156
aS'work'
p2157
aS'--'
p2158
aS'a'
p2159
aS'hard'
p2160
aS'life'
p2161
aS'--'
p2162
aS'but'
p2163
aS'now'
p2164
aS'that'
p2165
aS'she'
p2166
aS'was'
p2167
aS'about'
p2168
aS'to'
p2169
aS'leave'
p2170
aS'it'
p2171
aS'she'
p2172
aS'did'
p2173
aS'not'
p2174
aS'find'
p2175
aS'it'
p2176
aS'a'
p2177
aS'wholly'
p2178
aS'undesirable'
p2179
aS'life'
p2180
aS'.'
p2181
asg32
(lp2182
VIt
p2183
ag85
aVhard
p2184
aVwork
p2185
aV--
p2186
ag246
aVhard
p2187
aVlife
p2188
aV--
p2189
aVbut
p2190
aVnow
p2191
aVthat
p2192
aVshe
p2193
ag85
aVabout
p2194
aVto
p2195
aVleave
p2196
aVit
p2197
aVshe
p2198
aVdo
p2199
aVnot
p2200
aVfind
p2201
aVit
p2202
ag246
aVwholly
p2203
aVundesirable
p2204
aVlife
p2205
ag45
asg46
(lp2206
g48
ag48
ag48
ag48
ag48
ag48
ag48
ag48
ag48
ag48
ag48
ag48
ag48
ag48
ag48
ag48
ag48
ag48
ag48
ag48
ag48
ag48
ag48
ag48
ag48
ag48
ag48
ag48
asg49
(lp2207
g51
ag52
ag265
ag267
ag211
ag54
ag134
ag55
ag211
ag105
ag265
ag53
ag51
ag52
ag53
ag266
ag267
ag51
ag51
ag52
ag265
ag267
ag51
ag54
ag265
ag134
ag55
ag57
asg58
VIt was hard work -- a hard life -- but now that she was about to leave it she did not find it a wholly undesirable life.
p2208
sba(i__main__
Sentence
p2209
(dp2210
g17
I50
sg18
(lp2211
S'She'
p2212
aS'was'
p2213
aS'about'
p2214
aS'to'
p2215
aS'explore'
p2216
aS'another'
p2217
aS'life'
p2218
aS'with'
p2219
aS'Frank'
p2220
aS'.'
p2221
asg32
(lp2222
VShe
p2223
ag85
aVabout
p2224
aVto
p2225
aVexplore
p2226
aVanother
p2227
aVlife
p2228
aVwith
p2229
aVFrank
p2230
ag45
asg46
(lp2231
g48
ag48
ag48
ag48
ag48
ag48
ag48
ag48
aVPERSON
p2232
ag48
asg49
(lp2233
g51
ag52
ag53
ag266
ag267
ag54
ag55
ag53
ag333
ag57
asg58
VShe was about to explore another life with Frank.
p2234
sba(i__main__
Sentence
p2235
(dp2236
g17
I51
sg18
(lp2237
S'Frank'
p2238
aS'was'
p2239
aS'very'
p2240
aS'kind'
p2241
aS','
p2242
aS'manly'
p2243
aS','
p2244
aS'open-hearted'
p2245
aS'.'
p2246
asg32
(lp2247
VFrank
p2248
ag85
aVvery
p2249
aVkind
p2250
ag387
aVmanly
p2251
ag387
aVopen-hearted
p2252
ag45
asg46
(lp2253
VPERSON
p2254
ag48
ag48
ag48
ag48
ag48
ag48
ag48
ag48
asg49
(lp2255
g333
ag52
ag265
ag134
ag408
ag265
ag408
ag134
ag57
asg58
VFrank was very kind, manly, open-hearted.
p2256
sba(i__main__
Sentence
p2257
(dp2258
g17
I52
sg18
(lp2259
S'She'
p2260
aS'was'
p2261
aS'to'
p2262
aS'go'
p2263
aS'away'
p2264
aS'with'
p2265
aS'him'
p2266
aS'by'
p2267
aS'the'
p2268
aS'night-boat'
p2269
aS'to'
p2270
aS'be'
p2271
aS'his'
p2272
aS'wife'
p2273
aS'and'
p2274
aS'to'
p2275
aS'live'
p2276
aS'with'
p2277
aS'him'
p2278
aS'in'
p2279
aS'Buenos'
p2280
aS'Ayres'
p2281
aS'where'
p2282
aS'he'
p2283
aS'had'
p2284
aS'a'
p2285
aS'home'
p2286
aS'waiting'
p2287
aS'for'
p2288
aS'her'
p2289
aS'.'
p2290
asg32
(lp2291
VShe
p2292
ag85
aVto
p2293
aVgo
p2294
aVaway
p2295
aVwith
p2296
aVhim
p2297
aVby
p2298
aVthe
p2299
aVnight-boat
p2300
aVto
p2301
aVbe
p2302
aVhis
p2303
aVwife
p2304
aVand
p2305
aVto
p2306
aVlive
p2307
aVwith
p2308
aVhim
p2309
aVin
p2310
aVBuenos
p2311
aVAyres
p2312
aVwhere
p2313
aVhe
p2314
ag649
ag246
aVhome
p2315
aVwait
p2316
aVfor
p2317
aVher
p2318
ag45
asg46
(lp2319
g48
ag48
ag48
ag48
ag48
ag48
ag48
ag48
ag48
ag48
ag48
ag48
ag48
ag48
ag48
ag48
ag48
ag48
ag48
ag48
aVLOCATION
p2320
aVLOCATION
p2321
ag48
ag48
ag48
ag48
ag48
ag48
ag48
ag48
ag48
asg49
(lp2322
g51
ag52
ag266
ag267
ag265
ag53
ag51
ag53
ag54
ag134
ag266
ag267
ag102
ag55
ag105
ag266
ag267
ag53
ag51
ag53
ag333
ag333
ag515
ag51
ag52
ag54
ag55
ag56
ag53
ag102
ag57
asg58
VShe was to go away with him by the night-boat to be his wife and to live with him in Buenos Ayres where he had a home waiting for her.
p2323
sba(i__main__
Sentence
p2324
(dp2325
g17
I53
sg18
(lp2326
S'How'
p2327
aS'well'
p2328
aS'she'
p2329
aS'remembered'
p2330
aS'the'
p2331
aS'first'
p2332
aS'time'
p2333
aS'she'
p2334
aS'had'
p2335
aS'seen'
p2336
aS'him'
p2337
aS';'
p2338
aS'he'
p2339
aS'was'
p2340
aS'lodging'
p2341
aS'in'
p2342
aS'a'
p2343
aS'house'
p2344
aS'on'
p2345
aS'the'
p2346
aS'main'
p2347
aS'road'
p2348
aS'where'
p2349
aS'she'
p2350
aS'used'
p2351
aS'to'
p2352
aS'visit'
p2353
aS'.'
p2354
asg32
(lp2355
VHow
p2356
aVwell
p2357
aVshe
p2358
aVremember
p2359
aVthe
p2360
aVfirst
p2361
aVtime
p2362
aVshe
p2363
ag649
aVsee
p2364
aVhim
p2365
ag187
aVhe
p2366
ag85
aVlodge
p2367
aVin
p2368
ag246
aVhouse
p2369
aVon
p2370
aVthe
p2371
aVmain
p2372
aVroad
p2373
aVwhere
p2374
aVshe
p2375
aVuse
p2376
aVto
p2377
aVvisit
p2378
ag45
asg46
(lp2379
g48
ag48
ag48
ag48
ag48
ag48
ag48
ag48
ag48
ag48
ag48
ag48
ag48
ag48
ag48
ag48
ag48
ag48
ag48
ag48
ag48
ag48
ag48
ag48
ag48
ag48
ag48
ag48
asg49
(lp2380
g515
ag265
ag51
ag52
ag54
ag134
ag55
ag51
ag52
ag103
ag51
ag211
ag51
ag52
ag56
ag53
ag54
ag55
ag53
ag54
ag134
ag55
ag515
ag51
ag52
ag266
ag267
ag57
asg58
VHow well she remembered the first time she had seen him; he was lodging in a house on the main road where she used to visit.
p2381
sba(i__main__
Sentence
p2382
(dp2383
g17
I54
sg18
(lp2384
S'It'
p2385
aS'seemed'
p2386
aS'a'
p2387
aS'few'
p2388
aS'weeks'
p2389
aS'ago'
p2390
aS'.'
p2391
asg32
(lp2392
VIt
p2393
aVseem
p2394
ag246
aVfew
p2395
aVweek
p2396
aVago
p2397
ag45
asg46
(lp2398
g48
ag48
ag48
ag48
ag48
ag48
ag48
asg49
(lp2399
g51
ag52
ag54
ag134
ag106
ag53
ag57
asg58
VIt seemed a few weeks ago.
p2400
sba(i__main__
Sentence
p2401
(dp2402
g17
I55
sg18
(lp2403
S'He'
p2404
aS'was'
p2405
aS'standing'
p2406
aS'at'
p2407
aS'the'
p2408
aS'gate'
p2409
aS','
p2410
aS'his'
p2411
aS'peaked'
p2412
aS'cap'
p2413
aS'pushed'
p2414
aS'back'
p2415
aS'on'
p2416
aS'his'
p2417
aS'head'
p2418
aS'and'
p2419
aS'his'
p2420
aS'hair'
p2421
aS'tumbled'
p2422
aS'forward'
p2423
aS'over'
p2424
aS'a'
p2425
aS'face'
p2426
aS'of'
p2427
aS'bronze'
p2428
aS'.'
p2429
asg32
(lp2430
VHe
p2431
ag85
aVstand
p2432
aVat
p2433
aVthe
p2434
aVgate
p2435
ag387
aVhis
p2436
aVpeaked
p2437
aVcap
p2438
aVpush
p2439
aVback
p2440
aVon
p2441
aVhis
p2442
aVhead
p2443
aVand
p2444
aVhis
p2445
aVhair
p2446
aVtumble
p2447
aVforward
p2448
aVover
p2449
ag246
aVface
p2450
aVof
p2451
aVbronze
p2452
ag45
asg46
(lp2453
g48
ag48
ag48
ag48
ag48
ag48
ag48
ag48
ag48
ag48
ag48
ag48
ag48
ag48
ag48
ag48
ag48
ag48
ag48
ag48
ag48
ag48
ag48
ag48
ag48
ag48
asg49
(lp2454
g51
ag52
ag56
ag53
ag54
ag55
ag408
ag102
ag134
ag55
ag52
ag407
ag53
ag102
ag55
ag105
ag102
ag55
ag52
ag265
ag53
ag54
ag55
ag53
ag55
ag57
asg58
VHe was standing at the gate, his peaked cap pushed back on his head and his hair tumbled forward over a face of bronze.
p2455
sba(i__main__
Sentence
p2456
(dp2457
g17
I56
sg18
(lp2458
S'Then'
p2459
aS'they'
p2460
aS'had'
p2461
aS'come'
p2462
aS'to'
p2463
aS'know'
p2464
aS'each'
p2465
aS'other'
p2466
aS'.'
p2467
asg32
(lp2468
VThen
p2469
aVthey
p2470
ag649
aVcome
p2471
aVto
p2472
aVknow
p2473
aVeach
p2474
aVother
p2475
ag45
asg46
(lp2476
g48
ag48
ag48
ag48
ag48
ag48
ag48
ag48
ag48
asg49
(lp2477
g265
ag51
ag52
ag103
ag266
ag267
ag54
ag134
ag57
asg58
VThen they had come to know each other.
p2478
sba(i__main__
Sentence
p2479
(dp2480
g17
I57
sg18
(lp2481
S'He'
p2482
aS'used'
p2483
aS'to'
p2484
aS'meet'
p2485
aS'her'
p2486
aS'outside'
p2487
aS'the'
p2488
aS'Stores'
p2489
aS'every'
p2490
aS'evening'
p2491
aS'and'
p2492
aS'see'
p2493
aS'her'
p2494
aS'home'
p2495
aS'.'
p2496
asg32
(lp2497
VHe
p2498
aVuse
p2499
aVto
p2500
aVmeet
p2501
aVher
p2502
aVoutside
p2503
aVthe
p2504
aVStores
p2505
aVevery
p2506
aVevening
p2507
aVand
p2508
aVsee
p2509
aVher
p2510
aVhome
p2511
ag45
asg46
(lp2512
g48
ag48
ag48
ag48
ag48
ag48
ag48
ag48
ag48
ag48
ag48
ag48
ag48
ag48
ag48
asg49
(lp2513
g51
ag52
ag266
ag267
ag102
ag55
ag54
ag333
ag54
ag55
ag105
ag267
ag51
ag55
ag57
asg58
VHe used to meet her outside the Stores every evening and see her home.
p2514
sba(i__main__
Sentence
p2515
(dp2516
g17
I58
sg18
(lp2517
S'He'
p2518
aS'took'
p2519
aS'her'
p2520
aS'to'
p2521
aS'see'
p2522
aS'The'
p2523
aS'Bohemian'
p2524
aS'Girl'
p2525
aS'and'
p2526
aS'she'
p2527
aS'felt'
p2528
aS'elated'
p2529
aS'as'
p2530
aS'she'
p2531
aS'sat'
p2532
aS'in'
p2533
aS'an'
p2534
aS'unaccustomed'
p2535
aS'part'
p2536
aS'of'
p2537
aS'the'
p2538
aS'theatre'
p2539
aS'with'
p2540
aS'him'
p2541
aS'.'
p2542
asg32
(lp2543
VHe
p2544
aVtake
p2545
aVher
p2546
aVto
p2547
aVsee
p2548
aVThe
p2549
aVBohemian
p2550
aVGirl
p2551
aVand
p2552
aVshe
p2553
aVfelt
p2554
aVelate
p2555
ag246
aVshe
p2556
ag35
aVin
p2557
aVan
p2558
aVunaccustomed
p2559
aVpart
p2560
aVof
p2561
aVthe
p2562
aVtheatre
p2563
aVwith
p2564
aVhim
p2565
ag45
asg46
(lp2566
g48
ag48
ag48
ag48
ag48
ag48
ag48
ag48
ag48
ag48
ag48
ag48
ag48
ag48
ag48
ag48
ag48
ag48
ag48
ag48
ag48
ag48
ag48
ag48
ag48
asg49
(lp2567
g51
ag52
ag51
ag266
ag267
ag54
ag333
ag333
ag105
ag51
ag52
ag103
ag53
ag51
ag52
ag53
ag54
ag103
ag55
ag53
ag54
ag55
ag53
ag51
ag57
asg58
VHe took her to see The Bohemian Girl and she felt elated as she sat in an unaccustomed part of the theatre with him.
p2568
sba(i__main__
Sentence
p2569
(dp2570
g17
I59
sg18
(lp2571
S'He'
p2572
aS'was'
p2573
aS'awfully'
p2574
aS'fond'
p2575
aS'of'
p2576
aS'music'
p2577
aS'and'
p2578
aS'sang'
p2579
aS'a'
p2580
aS'little'
p2581
aS'.'
p2582
asg32
(lp2583
VHe
p2584
ag85
aVawfully
p2585
aVfond
p2586
aVof
p2587
aVmusic
p2588
aVand
p2589
aVsang
p2590
ag246
aVlittle
p2591
ag45
asg46
(lp2592
g48
ag48
ag48
ag48
ag48
ag48
ag48
ag48
ag48
ag48
ag48
asg49
(lp2593
g51
ag52
ag265
ag134
ag53
ag134
ag105
ag134
ag54
ag265
ag57
asg58
VHe was awfully fond of music and sang a little.
p2594
sba(i__main__
Sentence
p2595
(dp2596
g17
I60
sg18
(lp2597
S'People'
p2598
aS'knew'
p2599
aS'that'
p2600
aS'they'
p2601
aS'were'
p2602
aS'courting'
p2603
aS'and'
p2604
aS','
p2605
aS'when'
p2606
aS'he'
p2607
aS'sang'
p2608
aS'about'
p2609
aS'the'
p2610
aS'lass'
p2611
aS'that'
p2612
aS'loves'
p2613
aS'a'
p2614
aS'sailor'
p2615
aS','
p2616
aS'she'
p2617
aS'always'
p2618
aS'felt'
p2619
aS'pleasantly'
p2620
aS'confused'
p2621
aS'.'
p2622
asg32
(lp2623
VPeople
p2624
ag1564
aVthat
p2625
aVthey
p2626
ag613
aVcourt
p2627
aVand
p2628
ag387
aVwhen
p2629
aVhe
p2630
aVsing
p2631
aVabout
p2632
aVthe
p2633
aVlass
p2634
aVthat
p2635
aVlove
p2636
ag246
aVsailor
p2637
ag387
aVshe
p2638
aValways
p2639
aVfelt
p2640
aVpleasantly
p2641
aVconfuse
p2642
ag45
asg46
(lp2643
g48
ag48
ag48
ag48
ag48
ag48
ag48
ag48
ag48
ag48
ag48
ag48
ag48
ag48
ag48
ag48
ag48
ag48
ag48
ag48
ag48
ag48
ag48
ag48
ag48
asg49
(lp2644
g106
ag52
ag53
ag51
ag52
ag56
ag105
ag408
ag515
ag51
ag1207
ag53
ag54
ag55
ag53
ag106
ag54
ag55
ag408
ag51
ag265
ag52
ag265
ag103
ag57
asg58
VPeople knew that they were courting and, when he sang about the lass that loves a sailor, she always felt pleasantly confused.
p2645
sba(i__main__
Sentence
p2646
(dp2647
g17
I61
sg18
(lp2648
S'He'
p2649
aS'used'
p2650
aS'to'
p2651
aS'call'
p2652
aS'her'
p2653
aS'Poppens'
p2654
aS'out'
p2655
aS'of'
p2656
aS'fun'
p2657
aS'.'
p2658
asg32
(lp2659
VHe
p2660
aVuse
p2661
aVto
p2662
aVcall
p2663
aVher
p2664
aVPoppens
p2665
aVout
p2666
aVof
p2667
aVfun
p2668
ag45
asg46
(lp2669
g48
ag48
ag48
ag48
ag48
ag48
ag48
ag48
ag48
ag48
asg49
(lp2670
g51
ag52
ag266
ag267
ag102
ag333
ag53
ag53
ag55
ag57
asg58
VHe used to call her Poppens out of fun.
p2671
sba(i__main__
Sentence
p2672
(dp2673
g17
I62
sg18
(lp2674
S'First'
p2675
aS'of'
p2676
aS'all'
p2677
aS'it'
p2678
aS'had'
p2679
aS'been'
p2680
aS'an'
p2681
aS'excitement'
p2682
aS'for'
p2683
aS'her'
p2684
aS'to'
p2685
aS'have'
p2686
aS'a'
p2687
aS'fellow'
p2688
aS'and'
p2689
aS'then'
p2690
aS'she'
p2691
aS'had'
p2692
aS'begun'
p2693
aS'to'
p2694
aS'like'
p2695
aS'him'
p2696
aS'.'
p2697
asg32
(lp2698
VFirst
p2699
aVof
p2700
aVall
p2701
aVit
p2702
ag649
ag536
aVan
p2703
aVexcitement
p2704
aVfor
p2705
aVher
p2706
aVto
p2707
aVhave
p2708
ag246
aVfellow
p2709
aVand
p2710
aVthen
p2711
aVshe
p2712
ag649
ag1652
aVto
p2713
aVlike
p2714
aVhim
p2715
ag45
asg46
(lp2716
g48
ag48
ag48
ag48
ag48
ag48
ag48
ag48
ag48
ag48
ag48
ag48
ag48
ag48
ag48
ag48
ag48
ag48
ag48
ag48
ag48
ag48
ag48
asg49
(lp2717
g333
ag53
ag54
ag51
ag52
ag103
ag54
ag55
ag53
ag102
ag266
ag267
ag54
ag134
ag105
ag265
ag51
ag52
ag103
ag266
ag267
ag51
ag57
asg58
VFirst of all it had been an excitement for her to have a fellow and then she had begun to like him.
p2718
sba(i__main__
Sentence
p2719
(dp2720
g17
I63
sg18
(lp2721
S'He'
p2722
aS'had'
p2723
aS'tales'
p2724
aS'of'
p2725
aS'distant'
p2726
aS'countries'
p2727
aS'.'
p2728
asg32
(lp2729
VHe
p2730
ag649
aVtale
p2731
aVof
p2732
aVdistant
p2733
aVcountry
p2734
ag45
asg46
(lp2735
g48
ag48
ag48
ag48
ag48
ag48
ag48
asg49
(lp2736
g51
ag52
ag106
ag53
ag134
ag106
ag57
asg58
VHe had tales of distant countries.
p2737
sba(i__main__
Sentence
p2738
(dp2739
g17
I64
sg18
(lp2740
S'He'
p2741
aS'had'
p2742
aS'started'
p2743
aS'as'
p2744
aS'a'
p2745
aS'deck'
p2746
aS'boy'
p2747
aS'at'
p2748
aS'a'
p2749
aS'pound'
p2750
aS'a'
p2751
aS'month'
p2752
aS'on'
p2753
aS'a'
p2754
aS'ship'
p2755
aS'of'
p2756
aS'the'
p2757
aS'Allan'
p2758
aS'Line'
p2759
aS'going'
p2760
aS'out'
p2761
aS'to'
p2762
aS'Canada'
p2763
aS'.'
p2764
asg32
(lp2765
VHe
p2766
ag649
aVstart
p2767
ag246
ag246
aVdeck
p2768
aVboy
p2769
aVat
p2770
ag246
aVpound
p2771
ag246
aVmonth
p2772
aVon
p2773
ag246
aVship
p2774
aVof
p2775
aVthe
p2776
aVAllan
p2777
aVLine
p2778
aVgo
p2779
aVout
p2780
aVto
p2781
aVCanada
p2782
ag45
asg46
(lp2783
g48
ag48
ag48
ag48
ag48
ag48
ag48
ag48
ag48
ag48
ag48
ag48
ag48
ag48
ag48
ag48
ag48
ag48
ag48
ag48
ag48
ag48
aVLOCATION
p2784
ag48
asg49
(lp2785
g51
ag52
ag103
ag53
ag54
ag55
ag55
ag53
ag54
ag55
ag54
ag55
ag53
ag54
ag55
ag53
ag54
ag333
ag333
ag56
ag407
ag266
ag333
ag57
asg58
VHe had started as a deck boy at a pound a month on a ship of the Allan Line going out to Canada.
p2786
sba(i__main__
Sentence
p2787
(dp2788
g17
I65
sg18
(lp2789
S'He'
p2790
aS'told'
p2791
aS'her'
p2792
aS'the'
p2793
aS'names'
p2794
aS'of'
p2795
aS'the'
p2796
aS'ships'
p2797
aS'he'
p2798
aS'had'
p2799
aS'been'
p2800
aS'on'
p2801
aS'and'
p2802
aS'the'
p2803
aS'names'
p2804
aS'of'
p2805
aS'the'
p2806
aS'different'
p2807
aS'services'
p2808
aS'.'
p2809
asg32
(lp2810
VHe
p2811
aVtell
p2812
aVher
p2813
aVthe
p2814
aVname
p2815
aVof
p2816
aVthe
p2817
aVship
p2818
aVhe
p2819
ag649
ag536
aVon
p2820
aVand
p2821
aVthe
p2822
aVname
p2823
aVof
p2824
aVthe
p2825
aVdifferent
p2826
aVservice
p2827
ag45
asg46
(lp2828
g48
ag48
ag48
ag48
ag48
ag48
ag48
ag48
ag48
ag48
ag48
ag48
ag48
ag48
ag48
ag48
ag48
ag48
ag48
ag48
asg49
(lp2829
g51
ag52
ag51
ag54
ag106
ag53
ag54
ag106
ag51
ag52
ag103
ag53
ag105
ag54
ag106
ag53
ag54
ag134
ag106
ag57
asg58
VHe told her the names of the ships he had been on and the names of the different services.
p2830
sba(i__main__
Sentence
p2831
(dp2832
g17
I66
sg18
(lp2833
S'He'
p2834
aS'had'
p2835
aS'sailed'
p2836
aS'through'
p2837
aS'the'
p2838
aS'Straits'
p2839
aS'of'
p2840
aS'Magellan'
p2841
aS'and'
p2842
aS'he'
p2843
aS'told'
p2844
aS'her'
p2845
aS'stories'
p2846
aS'of'
p2847
aS'the'
p2848
aS'terrible'
p2849
aS'Patagonians'
p2850
aS'.'
p2851
asg32
(lp2852
VHe
p2853
ag649
aVsail
p2854
aVthrough
p2855
aVthe
p2856
aVStraits
p2857
aVof
p2858
aVMagellan
p2859
aVand
p2860
aVhe
p2861
ag2812
aVher
p2862
aVstory
p2863
aVof
p2864
aVthe
p2865
aVterrible
p2866
aVPatagonians
p2867
ag45
asg46
(lp2868
g48
ag48
ag48
ag48
ag48
aVLOCATION
p2869
ag48
aVORGANIZATION
p2870
ag48
ag48
ag48
ag48
ag48
ag48
ag48
ag48
ag48
ag48
asg49
(lp2871
g51
ag52
ag103
ag53
ag54
ag659
ag53
ag333
ag105
ag51
ag52
ag51
ag106
ag53
ag54
ag134
ag106
ag57
asg58
VHe had sailed through the Straits of Magellan and he told her stories of the terrible Patagonians.
p2872
sba(i__main__
Sentence
p2873
(dp2874
g17
I67
sg18
(lp2875
S'He'
p2876
aS'had'
p2877
aS'fallen'
p2878
aS'on'
p2879
aS'his'
p2880
aS'feet'
p2881
aS'in'
p2882
aS'Buenos'
p2883
aS'Ayres'
p2884
aS','
p2885
aS'he'
p2886
aS'said'
p2887
aS','
p2888
aS'and'
p2889
aS'had'
p2890
aS'come'
p2891
aS'over'
p2892
aS'to'
p2893
aS'the'
p2894
aS'old'
p2895
aS'country'
p2896
aS'just'
p2897
aS'for'
p2898
aS'a'
p2899
aS'holiday'
p2900
aS'.'
p2901
asg32
(lp2902
VHe
p2903
ag649
aVfall
p2904
aVon
p2905
aVhis
p2906
aVfoot
p2907
aVin
p2908
aVBuenos
p2909
aVAyres
p2910
ag387
aVhe
p2911
ag1902
ag387
aVand
p2912
ag649
aVcome
p2913
aVover
p2914
aVto
p2915
aVthe
p2916
aVold
p2917
aVcountry
p2918
aVjust
p2919
aVfor
p2920
ag246
aVholiday
p2921
ag45
asg46
(lp2922
g48
ag48
ag48
ag48
ag48
ag48
ag48
aVPERSON
p2923
aVPERSON
p2924
ag48
ag48
ag48
ag48
ag48
ag48
ag48
ag48
ag48
ag48
ag48
ag48
ag48
ag48
ag48
ag48
ag48
asg49
(lp2925
g51
ag52
ag103
ag53
ag102
ag55
ag53
ag333
ag333
ag408
ag51
ag52
ag408
ag105
ag52
ag103
ag407
ag266
ag54
ag134
ag55
ag265
ag53
ag54
ag55
ag57
asg58
VHe had fallen on his feet in Buenos Ayres, he said, and had come over to the old country just for a holiday.
p2926
sba(i__main__
Sentence
p2927
(dp2928
g17
I68
sg18
(lp2929
S'Of'
p2930
aS'course'
p2931
aS','
p2932
aS'her'
p2933
aS'father'
p2934
aS'had'
p2935
aS'found'
p2936
aS'out'
p2937
aS'the'
p2938
aS'affair'
p2939
aS'and'
p2940
aS'had'
p2941
aS'forbidden'
p2942
aS'her'
p2943
aS'to'
p2944
aS'have'
p2945
aS'anything'
p2946
aS'to'
p2947
aS'say'
p2948
aS'to'
p2949
aS'him'
p2950
aS'.'
p2951
asg32
(lp2952
VOf
p2953
aVcourse
p2954
ag387
aVher
p2955
aVfather
p2956
ag649
ag886
aVout
p2957
aVthe
p2958
aVaffair
p2959
aVand
p2960
ag649
aVforbid
p2961
aVher
p2962
aVto
p2963
aVhave
p2964
aVanything
p2965
aVto
p2966
aVsay
p2967
aVto
p2968
aVhim
p2969
ag45
asg46
(lp2970
g48
ag48
ag48
ag48
ag48
ag48
ag48
ag48
ag48
ag48
ag48
ag48
ag48
ag48
ag48
ag48
ag48
ag48
ag48
ag48
ag48
ag48
asg49
(lp2971
g53
ag55
ag408
ag102
ag55
ag52
ag103
ag407
ag54
ag55
ag105
ag52
ag103
ag102
ag266
ag267
ag55
ag266
ag267
ag266
ag51
ag57
asg58
VOf course, her father had found out the affair and had forbidden her to have anything to say to him.
p2972
sba(i__main__
Sentence
p2973
(dp2974
g17
I69
sg18
(lp2975
S'``'
p2976
aS'I'
p2977
aS'know'
p2978
aS'these'
p2979
aS'sailor'
p2980
aS'chaps'
p2981
aS','
p2982
aS"''"
p2983
aS'he'
p2984
aS'said'
p2985
aS'.'
p2986
asg32
(lp2987
V``
p2988
aVI
p2989
aVknow
p2990
aVthese
p2991
aVsailor
p2992
aVchap
p2993
ag387
aV''
p2994
aVhe
p2995
ag1902
ag45
asg46
(lp2996
g48
ag48
ag48
ag48
ag48
ag48
ag48
ag48
ag48
ag48
ag48
asg49
(lp2997
g719
ag51
ag1207
ag54
ag55
ag106
ag408
ag1005
ag51
ag52
ag57
asg58
V"I know these sailor chaps," he said.
p2998
sba(i__main__
Sentence
p2999
(dp3000
g17
I70
sg18
(lp3001
S'One'
p3002
aS'day'
p3003
aS'he'
p3004
aS'had'
p3005
aS'quarrelled'
p3006
aS'with'
p3007
aS'Frank'
p3008
aS'and'
p3009
aS'after'
p3010
aS'that'
p3011
aS'she'
p3012
aS'had'
p3013
aS'to'
p3014
aS'meet'
p3015
aS'her'
p3016
aS'lover'
p3017
aS'secretly'
p3018
aS'.'
p3019
asg32
(lp3020
VOne
p3021
aVday
p3022
aVhe
p3023
ag649
aVquarrel
p3024
aVwith
p3025
aVFrank
p3026
aVand
p3027
aVafter
p3028
aVthat
p3029
aVshe
p3030
ag649
aVto
p3031
aVmeet
p3032
aVher
p3033
aVlover
p3034
aVsecretly
p3035
ag45
asg46
(lp3036
g48
ag48
ag48
ag48
ag48
ag48
aVPERSON
p3037
ag48
ag48
ag48
ag48
ag48
ag48
ag48
ag48
ag48
ag48
ag48
asg49
(lp3038
g264
ag55
ag51
ag52
ag103
ag53
ag333
ag105
ag53
ag54
ag51
ag52
ag266
ag267
ag102
ag55
ag265
ag57
asg58
VOne day he had quarrelled with Frank and after that she had to meet her lover secretly.
p3039
sba(i__main__
Sentence
p3040
(dp3041
g17
I71
sg18
(lp3042
S'The'
p3043
aS'evening'
p3044
aS'deepened'
p3045
aS'in'
p3046
aS'the'
p3047
aS'avenue'
p3048
aS'.'
p3049
asg32
(lp3050
VThe
p3051
aVevening
p3052
aVdeepen
p3053
aVin
p3054
aVthe
p3055
aVavenue
p3056
ag45
asg46
(lp3057
g48
ag48
ag48
ag48
ag48
ag48
ag48
asg49
(lp3058
g54
ag55
ag52
ag53
ag54
ag55
ag57
asg58
VThe evening deepened in the avenue.
p3059
sba(i__main__
Sentence
p3060
(dp3061
g17
I72
sg18
(lp3062
S'The'
p3063
aS'white'
p3064
aS'of'
p3065
aS'two'
p3066
aS'letters'
p3067
aS'in'
p3068
aS'her'
p3069
aS'lap'
p3070
aS'grew'
p3071
aS'indistinct'
p3072
aS'.'
p3073
asg32
(lp3074
VThe
p3075
aVwhite
p3076
aVof
p3077
aVtwo
p3078
aVletter
p3079
aVin
p3080
aVher
p3081
aVlap
p3082
aVgrow
p3083
aVindistinct
p3084
ag45
asg46
(lp3085
g48
ag48
ag48
ag48
ag48
ag48
ag48
ag48
ag48
ag48
ag48
asg49
(lp3086
g54
ag134
ag53
ag264
ag106
ag53
ag102
ag55
ag52
ag55
ag57
asg58
VThe white of two letters in her lap grew indistinct.
p3087
sba(i__main__
Sentence
p3088
(dp3089
g17
I73
sg18
(lp3090
S'One'
p3091
aS'was'
p3092
aS'to'
p3093
aS'Harry'
p3094
aS';'
p3095
aS'the'
p3096
aS'other'
p3097
aS'was'
p3098
aS'to'
p3099
aS'her'
p3100
aS'father'
p3101
aS'.'
p3102
asg32
(lp3103
VOne
p3104
ag85
aVto
p3105
aVHarry
p3106
ag187
aVthe
p3107
aVother
p3108
ag85
aVto
p3109
aVher
p3110
aVfather
p3111
ag45
asg46
(lp3112
g48
ag48
ag48
aVPERSON
p3113
ag48
ag48
ag48
ag48
ag48
ag48
ag48
ag48
asg49
(lp3114
g264
ag52
ag266
ag333
ag211
ag54
ag134
ag52
ag266
ag102
ag55
ag57
asg58
VOne was to Harry; the other was to her father.
p3115
sba(i__main__
Sentence
p3116
(dp3117
g17
I74
sg18
(lp3118
S'Ernest'
p3119
aS'had'
p3120
aS'been'
p3121
aS'her'
p3122
aS'favourite'
p3123
aS'but'
p3124
aS'she'
p3125
aS'liked'
p3126
aS'Harry'
p3127
aS'too'
p3128
aS'.'
p3129
asg32
(lp3130
VErnest
p3131
ag649
ag536
aVher
p3132
aVfavourite
p3133
aVbut
p3134
aVshe
p3135
aVlike
p3136
aVHarry
p3137
aVtoo
p3138
ag45
asg46
(lp3139
VPERSON
p3140
ag48
ag48
ag48
ag48
ag48
ag48
ag48
aVPERSON
p3141
ag48
ag48
asg49
(lp3142
g333
ag52
ag103
ag102
ag134
ag105
ag51
ag52
ag333
ag265
ag57
asg58
VErnest had been her favourite but she liked Harry too.
p3143
sba(i__main__
Sentence
p3144
(dp3145
g17
I75
sg18
(lp3146
S'Her'
p3147
aS'father'
p3148
aS'was'
p3149
aS'becoming'
p3150
aS'old'
p3151
aS'lately'
p3152
aS','
p3153
aS'she'
p3154
aS'noticed'
p3155
aS';'
p3156
aS'he'
p3157
aS'would'
p3158
aS'miss'
p3159
aS'her'
p3160
aS'.'
p3161
asg32
(lp3162
VHer
p3163
aVfather
p3164
ag85
aVbecome
p3165
aVold
p3166
aVlately
p3167
ag387
aVshe
p3168
aVnotice
p3169
ag187
aVhe
p3170
aVwould
p3171
aVmiss
p3172
aVher
p3173
ag45
asg46
(lp3174
g48
ag48
ag48
ag48
ag48
ag48
ag48
ag48
ag48
ag48
ag48
ag48
ag48
ag48
ag48
asg49
(lp3175
g102
ag55
ag52
ag56
ag134
ag265
ag408
ag51
ag52
ag211
ag51
ag831
ag267
ag51
ag57
asg58
VHer father was becoming old lately, she noticed; he would miss her.
p3176
sba(i__main__
Sentence
p3177
(dp3178
g17
I76
sg18
(lp3179
S'Sometimes'
p3180
aS'he'
p3181
aS'could'
p3182
aS'be'
p3183
aS'very'
p3184
aS'nice'
p3185
aS'.'
p3186
asg32
(lp3187
VSometimes
p3188
aVhe
p3189
aVcould
p3190
aVbe
p3191
aVvery
p3192
aVnice
p3193
ag45
asg46
(lp3194
g48
ag48
ag48
ag48
ag48
ag48
ag48
asg49
(lp3195
g265
ag51
ag831
ag267
ag265
ag134
ag57
asg58
VSometimes he could be very nice.
p3196
sba(i__main__
Sentence
p3197
(dp3198
g17
I77
sg18
(lp3199
S'Not'
p3200
aS'long'
p3201
aS'before'
p3202
aS','
p3203
aS'when'
p3204
aS'she'
p3205
aS'had'
p3206
aS'been'
p3207
aS'laid'
p3208
aS'up'
p3209
aS'for'
p3210
aS'a'
p3211
aS'day'
p3212
aS','
p3213
aS'he'
p3214
aS'had'
p3215
aS'read'
p3216
aS'her'
p3217
aS'out'
p3218
aS'a'
p3219
aS'ghost'
p3220
aS'story'
p3221
aS'and'
p3222
aS'made'
p3223
aS'toast'
p3224
aS'for'
p3225
aS'her'
p3226
aS'at'
p3227
aS'the'
p3228
aS'fire'
p3229
aS'.'
p3230
asg32
(lp3231
VNot
p3232
aVlong
p3233
aVbefore
p3234
ag387
aVwhen
p3235
aVshe
p3236
ag649
ag536
aVlay
p3237
aVup
p3238
aVfor
p3239
ag246
aVday
p3240
ag387
aVhe
p3241
ag649
aVread
p3242
aVher
p3243
aVout
p3244
ag246
aVghost
p3245
aVstory
p3246
aVand
p3247
ag911
aVtoast
p3248
aVfor
p3249
aVher
p3250
aVat
p3251
aVthe
p3252
aVfire
p3253
ag45
asg46
(lp3254
g48
ag48
ag48
ag48
ag48
ag48
ag48
ag48
ag48
ag48
ag48
ag48
ag48
ag48
ag48
ag48
ag48
ag48
ag48
ag48
ag48
ag48
ag48
ag48
ag48
ag48
ag48
ag48
ag48
ag48
ag48
asg49
(lp3255
g265
ag265
ag53
ag408
ag515
ag51
ag52
ag103
ag103
ag407
ag53
ag54
ag55
ag408
ag51
ag52
ag103
ag102
ag407
ag54
ag55
ag55
ag105
ag52
ag55
ag53
ag102
ag53
ag54
ag55
ag57
asg58
VNot long before, when she had been laid up for a day, he had read her out a ghost story and made toast for her at the fire.
p3256
sba(i__main__
Sentence
p3257
(dp3258
g17
I78
sg18
(lp3259
S'Another'
p3260
aS'day'
p3261
aS','
p3262
aS'when'
p3263
aS'their'
p3264
aS'mother'
p3265
aS'was'
p3266
aS'alive'
p3267
aS','
p3268
aS'they'
p3269
aS'had'
p3270
aS'all'
p3271
aS'gone'
p3272
aS'for'
p3273
aS'a'
p3274
aS'picnic'
p3275
aS'to'
p3276
aS'the'
p3277
aS'Hill'
p3278
aS'of'
p3279
aS'Howth'
p3280
aS'.'
p3281
asg32
(lp3282
VAnother
p3283
aVday
p3284
ag387
aVwhen
p3285
aVtheir
p3286
aVmother
p3287
ag85
aValive
p3288
ag387
aVthey
p3289
ag649
aVall
p3290
ag650
aVfor
p3291
ag246
aVpicnic
p3292
aVto
p3293
aVthe
p3294
aVHill
p3295
aVof
p3296
aVHowth
p3297
ag45
asg46
(lp3298
g48
ag48
ag48
ag48
ag48
ag48
ag48
ag48
ag48
ag48
ag48
ag48
ag48
ag48
ag48
ag48
ag48
ag48
ag48
ag48
aVLOCATION
p3299
ag48
asg49
(lp3300
g54
ag55
ag408
ag515
ag102
ag55
ag52
ag134
ag408
ag51
ag52
aS'PDT'
p3301
ag103
ag53
ag54
ag134
ag266
ag54
ag333
ag53
ag333
ag57
asg58
VAnother day, when their mother was alive, they had all gone for a picnic to the Hill of Howth.
p3302
sba(i__main__
Sentence
p3303
(dp3304
g17
I79
sg18
(lp3305
S'She'
p3306
aS'remembered'
p3307
aS'her'
p3308
aS'father'
p3309
aS'putting'
p3310
aS'on'
p3311
aS'her'
p3312
aS'mothers'
p3313
aS'bonnet'
p3314
aS'to'
p3315
aS'make'
p3316
aS'the'
p3317
aS'children'
p3318
aS'laugh'
p3319
aS'.'
p3320
asg32
(lp3321
VShe
p3322
aVremember
p3323
aVher
p3324
aVfather
p3325
aVput
p3326
aVon
p3327
aVher
p3328
aVmother
p3329
aVbonnet
p3330
aVto
p3331
aVmake
p3332
aVthe
p3333
ag261
aVlaugh
p3334
ag45
asg46
(lp3335
g48
ag48
ag48
ag48
ag48
ag48
ag48
ag48
ag48
ag48
ag48
ag48
ag48
ag48
ag48
asg49
(lp3336
g51
ag52
ag102
ag55
ag56
ag53
ag102
ag106
ag55
ag266
ag267
ag54
ag106
ag53
ag57
asg58
VShe remembered her father putting on her mothers bonnet to make the children laugh.
p3337
sba(i__main__
Sentence
p3338
(dp3339
g17
I80
sg18
(lp3340
S'Her'
p3341
aS'time'
p3342
aS'was'
p3343
aS'running'
p3344
aS'out'
p3345
aS'but'
p3346
aS'she'
p3347
aS'continued'
p3348
aS'to'
p3349
aS'sit'
p3350
aS'by'
p3351
aS'the'
p3352
aS'window'
p3353
aS','
p3354
aS'leaning'
p3355
aS'her'
p3356
aS'head'
p3357
aS'against'
p3358
aS'the'
p3359
aS'window'
p3360
aS'curtain'
p3361
aS','
p3362
aS'inhaling'
p3363
aS'the'
p3364
aS'odour'
p3365
aS'of'
p3366
aS'dusty'
p3367
aS'cretonne'
p3368
aS'.'
p3369
asg32
(lp3370
VHer
p3371
aVtime
p3372
ag85
aVrun
p3373
aVout
p3374
aVbut
p3375
aVshe
p3376
aVcontinue
p3377
aVto
p3378
aVsit
p3379
aVby
p3380
aVthe
p3381
aVwindow
p3382
ag387
aVlean
p3383
aVher
p3384
aVhead
p3385
aVagainst
p3386
aVthe
p3387
aVwindow
p3388
aVcurtain
p3389
ag387
aVinhale
p3390
aVthe
p3391
aVodour
p3392
aVof
p3393
aVdusty
p3394
aVcretonne
p3395
ag45
asg46
(lp3396
g48
ag48
ag48
ag48
ag48
ag48
ag48
ag48
ag48
ag48
ag48
ag48
ag48
ag48
ag48
ag48
ag48
ag48
ag48
ag48
ag48
ag48
ag48
ag48
ag48
ag48
ag48
ag48
ag48
asg49
(lp3397
g102
ag55
ag52
ag56
ag407
ag105
ag51
ag52
ag266
ag267
ag53
ag54
ag55
ag408
ag56
ag51
ag55
ag53
ag54
ag55
ag55
ag408
ag56
ag54
ag55
ag53
ag55
ag55
ag57
asg58
VHer time was running out but she continued to sit by the window, leaning her head against the window curtain, inhaling the odour of dusty cretonne.
p3398
sba(i__main__
Sentence
p3399
(dp3400
g17
I81
sg18
(lp3401
S'Down'
p3402
aS'far'
p3403
aS'in'
p3404
aS'the'
p3405
aS'avenue'
p3406
aS'she'
p3407
aS'could'
p3408
aS'hear'
p3409
aS'a'
p3410
aS'street'
p3411
aS'organ'
p3412
aS'playing'
p3413
aS'.'
p3414
asg32
(lp3415
VDown
p3416
aVfar
p3417
aVin
p3418
aVthe
p3419
aVavenue
p3420
aVshe
p3421
aVcould
p3422
aVhear
p3423
ag246
aVstreet
p3424
aVorgan
p3425
aVplaying
p3426
ag45
asg46
(lp3427
g48
ag48
ag48
ag48
ag48
ag48
ag48
ag48
ag48
ag48
ag48
ag48
ag48
asg49
(lp3428
g333
ag265
ag53
ag54
ag55
ag51
ag831
ag267
ag54
ag55
ag55
ag55
ag57
asg58
VDown far in the avenue she could hear a street organ playing.
p3429
sba(i__main__
Sentence
p3430
(dp3431
g17
I82
sg18
(lp3432
S'She'
p3433
aS'knew'
p3434
aS'the'
p3435
aS'air'
p3436
aS'Strange'
p3437
aS'that'
p3438
aS'it'
p3439
aS'should'
p3440
aS'come'
p3441
aS'that'
p3442
aS'very'
p3443
aS'night'
p3444
aS'to'
p3445
aS'remind'
p3446
aS'her'
p3447
aS'of'
p3448
aS'the'
p3449
aS'promise'
p3450
aS'to'
p3451
aS'her'
p3452
aS'mother'
p3453
aS','
p3454
aS'her'
p3455
aS'promise'
p3456
aS'to'
p3457
aS'keep'
p3458
aS'the'
p3459
aS'home'
p3460
aS'together'
p3461
aS'as'
p3462
aS'long'
p3463
aS'as'
p3464
aS'she'
p3465
aS'could'
p3466
aS'.'
p3467
asg32
(lp3468
VShe
p3469
ag1564
aVthe
p3470
aVair
p3471
aVStrange
p3472
aVthat
p3473
aVit
p3474
aVshould
p3475
aVcome
p3476
aVthat
p3477
aVvery
p3478
aVnight
p3479
aVto
p3480
aVremind
p3481
aVher
p3482
aVof
p3483
aVthe
p3484
aVpromise
p3485
aVto
p3486
aVher
p3487
aVmother
p3488
ag387
aVher
p3489
aVpromise
p3490
aVto
p3491
aVkeep
p3492
aVthe
p3493
aVhome
p3494
aVtogether
p3495
ag246
aVlong
p3496
ag246
aVshe
p3497
aVcould
p3498
ag45
asg46
(lp3499
g48
ag48
ag48
ag48
ag48
ag48
ag48
ag48
ag48
ag48
ag48
ag48
ag48
ag48
ag48
ag48
ag48
ag48
ag48
ag48
ag48
ag48
ag48
ag48
ag48
ag48
ag48
ag48
ag48
ag48
ag48
ag48
ag48
ag48
ag48
asg49
(lp3500
g51
ag52
ag54
ag55
ag333
ag53
ag51
ag831
ag267
ag53
ag265
ag134
ag266
ag267
ag102
ag53
ag54
ag55
ag266
ag102
ag55
ag408
ag102
ag55
ag266
ag267
ag54
ag55
ag265
ag53
ag265
ag53
ag51
ag831
ag57
asg58
VShe knew the air Strange that it should come that very night to remind her of the promise to her mother, her promise to keep the home together as long as she could.
p3501
sba(i__main__
Sentence
p3502
(dp3503
g17
I83
sg18
(lp3504
S'She'
p3505
aS'remembered'
p3506
aS'the'
p3507
aS'last'
p3508
aS'night'
p3509
aS'of'
p3510
aS'her'
p3511
aS'mother'
p3512
aS"'s"
p3513
aS'illness'
p3514
aS';'
p3515
aS'she'
p3516
aS'was'
p3517
aS'again'
p3518
aS'in'
p3519
aS'the'
p3520
aS'close'
p3521
aS'dark'
p3522
aS'room'
p3523
aS'at'
p3524
aS'the'
p3525
aS'other'
p3526
aS'side'
p3527
aS'of'
p3528
aS'the'
p3529
aS'hall'
p3530
aS'and'
p3531
aS'outside'
p3532
aS'she'
p3533
aS'heard'
p3534
aS'a'
p3535
aS'melancholy'
p3536
aS'air'
p3537
aS'of'
p3538
aS'Italy'
p3539
aS'.'
p3540
asg32
(lp3541
VShe
p3542
aVremember
p3543
aVthe
p3544
aVlast
p3545
aVnight
p3546
aVof
p3547
aVher
p3548
aVmother
p3549
aV's
p3550
aVillness
p3551
ag187
aVshe
p3552
ag85
aVagain
p3553
aVin
p3554
aVthe
p3555
aVclose
p3556
aVdark
p3557
aVroom
p3558
aVat
p3559
aVthe
p3560
aVother
p3561
aVside
p3562
aVof
p3563
aVthe
p3564
aVhall
p3565
aVand
p3566
aVoutside
p3567
aVshe
p3568
ag189
ag246
aVmelancholy
p3569
aVair
p3570
aVof
p3571
aVItaly
p3572
ag45
asg46
(lp3573
g48
ag48
ag48
ag48
ag48
ag48
ag48
ag48
ag48
ag48
ag48
ag48
ag48
ag48
ag48
ag48
ag48
ag48
ag48
ag48
ag48
ag48
ag48
ag48
ag48
ag48
ag48
ag48
ag48
ag48
ag48
ag48
ag48
ag48
aVLOCATION
p3574
ag48
asg49
(lp3575
g51
ag52
ag54
ag134
ag55
ag53
ag102
ag55
ag270
ag55
ag211
ag51
ag52
ag265
ag53
ag54
ag55
ag55
ag55
ag53
ag54
ag134
ag55
ag53
ag54
ag55
ag105
ag53
ag51
ag52
ag54
ag265
ag134
ag53
ag333
ag57
asg58
VShe remembered the last night of her mother's illness; she was again in the close dark room at the other side of the hall and outside she heard a melancholy air of Italy.
p3576
sba(i__main__
Sentence
p3577
(dp3578
g17
I84
sg18
(lp3579
S'The'
p3580
aS'organ-player'
p3581
aS'had'
p3582
aS'been'
p3583
aS'ordered'
p3584
aS'to'
p3585
aS'go'
p3586
aS'away'
p3587
aS'and'
p3588
aS'given'
p3589
aS'sixpence'
p3590
aS'.'
p3591
asg32
(lp3592
VThe
p3593
aVorgan-player
p3594
ag649
ag536
aVorder
p3595
aVto
p3596
aVgo
p3597
aVaway
p3598
aVand
p3599
ag1568
aVsixpence
p3600
ag45
asg46
(lp3601
g48
ag48
ag48
ag48
ag48
ag48
ag48
ag48
ag48
ag48
ag48
ag48
asg49
(lp3602
g54
ag55
ag52
ag103
ag103
ag266
ag267
ag265
ag105
ag103
ag55
ag57
asg58
VThe organ-player had been ordered to go away and given sixpence.
p3603
sba(i__main__
Sentence
p3604
(dp3605
g17
I85
sg18
(lp3606
S'She'
p3607
aS'remembered'
p3608
aS'her'
p3609
aS'father'
p3610
aS'strutting'
p3611
aS'back'
p3612
aS'into'
p3613
aS'the'
p3614
aS'sickroom'
p3615
aS'saying'
p3616
aS':'
p3617
aS'``'
p3618
aS'Damned'
p3619
aS'Italians'
p3620
aS'!'
p3621
asg32
(lp3622
VShe
p3623
aVremember
p3624
aVher
p3625
aVfather
p3626
aVstrut
p3627
aVback
p3628
aVinto
p3629
aVthe
p3630
aVsickroom
p3631
aVsay
p3632
ag431
aV``
p3633
aVDamned
p3634
aVItalians
p3635
ag716
asg46
(lp3636
g48
ag48
ag48
ag48
ag48
ag48
ag48
ag48
ag48
ag48
ag48
ag48
ag48
ag48
ag48
asg49
(lp3637
g51
ag52
ag102
ag55
ag56
ag265
ag53
ag54
ag55
ag56
ag211
ag719
ag134
ag106
ag57
asg58
VShe remembered her father strutting back into the sickroom saying:    "Damned Italians!
p3638
sba(i__main__
Sentence
p3639
(dp3640
g17
I86
sg18
(lp3641
S'coming'
p3642
aS'over'
p3643
aS'here'
p3644
aS'!'
p3645
aS"''"
p3646
asg32
(lp3647
Vcome
p3648
aVover
p3649
aVhere
p3650
ag716
aV''
p3651
asg46
(lp3652
g48
ag48
ag48
ag48
ag48
asg49
(lp3653
g56
ag53
ag265
ag57
ag1005
asg58
Vcoming over here!"
p3654
sba(i__main__
Sentence
p3655
(dp3656
g17
I87
sg18
(lp3657
S'As'
p3658
aS'she'
p3659
aS'mused'
p3660
aS'the'
p3661
aS'pitiful'
p3662
aS'vision'
p3663
aS'of'
p3664
aS'her'
p3665
aS'mother'
p3666
aS"'s"
p3667
aS'life'
p3668
aS'laid'
p3669
aS'its'
p3670
aS'spell'
p3671
aS'on'
p3672
aS'the'
p3673
aS'very'
p3674
aS'quick'
p3675
aS'of'
p3676
aS'her'
p3677
aS'being'
p3678
aS'--'
p3679
aS'that'
p3680
aS'life'
p3681
aS'of'
p3682
aS'commonplace'
p3683
aS'sacrifices'
p3684
aS'closing'
p3685
aS'in'
p3686
aS'final'
p3687
aS'craziness'
p3688
aS'.'
p3689
asg32
(lp3690
VAs
p3691
aVshe
p3692
aVmuse
p3693
aVthe
p3694
aVpitiful
p3695
aVvision
p3696
aVof
p3697
aVher
p3698
aVmother
p3699
aV's
p3700
aVlife
p3701
ag3237
aVit
p3702
aVspell
p3703
aVon
p3704
aVthe
p3705
aVvery
p3706
aVquick
p3707
aVof
p3708
aVher
p3709
aVbeing
p3710
aV--
p3711
aVthat
p3712
aVlife
p3713
aVof
p3714
aVcommonplace
p3715
aVsacrifice
p3716
aVclose
p3717
aVin
p3718
aVfinal
p3719
aVcraziness
p3720
ag45
asg46
(lp3721
g48
ag48
ag48
ag48
ag48
ag48
ag48
ag48
ag48
ag48
ag48
ag48
ag48
ag48
ag48
ag48
ag48
ag48
ag48
ag48
ag48
ag48
ag48
ag48
ag48
ag48
ag48
ag48
ag48
ag48
ag48
ag48
asg49
(lp3722
g53
ag51
ag52
ag54
ag134
ag55
ag53
ag102
ag55
ag270
ag55
ag52
ag102
ag55
ag53
ag54
ag134
ag55
ag53
ag102
ag55
ag211
ag53
ag55
ag53
ag55
ag106
ag56
ag53
ag134
ag55
ag57
asg58
VAs she mused the pitiful vision of her mother's life laid its spell on the very quick of her being -- that life of commonplace sacrifices closing in final craziness.
p3723
sba(i__main__
Sentence
p3724
(dp3725
g17
I88
sg18
(lp3726
S'She'
p3727
aS'trembled'
p3728
aS'as'
p3729
aS'she'
p3730
aS'heard'
p3731
aS'again'
p3732
aS'her'
p3733
aS'mother'
p3734
aS"'s"
p3735
aS'voice'
p3736
aS'saying'
p3737
aS'constantly'
p3738
aS'with'
p3739
aS'foolish'
p3740
aS'insistence'
p3741
aS':'
p3742
aS'``'
p3743
aS'Derevaun'
p3744
aS'Seraun'
p3745
aS'!'
p3746
asg32
(lp3747
VShe
p3748
aVtremble
p3749
ag246
aVshe
p3750
ag189
aVagain
p3751
aVher
p3752
aVmother
p3753
aV's
p3754
aVvoice
p3755
aVsay
p3756
aVconstantly
p3757
aVwith
p3758
aVfoolish
p3759
aVinsistence
p3760
ag431
aV``
p3761
aVDerevaun
p3762
aVSeraun
p3763
ag716
asg46
(lp3764
g48
ag48
ag48
ag48
ag48
ag48
ag48
ag48
ag48
ag48
ag48
ag48
ag48
ag48
ag48
ag48
ag48
aVPERSON
p3765
aVPERSON
p3766
ag48
asg49
(lp3767
g51
ag52
ag53
ag51
ag52
ag265
ag102
ag55
ag270
ag55
ag56
ag265
ag53
ag134
ag55
ag211
ag719
ag333
ag333
ag57
asg58
VShe trembled as she heard again her mother's voice saying constantly with foolish insistence:    "Derevaun Seraun!
p3768
sba(i__main__
Sentence
p3769
(dp3770
g17
I89
sg18
(lp3771
S'Derevaun'
p3772
aS'Seraun'
p3773
aS'!'
p3774
aS"''"
p3775
asg32
(lp3776
VDerevaun
p3777
aVSeraun
p3778
ag716
aV''
p3779
asg46
(lp3780
VPERSON
p3781
aVPERSON
p3782
ag48
ag48
asg49
(lp3783
g333
ag333
ag57
ag1005
asg58
VDerevaun Seraun!"
p3784
sba(i__main__
Sentence
p3785
(dp3786
g17
I90
sg18
(lp3787
S'She'
p3788
aS'stood'
p3789
aS'up'
p3790
aS'in'
p3791
aS'a'
p3792
aS'sudden'
p3793
aS'impulse'
p3794
aS'of'
p3795
aS'terror'
p3796
aS'.'
p3797
asg32
(lp3798
VShe
p3799
aVstand
p3800
aVup
p3801
aVin
p3802
ag246
aVsudden
p3803
aVimpulse
p3804
aVof
p3805
aVterror
p3806
ag45
asg46
(lp3807
g48
ag48
ag48
ag48
ag48
ag48
ag48
ag48
ag48
ag48
asg49
(lp3808
g51
ag52
ag407
ag53
ag54
ag134
ag55
ag53
ag55
ag57
asg58
VShe stood up in a sudden impulse of terror.
p3809
sba(i__main__
Sentence
p3810
(dp3811
g17
I91
sg18
(lp3812
S'Escape'
p3813
aS'!'
p3814
asg32
(lp3815
VEscape
p3816
ag716
asg46
(lp3817
g48
ag48
asg49
(lp3818
g333
ag211
asg58
VEscape!
p3819
sba(i__main__
Sentence
p3820
(dp3821
g17
I92
sg18
(lp3822
S'She'
p3823
aS'must'
p3824
aS'escape'
p3825
aS'!'
p3826
asg32
(lp3827
VShe
p3828
aVmust
p3829
aVescape
p3830
ag716
asg46
(lp3831
g48
ag48
ag48
ag48
asg49
(lp3832
g51
ag831
ag267
ag57
asg58
VShe must escape!
p3833
sba(i__main__
Sentence
p3834
(dp3835
g17
I93
sg18
(lp3836
S'Frank'
p3837
aS'would'
p3838
aS'save'
p3839
aS'her'
p3840
aS'.'
p3841
asg32
(lp3842
VFrank
p3843
aVwould
p3844
aVsave
p3845
aVher
p3846
ag45
asg46
(lp3847
VPERSON
p3848
ag48
ag48
ag48
ag48
asg49
(lp3849
g333
ag831
ag267
ag51
ag57
asg58
VFrank would save her.
p3850
sba(i__main__
Sentence
p3851
(dp3852
g17
I94
sg18
(lp3853
S'He'
p3854
aS'would'
p3855
aS'give'
p3856
aS'her'
p3857
aS'life'
p3858
aS','
p3859
aS'perhaps'
p3860
aS'love'
p3861
aS','
p3862
aS'too'
p3863
aS'.'
p3864
asg32
(lp3865
VHe
p3866
aVwould
p3867
aVgive
p3868
aVher
p3869
aVlife
p3870
ag387
aVperhaps
p3871
aVlove
p3872
ag387
aVtoo
p3873
ag45
asg46
(lp3874
g48
ag48
ag48
ag48
ag48
ag48
ag48
ag48
ag48
ag48
ag48
asg49
(lp3875
g51
ag831
ag267
ag51
ag267
ag408
ag265
ag267
ag408
ag265
ag57
asg58
VHe would give her life, perhaps love, too.
p3876
sba(i__main__
Sentence
p3877
(dp3878
g17
I95
sg18
(lp3879
S'But'
p3880
aS'she'
p3881
aS'wanted'
p3882
aS'to'
p3883
aS'live'
p3884
aS'.'
p3885
asg32
(lp3886
VBut
p3887
aVshe
p3888
aVwant
p3889
aVto
p3890
aVlive
p3891
ag45
asg46
(lp3892
g48
ag48
ag48
ag48
ag48
ag48
asg49
(lp3893
g105
ag51
ag52
ag266
ag267
ag57
asg58
VBut she wanted to live.
p3894
sba(i__main__
Sentence
p3895
(dp3896
g17
I96
sg18
(lp3897
S'Why'
p3898
aS'should'
p3899
aS'she'
p3900
aS'be'
p3901
aS'unhappy'
p3902
aS'?'
p3903
asg32
(lp3904
VWhy
p3905
aVshould
p3906
aVshe
p3907
aVbe
p3908
aVunhappy
p3909
ag1046
asg46
(lp3910
g48
ag48
ag48
ag48
ag48
ag48
asg49
(lp3911
g515
ag831
ag51
ag267
ag134
ag57
asg58
VWhy should she be unhappy?
p3912
sba(i__main__
Sentence
p3913
(dp3914
g17
I97
sg18
(lp3915
S'She'
p3916
aS'had'
p3917
aS'a'
p3918
aS'right'
p3919
aS'to'
p3920
aS'happiness'
p3921
aS'.'
p3922
asg32
(lp3923
VShe
p3924
ag649
ag246
aVright
p3925
aVto
p3926
aVhappiness
p3927
ag45
asg46
(lp3928
g48
ag48
ag48
ag48
ag48
ag48
ag48
asg49
(lp3929
g51
ag52
ag54
ag55
ag266
ag55
ag57
asg58
VShe had a right to happiness.
p3930
sba(i__main__
Sentence
p3931
(dp3932
g17
I98
sg18
(lp3933
S'Frank'
p3934
aS'would'
p3935
aS'take'
p3936
aS'her'
p3937
aS'in'
p3938
aS'his'
p3939
aS'arms'
p3940
aS','
p3941
aS'fold'
p3942
aS'her'
p3943
aS'in'
p3944
aS'his'
p3945
aS'arms'
p3946
aS'.'
p3947
asg32
(lp3948
VFrank
p3949
aVwould
p3950
aVtake
p3951
aVher
p3952
aVin
p3953
aVhis
p3954
aVarm
p3955
ag387
aVfold
p3956
aVher
p3957
aVin
p3958
aVhis
p3959
aVarm
p3960
ag45
asg46
(lp3961
VPERSON
p3962
ag48
ag48
ag48
ag48
ag48
ag48
ag48
ag48
ag48
ag48
ag48
ag48
ag48
asg49
(lp3963
g333
ag831
ag267
ag51
ag53
ag102
ag106
ag408
ag52
ag51
ag53
ag102
ag106
ag57
asg58
VFrank would take her in his arms, fold her in his arms.
p3964
sba(i__main__
Sentence
p3965
(dp3966
g17
I99
sg18
(lp3967
S'He'
p3968
aS'would'
p3969
aS'save'
p3970
aS'her'
p3971
aS'.'
p3972
asg32
(lp3973
VHe
p3974
aVwould
p3975
aVsave
p3976
aVher
p3977
ag45
asg46
(lp3978
g48
ag48
ag48
ag48
ag48
asg49
(lp3979
g51
ag831
ag267
ag51
ag57
asg58
VHe would save her.
p3980
sba(i__main__
Sentence
p3981
(dp3982
g17
I100
sg18
(lp3983
S'She'
p3984
aS'stood'
p3985
aS'among'
p3986
aS'the'
p3987
aS'swaying'
p3988
aS'crowd'
p3989
aS'in'
p3990
aS'the'
p3991
aS'station'
p3992
aS'at'
p3993
aS'the'
p3994
aS'North'
p3995
aS'Wall'
p3996
aS'.'
p3997
asg32
(lp3998
VShe
p3999
ag3800
aVamong
p4000
aVthe
p4001
aVswaying
p4002
aVcrowd
p4003
aVin
p4004
aVthe
p4005
aVstation
p4006
aVat
p4007
aVthe
p4008
aVNorth
p4009
aVWall
p4010
ag45
asg46
(lp4011
g48
ag48
ag48
ag48
ag48
ag48
ag48
ag48
ag48
ag48
ag48
aVLOCATION
p4012
aVLOCATION
p4013
ag48
asg49
(lp4014
g51
ag52
ag53
ag54
ag55
ag55
ag53
ag54
ag55
ag53
ag54
ag333
ag333
ag57
asg58
VShe stood among the swaying crowd in the station at the North Wall.
p4015
sba(i__main__
Sentence
p4016
(dp4017
g17
I101
sg18
(lp4018
S'He'
p4019
aS'held'
p4020
aS'her'
p4021
aS'hand'
p4022
aS'and'
p4023
aS'she'
p4024
aS'knew'
p4025
aS'that'
p4026
aS'he'
p4027
aS'was'
p4028
aS'speaking'
p4029
aS'to'
p4030
aS'her'
p4031
aS','
p4032
aS'saying'
p4033
aS'something'
p4034
aS'about'
p4035
aS'the'
p4036
aS'passage'
p4037
aS'over'
p4038
aS'and'
p4039
aS'over'
p4040
aS'again'
p4041
aS'.'
p4042
asg32
(lp4043
VHe
p4044
aVhold
p4045
aVher
p4046
aVhand
p4047
aVand
p4048
aVshe
p4049
ag1564
aVthat
p4050
aVhe
p4051
ag85
aVspeak
p4052
aVto
p4053
aVher
p4054
ag387
aVsay
p4055
aVsomething
p4056
aVabout
p4057
aVthe
p4058
aVpassage
p4059
aVover
p4060
aVand
p4061
aVover
p4062
aVagain
p4063
ag45
asg46
(lp4064
g48
ag48
ag48
ag48
ag48
ag48
ag48
ag48
ag48
ag48
ag48
ag48
ag48
ag48
ag48
ag48
ag48
ag48
ag48
ag48
ag48
ag48
ag48
ag48
asg49
(lp4065
g51
ag52
ag51
ag55
ag105
ag51
ag52
ag53
ag51
ag52
ag56
ag266
ag102
ag408
ag56
ag55
ag53
ag54
ag55
ag53
ag105
ag53
ag265
ag57
asg58
VHe held her hand and she knew that he was speaking to her, saying something about the passage over and over again.
p4066
sba(i__main__
Sentence
p4067
(dp4068
g17
I102
sg18
(lp4069
S'The'
p4070
aS'station'
p4071
aS'was'
p4072
aS'full'
p4073
aS'of'
p4074
aS'soldiers'
p4075
aS'with'
p4076
aS'brown'
p4077
aS'baggages'
p4078
aS'.'
p4079
asg32
(lp4080
VThe
p4081
aVstation
p4082
ag85
aVfull
p4083
aVof
p4084
aVsoldier
p4085
aVwith
p4086
aVbrown
p4087
aVbaggage
p4088
ag45
asg46
(lp4089
g48
ag48
ag48
ag48
ag48
ag48
ag48
ag48
ag48
ag48
asg49
(lp4090
g54
ag55
ag52
ag134
ag53
ag106
ag53
ag134
ag106
ag57
asg58
VThe station was full of soldiers with brown baggages.
p4091
sba(i__main__
Sentence
p4092
(dp4093
g17
I103
sg18
(lp4094
S'Through'
p4095
aS'the'
p4096
aS'wide'
p4097
aS'doors'
p4098
aS'of'
p4099
aS'the'
p4100
aS'sheds'
p4101
aS'she'
p4102
aS'caught'
p4103
aS'a'
p4104
aS'glimpse'
p4105
aS'of'
p4106
aS'the'
p4107
aS'black'
p4108
aS'mass'
p4109
aS'of'
p4110
aS'the'
p4111
aS'boat'
p4112
aS','
p4113
aS'lying'
p4114
aS'in'
p4115
aS'beside'
p4116
aS'the'
p4117
aS'quay'
p4118
aS'wall'
p4119
aS','
p4120
aS'with'
p4121
aS'illumined'
p4122
aS'portholes'
p4123
aS'.'
p4124
asg32
(lp4125
VThrough
p4126
aVthe
p4127
aVwide
p4128
aVdoor
p4129
aVof
p4130
aVthe
p4131
aVshed
p4132
aVshe
p4133
aVcatch
p4134
ag246
aVglimpse
p4135
aVof
p4136
aVthe
p4137
aVblack
p4138
aVmass
p4139
aVof
p4140
aVthe
p4141
aVboat
p4142
ag387
aVlie
p4143
aVin
p4144
aVbeside
p4145
aVthe
p4146
aVquay
p4147
aVwall
p4148
ag387
aVwith
p4149
aVillumined
p4150
aVporthole
p4151
ag45
asg46
(lp4152
g48
ag48
ag48
ag48
ag48
ag48
ag48
ag48
ag48
ag48
ag48
ag48
ag48
ag48
ag48
ag48
ag48
ag48
ag48
ag48
ag48
ag48
ag48
ag48
ag48
ag48
ag48
ag48
ag48
ag48
asg49
(lp4153
g53
ag54
ag134
ag106
ag53
ag54
ag106
ag51
ag52
ag54
ag55
ag53
ag54
ag134
ag55
ag53
ag54
ag134
ag408
ag56
ag53
ag55
ag54
ag55
ag55
ag408
ag53
ag134
ag106
ag57
asg58
VThrough the wide doors of the sheds she caught a glimpse of the black mass of the boat, lying in beside the quay wall, with illumined portholes.
p4154
sba(i__main__
Sentence
p4155
(dp4156
g17
I104
sg18
(lp4157
S'She'
p4158
aS'answered'
p4159
aS'nothing'
p4160
aS'.'
p4161
asg32
(lp4162
VShe
p4163
aVanswer
p4164
aVnothing
p4165
ag45
asg46
(lp4166
g48
ag48
ag48
ag48
asg49
(lp4167
g51
ag52
ag55
ag57
asg58
VShe answered nothing.
p4168
sba(i__main__
Sentence
p4169
(dp4170
g17
I105
sg18
(lp4171
S'She'
p4172
aS'felt'
p4173
aS'her'
p4174
aS'cheek'
p4175
aS'pale'
p4176
aS'and'
p4177
aS'cold'
p4178
aS'and'
p4179
aS','
p4180
aS'out'
p4181
aS'of'
p4182
aS'a'
p4183
aS'maze'
p4184
aS'of'
p4185
aS'distress'
p4186
aS','
p4187
aS'she'
p4188
aS'prayed'
p4189
aS'to'
p4190
aS'God'
p4191
aS'to'
p4192
aS'direct'
p4193
aS'her'
p4194
aS','
p4195
aS'to'
p4196
aS'show'
p4197
aS'her'
p4198
aS'what'
p4199
aS'was'
p4200
aS'her'
p4201
aS'duty'
p4202
aS'.'
p4203
asg32
(lp4204
VShe
p4205
aVfelt
p4206
aVher
p4207
aVcheek
p4208
aVpale
p4209
aVand
p4210
aVcold
p4211
aVand
p4212
ag387
aVout
p4213
aVof
p4214
ag246
aVmaze
p4215
aVof
p4216
aVdistress
p4217
ag387
aVshe
p4218
aVpray
p4219
aVto
p4220
aVGod
p4221
aVto
p4222
aVdirect
p4223
aVher
p4224
ag387
aVto
p4225
aVshow
p4226
aVher
p4227
aVwhat
p4228
ag85
aVher
p4229
aVduty
p4230
ag45
asg46
(lp4231
g48
ag48
ag48
ag48
ag48
ag48
ag48
ag48
ag48
ag48
ag48
ag48
ag48
ag48
ag48
ag48
ag48
ag48
ag48
ag48
ag48
ag48
ag48
ag48
ag48
ag48
ag48
ag48
ag48
ag48
ag48
ag48
asg49
(lp4232
g51
ag52
ag102
ag55
ag55
ag105
ag52
ag105
ag408
ag53
ag53
ag54
ag55
ag53
ag55
ag408
ag51
ag52
ag266
ag333
ag266
ag267
ag102
ag408
ag266
ag267
ag102
ag1206
ag52
ag102
ag55
ag57
asg58
VShe felt her cheek pale and cold and, out of a maze of distress, she prayed to God to direct her, to show her what was her duty.
p4233
sba(i__main__
Sentence
p4234
(dp4235
g17
I106
sg18
(lp4236
S'The'
p4237
aS'boat'
p4238
aS'blew'
p4239
aS'a'
p4240
aS'long'
p4241
aS'mournful'
p4242
aS'whistle'
p4243
aS'into'
p4244
aS'the'
p4245
aS'mist'
p4246
aS'.'
p4247
asg32
(lp4248
VThe
p4249
aVboat
p4250
aVblew
p4251
ag246
aVlong
p4252
aVmournful
p4253
aVwhistle
p4254
aVinto
p4255
aVthe
p4256
aVmist
p4257
ag45
asg46
(lp4258
g48
ag48
ag48
ag48
ag48
ag48
ag48
ag48
ag48
ag48
ag48
asg49
(lp4259
g54
ag55
ag55
ag54
ag134
ag134
ag55
ag53
ag54
ag134
ag57
asg58
VThe boat blew a long mournful whistle into the mist.
p4260
sba(i__main__
Sentence
p4261
(dp4262
g17
I107
sg18
(lp4263
S'If'
p4264
aS'she'
p4265
aS'went'
p4266
aS','
p4267
aS'tomorrow'
p4268
aS'she'
p4269
aS'would'
p4270
aS'be'
p4271
aS'on'
p4272
aS'the'
p4273
aS'sea'
p4274
aS'with'
p4275
aS'Frank'
p4276
aS','
p4277
aS'steaming'
p4278
aS'towards'
p4279
aS'Buenos'
p4280
aS'Ayres'
p4281
aS'.'
p4282
asg32
(lp4283
VIf
p4284
aVshe
p4285
aVgo
p4286
ag387
aVtomorrow
p4287
aVshe
p4288
aVwould
p4289
aVbe
p4290
aVon
p4291
aVthe
p4292
aVsea
p4293
aVwith
p4294
aVFrank
p4295
ag387
aVsteam
p4296
aVtowards
p4297
aVBuenos
p4298
aVAyres
p4299
ag45
asg46
(lp4300
g48
ag48
ag48
ag48
ag48
ag48
ag48
ag48
ag48
ag48
ag48
ag48
aVPERSON
p4301
ag48
ag48
ag48
aVPERSON
p4302
aVPERSON
p4303
ag48
asg49
(lp4304
g53
ag51
ag52
ag408
ag55
ag51
ag831
ag267
ag53
ag54
ag55
ag53
ag333
ag408
ag56
ag106
ag333
ag333
ag57
asg58
VIf she went, tomorrow she would be on the sea with Frank, steaming towards Buenos Ayres.
p4305
sba(i__main__
Sentence
p4306
(dp4307
g17
I108
sg18
(lp4308
S'Their'
p4309
aS'passage'
p4310
aS'had'
p4311
aS'been'
p4312
aS'booked'
p4313
aS'.'
p4314
asg32
(lp4315
VTheir
p4316
aVpassage
p4317
ag649
ag536
aVbook
p4318
ag45
asg46
(lp4319
g48
ag48
ag48
ag48
ag48
ag48
asg49
(lp4320
g102
ag55
ag52
ag103
ag103
ag57
asg58
VTheir passage had been booked.
p4321
sba(i__main__
Sentence
p4322
(dp4323
g17
I109
sg18
(lp4324
S'Could'
p4325
aS'she'
p4326
aS'still'
p4327
aS'draw'
p4328
aS'back'
p4329
aS'after'
p4330
aS'all'
p4331
aS'he'
p4332
aS'had'
p4333
aS'done'
p4334
aS'for'
p4335
aS'her'
p4336
aS'?'
p4337
asg32
(lp4338
VCould
p4339
aVshe
p4340
aVstill
p4341
aVdraw
p4342
aVback
p4343
aVafter
p4344
aVall
p4345
aVhe
p4346
ag649
aVdo
p4347
aVfor
p4348
aVher
p4349
ag1046
asg46
(lp4350
g48
ag48
ag48
ag48
ag48
ag48
ag48
ag48
ag48
ag48
ag48
ag48
ag48
asg49
(lp4351
g831
ag51
ag265
ag1207
ag265
ag53
ag54
ag51
ag52
ag103
ag53
ag102
ag57
asg58
VCould she still draw back after all he had done for her?
p4352
sba(i__main__
Sentence
p4353
(dp4354
g17
I110
sg18
(lp4355
S'Her'
p4356
aS'distress'
p4357
aS'awoke'
p4358
aS'a'
p4359
aS'nausea'
p4360
aS'in'
p4361
aS'her'
p4362
aS'body'
p4363
aS'and'
p4364
aS'she'
p4365
aS'kept'
p4366
aS'moving'
p4367
aS'her'
p4368
aS'lips'
p4369
aS'in'
p4370
aS'silent'
p4371
aS'fervent'
p4372
aS'prayer'
p4373
aS'.'
p4374
asg32
(lp4375
VHer
p4376
aVdistress
p4377
aVawoke
p4378
ag246
aVnausea
p4379
aVin
p4380
aVher
p4381
aVbody
p4382
aVand
p4383
aVshe
p4384
aVkeep
p4385
aVmove
p4386
aVher
p4387
aVlip
p4388
aVin
p4389
aVsilent
p4390
aVfervent
p4391
aVprayer
p4392
ag45
asg46
(lp4393
g48
ag48
ag48
ag48
ag48
ag48
ag48
ag48
ag48
ag48
ag48
ag48
ag48
ag48
ag48
ag48
ag48
ag48
ag48
asg49
(lp4394
g102
ag55
ag55
ag54
ag55
ag53
ag102
ag55
ag105
ag51
ag52
ag56
ag102
ag106
ag53
ag55
ag55
ag55
ag57
asg58
VHer distress awoke a nausea in her body and she kept moving her lips in silent fervent prayer.
p4395
sba(i__main__
Sentence
p4396
(dp4397
g17
I111
sg18
(lp4398
S'A'
p4399
aS'bell'
p4400
aS'clanged'
p4401
aS'upon'
p4402
aS'her'
p4403
aS'heart'
p4404
aS'.'
p4405
asg32
(lp4406
VA
p4407
aVbell
p4408
aVclang
p4409
aVupon
p4410
aVher
p4411
aVheart
p4412
ag45
asg46
(lp4413
g48
ag48
ag48
ag48
ag48
ag48
ag48
asg49
(lp4414
g54
ag55
ag52
ag53
ag102
ag55
ag57
asg58
VA bell clanged upon her heart.
p4415
sba(i__main__
Sentence
p4416
(dp4417
g17
I112
sg18
(lp4418
S'She'
p4419
aS'felt'
p4420
aS'him'
p4421
aS'seize'
p4422
aS'her'
p4423
aS'hand'
p4424
aS':'
p4425
aS'``'
p4426
aS'Come'
p4427
aS'!'
p4428
aS"''"
p4429
asg32
(lp4430
VShe
p4431
aVfelt
p4432
aVhim
p4433
aVseize
p4434
aVher
p4435
aVhand
p4436
ag431
aV``
p4437
aVCome
p4438
ag716
aV''
p4439
asg46
(lp4440
g48
ag48
ag48
ag48
ag48
ag48
ag48
ag48
ag48
ag48
ag48
asg49
(lp4441
g51
ag52
ag51
ag1207
ag51
ag1207
ag211
ag719
ag267
ag57
ag1005
asg58
VShe felt him seize her hand:    "Come!"
p4442
sba(i__main__
Sentence
p4443
(dp4444
g17
I113
sg18
(lp4445
S'All'
p4446
aS'the'
p4447
aS'seas'
p4448
aS'of'
p4449
aS'the'
p4450
aS'world'
p4451
aS'tumbled'
p4452
aS'about'
p4453
aS'her'
p4454
aS'heart'
p4455
aS'.'
p4456
asg32
(lp4457
VAll
p4458
aVthe
p4459
aVsea
p4460
aVof
p4461
aVthe
p4462
aVworld
p4463
aVtumble
p4464
aVabout
p4465
aVher
p4466
aVheart
p4467
ag45
asg46
(lp4468
g48
ag48
ag48
ag48
ag48
ag48
ag48
ag48
ag48
ag48
ag48
asg49
(lp4469
g54
ag54
ag106
ag53
ag54
ag55
ag52
ag53
ag102
ag55
ag57
asg58
VAll the seas of the world tumbled about her heart.
p4470
sba(i__main__
Sentence
p4471
(dp4472
g17
I114
sg18
(lp4473
S'He'
p4474
aS'was'
p4475
aS'drawing'
p4476
aS'her'
p4477
aS'into'
p4478
aS'them'
p4479
aS':'
p4480
aS'he'
p4481
aS'would'
p4482
aS'drown'
p4483
aS'her'
p4484
aS'.'
p4485
asg32
(lp4486
VHe
p4487
ag85
aVdraw
p4488
aVher
p4489
aVinto
p4490
aVthem
p4491
ag431
aVhe
p4492
aVwould
p4493
aVdrown
p4494
aVher
p4495
ag45
asg46
(lp4496
g48
ag48
ag48
ag48
ag48
ag48
ag48
ag48
ag48
ag48
ag48
ag48
asg49
(lp4497
g51
ag52
ag56
ag102
ag53
ag51
ag211
ag51
ag831
ag267
ag51
ag57
asg58
VHe was drawing her into them: he would drown her.
p4498
sba(i__main__
Sentence
p4499
(dp4500
g17
I115
sg18
(lp4501
S'She'
p4502
aS'gripped'
p4503
aS'with'
p4504
aS'both'
p4505
aS'hands'
p4506
aS'at'
p4507
aS'the'
p4508
aS'iron'
p4509
aS'railing'
p4510
aS'.'
p4511
asg32
(lp4512
VShe
p4513
aVgrip
p4514
aVwith
p4515
aVboth
p4516
aVhand
p4517
aVat
p4518
aVthe
p4519
aViron
p4520
aVrailing
p4521
ag45
asg46
(lp4522
g48
ag48
ag48
ag48
ag48
ag48
ag48
ag48
ag48
ag48
asg49
(lp4523
g51
ag52
ag53
ag54
ag106
ag53
ag54
ag55
ag55
ag57
asg58
VShe gripped with both hands at the iron railing.
p4524
sba(i__main__
Sentence
p4525
(dp4526
g17
I116
sg18
(lp4527
S'``'
p4528
aS'Come'
p4529
aS'!'
p4530
aS"''"
p4531
asg32
(lp4532
V``
p4533
aVCome
p4534
ag716
aV''
p4535
asg46
(lp4536
g48
ag48
ag48
ag48
asg49
(lp4537
g719
ag333
ag57
ag1005
asg58
V"Come!"
p4538
sba(i__main__
Sentence
p4539
(dp4540
g17
I117
sg18
(lp4541
S'No'
p4542
aS'!'
p4543
asg32
(lp4544
VNo
p4545
ag716
asg46
(lp4546
g48
ag48
asg49
(lp4547
g54
ag55
asg58
VNo!
p4548
sba(i__main__
Sentence
p4549
(dp4550
g17
I118
sg18
(lp4551
S'No'
p4552
aS'!'
p4553
asg32
(lp4554
VNo
p4555
ag716
asg46
(lp4556
g48
ag48
asg49
(lp4557
g54
ag55
asg58
VNo!
p4558
sba(i__main__
Sentence
p4559
(dp4560
g17
I119
sg18
(lp4561
S'No'
p4562
aS'!'
p4563
asg32
(lp4564
VNo
p4565
ag716
asg46
(lp4566
g48
ag48
asg49
(lp4567
g54
ag55
asg58
VNo!
p4568
sba(i__main__
Sentence
p4569
(dp4570
g17
I120
sg18
(lp4571
S'It'
p4572
aS'was'
p4573
aS'impossible'
p4574
aS'.'
p4575
asg32
(lp4576
VIt
p4577
ag85
aVimpossible
p4578
ag45
asg46
(lp4579
g48
ag48
ag48
ag48
asg49
(lp4580
g51
ag52
ag134
ag57
asg58
VIt was impossible.
p4581
sba(i__main__
Sentence
p4582
(dp4583
g17
I121
sg18
(lp4584
S'Her'
p4585
aS'hands'
p4586
aS'clutched'
p4587
aS'the'
p4588
aS'iron'
p4589
aS'in'
p4590
aS'frenzy'
p4591
aS'.'
p4592
asg32
(lp4593
VHer
p4594
aVhand
p4595
aVclutch
p4596
aVthe
p4597
aViron
p4598
aVin
p4599
aVfrenzy
p4600
ag45
asg46
(lp4601
g48
ag48
ag48
ag48
ag48
ag48
ag48
ag48
asg49
(lp4602
g102
ag106
ag52
ag54
ag55
ag53
ag55
ag57
asg58
VHer hands clutched the iron in frenzy.
p4603
sba(i__main__
Sentence
p4604
(dp4605
g17
I122
sg18
(lp4606
S'Amid'
p4607
aS'the'
p4608
aS'seas'
p4609
aS'she'
p4610
aS'sent'
p4611
aS'a'
p4612
aS'cry'
p4613
aS'of'
p4614
aS'anguish'
p4615
aS'.'
p4616
asg32
(lp4617
VAmid
p4618
aVthe
p4619
aVsea
p4620
aVshe
p4621
ag1832
ag246
aVcry
p4622
aVof
p4623
aVanguish
p4624
ag45
asg46
(lp4625
g48
ag48
ag48
ag48
ag48
ag48
ag48
ag48
ag48
ag48
asg49
(lp4626
g333
ag54
ag106
ag51
ag52
ag54
ag55
ag53
ag134
ag57
asg58
VAmid the seas she sent a cry of anguish.
p4627
sba(i__main__
Sentence
p4628
(dp4629
g17
I123
sg18
(lp4630
S'``'
p4631
aS'Eveline'
p4632
aS'!'
p4633
asg32
(lp4634
V``
p4635
aVEveline
p4636
ag716
asg46
(lp4637
g48
aVPERSON
p4638
ag48
asg49
(lp4639
g719
ag333
ag57
asg58
V"Eveline!
p4640
sba(i__main__
Sentence
p4641
(dp4642
g17
I124
sg18
(lp4643
S'Evvy'
p4644
aS'!'
p4645
aS"''"
p4646
asg32
(lp4647
VEvvy
p4648
ag716
aV''
p4649
asg46
(lp4650
g48
ag48
ag48
asg49
(lp4651
g333
ag211
ag1005
asg58
VEvvy!"
p4652
sba(i__main__
Sentence
p4653
(dp4654
g17
I125
sg18
(lp4655
S'He'
p4656
aS'rushed'
p4657
aS'beyond'
p4658
aS'the'
p4659
aS'barrier'
p4660
aS'and'
p4661
aS'called'
p4662
aS'to'
p4663
aS'her'
p4664
aS'to'
p4665
aS'follow'
p4666
aS'.'
p4667
asg32
(lp4668
VHe
p4669
aVrush
p4670
aVbeyond
p4671
aVthe
p4672
aVbarrier
p4673
aVand
p4674
aVcall
p4675
aVto
p4676
aVher
p4677
aVto
p4678
aVfollow
p4679
ag45
asg46
(lp4680
g48
ag48
ag48
ag48
ag48
ag48
ag48
ag48
ag48
ag48
ag48
ag48
asg49
(lp4681
g51
ag52
ag53
ag54
ag55
ag105
ag103
ag266
ag102
ag266
ag267
ag57
asg58
VHe rushed beyond the barrier and called to her to follow.
p4682
sba(i__main__
Sentence
p4683
(dp4684
g17
I126
sg18
(lp4685
S'He'
p4686
aS'was'
p4687
aS'shouted'
p4688
aS'at'
p4689
aS'to'
p4690
aS'go'
p4691
aS'on'
p4692
aS'but'
p4693
aS'he'
p4694
aS'still'
p4695
aS'called'
p4696
aS'to'
p4697
aS'her'
p4698
aS'.'
p4699
asg32
(lp4700
VHe
p4701
ag85
aVshout
p4702
aVat
p4703
aVto
p4704
aVgo
p4705
aVon
p4706
aVbut
p4707
aVhe
p4708
aVstill
p4709
aVcall
p4710
aVto
p4711
aVher
p4712
ag45
asg46
(lp4713
g48
ag48
ag48
ag48
ag48
ag48
ag48
ag48
ag48
ag48
ag48
ag48
ag48
ag48
asg49
(lp4714
g51
ag52
ag103
ag53
ag266
ag267
ag53
ag105
ag51
ag265
ag103
ag266
ag102
ag57
asg58
VHe was shouted at to go on but he still called to her.
p4715
sba(i__main__
Sentence
p4716
(dp4717
g17
I127
sg18
(lp4718
S'She'
p4719
aS'set'
p4720
aS'her'
p4721
aS'white'
p4722
aS'face'
p4723
aS'to'
p4724
aS'him'
p4725
aS','
p4726
aS'passive'
p4727
aS','
p4728
aS'like'
p4729
aS'a'
p4730
aS'helpless'
p4731
aS'animal'
p4732
aS'.'
p4733
asg32
(lp4734
VShe
p4735
aVset
p4736
aVher
p4737
aVwhite
p4738
aVface
p4739
aVto
p4740
aVhim
p4741
ag387
aVpassive
p4742
ag387
aVlike
p4743
ag246
aVhelpless
p4744
aVanimal
p4745
ag45
asg46
(lp4746
g48
ag48
ag48
ag48
ag48
ag48
ag48
ag48
ag48
ag48
ag48
ag48
ag48
ag48
ag48
asg49
(lp4747
g51
ag52
ag102
ag55
ag55
ag266
ag51
ag408
ag134
ag408
ag53
ag54
ag55
ag55
ag57
asg58
VShe set her white face to him, passive, like a helpless animal.
p4748
sba(i__main__
Sentence
p4749
(dp4750
g17
I128
sg18
(lp4751
S'Her'
p4752
aS'eyes'
p4753
aS'gave'
p4754
aS'him'
p4755
aS'no'
p4756
aS'sign'
p4757
aS'of'
p4758
aS'love'
p4759
aS'or'
p4760
aS'farewell'
p4761
aS'or'
p4762
aS'recognition'
p4763
aS'.'
p4764
asg32
(lp4765
VHer
p4766
aVeye
p4767
ag1821
aVhim
p4768
aVno
p4769
aVsign
p4770
aVof
p4771
aVlove
p4772
aVor
p4773
aVfarewell
p4774
aVor
p4775
aVrecognition
p4776
ag45
asg46
(lp4777
g48
ag48
ag48
ag48
ag48
ag48
ag48
ag48
ag48
ag48
ag48
ag48
ag48
asg49
(lp4778
g102
ag106
ag1207
ag51
ag54
ag55
ag53
ag55
ag105
ag55
ag105
ag55
ag57
asg58
VHer eyes gave him no sign of love or farewell or recognition.
p4779
sbasbsS'summary'
p4780
g0
(g7
g2
Ntp4781
Rp4782
(dp4783
g11
S'Eveline Hill, a 19-year-old woman who works in a Dublin shop, sits inside her family\'s house recalling childhood, including some happy memories as well as her father\'s drunken brutality to her and her siblings. Eveline thinks about people she has known who have either left Ireland (a priest who has traveled to Melbourne, for example) or died (her mother and her brother Ernest), and of her own plans to leave the country with a man named Frank. She recalls meeting Frank, an Irish sailor now living in Argentina, and dating him while he visited Dublin on vacation. Eveline also thinks about her father\'s disapproval of Frank, and of her promise "to keep the home together as long as she could" before her mother grew deranged and died. Later, gripped by fear of the unknown and probably guilt as well, Eveline finds herself unable to board the ferry to England, where she and Frank are scheduled to meet a ship bound for South America. He leaves without her.'
p4784
sg13
(lp4785
(i__main__
Sentence
p4786
(dp4787
g17
I0
sg18
(lp4788
S'Eveline'
p4789
aS'Hill'
p4790
aS','
p4791
aS'a'
p4792
aS'19-year-old'
p4793
aS'woman'
p4794
aS'who'
p4795
aS'works'
p4796
aS'in'
p4797
aS'a'
p4798
aS'Dublin'
p4799
aS'shop'
p4800
aS','
p4801
aS'sits'
p4802
aS'inside'
p4803
aS'her'
p4804
aS'family'
p4805
aS"'s"
p4806
aS'house'
p4807
aS'recalling'
p4808
aS'childhood'
p4809
aS','
p4810
aS'including'
p4811
aS'some'
p4812
aS'happy'
p4813
aS'memories'
p4814
aS'as'
p4815
aS'well'
p4816
aS'as'
p4817
aS'her'
p4818
aS'father'
p4819
aS"'s"
p4820
aS'drunken'
p4821
aS'brutality'
p4822
aS'to'
p4823
aS'her'
p4824
aS'and'
p4825
aS'her'
p4826
aS'siblings'
p4827
aS'.'
p4828
asg32
(lp4829
VEveline
p4830
aVHill
p4831
ag387
ag246
aV19-year-old
p4832
aVwoman
p4833
aVwho
p4834
aVwork
p4835
aVin
p4836
ag246
aVDublin
p4837
aVshop
p4838
ag387
aVsit
p4839
aVinside
p4840
aVher
p4841
aVfamily
p4842
aV's
p4843
aVhouse
p4844
aVrecalling
p4845
aVchildhood
p4846
ag387
aVinclude
p4847
aVsome
p4848
aVhappy
p4849
aVmemory
p4850
ag246
aVwell
p4851
ag246
aVher
p4852
aVfather
p4853
aV's
p4854
aVdrunken
p4855
aVbrutality
p4856
aVto
p4857
aVher
p4858
aVand
p4859
aVher
p4860
aVsibling
p4861
ag45
asg46
(lp4862
VPERSON
p4863
aVPERSON
p4864
ag48
ag48
ag48
ag48
ag48
ag48
ag48
ag48
aVLOCATION
p4865
ag48
ag48
ag48
ag48
ag48
ag48
ag48
ag48
ag48
ag48
ag48
ag48
ag48
ag48
ag48
ag48
ag48
ag48
ag48
ag48
ag48
ag48
ag48
ag48
ag48
ag48
ag48
ag48
ag48
asg49
(lp4866
g333
ag333
ag408
ag54
ag134
ag55
ag1206
ag106
ag53
ag54
ag333
ag55
ag408
ag104
ag55
ag102
ag55
ag270
ag55
ag55
ag55
ag408
ag56
ag54
ag134
ag106
ag53
ag265
ag53
ag102
ag55
ag270
ag55
ag55
ag266
ag102
ag105
ag102
ag106
ag57
asg58
VEveline Hill, a 19-year-old woman who works in a Dublin shop, sits inside her family's house recalling childhood, including some happy memories as well as her father's drunken brutality to her and her siblings.
p4867
sba(i__main__
Sentence
p4868
(dp4869
g17
I1
sg18
(lp4870
S'Eveline'
p4871
aS'thinks'
p4872
aS'about'
p4873
aS'people'
p4874
aS'she'
p4875
aS'has'
p4876
aS'known'
p4877
aS'who'
p4878
aS'have'
p4879
aS'either'
p4880
aS'left'
p4881
aS'Ireland'
p4882
aS'('
p4883
aS'a'
p4884
aS'priest'
p4885
aS'who'
p4886
aS'has'
p4887
aS'traveled'
p4888
aS'to'
p4889
aS'Melbourne'
p4890
aS','
p4891
aS'for'
p4892
aS'example'
p4893
aS')'
p4894
aS'or'
p4895
aS'died'
p4896
aS'('
p4897
aS'her'
p4898
aS'mother'
p4899
aS'and'
p4900
aS'her'
p4901
aS'brother'
p4902
aS'Ernest'
p4903
aS')'
p4904
aS','
p4905
aS'and'
p4906
aS'of'
p4907
aS'her'
p4908
aS'own'
p4909
aS'plans'
p4910
aS'to'
p4911
aS'leave'
p4912
aS'the'
p4913
aS'country'
p4914
aS'with'
p4915
aS'a'
p4916
aS'man'
p4917
aS'named'
p4918
aS'Frank'
p4919
aS'.'
p4920
asg32
(lp4921
VEveline
p4922
aVthink
p4923
aVabout
p4924
aVpeople
p4925
aVshe
p4926
aVhave
p4927
ag1115
aVwho
p4928
aVhave
p4929
aVeither
p4930
ag2135
aVIreland
p4931
aV(
p4932
ag246
aVpriest
p4933
aVwho
p4934
ag4927
aVtravel
p4935
aVto
p4936
aVMelbourne
p4937
ag387
aVfor
p4938
aVexample
p4939
aV)
p4940
aVor
p4941
aVdie
p4942
ag4932
aVher
p4943
aVmother
p4944
aVand
p4945
aVher
p4946
aVbrother
p4947
aVErnest
p4948
ag4940
ag387
aVand
p4949
aVof
p4950
aVher
p4951
aVown
p4952
aVplan
p4953
aVto
p4954
aVleave
p4955
aVthe
p4956
aVcountry
p4957
aVwith
p4958
ag246
aVman
p4959
aVname
p4960
aVFrank
p4961
ag45
asg46
(lp4962
VPERSON
p4963
ag48
ag48
ag48
ag48
ag48
ag48
ag48
ag48
ag48
ag48
aVLOCATION
p4964
ag48
ag48
ag48
ag48
ag48
ag48
ag48
aVLOCATION
p4965
ag48
ag48
ag48
ag48
ag48
ag48
ag48
ag48
ag48
ag48
ag48
ag48
aVPERSON
p4966
aVPERSON
p4967
ag48
ag48
ag48
ag48
ag48
ag48
ag48
ag48
ag48
ag48
ag48
ag48
ag48
ag48
aVPERSON
p4968
ag48
asg49
(lp4969
g333
ag104
ag53
ag106
ag51
ag104
ag103
ag1206
ag1207
ag54
ag103
ag333
ag333
ag54
ag55
ag1206
ag104
ag103
ag266
ag333
ag408
ag53
ag55
ag211
ag105
ag52
ag264
ag102
ag55
ag105
ag102
ag55
ag333
ag333
ag408
ag105
ag53
ag102
ag134
ag106
ag266
ag267
ag54
ag55
ag53
ag54
ag55
ag103
ag333
ag57
asg58
VEveline thinks about people she has known who have either left Ireland (a priest who has traveled to Melbourne, for example) or died (her mother and her brother Ernest), and of her own plans to leave the country with a man named Frank.
p4970
sba(i__main__
Sentence
p4971
(dp4972
g17
I2
sg18
(lp4973
S'She'
p4974
aS'recalls'
p4975
aS'meeting'
p4976
aS'Frank'
p4977
aS','
p4978
aS'an'
p4979
aS'Irish'
p4980
aS'sailor'
p4981
aS'now'
p4982
aS'living'
p4983
aS'in'
p4984
aS'Argentina'
p4985
aS','
p4986
aS'and'
p4987
aS'dating'
p4988
aS'him'
p4989
aS'while'
p4990
aS'he'
p4991
aS'visited'
p4992
aS'Dublin'
p4993
aS'on'
p4994
aS'vacation'
p4995
aS'.'
p4996
asg32
(lp4997
VShe
p4998
aVrecall
p4999
aVmeeting
p5000
aVFrank
p5001
ag387
aVan
p5002
aVIrish
p5003
aVsailor
p5004
aVnow
p5005
aVlive
p5006
aVin
p5007
aVArgentina
p5008
ag387
aVand
p5009
aVdate
p5010
aVhim
p5011
aVwhile
p5012
aVhe
p5013
aVvisit
p5014
aVDublin
p5015
aVon
p5016
aVvacation
p5017
ag45
asg46
(lp5018
g48
ag48
ag48
aVPERSON
p5019
ag48
ag48
ag48
ag48
ag48
ag48
ag48
aVLOCATION
p5020
ag48
ag48
ag48
ag48
ag48
ag48
ag48
aVLOCATION
p5021
ag48
ag48
ag48
asg49
(lp5022
g51
ag104
ag55
ag333
ag408
ag54
ag134
ag55
ag265
ag56
ag53
ag333
ag408
ag105
ag56
ag51
ag53
ag51
ag52
ag333
ag53
ag55
ag57
asg58
VShe recalls meeting Frank, an Irish sailor now living in Argentina, and dating him while he visited Dublin on vacation.
p5023
sba(i__main__
Sentence
p5024
(dp5025
g17
I3
sg18
(lp5026
S'Eveline'
p5027
aS'also'
p5028
aS'thinks'
p5029
aS'about'
p5030
aS'her'
p5031
aS'father'
p5032
aS"'s"
p5033
aS'disapproval'
p5034
aS'of'
p5035
aS'Frank'
p5036
aS','
p5037
aS'and'
p5038
aS'of'
p5039
aS'her'
p5040
aS'promise'
p5041
aS'``'
p5042
aS'to'
p5043
aS'keep'
p5044
aS'the'
p5045
aS'home'
p5046
aS'together'
p5047
aS'as'
p5048
aS'long'
p5049
aS'as'
p5050
aS'she'
p5051
aS'could'
p5052
aS"''"
p5053
aS'before'
p5054
aS'her'
p5055
aS'mother'
p5056
aS'grew'
p5057
aS'deranged'
p5058
aS'and'
p5059
aS'died'
p5060
aS'.'
p5061
asg32
(lp5062
VEveline
p5063
aValso
p5064
aVthink
p5065
aVabout
p5066
aVher
p5067
aVfather
p5068
aV's
p5069
aVdisapproval
p5070
aVof
p5071
aVFrank
p5072
ag387
aVand
p5073
aVof
p5074
aVher
p5075
aVpromise
p5076
aV``
p5077
aVto
p5078
aVkeep
p5079
aVthe
p5080
aVhome
p5081
aVtogether
p5082
ag246
aVlong
p5083
ag246
aVshe
p5084
aVcould
p5085
aV''
p5086
aVbefore
p5087
aVher
p5088
aVmother
p5089
ag3083
aVderange
p5090
aVand
p5091
aVdie
p5092
ag45
asg46
(lp5093
VPERSON
p5094
ag48
ag48
ag48
ag48
ag48
ag48
ag48
ag48
aVPERSON
p5095
ag48
ag48
ag48
ag48
ag48
ag48
ag48
ag48
ag48
ag48
ag48
ag48
ag48
ag48
ag48
ag48
ag48
ag48
ag48
ag48
ag48
ag48
ag48
ag48
ag48
asg49
(lp5096
g333
ag265
ag104
ag53
ag102
ag55
ag270
ag55
ag53
ag333
ag408
ag105
ag53
ag102
ag55
ag719
ag266
ag267
ag54
ag55
ag265
ag53
ag265
ag53
ag51
ag831
ag1005
ag53
ag102
ag55
ag52
ag103
ag105
ag52
ag57
asg58
VEveline also thinks about her father's disapproval of Frank, and of her promise "to keep the home together as long as she could" before her mother grew deranged and died.
p5097
sba(i__main__
Sentence
p5098
(dp5099
g17
I4
sg18
(lp5100
S'Later'
p5101
aS','
p5102
aS'gripped'
p5103
aS'by'
p5104
aS'fear'
p5105
aS'of'
p5106
aS'the'
p5107
aS'unknown'
p5108
aS'and'
p5109
aS'probably'
p5110
aS'guilt'
p5111
aS'as'
p5112
aS'well'
p5113
aS','
p5114
aS'Eveline'
p5115
aS'finds'
p5116
aS'herself'
p5117
aS'unable'
p5118
aS'to'
p5119
aS'board'
p5120
aS'the'
p5121
aS'ferry'
p5122
aS'to'
p5123
aS'England'
p5124
aS','
p5125
aS'where'
p5126
aS'she'
p5127
aS'and'
p5128
aS'Frank'
p5129
aS'are'
p5130
aS'scheduled'
p5131
aS'to'
p5132
aS'meet'
p5133
aS'a'
p5134
aS'ship'
p5135
aS'bound'
p5136
aS'for'
p5137
aS'South'
p5138
aS'America'
p5139
aS'.'
p5140
asg32
(lp5141
VLater
p5142
ag387
ag4514
aVby
p5143
aVfear
p5144
aVof
p5145
aVthe
p5146
aVunknown
p5147
aVand
p5148
aVprobably
p5149
aVguilt
p5150
ag246
aVwell
p5151
ag387
aVEveline
p5152
aVfind
p5153
aVherself
p5154
aVunable
p5155
aVto
p5156
aVboard
p5157
aVthe
p5158
aVferry
p5159
aVto
p5160
aVEngland
p5161
ag387
aVwhere
p5162
aVshe
p5163
aVand
p5164
aVFrank
p5165
ag1327
aVschedule
p5166
aVto
p5167
aVmeet
p5168
ag246
aVship
p5169
aVbound
p5170
aVfor
p5171
aVSouth
p5172
aVAmerica
p5173
ag45
asg46
(lp5174
g48
ag48
ag48
ag48
ag48
ag48
ag48
ag48
ag48
ag48
ag48
ag48
ag48
ag48
aVPERSON
p5175
ag48
ag48
ag48
ag48
ag48
ag48
ag48
ag48
aVLOCATION
p5176
ag48
ag48
ag48
ag48
aVPERSON
p5177
ag48
ag48
ag48
ag48
ag48
ag48
ag48
ag48
aVLOCATION
p5178
aVLOCATION
p5179
ag48
asg49
(lp5180
g134
ag408
ag52
ag53
ag55
ag53
ag54
ag55
ag105
ag265
ag52
ag53
ag265
ag408
ag333
ag106
ag51
ag134
ag266
ag55
ag54
ag55
ag266
ag333
ag408
ag515
ag51
ag105
ag333
ag1207
ag103
ag266
ag267
ag54
ag55
ag55
ag53
ag333
ag333
ag57
asg58
VLater, gripped by fear of the unknown and probably guilt as well, Eveline finds herself unable to board the ferry to England, where she and Frank are scheduled to meet a ship bound for South America.
p5181
sba(i__main__
Sentence
p5182
(dp5183
g17
I5
sg18
(lp5184
S'He'
p5185
aS'leaves'
p5186
aS'without'
p5187
aS'her'
p5188
aS'.'
p5189
asg32
(lp5190
VHe
p5191
aVleave
p5192
aVwithout
p5193
aVher
p5194
ag45
asg46
(lp5195
g48
ag48
ag48
ag48
ag48
asg49
(lp5196
g51
ag104
ag53
ag102
ag57
asg58
VHe leaves without her.
p5197
sbasbsS'name'
p5198
S'Eveline'
p5199
sS'summaries'
p5200
(lp5201
g4782
asb.