ccopy_reg
_reconstructor
p0
(c__main__
Story
p1
c__builtin__
object
p2
Ntp3
Rp4
(dp5
S'text'
p6
g0
(c__main__
Document
p7
g2
Ntp8
Rp9
(dp10
S'_Document__initialContent'
p11
S'The fox once came to a meadow in which sat a flock of fine fat\ngeese, on which he smiled and said, I come in the nick of time,\nyou are sitting together quite beautifully, so that I can eat you\nup one after the other.  The geese cackled with terror, sprang\nup, and began to wail and beg piteously for their lives.  But\nthe fox would listen to nothing, and said, there is no mercy\nto be had.  You must die.  At length one of them took heart and\nsaid,  if we poor geese are to yield up our lives, show us the\nonly possible favor and allow us one more prayer, that we may\nnot die in our sins, and then we will place ourselves in a row,\nso that you can always pick yourself out the fattest.  Yes,\nsaid the fox, that is reasonable, and a pious request.  Pray\naway, I will wait till you are done.  Then the first began a\ngood long prayer, for ever saying, ga, ga, and as she would\nmake no end, the second did not wait until her turn came, but\nbegan also, ga, ga.  The third\nand fourth followed her, and soon they were all cackling\ntogether.\nWhen they have done praying, the story shall be continued further,\nbut at present they are still praying unceasingly.\n'
p12
sS'sentences'
p13
(lp14
(i__main__
Sentence
p15
(dp16
S'index'
p17
I0
sS'words'
p18
(lp19
S'The'
p20
aS'fox'
p21
aS'once'
p22
aS'came'
p23
aS'to'
p24
aS'a'
p25
aS'meadow'
p26
aS'in'
p27
aS'which'
p28
aS'sat'
p29
aS'a'
p30
aS'flock'
p31
aS'of'
p32
aS'fine'
p33
aS'fat'
p34
aS'geese'
p35
aS','
p36
aS'on'
p37
aS'which'
p38
aS'he'
p39
aS'smiled'
p40
aS'and'
p41
aS'said'
p42
aS','
p43
aS'I'
p44
aS'come'
p45
aS'in'
p46
aS'the'
p47
aS'nick'
p48
aS'of'
p49
aS'time'
p50
aS','
p51
aS'you'
p52
aS'are'
p53
aS'sitting'
p54
aS'together'
p55
aS'quite'
p56
aS'beautifully'
p57
aS','
p58
aS'so'
p59
aS'that'
p60
aS'I'
p61
aS'can'
p62
aS'eat'
p63
aS'you'
p64
aS'up'
p65
aS'one'
p66
aS'after'
p67
aS'the'
p68
aS'other'
p69
aS'.'
p70
asS'lemmas'
p71
(lp72
VThe
p73
aVfox
p74
aVonce
p75
aVcome
p76
aVto
p77
aVa
p78
aVmeadow
p79
aVin
p80
aVwhich
p81
aVsat
p82
ag78
aVflock
p83
aVof
p84
aVfine
p85
aVfat
p86
aVgoose
p87
aV,
p88
aVon
p89
aVwhich
p90
aVhe
p91
aVsmile
p92
aVand
p93
aVsay
p94
ag88
aVI
p95
aVcome
p96
aVin
p97
aVthe
p98
aVnick
p99
aVof
p100
aVtime
p101
ag88
aVyou
p102
aVbe
p103
aVsit
p104
aVtogether
p105
aVquite
p106
aVbeautifully
p107
ag88
aVso
p108
aVthat
p109
ag95
aVcan
p110
aVeat
p111
aVyou
p112
aVup
p113
aVone
p114
aVafter
p115
aVthe
p116
aVother
p117
aV.
p118
asS'nerTags'
p119
(lp120
VO
p121
ag121
ag121
ag121
ag121
ag121
ag121
ag121
ag121
ag121
ag121
ag121
ag121
ag121
ag121
ag121
ag121
ag121
ag121
ag121
ag121
ag121
ag121
ag121
ag121
ag121
ag121
ag121
ag121
ag121
ag121
ag121
ag121
ag121
ag121
ag121
ag121
ag121
ag121
ag121
ag121
ag121
ag121
ag121
ag121
ag121
ag121
ag121
ag121
ag121
ag121
asS'posTags'
p122
(lp123
S'DT'
p124
aS'NN'
p125
aS'RB'
p126
aS'VBD'
p127
aS'TO'
p128
ag124
ag125
aS'IN'
p129
aS'WDT'
p130
aS'JJ'
p131
ag124
ag125
ag129
ag125
ag131
ag125
aS','
p132
ag129
ag130
aS'PRP'
p133
ag127
aS'CC'
p134
ag127
ag132
ag133
aS'VBP'
p135
ag129
ag124
ag125
ag129
ag125
ag132
ag133
ag135
aS'VBG'
p136
ag126
ag126
ag126
ag132
ag126
ag129
ag133
aS'MD'
p137
aS'VB'
p138
ag133
aS'RP'
p139
aS'CD'
p140
ag129
ag124
ag131
aS'.'
p141
asS'_Sentence__initialContent'
p142
VThe fox once came to a meadow in which sat a flock of fine fat geese, on which he smiled and said, I come in the nick of time, you are sitting together quite beautifully, so that I can eat you up one after the other.
p143
sba(i__main__
Sentence
p144
(dp145
g17
I1
sg18
(lp146
S'The'
p147
aS'geese'
p148
aS'cackled'
p149
aS'with'
p150
aS'terror'
p151
aS','
p152
aS'sprang'
p153
aS'up'
p154
aS','
p155
aS'and'
p156
aS'began'
p157
aS'to'
p158
aS'wail'
p159
aS'and'
p160
aS'beg'
p161
aS'piteously'
p162
aS'for'
p163
aS'their'
p164
aS'lives'
p165
aS'.'
p166
asg71
(lp167
VThe
p168
ag87
aVcackle
p169
aVwith
p170
aVterror
p171
ag88
aVsprang
p172
aVup
p173
ag88
aVand
p174
aVbegin
p175
aVto
p176
aVwail
p177
aVand
p178
aVbeg
p179
aVpiteously
p180
aVfor
p181
aVtheir
p182
aVlife
p183
ag118
asg119
(lp184
g121
ag121
ag121
ag121
ag121
ag121
ag121
ag121
ag121
ag121
ag121
ag121
ag121
ag121
ag121
ag121
ag121
ag121
ag121
ag121
asg122
(lp185
g124
ag125
ag127
ag129
ag125
ag132
ag125
ag126
ag132
ag134
ag127
ag128
ag138
ag134
ag138
ag126
ag129
aS'PRP$'
p186
aS'NNS'
p187
ag141
asg142
VThe geese cackled with terror, sprang up, and began to wail and beg piteously for their lives.
p188
sba(i__main__
Sentence
p189
(dp190
g17
I2
sg18
(lp191
S'But'
p192
aS'the'
p193
aS'fox'
p194
aS'would'
p195
aS'listen'
p196
aS'to'
p197
aS'nothing'
p198
aS','
p199
aS'and'
p200
aS'said'
p201
aS','
p202
aS'there'
p203
aS'is'
p204
aS'no'
p205
aS'mercy'
p206
aS'to'
p207
aS'be'
p208
aS'had'
p209
aS'.'
p210
asg71
(lp211
VBut
p212
aVthe
p213
aVfox
p214
aVwould
p215
aVlisten
p216
aVto
p217
aVnothing
p218
ag88
aVand
p219
ag94
ag88
aVthere
p220
aVbe
p221
aVno
p222
aVmercy
p223
aVto
p224
aVbe
p225
aVhave
p226
ag118
asg119
(lp227
g121
ag121
ag121
ag121
ag121
ag121
ag121
ag121
ag121
ag121
ag121
ag121
ag121
ag121
ag121
ag121
ag121
ag121
ag121
asg122
(lp228
g134
ag124
ag125
ag137
ag138
ag128
ag125
ag132
ag134
ag127
ag132
aS'EX'
p229
aS'VBZ'
p230
ag124
ag125
ag128
ag138
aS'VBN'
p231
ag141
asg142
VBut the fox would listen to nothing, and said, there is no mercy to be had.
p232
sba(i__main__
Sentence
p233
(dp234
g17
I3
sg18
(lp235
S'You'
p236
aS'must'
p237
aS'die'
p238
aS'.'
p239
asg71
(lp240
VYou
p241
aVmust
p242
aVdie
p243
ag118
asg119
(lp244
g121
ag121
ag121
ag121
asg122
(lp245
g133
ag137
ag138
ag141
asg142
VYou must die.
p246
sba(i__main__
Sentence
p247
(dp248
g17
I4
sg18
(lp249
S'At'
p250
aS'length'
p251
aS'one'
p252
aS'of'
p253
aS'them'
p254
aS'took'
p255
aS'heart'
p256
aS'and'
p257
aS'said'
p258
aS','
p259
aS'if'
p260
aS'we'
p261
aS'poor'
p262
aS'geese'
p263
aS'are'
p264
aS'to'
p265
aS'yield'
p266
aS'up'
p267
aS'our'
p268
aS'lives'
p269
aS','
p270
aS'show'
p271
aS'us'
p272
aS'the'
p273
aS'only'
p274
aS'possible'
p275
aS'favor'
p276
aS'and'
p277
aS'allow'
p278
aS'us'
p279
aS'one'
p280
aS'more'
p281
aS'prayer'
p282
aS','
p283
aS'that'
p284
aS'we'
p285
aS'may'
p286
aS'not'
p287
aS'die'
p288
aS'in'
p289
aS'our'
p290
aS'sins'
p291
aS','
p292
aS'and'
p293
aS'then'
p294
aS'we'
p295
aS'will'
p296
aS'place'
p297
aS'ourselves'
p298
aS'in'
p299
aS'a'
p300
aS'row'
p301
aS','
p302
aS'so'
p303
aS'that'
p304
aS'you'
p305
aS'can'
p306
aS'always'
p307
aS'pick'
p308
aS'yourself'
p309
aS'out'
p310
aS'the'
p311
aS'fattest'
p312
aS'.'
p313
asg71
(lp314
VAt
p315
aVlength
p316
aVone
p317
aVof
p318
aVthem
p319
aVtake
p320
aVheart
p321
aVand
p322
ag94
ag88
aVif
p323
aVwe
p324
aVpoor
p325
aVgeese
p326
ag103
aVto
p327
aVyield
p328
aVup
p329
aVour
p330
ag183
ag88
aVshow
p331
aVu
p332
aVthe
p333
aVonly
p334
aVpossible
p335
aVfavor
p336
aVand
p337
aVallow
p338
ag332
aVone
p339
aVmore
p340
aVprayer
p341
ag88
aVthat
p342
aVwe
p343
aVmay
p344
aVnot
p345
aVdie
p346
aVin
p347
aVour
p348
aVsin
p349
ag88
aVand
p350
aVthen
p351
aVwe
p352
aVwill
p353
aVplace
p354
aVourselves
p355
aVin
p356
ag78
aVrow
p357
ag88
aVso
p358
aVthat
p359
aVyou
p360
aVcan
p361
aValways
p362
aVpick
p363
aVyourself
p364
aVout
p365
aVthe
p366
aVfat
p367
ag118
asg119
(lp368
g121
ag121
ag121
ag121
ag121
ag121
ag121
ag121
ag121
ag121
ag121
ag121
ag121
ag121
ag121
ag121
ag121
ag121
ag121
ag121
ag121
ag121
ag121
ag121
ag121
ag121
ag121
ag121
ag121
ag121
ag121
ag121
ag121
ag121
ag121
ag121
ag121
ag121
ag121
ag121
ag121
ag121
ag121
ag121
ag121
ag121
ag121
ag121
ag121
ag121
ag121
ag121
ag121
ag121
ag121
ag121
ag121
ag121
ag121
ag121
ag121
ag121
ag121
ag121
asg122
(lp369
g129
ag125
ag140
ag129
ag133
ag127
ag125
ag134
ag127
ag132
ag129
ag133
ag135
ag131
ag135
ag128
ag138
ag139
ag186
ag187
ag132
ag135
ag133
ag124
ag131
ag131
ag125
ag134
ag131
ag133
ag140
aS'JJR'
p370
ag125
ag132
ag129
ag133
ag137
ag126
ag138
ag129
ag186
ag187
ag132
ag134
ag126
ag133
ag137
ag138
ag187
ag129
ag124
ag125
ag132
ag126
ag129
ag133
ag137
ag126
ag138
ag133
ag139
ag124
aS'JJS'
p371
ag141
asg142
VAt length one of them took heart and said,  if we poor geese are to yield up our lives, show us the only possible favor and allow us one more prayer, that we may not die in our sins, and then we will place ourselves in a row, so that you can always pick yourself out the fattest.
p372
sba(i__main__
Sentence
p373
(dp374
g17
I5
sg18
(lp375
S'Yes'
p376
aS','
p377
aS'said'
p378
aS'the'
p379
aS'fox'
p380
aS','
p381
aS'that'
p382
aS'is'
p383
aS'reasonable'
p384
aS','
p385
aS'and'
p386
aS'a'
p387
aS'pious'
p388
aS'request'
p389
aS'.'
p390
asg71
(lp391
VYes
p392
ag88
ag94
aVthe
p393
aVfox
p394
ag88
aVthat
p395
ag221
aVreasonable
p396
ag88
aVand
p397
ag78
aVpious
p398
aVrequest
p399
ag118
asg119
(lp400
g121
ag121
ag121
ag121
ag121
ag121
ag121
ag121
ag121
ag121
ag121
ag121
ag121
ag121
ag121
asg122
(lp401
g187
ag132
ag127
ag124
ag125
ag132
ag129
ag230
ag131
ag132
ag134
ag124
ag131
ag125
ag141
asg142
VYes, said the fox, that is reasonable, and a pious request.
p402
sba(i__main__
Sentence
p403
(dp404
g17
I6
sg18
(lp405
S'Pray'
p406
aS'away'
p407
aS','
p408
aS'I'
p409
aS'will'
p410
aS'wait'
p411
aS'till'
p412
aS'you'
p413
aS'are'
p414
aS'done'
p415
aS'.'
p416
asg71
(lp417
VPray
p418
aVaway
p419
ag88
ag95
aVwill
p420
aVwait
p421
aVtill
p422
aVyou
p423
ag103
aVdo
p424
ag118
asg119
(lp425
g121
ag121
ag121
ag121
ag121
ag121
ag121
ag121
ag121
ag121
ag121
asg122
(lp426
S'NNP'
p427
ag126
ag132
ag133
ag137
ag138
ag125
ag133
ag135
ag231
ag141
asg142
VPray away, I will wait till you are done.
p428
sba(i__main__
Sentence
p429
(dp430
g17
I7
sg18
(lp431
S'Then'
p432
aS'the'
p433
aS'first'
p434
aS'began'
p435
aS'a'
p436
aS'good'
p437
aS'long'
p438
aS'prayer'
p439
aS','
p440
aS'for'
p441
aS'ever'
p442
aS'saying'
p443
aS','
p444
aS'ga'
p445
aS','
p446
aS'ga'
p447
aS','
p448
aS'and'
p449
aS'as'
p450
aS'she'
p451
aS'would'
p452
aS'make'
p453
aS'no'
p454
aS'end'
p455
aS','
p456
aS'the'
p457
aS'second'
p458
aS'did'
p459
aS'not'
p460
aS'wait'
p461
aS'until'
p462
aS'her'
p463
aS'turn'
p464
aS'came'
p465
aS','
p466
aS'but'
p467
aS'began'
p468
aS'also'
p469
aS','
p470
aS'ga'
p471
aS','
p472
aS'ga'
p473
aS'.'
p474
asg71
(lp475
VThen
p476
aVthe
p477
aVfirst
p478
ag175
ag78
aVgood
p479
aVlong
p480
aVprayer
p481
ag88
aVfor
p482
aVever
p483
aVsay
p484
ag88
aVga
p485
ag88
aVga
p486
ag88
aVand
p487
ag78
aVshe
p488
aVwould
p489
aVmake
p490
aVno
p491
aVend
p492
ag88
aVthe
p493
aVsecond
p494
aVdo
p495
aVnot
p496
aVwait
p497
aVuntil
p498
aVher
p499
aVturn
p500
ag76
ag88
aVbut
p501
ag175
aValso
p502
ag88
aVga
p503
ag88
aVga
p504
ag118
asg119
(lp505
g121
ag121
ag121
ag121
ag121
ag121
ag121
ag121
ag121
ag121
ag121
ag121
ag121
ag121
ag121
ag121
ag121
ag121
ag121
ag121
ag121
ag121
ag121
ag121
ag121
ag121
ag121
ag121
ag121
ag121
ag121
ag121
ag121
ag121
ag121
ag121
ag121
ag121
ag121
ag121
ag121
ag121
ag121
asg122
(lp506
g126
ag124
ag131
ag127
ag124
ag131
ag131
ag125
ag132
ag129
ag126
ag136
ag132
ag125
ag132
ag125
ag132
ag134
ag129
ag133
ag137
ag138
ag124
ag125
ag132
ag124
ag131
ag127
ag126
ag138
ag129
ag186
ag125
ag127
ag132
ag134
ag127
ag126
ag132
ag124
ag132
ag125
ag141
asg142
VThen the first began a good long prayer, for ever saying, ga, ga, and as she would make no end, the second did not wait until her turn came, but began also, ga, ga.
p507
sba(i__main__
Sentence
p508
(dp509
g17
I8
sg18
(lp510
S'The'
p511
aS'third'
p512
aS'and'
p513
aS'fourth'
p514
aS'followed'
p515
aS'her'
p516
aS','
p517
aS'and'
p518
aS'soon'
p519
aS'they'
p520
aS'were'
p521
aS'all'
p522
aS'cackling'
p523
aS'together'
p524
aS'.'
p525
asg71
(lp526
VThe
p527
aVthird
p528
aVand
p529
aVfourth
p530
aVfollow
p531
aVher
p532
ag88
aVand
p533
aVsoon
p534
aVthey
p535
aVbe
p536
aVall
p537
aVcackle
p538
aVtogether
p539
ag118
asg119
(lp540
g121
ag121
ag121
ag121
ag121
ag121
ag121
ag121
ag121
ag121
ag121
ag121
ag121
ag121
ag121
asg122
(lp541
g124
ag131
ag134
ag131
ag231
ag133
ag132
ag134
ag126
ag133
ag127
aS'PDT'
p542
ag136
ag126
ag141
asg142
VThe third and fourth followed her, and soon they were all cackling together.
p543
sba(i__main__
Sentence
p544
(dp545
g17
I9
sg18
(lp546
S'When'
p547
aS'they'
p548
aS'have'
p549
aS'done'
p550
aS'praying'
p551
aS','
p552
aS'the'
p553
aS'story'
p554
aS'shall'
p555
aS'be'
p556
aS'continued'
p557
aS'further'
p558
aS','
p559
aS'but'
p560
aS'at'
p561
aS'present'
p562
aS'they'
p563
aS'are'
p564
aS'still'
p565
aS'praying'
p566
aS'unceasingly'
p567
aS'.'
p568
asg71
(lp569
VWhen
p570
aVthey
p571
aVhave
p572
ag424
aVpray
p573
ag88
aVthe
p574
aVstory
p575
aVshall
p576
aVbe
p577
aVcontinue
p578
aVfurther
p579
ag88
aVbut
p580
aVat
p581
aVpresent
p582
aVthey
p583
ag103
aVstill
p584
aVpray
p585
aVunceasingly
p586
ag118
asg119
(lp587
g121
ag121
ag121
ag121
ag121
ag121
ag121
ag121
ag121
ag121
ag121
ag121
ag121
ag121
ag121
ag121
ag121
ag121
ag121
ag121
ag121
ag121
asg122
(lp588
S'WRB'
p589
ag133
ag135
ag231
ag136
ag132
ag124
ag125
ag137
ag138
ag231
ag131
ag132
ag134
ag129
ag131
ag133
ag135
ag126
ag136
ag126
ag141
asg142
VWhen they have done praying, the story shall be continued further, but at present they are still praying unceasingly. 
p590
sbasbsS'summary'
p591
g0
(g7
g2
Ntp592
Rp593
(dp594
g11
S'A fox comes upon a flock of geese that he wishes to eat. The geese make him promise that he will wait to eat them until they have a chance to pray and receive forgiveness. The geese pray ceaselessly.'
p595
sg13
(lp596
(i__main__
Sentence
p597
(dp598
g17
I0
sg18
(lp599
S'A'
p600
aS'fox'
p601
aS'comes'
p602
aS'upon'
p603
aS'a'
p604
aS'flock'
p605
aS'of'
p606
aS'geese'
p607
aS'that'
p608
aS'he'
p609
aS'wishes'
p610
aS'to'
p611
aS'eat'
p612
aS'.'
p613
asg71
(lp614
VA
p615
aVfox
p616
aVcome
p617
aVupon
p618
ag78
aVflock
p619
aVof
p620
aVgeese
p621
aVthat
p622
aVhe
p623
aVwish
p624
aVto
p625
aVeat
p626
ag118
asg119
(lp627
g121
ag121
ag121
ag121
ag121
ag121
ag121
ag121
ag121
ag121
ag121
ag121
ag121
ag121
asg122
(lp628
g124
ag125
ag230
ag129
ag124
ag125
ag129
ag131
ag129
ag133
ag230
ag128
ag138
ag141
asg142
VA fox comes upon a flock of geese that he wishes to eat.
p629
sba(i__main__
Sentence
p630
(dp631
g17
I1
sg18
(lp632
S'The'
p633
aS'geese'
p634
aS'make'
p635
aS'him'
p636
aS'promise'
p637
aS'that'
p638
aS'he'
p639
aS'will'
p640
aS'wait'
p641
aS'to'
p642
aS'eat'
p643
aS'them'
p644
aS'until'
p645
aS'they'
p646
aS'have'
p647
aS'a'
p648
aS'chance'
p649
aS'to'
p650
aS'pray'
p651
aS'and'
p652
aS'receive'
p653
aS'forgiveness'
p654
aS'.'
p655
asg71
(lp656
VThe
p657
ag87
aVmake
p658
aVhim
p659
aVpromise
p660
aVthat
p661
aVhe
p662
aVwill
p663
aVwait
p664
aVto
p665
aVeat
p666
aVthem
p667
aVuntil
p668
aVthey
p669
aVhave
p670
ag78
aVchance
p671
aVto
p672
aVpray
p673
aVand
p674
aVreceive
p675
aVforgiveness
p676
ag118
asg119
(lp677
g121
ag121
ag121
ag121
ag121
ag121
ag121
ag121
ag121
ag121
ag121
ag121
ag121
ag121
ag121
ag121
ag121
ag121
ag121
ag121
ag121
ag121
ag121
asg122
(lp678
g124
ag125
ag135
ag133
ag135
ag129
ag133
ag137
ag138
ag128
ag138
ag133
ag129
ag133
ag135
ag124
ag125
ag128
ag138
ag134
ag131
ag125
ag141
asg142
VThe geese make him promise that he will wait to eat them until they have a chance to pray and receive forgiveness.
p679
sba(i__main__
Sentence
p680
(dp681
g17
I2
sg18
(lp682
S'The'
p683
aS'geese'
p684
aS'pray'
p685
aS'ceaselessly'
p686
aS'.'
p687
asg71
(lp688
VThe
p689
ag87
aVpray
p690
aVceaselessly
p691
ag118
asg119
(lp692
g121
ag121
ag121
ag121
ag121
asg122
(lp693
g124
ag125
ag125
ag126
ag141
asg142
VThe geese pray ceaselessly.
p694
sbasbsS'name'
p695
S'The Fox and the Geese'
p696
sS'summaries'
p697
(lp698
g593
asb.