ccopy_reg
_reconstructor
p0
(c__main__
Story
p1
c__builtin__
object
p2
Ntp3
Rp4
(dp5
S'text'
p6
g0
(c__main__
Document
p7
g2
Ntp8
Rp9
(dp10
S'_Document__initialContent'
p11
S'There was once a king who had an illness, and no one believed that he\nwould come out of it with his life.  He had three sons who were much\ndistressed about it, and went down into the palace-garden and wept.\nThere they met an old man who inquired as to the cause of their\ngrief.  They told him that their father was so ill that he would most\ncertainly die, for nothing seemed to cure him.  Then the old man\nsaid, "I know of one more remedy, and that is the water of life.  If\nhe drinks of it he will become well again, but it is hard to find."\nThe eldest said, "I will manage to find it." And went to the sick\nking, and begged to be allowed to go forth in search of the water of\nlife, for that alone could save him.  "No," said the king, "the\ndanger of it is too great.  I would rather die."\n\nBut he begged so long that the king consented.  The prince thought in\nhis heart, "If I bring the water, then I shall be best beloved of my\nfather, and shall inherit the kingdom." So he set out, and when he\nhad ridden forth a little distance, a dwarf stood there in the road\nwho called to him and said, "Whither away so fast?" "Silly shrimp,"\nsaid the prince, very haughtily, "it is nothing to do with you." And\nrode on.  But the little dwarf had grown angry, and had wished an\nevil wish.  Soon after this the prince entered a ravine, and the\nfurther he rode the closer the mountains drew together, and at last\nthe road became so narrow that he could not advance a step further.\nIt was impossible either to turn his horse or to dismount from the\nsaddle, and he was shut in there as if in prison.  The sick king\nwaited long for him, but he came not.\n\nThen the second son said, "father, let me go forth to seek the\nwater." And thought to himself, "If my brother is dead, then the\nkingdom will fall to me." At first the king would not allow him to go\neither, but at last he yielded, so the prince set out on the same\nroad that his brother had taken, and he too met the dwarf, who\nstopped him to ask whither he was going in such haste.  "Little\nshrimp," said the prince, "that is nothing to do with you." And rode\non without giving him another look.  But the dwarf bewitched him, and\nhe, like the other, rode into a ravine, and could neither go forwards\nnor backwards.  So fare haughty people.\n\nAs the second son also remained away, the youngest begged to be\nallowed to go forth to fetch the water, and at last the king was\nobliged to let him go.  When he met the dwarf and the latter asked\nhim whither he was going in such haste, he stopped, gave him an\nexplanation, and said, "I am seeking the water of life, for my father\nis sick unto death."\n\n"Do you know, then, where that is to be found?"\n\n"No," said the prince.\n\n"As you have borne yourself as is seemly, and not haughtily like your\nfalse brothers, I will give you the information and tell you how you\nmay obtain the water of life.  It springs from a fountain in the\ncourtyard of an enchanted castle, but you will not be able to make\nyour way to it, if I do not give you an iron wand and two small\nloaves of bread.  Strike thrice with the wand on the iron door of the\ncastle and it will spring open, inside lie two lions with gaping\njaws, but if you throw a loaf to each of them, they will be quieted.\nThen hasten to fetch some of the water of life before the clock\nstrikes twelve else the door will shut again, and you will be\nimprisoned."\n\nThe prince thanked him, took the wand and the bread, and set out on\nhis way.  When he arrived, everything was as the dwarf had said.  The\ndoor sprang open at the third stroke of the wand, and when he had\nappeased the lions with the bread, he entered the castle, and came to\na large and splendid hall, wherein sat some enchanted princes whose\nrings he drew off their fingers.  A sword and a loaf of bread were\nlying there, which he carried away.  After this, he entered a\nchamber, in which was a beautiful maiden who rejoiced when she saw\nhim, kissed him, and told him that he had set her free, and should\nhave the whole of her kingdom, and that if he would return in a year\ntheir wedding should be celebrated.  Likewise she told him where the\nspring of the water of life was, and that he was to hasten and draw\nsome of it before the clock struck twelve.  Then he went onwards, and\nat last entered a room where there was a beautiful newly-made bed,\nand as he was very weary, he felt inclined to rest a little.  So he\nlay down and fell asleep.\n\nWhen he awoke, it was striking a quarter to twelve.  He sprang up in\na fright, ran to the spring, drew some water in a cup which stood\nnear, and hastened away.  But just as he was passing through the iron\ndoor, the clock struck twelve, and the door fell to with such\nviolence that it carried away a piece of his heel.\n\nHe, however, rejoicing at having obtained the water of life, went\nhomewards, and again passed the dwarf.  When the latter saw the sword\nand the loaf, he said, "With these you have won great wealth, with\nthe sword you can slay whole armies, and the bread will never come to\nan end." But the prince would not go home to his father without his\nbrothers, and said, "Dear dwarf, can you not tell me where my two\nbrothers are?  They went out before I did in search of the water of\nlife, and have not returned."\n\n"They are imprisoned between two mountains," said the dwarf. "I have\ncondemned them to stay there, because they were so haughty." Then the\nprince begged until the dwarf released them, but he warned him and\nsaid, "Beware of them, for they have bad hearts." When his brothers\ncame, he rejoiced, and told them how things had gone with him, that\nhe had found the water of life and had brought a cupful away with\nhim, and had rescued a beautiful princess, who was willing to wait a\nyear for him, and then their wedding was to be celebrated and he\nwould obtain a great kingdom.\n\nAfter that they rode on together, and chanced upon a land where war\nand famine reigned, and the king already thought he must perish, for\nthe scarcity was so great.  Then the prince went to him and gave him\nthe loaf, wherewith he fed and satisfied the whole of his kingdom,\nand then the prince gave him the sword also wherewith he slew the\nhosts of his enemies, and could now live in rest and peace.  The\nprince then took back his loaf and his sword, and the three brothers\nrode on.  But after this they entered two more countries where war\nand famine reigned and each time the prince gave his loaf and his\nsword to the kings, and had now delivered three kingdoms, and after\nthat they went on board a ship and sailed over the sea.  During the\npassage, the two eldest conversed apart and said, "The youngest has\nfound the water of life and not we, for that our father will give him\nthe kingdom - the kingdom which belongs to us, and he will rob us of\nall our fortune." They then began to seek revenge, and plotted with\neach other to destroy him.  They waited until they found him fast\nasleep, then they poured the water of life out of the cup, and took\nit for themselves, but into the cup they poured salt sea-water.\n\nNow therefore, when they arrived home, the youngest took his cup to\nthe sick king in order that he might drink out of it, and be cured.\nBut scarcely had he drunk a very little of the salt sea-water than he\nbecame still worse than before.  And as he was lamenting over this,\nthe two eldest brothers came, and accused the youngest of having\nintended to poison him, and said that they had brought him the true\nwater of life, and handed it to him.  He had scarcely tasted it, when\nhe felt his sickness departing, and became strong and healthy as in\nthe days of his youth.\n\nAfter that they both went to the youngest, mocked him, and said, "You\ncertainly found the water of life, but you have had the pain, and we\nthe gain, you should have been cleverer, and should have kept your\neyes open.  We took it from you whilst you were asleep at sea, and\nwhen a year is over, one of us will go and fetch the beautiful\nprincess. But beware that you do not disclose aught of this to our\nfather, indeed he does not trust you, and if you say a single word,\nyou shall lose your life into the bargain, but if you keep silent,\nyou shall have it as a gift."\n\nThe old king was angry with his youngest son, and thought he had\nplotted against his life.  So he summoned the court together and had\nsentence pronounced upon his son, that he should be secretly shot.\nAnd once when the prince was riding forth to the chase, suspecting no\nevil, the king\'s huntsman was told to go with him, and when they were\nquite alone in the forest, the huntsman looked so sorrowful that the\nprince said to him, "Dear huntsman, what ails you?" The huntsman\nsaid, "I cannot tell you, and yet I ought." Then the prince said,\n"Say openly what it is, I will pardon you." "Alas," said the\nhuntsman, "I am to shoot you dead, the king has ordered me to do it."\nThen the prince was shocked, and said, "Dear huntsman, let me live,\nthere, I give you my royal garments, give me your common ones in\ntheir stead." The huntsman said, "I will willingly do that, indeed I\nwould not have been able to shoot you." Then they exchanged clothes,\nand the huntsman returned home, while the prince went further into\nthe forest.\n\nAfter a time three waggons of gold and precious stones came to the\nking for his youngest son, which were sent by the three kings who had\nslain their enemies with the prince\'s sword, and maintained their\npeople with his bread, and who wished to show their gratitude for it.\nThe old king then thought, "Can my son have been innocent?" And said\nto his people, "Would that he were still alive, how it grieves me\nthat I have suffered him to be killed." "He still lives," said the\nhuntsman, "I could not find it in my heart to carry out your\ncommand." And told the king how it had happened.  Then a stone fell\nfrom the king\'s heart, and he had it proclaimed in every country that\nhis son might return and be taken into favor again.\n\nThe princess, however, had a road made up to her palace which was\nquite bright and golden, and told her people that whosoever came\nriding straight along it to her, would be the right one and was to be\nadmitted, and whoever rode by the side of it, was not the right one\nand was not to be admitted.\n\nAs the time was now close at hand, the eldest thought he would hasten\nto go to the king\'s daughter, and give himself out as her rescuer,\nand thus win her for his bride, and the kingdom to boot.  Therefore\nhe rode forth, and when he arrived in front of the palace, and saw\nthe splendid golden road, he thought, it would be a sin and a shame\nif I were to ride over that.  And turned aside, and rode on the right\nside of it. But when he came to the door, the servants told him that\nhe was not the right one, and was to go away again.\n\nSoon after this the second prince set out, and when he came to the\ngolden road, and his horse had put one foot on it, he thought, it\nwould be a sin and a shame, a piece might be trodden off.  And he\nturned aside and rode on the left side of it, and when he reached the\ndoor, the attendants told him he was not the right one, and he was to\ngo away again.\n\nWhen at last the year had entirely expired, the third son likewise\nwished to ride out of the forest to his beloved, and with her forget\nhis sorrows.  So he set out and thought of her so incessantly, and\nwished to be with her so much, that he never noticed the golden road\nat all.  So his horse rode onwards up the middle of it, and when he\ncame to the door, it was opened and the princess received him with\njoy, and said he was her saviour, and lord of the kingdom, and their\nwedding was celebrated with great rejoicing.  When it was over she\ntold him that his father invited him to come to him, and had forgiven\nhim.\n\nSo he rode thither, and told him everything, how his brothers had\nbetrayed him, and how he had nevertheless kept silence.  The old king\nwished to punish them, but they had put to sea, and never came back\nas long as they lived.\n'
p12
sS'sentences'
p13
(lp14
(i__main__
Sentence
p15
(dp16
S'index'
p17
I0
sS'words'
p18
(lp19
S'There'
p20
aS'was'
p21
aS'once'
p22
aS'a'
p23
aS'king'
p24
aS'who'
p25
aS'had'
p26
aS'an'
p27
aS'illness'
p28
aS','
p29
aS'and'
p30
aS'no'
p31
aS'one'
p32
aS'believed'
p33
aS'that'
p34
aS'he'
p35
aS'would'
p36
aS'come'
p37
aS'out'
p38
aS'of'
p39
aS'it'
p40
aS'with'
p41
aS'his'
p42
aS'life'
p43
aS'.'
p44
asS'lemmas'
p45
(lp46
VThere
p47
aVbe
p48
aVonce
p49
aVa
p50
aVking
p51
aVwho
p52
aVhave
p53
aVan
p54
aVillness
p55
aV,
p56
aVand
p57
aVno
p58
aVone
p59
aVbelieve
p60
aVthat
p61
aVhe
p62
aVwould
p63
aVcome
p64
aVout
p65
aVof
p66
aVit
p67
aVwith
p68
aVhis
p69
aVlife
p70
aV.
p71
asS'nerTags'
p72
(lp73
VO
p74
ag74
ag74
ag74
ag74
ag74
ag74
ag74
ag74
ag74
ag74
ag74
ag74
ag74
ag74
ag74
ag74
ag74
ag74
ag74
ag74
ag74
ag74
ag74
ag74
asS'posTags'
p75
(lp76
S'EX'
p77
aS'VBD'
p78
aS'RB'
p79
aS'DT'
p80
aS'NN'
p81
aS'WP'
p82
ag78
ag80
ag81
aS','
p83
aS'CC'
p84
ag80
ag81
ag78
aS'IN'
p85
aS'PRP'
p86
aS'MD'
p87
aS'VB'
p88
aS'RP'
p89
ag85
ag86
ag85
aS'PRP$'
p90
ag81
aS'.'
p91
asS'_Sentence__initialContent'
p92
VThere was once a king who had an illness, and no one believed that he would come out of it with his life.
p93
sba(i__main__
Sentence
p94
(dp95
g17
I1
sg18
(lp96
S'He'
p97
aS'had'
p98
aS'three'
p99
aS'sons'
p100
aS'who'
p101
aS'were'
p102
aS'much'
p103
aS'distressed'
p104
aS'about'
p105
aS'it'
p106
aS','
p107
aS'and'
p108
aS'went'
p109
aS'down'
p110
aS'into'
p111
aS'the'
p112
aS'palace-garden'
p113
aS'and'
p114
aS'wept'
p115
aS'.'
p116
asg45
(lp117
VHe
p118
ag53
aVthree
p119
aVson
p120
aVwho
p121
aVbe
p122
aVmuch
p123
aVdistress
p124
aVabout
p125
aVit
p126
ag56
aVand
p127
aVgo
p128
aVdown
p129
aVinto
p130
aVthe
p131
aVpalace-garden
p132
aVand
p133
aVwept
p134
ag71
asg72
(lp135
g74
ag74
ag74
ag74
ag74
ag74
ag74
ag74
ag74
ag74
ag74
ag74
ag74
ag74
ag74
ag74
ag74
ag74
ag74
ag74
asg75
(lp136
g86
ag78
aS'CD'
p137
aS'NNS'
p138
ag82
ag78
ag79
aS'VBN'
p139
ag85
ag86
ag83
ag84
ag78
ag85
ag85
ag80
aS'JJ'
p140
ag84
ag140
ag91
asg92
VHe had three sons who were much distressed about it, and went down into the palace-garden and wept.
p141
sba(i__main__
Sentence
p142
(dp143
g17
I2
sg18
(lp144
S'There'
p145
aS'they'
p146
aS'met'
p147
aS'an'
p148
aS'old'
p149
aS'man'
p150
aS'who'
p151
aS'inquired'
p152
aS'as'
p153
aS'to'
p154
aS'the'
p155
aS'cause'
p156
aS'of'
p157
aS'their'
p158
aS'grief'
p159
aS'.'
p160
asg45
(lp161
VThere
p162
aVthey
p163
aVmeet
p164
aVan
p165
aVold
p166
aVman
p167
aVwho
p168
aVinquire
p169
ag50
aVto
p170
aVthe
p171
aVcause
p172
aVof
p173
aVtheir
p174
aVgrief
p175
ag71
asg72
(lp176
g74
ag74
ag74
ag74
ag74
ag74
ag74
ag74
ag74
ag74
ag74
ag74
ag74
ag74
ag74
ag74
asg75
(lp177
g77
ag86
aS'VBP'
p178
ag80
ag140
ag81
ag82
ag139
ag85
aS'TO'
p179
ag80
ag81
ag85
ag90
ag81
ag91
asg92
VThere they met an old man who inquired as to the cause of their grief.
p180
sba(i__main__
Sentence
p181
(dp182
g17
I3
sg18
(lp183
S'They'
p184
aS'told'
p185
aS'him'
p186
aS'that'
p187
aS'their'
p188
aS'father'
p189
aS'was'
p190
aS'so'
p191
aS'ill'
p192
aS'that'
p193
aS'he'
p194
aS'would'
p195
aS'most'
p196
aS'certainly'
p197
aS'die'
p198
aS','
p199
aS'for'
p200
aS'nothing'
p201
aS'seemed'
p202
aS'to'
p203
aS'cure'
p204
aS'him'
p205
aS'.'
p206
asg45
(lp207
VThey
p208
aVtell
p209
aVhim
p210
aVthat
p211
aVtheir
p212
aVfather
p213
ag48
aVso
p214
aVill
p215
aVthat
p216
aVhe
p217
aVwould
p218
aVmost
p219
aVcertainly
p220
aVdie
p221
ag56
aVfor
p222
aVnothing
p223
aVseem
p224
aVto
p225
aVcure
p226
aVhim
p227
ag71
asg72
(lp228
g74
ag74
ag74
ag74
ag74
ag74
ag74
ag74
ag74
ag74
ag74
ag74
ag74
ag74
ag74
ag74
ag74
ag74
ag74
ag74
ag74
ag74
ag74
asg75
(lp229
g86
ag78
ag86
ag85
ag90
ag81
ag78
ag79
ag79
ag85
ag86
ag87
ag88
ag79
ag88
ag83
ag85
ag81
ag78
ag179
ag88
ag86
ag91
asg92
VThey told him that their father was so ill that he would most certainly die, for nothing seemed to cure him.
p230
sba(i__main__
Sentence
p231
(dp232
g17
I4
sg18
(lp233
S'Then'
p234
aS'the'
p235
aS'old'
p236
aS'man'
p237
aS'said'
p238
aS','
p239
aS'``'
p240
aS'I'
p241
aS'know'
p242
aS'of'
p243
aS'one'
p244
aS'more'
p245
aS'remedy'
p246
aS','
p247
aS'and'
p248
aS'that'
p249
aS'is'
p250
aS'the'
p251
aS'water'
p252
aS'of'
p253
aS'life'
p254
aS'.'
p255
asg45
(lp256
VThen
p257
aVthe
p258
aVold
p259
aVman
p260
aVsay
p261
ag56
aV``
p262
aVI
p263
aVknow
p264
aVof
p265
aVone
p266
aVmore
p267
aVremedy
p268
ag56
aVand
p269
aVthat
p270
aVbe
p271
aVthe
p272
aVwater
p273
aVof
p274
aVlife
p275
ag71
asg72
(lp276
g74
ag74
ag74
ag74
ag74
ag74
ag74
ag74
ag74
ag74
ag74
ag74
ag74
ag74
ag74
ag74
ag74
ag74
ag74
ag74
ag74
ag74
asg75
(lp277
g79
ag80
ag140
ag81
ag78
ag83
aS'``'
p278
ag86
ag178
ag85
ag137
aS'JJR'
p279
ag140
ag83
ag84
ag85
aS'VBZ'
p280
ag80
ag81
ag85
ag81
ag91
asg92
VThen the old man said, "I know of one more remedy, and that is the water of life.
p281
sba(i__main__
Sentence
p282
(dp283
g17
I5
sg18
(lp284
S'If'
p285
aS'he'
p286
aS'drinks'
p287
aS'of'
p288
aS'it'
p289
aS'he'
p290
aS'will'
p291
aS'become'
p292
aS'well'
p293
aS'again'
p294
aS','
p295
aS'but'
p296
aS'it'
p297
aS'is'
p298
aS'hard'
p299
aS'to'
p300
aS'find'
p301
aS'.'
p302
aS"''"
p303
asg45
(lp304
VIf
p305
aVhe
p306
aVdrink
p307
aVof
p308
aVit
p309
aVhe
p310
aVwill
p311
aVbecome
p312
aVwell
p313
aVagain
p314
ag56
aVbut
p315
aVit
p316
ag271
aVhard
p317
aVto
p318
aVfind
p319
ag71
aV''
p320
asg72
(lp321
g74
ag74
ag74
ag74
ag74
ag74
ag74
ag74
ag74
ag74
ag74
ag74
ag74
ag74
ag74
ag74
ag74
ag74
ag74
asg75
(lp322
g85
ag86
ag280
ag85
ag86
ag86
ag87
ag88
ag79
ag79
ag83
ag84
ag86
ag280
ag79
ag179
ag88
ag91
aS"''"
p323
asg92
VIf he drinks of it he will become well again, but it is hard to find."
p324
sba(i__main__
Sentence
p325
(dp326
g17
I6
sg18
(lp327
S'The'
p328
aS'eldest'
p329
aS'said'
p330
aS','
p331
aS'``'
p332
aS'I'
p333
aS'will'
p334
aS'manage'
p335
aS'to'
p336
aS'find'
p337
aS'it'
p338
aS'.'
p339
aS"''"
p340
asg45
(lp341
VThe
p342
aVeldest
p343
ag261
ag56
aV``
p344
ag263
aVwill
p345
aVmanage
p346
aVto
p347
aVfind
p348
aVit
p349
ag71
aV''
p350
asg72
(lp351
g74
ag74
ag74
ag74
ag74
ag74
ag74
ag74
ag74
ag74
ag74
ag74
ag74
asg75
(lp352
g80
aS'JJS'
p353
ag78
ag83
ag278
ag86
ag87
ag88
ag179
ag88
ag86
ag91
ag323
asg92
VThe eldest said, "I will manage to find it."
p354
sba(i__main__
Sentence
p355
(dp356
g17
I7
sg18
(lp357
S'And'
p358
aS'went'
p359
aS'to'
p360
aS'the'
p361
aS'sick'
p362
aS'king'
p363
aS','
p364
aS'and'
p365
aS'begged'
p366
aS'to'
p367
aS'be'
p368
aS'allowed'
p369
aS'to'
p370
aS'go'
p371
aS'forth'
p372
aS'in'
p373
aS'search'
p374
aS'of'
p375
aS'the'
p376
aS'water'
p377
aS'of'
p378
aS'life'
p379
aS','
p380
aS'for'
p381
aS'that'
p382
aS'alone'
p383
aS'could'
p384
aS'save'
p385
aS'him'
p386
aS'.'
p387
asg45
(lp388
VAnd
p389
ag128
aVto
p390
aVthe
p391
aVsick
p392
aVking
p393
ag56
aVand
p394
aVbeg
p395
aVto
p396
aVbe
p397
aVallow
p398
aVto
p399
aVgo
p400
aVforth
p401
aVin
p402
aVsearch
p403
aVof
p404
aVthe
p405
aVwater
p406
aVof
p407
aVlife
p408
ag56
aVfor
p409
aVthat
p410
aValone
p411
aVcould
p412
aVsave
p413
aVhim
p414
ag71
asg72
(lp415
g74
ag74
ag74
ag74
ag74
ag74
ag74
ag74
ag74
ag74
ag74
ag74
ag74
ag74
ag74
ag74
ag74
ag74
ag74
ag74
ag74
ag74
ag74
ag74
ag74
ag74
ag74
ag74
ag74
ag74
asg75
(lp416
g84
ag78
ag179
ag80
ag81
aS'VBG'
p417
ag83
ag84
ag78
ag179
ag88
ag139
ag179
ag88
ag140
ag85
ag81
ag85
ag80
ag81
ag85
ag81
ag83
ag85
ag80
ag81
ag87
ag88
ag86
ag91
asg92
VAnd went to the sick king, and begged to be allowed to go forth in search of the water of life, for that alone could save him.
p418
sba(i__main__
Sentence
p419
(dp420
g17
I8
sg18
(lp421
S'``'
p422
aS'No'
p423
aS','
p424
aS"''"
p425
aS'said'
p426
aS'the'
p427
aS'king'
p428
aS','
p429
aS'``'
p430
aS'the'
p431
aS'danger'
p432
aS'of'
p433
aS'it'
p434
aS'is'
p435
aS'too'
p436
aS'great'
p437
aS'.'
p438
asg45
(lp439
V``
p440
aVNo
p441
ag56
aV''
p442
ag261
aVthe
p443
aVking
p444
ag56
aV``
p445
aVthe
p446
aVdanger
p447
aVof
p448
aVit
p449
ag271
aVtoo
p450
aVgreat
p451
ag71
asg72
(lp452
g74
ag74
ag74
ag74
ag74
ag74
ag74
ag74
ag74
ag74
ag74
ag74
ag74
ag74
ag74
ag74
ag74
asg75
(lp453
g278
ag80
ag83
ag323
ag78
ag80
ag81
ag83
ag278
ag80
ag81
ag85
ag86
ag280
ag79
ag140
ag91
asg92
V"No," said the king, "the danger of it is too great.
p454
sba(i__main__
Sentence
p455
(dp456
g17
I9
sg18
(lp457
S'I'
p458
aS'would'
p459
aS'rather'
p460
aS'die'
p461
aS'.'
p462
aS"''"
p463
asg45
(lp464
g263
aVwould
p465
aVrather
p466
aVdie
p467
ag71
aV''
p468
asg72
(lp469
g74
ag74
ag74
ag74
ag74
ag74
asg75
(lp470
g86
ag87
ag79
ag88
ag91
ag323
asg92
VI would rather die."
p471
sba(i__main__
Sentence
p472
(dp473
g17
I10
sg18
(lp474
S'But'
p475
aS'he'
p476
aS'begged'
p477
aS'so'
p478
aS'long'
p479
aS'that'
p480
aS'the'
p481
aS'king'
p482
aS'consented'
p483
aS'.'
p484
asg45
(lp485
VBut
p486
aVhe
p487
ag395
aVso
p488
aVlong
p489
aVthat
p490
aVthe
p491
aVking
p492
aVconsent
p493
ag71
asg72
(lp494
g74
ag74
ag74
ag74
ag74
ag74
ag74
ag74
ag74
ag74
asg75
(lp495
g84
ag86
ag78
ag79
ag79
ag85
ag80
ag81
ag78
ag91
asg92
VBut he begged so long that the king consented.
p496
sba(i__main__
Sentence
p497
(dp498
g17
I11
sg18
(lp499
S'The'
p500
aS'prince'
p501
aS'thought'
p502
aS'in'
p503
aS'his'
p504
aS'heart'
p505
aS','
p506
aS'``'
p507
aS'If'
p508
aS'I'
p509
aS'bring'
p510
aS'the'
p511
aS'water'
p512
aS','
p513
aS'then'
p514
aS'I'
p515
aS'shall'
p516
aS'be'
p517
aS'best'
p518
aS'beloved'
p519
aS'of'
p520
aS'my'
p521
aS'father'
p522
aS','
p523
aS'and'
p524
aS'shall'
p525
aS'inherit'
p526
aS'the'
p527
aS'kingdom'
p528
aS'.'
p529
aS"''"
p530
asg45
(lp531
VThe
p532
aVprince
p533
aVthink
p534
aVin
p535
aVhis
p536
aVheart
p537
ag56
aV``
p538
aVIf
p539
ag263
aVbring
p540
aVthe
p541
aVwater
p542
ag56
aVthen
p543
ag263
aVshall
p544
aVbe
p545
aVbest
p546
aVbeloved
p547
aVof
p548
aVmy
p549
aVfather
p550
ag56
aVand
p551
aVshall
p552
aVinherit
p553
aVthe
p554
aVkingdom
p555
ag71
aV''
p556
asg72
(lp557
g74
ag74
ag74
ag74
ag74
ag74
ag74
ag74
ag74
ag74
ag74
ag74
ag74
ag74
ag74
ag74
ag74
ag74
ag74
ag74
ag74
ag74
ag74
ag74
ag74
ag74
ag74
ag74
ag74
ag74
ag74
asg75
(lp558
g80
ag81
ag78
ag85
ag90
ag81
ag83
ag278
ag85
ag86
ag417
ag80
ag81
ag83
ag79
ag86
ag87
ag88
ag353
ag139
ag85
ag90
ag81
ag83
ag84
ag87
ag88
ag80
ag81
ag91
ag323
asg92
VThe prince thought in his heart, "If I bring the water, then I shall be best beloved of my father, and shall inherit the kingdom."
p559
sba(i__main__
Sentence
p560
(dp561
g17
I12
sg18
(lp562
S'So'
p563
aS'he'
p564
aS'set'
p565
aS'out'
p566
aS','
p567
aS'and'
p568
aS'when'
p569
aS'he'
p570
aS'had'
p571
aS'ridden'
p572
aS'forth'
p573
aS'a'
p574
aS'little'
p575
aS'distance'
p576
aS','
p577
aS'a'
p578
aS'dwarf'
p579
aS'stood'
p580
aS'there'
p581
aS'in'
p582
aS'the'
p583
aS'road'
p584
aS'who'
p585
aS'called'
p586
aS'to'
p587
aS'him'
p588
aS'and'
p589
aS'said'
p590
aS','
p591
aS'``'
p592
aS'Whither'
p593
aS'away'
p594
aS'so'
p595
aS'fast'
p596
aS'?'
p597
aS"''"
p598
asg45
(lp599
VSo
p600
aVhe
p601
aVset
p602
aVout
p603
ag56
aVand
p604
aVwhen
p605
aVhe
p606
ag53
aVride
p607
aVforth
p608
ag50
aVlittle
p609
aVdistance
p610
ag56
ag50
aVdwarf
p611
aVstood
p612
aVthere
p613
aVin
p614
aVthe
p615
aVroad
p616
aVwho
p617
aVcall
p618
aVto
p619
aVhim
p620
aVand
p621
ag261
ag56
aV``
p622
aVWhither
p623
aVaway
p624
aVso
p625
aVfast
p626
aV?
p627
aV''
p628
asg72
(lp629
g74
ag74
ag74
ag74
ag74
ag74
ag74
ag74
ag74
ag74
ag74
ag74
ag74
ag74
ag74
ag74
ag74
ag74
ag74
ag74
ag74
ag74
ag74
ag74
ag74
ag74
ag74
ag74
ag74
ag74
ag74
ag74
ag74
ag74
ag74
ag74
asg75
(lp630
g85
ag86
ag78
ag89
ag83
ag84
aS'WRB'
p631
ag86
ag78
ag139
ag140
ag80
ag79
ag81
ag83
ag80
ag81
ag81
ag77
ag85
ag80
ag81
ag82
ag139
ag179
ag86
ag84
ag78
ag83
ag278
aS'NNP'
p632
ag79
ag79
ag79
ag91
ag323
asg92
VSo he set out, and when he had ridden forth a little distance, a dwarf stood there in the road who called to him and said, "Whither away so fast?"
p633
sba(i__main__
Sentence
p634
(dp635
g17
I13
sg18
(lp636
S'``'
p637
aS'Silly'
p638
aS'shrimp'
p639
aS','
p640
aS"''"
p641
aS'said'
p642
aS'the'
p643
aS'prince'
p644
aS','
p645
aS'very'
p646
aS'haughtily'
p647
aS','
p648
aS'``'
p649
aS'it'
p650
aS'is'
p651
aS'nothing'
p652
aS'to'
p653
aS'do'
p654
aS'with'
p655
aS'you'
p656
aS'.'
p657
aS"''"
p658
asg45
(lp659
V``
p660
aVSilly
p661
aVshrimp
p662
ag56
aV''
p663
ag261
aVthe
p664
aVprince
p665
ag56
aVvery
p666
aVhaughtily
p667
ag56
aV``
p668
aVit
p669
ag271
aVnothing
p670
aVto
p671
aVdo
p672
aVwith
p673
aVyou
p674
ag71
aV''
p675
asg72
(lp676
g74
ag74
ag74
ag74
ag74
ag74
ag74
ag74
ag74
ag74
ag74
ag74
ag74
ag74
ag74
ag74
ag74
ag74
ag74
ag74
ag74
ag74
asg75
(lp677
g278
ag79
ag88
ag83
ag323
ag78
ag80
ag81
ag83
ag79
ag79
ag83
ag278
ag86
ag280
ag417
ag179
ag88
ag85
ag86
ag91
ag323
asg92
V"Silly shrimp," said the prince, very haughtily, "it is nothing to do with you."
p678
sba(i__main__
Sentence
p679
(dp680
g17
I14
sg18
(lp681
S'And'
p682
aS'rode'
p683
aS'on'
p684
aS'.'
p685
asg45
(lp686
VAnd
p687
aVride
p688
aVon
p689
ag71
asg72
(lp690
g74
ag74
ag74
ag74
asg75
(lp691
g84
ag178
ag85
ag91
asg92
VAnd rode on.
p692
sba(i__main__
Sentence
p693
(dp694
g17
I15
sg18
(lp695
S'But'
p696
aS'the'
p697
aS'little'
p698
aS'dwarf'
p699
aS'had'
p700
aS'grown'
p701
aS'angry'
p702
aS','
p703
aS'and'
p704
aS'had'
p705
aS'wished'
p706
aS'an'
p707
aS'evil'
p708
aS'wish'
p709
aS'.'
p710
asg45
(lp711
VBut
p712
aVthe
p713
aVlittle
p714
aVdwarf
p715
ag53
aVgrow
p716
aVangry
p717
ag56
aVand
p718
ag53
aVwish
p719
aVan
p720
aVevil
p721
aVwish
p722
ag71
asg72
(lp723
g74
ag74
ag74
ag74
ag74
ag74
ag74
ag74
ag74
ag74
ag74
ag74
ag74
ag74
ag74
asg75
(lp724
g84
ag80
ag140
ag81
ag78
ag139
ag140
ag83
ag84
ag78
ag139
ag80
ag140
ag81
ag91
asg92
VBut the little dwarf had grown angry, and had wished an evil wish.
p725
sba(i__main__
Sentence
p726
(dp727
g17
I16
sg18
(lp728
S'Soon'
p729
aS'after'
p730
aS'this'
p731
aS'the'
p732
aS'prince'
p733
aS'entered'
p734
aS'a'
p735
aS'ravine'
p736
aS','
p737
aS'and'
p738
aS'the'
p739
aS'further'
p740
aS'he'
p741
aS'rode'
p742
aS'the'
p743
aS'closer'
p744
aS'the'
p745
aS'mountains'
p746
aS'drew'
p747
aS'together'
p748
aS','
p749
aS'and'
p750
aS'at'
p751
aS'last'
p752
aS'the'
p753
aS'road'
p754
aS'became'
p755
aS'so'
p756
aS'narrow'
p757
aS'that'
p758
aS'he'
p759
aS'could'
p760
aS'not'
p761
aS'advance'
p762
aS'a'
p763
aS'step'
p764
aS'further'
p765
aS'.'
p766
asg45
(lp767
VSoon
p768
aVafter
p769
aVthis
p770
aVthe
p771
aVprince
p772
aVenter
p773
ag50
aVravine
p774
ag56
aVand
p775
aVthe
p776
aVfurther
p777
aVhe
p778
ag688
aVthe
p779
aVcloser
p780
aVthe
p781
aVmountain
p782
aVdraw
p783
aVtogether
p784
ag56
aVand
p785
aVat
p786
aVlast
p787
aVthe
p788
aVroad
p789
aVbecome
p790
aVso
p791
aVnarrow
p792
aVthat
p793
aVhe
p794
aVcould
p795
aVnot
p796
aVadvance
p797
ag50
aVstep
p798
aVfar
p799
ag71
asg72
(lp800
g74
ag74
ag74
ag74
ag74
ag74
ag74
ag74
ag74
ag74
ag74
ag74
ag74
ag74
ag74
ag74
ag74
ag74
ag74
ag74
ag74
ag74
ag74
ag74
ag74
ag74
ag74
ag74
ag74
ag74
ag74
ag74
ag74
ag74
ag74
ag74
ag74
ag74
asg75
(lp801
g79
ag85
ag80
ag80
ag81
ag78
ag80
ag81
ag83
ag84
ag80
ag140
ag86
ag178
ag80
ag81
ag80
ag138
ag78
ag79
ag83
ag84
ag85
ag140
ag80
ag81
ag78
ag79
ag140
ag85
ag86
ag87
ag79
ag88
ag80
ag81
ag79
ag91
asg92
VSoon after this the prince entered a ravine, and the further he rode the closer the mountains drew together, and at last the road became so narrow that he could not advance a step further.
p802
sba(i__main__
Sentence
p803
(dp804
g17
I17
sg18
(lp805
S'It'
p806
aS'was'
p807
aS'impossible'
p808
aS'either'
p809
aS'to'
p810
aS'turn'
p811
aS'his'
p812
aS'horse'
p813
aS'or'
p814
aS'to'
p815
aS'dismount'
p816
aS'from'
p817
aS'the'
p818
aS'saddle'
p819
aS','
p820
aS'and'
p821
aS'he'
p822
aS'was'
p823
aS'shut'
p824
aS'in'
p825
aS'there'
p826
aS'as'
p827
aS'if'
p828
aS'in'
p829
aS'prison'
p830
aS'.'
p831
asg45
(lp832
VIt
p833
ag48
aVimpossible
p834
aVeither
p835
aVto
p836
aVturn
p837
aVhis
p838
aVhorse
p839
aVor
p840
aVto
p841
aVdismount
p842
aVfrom
p843
aVthe
p844
aVsaddle
p845
ag56
aVand
p846
aVhe
p847
ag48
aVshut
p848
aVin
p849
aVthere
p850
ag50
aVif
p851
aVin
p852
aVprison
p853
ag71
asg72
(lp854
g74
ag74
ag74
ag74
ag74
ag74
ag74
ag74
ag74
ag74
ag74
ag74
ag74
ag74
ag74
ag74
ag74
ag74
ag74
ag74
ag74
ag74
ag74
ag74
ag74
ag74
asg75
(lp855
g86
ag78
ag140
ag81
ag179
ag88
ag90
ag81
ag84
ag179
ag88
ag85
ag80
ag81
ag83
ag84
ag86
ag78
ag139
ag85
ag77
ag85
ag85
ag85
ag81
ag91
asg92
VIt was impossible either to turn his horse or to dismount from the saddle, and he was shut in there as if in prison.
p856
sba(i__main__
Sentence
p857
(dp858
g17
I18
sg18
(lp859
S'The'
p860
aS'sick'
p861
aS'king'
p862
aS'waited'
p863
aS'long'
p864
aS'for'
p865
aS'him'
p866
aS','
p867
aS'but'
p868
aS'he'
p869
aS'came'
p870
aS'not'
p871
aS'.'
p872
asg45
(lp873
VThe
p874
aVsick
p875
aVking
p876
aVwait
p877
aVlong
p878
aVfor
p879
aVhim
p880
ag56
aVbut
p881
aVhe
p882
aVcome
p883
aVnot
p884
ag71
asg72
(lp885
g74
ag74
ag74
ag74
ag74
ag74
ag74
ag74
ag74
ag74
ag74
ag74
ag74
asg75
(lp886
g80
ag81
ag417
ag139
ag140
ag85
ag86
ag83
ag84
ag86
ag78
ag79
ag91
asg92
VThe sick king waited long for him, but he came not.
p887
sba(i__main__
Sentence
p888
(dp889
g17
I19
sg18
(lp890
S'Then'
p891
aS'the'
p892
aS'second'
p893
aS'son'
p894
aS'said'
p895
aS','
p896
aS'``'
p897
aS'father'
p898
aS','
p899
aS'let'
p900
aS'me'
p901
aS'go'
p902
aS'forth'
p903
aS'to'
p904
aS'seek'
p905
aS'the'
p906
aS'water'
p907
aS'.'
p908
aS"''"
p909
asg45
(lp910
VThen
p911
aVthe
p912
aVsecond
p913
aVson
p914
ag261
ag56
aV``
p915
aVfather
p916
ag56
aVlet
p917
aVme
p918
aVgo
p919
aVforth
p920
aVto
p921
aVseek
p922
aVthe
p923
aVwater
p924
ag71
aV''
p925
asg72
(lp926
g74
ag74
ag74
ag74
ag74
ag74
ag74
ag74
ag74
ag74
ag74
ag74
ag74
ag74
ag74
ag74
ag74
ag74
ag74
asg75
(lp927
g79
ag80
ag140
ag81
ag78
ag83
ag278
ag81
ag83
ag88
ag86
ag88
ag140
ag179
ag88
ag80
ag81
ag91
ag323
asg92
VThen the second son said, "father, let me go forth to seek the water."
p928
sba(i__main__
Sentence
p929
(dp930
g17
I20
sg18
(lp931
S'And'
p932
aS'thought'
p933
aS'to'
p934
aS'himself'
p935
aS','
p936
aS'``'
p937
aS'If'
p938
aS'my'
p939
aS'brother'
p940
aS'is'
p941
aS'dead'
p942
aS','
p943
aS'then'
p944
aS'the'
p945
aS'kingdom'
p946
aS'will'
p947
aS'fall'
p948
aS'to'
p949
aS'me'
p950
aS'.'
p951
aS"''"
p952
asg45
(lp953
VAnd
p954
ag534
aVto
p955
aVhimself
p956
ag56
aV``
p957
aVIf
p958
aVmy
p959
aVbrother
p960
ag271
aVdead
p961
ag56
aVthen
p962
aVthe
p963
aVkingdom
p964
aVwill
p965
aVfall
p966
aVto
p967
aVme
p968
ag71
aV''
p969
asg72
(lp970
g74
ag74
ag74
ag74
ag74
ag74
ag74
ag74
ag74
ag74
ag74
ag74
ag74
ag74
ag74
ag74
ag74
ag74
ag74
ag74
ag74
asg75
(lp971
g84
ag78
ag179
ag86
ag83
ag278
ag85
ag90
ag81
ag280
ag140
ag83
ag79
ag80
ag81
ag87
ag88
ag179
ag86
ag91
ag323
asg92
VAnd thought to himself, "If my brother is dead, then the kingdom will fall to me."
p972
sba(i__main__
Sentence
p973
(dp974
g17
I21
sg18
(lp975
S'At'
p976
aS'first'
p977
aS'the'
p978
aS'king'
p979
aS'would'
p980
aS'not'
p981
aS'allow'
p982
aS'him'
p983
aS'to'
p984
aS'go'
p985
aS'either'
p986
aS','
p987
aS'but'
p988
aS'at'
p989
aS'last'
p990
aS'he'
p991
aS'yielded'
p992
aS','
p993
aS'so'
p994
aS'the'
p995
aS'prince'
p996
aS'set'
p997
aS'out'
p998
aS'on'
p999
aS'the'
p1000
aS'same'
p1001
aS'road'
p1002
aS'that'
p1003
aS'his'
p1004
aS'brother'
p1005
aS'had'
p1006
aS'taken'
p1007
aS','
p1008
aS'and'
p1009
aS'he'
p1010
aS'too'
p1011
aS'met'
p1012
aS'the'
p1013
aS'dwarf'
p1014
aS','
p1015
aS'who'
p1016
aS'stopped'
p1017
aS'him'
p1018
aS'to'
p1019
aS'ask'
p1020
aS'whither'
p1021
aS'he'
p1022
aS'was'
p1023
aS'going'
p1024
aS'in'
p1025
aS'such'
p1026
aS'haste'
p1027
aS'.'
p1028
asg45
(lp1029
VAt
p1030
aVfirst
p1031
aVthe
p1032
aVking
p1033
aVwould
p1034
aVnot
p1035
aVallow
p1036
aVhim
p1037
aVto
p1038
aVgo
p1039
aVeither
p1040
ag56
aVbut
p1041
aVat
p1042
aVlast
p1043
aVhe
p1044
aVyield
p1045
ag56
aVso
p1046
aVthe
p1047
aVprince
p1048
aVset
p1049
aVout
p1050
aVon
p1051
aVthe
p1052
aVsame
p1053
aVroad
p1054
aVthat
p1055
aVhis
p1056
aVbrother
p1057
ag53
aVtake
p1058
ag56
aVand
p1059
aVhe
p1060
aVtoo
p1061
ag164
aVthe
p1062
aVdwarf
p1063
ag56
aVwho
p1064
aVstop
p1065
aVhim
p1066
aVto
p1067
aVask
p1068
aVwhither
p1069
aVhe
p1070
ag48
aVgo
p1071
aVin
p1072
aVsuch
p1073
aVhaste
p1074
ag71
asg72
(lp1075
g74
ag74
ag74
ag74
ag74
ag74
ag74
ag74
ag74
ag74
ag74
ag74
ag74
ag74
ag74
ag74
ag74
ag74
ag74
ag74
ag74
ag74
ag74
ag74
ag74
ag74
ag74
ag74
ag74
ag74
ag74
ag74
ag74
ag74
ag74
ag74
ag74
ag74
ag74
ag74
ag74
ag74
ag74
ag74
ag74
ag74
ag74
ag74
ag74
ag74
ag74
ag74
ag74
asg75
(lp1076
g85
ag140
ag80
ag81
ag87
ag79
ag88
ag86
ag179
ag88
ag80
ag83
ag84
ag85
ag140
ag86
ag78
ag83
ag79
ag80
ag81
ag78
ag89
ag85
ag80
ag140
ag81
ag85
ag90
ag81
ag78
ag139
ag83
ag84
ag86
ag79
ag78
ag80
ag81
ag83
ag82
ag78
ag86
ag179
ag88
ag81
ag86
ag78
ag417
ag85
ag140
ag81
ag91
asg92
VAt first the king would not allow him to go either, but at last he yielded, so the prince set out on the same road that his brother had taken, and he too met the dwarf, who stopped him to ask whither he was going in such haste.
p1077
sba(i__main__
Sentence
p1078
(dp1079
g17
I22
sg18
(lp1080
S'``'
p1081
aS'Little'
p1082
aS'shrimp'
p1083
aS','
p1084
aS"''"
p1085
aS'said'
p1086
aS'the'
p1087
aS'prince'
p1088
aS','
p1089
aS'``'
p1090
aS'that'
p1091
aS'is'
p1092
aS'nothing'
p1093
aS'to'
p1094
aS'do'
p1095
aS'with'
p1096
aS'you'
p1097
aS'.'
p1098
aS"''"
p1099
asg45
(lp1100
V``
p1101
aVLittle
p1102
aVshrimp
p1103
ag56
aV''
p1104
ag261
aVthe
p1105
aVprince
p1106
ag56
aV``
p1107
aVthat
p1108
ag271
aVnothing
p1109
aVto
p1110
aVdo
p1111
aVwith
p1112
aVyou
p1113
ag71
aV''
p1114
asg72
(lp1115
g74
ag74
ag74
ag74
ag74
ag74
ag74
ag74
ag74
ag74
ag74
ag74
ag74
ag74
ag74
ag74
ag74
ag74
ag74
asg75
(lp1116
g278
ag140
ag81
ag83
ag323
ag78
ag80
ag81
ag83
ag278
ag85
ag280
ag81
ag179
ag88
ag85
ag86
ag91
ag323
asg92
V"Little shrimp," said the prince, "that is nothing to do with you."
p1117
sba(i__main__
Sentence
p1118
(dp1119
g17
I23
sg18
(lp1120
S'And'
p1121
aS'rode'
p1122
aS'on'
p1123
aS'without'
p1124
aS'giving'
p1125
aS'him'
p1126
aS'another'
p1127
aS'look'
p1128
aS'.'
p1129
asg45
(lp1130
VAnd
p1131
ag688
aVon
p1132
aVwithout
p1133
aVgive
p1134
aVhim
p1135
aVanother
p1136
aVlook
p1137
ag71
asg72
(lp1138
g74
ag74
ag74
ag74
ag74
ag74
ag74
ag74
ag74
asg75
(lp1139
g84
ag178
ag85
ag85
ag417
ag86
ag80
ag81
ag91
asg92
VAnd rode on without giving him another look.
p1140
sba(i__main__
Sentence
p1141
(dp1142
g17
I24
sg18
(lp1143
S'But'
p1144
aS'the'
p1145
aS'dwarf'
p1146
aS'bewitched'
p1147
aS'him'
p1148
aS','
p1149
aS'and'
p1150
aS'he'
p1151
aS','
p1152
aS'like'
p1153
aS'the'
p1154
aS'other'
p1155
aS','
p1156
aS'rode'
p1157
aS'into'
p1158
aS'a'
p1159
aS'ravine'
p1160
aS','
p1161
aS'and'
p1162
aS'could'
p1163
aS'neither'
p1164
aS'go'
p1165
aS'forwards'
p1166
aS'nor'
p1167
aS'backwards'
p1168
aS'.'
p1169
asg45
(lp1170
VBut
p1171
aVthe
p1172
aVdwarf
p1173
aVbewitch
p1174
aVhim
p1175
ag56
aVand
p1176
aVhe
p1177
ag56
aVlike
p1178
aVthe
p1179
aVother
p1180
ag56
aVrode
p1181
aVinto
p1182
ag50
aVravine
p1183
ag56
aVand
p1184
aVcould
p1185
aVneither
p1186
aVgo
p1187
aVforward
p1188
aVnor
p1189
aVbackwards
p1190
ag71
asg72
(lp1191
g74
ag74
ag74
ag74
ag74
ag74
ag74
ag74
ag74
ag74
ag74
ag74
ag74
ag74
ag74
ag74
ag74
ag74
ag74
ag74
ag74
ag74
ag74
ag74
ag74
ag74
asg75
(lp1192
g84
ag80
ag81
ag78
ag86
ag83
ag84
ag86
ag83
ag85
ag80
ag140
ag83
ag81
ag85
ag80
ag81
ag83
ag84
ag87
ag88
ag88
ag138
ag84
ag138
ag91
asg92
VBut the dwarf bewitched him, and he, like the other, rode into a ravine, and could neither go forwards nor backwards.
p1193
sba(i__main__
Sentence
p1194
(dp1195
g17
I25
sg18
(lp1196
S'So'
p1197
aS'fare'
p1198
aS'haughty'
p1199
aS'people'
p1200
aS'.'
p1201
asg45
(lp1202
VSo
p1203
aVfare
p1204
aVhaughty
p1205
aVpeople
p1206
ag71
asg72
(lp1207
g74
ag74
ag74
ag74
ag74
asg75
(lp1208
g85
ag81
ag81
ag138
ag91
asg92
VSo fare haughty people.
p1209
sba(i__main__
Sentence
p1210
(dp1211
g17
I26
sg18
(lp1212
S'As'
p1213
aS'the'
p1214
aS'second'
p1215
aS'son'
p1216
aS'also'
p1217
aS'remained'
p1218
aS'away'
p1219
aS','
p1220
aS'the'
p1221
aS'youngest'
p1222
aS'begged'
p1223
aS'to'
p1224
aS'be'
p1225
aS'allowed'
p1226
aS'to'
p1227
aS'go'
p1228
aS'forth'
p1229
aS'to'
p1230
aS'fetch'
p1231
aS'the'
p1232
aS'water'
p1233
aS','
p1234
aS'and'
p1235
aS'at'
p1236
aS'last'
p1237
aS'the'
p1238
aS'king'
p1239
aS'was'
p1240
aS'obliged'
p1241
aS'to'
p1242
aS'let'
p1243
aS'him'
p1244
aS'go'
p1245
aS'.'
p1246
asg45
(lp1247
VAs
p1248
aVthe
p1249
aVsecond
p1250
aVson
p1251
aValso
p1252
aVremain
p1253
aVaway
p1254
ag56
aVthe
p1255
aVyoung
p1256
aVbegged
p1257
aVto
p1258
aVbe
p1259
aVallow
p1260
aVto
p1261
aVgo
p1262
aVforth
p1263
aVto
p1264
aVfetch
p1265
aVthe
p1266
aVwater
p1267
ag56
aVand
p1268
aVat
p1269
aVlast
p1270
aVthe
p1271
aVking
p1272
ag48
aVoblige
p1273
aVto
p1274
aVlet
p1275
aVhim
p1276
aVgo
p1277
ag71
asg72
(lp1278
g74
ag74
ag74
ag74
ag74
ag74
ag74
ag74
ag74
ag74
ag74
ag74
ag74
ag74
ag74
ag74
ag74
ag74
ag74
ag74
ag74
ag74
ag74
ag74
ag74
ag74
ag74
ag74
ag74
ag74
ag74
ag74
ag74
ag74
asg75
(lp1279
g85
ag80
ag140
ag81
ag79
ag78
ag79
ag83
ag80
ag353
ag140
ag179
ag88
ag139
ag179
ag88
ag140
ag179
ag88
ag80
ag81
ag83
ag84
ag85
ag140
ag80
ag81
ag78
ag139
ag179
ag88
ag86
ag88
ag91
asg92
VAs the second son also remained away, the youngest begged to be allowed to go forth to fetch the water, and at last the king was obliged to let him go.
p1280
sba(i__main__
Sentence
p1281
(dp1282
g17
I27
sg18
(lp1283
S'When'
p1284
aS'he'
p1285
aS'met'
p1286
aS'the'
p1287
aS'dwarf'
p1288
aS'and'
p1289
aS'the'
p1290
aS'latter'
p1291
aS'asked'
p1292
aS'him'
p1293
aS'whither'
p1294
aS'he'
p1295
aS'was'
p1296
aS'going'
p1297
aS'in'
p1298
aS'such'
p1299
aS'haste'
p1300
aS','
p1301
aS'he'
p1302
aS'stopped'
p1303
aS','
p1304
aS'gave'
p1305
aS'him'
p1306
aS'an'
p1307
aS'explanation'
p1308
aS','
p1309
aS'and'
p1310
aS'said'
p1311
aS','
p1312
aS'``'
p1313
aS'I'
p1314
aS'am'
p1315
aS'seeking'
p1316
aS'the'
p1317
aS'water'
p1318
aS'of'
p1319
aS'life'
p1320
aS','
p1321
aS'for'
p1322
aS'my'
p1323
aS'father'
p1324
aS'is'
p1325
aS'sick'
p1326
aS'unto'
p1327
aS'death'
p1328
aS'.'
p1329
aS"''"
p1330
asg45
(lp1331
VWhen
p1332
aVhe
p1333
ag164
aVthe
p1334
aVdwarf
p1335
aVand
p1336
aVthe
p1337
aVlatter
p1338
aVask
p1339
aVhim
p1340
aVwhither
p1341
aVhe
p1342
ag48
aVgo
p1343
aVin
p1344
aVsuch
p1345
aVhaste
p1346
ag56
aVhe
p1347
ag1065
ag56
aVgive
p1348
aVhim
p1349
aVan
p1350
aVexplanation
p1351
ag56
aVand
p1352
ag261
ag56
aV``
p1353
ag263
aVbe
p1354
aVseek
p1355
aVthe
p1356
aVwater
p1357
aVof
p1358
aVlife
p1359
ag56
aVfor
p1360
aVmy
p1361
aVfather
p1362
ag271
aVsick
p1363
aVunto
p1364
aVdeath
p1365
ag71
aV''
p1366
asg72
(lp1367
g74
ag74
ag74
ag74
ag74
ag74
ag74
ag74
ag74
ag74
ag74
ag74
ag74
ag74
ag74
ag74
ag74
ag74
ag74
ag74
ag74
ag74
ag74
ag74
ag74
ag74
ag74
ag74
ag74
ag74
ag74
ag74
ag74
ag74
ag74
ag74
ag74
ag74
ag74
ag74
ag74
ag74
ag74
ag74
ag74
ag74
ag74
asg75
(lp1368
g631
ag86
ag78
ag80
ag81
ag84
ag80
ag81
ag78
ag86
ag79
ag86
ag78
ag417
ag85
ag140
ag81
ag83
ag86
ag78
ag83
ag78
ag86
ag80
ag81
ag83
ag84
ag78
ag83
ag278
ag86
ag178
ag417
ag80
ag81
ag85
ag81
ag83
ag85
ag90
ag81
ag280
ag81
ag85
ag81
ag91
ag323
asg92
VWhen he met the dwarf and the latter asked him whither he was going in such haste, he stopped, gave him an explanation, and said, "I am seeking the water of life, for my father is sick unto death."
p1369
sba(i__main__
Sentence
p1370
(dp1371
g17
I28
sg18
(lp1372
S'``'
p1373
aS'Do'
p1374
aS'you'
p1375
aS'know'
p1376
aS','
p1377
aS'then'
p1378
aS','
p1379
aS'where'
p1380
aS'that'
p1381
aS'is'
p1382
aS'to'
p1383
aS'be'
p1384
aS'found'
p1385
aS'?'
p1386
aS"''"
p1387
asg45
(lp1388
V``
p1389
aVDo
p1390
aVyou
p1391
aVknow
p1392
ag56
aVthen
p1393
ag56
aVwhere
p1394
aVthat
p1395
ag271
aVto
p1396
aVbe
p1397
aVfind
p1398
ag627
aV''
p1399
asg72
(lp1400
g74
ag74
ag74
ag74
ag74
ag74
ag74
ag74
ag74
ag74
ag74
ag74
ag74
ag74
ag74
asg75
(lp1401
g278
ag178
ag86
ag88
ag83
ag79
ag83
ag631
ag85
ag280
ag179
ag88
ag139
ag91
ag323
asg92
V"Do you know, then, where that is to be found?"
p1402
sba(i__main__
Sentence
p1403
(dp1404
g17
I29
sg18
(lp1405
S'``'
p1406
aS'No'
p1407
aS','
p1408
aS"''"
p1409
aS'said'
p1410
aS'the'
p1411
aS'prince'
p1412
aS'.'
p1413
asg45
(lp1414
V``
p1415
aVNo
p1416
ag56
aV''
p1417
ag261
aVthe
p1418
aVprince
p1419
ag71
asg72
(lp1420
g74
ag74
ag74
ag74
ag74
ag74
ag74
ag74
asg75
(lp1421
g278
ag80
ag83
ag323
ag78
ag80
ag81
ag91
asg92
V"No," said the prince.
p1422
sba(i__main__
Sentence
p1423
(dp1424
g17
I30
sg18
(lp1425
S'``'
p1426
aS'As'
p1427
aS'you'
p1428
aS'have'
p1429
aS'borne'
p1430
aS'yourself'
p1431
aS'as'
p1432
aS'is'
p1433
aS'seemly'
p1434
aS','
p1435
aS'and'
p1436
aS'not'
p1437
aS'haughtily'
p1438
aS'like'
p1439
aS'your'
p1440
aS'false'
p1441
aS'brothers'
p1442
aS','
p1443
aS'I'
p1444
aS'will'
p1445
aS'give'
p1446
aS'you'
p1447
aS'the'
p1448
aS'information'
p1449
aS'and'
p1450
aS'tell'
p1451
aS'you'
p1452
aS'how'
p1453
aS'you'
p1454
aS'may'
p1455
aS'obtain'
p1456
aS'the'
p1457
aS'water'
p1458
aS'of'
p1459
aS'life'
p1460
aS'.'
p1461
asg45
(lp1462
V``
p1463
aVAs
p1464
aVyou
p1465
aVhave
p1466
aVbear
p1467
aVyourself
p1468
ag50
ag271
aVseemly
p1469
ag56
aVand
p1470
aVnot
p1471
aVhaughtily
p1472
aVlike
p1473
aVyour
p1474
aVfalse
p1475
aVbrother
p1476
ag56
ag263
aVwill
p1477
aVgive
p1478
aVyou
p1479
aVthe
p1480
aVinformation
p1481
aVand
p1482
aVtell
p1483
aVyou
p1484
aVhow
p1485
aVyou
p1486
aVmay
p1487
aVobtain
p1488
aVthe
p1489
aVwater
p1490
aVof
p1491
aVlife
p1492
ag71
asg72
(lp1493
g74
ag74
ag74
ag74
ag74
ag74
ag74
ag74
ag74
ag74
ag74
ag74
ag74
ag74
ag74
ag74
ag74
ag74
ag74
ag74
ag74
ag74
ag74
ag74
ag74
ag74
ag74
ag74
ag74
ag74
ag74
ag74
ag74
ag74
ag74
ag74
asg75
(lp1494
g278
ag85
ag86
ag178
ag139
ag86
ag85
ag280
ag79
ag83
ag84
ag79
ag79
ag85
ag90
ag81
ag138
ag83
ag86
ag87
ag88
ag86
ag80
ag81
ag84
ag81
ag86
ag631
ag86
ag87
ag88
ag80
ag81
ag85
ag81
ag91
asg92
V"As you have borne yourself as is seemly, and not haughtily like your false brothers, I will give you the information and tell you how you may obtain the water of life.
p1495
sba(i__main__
Sentence
p1496
(dp1497
g17
I31
sg18
(lp1498
S'It'
p1499
aS'springs'
p1500
aS'from'
p1501
aS'a'
p1502
aS'fountain'
p1503
aS'in'
p1504
aS'the'
p1505
aS'courtyard'
p1506
aS'of'
p1507
aS'an'
p1508
aS'enchanted'
p1509
aS'castle'
p1510
aS','
p1511
aS'but'
p1512
aS'you'
p1513
aS'will'
p1514
aS'not'
p1515
aS'be'
p1516
aS'able'
p1517
aS'to'
p1518
aS'make'
p1519
aS'your'
p1520
aS'way'
p1521
aS'to'
p1522
aS'it'
p1523
aS','
p1524
aS'if'
p1525
aS'I'
p1526
aS'do'
p1527
aS'not'
p1528
aS'give'
p1529
aS'you'
p1530
aS'an'
p1531
aS'iron'
p1532
aS'wand'
p1533
aS'and'
p1534
aS'two'
p1535
aS'small'
p1536
aS'loaves'
p1537
aS'of'
p1538
aS'bread'
p1539
aS'.'
p1540
asg45
(lp1541
VIt
p1542
aVspring
p1543
aVfrom
p1544
ag50
aVfountain
p1545
aVin
p1546
aVthe
p1547
aVcourtyard
p1548
aVof
p1549
aVan
p1550
aVenchant
p1551
aVcastle
p1552
ag56
aVbut
p1553
aVyou
p1554
aVwill
p1555
aVnot
p1556
aVbe
p1557
aVable
p1558
aVto
p1559
aVmake
p1560
aVyour
p1561
aVway
p1562
aVto
p1563
aVit
p1564
ag56
aVif
p1565
ag263
aVdo
p1566
aVnot
p1567
aVgive
p1568
aVyou
p1569
aVan
p1570
aViron
p1571
aVwand
p1572
aVand
p1573
aVtwo
p1574
aVsmall
p1575
aVloaf
p1576
aVof
p1577
aVbread
p1578
ag71
asg72
(lp1579
g74
ag74
ag74
ag74
ag74
ag74
ag74
ag74
ag74
ag74
ag74
ag74
ag74
ag74
ag74
ag74
ag74
ag74
ag74
ag74
ag74
ag74
ag74
ag74
ag74
ag74
ag74
ag74
ag74
ag74
ag74
ag74
ag74
ag74
ag74
ag74
ag74
ag74
ag74
ag74
ag74
ag74
asg75
(lp1580
g86
ag280
ag85
ag80
ag81
ag85
ag80
ag81
ag85
ag80
ag139
ag81
ag83
ag84
ag86
ag87
ag79
ag88
ag140
ag179
ag88
ag90
ag81
ag179
ag86
ag83
ag85
ag86
ag178
ag79
ag88
ag86
ag80
ag81
ag81
ag84
ag137
ag140
ag138
ag85
ag81
ag91
asg92
VIt springs from a fountain in the courtyard of an enchanted castle, but you will not be able to make your way to it, if I do not give you an iron wand and two small loaves of bread.
p1581
sba(i__main__
Sentence
p1582
(dp1583
g17
I32
sg18
(lp1584
S'Strike'
p1585
aS'thrice'
p1586
aS'with'
p1587
aS'the'
p1588
aS'wand'
p1589
aS'on'
p1590
aS'the'
p1591
aS'iron'
p1592
aS'door'
p1593
aS'of'
p1594
aS'the'
p1595
aS'castle'
p1596
aS'and'
p1597
aS'it'
p1598
aS'will'
p1599
aS'spring'
p1600
aS'open'
p1601
aS','
p1602
aS'inside'
p1603
aS'lie'
p1604
aS'two'
p1605
aS'lions'
p1606
aS'with'
p1607
aS'gaping'
p1608
aS'jaws'
p1609
aS','
p1610
aS'but'
p1611
aS'if'
p1612
aS'you'
p1613
aS'throw'
p1614
aS'a'
p1615
aS'loaf'
p1616
aS'to'
p1617
aS'each'
p1618
aS'of'
p1619
aS'them'
p1620
aS','
p1621
aS'they'
p1622
aS'will'
p1623
aS'be'
p1624
aS'quieted'
p1625
aS'.'
p1626
asg45
(lp1627
VStrike
p1628
aVthrice
p1629
aVwith
p1630
aVthe
p1631
aVwand
p1632
aVon
p1633
aVthe
p1634
aViron
p1635
aVdoor
p1636
aVof
p1637
aVthe
p1638
aVcastle
p1639
aVand
p1640
aVit
p1641
aVwill
p1642
aVspring
p1643
aVopen
p1644
ag56
aVinside
p1645
aVlie
p1646
aVtwo
p1647
aVlion
p1648
aVwith
p1649
aVgap
p1650
aVjaw
p1651
ag56
aVbut
p1652
aVif
p1653
aVyou
p1654
aVthrow
p1655
ag50
aVloaf
p1656
aVto
p1657
aVeach
p1658
aVof
p1659
aVthem
p1660
ag56
aVthey
p1661
aVwill
p1662
aVbe
p1663
aVquiet
p1664
ag71
asg72
(lp1665
g74
ag74
ag74
ag74
ag74
ag74
ag74
ag74
ag74
ag74
ag74
ag74
ag74
ag74
ag74
ag74
ag74
ag74
ag74
ag74
ag74
ag74
ag74
ag74
ag74
ag74
ag74
ag74
ag74
ag74
ag74
ag74
ag74
ag74
ag74
ag74
ag74
ag74
ag74
ag74
ag74
ag74
asg75
(lp1666
g632
ag81
ag85
ag80
ag81
ag85
ag80
ag81
ag81
ag85
ag80
ag81
ag84
ag86
ag87
ag88
ag140
ag83
ag81
ag81
ag137
ag138
ag85
ag417
ag138
ag83
ag84
ag85
ag86
ag178
ag80
ag81
ag179
ag80
ag85
ag86
ag83
ag86
ag87
ag88
ag139
ag91
asg92
VStrike thrice with the wand on the iron door of the castle and it will spring open, inside lie two lions with gaping jaws, but if you throw a loaf to each of them, they will be quieted.
p1667
sba(i__main__
Sentence
p1668
(dp1669
g17
I33
sg18
(lp1670
S'Then'
p1671
aS'hasten'
p1672
aS'to'
p1673
aS'fetch'
p1674
aS'some'
p1675
aS'of'
p1676
aS'the'
p1677
aS'water'
p1678
aS'of'
p1679
aS'life'
p1680
aS'before'
p1681
aS'the'
p1682
aS'clock'
p1683
aS'strikes'
p1684
aS'twelve'
p1685
aS'else'
p1686
aS'the'
p1687
aS'door'
p1688
aS'will'
p1689
aS'shut'
p1690
aS'again'
p1691
aS','
p1692
aS'and'
p1693
aS'you'
p1694
aS'will'
p1695
aS'be'
p1696
aS'imprisoned'
p1697
aS'.'
p1698
aS"''"
p1699
asg45
(lp1700
VThen
p1701
aVhasten
p1702
aVto
p1703
aVfetch
p1704
aVsome
p1705
aVof
p1706
aVthe
p1707
aVwater
p1708
aVof
p1709
aVlife
p1710
aVbefore
p1711
aVthe
p1712
aVclock
p1713
aVstrike
p1714
aVtwelve
p1715
aVelse
p1716
aVthe
p1717
aVdoor
p1718
aVwill
p1719
aVshut
p1720
aVagain
p1721
ag56
aVand
p1722
aVyou
p1723
aVwill
p1724
aVbe
p1725
aVimprison
p1726
ag71
aV''
p1727
asg72
(lp1728
g74
ag74
ag74
ag74
ag74
ag74
ag74
ag74
ag74
ag74
ag74
ag74
ag74
ag74
ag74
ag74
ag74
ag74
ag74
ag74
ag74
ag74
ag74
ag74
ag74
ag74
ag74
ag74
ag74
asg75
(lp1729
g79
ag139
ag179
ag88
ag80
ag85
ag80
ag81
ag85
ag81
ag85
ag80
ag81
ag280
ag140
ag81
ag80
ag81
ag87
ag88
ag79
ag83
ag84
ag86
ag87
ag88
ag139
ag91
ag323
asg92
VThen hasten to fetch some of the water of life before the clock strikes twelve else the door will shut again, and you will be imprisoned."
p1730
sba(i__main__
Sentence
p1731
(dp1732
g17
I34
sg18
(lp1733
S'The'
p1734
aS'prince'
p1735
aS'thanked'
p1736
aS'him'
p1737
aS','
p1738
aS'took'
p1739
aS'the'
p1740
aS'wand'
p1741
aS'and'
p1742
aS'the'
p1743
aS'bread'
p1744
aS','
p1745
aS'and'
p1746
aS'set'
p1747
aS'out'
p1748
aS'on'
p1749
aS'his'
p1750
aS'way'
p1751
aS'.'
p1752
asg45
(lp1753
VThe
p1754
aVprince
p1755
aVthank
p1756
aVhim
p1757
ag56
aVtake
p1758
aVthe
p1759
aVwand
p1760
aVand
p1761
aVthe
p1762
aVbread
p1763
ag56
aVand
p1764
aVset
p1765
aVout
p1766
aVon
p1767
aVhis
p1768
aVway
p1769
ag71
asg72
(lp1770
g74
ag74
ag74
ag74
ag74
ag74
ag74
ag74
ag74
ag74
ag74
ag74
ag74
ag74
ag74
ag74
ag74
ag74
ag74
asg75
(lp1771
g80
ag81
ag78
ag86
ag83
ag78
ag80
ag81
ag84
ag80
ag81
ag83
ag84
ag78
ag89
ag85
ag90
ag81
ag91
asg92
VThe prince thanked him, took the wand and the bread, and set out on his way.
p1772
sba(i__main__
Sentence
p1773
(dp1774
g17
I35
sg18
(lp1775
S'When'
p1776
aS'he'
p1777
aS'arrived'
p1778
aS','
p1779
aS'everything'
p1780
aS'was'
p1781
aS'as'
p1782
aS'the'
p1783
aS'dwarf'
p1784
aS'had'
p1785
aS'said'
p1786
aS'.'
p1787
asg45
(lp1788
VWhen
p1789
aVhe
p1790
aVarrive
p1791
ag56
aVeverything
p1792
ag48
ag50
aVthe
p1793
aVdwarf
p1794
ag53
ag261
ag71
asg72
(lp1795
g74
ag74
ag74
ag74
ag74
ag74
ag74
ag74
ag74
ag74
ag74
ag74
asg75
(lp1796
g631
ag86
ag78
ag83
ag81
ag78
ag85
ag80
ag81
ag78
ag139
ag91
asg92
VWhen he arrived, everything was as the dwarf had said.
p1797
sba(i__main__
Sentence
p1798
(dp1799
g17
I36
sg18
(lp1800
S'The'
p1801
aS'door'
p1802
aS'sprang'
p1803
aS'open'
p1804
aS'at'
p1805
aS'the'
p1806
aS'third'
p1807
aS'stroke'
p1808
aS'of'
p1809
aS'the'
p1810
aS'wand'
p1811
aS','
p1812
aS'and'
p1813
aS'when'
p1814
aS'he'
p1815
aS'had'
p1816
aS'appeased'
p1817
aS'the'
p1818
aS'lions'
p1819
aS'with'
p1820
aS'the'
p1821
aS'bread'
p1822
aS','
p1823
aS'he'
p1824
aS'entered'
p1825
aS'the'
p1826
aS'castle'
p1827
aS','
p1828
aS'and'
p1829
aS'came'
p1830
aS'to'
p1831
aS'a'
p1832
aS'large'
p1833
aS'and'
p1834
aS'splendid'
p1835
aS'hall'
p1836
aS','
p1837
aS'wherein'
p1838
aS'sat'
p1839
aS'some'
p1840
aS'enchanted'
p1841
aS'princes'
p1842
aS'whose'
p1843
aS'rings'
p1844
aS'he'
p1845
aS'drew'
p1846
aS'off'
p1847
aS'their'
p1848
aS'fingers'
p1849
aS'.'
p1850
asg45
(lp1851
VThe
p1852
aVdoor
p1853
aVsprang
p1854
aVopen
p1855
aVat
p1856
aVthe
p1857
aVthird
p1858
aVstroke
p1859
aVof
p1860
aVthe
p1861
aVwand
p1862
ag56
aVand
p1863
aVwhen
p1864
aVhe
p1865
ag53
aVappease
p1866
aVthe
p1867
aVlion
p1868
aVwith
p1869
aVthe
p1870
aVbread
p1871
ag56
aVhe
p1872
aVenter
p1873
aVthe
p1874
aVcastle
p1875
ag56
aVand
p1876
ag883
aVto
p1877
ag50
aVlarge
p1878
aVand
p1879
aVsplendid
p1880
aVhall
p1881
ag56
aVwherein
p1882
aVsat
p1883
aVsome
p1884
aVenchant
p1885
aVprince
p1886
aVwhose
p1887
aVring
p1888
aVhe
p1889
ag783
aVoff
p1890
aVtheir
p1891
aVfinger
p1892
ag71
asg72
(lp1893
g74
ag74
ag74
ag74
ag74
ag74
ag74
ag74
ag74
ag74
ag74
ag74
ag74
ag74
ag74
ag74
ag74
ag74
ag74
ag74
ag74
ag74
ag74
ag74
ag74
ag74
ag74
ag74
ag74
ag74
ag74
ag74
ag74
ag74
ag74
ag74
ag74
ag74
ag74
ag74
ag74
ag74
ag74
ag74
ag74
ag74
ag74
ag74
ag74
ag74
asg75
(lp1894
g80
ag81
ag81
ag140
ag85
ag80
ag140
ag81
ag85
ag80
ag81
ag83
ag84
ag631
ag86
ag78
ag139
ag80
ag138
ag85
ag80
ag81
ag83
ag86
ag78
ag80
ag81
ag83
ag84
ag78
ag179
ag80
ag140
ag84
ag78
ag81
ag83
ag81
ag81
ag80
ag139
ag138
aS'WP$'
p1895
ag138
ag86
ag78
ag89
ag90
ag138
ag91
asg92
VThe door sprang open at the third stroke of the wand, and when he had appeased the lions with the bread, he entered the castle, and came to a large and splendid hall, wherein sat some enchanted princes whose rings he drew off their fingers.
p1896
sba(i__main__
Sentence
p1897
(dp1898
g17
I37
sg18
(lp1899
S'A'
p1900
aS'sword'
p1901
aS'and'
p1902
aS'a'
p1903
aS'loaf'
p1904
aS'of'
p1905
aS'bread'
p1906
aS'were'
p1907
aS'lying'
p1908
aS'there'
p1909
aS','
p1910
aS'which'
p1911
aS'he'
p1912
aS'carried'
p1913
aS'away'
p1914
aS'.'
p1915
asg45
(lp1916
VA
p1917
aVsword
p1918
aVand
p1919
ag50
aVloaf
p1920
aVof
p1921
aVbread
p1922
ag122
aVlie
p1923
aVthere
p1924
ag56
aVwhich
p1925
aVhe
p1926
aVcarry
p1927
aVaway
p1928
ag71
asg72
(lp1929
g74
ag74
ag74
ag74
ag74
ag74
ag74
ag74
ag74
ag74
ag74
ag74
ag74
ag74
ag74
ag74
asg75
(lp1930
g80
ag81
ag84
ag80
ag81
ag85
ag81
ag78
ag417
ag79
ag83
aS'WDT'
p1931
ag86
ag78
ag79
ag91
asg92
VA sword and a loaf of bread were lying there, which he carried away.
p1932
sba(i__main__
Sentence
p1933
(dp1934
g17
I38
sg18
(lp1935
S'After'
p1936
aS'this'
p1937
aS','
p1938
aS'he'
p1939
aS'entered'
p1940
aS'a'
p1941
aS'chamber'
p1942
aS','
p1943
aS'in'
p1944
aS'which'
p1945
aS'was'
p1946
aS'a'
p1947
aS'beautiful'
p1948
aS'maiden'
p1949
aS'who'
p1950
aS'rejoiced'
p1951
aS'when'
p1952
aS'she'
p1953
aS'saw'
p1954
aS'him'
p1955
aS','
p1956
aS'kissed'
p1957
aS'him'
p1958
aS','
p1959
aS'and'
p1960
aS'told'
p1961
aS'him'
p1962
aS'that'
p1963
aS'he'
p1964
aS'had'
p1965
aS'set'
p1966
aS'her'
p1967
aS'free'
p1968
aS','
p1969
aS'and'
p1970
aS'should'
p1971
aS'have'
p1972
aS'the'
p1973
aS'whole'
p1974
aS'of'
p1975
aS'her'
p1976
aS'kingdom'
p1977
aS','
p1978
aS'and'
p1979
aS'that'
p1980
aS'if'
p1981
aS'he'
p1982
aS'would'
p1983
aS'return'
p1984
aS'in'
p1985
aS'a'
p1986
aS'year'
p1987
aS'their'
p1988
aS'wedding'
p1989
aS'should'
p1990
aS'be'
p1991
aS'celebrated'
p1992
aS'.'
p1993
asg45
(lp1994
VAfter
p1995
aVthis
p1996
ag56
aVhe
p1997
aVenter
p1998
ag50
aVchamber
p1999
ag56
aVin
p2000
aVwhich
p2001
ag48
ag50
aVbeautiful
p2002
aVmaiden
p2003
aVwho
p2004
aVrejoice
p2005
aVwhen
p2006
aVshe
p2007
aVsaw
p2008
aVhim
p2009
ag56
aVkiss
p2010
aVhim
p2011
ag56
aVand
p2012
ag209
aVhim
p2013
aVthat
p2014
aVhe
p2015
ag53
aVset
p2016
aVher
p2017
aVfree
p2018
ag56
aVand
p2019
aVshould
p2020
aVhave
p2021
aVthe
p2022
aVwhole
p2023
aVof
p2024
aVher
p2025
aVkingdom
p2026
ag56
aVand
p2027
aVthat
p2028
aVif
p2029
aVhe
p2030
aVwould
p2031
aVreturn
p2032
aVin
p2033
ag50
aVyear
p2034
aVtheir
p2035
aVwedding
p2036
aVshould
p2037
aVbe
p2038
aVcelebrate
p2039
ag71
asg72
(lp2040
g74
ag74
ag74
ag74
ag74
ag74
ag74
ag74
ag74
ag74
ag74
ag74
ag74
ag74
ag74
ag74
ag74
ag74
ag74
ag74
ag74
ag74
ag74
ag74
ag74
ag74
ag74
ag74
ag74
ag74
ag74
ag74
ag74
ag74
ag74
ag74
ag74
ag74
ag74
ag74
ag74
ag74
ag74
ag74
ag74
ag74
ag74
ag74
ag74
ag74
ag74
ag74
ag74
ag74
ag74
ag74
ag74
ag74
asg75
(lp2041
g85
ag80
ag83
ag86
ag78
ag80
ag81
ag83
ag85
ag1931
ag78
ag80
ag140
ag81
ag82
ag139
ag631
ag86
ag78
ag86
ag83
ag78
ag86
ag83
ag84
ag78
ag86
ag85
ag86
ag78
ag139
ag90
ag140
ag83
ag84
ag87
ag88
ag80
ag140
ag85
ag90
ag81
ag83
ag84
ag85
ag85
ag86
ag87
ag88
ag85
ag80
ag81
ag90
ag81
ag87
ag88
ag139
ag91
asg92
VAfter this, he entered a chamber, in which was a beautiful maiden who rejoiced when she saw him, kissed him, and told him that he had set her free, and should have the whole of her kingdom, and that if he would return in a year their wedding should be celebrated.
p2042
sba(i__main__
Sentence
p2043
(dp2044
g17
I39
sg18
(lp2045
S'Likewise'
p2046
aS'she'
p2047
aS'told'
p2048
aS'him'
p2049
aS'where'
p2050
aS'the'
p2051
aS'spring'
p2052
aS'of'
p2053
aS'the'
p2054
aS'water'
p2055
aS'of'
p2056
aS'life'
p2057
aS'was'
p2058
aS','
p2059
aS'and'
p2060
aS'that'
p2061
aS'he'
p2062
aS'was'
p2063
aS'to'
p2064
aS'hasten'
p2065
aS'and'
p2066
aS'draw'
p2067
aS'some'
p2068
aS'of'
p2069
aS'it'
p2070
aS'before'
p2071
aS'the'
p2072
aS'clock'
p2073
aS'struck'
p2074
aS'twelve'
p2075
aS'.'
p2076
asg45
(lp2077
VLikewise
p2078
aVshe
p2079
ag209
aVhim
p2080
aVwhere
p2081
aVthe
p2082
aVspring
p2083
aVof
p2084
aVthe
p2085
aVwater
p2086
aVof
p2087
aVlife
p2088
ag48
ag56
aVand
p2089
aVthat
p2090
aVhe
p2091
ag48
aVto
p2092
aVhasten
p2093
aVand
p2094
aVdraw
p2095
aVsome
p2096
aVof
p2097
aVit
p2098
aVbefore
p2099
aVthe
p2100
aVclock
p2101
aVstruck
p2102
aVtwelve
p2103
ag71
asg72
(lp2104
g74
ag74
ag74
ag74
ag74
ag74
ag74
ag74
ag74
ag74
ag74
ag74
ag74
ag74
ag74
ag74
ag74
ag74
ag74
ag74
ag74
ag74
ag74
ag74
ag74
ag74
ag74
ag74
ag74
ag74
ag74
asg75
(lp2105
g632
ag86
ag78
ag86
ag631
ag80
ag81
ag85
ag80
ag81
ag85
ag81
ag78
ag83
ag84
ag85
ag86
ag78
ag179
ag139
ag84
ag81
ag80
ag85
ag86
ag85
ag80
ag81
ag81
ag81
ag91
asg92
VLikewise she told him where the spring of the water of life was, and that he was to hasten and draw some of it before the clock struck twelve.
p2106
sba(i__main__
Sentence
p2107
(dp2108
g17
I40
sg18
(lp2109
S'Then'
p2110
aS'he'
p2111
aS'went'
p2112
aS'onwards'
p2113
aS','
p2114
aS'and'
p2115
aS'at'
p2116
aS'last'
p2117
aS'entered'
p2118
aS'a'
p2119
aS'room'
p2120
aS'where'
p2121
aS'there'
p2122
aS'was'
p2123
aS'a'
p2124
aS'beautiful'
p2125
aS'newly-made'
p2126
aS'bed'
p2127
aS','
p2128
aS'and'
p2129
aS'as'
p2130
aS'he'
p2131
aS'was'
p2132
aS'very'
p2133
aS'weary'
p2134
aS','
p2135
aS'he'
p2136
aS'felt'
p2137
aS'inclined'
p2138
aS'to'
p2139
aS'rest'
p2140
aS'a'
p2141
aS'little'
p2142
aS'.'
p2143
asg45
(lp2144
VThen
p2145
aVhe
p2146
ag128
aVonwards
p2147
ag56
aVand
p2148
aVat
p2149
aVlast
p2150
aVenter
p2151
ag50
aVroom
p2152
aVwhere
p2153
aVthere
p2154
ag48
ag50
aVbeautiful
p2155
aVnewly-made
p2156
aVbed
p2157
ag56
aVand
p2158
ag50
aVhe
p2159
ag48
aVvery
p2160
aVweary
p2161
ag56
aVhe
p2162
aVfelt
p2163
aVincline
p2164
aVto
p2165
aVrest
p2166
ag50
aVlittle
p2167
ag71
asg72
(lp2168
g74
ag74
ag74
ag74
ag74
ag74
ag74
ag74
ag74
ag74
ag74
ag74
ag74
ag74
ag74
ag74
ag74
ag74
ag74
ag74
ag74
ag74
ag74
ag74
ag74
ag74
ag74
ag74
ag74
ag74
ag74
ag74
ag74
ag74
asg75
(lp2169
g79
ag86
ag78
ag138
ag83
ag84
ag85
ag140
ag139
ag80
ag81
ag631
ag77
ag78
ag80
ag140
ag81
ag78
ag83
ag84
ag85
ag86
ag78
ag79
ag140
ag83
ag86
ag78
ag139
ag179
ag81
ag80
ag79
ag91
asg92
VThen he went onwards, and at last entered a room where there was a beautiful newly-made bed, and as he was very weary, he felt inclined to rest a little.
p2170
sba(i__main__
Sentence
p2171
(dp2172
g17
I41
sg18
(lp2173
S'So'
p2174
aS'he'
p2175
aS'lay'
p2176
aS'down'
p2177
aS'and'
p2178
aS'fell'
p2179
aS'asleep'
p2180
aS'.'
p2181
asg45
(lp2182
VSo
p2183
aVhe
p2184
aVlay
p2185
aVdown
p2186
aVand
p2187
aVfell
p2188
aVasleep
p2189
ag71
asg72
(lp2190
g74
ag74
ag74
ag74
ag74
ag74
ag74
ag74
asg75
(lp2191
g85
ag86
ag78
ag89
ag84
ag78
ag88
ag91
asg92
VSo he lay down and fell asleep.
p2192
sba(i__main__
Sentence
p2193
(dp2194
g17
I42
sg18
(lp2195
S'When'
p2196
aS'he'
p2197
aS'awoke'
p2198
aS','
p2199
aS'it'
p2200
aS'was'
p2201
aS'striking'
p2202
aS'a'
p2203
aS'quarter'
p2204
aS'to'
p2205
aS'twelve'
p2206
aS'.'
p2207
asg45
(lp2208
VWhen
p2209
aVhe
p2210
aVawake
p2211
ag56
aVit
p2212
ag48
aVstrike
p2213
ag50
aVquarter
p2214
aVto
p2215
aVtwelve
p2216
ag71
asg72
(lp2217
g74
ag74
ag74
ag74
ag74
ag74
ag74
ag74
ag74
ag74
ag74
ag74
asg75
(lp2218
g631
ag86
ag178
ag83
ag86
ag78
ag417
ag80
ag81
ag179
ag88
ag91
asg92
VWhen he awoke, it was striking a quarter to twelve.
p2219
sba(i__main__
Sentence
p2220
(dp2221
g17
I43
sg18
(lp2222
S'He'
p2223
aS'sprang'
p2224
aS'up'
p2225
aS'in'
p2226
aS'a'
p2227
aS'fright'
p2228
aS','
p2229
aS'ran'
p2230
aS'to'
p2231
aS'the'
p2232
aS'spring'
p2233
aS','
p2234
aS'drew'
p2235
aS'some'
p2236
aS'water'
p2237
aS'in'
p2238
aS'a'
p2239
aS'cup'
p2240
aS'which'
p2241
aS'stood'
p2242
aS'near'
p2243
aS','
p2244
aS'and'
p2245
aS'hastened'
p2246
aS'away'
p2247
aS'.'
p2248
asg45
(lp2249
VHe
p2250
aVspring
p2251
aVup
p2252
aVin
p2253
ag50
aVfright
p2254
ag56
aVrun
p2255
aVto
p2256
aVthe
p2257
aVspring
p2258
ag56
ag783
aVsome
p2259
aVwater
p2260
aVin
p2261
ag50
aVcup
p2262
aVwhich
p2263
aVstood
p2264
aVnear
p2265
ag56
aVand
p2266
aVhasten
p2267
aVaway
p2268
ag71
asg72
(lp2269
g74
ag74
ag74
ag74
ag74
ag74
ag74
ag74
ag74
ag74
ag74
ag74
ag74
ag74
ag74
ag74
ag74
ag74
ag74
ag74
ag74
ag74
ag74
ag74
ag74
ag74
asg75
(lp2270
g86
ag78
ag89
ag85
ag80
ag81
ag83
ag78
ag179
ag80
ag81
ag83
ag78
ag80
ag81
ag85
ag80
ag81
ag1931
ag81
ag85
ag83
ag84
ag78
ag79
ag91
asg92
VHe sprang up in a fright, ran to the spring, drew some water in a cup which stood near, and hastened away.
p2271
sba(i__main__
Sentence
p2272
(dp2273
g17
I44
sg18
(lp2274
S'But'
p2275
aS'just'
p2276
aS'as'
p2277
aS'he'
p2278
aS'was'
p2279
aS'passing'
p2280
aS'through'
p2281
aS'the'
p2282
aS'iron'
p2283
aS'door'
p2284
aS','
p2285
aS'the'
p2286
aS'clock'
p2287
aS'struck'
p2288
aS'twelve'
p2289
aS','
p2290
aS'and'
p2291
aS'the'
p2292
aS'door'
p2293
aS'fell'
p2294
aS'to'
p2295
aS'with'
p2296
aS'such'
p2297
aS'violence'
p2298
aS'that'
p2299
aS'it'
p2300
aS'carried'
p2301
aS'away'
p2302
aS'a'
p2303
aS'piece'
p2304
aS'of'
p2305
aS'his'
p2306
aS'heel'
p2307
aS'.'
p2308
asg45
(lp2309
VBut
p2310
aVjust
p2311
ag50
aVhe
p2312
ag48
aVpass
p2313
aVthrough
p2314
aVthe
p2315
aViron
p2316
aVdoor
p2317
ag56
aVthe
p2318
aVclock
p2319
aVstruck
p2320
aVtwelve
p2321
ag56
aVand
p2322
aVthe
p2323
aVdoor
p2324
aVfell
p2325
aVto
p2326
aVwith
p2327
aVsuch
p2328
aVviolence
p2329
aVthat
p2330
aVit
p2331
ag1927
aVaway
p2332
ag50
aVpiece
p2333
aVof
p2334
aVhis
p2335
aVheel
p2336
ag71
asg72
(lp2337
g74
ag74
ag74
ag74
ag74
ag74
ag74
ag74
ag74
ag74
ag74
ag74
ag74
ag74
ag74
ag74
ag74
ag74
ag74
ag74
ag74
ag74
ag74
ag74
ag74
ag74
ag74
ag74
ag74
ag74
ag74
ag74
ag74
ag74
asg75
(lp2338
g84
ag79
ag85
ag86
ag78
ag417
ag85
ag80
ag81
ag81
ag83
ag80
ag81
ag81
ag81
ag83
ag84
ag80
ag81
ag78
ag179
ag85
ag140
ag81
ag1931
ag86
ag78
ag79
ag80
ag81
ag85
ag90
ag81
ag91
asg92
VBut just as he was passing through the iron door, the clock struck twelve, and the door fell to with such violence that it carried away a piece of his heel.
p2339
sba(i__main__
Sentence
p2340
(dp2341
g17
I45
sg18
(lp2342
S'He'
p2343
aS','
p2344
aS'however'
p2345
aS','
p2346
aS'rejoicing'
p2347
aS'at'
p2348
aS'having'
p2349
aS'obtained'
p2350
aS'the'
p2351
aS'water'
p2352
aS'of'
p2353
aS'life'
p2354
aS','
p2355
aS'went'
p2356
aS'homewards'
p2357
aS','
p2358
aS'and'
p2359
aS'again'
p2360
aS'passed'
p2361
aS'the'
p2362
aS'dwarf'
p2363
aS'.'
p2364
asg45
(lp2365
VHe
p2366
ag56
aVhowever
p2367
ag56
aVrejoice
p2368
aVat
p2369
aVhave
p2370
aVobtain
p2371
aVthe
p2372
aVwater
p2373
aVof
p2374
aVlife
p2375
ag56
ag128
aVhomewards
p2376
ag56
aVand
p2377
aVagain
p2378
aVpass
p2379
aVthe
p2380
aVdwarf
p2381
ag71
asg72
(lp2382
g74
ag74
ag74
ag74
ag74
ag74
ag74
ag74
ag74
ag74
ag74
ag74
ag74
ag74
ag74
ag74
ag74
ag74
ag74
ag74
ag74
ag74
asg75
(lp2383
g86
ag83
ag79
ag83
ag417
ag85
ag417
ag139
ag80
ag81
ag85
ag81
ag83
ag78
ag138
ag83
ag84
ag79
ag78
ag80
ag81
ag91
asg92
VHe, however, rejoicing at having obtained the water of life, went homewards, and again passed the dwarf.
p2384
sba(i__main__
Sentence
p2385
(dp2386
g17
I46
sg18
(lp2387
S'When'
p2388
aS'the'
p2389
aS'latter'
p2390
aS'saw'
p2391
aS'the'
p2392
aS'sword'
p2393
aS'and'
p2394
aS'the'
p2395
aS'loaf'
p2396
aS','
p2397
aS'he'
p2398
aS'said'
p2399
aS','
p2400
aS'``'
p2401
aS'With'
p2402
aS'these'
p2403
aS'you'
p2404
aS'have'
p2405
aS'won'
p2406
aS'great'
p2407
aS'wealth'
p2408
aS','
p2409
aS'with'
p2410
aS'the'
p2411
aS'sword'
p2412
aS'you'
p2413
aS'can'
p2414
aS'slay'
p2415
aS'whole'
p2416
aS'armies'
p2417
aS','
p2418
aS'and'
p2419
aS'the'
p2420
aS'bread'
p2421
aS'will'
p2422
aS'never'
p2423
aS'come'
p2424
aS'to'
p2425
aS'an'
p2426
aS'end'
p2427
aS'.'
p2428
aS"''"
p2429
asg45
(lp2430
VWhen
p2431
aVthe
p2432
aVlatter
p2433
aVsaw
p2434
aVthe
p2435
aVsword
p2436
aVand
p2437
aVthe
p2438
aVloaf
p2439
ag56
aVhe
p2440
ag261
ag56
aV``
p2441
aVWith
p2442
aVthese
p2443
aVyou
p2444
aVhave
p2445
aVwin
p2446
aVgreat
p2447
aVwealth
p2448
ag56
aVwith
p2449
aVthe
p2450
aVsword
p2451
aVyou
p2452
aVcan
p2453
aVslay
p2454
aVwhole
p2455
aVarmy
p2456
ag56
aVand
p2457
aVthe
p2458
aVbread
p2459
aVwill
p2460
aVnever
p2461
aVcome
p2462
aVto
p2463
aVan
p2464
aVend
p2465
ag71
aV''
p2466
asg72
(lp2467
g74
ag74
ag74
ag74
ag74
ag74
ag74
ag74
ag74
ag74
ag74
ag74
ag74
ag74
ag74
ag74
ag74
ag74
ag74
ag74
ag74
ag74
ag74
ag74
ag74
ag74
ag74
ag74
ag74
ag74
ag74
ag74
ag74
ag74
ag74
ag74
ag74
ag74
ag74
ag74
ag74
ag74
asg75
(lp2468
g631
ag80
ag81
ag78
ag80
ag81
ag84
ag80
ag81
ag83
ag86
ag78
ag83
ag278
ag85
ag80
ag86
ag178
ag139
ag140
ag81
ag83
ag85
ag80
ag81
ag86
ag87
ag88
ag140
ag138
ag83
ag84
ag80
ag81
ag87
ag79
ag88
ag179
ag80
ag81
ag91
ag323
asg92
VWhen the latter saw the sword and the loaf, he said, "With these you have won great wealth, with the sword you can slay whole armies, and the bread will never come to an end."
p2469
sba(i__main__
Sentence
p2470
(dp2471
g17
I47
sg18
(lp2472
S'But'
p2473
aS'the'
p2474
aS'prince'
p2475
aS'would'
p2476
aS'not'
p2477
aS'go'
p2478
aS'home'
p2479
aS'to'
p2480
aS'his'
p2481
aS'father'
p2482
aS'without'
p2483
aS'his'
p2484
aS'brothers'
p2485
aS','
p2486
aS'and'
p2487
aS'said'
p2488
aS','
p2489
aS'``'
p2490
aS'Dear'
p2491
aS'dwarf'
p2492
aS','
p2493
aS'can'
p2494
aS'you'
p2495
aS'not'
p2496
aS'tell'
p2497
aS'me'
p2498
aS'where'
p2499
aS'my'
p2500
aS'two'
p2501
aS'brothers'
p2502
aS'are'
p2503
aS'?'
p2504
asg45
(lp2505
VBut
p2506
aVthe
p2507
aVprince
p2508
aVwould
p2509
aVnot
p2510
aVgo
p2511
aVhome
p2512
aVto
p2513
aVhis
p2514
aVfather
p2515
aVwithout
p2516
aVhis
p2517
aVbrother
p2518
ag56
aVand
p2519
ag261
ag56
aV``
p2520
aVDear
p2521
aVdwarf
p2522
ag56
aVcan
p2523
aVyou
p2524
aVnot
p2525
aVtell
p2526
aVme
p2527
aVwhere
p2528
aVmy
p2529
aVtwo
p2530
aVbrother
p2531
aVbe
p2532
ag627
asg72
(lp2533
g74
ag74
ag74
ag74
ag74
ag74
ag74
ag74
ag74
ag74
ag74
ag74
ag74
ag74
ag74
ag74
ag74
ag74
ag74
ag74
ag74
ag74
ag74
ag74
ag74
ag74
ag74
ag74
ag74
ag74
ag74
ag74
asg75
(lp2534
g84
ag80
ag81
ag87
ag79
ag88
ag79
ag179
ag90
ag81
ag85
ag90
ag138
ag83
ag84
ag78
ag83
ag278
ag632
ag81
ag83
ag87
ag86
ag79
ag178
ag86
ag631
ag90
ag137
ag138
ag178
ag91
asg92
VBut the prince would not go home to his father without his brothers, and said, "Dear dwarf, can you not tell me where my two brothers are?
p2535
sba(i__main__
Sentence
p2536
(dp2537
g17
I48
sg18
(lp2538
S'They'
p2539
aS'went'
p2540
aS'out'
p2541
aS'before'
p2542
aS'I'
p2543
aS'did'
p2544
aS'in'
p2545
aS'search'
p2546
aS'of'
p2547
aS'the'
p2548
aS'water'
p2549
aS'of'
p2550
aS'life'
p2551
aS','
p2552
aS'and'
p2553
aS'have'
p2554
aS'not'
p2555
aS'returned'
p2556
aS'.'
p2557
aS"''"
p2558
asg45
(lp2559
VThey
p2560
ag128
aVout
p2561
aVbefore
p2562
ag263
aVdo
p2563
aVin
p2564
aVsearch
p2565
aVof
p2566
aVthe
p2567
aVwater
p2568
aVof
p2569
aVlife
p2570
ag56
aVand
p2571
aVhave
p2572
aVnot
p2573
aVreturn
p2574
ag71
aV''
p2575
asg72
(lp2576
g74
ag74
ag74
ag74
ag74
ag74
ag74
ag74
ag74
ag74
ag74
ag74
ag74
ag74
ag74
ag74
ag74
ag74
ag74
ag74
asg75
(lp2577
g86
ag78
ag85
ag85
ag86
ag78
ag85
ag81
ag85
ag80
ag81
ag85
ag81
ag83
ag84
ag178
ag79
ag139
ag91
ag323
asg92
VThey went out before I did in search of the water of life, and have not returned."
p2578
sba(i__main__
Sentence
p2579
(dp2580
g17
I49
sg18
(lp2581
S'``'
p2582
aS'They'
p2583
aS'are'
p2584
aS'imprisoned'
p2585
aS'between'
p2586
aS'two'
p2587
aS'mountains'
p2588
aS','
p2589
aS"''"
p2590
aS'said'
p2591
aS'the'
p2592
aS'dwarf'
p2593
aS'.'
p2594
asg45
(lp2595
V``
p2596
aVThey
p2597
ag2532
aVimprison
p2598
aVbetween
p2599
aVtwo
p2600
aVmountain
p2601
ag56
aV''
p2602
ag261
aVthe
p2603
aVdwarf
p2604
ag71
asg72
(lp2605
g74
ag74
ag74
ag74
ag74
ag74
ag74
ag74
ag74
ag74
ag74
ag74
ag74
asg75
(lp2606
g278
ag86
ag178
ag139
ag85
ag137
ag138
ag83
ag323
ag78
ag80
ag81
ag91
asg92
V"They are imprisoned between two mountains," said the dwarf.
p2607
sba(i__main__
Sentence
p2608
(dp2609
g17
I50
sg18
(lp2610
S'``'
p2611
aS'I'
p2612
aS'have'
p2613
aS'condemned'
p2614
aS'them'
p2615
aS'to'
p2616
aS'stay'
p2617
aS'there'
p2618
aS','
p2619
aS'because'
p2620
aS'they'
p2621
aS'were'
p2622
aS'so'
p2623
aS'haughty'
p2624
aS'.'
p2625
aS"''"
p2626
asg45
(lp2627
V``
p2628
ag263
aVhave
p2629
aVcondemn
p2630
aVthem
p2631
aVto
p2632
aVstay
p2633
aVthere
p2634
ag56
aVbecause
p2635
aVthey
p2636
ag122
aVso
p2637
aVhaughty
p2638
ag71
aV''
p2639
asg72
(lp2640
g74
ag74
ag74
ag74
ag74
ag74
ag74
ag74
ag74
ag74
ag74
ag74
ag74
ag74
ag74
ag74
asg75
(lp2641
g278
ag86
ag178
ag139
ag86
ag179
ag88
ag79
ag83
ag85
ag86
ag78
ag79
ag140
ag91
ag323
asg92
V"I have condemned them to stay there, because they were so haughty."
p2642
sba(i__main__
Sentence
p2643
(dp2644
g17
I51
sg18
(lp2645
S'Then'
p2646
aS'the'
p2647
aS'prince'
p2648
aS'begged'
p2649
aS'until'
p2650
aS'the'
p2651
aS'dwarf'
p2652
aS'released'
p2653
aS'them'
p2654
aS','
p2655
aS'but'
p2656
aS'he'
p2657
aS'warned'
p2658
aS'him'
p2659
aS'and'
p2660
aS'said'
p2661
aS','
p2662
aS'``'
p2663
aS'Beware'
p2664
aS'of'
p2665
aS'them'
p2666
aS','
p2667
aS'for'
p2668
aS'they'
p2669
aS'have'
p2670
aS'bad'
p2671
aS'hearts'
p2672
aS'.'
p2673
aS"''"
p2674
asg45
(lp2675
VThen
p2676
aVthe
p2677
aVprince
p2678
ag395
aVuntil
p2679
aVthe
p2680
aVdwarf
p2681
aVrelease
p2682
aVthem
p2683
ag56
aVbut
p2684
aVhe
p2685
aVwarn
p2686
aVhim
p2687
aVand
p2688
ag261
ag56
aV``
p2689
aVBeware
p2690
aVof
p2691
aVthem
p2692
ag56
aVfor
p2693
aVthey
p2694
aVhave
p2695
aVbad
p2696
aVheart
p2697
ag71
aV''
p2698
asg72
(lp2699
g74
ag74
ag74
ag74
ag74
ag74
ag74
ag74
ag74
ag74
ag74
ag74
ag74
ag74
ag74
ag74
ag74
ag74
ag74
ag74
ag74
ag74
ag74
ag74
ag74
ag74
ag74
ag74
ag74
asg75
(lp2700
g79
ag80
ag81
ag78
ag85
ag80
ag81
ag78
ag86
ag83
ag84
ag86
ag78
ag86
ag84
ag78
ag83
ag278
ag632
ag85
ag86
ag83
ag85
ag86
ag178
ag140
ag138
ag91
ag323
asg92
VThen the prince begged until the dwarf released them, but he warned him and said, "Beware of them, for they have bad hearts."
p2701
sba(i__main__
Sentence
p2702
(dp2703
g17
I52
sg18
(lp2704
S'When'
p2705
aS'his'
p2706
aS'brothers'
p2707
aS'came'
p2708
aS','
p2709
aS'he'
p2710
aS'rejoiced'
p2711
aS','
p2712
aS'and'
p2713
aS'told'
p2714
aS'them'
p2715
aS'how'
p2716
aS'things'
p2717
aS'had'
p2718
aS'gone'
p2719
aS'with'
p2720
aS'him'
p2721
aS','
p2722
aS'that'
p2723
aS'he'
p2724
aS'had'
p2725
aS'found'
p2726
aS'the'
p2727
aS'water'
p2728
aS'of'
p2729
aS'life'
p2730
aS'and'
p2731
aS'had'
p2732
aS'brought'
p2733
aS'a'
p2734
aS'cupful'
p2735
aS'away'
p2736
aS'with'
p2737
aS'him'
p2738
aS','
p2739
aS'and'
p2740
aS'had'
p2741
aS'rescued'
p2742
aS'a'
p2743
aS'beautiful'
p2744
aS'princess'
p2745
aS','
p2746
aS'who'
p2747
aS'was'
p2748
aS'willing'
p2749
aS'to'
p2750
aS'wait'
p2751
aS'a'
p2752
aS'year'
p2753
aS'for'
p2754
aS'him'
p2755
aS','
p2756
aS'and'
p2757
aS'then'
p2758
aS'their'
p2759
aS'wedding'
p2760
aS'was'
p2761
aS'to'
p2762
aS'be'
p2763
aS'celebrated'
p2764
aS'and'
p2765
aS'he'
p2766
aS'would'
p2767
aS'obtain'
p2768
aS'a'
p2769
aS'great'
p2770
aS'kingdom'
p2771
aS'.'
p2772
asg45
(lp2773
VWhen
p2774
aVhis
p2775
aVbrother
p2776
ag883
ag56
aVhe
p2777
aVrejoice
p2778
ag56
aVand
p2779
ag209
aVthem
p2780
aVhow
p2781
aVthing
p2782
ag53
aVgo
p2783
aVwith
p2784
aVhim
p2785
ag56
aVthat
p2786
aVhe
p2787
ag53
ag1398
aVthe
p2788
aVwater
p2789
aVof
p2790
aVlife
p2791
aVand
p2792
ag53
aVbring
p2793
ag50
aVcupful
p2794
aVaway
p2795
aVwith
p2796
aVhim
p2797
ag56
aVand
p2798
ag53
aVrescue
p2799
ag50
aVbeautiful
p2800
aVprincess
p2801
ag56
aVwho
p2802
ag48
aVwilling
p2803
aVto
p2804
aVwait
p2805
ag50
aVyear
p2806
aVfor
p2807
aVhim
p2808
ag56
aVand
p2809
aVthen
p2810
aVtheir
p2811
aVwedding
p2812
ag48
aVto
p2813
aVbe
p2814
aVcelebrate
p2815
aVand
p2816
aVhe
p2817
aVwould
p2818
aVobtain
p2819
ag50
aVgreat
p2820
aVkingdom
p2821
ag71
asg72
(lp2822
g74
ag74
ag74
ag74
ag74
ag74
ag74
ag74
ag74
ag74
ag74
ag74
ag74
ag74
ag74
ag74
ag74
ag74
ag74
ag74
ag74
ag74
ag74
ag74
ag74
ag74
ag74
ag74
ag74
ag74
ag74
ag74
ag74
ag74
ag74
ag74
ag74
ag74
ag74
ag74
ag74
ag74
ag74
ag74
ag74
ag74
ag74
ag74
ag74
ag74
ag74
ag74
ag74
ag74
ag74
ag74
ag74
ag74
ag74
ag74
ag74
ag74
ag74
ag74
ag74
ag74
ag74
ag74
asg75
(lp2823
g631
ag90
ag138
ag78
ag83
ag86
ag78
ag83
ag84
ag78
ag86
ag631
ag138
ag78
ag139
ag85
ag86
ag83
ag85
ag86
ag78
ag139
ag80
ag81
ag85
ag81
ag84
ag78
ag139
ag80
ag140
ag81
ag85
ag86
ag83
ag84
ag78
ag139
ag80
ag140
ag81
ag83
ag82
ag78
ag140
ag179
ag88
ag80
ag81
ag85
ag86
ag83
ag84
ag79
ag90
ag81
ag78
ag179
ag88
ag139
ag84
ag86
ag87
ag88
ag80
ag140
ag81
ag91
asg92
VWhen his brothers came, he rejoiced, and told them how things had gone with him, that he had found the water of life and had brought a cupful away with him, and had rescued a beautiful princess, who was willing to wait a year for him, and then their wedding was to be celebrated and he would obtain a great kingdom.
p2824
sba(i__main__
Sentence
p2825
(dp2826
g17
I53
sg18
(lp2827
S'After'
p2828
aS'that'
p2829
aS'they'
p2830
aS'rode'
p2831
aS'on'
p2832
aS'together'
p2833
aS','
p2834
aS'and'
p2835
aS'chanced'
p2836
aS'upon'
p2837
aS'a'
p2838
aS'land'
p2839
aS'where'
p2840
aS'war'
p2841
aS'and'
p2842
aS'famine'
p2843
aS'reigned'
p2844
aS','
p2845
aS'and'
p2846
aS'the'
p2847
aS'king'
p2848
aS'already'
p2849
aS'thought'
p2850
aS'he'
p2851
aS'must'
p2852
aS'perish'
p2853
aS','
p2854
aS'for'
p2855
aS'the'
p2856
aS'scarcity'
p2857
aS'was'
p2858
aS'so'
p2859
aS'great'
p2860
aS'.'
p2861
asg45
(lp2862
VAfter
p2863
aVthat
p2864
aVthey
p2865
ag688
aVon
p2866
aVtogether
p2867
ag56
aVand
p2868
aVchance
p2869
aVupon
p2870
ag50
aVland
p2871
aVwhere
p2872
aVwar
p2873
aVand
p2874
aVfamine
p2875
aVreign
p2876
ag56
aVand
p2877
aVthe
p2878
aVking
p2879
aValready
p2880
ag534
aVhe
p2881
aVmust
p2882
aVperish
p2883
ag56
aVfor
p2884
aVthe
p2885
aVscarcity
p2886
ag48
aVso
p2887
aVgreat
p2888
ag71
asg72
(lp2889
g74
ag74
ag74
ag74
ag74
ag74
ag74
ag74
ag74
ag74
ag74
ag74
ag74
ag74
ag74
ag74
ag74
ag74
ag74
ag74
ag74
ag74
ag74
ag74
ag74
ag74
ag74
ag74
ag74
ag74
ag74
ag74
ag74
ag74
asg75
(lp2890
g85
ag80
ag86
ag178
ag85
ag81
ag83
ag84
ag78
ag85
ag80
ag81
ag631
ag81
ag84
ag81
ag78
ag83
ag84
ag80
ag81
ag79
ag78
ag86
ag87
ag88
ag83
ag85
ag80
ag81
ag78
ag79
ag140
ag91
asg92
VAfter that they rode on together, and chanced upon a land where war and famine reigned, and the king already thought he must perish, for the scarcity was so great.
p2891
sba(i__main__
Sentence
p2892
(dp2893
g17
I54
sg18
(lp2894
S'Then'
p2895
aS'the'
p2896
aS'prince'
p2897
aS'went'
p2898
aS'to'
p2899
aS'him'
p2900
aS'and'
p2901
aS'gave'
p2902
aS'him'
p2903
aS'the'
p2904
aS'loaf'
p2905
aS','
p2906
aS'wherewith'
p2907
aS'he'
p2908
aS'fed'
p2909
aS'and'
p2910
aS'satisfied'
p2911
aS'the'
p2912
aS'whole'
p2913
aS'of'
p2914
aS'his'
p2915
aS'kingdom'
p2916
aS','
p2917
aS'and'
p2918
aS'then'
p2919
aS'the'
p2920
aS'prince'
p2921
aS'gave'
p2922
aS'him'
p2923
aS'the'
p2924
aS'sword'
p2925
aS'also'
p2926
aS'wherewith'
p2927
aS'he'
p2928
aS'slew'
p2929
aS'the'
p2930
aS'hosts'
p2931
aS'of'
p2932
aS'his'
p2933
aS'enemies'
p2934
aS','
p2935
aS'and'
p2936
aS'could'
p2937
aS'now'
p2938
aS'live'
p2939
aS'in'
p2940
aS'rest'
p2941
aS'and'
p2942
aS'peace'
p2943
aS'.'
p2944
asg45
(lp2945
VThen
p2946
aVthe
p2947
aVprince
p2948
ag128
aVto
p2949
aVhim
p2950
aVand
p2951
ag1348
aVhim
p2952
aVthe
p2953
aVloaf
p2954
ag56
aVwherewith
p2955
aVhe
p2956
aVfeed
p2957
aVand
p2958
aVsatisfy
p2959
aVthe
p2960
aVwhole
p2961
aVof
p2962
aVhis
p2963
aVkingdom
p2964
ag56
aVand
p2965
aVthen
p2966
aVthe
p2967
aVprince
p2968
ag1348
aVhim
p2969
aVthe
p2970
aVsword
p2971
aValso
p2972
aVwherewith
p2973
aVhe
p2974
aVslew
p2975
aVthe
p2976
aVhost
p2977
aVof
p2978
aVhis
p2979
aVenemy
p2980
ag56
aVand
p2981
aVcould
p2982
aVnow
p2983
aVlive
p2984
aVin
p2985
aVrest
p2986
aVand
p2987
aVpeace
p2988
ag71
asg72
(lp2989
g74
ag74
ag74
ag74
ag74
ag74
ag74
ag74
ag74
ag74
ag74
ag74
ag74
ag74
ag74
ag74
ag74
ag74
ag74
ag74
ag74
ag74
ag74
ag74
ag74
ag74
ag74
ag74
ag74
ag74
ag74
ag74
ag74
ag74
ag74
ag74
ag74
ag74
ag74
ag74
ag74
ag74
ag74
ag74
ag74
ag74
ag74
ag74
ag74
ag74
asg75
(lp2990
g79
ag80
ag81
ag78
ag179
ag86
ag84
ag78
ag86
ag80
ag81
ag83
ag85
ag86
ag78
ag84
ag139
ag80
ag140
ag85
ag90
ag81
ag83
ag84
ag79
ag80
ag81
ag78
ag86
ag80
ag81
ag79
ag85
ag86
ag78
ag80
ag138
ag85
ag90
ag138
ag83
ag84
ag87
ag79
ag88
ag85
ag81
ag84
ag81
ag91
asg92
VThen the prince went to him and gave him the loaf, wherewith he fed and satisfied the whole of his kingdom, and then the prince gave him the sword also wherewith he slew the hosts of his enemies, and could now live in rest and peace.
p2991
sba(i__main__
Sentence
p2992
(dp2993
g17
I55
sg18
(lp2994
S'The'
p2995
aS'prince'
p2996
aS'then'
p2997
aS'took'
p2998
aS'back'
p2999
aS'his'
p3000
aS'loaf'
p3001
aS'and'
p3002
aS'his'
p3003
aS'sword'
p3004
aS','
p3005
aS'and'
p3006
aS'the'
p3007
aS'three'
p3008
aS'brothers'
p3009
aS'rode'
p3010
aS'on'
p3011
aS'.'
p3012
asg45
(lp3013
VThe
p3014
aVprince
p3015
aVthen
p3016
ag1758
aVback
p3017
aVhis
p3018
aVloaf
p3019
aVand
p3020
aVhis
p3021
aVsword
p3022
ag56
aVand
p3023
aVthe
p3024
aVthree
p3025
aVbrother
p3026
ag688
aVon
p3027
ag71
asg72
(lp3028
g74
ag74
ag74
ag74
ag74
ag74
ag74
ag74
ag74
ag74
ag74
ag74
ag74
ag74
ag74
ag74
ag74
ag74
asg75
(lp3029
g80
ag81
ag79
ag78
ag79
ag90
ag81
ag84
ag90
ag81
ag83
ag84
ag80
ag137
ag138
ag178
ag85
ag91
asg92
VThe prince then took back his loaf and his sword, and the three brothers rode on.
p3030
sba(i__main__
Sentence
p3031
(dp3032
g17
I56
sg18
(lp3033
S'But'
p3034
aS'after'
p3035
aS'this'
p3036
aS'they'
p3037
aS'entered'
p3038
aS'two'
p3039
aS'more'
p3040
aS'countries'
p3041
aS'where'
p3042
aS'war'
p3043
aS'and'
p3044
aS'famine'
p3045
aS'reigned'
p3046
aS'and'
p3047
aS'each'
p3048
aS'time'
p3049
aS'the'
p3050
aS'prince'
p3051
aS'gave'
p3052
aS'his'
p3053
aS'loaf'
p3054
aS'and'
p3055
aS'his'
p3056
aS'sword'
p3057
aS'to'
p3058
aS'the'
p3059
aS'kings'
p3060
aS','
p3061
aS'and'
p3062
aS'had'
p3063
aS'now'
p3064
aS'delivered'
p3065
aS'three'
p3066
aS'kingdoms'
p3067
aS','
p3068
aS'and'
p3069
aS'after'
p3070
aS'that'
p3071
aS'they'
p3072
aS'went'
p3073
aS'on'
p3074
aS'board'
p3075
aS'a'
p3076
aS'ship'
p3077
aS'and'
p3078
aS'sailed'
p3079
aS'over'
p3080
aS'the'
p3081
aS'sea'
p3082
aS'.'
p3083
asg45
(lp3084
VBut
p3085
aVafter
p3086
aVthis
p3087
aVthey
p3088
aVenter
p3089
aVtwo
p3090
aVmore
p3091
aVcountry
p3092
aVwhere
p3093
aVwar
p3094
aVand
p3095
aVfamine
p3096
aVreign
p3097
aVand
p3098
aVeach
p3099
aVtime
p3100
aVthe
p3101
aVprince
p3102
ag1348
aVhis
p3103
aVloaf
p3104
aVand
p3105
aVhis
p3106
aVsword
p3107
aVto
p3108
aVthe
p3109
aVking
p3110
ag56
aVand
p3111
ag53
aVnow
p3112
aVdeliver
p3113
aVthree
p3114
aVkingdom
p3115
ag56
aVand
p3116
aVafter
p3117
aVthat
p3118
aVthey
p3119
ag128
aVon
p3120
aVboard
p3121
ag50
aVship
p3122
aVand
p3123
aVsail
p3124
aVover
p3125
aVthe
p3126
aVsea
p3127
ag71
asg72
(lp3128
g74
ag74
ag74
ag74
ag74
ag74
ag74
ag74
ag74
ag74
ag74
ag74
ag74
ag74
ag74
ag74
ag74
ag74
ag74
ag74
ag74
ag74
ag74
ag74
ag74
ag74
ag74
ag74
ag74
ag74
ag74
ag74
ag74
ag74
ag74
ag74
ag74
ag74
ag74
ag74
ag74
ag74
ag74
ag74
ag74
ag74
ag74
ag74
ag74
ag74
asg75
(lp3129
g84
ag85
ag80
ag86
ag78
ag137
ag279
ag138
ag631
ag81
ag84
ag81
ag78
ag84
ag80
ag81
ag80
ag81
ag78
ag90
ag81
ag84
ag90
ag81
ag179
ag80
ag138
ag83
ag84
ag78
ag79
ag139
ag137
ag138
ag83
ag84
ag85
ag80
ag86
ag78
ag85
ag81
ag80
ag81
ag84
ag78
ag89
ag80
ag81
ag91
asg92
VBut after this they entered two more countries where war and famine reigned and each time the prince gave his loaf and his sword to the kings, and had now delivered three kingdoms, and after that they went on board a ship and sailed over the sea.
p3130
sba(i__main__
Sentence
p3131
(dp3132
g17
I57
sg18
(lp3133
S'During'
p3134
aS'the'
p3135
aS'passage'
p3136
aS','
p3137
aS'the'
p3138
aS'two'
p3139
aS'eldest'
p3140
aS'conversed'
p3141
aS'apart'
p3142
aS'and'
p3143
aS'said'
p3144
aS','
p3145
aS'``'
p3146
aS'The'
p3147
aS'youngest'
p3148
aS'has'
p3149
aS'found'
p3150
aS'the'
p3151
aS'water'
p3152
aS'of'
p3153
aS'life'
p3154
aS'and'
p3155
aS'not'
p3156
aS'we'
p3157
aS','
p3158
aS'for'
p3159
aS'that'
p3160
aS'our'
p3161
aS'father'
p3162
aS'will'
p3163
aS'give'
p3164
aS'him'
p3165
aS'the'
p3166
aS'kingdom'
p3167
aS'-'
p3168
aS'the'
p3169
aS'kingdom'
p3170
aS'which'
p3171
aS'belongs'
p3172
aS'to'
p3173
aS'us'
p3174
aS','
p3175
aS'and'
p3176
aS'he'
p3177
aS'will'
p3178
aS'rob'
p3179
aS'us'
p3180
aS'of'
p3181
aS'all'
p3182
aS'our'
p3183
aS'fortune'
p3184
aS'.'
p3185
aS"''"
p3186
asg45
(lp3187
VDuring
p3188
aVthe
p3189
aVpassage
p3190
ag56
aVthe
p3191
aVtwo
p3192
aVeldest
p3193
aVconverse
p3194
aVapart
p3195
aVand
p3196
ag261
ag56
aV``
p3197
aVThe
p3198
ag1256
aVhave
p3199
ag1398
aVthe
p3200
aVwater
p3201
aVof
p3202
aVlife
p3203
aVand
p3204
aVnot
p3205
aVwe
p3206
ag56
aVfor
p3207
aVthat
p3208
aVour
p3209
aVfather
p3210
aVwill
p3211
aVgive
p3212
aVhim
p3213
aVthe
p3214
aVkingdom
p3215
aV-
p3216
aVthe
p3217
aVkingdom
p3218
aVwhich
p3219
aVbelongs
p3220
aVto
p3221
aVu
p3222
ag56
aVand
p3223
aVhe
p3224
aVwill
p3225
aVrob
p3226
ag3222
aVof
p3227
aVall
p3228
aVour
p3229
aVfortune
p3230
ag71
aV''
p3231
asg72
(lp3232
g74
ag74
ag74
ag74
ag74
ag74
ag74
ag74
ag74
ag74
ag74
ag74
ag74
ag74
ag74
ag74
ag74
ag74
ag74
ag74
ag74
ag74
ag74
ag74
ag74
ag74
ag74
ag74
ag74
ag74
ag74
ag74
ag74
ag74
ag74
ag74
ag74
ag74
ag74
ag74
ag74
ag74
ag74
ag74
ag74
ag74
ag74
ag74
ag74
ag74
ag74
ag74
ag74
asg75
(lp3233
g85
ag80
ag81
ag83
ag80
ag137
ag353
ag139
ag81
ag84
ag78
ag83
ag278
ag80
ag353
ag280
ag139
ag80
ag81
ag85
ag81
ag84
ag79
ag86
ag83
ag85
ag80
ag90
ag81
ag87
ag88
ag86
ag80
ag81
aS':'
p3234
ag80
ag81
ag1931
ag138
ag179
ag86
ag83
ag84
ag86
ag87
ag88
ag86
ag85
ag80
ag90
ag81
ag91
ag323
asg92
VDuring the passage, the two eldest conversed apart and said, "The youngest has found the water of life and not we, for that our father will give him the kingdom - the kingdom which belongs to us, and he will rob us of all our fortune."
p3235
sba(i__main__
Sentence
p3236
(dp3237
g17
I58
sg18
(lp3238
S'They'
p3239
aS'then'
p3240
aS'began'
p3241
aS'to'
p3242
aS'seek'
p3243
aS'revenge'
p3244
aS','
p3245
aS'and'
p3246
aS'plotted'
p3247
aS'with'
p3248
aS'each'
p3249
aS'other'
p3250
aS'to'
p3251
aS'destroy'
p3252
aS'him'
p3253
aS'.'
p3254
asg45
(lp3255
VThey
p3256
aVthen
p3257
aVbegin
p3258
aVto
p3259
aVseek
p3260
aVrevenge
p3261
ag56
aVand
p3262
aVplot
p3263
aVwith
p3264
aVeach
p3265
aVother
p3266
aVto
p3267
aVdestroy
p3268
aVhim
p3269
ag71
asg72
(lp3270
g74
ag74
ag74
ag74
ag74
ag74
ag74
ag74
ag74
ag74
ag74
ag74
ag74
ag74
ag74
ag74
asg75
(lp3271
g86
ag79
ag78
ag179
ag88
ag81
ag83
ag84
ag78
ag85
ag80
ag140
ag179
ag88
ag86
ag91
asg92
VThey then began to seek revenge, and plotted with each other to destroy him.
p3272
sba(i__main__
Sentence
p3273
(dp3274
g17
I59
sg18
(lp3275
S'They'
p3276
aS'waited'
p3277
aS'until'
p3278
aS'they'
p3279
aS'found'
p3280
aS'him'
p3281
aS'fast'
p3282
aS'asleep'
p3283
aS','
p3284
aS'then'
p3285
aS'they'
p3286
aS'poured'
p3287
aS'the'
p3288
aS'water'
p3289
aS'of'
p3290
aS'life'
p3291
aS'out'
p3292
aS'of'
p3293
aS'the'
p3294
aS'cup'
p3295
aS','
p3296
aS'and'
p3297
aS'took'
p3298
aS'it'
p3299
aS'for'
p3300
aS'themselves'
p3301
aS','
p3302
aS'but'
p3303
aS'into'
p3304
aS'the'
p3305
aS'cup'
p3306
aS'they'
p3307
aS'poured'
p3308
aS'salt'
p3309
aS'sea-water'
p3310
aS'.'
p3311
asg45
(lp3312
VThey
p3313
aVwait
p3314
aVuntil
p3315
aVthey
p3316
ag1398
aVhim
p3317
aVfast
p3318
aVasleep
p3319
ag56
aVthen
p3320
aVthey
p3321
aVpour
p3322
aVthe
p3323
aVwater
p3324
aVof
p3325
aVlife
p3326
aVout
p3327
aVof
p3328
aVthe
p3329
aVcup
p3330
ag56
aVand
p3331
ag1758
aVit
p3332
aVfor
p3333
aVthemselves
p3334
ag56
aVbut
p3335
aVinto
p3336
aVthe
p3337
aVcup
p3338
aVthey
p3339
aVpour
p3340
aVsalt
p3341
aVsea-water
p3342
ag71
asg72
(lp3343
g74
ag74
ag74
ag74
ag74
ag74
ag74
ag74
ag74
ag74
ag74
ag74
ag74
ag74
ag74
ag74
ag74
ag74
ag74
ag74
ag74
ag74
ag74
ag74
ag74
ag74
ag74
ag74
ag74
ag74
ag74
ag74
ag74
ag74
ag74
ag74
asg75
(lp3344
g86
ag78
ag85
ag86
ag78
ag86
ag79
ag88
ag83
ag79
ag86
ag78
ag80
ag81
ag85
ag81
ag85
ag85
ag80
ag81
ag83
ag84
ag78
ag86
ag85
ag86
ag83
ag84
ag85
ag80
ag81
ag86
ag78
ag81
ag81
ag91
asg92
VThey waited until they found him fast asleep, then they poured the water of life out of the cup, and took it for themselves, but into the cup they poured salt sea-water.
p3345
sba(i__main__
Sentence
p3346
(dp3347
g17
I60
sg18
(lp3348
S'Now'
p3349
aS'therefore'
p3350
aS','
p3351
aS'when'
p3352
aS'they'
p3353
aS'arrived'
p3354
aS'home'
p3355
aS','
p3356
aS'the'
p3357
aS'youngest'
p3358
aS'took'
p3359
aS'his'
p3360
aS'cup'
p3361
aS'to'
p3362
aS'the'
p3363
aS'sick'
p3364
aS'king'
p3365
aS'in'
p3366
aS'order'
p3367
aS'that'
p3368
aS'he'
p3369
aS'might'
p3370
aS'drink'
p3371
aS'out'
p3372
aS'of'
p3373
aS'it'
p3374
aS','
p3375
aS'and'
p3376
aS'be'
p3377
aS'cured'
p3378
aS'.'
p3379
asg45
(lp3380
VNow
p3381
aVtherefore
p3382
ag56
aVwhen
p3383
aVthey
p3384
aVarrive
p3385
aVhome
p3386
ag56
aVthe
p3387
ag1256
ag1758
aVhis
p3388
aVcup
p3389
aVto
p3390
aVthe
p3391
aVsick
p3392
aVking
p3393
aVin
p3394
aVorder
p3395
aVthat
p3396
aVhe
p3397
aVmight
p3398
aVdrink
p3399
aVout
p3400
aVof
p3401
aVit
p3402
ag56
aVand
p3403
aVbe
p3404
aVcure
p3405
ag71
asg72
(lp3406
g74
ag74
ag74
ag74
ag74
ag74
ag74
ag74
ag74
ag74
ag74
ag74
ag74
ag74
ag74
ag74
ag74
ag74
ag74
ag74
ag74
ag74
ag74
ag74
ag74
ag74
ag74
ag74
ag74
ag74
ag74
asg75
(lp3407
g79
ag178
ag83
ag631
ag86
ag78
ag81
ag83
ag80
ag353
ag78
ag90
ag81
ag179
ag80
ag81
ag417
ag85
ag81
ag85
ag86
ag87
ag88
ag89
ag85
ag86
ag83
ag84
ag88
ag139
ag91
asg92
VNow therefore, when they arrived home, the youngest took his cup to the sick king in order that he might drink out of it, and be cured.
p3408
sba(i__main__
Sentence
p3409
(dp3410
g17
I61
sg18
(lp3411
S'But'
p3412
aS'scarcely'
p3413
aS'had'
p3414
aS'he'
p3415
aS'drunk'
p3416
aS'a'
p3417
aS'very'
p3418
aS'little'
p3419
aS'of'
p3420
aS'the'
p3421
aS'salt'
p3422
aS'sea-water'
p3423
aS'than'
p3424
aS'he'
p3425
aS'became'
p3426
aS'still'
p3427
aS'worse'
p3428
aS'than'
p3429
aS'before'
p3430
aS'.'
p3431
asg45
(lp3432
VBut
p3433
aVscarcely
p3434
ag53
aVhe
p3435
aVdrink
p3436
ag50
aVvery
p3437
aVlittle
p3438
aVof
p3439
aVthe
p3440
aVsalt
p3441
aVsea-water
p3442
aVthan
p3443
aVhe
p3444
ag790
aVstill
p3445
aVbad
p3446
aVthan
p3447
aVbefore
p3448
ag71
asg72
(lp3449
g74
ag74
ag74
ag74
ag74
ag74
ag74
ag74
ag74
ag74
ag74
ag74
ag74
ag74
ag74
ag74
ag74
ag74
ag74
ag74
asg75
(lp3450
g84
ag79
ag78
ag86
ag78
ag80
ag79
ag140
ag85
ag80
ag81
ag81
ag85
ag86
ag78
ag79
ag279
ag85
ag85
ag91
asg92
VBut scarcely had he drunk a very little of the salt sea-water than he became still worse than before.
p3451
sba(i__main__
Sentence
p3452
(dp3453
g17
I62
sg18
(lp3454
S'And'
p3455
aS'as'
p3456
aS'he'
p3457
aS'was'
p3458
aS'lamenting'
p3459
aS'over'
p3460
aS'this'
p3461
aS','
p3462
aS'the'
p3463
aS'two'
p3464
aS'eldest'
p3465
aS'brothers'
p3466
aS'came'
p3467
aS','
p3468
aS'and'
p3469
aS'accused'
p3470
aS'the'
p3471
aS'youngest'
p3472
aS'of'
p3473
aS'having'
p3474
aS'intended'
p3475
aS'to'
p3476
aS'poison'
p3477
aS'him'
p3478
aS','
p3479
aS'and'
p3480
aS'said'
p3481
aS'that'
p3482
aS'they'
p3483
aS'had'
p3484
aS'brought'
p3485
aS'him'
p3486
aS'the'
p3487
aS'true'
p3488
aS'water'
p3489
aS'of'
p3490
aS'life'
p3491
aS','
p3492
aS'and'
p3493
aS'handed'
p3494
aS'it'
p3495
aS'to'
p3496
aS'him'
p3497
aS'.'
p3498
asg45
(lp3499
VAnd
p3500
ag50
aVhe
p3501
ag48
aVlament
p3502
aVover
p3503
aVthis
p3504
ag56
aVthe
p3505
aVtwo
p3506
aVeldest
p3507
aVbrother
p3508
ag883
ag56
aVand
p3509
aVaccuse
p3510
aVthe
p3511
ag1256
aVof
p3512
aVhave
p3513
aVintend
p3514
aVto
p3515
aVpoison
p3516
aVhim
p3517
ag56
aVand
p3518
ag261
aVthat
p3519
aVthey
p3520
ag53
ag2793
aVhim
p3521
aVthe
p3522
aVtrue
p3523
aVwater
p3524
aVof
p3525
aVlife
p3526
ag56
aVand
p3527
aVhand
p3528
aVit
p3529
aVto
p3530
aVhim
p3531
ag71
asg72
(lp3532
g74
ag74
ag74
ag74
ag74
ag74
ag74
ag74
ag74
ag74
ag74
ag74
ag74
ag74
ag74
ag74
ag74
ag74
ag74
ag74
ag74
ag74
ag74
ag74
ag74
ag74
ag74
ag74
ag74
ag74
ag74
ag74
ag74
ag74
ag74
ag74
ag74
ag74
ag74
ag74
ag74
ag74
ag74
ag74
asg75
(lp3533
g84
ag85
ag86
ag78
ag417
ag85
ag80
ag83
ag80
ag137
ag353
ag138
ag78
ag83
ag84
ag78
ag80
ag353
ag85
ag417
ag139
ag179
ag81
ag86
ag83
ag84
ag78
ag85
ag86
ag78
ag139
ag86
ag80
ag140
ag81
ag85
ag81
ag83
ag84
ag78
ag86
ag179
ag86
ag91
asg92
VAnd as he was lamenting over this, the two eldest brothers came, and accused the youngest of having intended to poison him, and said that they had brought him the true water of life, and handed it to him.
p3534
sba(i__main__
Sentence
p3535
(dp3536
g17
I63
sg18
(lp3537
S'He'
p3538
aS'had'
p3539
aS'scarcely'
p3540
aS'tasted'
p3541
aS'it'
p3542
aS','
p3543
aS'when'
p3544
aS'he'
p3545
aS'felt'
p3546
aS'his'
p3547
aS'sickness'
p3548
aS'departing'
p3549
aS','
p3550
aS'and'
p3551
aS'became'
p3552
aS'strong'
p3553
aS'and'
p3554
aS'healthy'
p3555
aS'as'
p3556
aS'in'
p3557
aS'the'
p3558
aS'days'
p3559
aS'of'
p3560
aS'his'
p3561
aS'youth'
p3562
aS'.'
p3563
asg45
(lp3564
VHe
p3565
ag53
aVscarcely
p3566
aVtaste
p3567
aVit
p3568
ag56
aVwhen
p3569
aVhe
p3570
aVfelt
p3571
aVhis
p3572
aVsickness
p3573
aVdepart
p3574
ag56
aVand
p3575
ag790
aVstrong
p3576
aVand
p3577
aVhealthy
p3578
ag50
aVin
p3579
aVthe
p3580
aVday
p3581
aVof
p3582
aVhis
p3583
aVyouth
p3584
ag71
asg72
(lp3585
g74
ag74
ag74
ag74
ag74
ag74
ag74
ag74
ag74
ag74
ag74
ag74
ag74
ag74
ag74
ag74
ag74
ag74
ag74
ag74
ag74
ag74
ag74
ag74
ag74
ag74
asg75
(lp3586
g86
ag78
ag79
ag139
ag86
ag83
ag631
ag86
ag78
ag90
ag81
ag417
ag83
ag84
ag78
ag140
ag84
ag140
ag85
ag85
ag80
ag138
ag85
ag90
ag81
ag91
asg92
VHe had scarcely tasted it, when he felt his sickness departing, and became strong and healthy as in the days of his youth.
p3587
sba(i__main__
Sentence
p3588
(dp3589
g17
I64
sg18
(lp3590
S'After'
p3591
aS'that'
p3592
aS'they'
p3593
aS'both'
p3594
aS'went'
p3595
aS'to'
p3596
aS'the'
p3597
aS'youngest'
p3598
aS','
p3599
aS'mocked'
p3600
aS'him'
p3601
aS','
p3602
aS'and'
p3603
aS'said'
p3604
aS','
p3605
aS'``'
p3606
aS'You'
p3607
aS'certainly'
p3608
aS'found'
p3609
aS'the'
p3610
aS'water'
p3611
aS'of'
p3612
aS'life'
p3613
aS','
p3614
aS'but'
p3615
aS'you'
p3616
aS'have'
p3617
aS'had'
p3618
aS'the'
p3619
aS'pain'
p3620
aS','
p3621
aS'and'
p3622
aS'we'
p3623
aS'the'
p3624
aS'gain'
p3625
aS','
p3626
aS'you'
p3627
aS'should'
p3628
aS'have'
p3629
aS'been'
p3630
aS'cleverer'
p3631
aS','
p3632
aS'and'
p3633
aS'should'
p3634
aS'have'
p3635
aS'kept'
p3636
aS'your'
p3637
aS'eyes'
p3638
aS'open'
p3639
aS'.'
p3640
asg45
(lp3641
VAfter
p3642
aVthat
p3643
aVthey
p3644
aVboth
p3645
aVwent
p3646
aVto
p3647
aVthe
p3648
ag1256
ag56
aVmock
p3649
aVhim
p3650
ag56
aVand
p3651
ag261
ag56
aV``
p3652
aVYou
p3653
aVcertainly
p3654
ag1398
aVthe
p3655
aVwater
p3656
aVof
p3657
aVlife
p3658
ag56
aVbut
p3659
aVyou
p3660
aVhave
p3661
ag53
aVthe
p3662
aVpain
p3663
ag56
aVand
p3664
aVwe
p3665
aVthe
p3666
aVgain
p3667
ag56
aVyou
p3668
aVshould
p3669
aVhave
p3670
aVbe
p3671
aVclever
p3672
ag56
aVand
p3673
aVshould
p3674
aVhave
p3675
aVkeep
p3676
aVyour
p3677
aVeye
p3678
aVopen
p3679
ag71
asg72
(lp3680
g74
ag74
ag74
ag74
ag74
ag74
ag74
ag74
ag74
ag74
ag74
ag74
ag74
ag74
ag74
ag74
ag74
ag74
ag74
ag74
ag74
ag74
ag74
ag74
ag74
ag74
ag74
ag74
ag74
ag74
ag74
ag74
ag74
ag74
ag74
ag74
ag74
ag74
ag74
ag74
ag74
ag74
ag74
ag74
ag74
ag74
ag74
ag74
ag74
ag74
asg75
(lp3681
g85
ag80
ag86
ag178
ag140
ag179
ag80
ag353
ag83
ag78
ag86
ag83
ag84
ag78
ag83
ag278
ag86
ag79
ag78
ag80
ag81
ag85
ag81
ag83
ag84
ag86
ag178
ag139
ag80
ag81
ag83
ag84
ag86
ag80
ag81
ag83
ag86
ag87
ag88
ag139
ag279
ag83
ag84
ag87
ag88
ag139
ag90
ag138
ag140
ag91
asg92
VAfter that they both went to the youngest, mocked him, and said, "You certainly found the water of life, but you have had the pain, and we the gain, you should have been cleverer, and should have kept your eyes open.
p3682
sba(i__main__
Sentence
p3683
(dp3684
g17
I65
sg18
(lp3685
S'We'
p3686
aS'took'
p3687
aS'it'
p3688
aS'from'
p3689
aS'you'
p3690
aS'whilst'
p3691
aS'you'
p3692
aS'were'
p3693
aS'asleep'
p3694
aS'at'
p3695
aS'sea'
p3696
aS','
p3697
aS'and'
p3698
aS'when'
p3699
aS'a'
p3700
aS'year'
p3701
aS'is'
p3702
aS'over'
p3703
aS','
p3704
aS'one'
p3705
aS'of'
p3706
aS'us'
p3707
aS'will'
p3708
aS'go'
p3709
aS'and'
p3710
aS'fetch'
p3711
aS'the'
p3712
aS'beautiful'
p3713
aS'princess'
p3714
aS'.'
p3715
asg45
(lp3716
VWe
p3717
ag1758
aVit
p3718
aVfrom
p3719
aVyou
p3720
aVwhilst
p3721
aVyou
p3722
ag122
aVasleep
p3723
aVat
p3724
aVsea
p3725
ag56
aVand
p3726
aVwhen
p3727
ag50
aVyear
p3728
ag271
aVover
p3729
ag56
aVone
p3730
aVof
p3731
ag3222
aVwill
p3732
aVgo
p3733
aVand
p3734
aVfetch
p3735
aVthe
p3736
aVbeautiful
p3737
aVprincess
p3738
ag71
asg72
(lp3739
g74
ag74
ag74
ag74
ag74
ag74
ag74
ag74
ag74
ag74
ag74
ag74
ag74
ag74
ag74
ag74
ag74
ag74
ag74
ag74
ag74
ag74
ag74
ag74
ag74
ag74
ag74
ag74
ag74
ag74
asg75
(lp3740
g86
ag78
ag86
ag85
ag86
ag178
ag86
ag78
ag88
ag85
ag81
ag83
ag84
ag631
ag80
ag81
ag280
ag85
ag83
ag137
ag85
ag86
ag87
ag88
ag84
ag88
ag80
ag140
ag81
ag91
asg92
VWe took it from you whilst you were asleep at sea, and when a year is over, one of us will go and fetch the beautiful princess.
p3741
sba(i__main__
Sentence
p3742
(dp3743
g17
I66
sg18
(lp3744
S'But'
p3745
aS'beware'
p3746
aS'that'
p3747
aS'you'
p3748
aS'do'
p3749
aS'not'
p3750
aS'disclose'
p3751
aS'aught'
p3752
aS'of'
p3753
aS'this'
p3754
aS'to'
p3755
aS'our'
p3756
aS'father'
p3757
aS','
p3758
aS'indeed'
p3759
aS'he'
p3760
aS'does'
p3761
aS'not'
p3762
aS'trust'
p3763
aS'you'
p3764
aS','
p3765
aS'and'
p3766
aS'if'
p3767
aS'you'
p3768
aS'say'
p3769
aS'a'
p3770
aS'single'
p3771
aS'word'
p3772
aS','
p3773
aS'you'
p3774
aS'shall'
p3775
aS'lose'
p3776
aS'your'
p3777
aS'life'
p3778
aS'into'
p3779
aS'the'
p3780
aS'bargain'
p3781
aS','
p3782
aS'but'
p3783
aS'if'
p3784
aS'you'
p3785
aS'keep'
p3786
aS'silent'
p3787
aS','
p3788
aS'you'
p3789
aS'shall'
p3790
aS'have'
p3791
aS'it'
p3792
aS'as'
p3793
aS'a'
p3794
aS'gift'
p3795
aS'.'
p3796
aS"''"
p3797
asg45
(lp3798
VBut
p3799
aVbeware
p3800
aVthat
p3801
aVyou
p3802
aVdo
p3803
aVnot
p3804
aVdisclose
p3805
aVaught
p3806
aVof
p3807
aVthis
p3808
aVto
p3809
aVour
p3810
aVfather
p3811
ag56
aVindeed
p3812
aVhe
p3813
aVdo
p3814
aVnot
p3815
aVtrust
p3816
aVyou
p3817
ag56
aVand
p3818
aVif
p3819
aVyou
p3820
aVsay
p3821
ag50
aVsingle
p3822
aVword
p3823
ag56
aVyou
p3824
aVshall
p3825
aVlose
p3826
aVyour
p3827
aVlife
p3828
aVinto
p3829
aVthe
p3830
aVbargain
p3831
ag56
aVbut
p3832
aVif
p3833
aVyou
p3834
aVkeep
p3835
aVsilent
p3836
ag56
aVyou
p3837
aVshall
p3838
aVhave
p3839
aVit
p3840
ag50
ag50
aVgift
p3841
ag71
aV''
p3842
asg72
(lp3843
g74
ag74
ag74
ag74
ag74
ag74
ag74
ag74
ag74
ag74
ag74
ag74
ag74
ag74
ag74
ag74
ag74
ag74
ag74
ag74
ag74
ag74
ag74
ag74
ag74
ag74
ag74
ag74
ag74
ag74
ag74
ag74
ag74
ag74
ag74
ag74
ag74
ag74
ag74
ag74
ag74
ag74
ag74
ag74
ag74
ag74
ag74
ag74
ag74
ag74
ag74
ag74
ag74
asg75
(lp3844
g84
ag178
ag85
ag86
ag178
ag79
ag88
ag140
ag85
ag80
ag179
ag90
ag81
ag83
ag79
ag86
ag280
ag79
ag88
ag86
ag83
ag84
ag85
ag86
ag178
ag80
ag140
ag81
ag83
ag86
ag87
ag88
ag90
ag81
ag85
ag80
ag81
ag83
ag84
ag85
ag86
ag178
ag140
ag83
ag86
ag87
ag88
ag86
ag85
ag80
ag81
ag91
ag323
asg92
VBut beware that you do not disclose aught of this to our father, indeed he does not trust you, and if you say a single word, you shall lose your life into the bargain, but if you keep silent, you shall have it as a gift."
p3845
sba(i__main__
Sentence
p3846
(dp3847
g17
I67
sg18
(lp3848
S'The'
p3849
aS'old'
p3850
aS'king'
p3851
aS'was'
p3852
aS'angry'
p3853
aS'with'
p3854
aS'his'
p3855
aS'youngest'
p3856
aS'son'
p3857
aS','
p3858
aS'and'
p3859
aS'thought'
p3860
aS'he'
p3861
aS'had'
p3862
aS'plotted'
p3863
aS'against'
p3864
aS'his'
p3865
aS'life'
p3866
aS'.'
p3867
asg45
(lp3868
VThe
p3869
aVold
p3870
aVking
p3871
ag48
aVangry
p3872
aVwith
p3873
aVhis
p3874
aVyoungest
p3875
aVson
p3876
ag56
aVand
p3877
ag534
aVhe
p3878
ag53
ag3263
aVagainst
p3879
aVhis
p3880
aVlife
p3881
ag71
asg72
(lp3882
g74
ag74
ag74
ag74
ag74
ag74
ag74
ag74
ag74
ag74
ag74
ag74
ag74
ag74
ag74
ag74
ag74
ag74
ag74
asg75
(lp3883
g80
ag140
ag81
ag78
ag140
ag85
ag90
ag81
ag81
ag83
ag84
ag78
ag86
ag78
ag139
ag85
ag90
ag81
ag91
asg92
VThe old king was angry with his youngest son, and thought he had plotted against his life.
p3884
sba(i__main__
Sentence
p3885
(dp3886
g17
I68
sg18
(lp3887
S'So'
p3888
aS'he'
p3889
aS'summoned'
p3890
aS'the'
p3891
aS'court'
p3892
aS'together'
p3893
aS'and'
p3894
aS'had'
p3895
aS'sentence'
p3896
aS'pronounced'
p3897
aS'upon'
p3898
aS'his'
p3899
aS'son'
p3900
aS','
p3901
aS'that'
p3902
aS'he'
p3903
aS'should'
p3904
aS'be'
p3905
aS'secretly'
p3906
aS'shot'
p3907
aS'.'
p3908
asg45
(lp3909
VSo
p3910
aVhe
p3911
aVsummon
p3912
aVthe
p3913
aVcourt
p3914
aVtogether
p3915
aVand
p3916
ag53
aVsentence
p3917
aVpronounce
p3918
aVupon
p3919
aVhis
p3920
aVson
p3921
ag56
aVthat
p3922
aVhe
p3923
aVshould
p3924
aVbe
p3925
aVsecretly
p3926
aVshot
p3927
ag71
asg72
(lp3928
g74
ag74
ag74
ag74
ag74
ag74
ag74
ag74
ag74
ag74
ag74
ag74
ag74
ag74
ag74
ag74
ag74
ag74
ag74
ag74
ag74
asg75
(lp3929
g85
ag86
ag78
ag80
ag81
ag79
ag84
ag78
ag81
ag139
ag85
ag90
ag81
ag83
ag85
ag86
ag87
ag88
ag79
ag140
ag91
asg92
VSo he summoned the court together and had sentence pronounced upon his son, that he should be secretly shot.
p3930
sba(i__main__
Sentence
p3931
(dp3932
g17
I69
sg18
(lp3933
S'And'
p3934
aS'once'
p3935
aS'when'
p3936
aS'the'
p3937
aS'prince'
p3938
aS'was'
p3939
aS'riding'
p3940
aS'forth'
p3941
aS'to'
p3942
aS'the'
p3943
aS'chase'
p3944
aS','
p3945
aS'suspecting'
p3946
aS'no'
p3947
aS'evil'
p3948
aS','
p3949
aS'the'
p3950
aS'king'
p3951
aS"'s"
p3952
aS'huntsman'
p3953
aS'was'
p3954
aS'told'
p3955
aS'to'
p3956
aS'go'
p3957
aS'with'
p3958
aS'him'
p3959
aS','
p3960
aS'and'
p3961
aS'when'
p3962
aS'they'
p3963
aS'were'
p3964
aS'quite'
p3965
aS'alone'
p3966
aS'in'
p3967
aS'the'
p3968
aS'forest'
p3969
aS','
p3970
aS'the'
p3971
aS'huntsman'
p3972
aS'looked'
p3973
aS'so'
p3974
aS'sorrowful'
p3975
aS'that'
p3976
aS'the'
p3977
aS'prince'
p3978
aS'said'
p3979
aS'to'
p3980
aS'him'
p3981
aS','
p3982
aS'``'
p3983
aS'Dear'
p3984
aS'huntsman'
p3985
aS','
p3986
aS'what'
p3987
aS'ails'
p3988
aS'you'
p3989
aS'?'
p3990
aS"''"
p3991
asg45
(lp3992
VAnd
p3993
aVonce
p3994
aVwhen
p3995
aVthe
p3996
aVprince
p3997
ag48
aVrid
p3998
aVforth
p3999
aVto
p4000
aVthe
p4001
aVchase
p4002
ag56
aVsuspect
p4003
aVno
p4004
aVevil
p4005
ag56
aVthe
p4006
aVking
p4007
aV's
p4008
aVhuntsman
p4009
ag48
ag209
aVto
p4010
aVgo
p4011
aVwith
p4012
aVhim
p4013
ag56
aVand
p4014
aVwhen
p4015
aVthey
p4016
ag122
aVquite
p4017
aValone
p4018
aVin
p4019
aVthe
p4020
aVforest
p4021
ag56
aVthe
p4022
aVhuntsman
p4023
aVlook
p4024
aVso
p4025
aVsorrowful
p4026
aVthat
p4027
aVthe
p4028
aVprince
p4029
ag261
aVto
p4030
aVhim
p4031
ag56
aV``
p4032
aVDear
p4033
aVhuntsman
p4034
ag56
aVwhat
p4035
aVail
p4036
aVyou
p4037
ag627
aV''
p4038
asg72
(lp4039
g74
ag74
ag74
ag74
ag74
ag74
ag74
ag74
ag74
ag74
ag74
ag74
ag74
ag74
ag74
ag74
ag74
ag74
ag74
ag74
ag74
ag74
ag74
ag74
ag74
ag74
ag74
ag74
ag74
ag74
ag74
ag74
ag74
ag74
ag74
ag74
ag74
ag74
ag74
ag74
ag74
ag74
ag74
ag74
ag74
ag74
ag74
ag74
ag74
ag74
ag74
ag74
ag74
ag74
ag74
ag74
ag74
ag74
asg75
(lp4040
g84
ag79
ag631
ag80
ag81
ag78
ag417
ag140
ag179
ag80
ag81
ag83
ag417
ag80
ag81
ag83
ag80
ag81
aS'POS'
p4041
ag81
ag78
ag139
ag179
ag88
ag85
ag86
ag83
ag84
ag631
ag86
ag78
ag79
ag79
ag85
ag80
ag81
ag83
ag80
ag81
ag78
ag79
ag140
ag85
ag80
ag81
ag78
ag179
ag86
ag83
ag278
ag632
ag81
ag83
ag82
ag138
ag86
ag91
ag323
asg92
VAnd once when the prince was riding forth to the chase, suspecting no evil, the king's huntsman was told to go with him, and when they were quite alone in the forest, the huntsman looked so sorrowful that the prince said to him, "Dear huntsman, what ails you?"
p4042
sba(i__main__
Sentence
p4043
(dp4044
g17
I70
sg18
(lp4045
S'The'
p4046
aS'huntsman'
p4047
aS'said'
p4048
aS','
p4049
aS'``'
p4050
aS'I'
p4051
aS'can'
p4052
aS'not'
p4053
aS'tell'
p4054
aS'you'
p4055
aS','
p4056
aS'and'
p4057
aS'yet'
p4058
aS'I'
p4059
aS'ought'
p4060
aS'.'
p4061
aS"''"
p4062
asg45
(lp4063
VThe
p4064
aVhuntsman
p4065
ag261
ag56
aV``
p4066
ag263
aVcan
p4067
aVnot
p4068
aVtell
p4069
aVyou
p4070
ag56
aVand
p4071
aVyet
p4072
ag263
aVought
p4073
ag71
aV''
p4074
asg72
(lp4075
g74
ag74
ag74
ag74
ag74
ag74
ag74
ag74
ag74
ag74
ag74
ag74
ag74
ag74
ag74
ag74
ag74
asg75
(lp4076
g80
ag81
ag78
ag83
ag278
ag86
ag87
ag79
ag88
ag86
ag83
ag84
ag79
ag86
ag87
ag91
ag323
asg92
VThe huntsman said, "I cannot tell you, and yet I ought."
p4077
sba(i__main__
Sentence
p4078
(dp4079
g17
I71
sg18
(lp4080
S'Then'
p4081
aS'the'
p4082
aS'prince'
p4083
aS'said'
p4084
aS','
p4085
aS'``'
p4086
aS'Say'
p4087
aS'openly'
p4088
aS'what'
p4089
aS'it'
p4090
aS'is'
p4091
aS','
p4092
aS'I'
p4093
aS'will'
p4094
aS'pardon'
p4095
aS'you'
p4096
aS'.'
p4097
aS"''"
p4098
asg45
(lp4099
VThen
p4100
aVthe
p4101
aVprince
p4102
ag261
ag56
aV``
p4103
aVSay
p4104
aVopenly
p4105
aVwhat
p4106
aVit
p4107
ag271
ag56
ag263
aVwill
p4108
aVpardon
p4109
aVyou
p4110
ag71
aV''
p4111
asg72
(lp4112
g74
ag74
ag74
ag74
ag74
ag74
ag74
ag74
ag74
ag74
ag74
ag74
ag74
ag74
ag74
ag74
ag74
ag74
asg75
(lp4113
g79
ag80
ag81
ag78
ag83
ag278
ag632
ag79
ag82
ag86
ag280
ag83
ag86
ag87
ag88
ag86
ag91
ag323
asg92
VThen the prince said, "Say openly what it is, I will pardon you."
p4114
sba(i__main__
Sentence
p4115
(dp4116
g17
I72
sg18
(lp4117
S'``'
p4118
aS'Alas'
p4119
aS','
p4120
aS"''"
p4121
aS'said'
p4122
aS'the'
p4123
aS'huntsman'
p4124
aS','
p4125
aS'``'
p4126
aS'I'
p4127
aS'am'
p4128
aS'to'
p4129
aS'shoot'
p4130
aS'you'
p4131
aS'dead'
p4132
aS','
p4133
aS'the'
p4134
aS'king'
p4135
aS'has'
p4136
aS'ordered'
p4137
aS'me'
p4138
aS'to'
p4139
aS'do'
p4140
aS'it'
p4141
aS'.'
p4142
aS"''"
p4143
asg45
(lp4144
V``
p4145
aVAlas
p4146
ag56
aV''
p4147
ag261
aVthe
p4148
aVhuntsman
p4149
ag56
aV``
p4150
ag263
ag1354
aVto
p4151
aVshoot
p4152
aVyou
p4153
aVdead
p4154
ag56
aVthe
p4155
aVking
p4156
ag3199
aVorder
p4157
aVme
p4158
aVto
p4159
aVdo
p4160
aVit
p4161
ag71
aV''
p4162
asg72
(lp4163
g74
ag74
ag74
ag74
ag74
ag74
ag74
ag74
ag74
ag74
ag74
ag74
ag74
ag74
ag74
ag74
ag74
ag74
ag74
ag74
ag74
ag74
ag74
ag74
ag74
ag74
asg75
(lp4164
g278
ag632
ag83
ag323
ag78
ag80
ag81
ag83
ag278
ag86
ag178
ag179
ag88
ag86
ag88
ag83
ag80
ag81
ag280
ag139
ag86
ag179
ag88
ag86
ag91
ag323
asg92
V"Alas," said the huntsman, "I am to shoot you dead, the king has ordered me to do it."
p4165
sba(i__main__
Sentence
p4166
(dp4167
g17
I73
sg18
(lp4168
S'Then'
p4169
aS'the'
p4170
aS'prince'
p4171
aS'was'
p4172
aS'shocked'
p4173
aS','
p4174
aS'and'
p4175
aS'said'
p4176
aS','
p4177
aS'``'
p4178
aS'Dear'
p4179
aS'huntsman'
p4180
aS','
p4181
aS'let'
p4182
aS'me'
p4183
aS'live'
p4184
aS','
p4185
aS'there'
p4186
aS','
p4187
aS'I'
p4188
aS'give'
p4189
aS'you'
p4190
aS'my'
p4191
aS'royal'
p4192
aS'garments'
p4193
aS','
p4194
aS'give'
p4195
aS'me'
p4196
aS'your'
p4197
aS'common'
p4198
aS'ones'
p4199
aS'in'
p4200
aS'their'
p4201
aS'stead'
p4202
aS'.'
p4203
aS"''"
p4204
asg45
(lp4205
VThen
p4206
aVthe
p4207
aVprince
p4208
ag48
aVshock
p4209
ag56
aVand
p4210
ag261
ag56
aV``
p4211
aVDear
p4212
aVhuntsman
p4213
ag56
aVlet
p4214
aVme
p4215
aVlive
p4216
ag56
aVthere
p4217
ag56
ag263
aVgive
p4218
aVyou
p4219
aVmy
p4220
aVroyal
p4221
aVgarment
p4222
ag56
aVgive
p4223
aVme
p4224
aVyour
p4225
aVcommon
p4226
aVone
p4227
aVin
p4228
aVtheir
p4229
aVstead
p4230
ag71
aV''
p4231
asg72
(lp4232
g74
ag74
ag74
ag74
ag74
ag74
ag74
ag74
ag74
ag74
ag74
ag74
ag74
ag74
ag74
ag74
ag74
ag74
ag74
ag74
ag74
ag74
ag74
ag74
ag74
ag74
ag74
ag74
ag74
ag74
ag74
ag74
ag74
ag74
ag74
ag74
asg75
(lp4233
g79
ag80
ag81
ag78
ag139
ag83
ag84
ag78
ag83
ag278
ag632
ag81
ag83
ag88
ag86
ag88
ag83
ag77
ag83
ag86
ag178
ag86
ag90
ag81
ag138
ag83
ag178
ag86
ag90
ag140
ag138
ag85
ag90
ag81
ag91
ag323
asg92
VThen the prince was shocked, and said, "Dear huntsman, let me live, there, I give you my royal garments, give me your common ones in their stead."
p4234
sba(i__main__
Sentence
p4235
(dp4236
g17
I74
sg18
(lp4237
S'The'
p4238
aS'huntsman'
p4239
aS'said'
p4240
aS','
p4241
aS'``'
p4242
aS'I'
p4243
aS'will'
p4244
aS'willingly'
p4245
aS'do'
p4246
aS'that'
p4247
aS','
p4248
aS'indeed'
p4249
aS'I'
p4250
aS'would'
p4251
aS'not'
p4252
aS'have'
p4253
aS'been'
p4254
aS'able'
p4255
aS'to'
p4256
aS'shoot'
p4257
aS'you'
p4258
aS'.'
p4259
aS"''"
p4260
asg45
(lp4261
VThe
p4262
aVhuntsman
p4263
ag261
ag56
aV``
p4264
ag263
aVwill
p4265
aVwillingly
p4266
aVdo
p4267
aVthat
p4268
ag56
aVindeed
p4269
ag263
aVwould
p4270
aVnot
p4271
aVhave
p4272
ag3671
aVable
p4273
aVto
p4274
aVshoot
p4275
aVyou
p4276
ag71
aV''
p4277
asg72
(lp4278
g74
ag74
ag74
ag74
ag74
ag74
ag74
ag74
ag74
ag74
ag74
ag74
ag74
ag74
ag74
ag74
ag74
ag74
ag74
ag74
ag74
ag74
ag74
asg75
(lp4279
g80
ag81
ag78
ag83
ag278
ag86
ag87
ag79
ag88
ag80
ag83
ag79
ag86
ag87
ag79
ag88
ag139
ag140
ag179
ag88
ag86
ag91
ag323
asg92
VThe huntsman said, "I will willingly do that, indeed I would not have been able to shoot you."
p4280
sba(i__main__
Sentence
p4281
(dp4282
g17
I75
sg18
(lp4283
S'Then'
p4284
aS'they'
p4285
aS'exchanged'
p4286
aS'clothes'
p4287
aS','
p4288
aS'and'
p4289
aS'the'
p4290
aS'huntsman'
p4291
aS'returned'
p4292
aS'home'
p4293
aS','
p4294
aS'while'
p4295
aS'the'
p4296
aS'prince'
p4297
aS'went'
p4298
aS'further'
p4299
aS'into'
p4300
aS'the'
p4301
aS'forest'
p4302
aS'.'
p4303
asg45
(lp4304
VThen
p4305
aVthey
p4306
aVexchange
p4307
aVclothes
p4308
ag56
aVand
p4309
aVthe
p4310
aVhuntsman
p4311
aVreturn
p4312
aVhome
p4313
ag56
aVwhile
p4314
aVthe
p4315
aVprince
p4316
ag128
ag799
aVinto
p4317
aVthe
p4318
aVforest
p4319
ag71
asg72
(lp4320
g74
ag74
ag74
ag74
ag74
ag74
ag74
ag74
ag74
ag74
ag74
ag74
ag74
ag74
ag74
ag74
ag74
ag74
ag74
ag74
asg75
(lp4321
g79
ag86
ag78
ag138
ag83
ag84
ag80
ag81
ag78
ag81
ag83
ag85
ag80
ag81
ag78
ag79
ag85
ag80
ag353
ag91
asg92
VThen they exchanged clothes, and the huntsman returned home, while the prince went further into the forest.
p4322
sba(i__main__
Sentence
p4323
(dp4324
g17
I76
sg18
(lp4325
S'After'
p4326
aS'a'
p4327
aS'time'
p4328
aS'three'
p4329
aS'waggons'
p4330
aS'of'
p4331
aS'gold'
p4332
aS'and'
p4333
aS'precious'
p4334
aS'stones'
p4335
aS'came'
p4336
aS'to'
p4337
aS'the'
p4338
aS'king'
p4339
aS'for'
p4340
aS'his'
p4341
aS'youngest'
p4342
aS'son'
p4343
aS','
p4344
aS'which'
p4345
aS'were'
p4346
aS'sent'
p4347
aS'by'
p4348
aS'the'
p4349
aS'three'
p4350
aS'kings'
p4351
aS'who'
p4352
aS'had'
p4353
aS'slain'
p4354
aS'their'
p4355
aS'enemies'
p4356
aS'with'
p4357
aS'the'
p4358
aS'prince'
p4359
aS"'s"
p4360
aS'sword'
p4361
aS','
p4362
aS'and'
p4363
aS'maintained'
p4364
aS'their'
p4365
aS'people'
p4366
aS'with'
p4367
aS'his'
p4368
aS'bread'
p4369
aS','
p4370
aS'and'
p4371
aS'who'
p4372
aS'wished'
p4373
aS'to'
p4374
aS'show'
p4375
aS'their'
p4376
aS'gratitude'
p4377
aS'for'
p4378
aS'it'
p4379
aS'.'
p4380
asg45
(lp4381
VAfter
p4382
ag50
aVtime
p4383
aVthree
p4384
aVwaggon
p4385
aVof
p4386
aVgold
p4387
aVand
p4388
aVprecious
p4389
aVstone
p4390
ag883
aVto
p4391
aVthe
p4392
aVking
p4393
aVfor
p4394
aVhis
p4395
ag1256
aVson
p4396
ag56
aVwhich
p4397
ag122
aVsend
p4398
aVby
p4399
aVthe
p4400
aVthree
p4401
aVking
p4402
aVwho
p4403
ag53
aVslay
p4404
aVtheir
p4405
aVenemy
p4406
aVwith
p4407
aVthe
p4408
aVprince
p4409
aV's
p4410
aVsword
p4411
ag56
aVand
p4412
aVmaintain
p4413
aVtheir
p4414
aVpeople
p4415
aVwith
p4416
aVhis
p4417
aVbread
p4418
ag56
aVand
p4419
aVwho
p4420
aVwish
p4421
aVto
p4422
aVshow
p4423
aVtheir
p4424
aVgratitude
p4425
aVfor
p4426
aVit
p4427
ag71
asg72
(lp4428
g74
ag74
ag74
ag74
ag74
ag74
ag74
ag74
ag74
ag74
ag74
ag74
ag74
ag74
ag74
ag74
ag74
ag74
ag74
ag74
ag74
ag74
ag74
ag74
ag74
ag74
ag74
ag74
ag74
ag74
ag74
ag74
ag74
ag74
ag74
ag74
ag74
ag74
ag74
ag74
ag74
ag74
ag74
ag74
ag74
ag74
ag74
ag74
ag74
ag74
ag74
ag74
ag74
ag74
ag74
asg75
(lp4429
g85
ag80
ag81
ag137
ag138
ag85
ag81
ag84
ag140
ag138
ag78
ag179
ag80
ag81
ag85
ag90
ag353
ag81
ag83
ag1931
ag78
ag139
ag85
ag80
ag137
ag138
ag82
ag78
ag139
ag90
ag138
ag85
ag80
ag81
ag4041
ag81
ag83
ag84
ag78
ag90
ag138
ag85
ag90
ag81
ag83
ag84
ag82
ag78
ag179
ag88
ag90
ag81
ag85
ag86
ag91
asg92
VAfter a time three waggons of gold and precious stones came to the king for his youngest son, which were sent by the three kings who had slain their enemies with the prince's sword, and maintained their people with his bread, and who wished to show their gratitude for it.
p4430
sba(i__main__
Sentence
p4431
(dp4432
g17
I77
sg18
(lp4433
S'The'
p4434
aS'old'
p4435
aS'king'
p4436
aS'then'
p4437
aS'thought'
p4438
aS','
p4439
aS'``'
p4440
aS'Can'
p4441
aS'my'
p4442
aS'son'
p4443
aS'have'
p4444
aS'been'
p4445
aS'innocent'
p4446
aS'?'
p4447
aS"''"
p4448
asg45
(lp4449
VThe
p4450
aVold
p4451
aVking
p4452
aVthen
p4453
ag534
ag56
aV``
p4454
aVCan
p4455
aVmy
p4456
aVson
p4457
aVhave
p4458
ag3671
aVinnocent
p4459
ag627
aV''
p4460
asg72
(lp4461
g74
ag74
ag74
ag74
ag74
ag74
ag74
ag74
ag74
ag74
ag74
ag74
ag74
ag74
ag74
asg75
(lp4462
g80
ag140
ag81
ag79
ag78
ag83
ag278
ag87
ag90
ag81
ag178
ag139
ag140
ag91
ag323
asg92
VThe old king then thought, "Can my son have been innocent?"
p4463
sba(i__main__
Sentence
p4464
(dp4465
g17
I78
sg18
(lp4466
S'And'
p4467
aS'said'
p4468
aS'to'
p4469
aS'his'
p4470
aS'people'
p4471
aS','
p4472
aS'``'
p4473
aS'Would'
p4474
aS'that'
p4475
aS'he'
p4476
aS'were'
p4477
aS'still'
p4478
aS'alive'
p4479
aS','
p4480
aS'how'
p4481
aS'it'
p4482
aS'grieves'
p4483
aS'me'
p4484
aS'that'
p4485
aS'I'
p4486
aS'have'
p4487
aS'suffered'
p4488
aS'him'
p4489
aS'to'
p4490
aS'be'
p4491
aS'killed'
p4492
aS'.'
p4493
aS"''"
p4494
asg45
(lp4495
VAnd
p4496
ag261
aVto
p4497
aVhis
p4498
aVpeople
p4499
ag56
aV``
p4500
aVWould
p4501
aVthat
p4502
aVhe
p4503
ag122
aVstill
p4504
aValive
p4505
ag56
aVhow
p4506
aVit
p4507
aVgrieve
p4508
aVme
p4509
aVthat
p4510
ag263
aVhave
p4511
aVsuffer
p4512
aVhim
p4513
aVto
p4514
aVbe
p4515
aVkill
p4516
ag71
aV''
p4517
asg72
(lp4518
g74
ag74
ag74
ag74
ag74
ag74
ag74
ag74
ag74
ag74
ag74
ag74
ag74
ag74
ag74
ag74
ag74
ag74
ag74
ag74
ag74
ag74
ag74
ag74
ag74
ag74
ag74
ag74
asg75
(lp4519
g84
ag78
ag179
ag90
ag138
ag83
ag278
ag87
ag80
ag86
ag78
ag79
ag140
ag83
ag631
ag86
ag280
ag86
ag85
ag86
ag178
ag139
ag86
ag179
ag88
ag139
ag91
ag323
asg92
VAnd said to his people, "Would that he were still alive, how it grieves me that I have suffered him to be killed."
p4520
sba(i__main__
Sentence
p4521
(dp4522
g17
I79
sg18
(lp4523
S'``'
p4524
aS'He'
p4525
aS'still'
p4526
aS'lives'
p4527
aS','
p4528
aS"''"
p4529
aS'said'
p4530
aS'the'
p4531
aS'huntsman'
p4532
aS','
p4533
aS'``'
p4534
aS'I'
p4535
aS'could'
p4536
aS'not'
p4537
aS'find'
p4538
aS'it'
p4539
aS'in'
p4540
aS'my'
p4541
aS'heart'
p4542
aS'to'
p4543
aS'carry'
p4544
aS'out'
p4545
aS'your'
p4546
aS'command'
p4547
aS'.'
p4548
aS"''"
p4549
asg45
(lp4550
V``
p4551
aVHe
p4552
aVstill
p4553
aVlive
p4554
ag56
aV''
p4555
ag261
aVthe
p4556
aVhuntsman
p4557
ag56
aV``
p4558
ag263
aVcould
p4559
aVnot
p4560
aVfind
p4561
aVit
p4562
aVin
p4563
aVmy
p4564
aVheart
p4565
aVto
p4566
aVcarry
p4567
aVout
p4568
aVyour
p4569
aVcommand
p4570
ag71
aV''
p4571
asg72
(lp4572
g74
ag74
ag74
ag74
ag74
ag74
ag74
ag74
ag74
ag74
ag74
ag74
ag74
ag74
ag74
ag74
ag74
ag74
ag74
ag74
ag74
ag74
ag74
ag74
ag74
ag74
asg75
(lp4573
g278
ag86
ag79
ag280
ag83
ag323
ag78
ag80
ag81
ag83
ag278
ag86
ag87
ag79
ag88
ag86
ag85
ag90
ag81
ag179
ag88
ag89
ag90
ag81
ag91
ag323
asg92
V"He still lives," said the huntsman, "I could not find it in my heart to carry out your command."
p4574
sba(i__main__
Sentence
p4575
(dp4576
g17
I80
sg18
(lp4577
S'And'
p4578
aS'told'
p4579
aS'the'
p4580
aS'king'
p4581
aS'how'
p4582
aS'it'
p4583
aS'had'
p4584
aS'happened'
p4585
aS'.'
p4586
asg45
(lp4587
VAnd
p4588
ag209
aVthe
p4589
aVking
p4590
aVhow
p4591
aVit
p4592
ag53
aVhappen
p4593
ag71
asg72
(lp4594
g74
ag74
ag74
ag74
ag74
ag74
ag74
ag74
ag74
asg75
(lp4595
g84
ag78
ag80
ag81
ag631
ag86
ag78
ag139
ag91
asg92
VAnd told the king how it had happened.
p4596
sba(i__main__
Sentence
p4597
(dp4598
g17
I81
sg18
(lp4599
S'Then'
p4600
aS'a'
p4601
aS'stone'
p4602
aS'fell'
p4603
aS'from'
p4604
aS'the'
p4605
aS'king'
p4606
aS"'s"
p4607
aS'heart'
p4608
aS','
p4609
aS'and'
p4610
aS'he'
p4611
aS'had'
p4612
aS'it'
p4613
aS'proclaimed'
p4614
aS'in'
p4615
aS'every'
p4616
aS'country'
p4617
aS'that'
p4618
aS'his'
p4619
aS'son'
p4620
aS'might'
p4621
aS'return'
p4622
aS'and'
p4623
aS'be'
p4624
aS'taken'
p4625
aS'into'
p4626
aS'favor'
p4627
aS'again'
p4628
aS'.'
p4629
asg45
(lp4630
VThen
p4631
ag50
aVstone
p4632
aVfell
p4633
aVfrom
p4634
aVthe
p4635
aVking
p4636
aV's
p4637
aVheart
p4638
ag56
aVand
p4639
aVhe
p4640
ag53
aVit
p4641
aVproclaim
p4642
aVin
p4643
aVevery
p4644
aVcountry
p4645
aVthat
p4646
aVhis
p4647
aVson
p4648
aVmight
p4649
aVreturn
p4650
aVand
p4651
aVbe
p4652
ag1058
aVinto
p4653
aVfavor
p4654
aVagain
p4655
ag71
asg72
(lp4656
g74
ag74
ag74
ag74
ag74
ag74
ag74
ag74
ag74
ag74
ag74
ag74
ag74
ag74
ag74
ag74
ag74
ag74
ag74
ag74
ag74
ag74
ag74
ag74
ag74
ag74
ag74
ag74
ag74
ag74
asg75
(lp4657
g79
ag80
ag81
ag78
ag85
ag80
ag81
ag4041
ag81
ag83
ag84
ag86
ag78
ag86
ag78
ag85
ag80
ag81
ag85
ag90
ag81
ag87
ag88
ag84
ag88
ag139
ag85
ag81
ag79
ag91
asg92
VThen a stone fell from the king's heart, and he had it proclaimed in every country that his son might return and be taken into favor again.
p4658
sba(i__main__
Sentence
p4659
(dp4660
g17
I82
sg18
(lp4661
S'The'
p4662
aS'princess'
p4663
aS','
p4664
aS'however'
p4665
aS','
p4666
aS'had'
p4667
aS'a'
p4668
aS'road'
p4669
aS'made'
p4670
aS'up'
p4671
aS'to'
p4672
aS'her'
p4673
aS'palace'
p4674
aS'which'
p4675
aS'was'
p4676
aS'quite'
p4677
aS'bright'
p4678
aS'and'
p4679
aS'golden'
p4680
aS','
p4681
aS'and'
p4682
aS'told'
p4683
aS'her'
p4684
aS'people'
p4685
aS'that'
p4686
aS'whosoever'
p4687
aS'came'
p4688
aS'riding'
p4689
aS'straight'
p4690
aS'along'
p4691
aS'it'
p4692
aS'to'
p4693
aS'her'
p4694
aS','
p4695
aS'would'
p4696
aS'be'
p4697
aS'the'
p4698
aS'right'
p4699
aS'one'
p4700
aS'and'
p4701
aS'was'
p4702
aS'to'
p4703
aS'be'
p4704
aS'admitted'
p4705
aS','
p4706
aS'and'
p4707
aS'whoever'
p4708
aS'rode'
p4709
aS'by'
p4710
aS'the'
p4711
aS'side'
p4712
aS'of'
p4713
aS'it'
p4714
aS','
p4715
aS'was'
p4716
aS'not'
p4717
aS'the'
p4718
aS'right'
p4719
aS'one'
p4720
aS'and'
p4721
aS'was'
p4722
aS'not'
p4723
aS'to'
p4724
aS'be'
p4725
aS'admitted'
p4726
aS'.'
p4727
asg45
(lp4728
VThe
p4729
aVprincess
p4730
ag56
aVhowever
p4731
ag56
ag53
ag50
aVroad
p4732
aVmake
p4733
aVup
p4734
aVto
p4735
aVher
p4736
aVpalace
p4737
aVwhich
p4738
ag48
aVquite
p4739
aVbright
p4740
aVand
p4741
aVgolden
p4742
ag56
aVand
p4743
ag209
aVher
p4744
aVpeople
p4745
aVthat
p4746
aVwhosoever
p4747
ag883
aVrid
p4748
aVstraight
p4749
aValong
p4750
aVit
p4751
aVto
p4752
aVher
p4753
ag56
aVwould
p4754
aVbe
p4755
aVthe
p4756
aVright
p4757
aVone
p4758
aVand
p4759
ag48
aVto
p4760
aVbe
p4761
aVadmit
p4762
ag56
aVand
p4763
aVwhoever
p4764
ag688
aVby
p4765
aVthe
p4766
aVside
p4767
aVof
p4768
aVit
p4769
ag56
ag48
aVnot
p4770
aVthe
p4771
aVright
p4772
aVone
p4773
aVand
p4774
ag48
aVnot
p4775
aVto
p4776
aVbe
p4777
ag4762
ag71
asg72
(lp4778
g74
ag74
ag74
ag74
ag74
ag74
ag74
ag74
ag74
ag74
ag74
ag74
ag74
ag74
ag74
ag74
ag74
ag74
ag74
ag74
ag74
ag74
ag74
ag74
ag74
ag74
ag74
ag74
ag74
ag74
ag74
ag74
ag74
ag74
ag74
ag74
ag74
ag74
ag74
ag74
ag74
ag74
ag74
ag74
ag74
ag74
ag74
ag74
ag74
ag74
ag74
ag74
ag74
ag74
ag74
ag74
ag74
ag74
ag74
ag74
ag74
ag74
ag74
ag74
ag74
ag74
asg75
(lp4779
g80
ag81
ag83
ag79
ag83
ag78
ag80
ag81
ag139
ag89
ag179
ag90
ag81
ag1931
ag78
ag79
ag140
ag84
ag140
ag83
ag84
ag78
ag86
ag138
ag1931
ag81
ag78
ag417
ag140
ag85
ag86
ag179
ag90
ag83
ag87
ag88
ag80
ag81
ag137
ag84
ag78
ag179
ag88
ag139
ag83
ag84
ag79
ag88
ag85
ag80
ag81
ag85
ag86
ag83
ag78
ag79
ag80
ag81
ag137
ag84
ag78
ag79
ag179
ag88
ag139
ag91
asg92
VThe princess, however, had a road made up to her palace which was quite bright and golden, and told her people that whosoever came riding straight along it to her, would be the right one and was to be admitted, and whoever rode by the side of it, was not the right one and was not to be admitted.
p4780
sba(i__main__
Sentence
p4781
(dp4782
g17
I83
sg18
(lp4783
S'As'
p4784
aS'the'
p4785
aS'time'
p4786
aS'was'
p4787
aS'now'
p4788
aS'close'
p4789
aS'at'
p4790
aS'hand'
p4791
aS','
p4792
aS'the'
p4793
aS'eldest'
p4794
aS'thought'
p4795
aS'he'
p4796
aS'would'
p4797
aS'hasten'
p4798
aS'to'
p4799
aS'go'
p4800
aS'to'
p4801
aS'the'
p4802
aS'king'
p4803
aS"'s"
p4804
aS'daughter'
p4805
aS','
p4806
aS'and'
p4807
aS'give'
p4808
aS'himself'
p4809
aS'out'
p4810
aS'as'
p4811
aS'her'
p4812
aS'rescuer'
p4813
aS','
p4814
aS'and'
p4815
aS'thus'
p4816
aS'win'
p4817
aS'her'
p4818
aS'for'
p4819
aS'his'
p4820
aS'bride'
p4821
aS','
p4822
aS'and'
p4823
aS'the'
p4824
aS'kingdom'
p4825
aS'to'
p4826
aS'boot'
p4827
aS'.'
p4828
asg45
(lp4829
VAs
p4830
aVthe
p4831
aVtime
p4832
ag48
aVnow
p4833
aVclose
p4834
aVat
p4835
aVhand
p4836
ag56
aVthe
p4837
aVeldest
p4838
aVthought
p4839
aVhe
p4840
aVwould
p4841
aVhasten
p4842
aVto
p4843
aVgo
p4844
aVto
p4845
aVthe
p4846
aVking
p4847
aV's
p4848
aVdaughter
p4849
ag56
aVand
p4850
aVgive
p4851
aVhimself
p4852
aVout
p4853
aVas
p4854
aVher
p4855
aVrescuer
p4856
ag56
aVand
p4857
aVthus
p4858
aVwin
p4859
aVher
p4860
aVfor
p4861
aVhis
p4862
aVbride
p4863
ag56
aVand
p4864
aVthe
p4865
aVkingdom
p4866
aVto
p4867
aVboot
p4868
ag71
asg72
(lp4869
g74
ag74
ag74
ag74
ag74
ag74
ag74
ag74
ag74
ag74
ag74
ag74
ag74
ag74
ag74
ag74
ag74
ag74
ag74
ag74
ag74
ag74
ag74
ag74
ag74
ag74
ag74
ag74
ag74
ag74
ag74
ag74
ag74
ag74
ag74
ag74
ag74
ag74
ag74
ag74
ag74
ag74
ag74
ag74
ag74
asg75
(lp4870
g85
ag80
ag81
ag78
ag79
ag140
ag85
ag81
ag83
ag80
ag353
ag81
ag86
ag87
ag88
ag179
ag88
ag179
ag80
ag81
ag4041
ag81
ag83
ag84
ag88
ag86
ag89
ag79
ag90
ag81
ag83
ag84
ag79
ag88
ag90
ag85
ag90
ag81
ag83
ag84
ag80
ag81
ag179
ag88
ag91
asg92
VAs the time was now close at hand, the eldest thought he would hasten to go to the king's daughter, and give himself out as her rescuer, and thus win her for his bride, and the kingdom to boot.
p4871
sba(i__main__
Sentence
p4872
(dp4873
g17
I84
sg18
(lp4874
S'Therefore'
p4875
aS'he'
p4876
aS'rode'
p4877
aS'forth'
p4878
aS','
p4879
aS'and'
p4880
aS'when'
p4881
aS'he'
p4882
aS'arrived'
p4883
aS'in'
p4884
aS'front'
p4885
aS'of'
p4886
aS'the'
p4887
aS'palace'
p4888
aS','
p4889
aS'and'
p4890
aS'saw'
p4891
aS'the'
p4892
aS'splendid'
p4893
aS'golden'
p4894
aS'road'
p4895
aS','
p4896
aS'he'
p4897
aS'thought'
p4898
aS','
p4899
aS'it'
p4900
aS'would'
p4901
aS'be'
p4902
aS'a'
p4903
aS'sin'
p4904
aS'and'
p4905
aS'a'
p4906
aS'shame'
p4907
aS'if'
p4908
aS'I'
p4909
aS'were'
p4910
aS'to'
p4911
aS'ride'
p4912
aS'over'
p4913
aS'that'
p4914
aS'.'
p4915
asg45
(lp4916
VTherefore
p4917
aVhe
p4918
ag688
aVforth
p4919
ag56
aVand
p4920
aVwhen
p4921
aVhe
p4922
aVarrive
p4923
aVin
p4924
aVfront
p4925
aVof
p4926
aVthe
p4927
aVpalace
p4928
ag56
aVand
p4929
aVsaw
p4930
aVthe
p4931
aVsplendid
p4932
aVgolden
p4933
aVroad
p4934
ag56
aVhe
p4935
ag534
ag56
aVit
p4936
aVwould
p4937
aVbe
p4938
ag50
aVsin
p4939
aVand
p4940
ag50
aVshame
p4941
aVif
p4942
ag263
ag122
aVto
p4943
aVride
p4944
aVover
p4945
aVthat
p4946
ag71
asg72
(lp4947
g74
ag74
ag74
ag74
ag74
ag74
ag74
ag74
ag74
ag74
ag74
ag74
ag74
ag74
ag74
ag74
ag74
ag74
ag74
ag74
ag74
ag74
ag74
ag74
ag74
ag74
ag74
ag74
ag74
ag74
ag74
ag74
ag74
ag74
ag74
ag74
ag74
ag74
ag74
ag74
ag74
asg75
(lp4948
g632
ag86
ag78
ag140
ag83
ag84
ag631
ag86
ag78
ag85
ag81
ag85
ag80
ag81
ag83
ag84
ag78
ag80
ag81
ag81
ag81
ag83
ag86
ag78
ag83
ag86
ag87
ag88
ag80
ag81
ag84
ag80
ag81
ag85
ag86
ag78
ag179
ag88
ag85
ag80
ag91
asg92
VTherefore he rode forth, and when he arrived in front of the palace, and saw the splendid golden road, he thought, it would be a sin and a shame if I were to ride over that.
p4949
sba(i__main__
Sentence
p4950
(dp4951
g17
I85
sg18
(lp4952
S'And'
p4953
aS'turned'
p4954
aS'aside'
p4955
aS','
p4956
aS'and'
p4957
aS'rode'
p4958
aS'on'
p4959
aS'the'
p4960
aS'right'
p4961
aS'side'
p4962
aS'of'
p4963
aS'it'
p4964
aS'.'
p4965
asg45
(lp4966
VAnd
p4967
aVturn
p4968
aVaside
p4969
ag56
aVand
p4970
ag688
aVon
p4971
aVthe
p4972
aVright
p4973
aVside
p4974
aVof
p4975
aVit
p4976
ag71
asg72
(lp4977
g74
ag74
ag74
ag74
ag74
ag74
ag74
ag74
ag74
ag74
ag74
ag74
ag74
asg75
(lp4978
g84
ag78
ag79
ag83
ag84
ag88
ag85
ag80
ag81
ag81
ag85
ag86
ag91
asg92
VAnd turned aside, and rode on the right side of it.
p4979
sba(i__main__
Sentence
p4980
(dp4981
g17
I86
sg18
(lp4982
S'But'
p4983
aS'when'
p4984
aS'he'
p4985
aS'came'
p4986
aS'to'
p4987
aS'the'
p4988
aS'door'
p4989
aS','
p4990
aS'the'
p4991
aS'servants'
p4992
aS'told'
p4993
aS'him'
p4994
aS'that'
p4995
aS'he'
p4996
aS'was'
p4997
aS'not'
p4998
aS'the'
p4999
aS'right'
p5000
aS'one'
p5001
aS','
p5002
aS'and'
p5003
aS'was'
p5004
aS'to'
p5005
aS'go'
p5006
aS'away'
p5007
aS'again'
p5008
aS'.'
p5009
asg45
(lp5010
VBut
p5011
aVwhen
p5012
aVhe
p5013
ag883
aVto
p5014
aVthe
p5015
aVdoor
p5016
ag56
aVthe
p5017
aVservant
p5018
ag209
aVhim
p5019
aVthat
p5020
aVhe
p5021
ag48
aVnot
p5022
aVthe
p5023
aVright
p5024
aVone
p5025
ag56
aVand
p5026
ag48
aVto
p5027
aVgo
p5028
aVaway
p5029
aVagain
p5030
ag71
asg72
(lp5031
g74
ag74
ag74
ag74
ag74
ag74
ag74
ag74
ag74
ag74
ag74
ag74
ag74
ag74
ag74
ag74
ag74
ag74
ag74
ag74
ag74
ag74
ag74
ag74
ag74
ag74
ag74
asg75
(lp5032
g84
ag631
ag86
ag78
ag179
ag80
ag81
ag83
ag80
ag138
ag78
ag86
ag85
ag86
ag78
ag79
ag80
ag81
ag137
ag83
ag84
ag78
ag179
ag88
ag79
ag79
ag91
asg92
VBut when he came to the door, the servants told him that he was not the right one, and was to go away again.
p5033
sba(i__main__
Sentence
p5034
(dp5035
g17
I87
sg18
(lp5036
S'Soon'
p5037
aS'after'
p5038
aS'this'
p5039
aS'the'
p5040
aS'second'
p5041
aS'prince'
p5042
aS'set'
p5043
aS'out'
p5044
aS','
p5045
aS'and'
p5046
aS'when'
p5047
aS'he'
p5048
aS'came'
p5049
aS'to'
p5050
aS'the'
p5051
aS'golden'
p5052
aS'road'
p5053
aS','
p5054
aS'and'
p5055
aS'his'
p5056
aS'horse'
p5057
aS'had'
p5058
aS'put'
p5059
aS'one'
p5060
aS'foot'
p5061
aS'on'
p5062
aS'it'
p5063
aS','
p5064
aS'he'
p5065
aS'thought'
p5066
aS','
p5067
aS'it'
p5068
aS'would'
p5069
aS'be'
p5070
aS'a'
p5071
aS'sin'
p5072
aS'and'
p5073
aS'a'
p5074
aS'shame'
p5075
aS','
p5076
aS'a'
p5077
aS'piece'
p5078
aS'might'
p5079
aS'be'
p5080
aS'trodden'
p5081
aS'off'
p5082
aS'.'
p5083
asg45
(lp5084
VSoon
p5085
aVafter
p5086
aVthis
p5087
aVthe
p5088
aVsecond
p5089
aVprince
p5090
aVset
p5091
aVout
p5092
ag56
aVand
p5093
aVwhen
p5094
aVhe
p5095
ag883
aVto
p5096
aVthe
p5097
aVgolden
p5098
aVroad
p5099
ag56
aVand
p5100
aVhis
p5101
aVhorse
p5102
ag53
aVput
p5103
aVone
p5104
aVfoot
p5105
aVon
p5106
aVit
p5107
ag56
aVhe
p5108
ag534
ag56
aVit
p5109
aVwould
p5110
aVbe
p5111
ag50
aVsin
p5112
aVand
p5113
ag50
aVshame
p5114
ag56
ag50
aVpiece
p5115
aVmight
p5116
aVbe
p5117
aVtread
p5118
aVoff
p5119
ag71
asg72
(lp5120
g74
ag74
ag74
ag74
ag74
ag74
ag74
ag74
ag74
ag74
ag74
ag74
ag74
ag74
ag74
ag74
ag74
ag74
ag74
ag74
ag74
ag74
ag74
ag74
ag74
ag74
ag74
ag74
ag74
ag74
ag74
ag74
ag74
ag74
ag74
ag74
ag74
ag74
ag74
ag74
ag74
ag74
ag74
ag74
ag74
ag74
ag74
asg75
(lp5121
g79
ag85
ag80
ag80
ag140
ag81
ag81
ag89
ag83
ag84
ag631
ag86
ag78
ag179
ag80
ag81
ag81
ag83
ag84
ag90
ag81
ag78
ag139
ag137
ag81
ag85
ag86
ag83
ag86
ag78
ag83
ag86
ag87
ag88
ag80
ag81
ag84
ag80
ag81
ag83
ag80
ag81
ag87
ag88
ag139
ag89
ag91
asg92
VSoon after this the second prince set out, and when he came to the golden road, and his horse had put one foot on it, he thought, it would be a sin and a shame, a piece might be trodden off.
p5122
sba(i__main__
Sentence
p5123
(dp5124
g17
I88
sg18
(lp5125
S'And'
p5126
aS'he'
p5127
aS'turned'
p5128
aS'aside'
p5129
aS'and'
p5130
aS'rode'
p5131
aS'on'
p5132
aS'the'
p5133
aS'left'
p5134
aS'side'
p5135
aS'of'
p5136
aS'it'
p5137
aS','
p5138
aS'and'
p5139
aS'when'
p5140
aS'he'
p5141
aS'reached'
p5142
aS'the'
p5143
aS'door'
p5144
aS','
p5145
aS'the'
p5146
aS'attendants'
p5147
aS'told'
p5148
aS'him'
p5149
aS'he'
p5150
aS'was'
p5151
aS'not'
p5152
aS'the'
p5153
aS'right'
p5154
aS'one'
p5155
aS','
p5156
aS'and'
p5157
aS'he'
p5158
aS'was'
p5159
aS'to'
p5160
aS'go'
p5161
aS'away'
p5162
aS'again'
p5163
aS'.'
p5164
asg45
(lp5165
VAnd
p5166
aVhe
p5167
aVturn
p5168
aVaside
p5169
aVand
p5170
ag688
aVon
p5171
aVthe
p5172
aVleft
p5173
aVside
p5174
aVof
p5175
aVit
p5176
ag56
aVand
p5177
aVwhen
p5178
aVhe
p5179
aVreach
p5180
aVthe
p5181
aVdoor
p5182
ag56
aVthe
p5183
aVattendant
p5184
ag209
aVhim
p5185
aVhe
p5186
ag48
aVnot
p5187
aVthe
p5188
aVright
p5189
aVone
p5190
ag56
aVand
p5191
aVhe
p5192
ag48
aVto
p5193
aVgo
p5194
aVaway
p5195
aVagain
p5196
ag71
asg72
(lp5197
g74
ag74
ag74
ag74
ag74
ag74
ag74
ag74
ag74
ag74
ag74
ag74
ag74
ag74
ag74
ag74
ag74
ag74
ag74
ag74
ag74
ag74
ag74
ag74
ag74
ag74
ag74
ag74
ag74
ag74
ag74
ag74
ag74
ag74
ag74
ag74
ag74
ag74
ag74
asg75
(lp5198
g84
ag86
ag78
ag79
ag84
ag88
ag85
ag80
ag81
ag81
ag85
ag86
ag83
ag84
ag631
ag86
ag78
ag80
ag81
ag83
ag80
ag138
ag78
ag86
ag86
ag78
ag79
ag80
ag81
ag137
ag83
ag84
ag86
ag78
ag179
ag88
ag79
ag79
ag91
asg92
VAnd he turned aside and rode on the left side of it, and when he reached the door, the attendants told him he was not the right one, and he was to go away again.
p5199
sba(i__main__
Sentence
p5200
(dp5201
g17
I89
sg18
(lp5202
S'When'
p5203
aS'at'
p5204
aS'last'
p5205
aS'the'
p5206
aS'year'
p5207
aS'had'
p5208
aS'entirely'
p5209
aS'expired'
p5210
aS','
p5211
aS'the'
p5212
aS'third'
p5213
aS'son'
p5214
aS'likewise'
p5215
aS'wished'
p5216
aS'to'
p5217
aS'ride'
p5218
aS'out'
p5219
aS'of'
p5220
aS'the'
p5221
aS'forest'
p5222
aS'to'
p5223
aS'his'
p5224
aS'beloved'
p5225
aS','
p5226
aS'and'
p5227
aS'with'
p5228
aS'her'
p5229
aS'forget'
p5230
aS'his'
p5231
aS'sorrows'
p5232
aS'.'
p5233
asg45
(lp5234
VWhen
p5235
aVat
p5236
aVlast
p5237
aVthe
p5238
aVyear
p5239
ag53
aVentirely
p5240
aVexpire
p5241
ag56
aVthe
p5242
aVthird
p5243
aVson
p5244
aVlikewise
p5245
aVwish
p5246
aVto
p5247
aVride
p5248
aVout
p5249
aVof
p5250
aVthe
p5251
aVforest
p5252
aVto
p5253
aVhis
p5254
aVbeloved
p5255
ag56
aVand
p5256
aVwith
p5257
aVher
p5258
aVforget
p5259
aVhis
p5260
aVsorrow
p5261
ag71
asg72
(lp5262
g74
ag74
ag74
ag74
ag74
ag74
ag74
ag74
ag74
ag74
ag74
ag74
ag74
ag74
ag74
ag74
ag74
ag74
ag74
ag74
ag74
ag74
ag74
ag74
ag74
ag74
ag74
ag74
ag74
ag74
ag74
asg75
(lp5263
g631
ag85
ag140
ag80
ag81
ag78
ag79
ag139
ag83
ag80
ag140
ag81
ag81
ag78
ag179
ag88
ag89
ag85
ag80
ag353
ag179
ag90
ag139
ag83
ag84
ag85
ag90
ag81
ag90
ag138
ag91
asg92
VWhen at last the year had entirely expired, the third son likewise wished to ride out of the forest to his beloved, and with her forget his sorrows.
p5264
sba(i__main__
Sentence
p5265
(dp5266
g17
I90
sg18
(lp5267
S'So'
p5268
aS'he'
p5269
aS'set'
p5270
aS'out'
p5271
aS'and'
p5272
aS'thought'
p5273
aS'of'
p5274
aS'her'
p5275
aS'so'
p5276
aS'incessantly'
p5277
aS','
p5278
aS'and'
p5279
aS'wished'
p5280
aS'to'
p5281
aS'be'
p5282
aS'with'
p5283
aS'her'
p5284
aS'so'
p5285
aS'much'
p5286
aS','
p5287
aS'that'
p5288
aS'he'
p5289
aS'never'
p5290
aS'noticed'
p5291
aS'the'
p5292
aS'golden'
p5293
aS'road'
p5294
aS'at'
p5295
aS'all'
p5296
aS'.'
p5297
asg45
(lp5298
VSo
p5299
aVhe
p5300
aVset
p5301
aVout
p5302
aVand
p5303
ag534
aVof
p5304
aVher
p5305
aVso
p5306
aVincessantly
p5307
ag56
aVand
p5308
aVwish
p5309
aVto
p5310
aVbe
p5311
aVwith
p5312
aVher
p5313
aVso
p5314
aVmuch
p5315
ag56
aVthat
p5316
aVhe
p5317
aVnever
p5318
aVnotice
p5319
aVthe
p5320
aVgolden
p5321
aVroad
p5322
aVat
p5323
aVall
p5324
ag71
asg72
(lp5325
g74
ag74
ag74
ag74
ag74
ag74
ag74
ag74
ag74
ag74
ag74
ag74
ag74
ag74
ag74
ag74
ag74
ag74
ag74
ag74
ag74
ag74
ag74
ag74
ag74
ag74
ag74
ag74
ag74
ag74
asg75
(lp5326
g85
ag86
ag78
ag89
ag84
ag78
ag85
ag90
ag85
ag79
ag83
ag84
ag78
ag179
ag88
ag85
ag90
ag85
ag79
ag83
ag85
ag86
ag79
ag78
ag80
ag81
ag81
ag85
ag80
ag91
asg92
VSo he set out and thought of her so incessantly, and wished to be with her so much, that he never noticed the golden road at all.
p5327
sba(i__main__
Sentence
p5328
(dp5329
g17
I91
sg18
(lp5330
S'So'
p5331
aS'his'
p5332
aS'horse'
p5333
aS'rode'
p5334
aS'onwards'
p5335
aS'up'
p5336
aS'the'
p5337
aS'middle'
p5338
aS'of'
p5339
aS'it'
p5340
aS','
p5341
aS'and'
p5342
aS'when'
p5343
aS'he'
p5344
aS'came'
p5345
aS'to'
p5346
aS'the'
p5347
aS'door'
p5348
aS','
p5349
aS'it'
p5350
aS'was'
p5351
aS'opened'
p5352
aS'and'
p5353
aS'the'
p5354
aS'princess'
p5355
aS'received'
p5356
aS'him'
p5357
aS'with'
p5358
aS'joy'
p5359
aS','
p5360
aS'and'
p5361
aS'said'
p5362
aS'he'
p5363
aS'was'
p5364
aS'her'
p5365
aS'saviour'
p5366
aS','
p5367
aS'and'
p5368
aS'lord'
p5369
aS'of'
p5370
aS'the'
p5371
aS'kingdom'
p5372
aS','
p5373
aS'and'
p5374
aS'their'
p5375
aS'wedding'
p5376
aS'was'
p5377
aS'celebrated'
p5378
aS'with'
p5379
aS'great'
p5380
aS'rejoicing'
p5381
aS'.'
p5382
asg45
(lp5383
VSo
p5384
aVhis
p5385
aVhorse
p5386
aVrode
p5387
aVonwards
p5388
aVup
p5389
aVthe
p5390
aVmiddle
p5391
aVof
p5392
aVit
p5393
ag56
aVand
p5394
aVwhen
p5395
aVhe
p5396
ag883
aVto
p5397
aVthe
p5398
aVdoor
p5399
ag56
aVit
p5400
ag48
aVopen
p5401
aVand
p5402
aVthe
p5403
aVprincess
p5404
aVreceive
p5405
aVhim
p5406
aVwith
p5407
aVjoy
p5408
ag56
aVand
p5409
ag261
aVhe
p5410
ag48
aVher
p5411
aVsaviour
p5412
ag56
aVand
p5413
aVlord
p5414
aVof
p5415
aVthe
p5416
aVkingdom
p5417
ag56
aVand
p5418
aVtheir
p5419
aVwedding
p5420
ag48
aVcelebrate
p5421
aVwith
p5422
aVgreat
p5423
aVrejoicing
p5424
ag71
asg72
(lp5425
g74
ag74
ag74
ag74
ag74
ag74
ag74
ag74
ag74
ag74
ag74
ag74
ag74
ag74
ag74
ag74
ag74
ag74
ag74
ag74
ag74
ag74
ag74
ag74
ag74
ag74
ag74
ag74
ag74
ag74
ag74
ag74
ag74
ag74
ag74
ag74
ag74
ag74
ag74
ag74
ag74
ag74
ag74
ag74
ag74
ag74
ag74
ag74
ag74
ag74
ag74
ag74
asg75
(lp5426
g85
ag90
ag81
ag81
ag138
ag85
ag80
ag81
ag85
ag86
ag83
ag84
ag631
ag86
ag78
ag179
ag80
ag81
ag83
ag86
ag78
ag139
ag84
ag80
ag81
ag78
ag86
ag85
ag140
ag83
ag84
ag78
ag86
ag78
ag90
ag81
ag83
ag84
ag81
ag85
ag80
ag81
ag83
ag84
ag90
ag81
ag78
ag139
ag85
ag140
ag81
ag91
asg92
VSo his horse rode onwards up the middle of it, and when he came to the door, it was opened and the princess received him with joy, and said he was her saviour, and lord of the kingdom, and their wedding was celebrated with great rejoicing.
p5427
sba(i__main__
Sentence
p5428
(dp5429
g17
I92
sg18
(lp5430
S'When'
p5431
aS'it'
p5432
aS'was'
p5433
aS'over'
p5434
aS'she'
p5435
aS'told'
p5436
aS'him'
p5437
aS'that'
p5438
aS'his'
p5439
aS'father'
p5440
aS'invited'
p5441
aS'him'
p5442
aS'to'
p5443
aS'come'
p5444
aS'to'
p5445
aS'him'
p5446
aS','
p5447
aS'and'
p5448
aS'had'
p5449
aS'forgiven'
p5450
aS'him'
p5451
aS'.'
p5452
asg45
(lp5453
VWhen
p5454
aVit
p5455
ag48
aVover
p5456
aVshe
p5457
ag209
aVhim
p5458
aVthat
p5459
aVhis
p5460
aVfather
p5461
aVinvite
p5462
aVhim
p5463
aVto
p5464
aVcome
p5465
aVto
p5466
aVhim
p5467
ag56
aVand
p5468
ag53
aVforgive
p5469
aVhim
p5470
ag71
asg72
(lp5471
g74
ag74
ag74
ag74
ag74
ag74
ag74
ag74
ag74
ag74
ag74
ag74
ag74
ag74
ag74
ag74
ag74
ag74
ag74
ag74
ag74
ag74
asg75
(lp5472
g631
ag86
ag78
ag85
ag86
ag78
ag86
ag85
ag90
ag81
ag78
ag86
ag179
ag88
ag179
ag86
ag83
ag84
ag78
ag139
ag86
ag91
asg92
VWhen it was over she told him that his father invited him to come to him, and had forgiven him.
p5473
sba(i__main__
Sentence
p5474
(dp5475
g17
I93
sg18
(lp5476
S'So'
p5477
aS'he'
p5478
aS'rode'
p5479
aS'thither'
p5480
aS','
p5481
aS'and'
p5482
aS'told'
p5483
aS'him'
p5484
aS'everything'
p5485
aS','
p5486
aS'how'
p5487
aS'his'
p5488
aS'brothers'
p5489
aS'had'
p5490
aS'betrayed'
p5491
aS'him'
p5492
aS','
p5493
aS'and'
p5494
aS'how'
p5495
aS'he'
p5496
aS'had'
p5497
aS'nevertheless'
p5498
aS'kept'
p5499
aS'silence'
p5500
aS'.'
p5501
asg45
(lp5502
VSo
p5503
aVhe
p5504
ag688
aVthither
p5505
ag56
aVand
p5506
ag209
aVhim
p5507
aVeverything
p5508
ag56
aVhow
p5509
aVhis
p5510
aVbrother
p5511
ag53
aVbetray
p5512
aVhim
p5513
ag56
aVand
p5514
aVhow
p5515
aVhe
p5516
ag53
aVnevertheless
p5517
ag3676
aVsilence
p5518
ag71
asg72
(lp5519
g74
ag74
ag74
ag74
ag74
ag74
ag74
ag74
ag74
ag74
ag74
ag74
ag74
ag74
ag74
ag74
ag74
ag74
ag74
ag74
ag74
ag74
ag74
ag74
ag74
asg75
(lp5520
g85
ag86
ag178
ag79
ag83
ag84
ag78
ag86
ag81
ag83
ag631
ag90
ag138
ag78
ag139
ag86
ag83
ag84
ag631
ag86
ag78
ag79
ag139
ag81
ag91
asg92
VSo he rode thither, and told him everything, how his brothers had betrayed him, and how he had nevertheless kept silence.
p5521
sba(i__main__
Sentence
p5522
(dp5523
g17
I94
sg18
(lp5524
S'The'
p5525
aS'old'
p5526
aS'king'
p5527
aS'wished'
p5528
aS'to'
p5529
aS'punish'
p5530
aS'them'
p5531
aS','
p5532
aS'but'
p5533
aS'they'
p5534
aS'had'
p5535
aS'put'
p5536
aS'to'
p5537
aS'sea'
p5538
aS','
p5539
aS'and'
p5540
aS'never'
p5541
aS'came'
p5542
aS'back'
p5543
aS'as'
p5544
aS'long'
p5545
aS'as'
p5546
aS'they'
p5547
aS'lived'
p5548
aS'.'
p5549
asg45
(lp5550
VThe
p5551
aVold
p5552
aVking
p5553
aVwish
p5554
aVto
p5555
aVpunish
p5556
aVthem
p5557
ag56
aVbut
p5558
aVthey
p5559
ag53
aVput
p5560
aVto
p5561
aVsea
p5562
ag56
aVand
p5563
aVnever
p5564
ag883
aVback
p5565
ag50
aVlong
p5566
ag50
aVthey
p5567
aVlive
p5568
ag71
asg72
(lp5569
g74
ag74
ag74
ag74
ag74
ag74
ag74
ag74
ag74
ag74
ag74
ag74
ag74
ag74
ag74
ag74
ag74
ag74
ag74
ag74
ag74
ag74
ag74
ag74
ag74
asg75
(lp5570
g80
ag140
ag81
ag78
ag179
ag88
ag86
ag83
ag84
ag86
ag78
ag139
ag179
ag88
ag83
ag84
ag79
ag78
ag79
ag85
ag79
ag85
ag86
ag78
ag91
asg92
VThe old king wished to punish them, but they had put to sea, and never came back as long as they lived. 
p5571
sbasbsS'summary'
p5572
g0
(g7
g2
Ntp5573
Rp5574
(dp5575
g11
S"Three princes wish to cure their father by bringing him a drink of the water of life. On their quest for the water, the two oldest sons are mean to a dwarf who bewitches them so that they become stuck between two mountains. The youngest son is kind to the dwarf, and the dwarf tells him where to find the water of life. The youngest son does as the dwarf instructs and takes with him a cupful of the water, a sword with which he can kill many armies of men, and a loaf of bread that is never depleted. He also finds a maiden who says she will marry him in one year's time. "
p5576
sg13
(lp5577
(i__main__
Sentence
p5578
(dp5579
g17
I0
sg18
(lp5580
S'Three'
p5581
aS'princes'
p5582
aS'wish'
p5583
aS'to'
p5584
aS'cure'
p5585
aS'their'
p5586
aS'father'
p5587
aS'by'
p5588
aS'bringing'
p5589
aS'him'
p5590
aS'a'
p5591
aS'drink'
p5592
aS'of'
p5593
aS'the'
p5594
aS'water'
p5595
aS'of'
p5596
aS'life'
p5597
aS'.'
p5598
asg45
(lp5599
VThree
p5600
aVprince
p5601
aVwish
p5602
aVto
p5603
aVcure
p5604
aVtheir
p5605
aVfather
p5606
aVby
p5607
aVbringing
p5608
aVhim
p5609
ag50
aVdrink
p5610
aVof
p5611
aVthe
p5612
aVwater
p5613
aVof
p5614
aVlife
p5615
ag71
asg72
(lp5616
g74
ag74
ag74
ag74
ag74
ag74
ag74
ag74
ag74
ag74
ag74
ag74
ag74
ag74
ag74
ag74
ag74
ag74
asg75
(lp5617
g137
ag138
ag140
ag179
ag88
ag90
ag81
ag85
ag81
ag86
ag80
ag81
ag85
ag80
ag81
ag85
ag81
ag91
asg92
VThree princes wish to cure their father by bringing him a drink of the water of life.
p5618
sba(i__main__
Sentence
p5619
(dp5620
g17
I1
sg18
(lp5621
S'On'
p5622
aS'their'
p5623
aS'quest'
p5624
aS'for'
p5625
aS'the'
p5626
aS'water'
p5627
aS','
p5628
aS'the'
p5629
aS'two'
p5630
aS'oldest'
p5631
aS'sons'
p5632
aS'are'
p5633
aS'mean'
p5634
aS'to'
p5635
aS'a'
p5636
aS'dwarf'
p5637
aS'who'
p5638
aS'bewitches'
p5639
aS'them'
p5640
aS'so'
p5641
aS'that'
p5642
aS'they'
p5643
aS'become'
p5644
aS'stuck'
p5645
aS'between'
p5646
aS'two'
p5647
aS'mountains'
p5648
aS'.'
p5649
asg45
(lp5650
VOn
p5651
aVtheir
p5652
aVquest
p5653
aVfor
p5654
aVthe
p5655
aVwater
p5656
ag56
aVthe
p5657
aVtwo
p5658
aVold
p5659
aVson
p5660
ag2532
aVmean
p5661
aVto
p5662
ag50
aVdwarf
p5663
aVwho
p5664
aVbewitches
p5665
aVthem
p5666
aVso
p5667
aVthat
p5668
aVthey
p5669
aVbecome
p5670
aVstuck
p5671
aVbetween
p5672
aVtwo
p5673
aVmountain
p5674
ag71
asg72
(lp5675
g74
ag74
ag74
ag74
ag74
ag74
ag74
ag74
ag74
ag74
ag74
ag74
ag74
ag74
ag74
ag74
ag74
ag74
ag74
ag74
ag74
ag74
ag74
ag74
ag74
ag74
ag74
ag74
asg75
(lp5676
g85
ag90
ag81
ag85
ag80
ag81
ag83
ag80
ag137
ag353
ag138
ag178
ag140
ag179
ag80
ag81
ag82
ag138
ag86
ag79
ag85
ag86
ag178
ag140
ag85
ag137
ag138
ag91
asg92
VOn their quest for the water, the two oldest sons are mean to a dwarf who bewitches them so that they become stuck between two mountains.
p5677
sba(i__main__
Sentence
p5678
(dp5679
g17
I2
sg18
(lp5680
S'The'
p5681
aS'youngest'
p5682
aS'son'
p5683
aS'is'
p5684
aS'kind'
p5685
aS'to'
p5686
aS'the'
p5687
aS'dwarf'
p5688
aS','
p5689
aS'and'
p5690
aS'the'
p5691
aS'dwarf'
p5692
aS'tells'
p5693
aS'him'
p5694
aS'where'
p5695
aS'to'
p5696
aS'find'
p5697
aS'the'
p5698
aS'water'
p5699
aS'of'
p5700
aS'life'
p5701
aS'.'
p5702
asg45
(lp5703
VThe
p5704
ag1256
aVson
p5705
ag271
aVkind
p5706
aVto
p5707
aVthe
p5708
aVdwarf
p5709
ag56
aVand
p5710
aVthe
p5711
aVdwarf
p5712
aVtell
p5713
aVhim
p5714
aVwhere
p5715
aVto
p5716
aVfind
p5717
aVthe
p5718
aVwater
p5719
aVof
p5720
aVlife
p5721
ag71
asg72
(lp5722
g74
ag74
ag74
ag74
ag74
ag74
ag74
ag74
ag74
ag74
ag74
ag74
ag74
ag74
ag74
ag74
ag74
ag74
ag74
ag74
ag74
ag74
asg75
(lp5723
g80
ag353
ag81
ag280
ag140
ag179
ag80
ag81
ag83
ag84
ag80
ag81
ag280
ag86
ag631
ag179
ag88
ag80
ag81
ag85
ag81
ag91
asg92
VThe youngest son is kind to the dwarf, and the dwarf tells him where to find the water of life.
p5724
sba(i__main__
Sentence
p5725
(dp5726
g17
I3
sg18
(lp5727
S'The'
p5728
aS'youngest'
p5729
aS'son'
p5730
aS'does'
p5731
aS'as'
p5732
aS'the'
p5733
aS'dwarf'
p5734
aS'instructs'
p5735
aS'and'
p5736
aS'takes'
p5737
aS'with'
p5738
aS'him'
p5739
aS'a'
p5740
aS'cupful'
p5741
aS'of'
p5742
aS'the'
p5743
aS'water'
p5744
aS','
p5745
aS'a'
p5746
aS'sword'
p5747
aS'with'
p5748
aS'which'
p5749
aS'he'
p5750
aS'can'
p5751
aS'kill'
p5752
aS'many'
p5753
aS'armies'
p5754
aS'of'
p5755
aS'men'
p5756
aS','
p5757
aS'and'
p5758
aS'a'
p5759
aS'loaf'
p5760
aS'of'
p5761
aS'bread'
p5762
aS'that'
p5763
aS'is'
p5764
aS'never'
p5765
aS'depleted'
p5766
aS'.'
p5767
asg45
(lp5768
VThe
p5769
ag1256
aVson
p5770
aVdo
p5771
ag50
aVthe
p5772
aVdwarf
p5773
aVinstruct
p5774
aVand
p5775
aVtake
p5776
aVwith
p5777
aVhim
p5778
ag50
aVcupful
p5779
aVof
p5780
aVthe
p5781
aVwater
p5782
ag56
ag50
aVsword
p5783
aVwith
p5784
aVwhich
p5785
aVhe
p5786
aVcan
p5787
aVkill
p5788
aVmany
p5789
aVarmy
p5790
aVof
p5791
aVmen
p5792
ag56
aVand
p5793
ag50
aVloaf
p5794
aVof
p5795
aVbread
p5796
aVthat
p5797
ag271
aVnever
p5798
aVdeplete
p5799
ag71
asg72
(lp5800
g74
ag74
ag74
ag74
ag74
ag74
ag74
ag74
ag74
ag74
ag74
ag74
ag74
ag74
ag74
ag74
ag74
ag74
ag74
ag74
ag74
ag74
ag74
ag74
ag74
ag74
ag74
ag74
ag74
ag74
ag74
ag74
ag74
ag74
ag74
ag74
ag74
ag74
ag74
ag74
asg75
(lp5801
g80
ag353
ag81
ag280
ag85
ag80
ag81
ag280
ag84
ag280
ag85
ag86
ag80
ag140
ag85
ag80
ag81
ag83
ag80
ag81
ag85
ag1931
ag86
ag87
ag88
ag140
ag138
ag85
ag138
ag83
ag84
ag80
ag81
ag85
ag81
ag85
ag280
ag79
ag139
ag91
asg92
VThe youngest son does as the dwarf instructs and takes with him a cupful of the water, a sword with which he can kill many armies of men, and a loaf of bread that is never depleted.
p5802
sba(i__main__
Sentence
p5803
(dp5804
g17
I4
sg18
(lp5805
S'He'
p5806
aS'also'
p5807
aS'finds'
p5808
aS'a'
p5809
aS'maiden'
p5810
aS'who'
p5811
aS'says'
p5812
aS'she'
p5813
aS'will'
p5814
aS'marry'
p5815
aS'him'
p5816
aS'in'
p5817
aS'one'
p5818
aS'year'
p5819
aS"'s"
p5820
aS'time'
p5821
aS'.'
p5822
asg45
(lp5823
VHe
p5824
aValso
p5825
aVfind
p5826
ag50
aVmaiden
p5827
aVwho
p5828
aVsay
p5829
aVshe
p5830
aVwill
p5831
aVmarry
p5832
aVhim
p5833
aVin
p5834
aVone
p5835
aVyear
p5836
aV's
p5837
aVtime
p5838
ag71
asg72
(lp5839
g74
ag74
ag74
ag74
ag74
ag74
ag74
ag74
ag74
ag74
ag74
ag74
ag74
ag74
ag74
ag74
ag74
asg75
(lp5840
g86
ag79
ag280
ag80
ag81
ag82
ag280
ag86
ag87
ag88
ag86
ag85
ag137
ag81
ag4041
ag81
ag91
asg92
VHe also finds a maiden who says she will marry him in one year's time. 
p5841
sbasbsS'name'
p5842
S'The Water of Life'
p5843
sS'summaries'
p5844
(lp5845
g5574
asb.