ccopy_reg
_reconstructor
p0
(c__main__
Story
p1
c__builtin__
object
p2
Ntp3
Rp4
(dp5
S'text'
p6
g0
(c__main__
Document
p7
g2
Ntp8
Rp9
(dp10
S'_Document__initialContent'
p11
S'It happened that the cat met the fox in a forest, and as she\nthought to herself, he is clever and full of experience, and\nmuch esteemed in the world, she spoke to him in a friendly\nway.  Good-day, dear mr. Fox, how are you.  How is all with\nyou.  How are you getting on in these hard times.  The fox,\nfull of all kinds of arrogance, looked at the cat from head\nto foot, and for a long time\ndid not know whether he would give any answer or not.  At last\nhe said, oh, you wretched beard-cleaner, you piebald fool, you\nhungry mouse-hunter, what can you be thinking of.  Have you the\ncheek to ask how I am getting on.  What have you learnt.  How\nmany arts do you understand.  I understand but one, replied\nthe cat, modestly.  What art is that, asked the fox.  When\nthe hounds are following me, I can spring into a tree and\nsave myself.  Is that all, said the fox.  I am master of a\nhundred arts, and have into the bargain a sackful of cunning.\nYou make me sorry for you.  Come with me, I will teach you\nhow people get away from the hounds.  Just then came a hunter\nwith four dogs.  The cat sprang nimbly up a tree, and sat\ndown on top of it, where the branches and foliage quite\nconcealed her.  Open your sack, mr. Fox, open your sack, cried\nthe cat to him, but the dogs had already seized him, and\nwere holding him fast.  Ah, mr. Fox, cried the cat.  You with\nyour hundred arts are left in the lurch.  Had you been able\nto climb like me, you would not have lost your life.\n'
p12
sS'sentences'
p13
(lp14
(i__main__
Sentence
p15
(dp16
S'index'
p17
I0
sS'words'
p18
(lp19
S'It'
p20
aS'happened'
p21
aS'that'
p22
aS'the'
p23
aS'cat'
p24
aS'met'
p25
aS'the'
p26
aS'fox'
p27
aS'in'
p28
aS'a'
p29
aS'forest'
p30
aS','
p31
aS'and'
p32
aS'as'
p33
aS'she'
p34
aS'thought'
p35
aS'to'
p36
aS'herself'
p37
aS','
p38
aS'he'
p39
aS'is'
p40
aS'clever'
p41
aS'and'
p42
aS'full'
p43
aS'of'
p44
aS'experience'
p45
aS','
p46
aS'and'
p47
aS'much'
p48
aS'esteemed'
p49
aS'in'
p50
aS'the'
p51
aS'world'
p52
aS','
p53
aS'she'
p54
aS'spoke'
p55
aS'to'
p56
aS'him'
p57
aS'in'
p58
aS'a'
p59
aS'friendly'
p60
aS'way'
p61
aS'.'
p62
asS'lemmas'
p63
(lp64
VIt
p65
aVhappen
p66
aVthat
p67
aVthe
p68
aVcat
p69
aVmet
p70
aVthe
p71
aVfox
p72
aVin
p73
aVa
p74
aVforest
p75
aV,
p76
aVand
p77
ag74
aVshe
p78
aVthink
p79
aVto
p80
aVherself
p81
ag76
aVhe
p82
aVbe
p83
aVclever
p84
aVand
p85
aVfull
p86
aVof
p87
aVexperience
p88
ag76
aVand
p89
aVmuch
p90
aVesteem
p91
aVin
p92
aVthe
p93
aVworld
p94
ag76
aVshe
p95
aVspeak
p96
aVto
p97
aVhim
p98
aVin
p99
ag74
aVfriendly
p100
aVway
p101
aV.
p102
asS'nerTags'
p103
(lp104
VO
p105
ag105
ag105
ag105
ag105
ag105
ag105
ag105
ag105
ag105
ag105
ag105
ag105
ag105
ag105
ag105
ag105
ag105
ag105
ag105
ag105
ag105
ag105
ag105
ag105
ag105
ag105
ag105
ag105
ag105
ag105
ag105
ag105
ag105
ag105
ag105
ag105
ag105
ag105
ag105
ag105
ag105
ag105
asS'posTags'
p106
(lp107
S'PRP'
p108
aS'VBD'
p109
aS'IN'
p110
aS'DT'
p111
aS'NN'
p112
ag112
ag111
ag112
ag110
ag111
ag112
aS','
p113
aS'CC'
p114
ag110
ag108
ag109
aS'TO'
p115
ag108
ag113
ag108
aS'VBZ'
p116
aS'RB'
p117
ag114
aS'JJ'
p118
ag110
ag112
ag113
ag114
ag118
aS'VBN'
p119
ag110
ag111
ag112
ag113
ag108
ag109
ag115
ag108
ag110
ag111
ag118
ag112
aS'.'
p120
asS'_Sentence__initialContent'
p121
VIt happened that the cat met the fox in a forest, and as she thought to herself, he is clever and full of experience, and much esteemed in the world, she spoke to him in a friendly way.
p122
sba(i__main__
Sentence
p123
(dp124
g17
I1
sg18
(lp125
S'Good-day'
p126
aS','
p127
aS'dear'
p128
aS'mr.'
p129
aS'Fox'
p130
aS','
p131
aS'how'
p132
aS'are'
p133
aS'you'
p134
aS'.'
p135
asg63
(lp136
VGood-day
p137
ag76
aVdear
p138
aVmr.
p139
aVFox
p140
ag76
aVhow
p141
aVbe
p142
aVyou
p143
ag102
asg103
(lp144
g105
ag105
ag105
aVPERSON
p145
aVPERSON
p146
ag105
ag105
ag105
ag105
ag105
asg106
(lp147
g118
ag113
ag118
aS'NNP'
p148
ag148
ag113
aS'WRB'
p149
aS'VBP'
p150
ag108
ag120
asg121
VGood-day, dear mr. Fox, how are you.
p151
sba(i__main__
Sentence
p152
(dp153
g17
I2
sg18
(lp154
S'How'
p155
aS'is'
p156
aS'all'
p157
aS'with'
p158
aS'you'
p159
aS'.'
p160
asg63
(lp161
VHow
p162
ag83
aVall
p163
aVwith
p164
aVyou
p165
ag102
asg103
(lp166
g105
ag105
ag105
ag105
ag105
ag105
asg106
(lp167
g149
ag116
ag111
ag110
ag108
ag120
asg121
VHow is all with you.
p168
sba(i__main__
Sentence
p169
(dp170
g17
I3
sg18
(lp171
S'How'
p172
aS'are'
p173
aS'you'
p174
aS'getting'
p175
aS'on'
p176
aS'in'
p177
aS'these'
p178
aS'hard'
p179
aS'times'
p180
aS'.'
p181
asg63
(lp182
VHow
p183
ag142
aVyou
p184
aVget
p185
aVon
p186
aVin
p187
aVthese
p188
aVhard
p189
aVtime
p190
ag102
asg103
(lp191
g105
ag105
ag105
ag105
ag105
ag105
ag105
ag105
ag105
ag105
asg106
(lp192
g149
ag150
ag108
aS'VBG'
p193
ag110
ag110
ag111
ag118
aS'NNS'
p194
ag120
asg121
VHow are you getting on in these hard times.
p195
sba(i__main__
Sentence
p196
(dp197
g17
I4
sg18
(lp198
S'The'
p199
aS'fox'
p200
aS','
p201
aS'full'
p202
aS'of'
p203
aS'all'
p204
aS'kinds'
p205
aS'of'
p206
aS'arrogance'
p207
aS','
p208
aS'looked'
p209
aS'at'
p210
aS'the'
p211
aS'cat'
p212
aS'from'
p213
aS'head'
p214
aS'to'
p215
aS'foot'
p216
aS','
p217
aS'and'
p218
aS'for'
p219
aS'a'
p220
aS'long'
p221
aS'time'
p222
aS'did'
p223
aS'not'
p224
aS'know'
p225
aS'whether'
p226
aS'he'
p227
aS'would'
p228
aS'give'
p229
aS'any'
p230
aS'answer'
p231
aS'or'
p232
aS'not'
p233
aS'.'
p234
asg63
(lp235
VThe
p236
aVfox
p237
ag76
aVfull
p238
aVof
p239
aVall
p240
aVkind
p241
aVof
p242
aVarrogance
p243
ag76
aVlook
p244
aVat
p245
aVthe
p246
aVcat
p247
aVfrom
p248
aVhead
p249
aVto
p250
aVfoot
p251
ag76
aVand
p252
aVfor
p253
ag74
aVlong
p254
aVtime
p255
aVdo
p256
aVnot
p257
aVknow
p258
aVwhether
p259
aVhe
p260
aVwould
p261
aVgive
p262
aVany
p263
aVanswer
p264
aVor
p265
aVnot
p266
ag102
asg103
(lp267
g105
ag105
ag105
ag105
ag105
ag105
ag105
ag105
ag105
ag105
ag105
ag105
ag105
ag105
ag105
ag105
ag105
ag105
ag105
ag105
ag105
ag105
ag105
ag105
ag105
ag105
ag105
ag105
ag105
ag105
ag105
ag105
ag105
ag105
ag105
ag105
asg106
(lp268
g111
ag112
ag113
ag118
ag110
ag111
ag194
ag110
ag112
ag113
ag109
ag110
ag111
ag112
ag110
ag112
ag115
aS'VB'
p269
ag113
ag114
ag110
ag111
ag118
ag112
ag109
ag117
ag269
ag110
ag108
aS'MD'
p270
ag269
ag111
ag112
ag114
ag117
ag120
asg121
VThe fox, full of all kinds of arrogance, looked at the cat from head to foot, and for a long time did not know whether he would give any answer or not.
p271
sba(i__main__
Sentence
p272
(dp273
g17
I5
sg18
(lp274
S'At'
p275
aS'last'
p276
aS'he'
p277
aS'said'
p278
aS','
p279
aS'oh'
p280
aS','
p281
aS'you'
p282
aS'wretched'
p283
aS'beard-cleaner'
p284
aS','
p285
aS'you'
p286
aS'piebald'
p287
aS'fool'
p288
aS','
p289
aS'you'
p290
aS'hungry'
p291
aS'mouse-hunter'
p292
aS','
p293
aS'what'
p294
aS'can'
p295
aS'you'
p296
aS'be'
p297
aS'thinking'
p298
aS'of'
p299
aS'.'
p300
asg63
(lp301
VAt
p302
aVlast
p303
aVhe
p304
aVsay
p305
ag76
aVoh
p306
ag76
aVyou
p307
aVwretched
p308
aVbeard-cleaner
p309
ag76
aVyou
p310
aVpiebald
p311
aVfool
p312
ag76
aVyou
p313
aVhungry
p314
aVmouse-hunter
p315
ag76
aVwhat
p316
aVcan
p317
aVyou
p318
aVbe
p319
aVthink
p320
aVof
p321
ag102
asg103
(lp322
g105
ag105
ag105
ag105
ag105
ag105
ag105
ag105
ag105
ag105
ag105
ag105
ag105
ag105
ag105
ag105
ag105
ag105
ag105
ag105
ag105
ag105
ag105
ag105
ag105
ag105
asg106
(lp323
g110
ag118
ag108
ag109
ag113
ag112
ag113
ag108
ag109
ag118
ag113
ag108
ag270
ag269
ag113
ag108
ag150
ag118
ag113
aS'WP'
p324
ag270
ag108
ag269
ag193
ag110
ag120
asg121
VAt last he said, oh, you wretched beard-cleaner, you piebald fool, you hungry mouse-hunter, what can you be thinking of.
p325
sba(i__main__
Sentence
p326
(dp327
g17
I6
sg18
(lp328
S'Have'
p329
aS'you'
p330
aS'the'
p331
aS'cheek'
p332
aS'to'
p333
aS'ask'
p334
aS'how'
p335
aS'I'
p336
aS'am'
p337
aS'getting'
p338
aS'on'
p339
aS'.'
p340
asg63
(lp341
VHave
p342
aVyou
p343
aVthe
p344
aVcheek
p345
aVto
p346
aVask
p347
aVhow
p348
aVI
p349
aVbe
p350
ag185
aVon
p351
ag102
asg103
(lp352
g105
ag105
ag105
ag105
ag105
ag105
ag105
ag105
ag105
ag105
ag105
ag105
asg106
(lp353
g148
ag108
ag111
ag112
ag115
ag269
ag149
ag108
ag150
ag193
ag110
ag120
asg121
VHave you the cheek to ask how I am getting on.
p354
sba(i__main__
Sentence
p355
(dp356
g17
I7
sg18
(lp357
S'What'
p358
aS'have'
p359
aS'you'
p360
aS'learnt'
p361
aS'.'
p362
asg63
(lp363
VWhat
p364
aVhave
p365
aVyou
p366
aVlearn
p367
ag102
asg103
(lp368
g105
ag105
ag105
ag105
ag105
asg106
(lp369
g324
ag150
ag108
ag150
ag120
asg121
VWhat have you learnt.
p370
sba(i__main__
Sentence
p371
(dp372
g17
I8
sg18
(lp373
S'How'
p374
aS'many'
p375
aS'arts'
p376
aS'do'
p377
aS'you'
p378
aS'understand'
p379
aS'.'
p380
asg63
(lp381
VHow
p382
aVmany
p383
aVart
p384
aVdo
p385
aVyou
p386
aVunderstand
p387
ag102
asg103
(lp388
g105
ag105
ag105
ag105
ag105
ag105
ag105
asg106
(lp389
g149
ag118
ag194
ag150
ag108
ag269
ag120
asg121
VHow many arts do you understand.
p390
sba(i__main__
Sentence
p391
(dp392
g17
I9
sg18
(lp393
S'I'
p394
aS'understand'
p395
aS'but'
p396
aS'one'
p397
aS','
p398
aS'replied'
p399
aS'the'
p400
aS'cat'
p401
aS','
p402
aS'modestly'
p403
aS'.'
p404
asg63
(lp405
g349
aVunderstand
p406
aVbut
p407
aVone
p408
ag76
aVreply
p409
aVthe
p410
aVcat
p411
ag76
aVmodestly
p412
ag102
asg103
(lp413
g105
ag105
ag105
ag105
ag105
ag105
ag105
ag105
ag105
ag105
ag105
asg106
(lp414
g108
ag150
ag114
aS'CD'
p415
ag113
ag109
ag111
ag112
ag113
ag117
ag120
asg121
VI understand but one, replied the cat, modestly.
p416
sba(i__main__
Sentence
p417
(dp418
g17
I10
sg18
(lp419
S'What'
p420
aS'art'
p421
aS'is'
p422
aS'that'
p423
aS','
p424
aS'asked'
p425
aS'the'
p426
aS'fox'
p427
aS'.'
p428
asg63
(lp429
VWhat
p430
aVart
p431
ag83
aVthat
p432
ag76
aVask
p433
aVthe
p434
aVfox
p435
ag102
asg103
(lp436
g105
ag105
ag105
ag105
ag105
ag105
ag105
ag105
ag105
asg106
(lp437
g324
ag112
ag116
ag110
ag113
ag109
ag111
ag112
ag120
asg121
VWhat art is that, asked the fox.
p438
sba(i__main__
Sentence
p439
(dp440
g17
I11
sg18
(lp441
S'When'
p442
aS'the'
p443
aS'hounds'
p444
aS'are'
p445
aS'following'
p446
aS'me'
p447
aS','
p448
aS'I'
p449
aS'can'
p450
aS'spring'
p451
aS'into'
p452
aS'a'
p453
aS'tree'
p454
aS'and'
p455
aS'save'
p456
aS'myself'
p457
aS'.'
p458
asg63
(lp459
VWhen
p460
aVthe
p461
aVhound
p462
ag142
aVfollow
p463
aVme
p464
ag76
ag349
aVcan
p465
aVspring
p466
aVinto
p467
ag74
aVtree
p468
aVand
p469
aVsave
p470
aVmyself
p471
ag102
asg103
(lp472
g105
ag105
ag105
ag105
ag105
ag105
ag105
ag105
ag105
ag105
ag105
ag105
ag105
ag105
ag105
ag105
ag105
asg106
(lp473
g149
ag111
ag194
ag150
ag193
ag108
ag113
ag108
ag270
ag193
ag110
ag111
ag118
ag114
ag269
ag108
ag120
asg121
VWhen the hounds are following me, I can spring into a tree and save myself.
p474
sba(i__main__
Sentence
p475
(dp476
g17
I12
sg18
(lp477
S'Is'
p478
aS'that'
p479
aS'all'
p480
aS','
p481
aS'said'
p482
aS'the'
p483
aS'fox'
p484
aS'.'
p485
asg63
(lp486
VIs
p487
aVthat
p488
aVall
p489
ag76
ag305
aVthe
p490
aVfox
p491
ag102
asg103
(lp492
g105
ag105
ag105
ag105
ag105
ag105
ag105
ag105
asg106
(lp493
g116
ag110
ag111
ag113
ag109
ag111
ag112
ag120
asg121
VIs that all, said the fox.
p494
sba(i__main__
Sentence
p495
(dp496
g17
I13
sg18
(lp497
S'I'
p498
aS'am'
p499
aS'master'
p500
aS'of'
p501
aS'a'
p502
aS'hundred'
p503
aS'arts'
p504
aS','
p505
aS'and'
p506
aS'have'
p507
aS'into'
p508
aS'the'
p509
aS'bargain'
p510
aS'a'
p511
aS'sackful'
p512
aS'of'
p513
aS'cunning'
p514
aS'.'
p515
asg63
(lp516
g349
ag350
aVmaster
p517
aVof
p518
ag74
aVhundred
p519
aVart
p520
ag76
aVand
p521
aVhave
p522
aVinto
p523
aVthe
p524
aVbargain
p525
ag74
aVsackful
p526
aVof
p527
aVcunning
p528
ag102
asg103
(lp529
g105
ag105
ag105
ag105
ag105
ag105
ag105
ag105
ag105
ag105
ag105
ag105
ag105
ag105
ag105
ag105
ag105
ag105
asg106
(lp530
g108
ag150
ag112
ag110
ag111
ag415
ag194
ag113
ag114
ag150
ag110
ag111
ag112
ag111
ag118
ag110
ag112
ag120
asg121
VI am master of a hundred arts, and have into the bargain a sackful of cunning.
p531
sba(i__main__
Sentence
p532
(dp533
g17
I14
sg18
(lp534
S'You'
p535
aS'make'
p536
aS'me'
p537
aS'sorry'
p538
aS'for'
p539
aS'you'
p540
aS'.'
p541
asg63
(lp542
VYou
p543
aVmake
p544
aVme
p545
aVsorry
p546
aVfor
p547
aVyou
p548
ag102
asg103
(lp549
g105
ag105
ag105
ag105
ag105
ag105
ag105
asg106
(lp550
g108
ag150
ag108
ag150
ag110
ag108
ag120
asg121
VYou make me sorry for you.
p551
sba(i__main__
Sentence
p552
(dp553
g17
I15
sg18
(lp554
S'Come'
p555
aS'with'
p556
aS'me'
p557
aS','
p558
aS'I'
p559
aS'will'
p560
aS'teach'
p561
aS'you'
p562
aS'how'
p563
aS'people'
p564
aS'get'
p565
aS'away'
p566
aS'from'
p567
aS'the'
p568
aS'hounds'
p569
aS'.'
p570
asg63
(lp571
VCome
p572
aVwith
p573
aVme
p574
ag76
ag349
aVwill
p575
aVteach
p576
aVyou
p577
aVhow
p578
aVpeople
p579
aVget
p580
aVaway
p581
aVfrom
p582
aVthe
p583
aVhound
p584
ag102
asg103
(lp585
g105
ag105
ag105
ag105
ag105
ag105
ag105
ag105
ag105
ag105
ag105
ag105
ag105
ag105
ag105
ag105
asg106
(lp586
g148
ag110
ag108
ag113
ag108
ag270
ag269
ag108
ag149
ag194
ag150
ag117
ag110
ag111
ag194
ag120
asg121
VCome with me, I will teach you how people get away from the hounds.
p587
sba(i__main__
Sentence
p588
(dp589
g17
I16
sg18
(lp590
S'Just'
p591
aS'then'
p592
aS'came'
p593
aS'a'
p594
aS'hunter'
p595
aS'with'
p596
aS'four'
p597
aS'dogs'
p598
aS'.'
p599
asg63
(lp600
VJust
p601
aVthen
p602
aVcome
p603
ag74
aVhunter
p604
aVwith
p605
aVfour
p606
aVdog
p607
ag102
asg103
(lp608
g105
ag105
ag105
ag105
ag105
ag105
ag105
ag105
ag105
asg106
(lp609
g117
ag117
ag109
ag111
ag112
ag110
ag415
ag194
ag120
asg121
VJust then came a hunter with four dogs.
p610
sba(i__main__
Sentence
p611
(dp612
g17
I17
sg18
(lp613
S'The'
p614
aS'cat'
p615
aS'sprang'
p616
aS'nimbly'
p617
aS'up'
p618
aS'a'
p619
aS'tree'
p620
aS','
p621
aS'and'
p622
aS'sat'
p623
aS'down'
p624
aS'on'
p625
aS'top'
p626
aS'of'
p627
aS'it'
p628
aS','
p629
aS'where'
p630
aS'the'
p631
aS'branches'
p632
aS'and'
p633
aS'foliage'
p634
aS'quite'
p635
aS'concealed'
p636
aS'her'
p637
aS'.'
p638
asg63
(lp639
VThe
p640
aVcat
p641
aVsprang
p642
aVnimbly
p643
aVup
p644
ag74
aVtree
p645
ag76
aVand
p646
aVsit
p647
aVdown
p648
aVon
p649
aVtop
p650
aVof
p651
aVit
p652
ag76
aVwhere
p653
aVthe
p654
aVbranch
p655
aVand
p656
aVfoliage
p657
aVquite
p658
aVconceal
p659
aVher
p660
ag102
asg103
(lp661
g105
ag105
ag105
ag105
ag105
ag105
ag105
ag105
ag105
ag105
ag105
ag105
ag105
ag105
ag105
ag105
ag105
ag105
ag105
ag105
ag105
ag105
ag105
ag105
ag105
asg106
(lp662
g111
ag112
ag112
ag117
ag110
ag111
ag112
ag113
ag114
ag269
aS'RP'
p663
ag110
ag118
ag110
ag108
ag113
ag149
ag111
ag194
ag114
ag112
ag117
ag119
aS'PRP$'
p664
ag120
asg121
VThe cat sprang nimbly up a tree, and sat down on top of it, where the branches and foliage quite concealed her.
p665
sba(i__main__
Sentence
p666
(dp667
g17
I18
sg18
(lp668
S'Open'
p669
aS'your'
p670
aS'sack'
p671
aS','
p672
aS'mr.'
p673
aS'Fox'
p674
aS','
p675
aS'open'
p676
aS'your'
p677
aS'sack'
p678
aS','
p679
aS'cried'
p680
aS'the'
p681
aS'cat'
p682
aS'to'
p683
aS'him'
p684
aS','
p685
aS'but'
p686
aS'the'
p687
aS'dogs'
p688
aS'had'
p689
aS'already'
p690
aS'seized'
p691
aS'him'
p692
aS','
p693
aS'and'
p694
aS'were'
p695
aS'holding'
p696
aS'him'
p697
aS'fast'
p698
aS'.'
p699
asg63
(lp700
VOpen
p701
aVyour
p702
aVsack
p703
ag76
aVmr.
p704
aVFox
p705
ag76
aVopen
p706
aVyour
p707
aVsack
p708
ag76
aVcry
p709
aVthe
p710
aVcat
p711
aVto
p712
aVhim
p713
ag76
aVbut
p714
aVthe
p715
aVdog
p716
aVhave
p717
aValready
p718
aVseize
p719
aVhim
p720
ag76
aVand
p721
aVbe
p722
aVhold
p723
aVhim
p724
aVfast
p725
ag102
asg103
(lp726
g105
ag105
ag105
ag105
ag105
aVPERSON
p727
ag105
ag105
ag105
ag105
ag105
ag105
ag105
ag105
ag105
ag105
ag105
ag105
ag105
ag105
ag105
ag105
ag105
ag105
ag105
ag105
ag105
ag105
ag105
ag105
ag105
asg106
(lp728
g148
ag664
ag112
ag113
ag148
ag148
ag113
ag118
ag664
ag112
ag113
ag109
ag111
ag112
ag115
ag108
ag113
ag114
ag111
ag194
ag109
ag117
ag119
ag108
ag113
ag114
ag109
ag193
ag108
ag117
ag120
asg121
VOpen your sack, mr. Fox, open your sack, cried the cat to him, but the dogs had already seized him, and were holding him fast.
p729
sba(i__main__
Sentence
p730
(dp731
g17
I19
sg18
(lp732
S'Ah'
p733
aS','
p734
aS'mr.'
p735
aS'Fox'
p736
aS','
p737
aS'cried'
p738
aS'the'
p739
aS'cat'
p740
aS'.'
p741
asg63
(lp742
VAh
p743
ag76
aVmr.
p744
aVFox
p745
ag76
ag709
aVthe
p746
aVcat
p747
ag102
asg103
(lp748
g105
ag105
ag105
aVPERSON
p749
ag105
ag105
ag105
ag105
ag105
asg106
(lp750
g148
ag113
ag148
ag148
ag113
ag109
ag111
ag112
ag120
asg121
VAh, mr. Fox, cried the cat.
p751
sba(i__main__
Sentence
p752
(dp753
g17
I20
sg18
(lp754
S'You'
p755
aS'with'
p756
aS'your'
p757
aS'hundred'
p758
aS'arts'
p759
aS'are'
p760
aS'left'
p761
aS'in'
p762
aS'the'
p763
aS'lurch'
p764
aS'.'
p765
asg63
(lp766
VYou
p767
aVwith
p768
aVyour
p769
aVhundred
p770
aVart
p771
ag142
aVleave
p772
aVin
p773
aVthe
p774
aVlurch
p775
ag102
asg103
(lp776
g105
ag105
ag105
ag105
ag105
ag105
ag105
ag105
ag105
ag105
ag105
asg106
(lp777
g108
ag110
ag664
ag119
ag194
ag150
ag119
ag110
ag111
ag112
ag120
asg121
VYou with your hundred arts are left in the lurch.
p778
sba(i__main__
Sentence
p779
(dp780
g17
I21
sg18
(lp781
S'Had'
p782
aS'you'
p783
aS'been'
p784
aS'able'
p785
aS'to'
p786
aS'climb'
p787
aS'like'
p788
aS'me'
p789
aS','
p790
aS'you'
p791
aS'would'
p792
aS'not'
p793
aS'have'
p794
aS'lost'
p795
aS'your'
p796
aS'life'
p797
aS'.'
p798
asg63
(lp799
VHad
p800
aVyou
p801
aVbe
p802
aVable
p803
aVto
p804
aVclimb
p805
aVlike
p806
aVme
p807
ag76
aVyou
p808
aVwould
p809
aVnot
p810
aVhave
p811
aVlose
p812
aVyour
p813
aVlife
p814
ag102
asg103
(lp815
g105
ag105
ag105
ag105
ag105
ag105
ag105
ag105
ag105
ag105
ag105
ag105
ag105
ag105
ag105
ag105
ag105
asg106
(lp816
g148
ag108
ag119
ag118
ag115
ag269
ag110
ag108
ag113
ag108
ag270
ag117
ag269
ag119
ag664
ag112
ag120
asg121
VHad you been able to climb like me, you would not have lost your life. 
p817
sbasbsS'summary'
p818
g0
(g7
g2
Ntp819
Rp820
(dp821
g11
S'A cat meets with a fox and believes the fox to be clever and highly intelligent. When the fox speaks to the cat, he is arrogant. The hounds get after both the cat and the fox. The cat climbs a tree and gets away. The fox is caught.'
p822
sg13
(lp823
(i__main__
Sentence
p824
(dp825
g17
I0
sg18
(lp826
S'A'
p827
aS'cat'
p828
aS'meets'
p829
aS'with'
p830
aS'a'
p831
aS'fox'
p832
aS'and'
p833
aS'believes'
p834
aS'the'
p835
aS'fox'
p836
aS'to'
p837
aS'be'
p838
aS'clever'
p839
aS'and'
p840
aS'highly'
p841
aS'intelligent'
p842
aS'.'
p843
asg63
(lp844
VA
p845
aVcat
p846
aVmeet
p847
aVwith
p848
ag74
aVfox
p849
aVand
p850
aVbelieve
p851
aVthe
p852
aVfox
p853
aVto
p854
aVbe
p855
aVclever
p856
aVand
p857
aVhighly
p858
aVintelligent
p859
ag102
asg103
(lp860
g105
ag105
ag105
ag105
ag105
ag105
ag105
ag105
ag105
ag105
ag105
ag105
ag105
ag105
ag105
ag105
ag105
asg106
(lp861
g111
ag112
ag194
ag110
ag111
ag112
ag114
ag116
ag111
ag112
ag115
ag269
ag117
ag114
ag117
ag118
ag120
asg121
VA cat meets with a fox and believes the fox to be clever and highly intelligent.
p862
sba(i__main__
Sentence
p863
(dp864
g17
I1
sg18
(lp865
S'When'
p866
aS'the'
p867
aS'fox'
p868
aS'speaks'
p869
aS'to'
p870
aS'the'
p871
aS'cat'
p872
aS','
p873
aS'he'
p874
aS'is'
p875
aS'arrogant'
p876
aS'.'
p877
asg63
(lp878
VWhen
p879
aVthe
p880
aVfox
p881
aVspeak
p882
aVto
p883
aVthe
p884
aVcat
p885
ag76
aVhe
p886
ag83
aVarrogant
p887
ag102
asg103
(lp888
g105
ag105
ag105
ag105
ag105
ag105
ag105
ag105
ag105
ag105
ag105
ag105
asg106
(lp889
g149
ag111
ag112
ag116
ag115
ag111
ag112
ag113
ag108
ag116
ag118
ag120
asg121
VWhen the fox speaks to the cat, he is arrogant.
p890
sba(i__main__
Sentence
p891
(dp892
g17
I2
sg18
(lp893
S'The'
p894
aS'hounds'
p895
aS'get'
p896
aS'after'
p897
aS'both'
p898
aS'the'
p899
aS'cat'
p900
aS'and'
p901
aS'the'
p902
aS'fox'
p903
aS'.'
p904
asg63
(lp905
VThe
p906
aVhound
p907
aVget
p908
aVafter
p909
aVboth
p910
aVthe
p911
aVcat
p912
aVand
p913
aVthe
p914
aVfox
p915
ag102
asg103
(lp916
g105
ag105
ag105
ag105
ag105
ag105
ag105
ag105
ag105
ag105
ag105
asg106
(lp917
g111
ag194
ag150
ag110
ag111
ag111
ag112
ag114
ag111
ag112
ag120
asg121
VThe hounds get after both the cat and the fox.
p918
sba(i__main__
Sentence
p919
(dp920
g17
I3
sg18
(lp921
S'The'
p922
aS'cat'
p923
aS'climbs'
p924
aS'a'
p925
aS'tree'
p926
aS'and'
p927
aS'gets'
p928
aS'away'
p929
aS'.'
p930
asg63
(lp931
VThe
p932
aVcat
p933
aVclimb
p934
ag74
aVtree
p935
aVand
p936
aVget
p937
aVaway
p938
ag102
asg103
(lp939
g105
ag105
ag105
ag105
ag105
ag105
ag105
ag105
ag105
asg106
(lp940
g111
ag112
ag194
ag111
ag112
ag114
ag116
ag117
ag120
asg121
VThe cat climbs a tree and gets away.
p941
sba(i__main__
Sentence
p942
(dp943
g17
I4
sg18
(lp944
S'The'
p945
aS'fox'
p946
aS'is'
p947
aS'caught'
p948
aS'.'
p949
asg63
(lp950
VThe
p951
aVfox
p952
ag83
aVcatch
p953
ag102
asg103
(lp954
g105
ag105
ag105
ag105
ag105
asg106
(lp955
g111
ag112
ag116
ag119
ag120
asg121
VThe fox is caught.
p956
sbasbsS'name'
p957
S'The Fox and the Cat'
p958
sS'summaries'
p959
(lp960
g820
asb.