ccopy_reg
_reconstructor
p0
(c__main__
Story
p1
c__builtin__
object
p2
Ntp3
Rp4
(dp5
S'text'
p6
g0
(c__main__
Document
p7
g2
Ntp8
Rp9
(dp10
S'_Document__initialContent'
p11
S"There was once a man who had seven sons, and still he had\nno daughter, however much he wished for one.  At length his\nwife again gave him hope of a child, and when it came into\nthe world it was a girl.  The joy was great, but the child was\nsickly and small, and had to be privately baptized on account of\nits weakness.  The father sent one of the boys in haste to the\nspring to fetch water for the baptism.  The other six went with\nhim, and as each of them wanted to be first to fill it, the jug\nfell into the well.  There they stood and did not know what to do,\nand none of them dared to go home.  As they still did not return,\nthe father grew impatient, and said, they have certainly forgotten\nit while playing some game, the wicked boys.  He became afraid that\nthe girl would have to die without being baptized, and in his\nanger cried, I wish the boys were all turned into ravens.  Hardly\nwas the word spoken before he heard a whirring of wings over his\nhead, looked up and saw seven coal-black ravens flying away.\n\nThe parents could not withdraw the curse, and however sad they\nwere at the loss of their seven sons, they still to some extent\ncomforted themselves with their dear little daughter, who soon\ngrew strong and every day became more beautiful.  For a long time\nshe did not know that she had had brothers, for her parents were\ncareful not to mention them before her, but one day she\naccidentally heard some people saying of herself, that the girl was\ncertainly beautiful, but that in reality she was to blame for the\nmisfortune which had befallen her seven brothers.  Then she was much\ntroubled, and went to her father and mother and asked if it was\ntrue that she had had brothers, and what had become of them.  The\nparents now dared keep the secret no longer, but said that what\nhad befallen her brothers was the will of heaven, and that her\nbirth had only been the innocent cause.  But the maiden took it to\nheart daily, and thought she must save her brothers.  She had no\nrest or peace until she set out secretly, and went forth into the\nwide world to search for her brothers and set them free, let it\ncost what it might.  She took nothing with her but a little ring\nbelonging to her parents as a keepsake, a loaf of bread against\nhunger, a little pitcher of water against thirst, and a little\nchair as a provision against weariness.\n\nAnd now she went continually onwards, far, far to the very end of\nthe world.  Then she came to the sun, but it was too hot and\nterrible, and devoured little children.  Hastily she ran away, and\nran to the moon, but it was far too cold, and also awful and\nmalicious, and when it saw the child, it said, I smell, I smell\nthe flesh of men.  At this she ran swiftly away, and came to the\nstars, which were kind and good to her, and each of them sat on its\nown particular little chair.  But the morning star arose, and gave\nher the drumstick of a chicken, and said, if you have not that\ndrumstick you can not open the glass mountain, and in the glass\nmountain are your brothers.\n\nThe maiden took the drumstick, wrapped it carefully in a cloth,\nand went onwards again until she came to the glass mountain.  The\ndoor was shut, and she thought she would take out the drumstick.\nBut when she undid the cloth, it was empty, and she had lost the\ngood star's present.  What was she now to do.  She wished to rescue\nher brothers, and had no key to the glass mountain.  The good\nsister took a knife, cut off one of her little fingers, put it in\nthe door, and succeeded in opening it.  When she had gone inside, a\nlittle dwarf came to meet her, who said, my child, what are you\nlooking for.  I am looking for my brothers, the seven ravens, she\nreplied.  The dwarf said, the lord ravens are not at home, but if\nyou will wait here until they come, step in.  Thereupon the little\ndwarf carried the ravens' dinner in, on seven little plates, and\nin seven little glasses, and the little sister ate a morsel from\neach plate, and from each little glass she took a sip, but in the\nlast little glass she dropped the ring which she had brought away\nwith her.\n\nSuddenly she heard a whirring of wings and a rushing through\nthe air, and then the little dwarf said, now the lord ravens are\nflying home.  Then they came, and wanted to eat and drink, and\nlooked for their little plates and glasses.  Then said one after\nthe other, who has eaten something from my plate.  Who has drunk\nout of my little glass.  It was a human mouth.  And when the\nseventh came to the bottom of the glass, the ring rolled against\nhis mouth.  Then he looked at it, and saw that it was a ring\nbelonging to his father and mother, and said, God grant that our\nsister may be here, and then we shall be free.  When the maiden,\nwho was standing behind the door watching, heard that wish,\nshe came forth, and on this all the ravens were restored to their\nhuman form again.  And they embraced and kissed each other,\nand went joyfully home.\n"
p12
sS'sentences'
p13
(lp14
(i__main__
Sentence
p15
(dp16
S'index'
p17
I0
sS'words'
p18
(lp19
S'There'
p20
aS'was'
p21
aS'once'
p22
aS'a'
p23
aS'man'
p24
aS'who'
p25
aS'had'
p26
aS'seven'
p27
aS'sons'
p28
aS','
p29
aS'and'
p30
aS'still'
p31
aS'he'
p32
aS'had'
p33
aS'no'
p34
aS'daughter'
p35
aS','
p36
aS'however'
p37
aS'much'
p38
aS'he'
p39
aS'wished'
p40
aS'for'
p41
aS'one'
p42
aS'.'
p43
asS'lemmas'
p44
(lp45
VThere
p46
aVbe
p47
aVonce
p48
aVa
p49
aVman
p50
aVwho
p51
aVhave
p52
aVseven
p53
aVson
p54
aV,
p55
aVand
p56
aVstill
p57
aVhe
p58
ag52
aVno
p59
aVdaughter
p60
ag55
aVhowever
p61
aVmuch
p62
aVhe
p63
aVwish
p64
aVfor
p65
aVone
p66
aV.
p67
asS'nerTags'
p68
(lp69
VO
p70
ag70
ag70
ag70
ag70
ag70
ag70
ag70
ag70
ag70
ag70
ag70
ag70
ag70
ag70
ag70
ag70
ag70
ag70
ag70
ag70
ag70
ag70
ag70
asS'posTags'
p71
(lp72
S'EX'
p73
aS'VBD'
p74
aS'RB'
p75
aS'DT'
p76
aS'NN'
p77
aS'WP'
p78
ag74
aS'VBN'
p79
aS'NNS'
p80
aS','
p81
aS'CC'
p82
ag75
aS'PRP'
p83
ag74
ag76
ag77
ag81
ag75
aS'JJ'
p84
ag83
ag74
aS'IN'
p85
aS'CD'
p86
aS'.'
p87
asS'_Sentence__initialContent'
p88
VThere was once a man who had seven sons, and still he had no daughter, however much he wished for one.
p89
sba(i__main__
Sentence
p90
(dp91
g17
I1
sg18
(lp92
S'At'
p93
aS'length'
p94
aS'his'
p95
aS'wife'
p96
aS'again'
p97
aS'gave'
p98
aS'him'
p99
aS'hope'
p100
aS'of'
p101
aS'a'
p102
aS'child'
p103
aS','
p104
aS'and'
p105
aS'when'
p106
aS'it'
p107
aS'came'
p108
aS'into'
p109
aS'the'
p110
aS'world'
p111
aS'it'
p112
aS'was'
p113
aS'a'
p114
aS'girl'
p115
aS'.'
p116
asg44
(lp117
VAt
p118
aVlength
p119
aVhis
p120
aVwife
p121
aVagain
p122
aVgive
p123
aVhim
p124
aVhope
p125
aVof
p126
ag49
aVchild
p127
ag55
aVand
p128
aVwhen
p129
aVit
p130
aVcome
p131
aVinto
p132
aVthe
p133
aVworld
p134
aVit
p135
ag47
ag49
aVgirl
p136
ag67
asg68
(lp137
g70
ag70
ag70
ag70
ag70
ag70
ag70
ag70
ag70
ag70
ag70
ag70
ag70
ag70
ag70
ag70
ag70
ag70
ag70
ag70
ag70
ag70
ag70
ag70
asg71
(lp138
g85
ag77
aS'PRP$'
p139
ag77
ag75
ag74
ag83
aS'VBP'
p140
ag85
ag76
ag77
ag81
ag82
aS'WRB'
p141
ag83
ag74
ag85
ag76
ag77
ag83
ag74
ag76
ag77
ag87
asg88
VAt length his wife again gave him hope of a child, and when it came into the world it was a girl.
p142
sba(i__main__
Sentence
p143
(dp144
g17
I2
sg18
(lp145
S'The'
p146
aS'joy'
p147
aS'was'
p148
aS'great'
p149
aS','
p150
aS'but'
p151
aS'the'
p152
aS'child'
p153
aS'was'
p154
aS'sickly'
p155
aS'and'
p156
aS'small'
p157
aS','
p158
aS'and'
p159
aS'had'
p160
aS'to'
p161
aS'be'
p162
aS'privately'
p163
aS'baptized'
p164
aS'on'
p165
aS'account'
p166
aS'of'
p167
aS'its'
p168
aS'weakness'
p169
aS'.'
p170
asg44
(lp171
VThe
p172
aVjoy
p173
ag47
aVgreat
p174
ag55
aVbut
p175
aVthe
p176
aVchild
p177
ag47
aVsickly
p178
aVand
p179
aVsmall
p180
ag55
aVand
p181
ag52
aVto
p182
aVbe
p183
aVprivately
p184
aVbaptize
p185
aVon
p186
aVaccount
p187
aVof
p188
aVit
p189
aVweakness
p190
ag67
asg68
(lp191
g70
ag70
ag70
ag70
ag70
ag70
ag70
ag70
ag70
ag70
ag70
ag70
ag70
ag70
ag70
ag70
ag70
ag70
ag70
ag70
ag70
ag70
ag70
ag70
ag70
asg71
(lp192
g76
ag77
ag74
ag84
ag81
ag82
ag76
ag77
ag74
ag75
ag82
ag84
ag81
ag82
ag74
aS'TO'
p193
aS'VB'
p194
ag75
ag79
ag85
ag77
ag85
ag139
ag77
ag87
asg88
VThe joy was great, but the child was sickly and small, and had to be privately baptized on account of its weakness.
p195
sba(i__main__
Sentence
p196
(dp197
g17
I3
sg18
(lp198
S'The'
p199
aS'father'
p200
aS'sent'
p201
aS'one'
p202
aS'of'
p203
aS'the'
p204
aS'boys'
p205
aS'in'
p206
aS'haste'
p207
aS'to'
p208
aS'the'
p209
aS'spring'
p210
aS'to'
p211
aS'fetch'
p212
aS'water'
p213
aS'for'
p214
aS'the'
p215
aS'baptism'
p216
aS'.'
p217
asg44
(lp218
VThe
p219
aVfather
p220
aVsent
p221
aVone
p222
aVof
p223
aVthe
p224
aVboy
p225
aVin
p226
aVhaste
p227
aVto
p228
aVthe
p229
aVspring
p230
aVto
p231
aVfetch
p232
aVwater
p233
aVfor
p234
aVthe
p235
aVbaptism
p236
ag67
asg68
(lp237
g70
ag70
ag70
ag70
ag70
ag70
ag70
ag70
ag70
ag70
ag70
ag70
ag70
ag70
ag70
ag70
ag70
ag70
ag70
asg71
(lp238
g76
ag77
ag77
ag86
ag85
ag76
ag80
ag85
ag77
ag193
ag76
ag77
ag193
ag194
ag77
ag85
ag76
ag77
ag87
asg88
VThe father sent one of the boys in haste to the spring to fetch water for the baptism.
p239
sba(i__main__
Sentence
p240
(dp241
g17
I4
sg18
(lp242
S'The'
p243
aS'other'
p244
aS'six'
p245
aS'went'
p246
aS'with'
p247
aS'him'
p248
aS','
p249
aS'and'
p250
aS'as'
p251
aS'each'
p252
aS'of'
p253
aS'them'
p254
aS'wanted'
p255
aS'to'
p256
aS'be'
p257
aS'first'
p258
aS'to'
p259
aS'fill'
p260
aS'it'
p261
aS','
p262
aS'the'
p263
aS'jug'
p264
aS'fell'
p265
aS'into'
p266
aS'the'
p267
aS'well'
p268
aS'.'
p269
asg44
(lp270
VThe
p271
aVother
p272
aVsix
p273
aVwent
p274
aVwith
p275
aVhim
p276
ag55
aVand
p277
ag49
aVeach
p278
aVof
p279
aVthem
p280
aVwant
p281
aVto
p282
aVbe
p283
aVfirst
p284
aVto
p285
aVfill
p286
aVit
p287
ag55
aVthe
p288
aVjug
p289
aVfell
p290
aVinto
p291
aVthe
p292
aVwell
p293
ag67
asg68
(lp294
g70
ag70
ag70
ag70
ag70
ag70
ag70
ag70
ag70
ag70
ag70
ag70
ag70
ag70
ag70
ag70
ag70
ag70
ag70
ag70
ag70
ag70
ag70
ag70
ag70
ag70
ag70
asg71
(lp295
g76
ag84
ag86
ag77
ag85
ag83
ag81
ag82
ag85
ag76
ag85
ag83
ag74
ag193
ag194
ag75
ag193
ag194
ag83
ag81
ag76
ag77
ag74
ag85
ag76
ag75
ag87
asg88
VThe other six went with him, and as each of them wanted to be first to fill it, the jug fell into the well.
p296
sba(i__main__
Sentence
p297
(dp298
g17
I5
sg18
(lp299
S'There'
p300
aS'they'
p301
aS'stood'
p302
aS'and'
p303
aS'did'
p304
aS'not'
p305
aS'know'
p306
aS'what'
p307
aS'to'
p308
aS'do'
p309
aS','
p310
aS'and'
p311
aS'none'
p312
aS'of'
p313
aS'them'
p314
aS'dared'
p315
aS'to'
p316
aS'go'
p317
aS'home'
p318
aS'.'
p319
asg44
(lp320
VThere
p321
aVthey
p322
aVstand
p323
aVand
p324
aVdo
p325
aVnot
p326
aVknow
p327
aVwhat
p328
aVto
p329
aVdo
p330
ag55
aVand
p331
aVnone
p332
aVof
p333
aVthem
p334
aVdare
p335
aVto
p336
aVgo
p337
aVhome
p338
ag67
asg68
(lp339
g70
ag70
ag70
ag70
ag70
ag70
ag70
ag70
ag70
ag70
ag70
ag70
ag70
ag70
ag70
ag70
ag70
ag70
ag70
ag70
asg71
(lp340
g73
ag83
ag74
ag82
ag74
ag75
ag194
ag78
ag193
ag194
ag81
ag82
ag77
ag85
ag83
ag74
ag193
ag194
ag75
ag87
asg88
VThere they stood and did not know what to do, and none of them dared to go home.
p341
sba(i__main__
Sentence
p342
(dp343
g17
I6
sg18
(lp344
S'As'
p345
aS'they'
p346
aS'still'
p347
aS'did'
p348
aS'not'
p349
aS'return'
p350
aS','
p351
aS'the'
p352
aS'father'
p353
aS'grew'
p354
aS'impatient'
p355
aS','
p356
aS'and'
p357
aS'said'
p358
aS','
p359
aS'they'
p360
aS'have'
p361
aS'certainly'
p362
aS'forgotten'
p363
aS'it'
p364
aS'while'
p365
aS'playing'
p366
aS'some'
p367
aS'game'
p368
aS','
p369
aS'the'
p370
aS'wicked'
p371
aS'boys'
p372
aS'.'
p373
asg44
(lp374
VAs
p375
aVthey
p376
aVstill
p377
ag325
aVnot
p378
aVreturn
p379
ag55
aVthe
p380
aVfather
p381
aVgrow
p382
aVimpatient
p383
ag55
aVand
p384
aVsay
p385
ag55
aVthey
p386
aVhave
p387
aVcertainly
p388
aVforget
p389
aVit
p390
aVwhile
p391
aVplay
p392
aVsome
p393
aVgame
p394
ag55
aVthe
p395
aVwicked
p396
aVboy
p397
ag67
asg68
(lp398
g70
ag70
ag70
ag70
ag70
ag70
ag70
ag70
ag70
ag70
ag70
ag70
ag70
ag70
ag70
ag70
ag70
ag70
ag70
ag70
ag70
ag70
ag70
ag70
ag70
ag70
ag70
ag70
ag70
asg71
(lp399
g85
ag83
ag75
ag74
ag75
ag194
ag81
ag76
ag77
ag74
ag77
ag81
ag82
ag74
ag81
ag83
ag140
ag75
ag79
ag83
ag85
aS'VBG'
p400
ag76
ag77
ag81
ag76
ag79
ag80
ag87
asg88
VAs they still did not return, the father grew impatient, and said, they have certainly forgotten it while playing some game, the wicked boys.
p401
sba(i__main__
Sentence
p402
(dp403
g17
I7
sg18
(lp404
S'He'
p405
aS'became'
p406
aS'afraid'
p407
aS'that'
p408
aS'the'
p409
aS'girl'
p410
aS'would'
p411
aS'have'
p412
aS'to'
p413
aS'die'
p414
aS'without'
p415
aS'being'
p416
aS'baptized'
p417
aS','
p418
aS'and'
p419
aS'in'
p420
aS'his'
p421
aS'anger'
p422
aS'cried'
p423
aS','
p424
aS'I'
p425
aS'wish'
p426
aS'the'
p427
aS'boys'
p428
aS'were'
p429
aS'all'
p430
aS'turned'
p431
aS'into'
p432
aS'ravens'
p433
aS'.'
p434
asg44
(lp435
VHe
p436
aVbecome
p437
aVafraid
p438
aVthat
p439
aVthe
p440
aVgirl
p441
aVwould
p442
aVhave
p443
aVto
p444
aVdie
p445
aVwithout
p446
aVbe
p447
aVbaptize
p448
ag55
aVand
p449
aVin
p450
aVhis
p451
aVanger
p452
aVcry
p453
ag55
aVI
p454
aVwish
p455
aVthe
p456
aVboy
p457
aVbe
p458
aVall
p459
aVturn
p460
aVinto
p461
aVraven
p462
ag67
asg68
(lp463
g70
ag70
ag70
ag70
ag70
ag70
ag70
ag70
ag70
ag70
ag70
ag70
ag70
ag70
ag70
ag70
ag70
ag70
ag70
ag70
ag70
ag70
ag70
ag70
ag70
ag70
ag70
ag70
ag70
ag70
asg71
(lp464
g83
ag74
ag84
ag85
ag76
ag77
aS'MD'
p465
ag194
ag193
ag194
ag85
ag400
ag79
ag81
ag82
ag85
ag139
ag77
ag74
ag81
ag83
ag140
ag76
ag80
ag74
ag76
ag79
ag85
ag80
ag87
asg88
VHe became afraid that the girl would have to die without being baptized, and in his anger cried, I wish the boys were all turned into ravens.
p466
sba(i__main__
Sentence
p467
(dp468
g17
I8
sg18
(lp469
S'Hardly'
p470
aS'was'
p471
aS'the'
p472
aS'word'
p473
aS'spoken'
p474
aS'before'
p475
aS'he'
p476
aS'heard'
p477
aS'a'
p478
aS'whirring'
p479
aS'of'
p480
aS'wings'
p481
aS'over'
p482
aS'his'
p483
aS'head'
p484
aS','
p485
aS'looked'
p486
aS'up'
p487
aS'and'
p488
aS'saw'
p489
aS'seven'
p490
aS'coal-black'
p491
aS'ravens'
p492
aS'flying'
p493
aS'away'
p494
aS'.'
p495
asg44
(lp496
VHardly
p497
ag47
aVthe
p498
aVword
p499
aVspoken
p500
aVbefore
p501
aVhe
p502
aVhear
p503
ag49
aVwhirring
p504
aVof
p505
aVwing
p506
aVover
p507
aVhis
p508
aVhead
p509
ag55
aVlook
p510
aVup
p511
aVand
p512
aVsaw
p513
aVseven
p514
aVcoal-black
p515
aVraven
p516
aVfly
p517
aVaway
p518
ag67
asg68
(lp519
g70
ag70
ag70
ag70
ag70
ag70
ag70
ag70
ag70
ag70
ag70
ag70
ag70
ag70
ag70
ag70
ag70
ag70
ag70
ag70
ag70
ag70
ag70
ag70
ag70
ag70
asg71
(lp520
g75
ag74
ag76
ag77
ag77
ag85
ag83
ag74
ag76
ag77
ag85
ag80
ag85
ag139
ag77
ag81
ag74
aS'RP'
p521
ag82
ag74
ag86
ag84
ag80
ag400
ag75
ag87
asg88
VHardly was the word spoken before he heard a whirring of wings over his head, looked up and saw seven coal-black ravens flying away.
p522
sba(i__main__
Sentence
p523
(dp524
g17
I9
sg18
(lp525
S'The'
p526
aS'parents'
p527
aS'could'
p528
aS'not'
p529
aS'withdraw'
p530
aS'the'
p531
aS'curse'
p532
aS','
p533
aS'and'
p534
aS'however'
p535
aS'sad'
p536
aS'they'
p537
aS'were'
p538
aS'at'
p539
aS'the'
p540
aS'loss'
p541
aS'of'
p542
aS'their'
p543
aS'seven'
p544
aS'sons'
p545
aS','
p546
aS'they'
p547
aS'still'
p548
aS'to'
p549
aS'some'
p550
aS'extent'
p551
aS'comforted'
p552
aS'themselves'
p553
aS'with'
p554
aS'their'
p555
aS'dear'
p556
aS'little'
p557
aS'daughter'
p558
aS','
p559
aS'who'
p560
aS'soon'
p561
aS'grew'
p562
aS'strong'
p563
aS'and'
p564
aS'every'
p565
aS'day'
p566
aS'became'
p567
aS'more'
p568
aS'beautiful'
p569
aS'.'
p570
asg44
(lp571
VThe
p572
aVparent
p573
aVcould
p574
aVnot
p575
aVwithdraw
p576
aVthe
p577
aVcurse
p578
ag55
aVand
p579
aVhowever
p580
aVsad
p581
aVthey
p582
ag458
aVat
p583
aVthe
p584
aVloss
p585
aVof
p586
aVtheir
p587
aVseven
p588
aVson
p589
ag55
aVthey
p590
aVstill
p591
aVto
p592
aVsome
p593
aVextent
p594
aVcomfort
p595
aVthemselves
p596
aVwith
p597
aVtheir
p598
aVdear
p599
aVlittle
p600
aVdaughter
p601
ag55
aVwho
p602
aVsoon
p603
ag382
aVstrong
p604
aVand
p605
aVevery
p606
aVday
p607
ag437
aVmore
p608
aVbeautiful
p609
ag67
asg68
(lp610
g70
ag70
ag70
ag70
ag70
ag70
ag70
ag70
ag70
ag70
ag70
ag70
ag70
ag70
ag70
ag70
ag70
ag70
ag70
ag70
ag70
ag70
ag70
ag70
ag70
ag70
ag70
ag70
ag70
ag70
ag70
ag70
ag70
ag70
ag70
ag70
ag70
ag70
ag70
ag70
ag70
ag70
ag70
ag70
ag70
asg71
(lp611
g76
ag80
ag465
ag75
ag194
ag76
ag77
ag81
ag82
ag75
ag84
ag83
ag74
ag85
ag76
ag77
ag85
ag139
ag86
ag80
ag81
ag83
ag75
ag193
ag76
ag77
ag74
ag83
ag85
ag139
ag84
ag84
ag77
ag81
ag78
ag75
ag74
ag84
ag82
ag76
ag77
ag74
aS'JJR'
p612
ag84
ag87
asg88
VThe parents could not withdraw the curse, and however sad they were at the loss of their seven sons, they still to some extent comforted themselves with their dear little daughter, who soon grew strong and every day became more beautiful.
p613
sba(i__main__
Sentence
p614
(dp615
g17
I10
sg18
(lp616
S'For'
p617
aS'a'
p618
aS'long'
p619
aS'time'
p620
aS'she'
p621
aS'did'
p622
aS'not'
p623
aS'know'
p624
aS'that'
p625
aS'she'
p626
aS'had'
p627
aS'had'
p628
aS'brothers'
p629
aS','
p630
aS'for'
p631
aS'her'
p632
aS'parents'
p633
aS'were'
p634
aS'careful'
p635
aS'not'
p636
aS'to'
p637
aS'mention'
p638
aS'them'
p639
aS'before'
p640
aS'her'
p641
aS','
p642
aS'but'
p643
aS'one'
p644
aS'day'
p645
aS'she'
p646
aS'accidentally'
p647
aS'heard'
p648
aS'some'
p649
aS'people'
p650
aS'saying'
p651
aS'of'
p652
aS'herself'
p653
aS','
p654
aS'that'
p655
aS'the'
p656
aS'girl'
p657
aS'was'
p658
aS'certainly'
p659
aS'beautiful'
p660
aS','
p661
aS'but'
p662
aS'that'
p663
aS'in'
p664
aS'reality'
p665
aS'she'
p666
aS'was'
p667
aS'to'
p668
aS'blame'
p669
aS'for'
p670
aS'the'
p671
aS'misfortune'
p672
aS'which'
p673
aS'had'
p674
aS'befallen'
p675
aS'her'
p676
aS'seven'
p677
aS'brothers'
p678
aS'.'
p679
asg44
(lp680
VFor
p681
ag49
aVlong
p682
aVtime
p683
aVshe
p684
ag325
aVnot
p685
aVknow
p686
aVthat
p687
aVshe
p688
ag52
ag52
aVbrother
p689
ag55
aVfor
p690
aVher
p691
aVparent
p692
ag458
aVcareful
p693
aVnot
p694
aVto
p695
aVmention
p696
aVthem
p697
aVbefore
p698
aVher
p699
ag55
aVbut
p700
aVone
p701
aVday
p702
aVshe
p703
aVaccidentally
p704
aVheard
p705
aVsome
p706
aVpeople
p707
aVsay
p708
aVof
p709
aVherself
p710
ag55
aVthat
p711
aVthe
p712
aVgirl
p713
ag47
aVcertainly
p714
aVbeautiful
p715
ag55
aVbut
p716
aVthat
p717
aVin
p718
aVreality
p719
aVshe
p720
ag47
aVto
p721
aVblame
p722
aVfor
p723
aVthe
p724
aVmisfortune
p725
aVwhich
p726
ag52
aVbefall
p727
aVher
p728
aVseven
p729
aVbrother
p730
ag67
asg68
(lp731
g70
ag70
ag70
ag70
ag70
ag70
ag70
ag70
ag70
ag70
ag70
ag70
ag70
ag70
ag70
ag70
ag70
ag70
ag70
ag70
ag70
ag70
ag70
ag70
ag70
ag70
ag70
ag70
ag70
ag70
ag70
ag70
ag70
ag70
ag70
ag70
ag70
ag70
ag70
ag70
ag70
ag70
ag70
ag70
ag70
ag70
ag70
ag70
ag70
ag70
ag70
ag70
ag70
ag70
ag70
ag70
ag70
ag70
ag70
ag70
ag70
ag70
ag70
asg71
(lp732
g85
ag76
ag84
ag77
ag83
ag74
ag75
ag194
ag85
ag83
ag74
ag79
ag80
ag81
ag85
ag139
ag80
ag74
ag84
ag75
ag193
ag194
ag83
ag85
ag139
ag81
ag82
ag86
ag77
ag83
ag75
ag75
ag76
ag80
ag400
ag85
ag83
ag81
ag85
ag76
ag77
ag74
ag75
ag84
ag81
ag82
ag85
ag85
ag77
ag83
ag74
ag193
ag194
ag85
ag76
ag77
aS'WDT'
p733
ag74
ag79
ag139
ag86
ag80
ag87
asg88
VFor a long time she did not know that she had had brothers, for her parents were careful not to mention them before her, but one day she accidentally heard some people saying of herself, that the girl was certainly beautiful, but that in reality she was to blame for the misfortune which had befallen her seven brothers.
p734
sba(i__main__
Sentence
p735
(dp736
g17
I11
sg18
(lp737
S'Then'
p738
aS'she'
p739
aS'was'
p740
aS'much'
p741
aS'troubled'
p742
aS','
p743
aS'and'
p744
aS'went'
p745
aS'to'
p746
aS'her'
p747
aS'father'
p748
aS'and'
p749
aS'mother'
p750
aS'and'
p751
aS'asked'
p752
aS'if'
p753
aS'it'
p754
aS'was'
p755
aS'true'
p756
aS'that'
p757
aS'she'
p758
aS'had'
p759
aS'had'
p760
aS'brothers'
p761
aS','
p762
aS'and'
p763
aS'what'
p764
aS'had'
p765
aS'become'
p766
aS'of'
p767
aS'them'
p768
aS'.'
p769
asg44
(lp770
VThen
p771
aVshe
p772
ag47
aVmuch
p773
aVtrouble
p774
ag55
aVand
p775
aVgo
p776
aVto
p777
aVher
p778
aVfather
p779
aVand
p780
aVmother
p781
aVand
p782
aVask
p783
aVif
p784
aVit
p785
ag47
aVtrue
p786
aVthat
p787
aVshe
p788
ag52
ag52
aVbrother
p789
ag55
aVand
p790
aVwhat
p791
ag52
aVbecome
p792
aVof
p793
aVthem
p794
ag67
asg68
(lp795
g70
ag70
ag70
ag70
ag70
ag70
ag70
ag70
ag70
ag70
ag70
ag70
ag70
ag70
ag70
ag70
ag70
ag70
ag70
ag70
ag70
ag70
ag70
ag70
ag70
ag70
ag70
ag70
ag70
ag70
ag70
ag70
asg71
(lp796
g75
ag83
ag74
ag75
ag79
ag81
ag82
ag74
ag193
ag139
ag77
ag82
ag77
ag82
ag74
ag85
ag83
ag74
ag84
ag85
ag83
ag74
ag79
ag80
ag81
ag82
ag78
ag74
ag79
ag85
ag83
ag87
asg88
VThen she was much troubled, and went to her father and mother and asked if it was true that she had had brothers, and what had become of them.
p797
sba(i__main__
Sentence
p798
(dp799
g17
I12
sg18
(lp800
S'The'
p801
aS'parents'
p802
aS'now'
p803
aS'dared'
p804
aS'keep'
p805
aS'the'
p806
aS'secret'
p807
aS'no'
p808
aS'longer'
p809
aS','
p810
aS'but'
p811
aS'said'
p812
aS'that'
p813
aS'what'
p814
aS'had'
p815
aS'befallen'
p816
aS'her'
p817
aS'brothers'
p818
aS'was'
p819
aS'the'
p820
aS'will'
p821
aS'of'
p822
aS'heaven'
p823
aS','
p824
aS'and'
p825
aS'that'
p826
aS'her'
p827
aS'birth'
p828
aS'had'
p829
aS'only'
p830
aS'been'
p831
aS'the'
p832
aS'innocent'
p833
aS'cause'
p834
aS'.'
p835
asg44
(lp836
VThe
p837
aVparent
p838
aVnow
p839
aVdare
p840
aVkeep
p841
aVthe
p842
aVsecret
p843
aVno
p844
aVlonger
p845
ag55
aVbut
p846
ag385
aVthat
p847
aVwhat
p848
ag52
ag727
aVher
p849
aVbrother
p850
ag47
aVthe
p851
aVwill
p852
aVof
p853
aVheaven
p854
ag55
aVand
p855
aVthat
p856
aVher
p857
aVbirth
p858
ag52
aVonly
p859
aVbe
p860
aVthe
p861
aVinnocent
p862
aVcause
p863
ag67
asg68
(lp864
g70
ag70
ag70
ag70
ag70
ag70
ag70
ag70
ag70
ag70
ag70
ag70
ag70
ag70
ag70
ag70
ag70
ag70
ag70
ag70
ag70
ag70
ag70
ag70
ag70
ag70
ag70
ag70
ag70
ag70
ag70
ag70
ag70
ag70
ag70
asg71
(lp865
g76
ag80
ag75
ag79
ag194
ag76
ag77
ag76
ag77
ag81
ag82
ag74
ag85
ag78
ag74
ag79
ag139
ag80
ag74
ag76
ag465
ag85
ag77
ag81
ag82
ag85
ag139
ag77
ag74
ag75
ag79
ag76
ag77
ag77
ag87
asg88
VThe parents now dared keep the secret no longer, but said that what had befallen her brothers was the will of heaven, and that her birth had only been the innocent cause.
p866
sba(i__main__
Sentence
p867
(dp868
g17
I13
sg18
(lp869
S'But'
p870
aS'the'
p871
aS'maiden'
p872
aS'took'
p873
aS'it'
p874
aS'to'
p875
aS'heart'
p876
aS'daily'
p877
aS','
p878
aS'and'
p879
aS'thought'
p880
aS'she'
p881
aS'must'
p882
aS'save'
p883
aS'her'
p884
aS'brothers'
p885
aS'.'
p886
asg44
(lp887
VBut
p888
aVthe
p889
aVmaiden
p890
aVtake
p891
aVit
p892
aVto
p893
aVheart
p894
aVdaily
p895
ag55
aVand
p896
aVthink
p897
aVshe
p898
aVmust
p899
aVsave
p900
aVher
p901
aVbrother
p902
ag67
asg68
(lp903
g70
ag70
ag70
ag70
ag70
ag70
ag70
ag70
ag70
ag70
ag70
ag70
ag70
ag70
ag70
ag70
ag70
asg71
(lp904
g82
ag76
ag77
ag74
ag83
ag193
ag194
ag84
ag81
ag82
ag74
ag83
ag465
ag194
ag83
ag80
ag87
asg88
VBut the maiden took it to heart daily, and thought she must save her brothers.
p905
sba(i__main__
Sentence
p906
(dp907
g17
I14
sg18
(lp908
S'She'
p909
aS'had'
p910
aS'no'
p911
aS'rest'
p912
aS'or'
p913
aS'peace'
p914
aS'until'
p915
aS'she'
p916
aS'set'
p917
aS'out'
p918
aS'secretly'
p919
aS','
p920
aS'and'
p921
aS'went'
p922
aS'forth'
p923
aS'into'
p924
aS'the'
p925
aS'wide'
p926
aS'world'
p927
aS'to'
p928
aS'search'
p929
aS'for'
p930
aS'her'
p931
aS'brothers'
p932
aS'and'
p933
aS'set'
p934
aS'them'
p935
aS'free'
p936
aS','
p937
aS'let'
p938
aS'it'
p939
aS'cost'
p940
aS'what'
p941
aS'it'
p942
aS'might'
p943
aS'.'
p944
asg44
(lp945
VShe
p946
ag52
aVno
p947
aVrest
p948
aVor
p949
aVpeace
p950
aVuntil
p951
aVshe
p952
aVset
p953
aVout
p954
aVsecretly
p955
ag55
aVand
p956
ag776
aVforth
p957
aVinto
p958
aVthe
p959
aVwide
p960
aVworld
p961
aVto
p962
aVsearch
p963
aVfor
p964
aVher
p965
aVbrother
p966
aVand
p967
aVset
p968
aVthem
p969
aVfree
p970
ag55
aVlet
p971
aVit
p972
aVcost
p973
aVwhat
p974
aVit
p975
aVmight
p976
ag67
asg68
(lp977
g70
ag70
ag70
ag70
ag70
ag70
ag70
ag70
ag70
ag70
ag70
ag70
ag70
ag70
ag70
ag70
ag70
ag70
ag70
ag70
ag70
ag70
ag70
ag70
ag70
ag70
ag70
ag70
ag70
ag70
ag70
ag70
ag70
ag70
ag70
ag70
asg71
(lp978
g83
ag74
ag76
ag77
ag82
ag77
ag85
ag83
ag74
ag521
ag75
ag81
ag82
ag74
ag84
ag85
ag76
ag84
ag77
ag193
ag194
ag85
ag83
ag80
ag82
ag194
ag83
ag84
ag81
ag194
ag83
ag194
ag78
ag83
ag465
ag87
asg88
VShe had no rest or peace until she set out secretly, and went forth into the wide world to search for her brothers and set them free, let it cost what it might.
p979
sba(i__main__
Sentence
p980
(dp981
g17
I15
sg18
(lp982
S'She'
p983
aS'took'
p984
aS'nothing'
p985
aS'with'
p986
aS'her'
p987
aS'but'
p988
aS'a'
p989
aS'little'
p990
aS'ring'
p991
aS'belonging'
p992
aS'to'
p993
aS'her'
p994
aS'parents'
p995
aS'as'
p996
aS'a'
p997
aS'keepsake'
p998
aS','
p999
aS'a'
p1000
aS'loaf'
p1001
aS'of'
p1002
aS'bread'
p1003
aS'against'
p1004
aS'hunger'
p1005
aS','
p1006
aS'a'
p1007
aS'little'
p1008
aS'pitcher'
p1009
aS'of'
p1010
aS'water'
p1011
aS'against'
p1012
aS'thirst'
p1013
aS','
p1014
aS'and'
p1015
aS'a'
p1016
aS'little'
p1017
aS'chair'
p1018
aS'as'
p1019
aS'a'
p1020
aS'provision'
p1021
aS'against'
p1022
aS'weariness'
p1023
aS'.'
p1024
asg44
(lp1025
VShe
p1026
ag891
aVnothing
p1027
aVwith
p1028
aVher
p1029
aVbut
p1030
ag49
aVlittle
p1031
aVring
p1032
aVbelong
p1033
aVto
p1034
aVher
p1035
aVparent
p1036
ag49
ag49
aVkeepsake
p1037
ag55
ag49
aVloaf
p1038
aVof
p1039
aVbread
p1040
aVagainst
p1041
aVhunger
p1042
ag55
ag49
aVlittle
p1043
aVpitcher
p1044
aVof
p1045
aVwater
p1046
aVagainst
p1047
aVthirst
p1048
ag55
aVand
p1049
ag49
aVlittle
p1050
aVchair
p1051
ag49
ag49
aVprovision
p1052
aVagainst
p1053
aVweariness
p1054
ag67
asg68
(lp1055
g70
ag70
ag70
ag70
ag70
ag70
ag70
ag70
ag70
ag70
ag70
ag70
ag70
ag70
ag70
ag70
ag70
ag70
ag70
ag70
ag70
ag70
ag70
ag70
ag70
ag70
ag70
ag70
ag70
ag70
ag70
ag70
ag70
ag70
ag70
ag70
ag70
ag70
ag70
ag70
ag70
ag70
asg71
(lp1056
g83
ag74
ag77
ag85
ag139
ag82
ag76
ag75
ag400
ag400
ag193
ag139
ag80
ag85
ag76
ag77
ag81
ag76
ag77
ag85
ag77
ag85
ag77
ag81
ag76
ag75
aS'RBR'
p1057
ag85
ag77
ag85
ag84
ag81
ag82
ag76
ag75
ag84
ag85
ag76
ag77
ag85
ag77
ag87
asg88
VShe took nothing with her but a little ring belonging to her parents as a keepsake, a loaf of bread against hunger, a little pitcher of water against thirst, and a little chair as a provision against weariness.
p1058
sba(i__main__
Sentence
p1059
(dp1060
g17
I16
sg18
(lp1061
S'And'
p1062
aS'now'
p1063
aS'she'
p1064
aS'went'
p1065
aS'continually'
p1066
aS'onwards'
p1067
aS','
p1068
aS'far'
p1069
aS','
p1070
aS'far'
p1071
aS'to'
p1072
aS'the'
p1073
aS'very'
p1074
aS'end'
p1075
aS'of'
p1076
aS'the'
p1077
aS'world'
p1078
aS'.'
p1079
asg44
(lp1080
VAnd
p1081
aVnow
p1082
aVshe
p1083
ag776
aVcontinually
p1084
aVonwards
p1085
ag55
aVfar
p1086
ag55
aVfar
p1087
aVto
p1088
aVthe
p1089
aVvery
p1090
aVend
p1091
aVof
p1092
aVthe
p1093
aVworld
p1094
ag67
asg68
(lp1095
g70
ag70
ag70
ag70
ag70
ag70
ag70
ag70
ag70
ag70
ag70
ag70
ag70
ag70
ag70
ag70
ag70
ag70
asg71
(lp1096
g82
ag75
ag83
ag74
ag75
ag80
ag81
ag75
ag81
ag75
ag193
ag76
ag84
ag77
ag85
ag76
ag77
ag87
asg88
VAnd now she went continually onwards, far, far to the very end of the world.
p1097
sba(i__main__
Sentence
p1098
(dp1099
g17
I17
sg18
(lp1100
S'Then'
p1101
aS'she'
p1102
aS'came'
p1103
aS'to'
p1104
aS'the'
p1105
aS'sun'
p1106
aS','
p1107
aS'but'
p1108
aS'it'
p1109
aS'was'
p1110
aS'too'
p1111
aS'hot'
p1112
aS'and'
p1113
aS'terrible'
p1114
aS','
p1115
aS'and'
p1116
aS'devoured'
p1117
aS'little'
p1118
aS'children'
p1119
aS'.'
p1120
asg44
(lp1121
VThen
p1122
aVshe
p1123
ag131
aVto
p1124
aVthe
p1125
aVsun
p1126
ag55
aVbut
p1127
aVit
p1128
ag47
aVtoo
p1129
aVhot
p1130
aVand
p1131
aVterrible
p1132
ag55
aVand
p1133
aVdevour
p1134
aVlittle
p1135
aVchild
p1136
ag67
asg68
(lp1137
g70
ag70
ag70
ag70
ag70
ag70
ag70
ag70
ag70
ag70
ag70
ag70
ag70
ag70
ag70
ag70
ag70
ag70
ag70
ag70
asg71
(lp1138
g75
ag83
ag74
ag193
ag76
ag77
ag81
ag82
ag83
ag74
ag75
ag84
ag82
ag84
ag81
ag82
ag74
ag84
ag80
ag87
asg88
VThen she came to the sun, but it was too hot and terrible, and devoured little children.
p1139
sba(i__main__
Sentence
p1140
(dp1141
g17
I18
sg18
(lp1142
S'Hastily'
p1143
aS'she'
p1144
aS'ran'
p1145
aS'away'
p1146
aS','
p1147
aS'and'
p1148
aS'ran'
p1149
aS'to'
p1150
aS'the'
p1151
aS'moon'
p1152
aS','
p1153
aS'but'
p1154
aS'it'
p1155
aS'was'
p1156
aS'far'
p1157
aS'too'
p1158
aS'cold'
p1159
aS','
p1160
aS'and'
p1161
aS'also'
p1162
aS'awful'
p1163
aS'and'
p1164
aS'malicious'
p1165
aS','
p1166
aS'and'
p1167
aS'when'
p1168
aS'it'
p1169
aS'saw'
p1170
aS'the'
p1171
aS'child'
p1172
aS','
p1173
aS'it'
p1174
aS'said'
p1175
aS','
p1176
aS'I'
p1177
aS'smell'
p1178
aS','
p1179
aS'I'
p1180
aS'smell'
p1181
aS'the'
p1182
aS'flesh'
p1183
aS'of'
p1184
aS'men'
p1185
aS'.'
p1186
asg44
(lp1187
VHastily
p1188
aVshe
p1189
aVrun
p1190
aVaway
p1191
ag55
aVand
p1192
ag1190
aVto
p1193
aVthe
p1194
aVmoon
p1195
ag55
aVbut
p1196
aVit
p1197
ag47
aVfar
p1198
aVtoo
p1199
aVcold
p1200
ag55
aVand
p1201
aValso
p1202
aVawful
p1203
aVand
p1204
aVmalicious
p1205
ag55
aVand
p1206
aVwhen
p1207
aVit
p1208
aVsaw
p1209
aVthe
p1210
aVchild
p1211
ag55
aVit
p1212
ag385
ag55
ag454
aVsmell
p1213
ag55
ag454
aVsmell
p1214
aVthe
p1215
aVflesh
p1216
aVof
p1217
aVmen
p1218
ag67
asg68
(lp1219
g70
ag70
ag70
ag70
ag70
ag70
ag70
ag70
ag70
aVLOCATION
p1220
ag70
ag70
ag70
ag70
ag70
ag70
ag70
ag70
ag70
ag70
ag70
ag70
ag70
ag70
ag70
ag70
ag70
ag70
ag70
ag70
ag70
ag70
ag70
ag70
ag70
ag70
ag70
ag70
ag70
ag70
ag70
ag70
ag70
ag70
asg71
(lp1221
g75
ag83
ag74
ag75
ag81
ag82
ag74
ag193
ag76
ag77
ag81
ag82
ag83
ag74
ag75
ag75
ag84
ag81
ag82
ag75
ag84
ag82
ag84
ag81
ag82
ag141
ag83
ag74
ag76
ag77
ag81
ag83
ag74
ag81
ag83
ag140
ag81
ag83
ag140
ag76
ag84
ag85
ag80
ag87
asg88
VHastily she ran away, and ran to the moon, but it was far too cold, and also awful and malicious, and when it saw the child, it said, I smell, I smell the flesh of men.
p1222
sba(i__main__
Sentence
p1223
(dp1224
g17
I19
sg18
(lp1225
S'At'
p1226
aS'this'
p1227
aS'she'
p1228
aS'ran'
p1229
aS'swiftly'
p1230
aS'away'
p1231
aS','
p1232
aS'and'
p1233
aS'came'
p1234
aS'to'
p1235
aS'the'
p1236
aS'stars'
p1237
aS','
p1238
aS'which'
p1239
aS'were'
p1240
aS'kind'
p1241
aS'and'
p1242
aS'good'
p1243
aS'to'
p1244
aS'her'
p1245
aS','
p1246
aS'and'
p1247
aS'each'
p1248
aS'of'
p1249
aS'them'
p1250
aS'sat'
p1251
aS'on'
p1252
aS'its'
p1253
aS'own'
p1254
aS'particular'
p1255
aS'little'
p1256
aS'chair'
p1257
aS'.'
p1258
asg44
(lp1259
VAt
p1260
aVthis
p1261
aVshe
p1262
ag1190
aVswiftly
p1263
aVaway
p1264
ag55
aVand
p1265
ag131
aVto
p1266
aVthe
p1267
aVstar
p1268
ag55
aVwhich
p1269
ag458
aVkind
p1270
aVand
p1271
aVgood
p1272
aVto
p1273
aVher
p1274
ag55
aVand
p1275
aVeach
p1276
aVof
p1277
aVthem
p1278
aVsat
p1279
aVon
p1280
aVit
p1281
aVown
p1282
aVparticular
p1283
aVlittle
p1284
aVchair
p1285
ag67
asg68
(lp1286
g70
ag70
ag70
ag70
ag70
ag70
ag70
ag70
ag70
ag70
ag70
ag70
ag70
ag70
ag70
ag70
ag70
ag70
ag70
ag70
ag70
ag70
ag70
ag70
ag70
ag70
ag70
ag70
ag70
ag70
ag70
ag70
ag70
asg71
(lp1287
g85
ag76
ag83
ag74
ag75
ag75
ag81
ag82
ag74
ag193
ag76
ag80
ag81
ag733
ag74
ag140
ag82
ag84
ag193
ag139
ag81
ag82
ag76
ag85
ag83
ag85
ag85
ag139
ag84
ag84
ag84
ag77
ag87
asg88
VAt this she ran swiftly away, and came to the stars, which were kind and good to her, and each of them sat on its own particular little chair.
p1288
sba(i__main__
Sentence
p1289
(dp1290
g17
I20
sg18
(lp1291
S'But'
p1292
aS'the'
p1293
aS'morning'
p1294
aS'star'
p1295
aS'arose'
p1296
aS','
p1297
aS'and'
p1298
aS'gave'
p1299
aS'her'
p1300
aS'the'
p1301
aS'drumstick'
p1302
aS'of'
p1303
aS'a'
p1304
aS'chicken'
p1305
aS','
p1306
aS'and'
p1307
aS'said'
p1308
aS','
p1309
aS'if'
p1310
aS'you'
p1311
aS'have'
p1312
aS'not'
p1313
aS'that'
p1314
aS'drumstick'
p1315
aS'you'
p1316
aS'can'
p1317
aS'not'
p1318
aS'open'
p1319
aS'the'
p1320
aS'glass'
p1321
aS'mountain'
p1322
aS','
p1323
aS'and'
p1324
aS'in'
p1325
aS'the'
p1326
aS'glass'
p1327
aS'mountain'
p1328
aS'are'
p1329
aS'your'
p1330
aS'brothers'
p1331
aS'.'
p1332
asg44
(lp1333
VBut
p1334
aVthe
p1335
aVmorning
p1336
aVstar
p1337
aVarose
p1338
ag55
aVand
p1339
ag123
aVher
p1340
aVthe
p1341
aVdrumstick
p1342
aVof
p1343
ag49
aVchicken
p1344
ag55
aVand
p1345
ag385
ag55
aVif
p1346
aVyou
p1347
aVhave
p1348
aVnot
p1349
aVthat
p1350
aVdrumstick
p1351
aVyou
p1352
aVcan
p1353
aVnot
p1354
aVopen
p1355
aVthe
p1356
aVglass
p1357
aVmountain
p1358
ag55
aVand
p1359
aVin
p1360
aVthe
p1361
aVglass
p1362
aVmountain
p1363
aVbe
p1364
aVyour
p1365
aVbrother
p1366
ag67
asg68
(lp1367
g70
ag70
ag70
ag70
ag70
ag70
ag70
ag70
ag70
ag70
ag70
ag70
ag70
ag70
ag70
ag70
ag70
ag70
ag70
ag70
ag70
ag70
ag70
ag70
ag70
ag70
ag70
ag70
ag70
ag70
ag70
ag70
ag70
ag70
ag70
ag70
ag70
ag70
ag70
ag70
ag70
asg71
(lp1368
g82
ag76
ag77
ag77
ag77
ag81
ag82
ag74
ag83
ag76
ag77
ag85
ag76
ag77
ag81
ag82
ag74
ag81
ag85
ag83
ag140
ag75
ag85
ag77
ag83
ag465
ag75
ag194
ag76
ag77
ag77
ag81
ag82
ag85
ag76
ag77
ag77
ag140
ag139
ag80
ag87
asg88
VBut the morning star arose, and gave her the drumstick of a chicken, and said, if you have not that drumstick you can not open the glass mountain, and in the glass mountain are your brothers.
p1369
sba(i__main__
Sentence
p1370
(dp1371
g17
I21
sg18
(lp1372
S'The'
p1373
aS'maiden'
p1374
aS'took'
p1375
aS'the'
p1376
aS'drumstick'
p1377
aS','
p1378
aS'wrapped'
p1379
aS'it'
p1380
aS'carefully'
p1381
aS'in'
p1382
aS'a'
p1383
aS'cloth'
p1384
aS','
p1385
aS'and'
p1386
aS'went'
p1387
aS'onwards'
p1388
aS'again'
p1389
aS'until'
p1390
aS'she'
p1391
aS'came'
p1392
aS'to'
p1393
aS'the'
p1394
aS'glass'
p1395
aS'mountain'
p1396
aS'.'
p1397
asg44
(lp1398
VThe
p1399
aVmaiden
p1400
aVtook
p1401
aVthe
p1402
aVdrumstick
p1403
ag55
aVwrap
p1404
aVit
p1405
aVcarefully
p1406
aVin
p1407
ag49
aVcloth
p1408
ag55
aVand
p1409
ag776
aVonwards
p1410
aVagain
p1411
aVuntil
p1412
aVshe
p1413
ag131
aVto
p1414
aVthe
p1415
aVglass
p1416
aVmountain
p1417
ag67
asg68
(lp1418
g70
ag70
ag70
ag70
ag70
ag70
ag70
ag70
ag70
ag70
ag70
ag70
ag70
ag70
ag70
ag70
ag70
ag70
ag70
ag70
ag70
ag70
ag70
ag70
ag70
asg71
(lp1419
g76
ag79
ag77
ag76
ag77
ag81
ag74
ag83
ag75
ag85
ag76
ag77
ag81
ag82
ag74
ag80
ag75
ag85
ag83
ag74
ag193
ag76
ag77
ag77
ag87
asg88
VThe maiden took the drumstick, wrapped it carefully in a cloth, and went onwards again until she came to the glass mountain.
p1420
sba(i__main__
Sentence
p1421
(dp1422
g17
I22
sg18
(lp1423
S'The'
p1424
aS'door'
p1425
aS'was'
p1426
aS'shut'
p1427
aS','
p1428
aS'and'
p1429
aS'she'
p1430
aS'thought'
p1431
aS'she'
p1432
aS'would'
p1433
aS'take'
p1434
aS'out'
p1435
aS'the'
p1436
aS'drumstick'
p1437
aS'.'
p1438
asg44
(lp1439
VThe
p1440
aVdoor
p1441
ag47
aVshut
p1442
ag55
aVand
p1443
aVshe
p1444
ag897
aVshe
p1445
aVwould
p1446
aVtake
p1447
aVout
p1448
aVthe
p1449
aVdrumstick
p1450
ag67
asg68
(lp1451
g70
ag70
ag70
ag70
ag70
ag70
ag70
ag70
ag70
ag70
ag70
ag70
ag70
ag70
ag70
asg71
(lp1452
g76
ag77
ag74
ag79
ag81
ag82
ag83
ag74
ag83
ag465
ag194
ag521
ag76
ag77
ag87
asg88
VThe door was shut, and she thought she would take out the drumstick.
p1453
sba(i__main__
Sentence
p1454
(dp1455
g17
I23
sg18
(lp1456
S'But'
p1457
aS'when'
p1458
aS'she'
p1459
aS'undid'
p1460
aS'the'
p1461
aS'cloth'
p1462
aS','
p1463
aS'it'
p1464
aS'was'
p1465
aS'empty'
p1466
aS','
p1467
aS'and'
p1468
aS'she'
p1469
aS'had'
p1470
aS'lost'
p1471
aS'the'
p1472
aS'good'
p1473
aS'star'
p1474
aS"'s"
p1475
aS'present'
p1476
aS'.'
p1477
asg44
(lp1478
VBut
p1479
aVwhen
p1480
aVshe
p1481
aVundo
p1482
aVthe
p1483
aVcloth
p1484
ag55
aVit
p1485
ag47
aVempty
p1486
ag55
aVand
p1487
aVshe
p1488
ag52
aVlose
p1489
aVthe
p1490
aVgood
p1491
aVstar
p1492
aV's
p1493
aVpresent
p1494
ag67
asg68
(lp1495
g70
ag70
ag70
ag70
ag70
ag70
ag70
ag70
ag70
ag70
ag70
ag70
ag70
ag70
ag70
ag70
ag70
ag70
ag70
ag70
ag70
asg71
(lp1496
g82
ag141
ag83
ag74
ag76
ag77
ag81
ag83
ag74
ag84
ag81
ag82
ag83
ag74
ag79
ag76
ag84
ag77
aS'POS'
p1497
ag77
ag87
asg88
VBut when she undid the cloth, it was empty, and she had lost the good star's present.
p1498
sba(i__main__
Sentence
p1499
(dp1500
g17
I24
sg18
(lp1501
S'What'
p1502
aS'was'
p1503
aS'she'
p1504
aS'now'
p1505
aS'to'
p1506
aS'do'
p1507
aS'.'
p1508
asg44
(lp1509
VWhat
p1510
ag47
aVshe
p1511
aVnow
p1512
aVto
p1513
aVdo
p1514
ag67
asg68
(lp1515
g70
ag70
ag70
ag70
ag70
ag70
ag70
asg71
(lp1516
g78
ag74
ag83
ag75
ag193
ag194
ag87
asg88
VWhat was she now to do.
p1517
sba(i__main__
Sentence
p1518
(dp1519
g17
I25
sg18
(lp1520
S'She'
p1521
aS'wished'
p1522
aS'to'
p1523
aS'rescue'
p1524
aS'her'
p1525
aS'brothers'
p1526
aS','
p1527
aS'and'
p1528
aS'had'
p1529
aS'no'
p1530
aS'key'
p1531
aS'to'
p1532
aS'the'
p1533
aS'glass'
p1534
aS'mountain'
p1535
aS'.'
p1536
asg44
(lp1537
VShe
p1538
aVwish
p1539
aVto
p1540
aVrescue
p1541
aVher
p1542
aVbrother
p1543
ag55
aVand
p1544
ag52
aVno
p1545
aVkey
p1546
aVto
p1547
aVthe
p1548
aVglass
p1549
aVmountain
p1550
ag67
asg68
(lp1551
g70
ag70
ag70
ag70
ag70
ag70
ag70
ag70
ag70
ag70
ag70
ag70
ag70
ag70
ag70
ag70
asg71
(lp1552
g83
ag74
ag193
ag194
ag139
ag80
ag81
ag82
ag74
ag76
ag84
ag193
ag76
ag77
ag77
ag87
asg88
VShe wished to rescue her brothers, and had no key to the glass mountain.
p1553
sba(i__main__
Sentence
p1554
(dp1555
g17
I26
sg18
(lp1556
S'The'
p1557
aS'good'
p1558
aS'sister'
p1559
aS'took'
p1560
aS'a'
p1561
aS'knife'
p1562
aS','
p1563
aS'cut'
p1564
aS'off'
p1565
aS'one'
p1566
aS'of'
p1567
aS'her'
p1568
aS'little'
p1569
aS'fingers'
p1570
aS','
p1571
aS'put'
p1572
aS'it'
p1573
aS'in'
p1574
aS'the'
p1575
aS'door'
p1576
aS','
p1577
aS'and'
p1578
aS'succeeded'
p1579
aS'in'
p1580
aS'opening'
p1581
aS'it'
p1582
aS'.'
p1583
asg44
(lp1584
VThe
p1585
aVgood
p1586
aVsister
p1587
ag891
ag49
aVknife
p1588
ag55
aVcut
p1589
aVoff
p1590
aVone
p1591
aVof
p1592
aVher
p1593
aVlittle
p1594
aVfinger
p1595
ag55
aVput
p1596
aVit
p1597
aVin
p1598
aVthe
p1599
aVdoor
p1600
ag55
aVand
p1601
aVsucceed
p1602
aVin
p1603
aVopening
p1604
aVit
p1605
ag67
asg68
(lp1606
g70
ag70
ag70
ag70
ag70
ag70
ag70
ag70
ag70
ag70
ag70
ag70
ag70
ag70
ag70
ag70
ag70
ag70
ag70
ag70
ag70
ag70
ag70
ag70
ag70
ag70
ag70
asg71
(lp1607
g76
ag84
ag77
ag74
ag76
ag77
ag81
ag74
ag521
ag86
ag85
ag139
ag84
ag80
ag81
ag74
ag83
ag85
ag76
ag77
ag81
ag82
ag74
ag85
ag77
ag83
ag87
asg88
VThe good sister took a knife, cut off one of her little fingers, put it in the door, and succeeded in opening it.
p1608
sba(i__main__
Sentence
p1609
(dp1610
g17
I27
sg18
(lp1611
S'When'
p1612
aS'she'
p1613
aS'had'
p1614
aS'gone'
p1615
aS'inside'
p1616
aS','
p1617
aS'a'
p1618
aS'little'
p1619
aS'dwarf'
p1620
aS'came'
p1621
aS'to'
p1622
aS'meet'
p1623
aS'her'
p1624
aS','
p1625
aS'who'
p1626
aS'said'
p1627
aS','
p1628
aS'my'
p1629
aS'child'
p1630
aS','
p1631
aS'what'
p1632
aS'are'
p1633
aS'you'
p1634
aS'looking'
p1635
aS'for'
p1636
aS'.'
p1637
asg44
(lp1638
VWhen
p1639
aVshe
p1640
ag52
aVgo
p1641
aVinside
p1642
ag55
ag49
aVlittle
p1643
aVdwarf
p1644
ag131
aVto
p1645
aVmeet
p1646
aVher
p1647
ag55
aVwho
p1648
ag385
ag55
aVmy
p1649
aVchild
p1650
ag55
aVwhat
p1651
ag1364
aVyou
p1652
aVlook
p1653
aVfor
p1654
ag67
asg68
(lp1655
g70
ag70
ag70
ag70
ag70
ag70
ag70
ag70
ag70
ag70
ag70
ag70
ag70
ag70
ag70
ag70
ag70
ag70
ag70
ag70
ag70
ag70
ag70
ag70
ag70
ag70
asg71
(lp1656
g141
ag83
ag74
ag79
ag77
ag81
ag76
ag75
ag77
ag74
ag193
ag194
ag139
ag81
ag78
ag74
ag81
ag139
ag77
ag81
ag78
ag140
ag83
ag400
ag85
ag87
asg88
VWhen she had gone inside, a little dwarf came to meet her, who said, my child, what are you looking for.
p1657
sba(i__main__
Sentence
p1658
(dp1659
g17
I28
sg18
(lp1660
S'I'
p1661
aS'am'
p1662
aS'looking'
p1663
aS'for'
p1664
aS'my'
p1665
aS'brothers'
p1666
aS','
p1667
aS'the'
p1668
aS'seven'
p1669
aS'ravens'
p1670
aS','
p1671
aS'she'
p1672
aS'replied'
p1673
aS'.'
p1674
asg44
(lp1675
g454
aVbe
p1676
aVlook
p1677
aVfor
p1678
aVmy
p1679
aVbrother
p1680
ag55
aVthe
p1681
aVseven
p1682
aVraven
p1683
ag55
aVshe
p1684
aVreply
p1685
ag67
asg68
(lp1686
g70
ag70
ag70
ag70
ag70
ag70
ag70
ag70
ag70
ag70
ag70
ag70
ag70
ag70
asg71
(lp1687
g83
ag140
ag400
ag85
ag139
ag80
ag81
ag76
ag86
ag80
ag81
ag83
ag74
ag87
asg88
VI am looking for my brothers, the seven ravens, she replied.
p1688
sba(i__main__
Sentence
p1689
(dp1690
g17
I29
sg18
(lp1691
S'The'
p1692
aS'dwarf'
p1693
aS'said'
p1694
aS','
p1695
aS'the'
p1696
aS'lord'
p1697
aS'ravens'
p1698
aS'are'
p1699
aS'not'
p1700
aS'at'
p1701
aS'home'
p1702
aS','
p1703
aS'but'
p1704
aS'if'
p1705
aS'you'
p1706
aS'will'
p1707
aS'wait'
p1708
aS'here'
p1709
aS'until'
p1710
aS'they'
p1711
aS'come'
p1712
aS','
p1713
aS'step'
p1714
aS'in'
p1715
aS'.'
p1716
asg44
(lp1717
VThe
p1718
aVdwarf
p1719
ag385
ag55
aVthe
p1720
aVlord
p1721
aVraven
p1722
ag1364
aVnot
p1723
aVat
p1724
aVhome
p1725
ag55
aVbut
p1726
aVif
p1727
aVyou
p1728
aVwill
p1729
aVwait
p1730
aVhere
p1731
aVuntil
p1732
aVthey
p1733
aVcome
p1734
ag55
aVstep
p1735
aVin
p1736
ag67
asg68
(lp1737
g70
ag70
ag70
ag70
ag70
ag70
ag70
ag70
ag70
ag70
ag70
ag70
ag70
ag70
ag70
ag70
ag70
ag70
ag70
ag70
ag70
ag70
ag70
ag70
ag70
asg71
(lp1738
g76
ag77
ag74
ag81
ag76
ag77
aS'VBZ'
p1739
ag140
ag75
ag85
ag77
ag81
ag82
ag85
ag83
ag465
ag194
ag75
ag85
ag83
ag140
ag81
ag194
ag85
ag87
asg88
VThe dwarf said, the lord ravens are not at home, but if you will wait here until they come, step in.
p1740
sba(i__main__
Sentence
p1741
(dp1742
g17
I30
sg18
(lp1743
S'Thereupon'
p1744
aS'the'
p1745
aS'little'
p1746
aS'dwarf'
p1747
aS'carried'
p1748
aS'the'
p1749
aS'ravens'
p1750
aS"'"
p1751
aS'dinner'
p1752
aS'in'
p1753
aS','
p1754
aS'on'
p1755
aS'seven'
p1756
aS'little'
p1757
aS'plates'
p1758
aS','
p1759
aS'and'
p1760
aS'in'
p1761
aS'seven'
p1762
aS'little'
p1763
aS'glasses'
p1764
aS','
p1765
aS'and'
p1766
aS'the'
p1767
aS'little'
p1768
aS'sister'
p1769
aS'ate'
p1770
aS'a'
p1771
aS'morsel'
p1772
aS'from'
p1773
aS'each'
p1774
aS'plate'
p1775
aS','
p1776
aS'and'
p1777
aS'from'
p1778
aS'each'
p1779
aS'little'
p1780
aS'glass'
p1781
aS'she'
p1782
aS'took'
p1783
aS'a'
p1784
aS'sip'
p1785
aS','
p1786
aS'but'
p1787
aS'in'
p1788
aS'the'
p1789
aS'last'
p1790
aS'little'
p1791
aS'glass'
p1792
aS'she'
p1793
aS'dropped'
p1794
aS'the'
p1795
aS'ring'
p1796
aS'which'
p1797
aS'she'
p1798
aS'had'
p1799
aS'brought'
p1800
aS'away'
p1801
aS'with'
p1802
aS'her'
p1803
aS'.'
p1804
asg44
(lp1805
VThereupon
p1806
aVthe
p1807
aVlittle
p1808
aVdwarf
p1809
aVcarry
p1810
aVthe
p1811
aVraven
p1812
aV'
p1813
aVdinner
p1814
aVin
p1815
ag55
aVon
p1816
aVseven
p1817
aVlittle
p1818
aVplate
p1819
ag55
aVand
p1820
aVin
p1821
aVseven
p1822
aVlittle
p1823
aVglass
p1824
ag55
aVand
p1825
aVthe
p1826
aVlittle
p1827
aVsister
p1828
aVate
p1829
ag49
aVmorsel
p1830
aVfrom
p1831
aVeach
p1832
aVplate
p1833
ag55
aVand
p1834
aVfrom
p1835
aVeach
p1836
aVlittle
p1837
aVglass
p1838
aVshe
p1839
ag891
ag49
aVsip
p1840
ag55
aVbut
p1841
aVin
p1842
aVthe
p1843
aVlast
p1844
aVlittle
p1845
aVglass
p1846
aVshe
p1847
aVdrop
p1848
aVthe
p1849
aVring
p1850
aVwhich
p1851
aVshe
p1852
ag52
aVbring
p1853
aVaway
p1854
aVwith
p1855
aVher
p1856
ag67
asg68
(lp1857
g70
ag70
ag70
ag70
ag70
ag70
ag70
ag70
ag70
ag70
ag70
ag70
ag70
ag70
ag70
ag70
ag70
ag70
ag70
ag70
ag70
ag70
ag70
ag70
ag70
ag70
ag70
ag70
ag70
ag70
ag70
ag70
ag70
ag70
ag70
ag70
ag70
ag70
ag70
ag70
ag70
ag70
ag70
ag70
ag70
ag70
ag70
ag70
ag70
ag70
ag70
ag70
ag70
ag70
ag70
ag70
ag70
ag70
ag70
ag70
ag70
asg71
(lp1858
S'NNP'
p1859
ag76
ag84
ag77
ag74
ag76
ag80
ag1497
ag77
ag85
ag81
ag85
ag86
ag84
ag80
ag81
ag82
ag85
ag86
ag84
ag80
ag81
ag82
ag76
ag84
ag77
ag77
ag76
ag77
ag85
ag76
ag77
ag81
ag82
ag85
ag76
ag84
ag77
ag83
ag74
ag76
ag77
ag81
ag82
ag85
ag76
ag84
ag77
ag77
ag83
ag74
ag76
ag77
ag733
ag83
ag74
ag79
ag75
ag85
ag139
ag87
asg88
VThereupon the little dwarf carried the ravens' dinner in, on seven little plates, and in seven little glasses, and the little sister ate a morsel from each plate, and from each little glass she took a sip, but in the last little glass she dropped the ring which she had brought away with her.
p1860
sba(i__main__
Sentence
p1861
(dp1862
g17
I31
sg18
(lp1863
S'Suddenly'
p1864
aS'she'
p1865
aS'heard'
p1866
aS'a'
p1867
aS'whirring'
p1868
aS'of'
p1869
aS'wings'
p1870
aS'and'
p1871
aS'a'
p1872
aS'rushing'
p1873
aS'through'
p1874
aS'the'
p1875
aS'air'
p1876
aS','
p1877
aS'and'
p1878
aS'then'
p1879
aS'the'
p1880
aS'little'
p1881
aS'dwarf'
p1882
aS'said'
p1883
aS','
p1884
aS'now'
p1885
aS'the'
p1886
aS'lord'
p1887
aS'ravens'
p1888
aS'are'
p1889
aS'flying'
p1890
aS'home'
p1891
aS'.'
p1892
asg44
(lp1893
VSuddenly
p1894
aVshe
p1895
ag503
ag49
aVwhirring
p1896
aVof
p1897
aVwing
p1898
aVand
p1899
ag49
aVrushing
p1900
aVthrough
p1901
aVthe
p1902
aVair
p1903
ag55
aVand
p1904
aVthen
p1905
aVthe
p1906
aVlittle
p1907
aVdwarf
p1908
ag385
ag55
aVnow
p1909
aVthe
p1910
aVlord
p1911
aVraven
p1912
ag1364
aVfly
p1913
aVhome
p1914
ag67
asg68
(lp1915
g70
ag70
ag70
ag70
ag70
ag70
ag70
ag70
ag70
ag70
ag70
ag70
ag70
ag70
ag70
ag70
ag70
ag70
ag70
ag70
ag70
ag70
ag70
ag70
ag70
ag70
ag70
ag70
ag70
asg71
(lp1916
g75
ag83
ag74
ag76
ag77
ag85
ag80
ag82
ag76
ag77
ag85
ag76
ag77
ag81
ag82
ag75
ag76
ag84
ag77
ag74
ag81
ag75
ag76
ag77
ag1739
ag140
ag400
ag77
ag87
asg88
VSuddenly she heard a whirring of wings and a rushing through the air, and then the little dwarf said, now the lord ravens are flying home.
p1917
sba(i__main__
Sentence
p1918
(dp1919
g17
I32
sg18
(lp1920
S'Then'
p1921
aS'they'
p1922
aS'came'
p1923
aS','
p1924
aS'and'
p1925
aS'wanted'
p1926
aS'to'
p1927
aS'eat'
p1928
aS'and'
p1929
aS'drink'
p1930
aS','
p1931
aS'and'
p1932
aS'looked'
p1933
aS'for'
p1934
aS'their'
p1935
aS'little'
p1936
aS'plates'
p1937
aS'and'
p1938
aS'glasses'
p1939
aS'.'
p1940
asg44
(lp1941
VThen
p1942
aVthey
p1943
ag131
ag55
aVand
p1944
aVwant
p1945
aVto
p1946
aVeat
p1947
aVand
p1948
aVdrink
p1949
ag55
aVand
p1950
aVlook
p1951
aVfor
p1952
aVtheir
p1953
aVlittle
p1954
aVplate
p1955
aVand
p1956
aVglass
p1957
ag67
asg68
(lp1958
g70
ag70
ag70
ag70
ag70
ag70
ag70
ag70
ag70
ag70
ag70
ag70
ag70
ag70
ag70
ag70
ag70
ag70
ag70
ag70
asg71
(lp1959
g75
ag83
ag74
ag81
ag82
ag74
ag193
ag194
ag82
ag194
ag81
ag82
ag74
ag85
ag139
ag84
ag80
ag82
ag80
ag87
asg88
VThen they came, and wanted to eat and drink, and looked for their little plates and glasses.
p1960
sba(i__main__
Sentence
p1961
(dp1962
g17
I33
sg18
(lp1963
S'Then'
p1964
aS'said'
p1965
aS'one'
p1966
aS'after'
p1967
aS'the'
p1968
aS'other'
p1969
aS','
p1970
aS'who'
p1971
aS'has'
p1972
aS'eaten'
p1973
aS'something'
p1974
aS'from'
p1975
aS'my'
p1976
aS'plate'
p1977
aS'.'
p1978
asg44
(lp1979
VThen
p1980
ag385
aVone
p1981
aVafter
p1982
aVthe
p1983
aVother
p1984
ag55
aVwho
p1985
aVhave
p1986
aVeat
p1987
aVsomething
p1988
aVfrom
p1989
aVmy
p1990
aVplate
p1991
ag67
asg68
(lp1992
g70
ag70
ag70
ag70
ag70
ag70
ag70
ag70
ag70
ag70
ag70
ag70
ag70
ag70
ag70
asg71
(lp1993
g75
ag74
ag86
ag85
ag76
ag84
ag81
ag78
ag1739
ag79
ag77
ag85
ag139
ag77
ag87
asg88
VThen said one after the other, who has eaten something from my plate.
p1994
sba(i__main__
Sentence
p1995
(dp1996
g17
I34
sg18
(lp1997
S'Who'
p1998
aS'has'
p1999
aS'drunk'
p2000
aS'out'
p2001
aS'of'
p2002
aS'my'
p2003
aS'little'
p2004
aS'glass'
p2005
aS'.'
p2006
asg44
(lp2007
VWho
p2008
ag1986
aVdrink
p2009
aVout
p2010
aVof
p2011
aVmy
p2012
aVlittle
p2013
aVglass
p2014
ag67
asg68
(lp2015
g70
ag70
ag70
ag70
ag70
ag70
ag70
ag70
ag70
asg71
(lp2016
g78
ag1739
ag140
ag521
ag85
ag139
ag84
ag77
ag87
asg88
VWho has drunk out of my little glass.
p2017
sba(i__main__
Sentence
p2018
(dp2019
g17
I35
sg18
(lp2020
S'It'
p2021
aS'was'
p2022
aS'a'
p2023
aS'human'
p2024
aS'mouth'
p2025
aS'.'
p2026
asg44
(lp2027
VIt
p2028
ag47
ag49
aVhuman
p2029
aVmouth
p2030
ag67
asg68
(lp2031
g70
ag70
ag70
ag70
ag70
ag70
asg71
(lp2032
g83
ag74
ag76
ag84
ag77
ag87
asg88
VIt was a human mouth.
p2033
sba(i__main__
Sentence
p2034
(dp2035
g17
I36
sg18
(lp2036
S'And'
p2037
aS'when'
p2038
aS'the'
p2039
aS'seventh'
p2040
aS'came'
p2041
aS'to'
p2042
aS'the'
p2043
aS'bottom'
p2044
aS'of'
p2045
aS'the'
p2046
aS'glass'
p2047
aS','
p2048
aS'the'
p2049
aS'ring'
p2050
aS'rolled'
p2051
aS'against'
p2052
aS'his'
p2053
aS'mouth'
p2054
aS'.'
p2055
asg44
(lp2056
VAnd
p2057
aVwhen
p2058
aVthe
p2059
aVseventh
p2060
aVcame
p2061
aVto
p2062
aVthe
p2063
aVbottom
p2064
aVof
p2065
aVthe
p2066
aVglass
p2067
ag55
aVthe
p2068
aVring
p2069
aVroll
p2070
aVagainst
p2071
aVhis
p2072
aVmouth
p2073
ag67
asg68
(lp2074
g70
ag70
ag70
ag70
ag70
ag70
ag70
ag70
ag70
ag70
ag70
ag70
ag70
ag70
ag70
ag70
ag70
ag70
ag70
asg71
(lp2075
g82
ag141
ag76
ag84
ag77
ag193
ag76
ag77
ag85
ag76
ag77
ag81
ag76
ag77
ag74
ag85
ag139
ag77
ag87
asg88
VAnd when the seventh came to the bottom of the glass, the ring rolled against his mouth.
p2076
sba(i__main__
Sentence
p2077
(dp2078
g17
I37
sg18
(lp2079
S'Then'
p2080
aS'he'
p2081
aS'looked'
p2082
aS'at'
p2083
aS'it'
p2084
aS','
p2085
aS'and'
p2086
aS'saw'
p2087
aS'that'
p2088
aS'it'
p2089
aS'was'
p2090
aS'a'
p2091
aS'ring'
p2092
aS'belonging'
p2093
aS'to'
p2094
aS'his'
p2095
aS'father'
p2096
aS'and'
p2097
aS'mother'
p2098
aS','
p2099
aS'and'
p2100
aS'said'
p2101
aS','
p2102
aS'God'
p2103
aS'grant'
p2104
aS'that'
p2105
aS'our'
p2106
aS'sister'
p2107
aS'may'
p2108
aS'be'
p2109
aS'here'
p2110
aS','
p2111
aS'and'
p2112
aS'then'
p2113
aS'we'
p2114
aS'shall'
p2115
aS'be'
p2116
aS'free'
p2117
aS'.'
p2118
asg44
(lp2119
VThen
p2120
aVhe
p2121
aVlook
p2122
aVat
p2123
aVit
p2124
ag55
aVand
p2125
aVsaw
p2126
aVthat
p2127
aVit
p2128
ag47
ag49
aVring
p2129
aVbelong
p2130
aVto
p2131
aVhis
p2132
aVfather
p2133
aVand
p2134
aVmother
p2135
ag55
aVand
p2136
ag385
ag55
aVGod
p2137
aVgrant
p2138
aVthat
p2139
aVour
p2140
aVsister
p2141
aVmay
p2142
aVbe
p2143
aVhere
p2144
ag55
aVand
p2145
aVthen
p2146
aVwe
p2147
aVshall
p2148
aVbe
p2149
aVfree
p2150
ag67
asg68
(lp2151
g70
ag70
ag70
ag70
ag70
ag70
ag70
ag70
ag70
ag70
ag70
ag70
ag70
ag70
ag70
ag70
ag70
ag70
ag70
ag70
ag70
ag70
ag70
ag70
ag70
ag70
ag70
ag70
ag70
ag70
ag70
ag70
ag70
ag70
ag70
ag70
ag70
ag70
ag70
asg71
(lp2152
g75
ag83
ag74
ag85
ag83
ag81
ag82
ag74
ag85
ag83
ag74
ag76
ag77
ag400
ag193
ag139
ag77
ag82
ag77
ag81
ag82
ag74
ag81
ag1859
ag77
ag733
ag139
ag77
ag465
ag194
ag75
ag81
ag82
ag75
ag83
ag465
ag194
ag84
ag87
asg88
VThen he looked at it, and saw that it was a ring belonging to his father and mother, and said, God grant that our sister may be here, and then we shall be free.
p2153
sba(i__main__
Sentence
p2154
(dp2155
g17
I38
sg18
(lp2156
S'When'
p2157
aS'the'
p2158
aS'maiden'
p2159
aS','
p2160
aS'who'
p2161
aS'was'
p2162
aS'standing'
p2163
aS'behind'
p2164
aS'the'
p2165
aS'door'
p2166
aS'watching'
p2167
aS','
p2168
aS'heard'
p2169
aS'that'
p2170
aS'wish'
p2171
aS','
p2172
aS'she'
p2173
aS'came'
p2174
aS'forth'
p2175
aS','
p2176
aS'and'
p2177
aS'on'
p2178
aS'this'
p2179
aS'all'
p2180
aS'the'
p2181
aS'ravens'
p2182
aS'were'
p2183
aS'restored'
p2184
aS'to'
p2185
aS'their'
p2186
aS'human'
p2187
aS'form'
p2188
aS'again'
p2189
aS'.'
p2190
asg44
(lp2191
VWhen
p2192
aVthe
p2193
aVmaiden
p2194
ag55
aVwho
p2195
ag47
aVstand
p2196
aVbehind
p2197
aVthe
p2198
aVdoor
p2199
aVwatch
p2200
ag55
aVheard
p2201
aVthat
p2202
aVwish
p2203
ag55
aVshe
p2204
ag131
aVforth
p2205
ag55
aVand
p2206
aVon
p2207
aVthis
p2208
aVall
p2209
aVthe
p2210
aVraven
p2211
ag458
aVrestore
p2212
aVto
p2213
aVtheir
p2214
aVhuman
p2215
aVform
p2216
aVagain
p2217
ag67
asg68
(lp2218
g70
ag70
ag70
ag70
ag70
ag70
ag70
ag70
ag70
ag70
ag70
ag70
ag70
ag70
ag70
ag70
ag70
ag70
ag70
ag70
ag70
ag70
ag70
ag70
ag70
ag70
ag70
ag70
ag70
ag70
ag70
ag70
ag70
ag70
asg71
(lp2219
g141
ag76
ag77
ag81
ag78
ag74
ag400
ag85
ag76
ag77
ag400
ag81
ag77
ag85
ag77
ag81
ag83
ag74
ag84
ag81
ag82
ag85
ag76
ag76
ag76
ag80
ag74
ag79
ag193
ag139
ag77
ag77
ag75
ag87
asg88
VWhen the maiden, who was standing behind the door watching, heard that wish, she came forth, and on this all the ravens were restored to their human form again.
p2220
sba(i__main__
Sentence
p2221
(dp2222
g17
I39
sg18
(lp2223
S'And'
p2224
aS'they'
p2225
aS'embraced'
p2226
aS'and'
p2227
aS'kissed'
p2228
aS'each'
p2229
aS'other'
p2230
aS','
p2231
aS'and'
p2232
aS'went'
p2233
aS'joyfully'
p2234
aS'home'
p2235
aS'.'
p2236
asg44
(lp2237
VAnd
p2238
aVthey
p2239
aVembrace
p2240
aVand
p2241
aVkiss
p2242
aVeach
p2243
aVother
p2244
ag55
aVand
p2245
ag776
aVjoyfully
p2246
aVhome
p2247
ag67
asg68
(lp2248
g70
ag70
ag70
ag70
ag70
ag70
ag70
ag70
ag70
ag70
ag70
ag70
ag70
asg71
(lp2249
g82
ag83
ag74
ag82
ag79
ag76
ag84
ag81
ag82
ag74
ag75
ag77
ag87
asg88
VAnd they embraced and kissed each other, and went joyfully home. 
p2250
sbasbsS'summary'
p2251
g0
(g7
g2
Ntp2252
Rp2253
(dp2254
g11
S"Because he is angry with his sons for taking so long in bringing back water for his daughter's baptism, a father wishes his sons were ravens. His wish is granted. As the girl grows up she feels responsible for her brothers' being turned into ravens. She searches them out and they are reunited. The spell is broken and the boys are transformed back into humans. "
p2255
sg13
(lp2256
(i__main__
Sentence
p2257
(dp2258
g17
I0
sg18
(lp2259
S'Because'
p2260
aS'he'
p2261
aS'is'
p2262
aS'angry'
p2263
aS'with'
p2264
aS'his'
p2265
aS'sons'
p2266
aS'for'
p2267
aS'taking'
p2268
aS'so'
p2269
aS'long'
p2270
aS'in'
p2271
aS'bringing'
p2272
aS'back'
p2273
aS'water'
p2274
aS'for'
p2275
aS'his'
p2276
aS'daughter'
p2277
aS"'s"
p2278
aS'baptism'
p2279
aS','
p2280
aS'a'
p2281
aS'father'
p2282
aS'wishes'
p2283
aS'his'
p2284
aS'sons'
p2285
aS'were'
p2286
aS'ravens'
p2287
aS'.'
p2288
asg44
(lp2289
VBecause
p2290
aVhe
p2291
aVbe
p2292
aVangry
p2293
aVwith
p2294
aVhis
p2295
aVson
p2296
aVfor
p2297
aVtake
p2298
aVso
p2299
aVlong
p2300
aVin
p2301
aVbringing
p2302
aVback
p2303
aVwater
p2304
aVfor
p2305
aVhis
p2306
aVdaughter
p2307
aV's
p2308
aVbaptism
p2309
ag55
ag49
aVfather
p2310
aVwish
p2311
aVhis
p2312
aVson
p2313
ag458
aVraven
p2314
ag67
asg68
(lp2315
g70
ag70
ag70
ag70
ag70
ag70
ag70
ag70
ag70
ag70
ag70
ag70
ag70
ag70
ag70
ag70
ag70
ag70
ag70
ag70
ag70
ag70
ag70
ag70
ag70
ag70
ag70
ag70
ag70
asg71
(lp2316
g85
ag83
ag1739
ag84
ag85
ag139
ag80
ag85
ag400
ag75
ag75
ag85
ag77
ag75
ag77
ag85
ag139
ag77
ag1497
ag77
ag81
ag76
ag77
ag1739
ag139
ag80
ag74
ag80
ag87
asg88
VBecause he is angry with his sons for taking so long in bringing back water for his daughter's baptism, a father wishes his sons were ravens.
p2317
sba(i__main__
Sentence
p2318
(dp2319
g17
I1
sg18
(lp2320
S'His'
p2321
aS'wish'
p2322
aS'is'
p2323
aS'granted'
p2324
aS'.'
p2325
asg44
(lp2326
VHis
p2327
aVwish
p2328
ag2292
aVgrant
p2329
ag67
asg68
(lp2330
g70
ag70
ag70
ag70
ag70
asg71
(lp2331
g139
ag77
ag1739
ag79
ag87
asg88
VHis wish is granted.
p2332
sba(i__main__
Sentence
p2333
(dp2334
g17
I2
sg18
(lp2335
S'As'
p2336
aS'the'
p2337
aS'girl'
p2338
aS'grows'
p2339
aS'up'
p2340
aS'she'
p2341
aS'feels'
p2342
aS'responsible'
p2343
aS'for'
p2344
aS'her'
p2345
aS'brothers'
p2346
aS"'"
p2347
aS'being'
p2348
aS'turned'
p2349
aS'into'
p2350
aS'ravens'
p2351
aS'.'
p2352
asg44
(lp2353
VAs
p2354
aVthe
p2355
aVgirl
p2356
aVgrow
p2357
aVup
p2358
aVshe
p2359
aVfeel
p2360
aVresponsible
p2361
aVfor
p2362
aVher
p2363
aVbrother
p2364
ag1813
aVbe
p2365
aVturn
p2366
aVinto
p2367
aVraven
p2368
ag67
asg68
(lp2369
g70
ag70
ag70
ag70
ag70
ag70
ag70
ag70
ag70
ag70
ag70
ag70
ag70
ag70
ag70
ag70
ag70
asg71
(lp2370
g85
ag76
ag77
ag1739
ag521
ag83
ag1739
ag84
ag85
ag83
ag80
ag1497
ag400
ag79
ag85
ag80
ag87
asg88
VAs the girl grows up she feels responsible for her brothers' being turned into ravens.
p2371
sba(i__main__
Sentence
p2372
(dp2373
g17
I3
sg18
(lp2374
S'She'
p2375
aS'searches'
p2376
aS'them'
p2377
aS'out'
p2378
aS'and'
p2379
aS'they'
p2380
aS'are'
p2381
aS'reunited'
p2382
aS'.'
p2383
asg44
(lp2384
VShe
p2385
aVsearch
p2386
aVthem
p2387
aVout
p2388
aVand
p2389
aVthey
p2390
ag1364
aVreunite
p2391
ag67
asg68
(lp2392
g70
ag70
ag70
ag70
ag70
ag70
ag70
ag70
ag70
asg71
(lp2393
g83
ag1739
ag83
ag521
ag82
ag83
ag140
ag79
ag87
asg88
VShe searches them out and they are reunited.
p2394
sba(i__main__
Sentence
p2395
(dp2396
g17
I4
sg18
(lp2397
S'The'
p2398
aS'spell'
p2399
aS'is'
p2400
aS'broken'
p2401
aS'and'
p2402
aS'the'
p2403
aS'boys'
p2404
aS'are'
p2405
aS'transformed'
p2406
aS'back'
p2407
aS'into'
p2408
aS'humans'
p2409
aS'.'
p2410
asg44
(lp2411
VThe
p2412
aVspell
p2413
ag2292
aVbreak
p2414
aVand
p2415
aVthe
p2416
aVboy
p2417
ag1364
aVtransform
p2418
aVback
p2419
aVinto
p2420
aVhuman
p2421
ag67
asg68
(lp2422
g70
ag70
ag70
ag70
ag70
ag70
ag70
ag70
ag70
ag70
ag70
ag70
ag70
asg71
(lp2423
g76
ag77
ag1739
ag79
ag82
ag76
ag80
ag140
ag79
ag75
ag85
ag80
ag87
asg88
VThe spell is broken and the boys are transformed back into humans. 
p2424
sbasbsS'name'
p2425
S'The Seven Ravens'
p2426
sS'summaries'
p2427
(lp2428
g2253
asb.