ccopy_reg
_reconstructor
p0
(c__main__
Story
p1
c__builtin__
object
p2
Ntp3
Rp4
(dp5
S'text'
p6
g0
(c__main__
Document
p7
g2
Ntp8
Rp9
(dp10
S'_Document__initialContent'
p11
S"There was once a woman and her daughter who lived in a\npretty garden with cabbages.  And a little hare came into it,\nand during the winter time ate all the cabbages.  Then says the\nmother to the daughter, go into the garden, and chase the hare away.\n\nThe girl says to the little hare, sh-sh, hare, you will be eating\nall our cabbages.  Says the hare, come, maiden, and seat yourself\non my little hare's tail, and come with me into my\nlittle hare's hut.  The girl will not do it.\n\nNext day the hare\ncomes again and eats the cabbages, then says the mother to the\ndaughter, go into the garden, and drive the hare away.  The girl\nsays to the hare, sh-sh, little hare, you will be eating all the\ncabbages.  The little hare says, maiden, seat yourself on my\nlittle hare's tail, and come with me into my little hare's hut.\nThe maiden refuses.\n\nThe third day the hare comes again, and eats\nthe cabbages.  On this the mother says to the daughter, go into\nthe garden, and hunt the hare away.  Says the maiden, sh-sh, little\nhare, you will be eating all our cabbages.  Says the little\nhare, come, maiden, seat yourself on my little hare's tail,\nand come with me into my little hare's hut.\n\nThe girl seats\nherself on the little hare's tail, and then the hare takes her\nfar away to his little hut, and says, now cook green cabbage and\nmillet-seed, and I will invite the wedding-guests.  Then all\nthe wedding-guests assembled.  Who were the wedding-guests?\nThat I can tell you as another told it to me.  They were all\nhares, and the crow was there as parson to marry the bride\nand bridegroom, and the fox as clerk, and the altar was under\nthe rainbow.\n\nThe girl, however, was sad, for she was all alone.  The little hare\ncomes and says, open the doors, open the doors, the wedding-guests\nare merry.  The bride says nothing, but weeps.  The little\nhare goes away.  The little hare comes back and says, take off\nthe lid, take off the lid, the wedding-guests are hungry.  The\nbride again says nothing, and weeps.  The little hare goes away.\nThe little hare comes back and says, take off the lid, take off\nthe lid, the wedding-guests are waiting.  Then the bride says\nnothing, and the hare goes away, but she dresses a straw-doll\nin her clothes, and gives her a spoon to stir with, and sets\nher by the pan with the millet-seed, and goes back to her\nmother.  The little hare comes once more and says, take off\nthe lid, take off the lid, and gets up, and strikes the doll\non the head so that her cap falls off.\nThen the little hare sees that it is not his bride, and goes\naway and is sorrowful.\n"
p12
sS'sentences'
p13
(lp14
(i__main__
Sentence
p15
(dp16
S'index'
p17
I0
sS'words'
p18
(lp19
S'There'
p20
aS'was'
p21
aS'once'
p22
aS'a'
p23
aS'woman'
p24
aS'and'
p25
aS'her'
p26
aS'daughter'
p27
aS'who'
p28
aS'lived'
p29
aS'in'
p30
aS'a'
p31
aS'pretty'
p32
aS'garden'
p33
aS'with'
p34
aS'cabbages'
p35
aS'.'
p36
asS'lemmas'
p37
(lp38
VThere
p39
aVbe
p40
aVonce
p41
aVa
p42
aVwoman
p43
aVand
p44
aVher
p45
aVdaughter
p46
aVwho
p47
aVlive
p48
aVin
p49
ag42
aVpretty
p50
aVgarden
p51
aVwith
p52
aVcabbage
p53
aV.
p54
asS'nerTags'
p55
(lp56
VO
p57
ag57
ag57
ag57
ag57
ag57
ag57
ag57
ag57
ag57
ag57
ag57
ag57
ag57
ag57
ag57
ag57
asS'posTags'
p58
(lp59
S'EX'
p60
aS'VBD'
p61
aS'RB'
p62
aS'DT'
p63
aS'NN'
p64
aS'CC'
p65
aS'PRP$'
p66
ag64
aS'WP'
p67
aS'VBN'
p68
aS'IN'
p69
ag63
ag62
ag68
ag69
aS'NNS'
p70
aS'.'
p71
asS'_Sentence__initialContent'
p72
VThere was once a woman and her daughter who lived in a pretty garden with cabbages.
p73
sba(i__main__
Sentence
p74
(dp75
g17
I1
sg18
(lp76
S'And'
p77
aS'a'
p78
aS'little'
p79
aS'hare'
p80
aS'came'
p81
aS'into'
p82
aS'it'
p83
aS','
p84
aS'and'
p85
aS'during'
p86
aS'the'
p87
aS'winter'
p88
aS'time'
p89
aS'ate'
p90
aS'all'
p91
aS'the'
p92
aS'cabbages'
p93
aS'.'
p94
asg37
(lp95
VAnd
p96
ag42
aVlittle
p97
aVhare
p98
aVcame
p99
aVinto
p100
aVit
p101
aV,
p102
aVand
p103
aVduring
p104
aVthe
p105
aVwinter
p106
aVtime
p107
aVate
p108
aVall
p109
aVthe
p110
aVcabbage
p111
ag54
asg55
(lp112
g57
ag57
ag57
ag57
ag57
ag57
ag57
ag57
ag57
ag57
ag57
ag57
ag57
ag57
ag57
ag57
ag57
ag57
asg58
(lp113
g65
ag63
ag62
aS'JJ'
p114
ag64
ag69
aS'PRP'
p115
aS','
p116
ag65
ag69
ag63
ag64
ag64
ag64
ag63
ag63
ag70
ag71
asg72
VAnd a little hare came into it, and during the winter time ate all the cabbages.
p117
sba(i__main__
Sentence
p118
(dp119
g17
I2
sg18
(lp120
S'Then'
p121
aS'says'
p122
aS'the'
p123
aS'mother'
p124
aS'to'
p125
aS'the'
p126
aS'daughter'
p127
aS','
p128
aS'go'
p129
aS'into'
p130
aS'the'
p131
aS'garden'
p132
aS','
p133
aS'and'
p134
aS'chase'
p135
aS'the'
p136
aS'hare'
p137
aS'away'
p138
aS'.'
p139
asg37
(lp140
VThen
p141
aVsay
p142
aVthe
p143
aVmother
p144
aVto
p145
aVthe
p146
aVdaughter
p147
ag102
aVgo
p148
aVinto
p149
aVthe
p150
aVgarden
p151
ag102
aVand
p152
aVchase
p153
aVthe
p154
aVhare
p155
aVaway
p156
ag54
asg55
(lp157
g57
ag57
ag57
ag57
ag57
ag57
ag57
ag57
ag57
ag57
ag57
ag57
ag57
ag57
ag57
ag57
ag57
ag57
ag57
asg58
(lp158
g62
aS'VBZ'
p159
ag63
ag64
aS'TO'
p160
ag63
ag64
ag116
aS'VBP'
p161
ag69
ag63
ag114
ag116
ag65
aS'VB'
p162
ag63
ag64
ag62
ag71
asg72
VThen says the mother to the daughter, go into the garden, and chase the hare away.
p163
sba(i__main__
Sentence
p164
(dp165
g17
I3
sg18
(lp166
S'The'
p167
aS'girl'
p168
aS'says'
p169
aS'to'
p170
aS'the'
p171
aS'little'
p172
aS'hare'
p173
aS','
p174
aS'sh-sh'
p175
aS','
p176
aS'hare'
p177
aS','
p178
aS'you'
p179
aS'will'
p180
aS'be'
p181
aS'eating'
p182
aS'all'
p183
aS'our'
p184
aS'cabbages'
p185
aS'.'
p186
asg37
(lp187
VThe
p188
aVgirl
p189
aVsay
p190
aVto
p191
aVthe
p192
aVlittle
p193
aVhare
p194
ag102
aVsh-sh
p195
ag102
aVhare
p196
ag102
aVyou
p197
aVwill
p198
aVbe
p199
aVeat
p200
aVall
p201
aVour
p202
aVcabbage
p203
ag54
asg55
(lp204
g57
ag57
ag57
ag57
ag57
ag57
ag57
ag57
ag57
ag57
ag57
ag57
ag57
ag57
ag57
ag57
ag57
ag57
ag57
ag57
asg58
(lp205
g63
ag64
ag159
ag160
ag63
ag114
ag64
ag116
ag114
ag116
ag114
ag116
ag115
aS'MD'
p206
ag162
aS'VBG'
p207
ag63
ag66
ag70
ag71
asg72
VThe girl says to the little hare, sh-sh, hare, you will be eating all our cabbages.
p208
sba(i__main__
Sentence
p209
(dp210
g17
I4
sg18
(lp211
S'Says'
p212
aS'the'
p213
aS'hare'
p214
aS','
p215
aS'come'
p216
aS','
p217
aS'maiden'
p218
aS','
p219
aS'and'
p220
aS'seat'
p221
aS'yourself'
p222
aS'on'
p223
aS'my'
p224
aS'little'
p225
aS'hare'
p226
aS"'s"
p227
aS'tail'
p228
aS','
p229
aS'and'
p230
aS'come'
p231
aS'with'
p232
aS'me'
p233
aS'into'
p234
aS'my'
p235
aS'little'
p236
aS'hare'
p237
aS"'s"
p238
aS'hut'
p239
aS'.'
p240
asg37
(lp241
VSays
p242
aVthe
p243
aVhare
p244
ag102
aVcome
p245
ag102
aVmaiden
p246
ag102
aVand
p247
aVseat
p248
aVyourself
p249
aVon
p250
aVmy
p251
aVlittle
p252
aVhare
p253
aV's
p254
aVtail
p255
ag102
aVand
p256
aVcome
p257
aVwith
p258
aVme
p259
aVinto
p260
aVmy
p261
aVlittle
p262
aVhare
p263
aV's
p264
aVhut
p265
ag54
asg55
(lp266
g57
ag57
ag57
ag57
ag57
ag57
ag57
ag57
ag57
ag57
ag57
ag57
ag57
ag57
ag57
ag57
ag57
ag57
ag57
ag57
ag57
ag57
ag57
ag57
ag57
ag57
ag57
ag57
ag57
asg58
(lp267
g159
ag63
ag64
ag116
ag161
ag116
ag68
ag116
ag65
ag64
ag115
ag69
ag66
ag114
ag64
aS'POS'
p268
ag64
ag116
ag65
ag162
ag69
ag115
ag69
ag66
ag114
ag64
ag268
ag64
ag71
asg72
VSays the hare, come, maiden, and seat yourself on my little hare's tail, and come with me into my little hare's hut.
p269
sba(i__main__
Sentence
p270
(dp271
g17
I5
sg18
(lp272
S'The'
p273
aS'girl'
p274
aS'will'
p275
aS'not'
p276
aS'do'
p277
aS'it'
p278
aS'.'
p279
asg37
(lp280
VThe
p281
aVgirl
p282
aVwill
p283
aVnot
p284
aVdo
p285
aVit
p286
ag54
asg55
(lp287
g57
ag57
ag57
ag57
ag57
ag57
ag57
asg58
(lp288
g63
ag64
ag206
ag62
ag162
ag115
ag71
asg72
VThe girl will not do it.
p289
sba(i__main__
Sentence
p290
(dp291
g17
I6
sg18
(lp292
S'Next'
p293
aS'day'
p294
aS'the'
p295
aS'hare'
p296
aS'comes'
p297
aS'again'
p298
aS'and'
p299
aS'eats'
p300
aS'the'
p301
aS'cabbages'
p302
aS','
p303
aS'then'
p304
aS'says'
p305
aS'the'
p306
aS'mother'
p307
aS'to'
p308
aS'the'
p309
aS'daughter'
p310
aS','
p311
aS'go'
p312
aS'into'
p313
aS'the'
p314
aS'garden'
p315
aS','
p316
aS'and'
p317
aS'drive'
p318
aS'the'
p319
aS'hare'
p320
aS'away'
p321
aS'.'
p322
asg37
(lp323
VNext
p324
aVday
p325
aVthe
p326
aVhare
p327
aVcome
p328
aVagain
p329
aVand
p330
aVeats
p331
aVthe
p332
aVcabbage
p333
ag102
aVthen
p334
aVsay
p335
aVthe
p336
aVmother
p337
aVto
p338
aVthe
p339
aVdaughter
p340
ag102
aVgo
p341
aVinto
p342
aVthe
p343
aVgarden
p344
ag102
aVand
p345
aVdrive
p346
aVthe
p347
aVhare
p348
aVaway
p349
ag54
asg55
(lp350
g57
ag57
ag57
ag57
ag57
ag57
ag57
ag57
ag57
ag57
ag57
ag57
ag57
ag57
ag57
ag57
ag57
ag57
ag57
ag57
ag57
ag57
ag57
ag57
ag57
ag57
ag57
ag57
ag57
ag57
asg58
(lp351
g114
ag64
ag63
ag64
ag159
ag62
ag65
ag70
ag63
ag70
ag116
ag62
ag159
ag63
ag64
ag160
ag63
ag64
ag116
ag161
ag69
ag63
ag114
ag116
ag65
ag114
ag63
ag64
ag62
ag71
asg72
VNext day the hare comes again and eats the cabbages, then says the mother to the daughter, go into the garden, and drive the hare away.
p352
sba(i__main__
Sentence
p353
(dp354
g17
I7
sg18
(lp355
S'The'
p356
aS'girl'
p357
aS'says'
p358
aS'to'
p359
aS'the'
p360
aS'hare'
p361
aS','
p362
aS'sh-sh'
p363
aS','
p364
aS'little'
p365
aS'hare'
p366
aS','
p367
aS'you'
p368
aS'will'
p369
aS'be'
p370
aS'eating'
p371
aS'all'
p372
aS'the'
p373
aS'cabbages'
p374
aS'.'
p375
asg37
(lp376
VThe
p377
aVgirl
p378
aVsay
p379
aVto
p380
aVthe
p381
aVhare
p382
ag102
aVsh-sh
p383
ag102
aVlittle
p384
aVhare
p385
ag102
aVyou
p386
aVwill
p387
aVbe
p388
aVeat
p389
aVall
p390
aVthe
p391
aVcabbage
p392
ag54
asg55
(lp393
g57
ag57
ag57
ag57
ag57
ag57
ag57
ag57
ag57
ag57
ag57
ag57
ag57
ag57
ag57
ag57
ag57
ag57
ag57
ag57
asg58
(lp394
g63
ag64
ag159
ag160
ag63
ag64
ag116
ag114
ag116
ag114
ag64
ag116
ag115
ag206
ag162
ag207
ag63
ag63
ag70
ag71
asg72
VThe girl says to the hare, sh-sh, little hare, you will be eating all the cabbages.
p395
sba(i__main__
Sentence
p396
(dp397
g17
I8
sg18
(lp398
S'The'
p399
aS'little'
p400
aS'hare'
p401
aS'says'
p402
aS','
p403
aS'maiden'
p404
aS','
p405
aS'seat'
p406
aS'yourself'
p407
aS'on'
p408
aS'my'
p409
aS'little'
p410
aS'hare'
p411
aS"'s"
p412
aS'tail'
p413
aS','
p414
aS'and'
p415
aS'come'
p416
aS'with'
p417
aS'me'
p418
aS'into'
p419
aS'my'
p420
aS'little'
p421
aS'hare'
p422
aS"'s"
p423
aS'hut'
p424
aS'.'
p425
asg37
(lp426
VThe
p427
aVlittle
p428
aVhare
p429
aVsay
p430
ag102
aVmaiden
p431
ag102
aVseat
p432
aVyourself
p433
aVon
p434
aVmy
p435
aVlittle
p436
aVhare
p437
aV's
p438
aVtail
p439
ag102
aVand
p440
aVcome
p441
aVwith
p442
aVme
p443
aVinto
p444
aVmy
p445
aVlittle
p446
aVhare
p447
aV's
p448
aVhut
p449
ag54
asg55
(lp450
g57
ag57
ag57
ag57
ag57
ag57
ag57
ag57
ag57
ag57
ag57
ag57
ag57
ag57
ag57
ag57
ag57
ag57
ag57
ag57
ag57
ag57
ag57
ag57
ag57
ag57
ag57
asg58
(lp451
g63
ag114
ag64
ag159
ag116
ag68
ag116
ag64
ag115
ag69
ag66
ag114
ag64
ag268
ag64
ag116
ag65
ag162
ag69
ag115
ag69
ag66
ag114
ag64
ag268
ag64
ag71
asg72
VThe little hare says, maiden, seat yourself on my little hare's tail, and come with me into my little hare's hut.
p452
sba(i__main__
Sentence
p453
(dp454
g17
I9
sg18
(lp455
S'The'
p456
aS'maiden'
p457
aS'refuses'
p458
aS'.'
p459
asg37
(lp460
VThe
p461
aVmaiden
p462
aVrefuse
p463
ag54
asg55
(lp464
g57
ag57
ag57
ag57
asg58
(lp465
g63
ag68
ag70
ag71
asg72
VThe maiden refuses.
p466
sba(i__main__
Sentence
p467
(dp468
g17
I10
sg18
(lp469
S'The'
p470
aS'third'
p471
aS'day'
p472
aS'the'
p473
aS'hare'
p474
aS'comes'
p475
aS'again'
p476
aS','
p477
aS'and'
p478
aS'eats'
p479
aS'the'
p480
aS'cabbages'
p481
aS'.'
p482
asg37
(lp483
VThe
p484
aVthird
p485
aVday
p486
aVthe
p487
aVhare
p488
aVcome
p489
aVagain
p490
ag102
aVand
p491
aVeats
p492
aVthe
p493
aVcabbage
p494
ag54
asg55
(lp495
g57
ag57
ag57
ag57
ag57
ag57
ag57
ag57
ag57
ag57
ag57
ag57
ag57
asg58
(lp496
g63
ag114
ag64
ag63
ag64
ag159
ag62
ag116
ag65
ag70
ag63
ag70
ag71
asg72
VThe third day the hare comes again, and eats the cabbages.
p497
sba(i__main__
Sentence
p498
(dp499
g17
I11
sg18
(lp500
S'On'
p501
aS'this'
p502
aS'the'
p503
aS'mother'
p504
aS'says'
p505
aS'to'
p506
aS'the'
p507
aS'daughter'
p508
aS','
p509
aS'go'
p510
aS'into'
p511
aS'the'
p512
aS'garden'
p513
aS','
p514
aS'and'
p515
aS'hunt'
p516
aS'the'
p517
aS'hare'
p518
aS'away'
p519
aS'.'
p520
asg37
(lp521
VOn
p522
aVthis
p523
aVthe
p524
aVmother
p525
aVsay
p526
aVto
p527
aVthe
p528
aVdaughter
p529
ag102
aVgo
p530
aVinto
p531
aVthe
p532
aVgarden
p533
ag102
aVand
p534
aVhunt
p535
aVthe
p536
aVhare
p537
aVaway
p538
ag54
asg55
(lp539
g57
ag57
ag57
ag57
ag57
ag57
ag57
ag57
ag57
ag57
ag57
ag57
ag57
ag57
ag57
ag57
ag57
ag57
ag57
ag57
asg58
(lp540
g69
ag63
ag63
ag64
ag159
ag160
ag63
ag64
ag116
ag161
ag69
ag63
ag114
ag116
ag65
ag64
ag63
ag64
ag62
ag71
asg72
VOn this the mother says to the daughter, go into the garden, and hunt the hare away.
p541
sba(i__main__
Sentence
p542
(dp543
g17
I12
sg18
(lp544
S'Says'
p545
aS'the'
p546
aS'maiden'
p547
aS','
p548
aS'sh-sh'
p549
aS','
p550
aS'little'
p551
aS'hare'
p552
aS','
p553
aS'you'
p554
aS'will'
p555
aS'be'
p556
aS'eating'
p557
aS'all'
p558
aS'our'
p559
aS'cabbages'
p560
aS'.'
p561
asg37
(lp562
VSays
p563
aVthe
p564
aVmaiden
p565
ag102
aVsh-sh
p566
ag102
aVlittle
p567
aVhare
p568
ag102
aVyou
p569
aVwill
p570
aVbe
p571
aVeat
p572
aVall
p573
aVour
p574
aVcabbage
p575
ag54
asg55
(lp576
g57
ag57
ag57
ag57
ag57
ag57
ag57
ag57
ag57
ag57
ag57
ag57
ag57
ag57
ag57
ag57
ag57
asg58
(lp577
g159
ag63
ag64
ag116
ag114
ag116
ag114
ag64
ag116
ag115
ag206
ag162
ag207
ag63
ag66
ag70
ag71
asg72
VSays the maiden, sh-sh, little hare, you will be eating all our cabbages.
p578
sba(i__main__
Sentence
p579
(dp580
g17
I13
sg18
(lp581
S'Says'
p582
aS'the'
p583
aS'little'
p584
aS'hare'
p585
aS','
p586
aS'come'
p587
aS','
p588
aS'maiden'
p589
aS','
p590
aS'seat'
p591
aS'yourself'
p592
aS'on'
p593
aS'my'
p594
aS'little'
p595
aS'hare'
p596
aS"'s"
p597
aS'tail'
p598
aS','
p599
aS'and'
p600
aS'come'
p601
aS'with'
p602
aS'me'
p603
aS'into'
p604
aS'my'
p605
aS'little'
p606
aS'hare'
p607
aS"'s"
p608
aS'hut'
p609
aS'.'
p610
asg37
(lp611
VSays
p612
aVthe
p613
aVlittle
p614
aVhare
p615
ag102
aVcome
p616
ag102
aVmaiden
p617
ag102
aVseat
p618
aVyourself
p619
aVon
p620
aVmy
p621
aVlittle
p622
aVhare
p623
aV's
p624
aVtail
p625
ag102
aVand
p626
aVcome
p627
aVwith
p628
aVme
p629
aVinto
p630
aVmy
p631
aVlittle
p632
aVhare
p633
aV's
p634
aVhut
p635
ag54
asg55
(lp636
g57
ag57
ag57
ag57
ag57
ag57
ag57
ag57
ag57
ag57
ag57
ag57
ag57
ag57
ag57
ag57
ag57
ag57
ag57
ag57
ag57
ag57
ag57
ag57
ag57
ag57
ag57
ag57
ag57
asg58
(lp637
g159
ag63
ag114
ag64
ag116
ag161
ag116
ag68
ag116
ag64
ag115
ag69
ag66
ag114
ag64
ag268
ag64
ag116
ag65
ag162
ag69
ag115
ag69
ag66
ag114
ag64
ag268
ag64
ag71
asg72
VSays the little hare, come, maiden, seat yourself on my little hare's tail, and come with me into my little hare's hut.
p638
sba(i__main__
Sentence
p639
(dp640
g17
I14
sg18
(lp641
S'The'
p642
aS'girl'
p643
aS'seats'
p644
aS'herself'
p645
aS'on'
p646
aS'the'
p647
aS'little'
p648
aS'hare'
p649
aS"'s"
p650
aS'tail'
p651
aS','
p652
aS'and'
p653
aS'then'
p654
aS'the'
p655
aS'hare'
p656
aS'takes'
p657
aS'her'
p658
aS'far'
p659
aS'away'
p660
aS'to'
p661
aS'his'
p662
aS'little'
p663
aS'hut'
p664
aS','
p665
aS'and'
p666
aS'says'
p667
aS','
p668
aS'now'
p669
aS'cook'
p670
aS'green'
p671
aS'cabbage'
p672
aS'and'
p673
aS'millet-seed'
p674
aS','
p675
aS'and'
p676
aS'I'
p677
aS'will'
p678
aS'invite'
p679
aS'the'
p680
aS'wedding-guests'
p681
aS'.'
p682
asg37
(lp683
VThe
p684
aVgirl
p685
aVseat
p686
aVherself
p687
aVon
p688
aVthe
p689
aVlittle
p690
aVhare
p691
aV's
p692
aVtail
p693
ag102
aVand
p694
aVthen
p695
aVthe
p696
aVhare
p697
aVtake
p698
aVher
p699
aVfar
p700
aVaway
p701
aVto
p702
aVhis
p703
aVlittle
p704
aVhut
p705
ag102
aVand
p706
aVsay
p707
ag102
aVnow
p708
aVcook
p709
aVgreen
p710
aVcabbage
p711
aVand
p712
aVmillet-seed
p713
ag102
aVand
p714
aVI
p715
aVwill
p716
aVinvite
p717
aVthe
p718
aVwedding-guests
p719
ag54
asg55
(lp720
g57
ag57
ag57
ag57
ag57
ag57
ag57
ag57
ag57
ag57
ag57
ag57
ag57
ag57
ag57
ag57
ag57
ag57
ag57
ag57
ag57
ag57
ag57
ag57
ag57
ag57
ag57
ag57
ag57
ag57
ag57
ag57
ag57
ag57
ag57
ag57
ag57
ag57
ag57
ag57
ag57
asg58
(lp721
g63
ag64
ag70
ag115
ag69
ag63
ag114
ag64
ag268
ag64
ag116
ag65
ag62
ag63
ag64
ag159
ag66
ag64
ag62
ag160
ag66
ag114
ag64
ag116
ag65
ag159
ag116
ag62
ag161
ag114
ag64
ag65
ag114
ag116
ag65
ag115
ag206
ag162
ag63
ag70
ag71
asg72
VThe girl seats herself on the little hare's tail, and then the hare takes her far away to his little hut, and says, now cook green cabbage and millet-seed, and I will invite the wedding-guests.
p722
sba(i__main__
Sentence
p723
(dp724
g17
I15
sg18
(lp725
S'Then'
p726
aS'all'
p727
aS'the'
p728
aS'wedding-guests'
p729
aS'assembled'
p730
aS'.'
p731
asg37
(lp732
VThen
p733
aVall
p734
aVthe
p735
aVwedding-guests
p736
aVassemble
p737
ag54
asg55
(lp738
g57
ag57
ag57
ag57
ag57
ag57
asg58
(lp739
g62
ag63
ag63
ag70
ag61
ag71
asg72
VThen all the wedding-guests assembled.
p740
sba(i__main__
Sentence
p741
(dp742
g17
I16
sg18
(lp743
S'Who'
p744
aS'were'
p745
aS'the'
p746
aS'wedding-guests'
p747
aS'?'
p748
asg37
(lp749
VWho
p750
aVbe
p751
aVthe
p752
aVwedding-guests
p753
aV?
p754
asg55
(lp755
g57
ag57
ag57
ag57
ag57
asg58
(lp756
g67
ag61
ag63
ag70
ag71
asg72
VWho were the wedding-guests?
p757
sba(i__main__
Sentence
p758
(dp759
g17
I17
sg18
(lp760
S'That'
p761
aS'I'
p762
aS'can'
p763
aS'tell'
p764
aS'you'
p765
aS'as'
p766
aS'another'
p767
aS'told'
p768
aS'it'
p769
aS'to'
p770
aS'me'
p771
aS'.'
p772
asg37
(lp773
VThat
p774
ag715
aVcan
p775
aVtell
p776
aVyou
p777
ag42
aVanother
p778
aVtold
p779
aVit
p780
aVto
p781
aVme
p782
ag54
asg55
(lp783
g57
ag57
ag57
ag57
ag57
ag57
ag57
ag57
ag57
ag57
ag57
ag57
asg58
(lp784
g63
ag115
ag206
ag162
ag115
ag69
ag63
ag64
ag115
ag160
ag115
ag71
asg72
VThat I can tell you as another told it to me.
p785
sba(i__main__
Sentence
p786
(dp787
g17
I18
sg18
(lp788
S'They'
p789
aS'were'
p790
aS'all'
p791
aS'hares'
p792
aS','
p793
aS'and'
p794
aS'the'
p795
aS'crow'
p796
aS'was'
p797
aS'there'
p798
aS'as'
p799
aS'parson'
p800
aS'to'
p801
aS'marry'
p802
aS'the'
p803
aS'bride'
p804
aS'and'
p805
aS'bridegroom'
p806
aS','
p807
aS'and'
p808
aS'the'
p809
aS'fox'
p810
aS'as'
p811
aS'clerk'
p812
aS','
p813
aS'and'
p814
aS'the'
p815
aS'altar'
p816
aS'was'
p817
aS'under'
p818
aS'the'
p819
aS'rainbow'
p820
aS'.'
p821
asg37
(lp822
VThey
p823
ag751
aVall
p824
aVhare
p825
ag102
aVand
p826
aVthe
p827
aVcrow
p828
ag40
aVthere
p829
ag42
aVparson
p830
aVto
p831
aVmarry
p832
aVthe
p833
aVbride
p834
aVand
p835
aVbridegroom
p836
ag102
aVand
p837
aVthe
p838
aVfox
p839
ag42
aVclerk
p840
ag102
aVand
p841
aVthe
p842
aValtar
p843
ag40
aVunder
p844
aVthe
p845
aVrainbow
p846
ag54
asg55
(lp847
g57
ag57
ag57
ag57
ag57
ag57
ag57
ag57
ag57
ag57
ag57
ag57
ag57
ag57
ag57
ag57
ag57
ag57
ag57
ag57
ag57
ag57
ag57
ag57
ag57
ag57
ag57
ag57
ag57
ag57
ag57
ag57
ag57
asg58
(lp848
g115
ag61
aS'PDT'
p849
ag70
ag116
ag65
ag63
ag64
ag61
ag62
ag69
ag64
ag160
ag162
ag63
ag64
ag65
ag64
ag116
ag65
ag63
ag64
ag69
ag64
ag116
ag65
ag63
ag64
ag61
ag69
ag63
ag64
ag71
asg72
VThey were all hares, and the crow was there as parson to marry the bride and bridegroom, and the fox as clerk, and the altar was under the rainbow.
p850
sba(i__main__
Sentence
p851
(dp852
g17
I19
sg18
(lp853
S'The'
p854
aS'girl'
p855
aS','
p856
aS'however'
p857
aS','
p858
aS'was'
p859
aS'sad'
p860
aS','
p861
aS'for'
p862
aS'she'
p863
aS'was'
p864
aS'all'
p865
aS'alone'
p866
aS'.'
p867
asg37
(lp868
VThe
p869
aVgirl
p870
ag102
aVhowever
p871
ag102
ag40
aVsad
p872
ag102
aVfor
p873
aVshe
p874
ag40
aVall
p875
aValone
p876
ag54
asg55
(lp877
g57
ag57
ag57
ag57
ag57
ag57
ag57
ag57
ag57
ag57
ag57
ag57
ag57
ag57
asg58
(lp878
g63
ag64
ag116
ag62
ag116
ag61
ag114
ag116
ag69
ag115
ag61
ag849
ag62
ag71
asg72
VThe girl, however, was sad, for she was all alone.
p879
sba(i__main__
Sentence
p880
(dp881
g17
I20
sg18
(lp882
S'The'
p883
aS'little'
p884
aS'hare'
p885
aS'comes'
p886
aS'and'
p887
aS'says'
p888
aS','
p889
aS'open'
p890
aS'the'
p891
aS'doors'
p892
aS','
p893
aS'open'
p894
aS'the'
p895
aS'doors'
p896
aS','
p897
aS'the'
p898
aS'wedding-guests'
p899
aS'are'
p900
aS'merry'
p901
aS'.'
p902
asg37
(lp903
VThe
p904
aVlittle
p905
aVhare
p906
aVcome
p907
aVand
p908
aVsay
p909
ag102
aVopen
p910
aVthe
p911
aVdoor
p912
ag102
aVopen
p913
aVthe
p914
aVdoor
p915
ag102
aVthe
p916
aVwedding-guests
p917
aVbe
p918
aVmerry
p919
ag54
asg55
(lp920
g57
ag57
ag57
ag57
ag57
ag57
ag57
ag57
ag57
ag57
ag57
ag57
ag57
ag57
ag57
ag57
ag57
ag57
ag57
ag57
asg58
(lp921
g63
ag114
ag64
ag159
ag65
ag159
ag116
ag114
ag63
ag70
ag116
ag114
ag63
ag70
ag116
ag63
ag70
ag161
ag114
ag71
asg72
VThe little hare comes and says, open the doors, open the doors, the wedding-guests are merry.
p922
sba(i__main__
Sentence
p923
(dp924
g17
I21
sg18
(lp925
S'The'
p926
aS'bride'
p927
aS'says'
p928
aS'nothing'
p929
aS','
p930
aS'but'
p931
aS'weeps'
p932
aS'.'
p933
asg37
(lp934
VThe
p935
aVbride
p936
aVsay
p937
aVnothing
p938
ag102
aVbut
p939
aVweeps
p940
ag54
asg55
(lp941
g57
ag57
ag57
ag57
ag57
ag57
ag57
ag57
asg58
(lp942
g63
ag64
ag159
ag64
ag116
ag65
ag70
ag71
asg72
VThe bride says nothing, but weeps.
p943
sba(i__main__
Sentence
p944
(dp945
g17
I22
sg18
(lp946
S'The'
p947
aS'little'
p948
aS'hare'
p949
aS'goes'
p950
aS'away'
p951
aS'.'
p952
asg37
(lp953
VThe
p954
aVlittle
p955
aVhare
p956
aVgo
p957
aVaway
p958
ag54
asg55
(lp959
g57
ag57
ag57
ag57
ag57
ag57
asg58
(lp960
g63
ag114
ag64
ag159
ag62
ag71
asg72
VThe little hare goes away.
p961
sba(i__main__
Sentence
p962
(dp963
g17
I23
sg18
(lp964
S'The'
p965
aS'little'
p966
aS'hare'
p967
aS'comes'
p968
aS'back'
p969
aS'and'
p970
aS'says'
p971
aS','
p972
aS'take'
p973
aS'off'
p974
aS'the'
p975
aS'lid'
p976
aS','
p977
aS'take'
p978
aS'off'
p979
aS'the'
p980
aS'lid'
p981
aS','
p982
aS'the'
p983
aS'wedding-guests'
p984
aS'are'
p985
aS'hungry'
p986
aS'.'
p987
asg37
(lp988
VThe
p989
aVlittle
p990
aVhare
p991
aVcome
p992
aVback
p993
aVand
p994
aVsay
p995
ag102
aVtake
p996
aVoff
p997
aVthe
p998
aVlid
p999
ag102
aVtake
p1000
aVoff
p1001
aVthe
p1002
aVlid
p1003
ag102
aVthe
p1004
aVwedding-guests
p1005
ag918
aVhungry
p1006
ag54
asg55
(lp1007
g57
ag57
ag57
ag57
ag57
ag57
ag57
ag57
ag57
ag57
ag57
ag57
ag57
ag57
ag57
ag57
ag57
ag57
ag57
ag57
ag57
ag57
ag57
asg58
(lp1008
g63
ag114
ag64
ag159
ag62
ag65
ag159
ag116
ag161
aS'RP'
p1009
ag63
ag114
ag116
ag161
ag1009
ag63
ag114
ag116
ag63
ag70
ag161
ag114
ag71
asg72
VThe little hare comes back and says, take off the lid, take off the lid, the wedding-guests are hungry.
p1010
sba(i__main__
Sentence
p1011
(dp1012
g17
I24
sg18
(lp1013
S'The'
p1014
aS'bride'
p1015
aS'again'
p1016
aS'says'
p1017
aS'nothing'
p1018
aS','
p1019
aS'and'
p1020
aS'weeps'
p1021
aS'.'
p1022
asg37
(lp1023
VThe
p1024
aVbride
p1025
aVagain
p1026
aVsay
p1027
aVnothing
p1028
ag102
aVand
p1029
aVweeps
p1030
ag54
asg55
(lp1031
g57
ag57
ag57
ag57
ag57
ag57
ag57
ag57
ag57
asg58
(lp1032
g63
ag64
ag62
ag159
ag64
ag116
ag65
ag70
ag71
asg72
VThe bride again says nothing, and weeps.
p1033
sba(i__main__
Sentence
p1034
(dp1035
g17
I25
sg18
(lp1036
S'The'
p1037
aS'little'
p1038
aS'hare'
p1039
aS'goes'
p1040
aS'away'
p1041
aS'.'
p1042
asg37
(lp1043
VThe
p1044
aVlittle
p1045
aVhare
p1046
aVgo
p1047
aVaway
p1048
ag54
asg55
(lp1049
g57
ag57
ag57
ag57
ag57
ag57
asg58
(lp1050
g63
ag114
ag64
ag159
ag62
ag71
asg72
VThe little hare goes away.
p1051
sba(i__main__
Sentence
p1052
(dp1053
g17
I26
sg18
(lp1054
S'The'
p1055
aS'little'
p1056
aS'hare'
p1057
aS'comes'
p1058
aS'back'
p1059
aS'and'
p1060
aS'says'
p1061
aS','
p1062
aS'take'
p1063
aS'off'
p1064
aS'the'
p1065
aS'lid'
p1066
aS','
p1067
aS'take'
p1068
aS'off'
p1069
aS'the'
p1070
aS'lid'
p1071
aS','
p1072
aS'the'
p1073
aS'wedding-guests'
p1074
aS'are'
p1075
aS'waiting'
p1076
aS'.'
p1077
asg37
(lp1078
VThe
p1079
aVlittle
p1080
aVhare
p1081
aVcome
p1082
aVback
p1083
aVand
p1084
aVsay
p1085
ag102
aVtake
p1086
aVoff
p1087
aVthe
p1088
aVlid
p1089
ag102
aVtake
p1090
aVoff
p1091
aVthe
p1092
aVlid
p1093
ag102
aVthe
p1094
aVwedding-guests
p1095
ag918
aVwait
p1096
ag54
asg55
(lp1097
g57
ag57
ag57
ag57
ag57
ag57
ag57
ag57
ag57
ag57
ag57
ag57
ag57
ag57
ag57
ag57
ag57
ag57
ag57
ag57
ag57
ag57
ag57
asg58
(lp1098
g63
ag114
ag64
ag159
ag62
ag65
ag159
ag116
ag161
ag1009
ag63
ag114
ag116
ag161
ag1009
ag63
ag114
ag116
ag63
ag70
ag161
ag207
ag71
asg72
VThe little hare comes back and says, take off the lid, take off the lid, the wedding-guests are waiting.
p1099
sba(i__main__
Sentence
p1100
(dp1101
g17
I27
sg18
(lp1102
S'Then'
p1103
aS'the'
p1104
aS'bride'
p1105
aS'says'
p1106
aS'nothing'
p1107
aS','
p1108
aS'and'
p1109
aS'the'
p1110
aS'hare'
p1111
aS'goes'
p1112
aS'away'
p1113
aS','
p1114
aS'but'
p1115
aS'she'
p1116
aS'dresses'
p1117
aS'a'
p1118
aS'straw-doll'
p1119
aS'in'
p1120
aS'her'
p1121
aS'clothes'
p1122
aS','
p1123
aS'and'
p1124
aS'gives'
p1125
aS'her'
p1126
aS'a'
p1127
aS'spoon'
p1128
aS'to'
p1129
aS'stir'
p1130
aS'with'
p1131
aS','
p1132
aS'and'
p1133
aS'sets'
p1134
aS'her'
p1135
aS'by'
p1136
aS'the'
p1137
aS'pan'
p1138
aS'with'
p1139
aS'the'
p1140
aS'millet-seed'
p1141
aS','
p1142
aS'and'
p1143
aS'goes'
p1144
aS'back'
p1145
aS'to'
p1146
aS'her'
p1147
aS'mother'
p1148
aS'.'
p1149
asg37
(lp1150
VThen
p1151
aVthe
p1152
aVbride
p1153
aVsay
p1154
aVnothing
p1155
ag102
aVand
p1156
aVthe
p1157
aVhare
p1158
aVgo
p1159
aVaway
p1160
ag102
aVbut
p1161
aVshe
p1162
aVdress
p1163
ag42
aVstraw-doll
p1164
aVin
p1165
aVher
p1166
aVclothes
p1167
ag102
aVand
p1168
aVgive
p1169
aVher
p1170
ag42
aVspoon
p1171
aVto
p1172
aVstir
p1173
aVwith
p1174
ag102
aVand
p1175
aVset
p1176
aVher
p1177
aVby
p1178
aVthe
p1179
aVpan
p1180
aVwith
p1181
aVthe
p1182
aVmillet-seed
p1183
ag102
aVand
p1184
aVgo
p1185
aVback
p1186
aVto
p1187
aVher
p1188
aVmother
p1189
ag54
asg55
(lp1190
g57
ag57
ag57
ag57
ag57
ag57
ag57
ag57
ag57
ag57
ag57
ag57
ag57
ag57
ag57
ag57
ag57
ag57
ag57
ag57
ag57
ag57
ag57
ag57
ag57
ag57
ag57
ag57
ag57
ag57
ag57
ag57
ag57
ag57
ag57
ag57
ag57
ag57
ag57
ag57
ag57
ag57
ag57
ag57
ag57
ag57
ag57
asg58
(lp1191
g62
ag63
ag64
ag159
ag64
ag116
ag65
ag63
ag64
ag159
ag62
ag116
ag65
ag115
ag159
ag63
ag114
ag69
ag66
ag70
ag116
ag65
ag159
ag66
ag63
ag64
ag160
ag162
ag69
ag116
ag65
ag70
ag66
ag69
ag63
ag64
ag69
ag63
ag114
ag116
ag65
ag159
ag1009
ag160
ag66
ag64
ag71
asg72
VThen the bride says nothing, and the hare goes away, but she dresses a straw-doll in her clothes, and gives her a spoon to stir with, and sets her by the pan with the millet-seed, and goes back to her mother.
p1192
sba(i__main__
Sentence
p1193
(dp1194
g17
I28
sg18
(lp1195
S'The'
p1196
aS'little'
p1197
aS'hare'
p1198
aS'comes'
p1199
aS'once'
p1200
aS'more'
p1201
aS'and'
p1202
aS'says'
p1203
aS','
p1204
aS'take'
p1205
aS'off'
p1206
aS'the'
p1207
aS'lid'
p1208
aS','
p1209
aS'take'
p1210
aS'off'
p1211
aS'the'
p1212
aS'lid'
p1213
aS','
p1214
aS'and'
p1215
aS'gets'
p1216
aS'up'
p1217
aS','
p1218
aS'and'
p1219
aS'strikes'
p1220
aS'the'
p1221
aS'doll'
p1222
aS'on'
p1223
aS'the'
p1224
aS'head'
p1225
aS'so'
p1226
aS'that'
p1227
aS'her'
p1228
aS'cap'
p1229
aS'falls'
p1230
aS'off'
p1231
aS'.'
p1232
asg37
(lp1233
VThe
p1234
aVlittle
p1235
aVhare
p1236
aVcome
p1237
aVonce
p1238
aVmore
p1239
aVand
p1240
aVsay
p1241
ag102
aVtake
p1242
aVoff
p1243
aVthe
p1244
aVlid
p1245
ag102
aVtake
p1246
aVoff
p1247
aVthe
p1248
aVlid
p1249
ag102
aVand
p1250
aVget
p1251
aVup
p1252
ag102
aVand
p1253
aVstrike
p1254
aVthe
p1255
aVdoll
p1256
aVon
p1257
aVthe
p1258
aVhead
p1259
aVso
p1260
aVthat
p1261
aVher
p1262
aVcap
p1263
aVfall
p1264
aVoff
p1265
ag54
asg55
(lp1266
g57
ag57
ag57
ag57
ag57
ag57
ag57
ag57
ag57
ag57
ag57
ag57
ag57
ag57
ag57
ag57
ag57
ag57
ag57
ag57
ag57
ag57
ag57
ag57
ag57
ag57
ag57
ag57
ag57
ag57
ag57
ag57
ag57
ag57
ag57
ag57
ag57
asg58
(lp1267
g63
ag114
ag64
ag159
ag62
aS'JJR'
p1268
ag65
ag159
ag116
ag161
ag1009
ag63
ag114
ag116
ag161
ag1009
ag63
ag114
ag116
ag65
ag159
ag1009
ag116
ag65
ag159
ag63
ag64
ag69
ag63
ag64
ag62
ag69
ag66
ag64
ag70
ag69
ag71
asg72
VThe little hare comes once more and says, take off the lid, take off the lid, and gets up, and strikes the doll on the head so that her cap falls off.
p1269
sba(i__main__
Sentence
p1270
(dp1271
g17
I29
sg18
(lp1272
S'Then'
p1273
aS'the'
p1274
aS'little'
p1275
aS'hare'
p1276
aS'sees'
p1277
aS'that'
p1278
aS'it'
p1279
aS'is'
p1280
aS'not'
p1281
aS'his'
p1282
aS'bride'
p1283
aS','
p1284
aS'and'
p1285
aS'goes'
p1286
aS'away'
p1287
aS'and'
p1288
aS'is'
p1289
aS'sorrowful'
p1290
aS'.'
p1291
asg37
(lp1292
VThen
p1293
aVthe
p1294
aVlittle
p1295
aVhare
p1296
aVsee
p1297
aVthat
p1298
aVit
p1299
aVbe
p1300
aVnot
p1301
aVhis
p1302
aVbride
p1303
ag102
aVand
p1304
aVgo
p1305
aVaway
p1306
aVand
p1307
ag1300
aVsorrowful
p1308
ag54
asg55
(lp1309
g57
ag57
ag57
ag57
ag57
ag57
ag57
ag57
ag57
ag57
ag57
ag57
ag57
ag57
ag57
ag57
ag57
ag57
ag57
asg58
(lp1310
g62
ag63
ag114
ag64
ag70
aS'WDT'
p1311
ag115
ag159
ag62
ag66
ag64
ag116
ag65
ag159
ag62
ag65
ag159
ag114
ag71
asg72
VThen the little hare sees that it is not his bride, and goes away and is sorrowful. 
p1312
sbasbsS'summary'
p1313
g0
(g7
g2
Ntp1314
Rp1315
(dp1316
g11
S"A hare tricks a human maiden into going with him to his hut and marrying him. The girl is sad because she is alone in the hare's world. She makes a human-sized doll of straw, dresses it in her clothes, and runs away."
p1317
sg13
(lp1318
(i__main__
Sentence
p1319
(dp1320
g17
I0
sg18
(lp1321
S'A'
p1322
aS'hare'
p1323
aS'tricks'
p1324
aS'a'
p1325
aS'human'
p1326
aS'maiden'
p1327
aS'into'
p1328
aS'going'
p1329
aS'with'
p1330
aS'him'
p1331
aS'to'
p1332
aS'his'
p1333
aS'hut'
p1334
aS'and'
p1335
aS'marrying'
p1336
aS'him'
p1337
aS'.'
p1338
asg37
(lp1339
VA
p1340
aVhare
p1341
aVtrick
p1342
ag42
aVhuman
p1343
aVmaiden
p1344
aVinto
p1345
aVgo
p1346
aVwith
p1347
aVhim
p1348
aVto
p1349
aVhis
p1350
aVhut
p1351
aVand
p1352
aVmarry
p1353
aVhim
p1354
ag54
asg55
(lp1355
g57
ag57
ag57
ag57
ag57
ag57
ag57
ag57
ag57
ag57
ag57
ag57
ag57
ag57
ag57
ag57
ag57
asg58
(lp1356
g63
ag64
ag159
ag63
ag114
ag64
ag69
ag207
ag69
ag115
ag160
ag66
ag64
ag65
ag207
ag115
ag71
asg72
VA hare tricks a human maiden into going with him to his hut and marrying him.
p1357
sba(i__main__
Sentence
p1358
(dp1359
g17
I1
sg18
(lp1360
S'The'
p1361
aS'girl'
p1362
aS'is'
p1363
aS'sad'
p1364
aS'because'
p1365
aS'she'
p1366
aS'is'
p1367
aS'alone'
p1368
aS'in'
p1369
aS'the'
p1370
aS'hare'
p1371
aS"'s"
p1372
aS'world'
p1373
aS'.'
p1374
asg37
(lp1375
VThe
p1376
aVgirl
p1377
ag1300
aVsad
p1378
aVbecause
p1379
aVshe
p1380
ag1300
aValone
p1381
aVin
p1382
aVthe
p1383
aVhare
p1384
aV's
p1385
aVworld
p1386
ag54
asg55
(lp1387
g57
ag57
ag57
ag57
ag57
ag57
ag57
ag57
ag57
ag57
ag57
ag57
ag57
ag57
asg58
(lp1388
g63
ag64
ag159
ag114
ag69
ag115
ag159
ag62
ag69
ag63
ag64
ag268
ag64
ag71
asg72
VThe girl is sad because she is alone in the hare's world.
p1389
sba(i__main__
Sentence
p1390
(dp1391
g17
I2
sg18
(lp1392
S'She'
p1393
aS'makes'
p1394
aS'a'
p1395
aS'human-sized'
p1396
aS'doll'
p1397
aS'of'
p1398
aS'straw'
p1399
aS','
p1400
aS'dresses'
p1401
aS'it'
p1402
aS'in'
p1403
aS'her'
p1404
aS'clothes'
p1405
aS','
p1406
aS'and'
p1407
aS'runs'
p1408
aS'away'
p1409
aS'.'
p1410
asg37
(lp1411
VShe
p1412
aVmake
p1413
ag42
aVhuman-sized
p1414
aVdoll
p1415
aVof
p1416
aVstraw
p1417
ag102
aVdress
p1418
aVit
p1419
aVin
p1420
aVher
p1421
aVclothes
p1422
ag102
aVand
p1423
aVrun
p1424
aVaway
p1425
ag54
asg55
(lp1426
g57
ag57
ag57
ag57
ag57
ag57
ag57
ag57
ag57
ag57
ag57
ag57
ag57
ag57
ag57
ag57
ag57
ag57
asg58
(lp1427
g115
ag159
ag63
ag114
ag64
ag69
ag64
ag116
ag70
ag115
ag69
ag66
ag70
ag116
ag65
ag159
ag62
ag71
asg72
VShe makes a human-sized doll of straw, dresses it in her clothes, and runs away.
p1428
sbasbsS'name'
p1429
S"The Hare's Bride"
p1430
sS'summaries'
p1431
(lp1432
g1315
asb.