ccopy_reg
_reconstructor
p0
(c__main__
Story
p1
c__builtin__
object
p2
Ntp3
Rp4
(dp5
S'text'
p6
g0
(c__main__
Document
p7
g2
Ntp8
Rp9
(dp10
S'_Document__initialContent'
p11
S'The "Red Death" had long devastated the country. No pestilence had ever been so fatal, or so hideous. Blood was its Avatar and its seal--the redness and the horror of blood. There were sharp pains, and sudden dizziness, and then profuse bleeding at the pores, with dissolution. The scarlet stains upon the body and especially upon the face of the victim, were the pest ban which shut him out from the aid and from the sympathy of his fellow-men. And the whole seizure, progress and termination of the disease, were the incidents of half an hour.\n\n\n\nBut the Prince Prospero was happy and dauntless and sagacious. When his dominions were half depopulated, he summoned to his presence a thousand hale and light-hearted friends from among the knights and dames of his court, and with these retired to the deep seclusion of one of his castellated abbeys. This was an extensive and magnificent structure, the creation of the prince\'s own eccentric yet august taste. A strong and lofty wall girdled it in. This wall had gates of iron. The courtiers, having entered, brought furnaces and massy hammers and welded the bolts. They resolved to leave means neither of ingress nor egress to the sudden impulses of despair or of frenzy from within. The abbey was amply provisioned. With such precautions the courtiers might bid defiance to contagion. The external world could take care of itself. In the meantime it was folly to grieve, or to think. The prince had provided all the appliances of pleasure. There were buffoons, there were improvisatori, there were ballet-dancers, there were musicians, there was Beauty, there was wine. All these and security were within. Without was the "Red Death".\n\n\n\n \t \n\nTired of reading? Add this page to your Bookmarks or Favorites and finish it later.\n\n\n\nIt was towards the close of the fifth or sixth month of his seclusion, and while the pestilence raged most furiously abroad, that the Prince Prospero entertained his thousand friends at a masked ball of the most unusual magnificence.\n\n\n\nIt was a voluptuous scene, that masquerade. But first let me tell of the rooms in which it was held. These were seven--an imperial suite. In many palaces, however, such suites form a long and straight vista, while the folding doors slide back nearly to the walls on either hand, so that the view of the whole extent is scarcely impeded. Here the case was very different, as might have been expected from the duke\'s love of the bizarre. The apartments were so irregularly disposed that the vision embraced but little more than one at a time. There was a sharp turn at every twenty or thirty yards, and at each turn a novel effect. To the right and left, in the middle of each wall, a tall and narrow Gothic window looked out upon a closed corridor which pursued the windings of the suite. These windows were of stained glass whose colour varied in accordance with the prevailing hue of the decorations of the chamber into which it opened. That at the eastern extremity was hung, for example in blue--and vividly blue were its windows. The second chamber was purple in its ornaments and tapestries, and here the panes were purple. The third was green throughout, and so were the casements. The fourth was furnished and lighted with orange--the fifth with white--the sixth with violet. The seventh apartment was closely shrouded in black velvet tapestries that hung all over the ceiling and down the walls, falling in heavy folds upon a carpet of the same material and hue. But in this chamber only, the colour of the windows failed to correspond with the decorations. The panes here were scarlet--a deep blood colour. Now in no one of the seven apartments was there any lamp or candelabrum, amid the profusion of golden ornaments that lay scattered to and fro or depended from the roof. There was no light of any kind emanating from lamp or candle within the suite of chambers. But in the corridors that followed the suite, there stood, opposite to each window, a heavy tripod, bearing a brazier of fire, that projected its rays through the tinted glass and so glaringly illumined the room. And thus were produced a multitude of gaudy and fantastic appearances. But in the western or black chamber the effect of the fire-light that streamed upon the dark hangings through the blood-tinted panes, was ghastly in the extreme, and produced so wild a look upon the countenances of those who entered, that there were few of the company bold enough to set foot within its precincts at all.'
p12
sS'sentences'
p13
(lp14
(i__main__
Sentence
p15
(dp16
S'index'
p17
I0
sS'words'
p18
(lp19
S'The'
p20
aS'``'
p21
aS'Red'
p22
aS'Death'
p23
aS"''"
p24
aS'had'
p25
aS'long'
p26
aS'devastated'
p27
aS'the'
p28
aS'country'
p29
aS'.'
p30
asS'lemmas'
p31
(lp32
VThe
p33
aV``
p34
aVRed
p35
aVDeath
p36
aV''
p37
aVhave
p38
aVlong
p39
aVdevastate
p40
aVthe
p41
aVcountry
p42
aV.
p43
asS'nerTags'
p44
(lp45
VO
p46
ag46
ag46
ag46
ag46
ag46
ag46
ag46
ag46
ag46
ag46
asS'posTags'
p47
(lp48
S'DT'
p49
aS'``'
p50
aS'NNP'
p51
ag51
aS"''"
p52
aS'VBD'
p53
aS'RB'
p54
aS'VBN'
p55
ag49
aS'NN'
p56
aS'.'
p57
asS'_Sentence__initialContent'
p58
VThe "Red Death" had long devastated the country.
p59
sba(i__main__
Sentence
p60
(dp61
g17
I1
sg18
(lp62
S'No'
p63
aS'pestilence'
p64
aS'had'
p65
aS'ever'
p66
aS'been'
p67
aS'so'
p68
aS'fatal'
p69
aS','
p70
aS'or'
p71
aS'so'
p72
aS'hideous'
p73
aS'.'
p74
asg31
(lp75
VNo
p76
aVpestilence
p77
ag38
aVever
p78
aVbe
p79
aVso
p80
aVfatal
p81
aV,
p82
aVor
p83
aVso
p84
aVhideous
p85
ag43
asg44
(lp86
g46
ag46
ag46
ag46
ag46
ag46
ag46
ag46
ag46
ag46
ag46
ag46
asg47
(lp87
g49
ag56
ag53
ag54
ag55
ag54
aS'JJ'
p88
aS','
p89
aS'CC'
p90
ag54
ag88
ag57
asg58
VNo pestilence had ever been so fatal, or so hideous.
p91
sba(i__main__
Sentence
p92
(dp93
g17
I2
sg18
(lp94
S'Blood'
p95
aS'was'
p96
aS'its'
p97
aS'Avatar'
p98
aS'and'
p99
aS'its'
p100
aS'seal'
p101
aS'--'
p102
aS'the'
p103
aS'redness'
p104
aS'and'
p105
aS'the'
p106
aS'horror'
p107
aS'of'
p108
aS'blood'
p109
aS'.'
p110
asg31
(lp111
VBlood
p112
aVbe
p113
aVit
p114
aVAvatar
p115
aVand
p116
aVit
p117
aVseal
p118
aV--
p119
aVthe
p120
aVredness
p121
aVand
p122
aVthe
p123
aVhorror
p124
aVof
p125
aVblood
p126
ag43
asg44
(lp127
g46
ag46
ag46
ag46
ag46
ag46
ag46
ag46
ag46
ag46
ag46
ag46
ag46
ag46
ag46
ag46
asg47
(lp128
g51
ag53
aS'PRP$'
p129
ag51
ag90
ag129
ag56
aS':'
p130
ag49
ag56
ag90
ag49
ag56
aS'IN'
p131
ag56
ag57
asg58
VBlood was its Avatar and its seal--the redness and the horror of blood.
p132
sba(i__main__
Sentence
p133
(dp134
g17
I3
sg18
(lp135
S'There'
p136
aS'were'
p137
aS'sharp'
p138
aS'pains'
p139
aS','
p140
aS'and'
p141
aS'sudden'
p142
aS'dizziness'
p143
aS','
p144
aS'and'
p145
aS'then'
p146
aS'profuse'
p147
aS'bleeding'
p148
aS'at'
p149
aS'the'
p150
aS'pores'
p151
aS','
p152
aS'with'
p153
aS'dissolution'
p154
aS'.'
p155
asg31
(lp156
VThere
p157
aVbe
p158
aVsharp
p159
aVpain
p160
ag82
aVand
p161
aVsudden
p162
aVdizziness
p163
ag82
aVand
p164
aVthen
p165
aVprofuse
p166
aVbleeding
p167
aVat
p168
aVthe
p169
aVpore
p170
ag82
aVwith
p171
aVdissolution
p172
ag43
asg44
(lp173
g46
ag46
ag46
ag46
ag46
ag46
ag46
ag46
ag46
ag46
ag46
ag46
ag46
ag46
ag46
ag46
ag46
ag46
ag46
ag46
asg47
(lp174
S'EX'
p175
ag53
ag88
aS'NNS'
p176
ag89
ag90
ag88
ag56
ag89
ag90
ag54
aS'VB'
p177
ag56
ag131
ag49
ag176
ag89
ag131
ag56
ag57
asg58
VThere were sharp pains, and sudden dizziness, and then profuse bleeding at the pores, with dissolution.
p178
sba(i__main__
Sentence
p179
(dp180
g17
I4
sg18
(lp181
S'The'
p182
aS'scarlet'
p183
aS'stains'
p184
aS'upon'
p185
aS'the'
p186
aS'body'
p187
aS'and'
p188
aS'especially'
p189
aS'upon'
p190
aS'the'
p191
aS'face'
p192
aS'of'
p193
aS'the'
p194
aS'victim'
p195
aS','
p196
aS'were'
p197
aS'the'
p198
aS'pest'
p199
aS'ban'
p200
aS'which'
p201
aS'shut'
p202
aS'him'
p203
aS'out'
p204
aS'from'
p205
aS'the'
p206
aS'aid'
p207
aS'and'
p208
aS'from'
p209
aS'the'
p210
aS'sympathy'
p211
aS'of'
p212
aS'his'
p213
aS'fellow-men'
p214
aS'.'
p215
asg31
(lp216
VThe
p217
aVscarlet
p218
aVstain
p219
aVupon
p220
aVthe
p221
aVbody
p222
aVand
p223
aVespecially
p224
aVupon
p225
aVthe
p226
aVface
p227
aVof
p228
aVthe
p229
aVvictim
p230
ag82
ag158
aVthe
p231
aVpest
p232
aVban
p233
aVwhich
p234
aVshut
p235
aVhim
p236
aVout
p237
aVfrom
p238
aVthe
p239
aVaid
p240
aVand
p241
aVfrom
p242
aVthe
p243
aVsympathy
p244
aVof
p245
aVhis
p246
aVfellow-men
p247
ag43
asg44
(lp248
g46
ag46
ag46
ag46
ag46
ag46
ag46
ag46
ag46
ag46
ag46
ag46
ag46
ag46
ag46
ag46
ag46
ag46
ag46
ag46
ag46
ag46
ag46
ag46
ag46
ag46
ag46
ag46
ag46
ag46
ag46
ag46
ag46
ag46
asg47
(lp249
g49
ag56
aS'VBZ'
p250
ag131
ag49
ag56
ag90
ag54
ag131
ag49
ag56
ag131
ag49
ag56
ag89
ag53
ag49
aS'JJS'
p251
ag56
aS'WDT'
p252
ag56
aS'PRP'
p253
aS'RP'
p254
ag131
ag49
ag56
ag90
ag131
ag49
ag88
ag131
ag129
ag88
ag57
asg58
VThe scarlet stains upon the body and especially upon the face of the victim, were the pest ban which shut him out from the aid and from the sympathy of his fellow-men.
p255
sba(i__main__
Sentence
p256
(dp257
g17
I5
sg18
(lp258
S'And'
p259
aS'the'
p260
aS'whole'
p261
aS'seizure'
p262
aS','
p263
aS'progress'
p264
aS'and'
p265
aS'termination'
p266
aS'of'
p267
aS'the'
p268
aS'disease'
p269
aS','
p270
aS'were'
p271
aS'the'
p272
aS'incidents'
p273
aS'of'
p274
aS'half'
p275
aS'an'
p276
aS'hour'
p277
aS'.'
p278
asg31
(lp279
VAnd
p280
aVthe
p281
aVwhole
p282
aVseizure
p283
ag82
aVprogress
p284
aVand
p285
aVtermination
p286
aVof
p287
aVthe
p288
aVdisease
p289
ag82
ag158
aVthe
p290
aVincident
p291
aVof
p292
aVhalf
p293
aVan
p294
aVhour
p295
ag43
asg44
(lp296
g46
ag46
ag46
ag46
ag46
ag46
ag46
ag46
ag46
ag46
ag46
ag46
ag46
ag46
ag46
ag46
ag46
ag46
ag46
ag46
asg47
(lp297
g90
ag49
ag88
ag56
ag89
ag56
ag90
ag56
ag131
ag49
ag56
ag89
ag53
ag49
ag176
ag131
ag56
ag49
ag56
ag57
asg58
VAnd the whole seizure, progress and termination of the disease, were the incidents of half an hour.
p298
sba(i__main__
Sentence
p299
(dp300
g17
I6
sg18
(lp301
S'But'
p302
aS'the'
p303
aS'Prince'
p304
aS'Prospero'
p305
aS'was'
p306
aS'happy'
p307
aS'and'
p308
aS'dauntless'
p309
aS'and'
p310
aS'sagacious'
p311
aS'.'
p312
asg31
(lp313
VBut
p314
aVthe
p315
aVPrince
p316
aVProspero
p317
ag113
aVhappy
p318
aVand
p319
aVdauntless
p320
aVand
p321
aVsagacious
p322
ag43
asg44
(lp323
g46
ag46
ag46
aVPERSON
p324
ag46
ag46
ag46
ag46
ag46
ag46
ag46
asg47
(lp325
g90
ag49
ag51
ag51
ag53
ag88
ag90
ag56
ag90
ag88
ag57
asg58
VBut the Prince Prospero was happy and dauntless and sagacious.
p326
sba(i__main__
Sentence
p327
(dp328
g17
I7
sg18
(lp329
S'When'
p330
aS'his'
p331
aS'dominions'
p332
aS'were'
p333
aS'half'
p334
aS'depopulated'
p335
aS','
p336
aS'he'
p337
aS'summoned'
p338
aS'to'
p339
aS'his'
p340
aS'presence'
p341
aS'a'
p342
aS'thousand'
p343
aS'hale'
p344
aS'and'
p345
aS'light-hearted'
p346
aS'friends'
p347
aS'from'
p348
aS'among'
p349
aS'the'
p350
aS'knights'
p351
aS'and'
p352
aS'dames'
p353
aS'of'
p354
aS'his'
p355
aS'court'
p356
aS','
p357
aS'and'
p358
aS'with'
p359
aS'these'
p360
aS'retired'
p361
aS'to'
p362
aS'the'
p363
aS'deep'
p364
aS'seclusion'
p365
aS'of'
p366
aS'one'
p367
aS'of'
p368
aS'his'
p369
aS'castellated'
p370
aS'abbeys'
p371
aS'.'
p372
asg31
(lp373
VWhen
p374
aVhis
p375
aVdominion
p376
ag158
aVhalf
p377
aVdepopulate
p378
ag82
aVhe
p379
aVsummon
p380
aVto
p381
aVhis
p382
aVpresence
p383
aVa
p384
aVthousand
p385
aVhale
p386
aVand
p387
aVlight-hearted
p388
aVfriend
p389
aVfrom
p390
aVamong
p391
aVthe
p392
aVknight
p393
aVand
p394
aVdame
p395
aVof
p396
aVhis
p397
aVcourt
p398
ag82
aVand
p399
aVwith
p400
aVthese
p401
aVretire
p402
aVto
p403
aVthe
p404
aVdeep
p405
aVseclusion
p406
aVof
p407
aVone
p408
aVof
p409
aVhis
p410
aVcastellated
p411
aVabbey
p412
ag43
asg44
(lp413
g46
ag46
ag46
ag46
ag46
ag46
ag46
ag46
ag46
ag46
ag46
ag46
ag46
ag46
ag46
ag46
ag46
ag46
ag46
ag46
ag46
ag46
ag46
ag46
ag46
ag46
ag46
ag46
ag46
ag46
ag46
ag46
ag46
ag46
ag46
ag46
ag46
ag46
ag46
ag46
ag46
ag46
ag46
asg47
(lp414
S'WRB'
p415
ag129
ag176
ag53
ag49
ag55
ag89
ag253
ag53
aS'TO'
p416
ag129
ag56
ag49
ag56
ag56
ag90
ag88
ag176
ag131
ag131
ag49
ag176
ag90
ag176
ag131
ag129
ag56
ag89
ag90
ag131
ag49
ag55
ag416
ag49
ag56
ag56
ag131
aS'CD'
p417
ag131
ag129
ag55
ag176
ag57
asg58
VWhen his dominions were half depopulated, he summoned to his presence a thousand hale and light-hearted friends from among the knights and dames of his court, and with these retired to the deep seclusion of one of his castellated abbeys.
p418
sba(i__main__
Sentence
p419
(dp420
g17
I8
sg18
(lp421
S'This'
p422
aS'was'
p423
aS'an'
p424
aS'extensive'
p425
aS'and'
p426
aS'magnificent'
p427
aS'structure'
p428
aS','
p429
aS'the'
p430
aS'creation'
p431
aS'of'
p432
aS'the'
p433
aS'prince'
p434
aS"'s"
p435
aS'own'
p436
aS'eccentric'
p437
aS'yet'
p438
aS'august'
p439
aS'taste'
p440
aS'.'
p441
asg31
(lp442
VThis
p443
ag113
aVan
p444
aVextensive
p445
aVand
p446
aVmagnificent
p447
aVstructure
p448
ag82
aVthe
p449
aVcreation
p450
aVof
p451
aVthe
p452
aVprince
p453
aV's
p454
aVown
p455
aVeccentric
p456
aVyet
p457
aVaugust
p458
aVtaste
p459
ag43
asg44
(lp460
g46
ag46
ag46
ag46
ag46
ag46
ag46
ag46
ag46
ag46
ag46
ag46
ag46
ag46
ag46
ag46
ag46
ag46
ag46
ag46
asg47
(lp461
g49
ag53
ag49
ag88
ag90
ag56
ag56
ag89
ag49
ag56
ag131
ag49
ag56
aS'POS'
p462
ag88
ag88
ag56
ag56
ag56
ag57
asg58
VThis was an extensive and magnificent structure, the creation of the prince's own eccentric yet august taste.
p463
sba(i__main__
Sentence
p464
(dp465
g17
I9
sg18
(lp466
S'A'
p467
aS'strong'
p468
aS'and'
p469
aS'lofty'
p470
aS'wall'
p471
aS'girdled'
p472
aS'it'
p473
aS'in'
p474
aS'.'
p475
asg31
(lp476
VA
p477
aVstrong
p478
aVand
p479
aVlofty
p480
aVwall
p481
aVgirdle
p482
aVit
p483
aVin
p484
ag43
asg44
(lp485
g46
ag46
ag46
ag46
ag46
ag46
ag46
ag46
ag46
asg47
(lp486
g49
ag88
ag90
ag88
ag56
ag53
ag253
ag131
ag57
asg58
VA strong and lofty wall girdled it in.
p487
sba(i__main__
Sentence
p488
(dp489
g17
I10
sg18
(lp490
S'This'
p491
aS'wall'
p492
aS'had'
p493
aS'gates'
p494
aS'of'
p495
aS'iron'
p496
aS'.'
p497
asg31
(lp498
VThis
p499
aVwall
p500
ag38
aVgate
p501
aVof
p502
aViron
p503
ag43
asg44
(lp504
g46
ag46
ag46
ag46
ag46
ag46
ag46
asg47
(lp505
g49
ag56
ag53
ag176
ag131
ag56
ag57
asg58
VThis wall had gates of iron.
p506
sba(i__main__
Sentence
p507
(dp508
g17
I11
sg18
(lp509
S'The'
p510
aS'courtiers'
p511
aS','
p512
aS'having'
p513
aS'entered'
p514
aS','
p515
aS'brought'
p516
aS'furnaces'
p517
aS'and'
p518
aS'massy'
p519
aS'hammers'
p520
aS'and'
p521
aS'welded'
p522
aS'the'
p523
aS'bolts'
p524
aS'.'
p525
asg31
(lp526
VThe
p527
aVcourtier
p528
ag82
aVhave
p529
aVenter
p530
ag82
aVbring
p531
aVfurnace
p532
aVand
p533
aVmassy
p534
aVhammer
p535
aVand
p536
aVweld
p537
aVthe
p538
aVbolt
p539
ag43
asg44
(lp540
g46
ag46
ag46
ag46
ag46
ag46
ag46
ag46
ag46
ag46
ag46
ag46
ag46
ag46
ag46
ag46
asg47
(lp541
g49
ag176
ag89
aS'VBG'
p542
ag55
ag89
ag55
ag176
ag90
ag88
ag176
ag90
ag53
ag49
ag176
ag57
asg58
VThe courtiers, having entered, brought furnaces and massy hammers and welded the bolts.
p543
sba(i__main__
Sentence
p544
(dp545
g17
I12
sg18
(lp546
S'They'
p547
aS'resolved'
p548
aS'to'
p549
aS'leave'
p550
aS'means'
p551
aS'neither'
p552
aS'of'
p553
aS'ingress'
p554
aS'nor'
p555
aS'egress'
p556
aS'to'
p557
aS'the'
p558
aS'sudden'
p559
aS'impulses'
p560
aS'of'
p561
aS'despair'
p562
aS'or'
p563
aS'of'
p564
aS'frenzy'
p565
aS'from'
p566
aS'within'
p567
aS'.'
p568
asg31
(lp569
VThey
p570
aVresolve
p571
aVto
p572
aVleave
p573
aVmean
p574
aVneither
p575
aVof
p576
aVingres
p577
aVnor
p578
aVegress
p579
aVto
p580
aVthe
p581
aVsudden
p582
aVimpulse
p583
aVof
p584
aVdespair
p585
aVor
p586
aVof
p587
aVfrenzy
p588
aVfrom
p589
aVwithin
p590
ag43
asg44
(lp591
g46
ag46
ag46
ag46
ag46
ag46
ag46
ag46
ag46
ag46
ag46
ag46
ag46
ag46
ag46
ag46
ag46
ag46
ag46
ag46
ag46
ag46
asg47
(lp592
g253
ag53
ag416
ag177
ag176
ag49
ag131
ag56
ag90
ag56
ag416
ag49
ag88
ag176
ag131
ag88
ag90
ag131
ag56
ag131
ag131
ag57
asg58
VThey resolved to leave means neither of ingress nor egress to the sudden impulses of despair or of frenzy from within.
p593
sba(i__main__
Sentence
p594
(dp595
g17
I13
sg18
(lp596
S'The'
p597
aS'abbey'
p598
aS'was'
p599
aS'amply'
p600
aS'provisioned'
p601
aS'.'
p602
asg31
(lp603
VThe
p604
aVabbey
p605
ag113
aVamply
p606
aVprovision
p607
ag43
asg44
(lp608
g46
ag46
ag46
ag46
ag46
ag46
asg47
(lp609
g49
ag56
ag53
ag54
ag55
ag57
asg58
VThe abbey was amply provisioned.
p610
sba(i__main__
Sentence
p611
(dp612
g17
I14
sg18
(lp613
S'With'
p614
aS'such'
p615
aS'precautions'
p616
aS'the'
p617
aS'courtiers'
p618
aS'might'
p619
aS'bid'
p620
aS'defiance'
p621
aS'to'
p622
aS'contagion'
p623
aS'.'
p624
asg31
(lp625
VWith
p626
aVsuch
p627
aVprecaution
p628
aVthe
p629
aVcourtier
p630
aVmight
p631
aVbid
p632
aVdefiance
p633
aVto
p634
aVcontagion
p635
ag43
asg44
(lp636
g46
ag46
ag46
ag46
ag46
ag46
ag46
ag46
ag46
ag46
ag46
asg47
(lp637
g131
ag88
ag176
ag49
ag176
aS'MD'
p638
ag177
ag56
ag416
ag56
ag57
asg58
VWith such precautions the courtiers might bid defiance to contagion.
p639
sba(i__main__
Sentence
p640
(dp641
g17
I15
sg18
(lp642
S'The'
p643
aS'external'
p644
aS'world'
p645
aS'could'
p646
aS'take'
p647
aS'care'
p648
aS'of'
p649
aS'itself'
p650
aS'.'
p651
asg31
(lp652
VThe
p653
aVexternal
p654
aVworld
p655
aVcould
p656
aVtake
p657
aVcare
p658
aVof
p659
aVitself
p660
ag43
asg44
(lp661
g46
ag46
ag46
ag46
ag46
ag46
ag46
ag46
ag46
asg47
(lp662
g49
ag88
ag56
ag638
ag177
ag56
ag131
ag253
ag57
asg58
VThe external world could take care of itself.
p663
sba(i__main__
Sentence
p664
(dp665
g17
I16
sg18
(lp666
S'In'
p667
aS'the'
p668
aS'meantime'
p669
aS'it'
p670
aS'was'
p671
aS'folly'
p672
aS'to'
p673
aS'grieve'
p674
aS','
p675
aS'or'
p676
aS'to'
p677
aS'think'
p678
aS'.'
p679
asg31
(lp680
VIn
p681
aVthe
p682
aVmeantime
p683
aVit
p684
ag113
aVfolly
p685
aVto
p686
aVgrieve
p687
ag82
aVor
p688
aVto
p689
aVthink
p690
ag43
asg44
(lp691
g46
ag46
ag46
ag46
ag46
ag46
ag46
ag46
ag46
ag46
ag46
ag46
ag46
asg47
(lp692
g131
ag49
ag56
ag253
ag53
ag54
ag416
ag177
ag89
ag90
ag416
ag177
ag57
asg58
VIn the meantime it was folly to grieve, or to think.
p693
sba(i__main__
Sentence
p694
(dp695
g17
I17
sg18
(lp696
S'The'
p697
aS'prince'
p698
aS'had'
p699
aS'provided'
p700
aS'all'
p701
aS'the'
p702
aS'appliances'
p703
aS'of'
p704
aS'pleasure'
p705
aS'.'
p706
asg31
(lp707
VThe
p708
aVprince
p709
ag38
aVprovide
p710
aVall
p711
aVthe
p712
aVappliance
p713
aVof
p714
aVpleasure
p715
ag43
asg44
(lp716
g46
ag46
ag46
ag46
ag46
ag46
ag46
ag46
ag46
ag46
asg47
(lp717
g49
ag56
ag53
ag55
ag49
ag49
ag176
ag131
ag56
ag57
asg58
VThe prince had provided all the appliances of pleasure.
p718
sba(i__main__
Sentence
p719
(dp720
g17
I18
sg18
(lp721
S'There'
p722
aS'were'
p723
aS'buffoons'
p724
aS','
p725
aS'there'
p726
aS'were'
p727
aS'improvisatori'
p728
aS','
p729
aS'there'
p730
aS'were'
p731
aS'ballet-dancers'
p732
aS','
p733
aS'there'
p734
aS'were'
p735
aS'musicians'
p736
aS','
p737
aS'there'
p738
aS'was'
p739
aS'Beauty'
p740
aS','
p741
aS'there'
p742
aS'was'
p743
aS'wine'
p744
aS'.'
p745
asg31
(lp746
VThere
p747
ag158
aVbuffoon
p748
ag82
aVthere
p749
ag158
aVimprovisatori
p750
ag82
aVthere
p751
ag158
aVballet-dancers
p752
ag82
aVthere
p753
ag158
aVmusician
p754
ag82
aVthere
p755
ag113
aVBeauty
p756
ag82
aVthere
p757
ag113
aVwine
p758
ag43
asg44
(lp759
g46
ag46
ag46
ag46
ag46
ag46
ag46
ag46
ag46
ag46
ag46
ag46
ag46
ag46
ag46
ag46
ag46
ag46
ag46
ag46
ag46
ag46
ag46
ag46
asg47
(lp760
g175
ag53
ag176
ag89
ag175
ag53
ag56
ag89
ag175
ag53
ag176
ag89
ag175
ag53
ag176
ag89
ag175
ag53
ag51
ag89
ag175
ag53
ag56
ag57
asg58
VThere were buffoons, there were improvisatori, there were ballet-dancers, there were musicians, there was Beauty, there was wine.
p761
sba(i__main__
Sentence
p762
(dp763
g17
I19
sg18
(lp764
S'All'
p765
aS'these'
p766
aS'and'
p767
aS'security'
p768
aS'were'
p769
aS'within'
p770
aS'.'
p771
asg31
(lp772
VAll
p773
aVthese
p774
aVand
p775
aVsecurity
p776
ag158
aVwithin
p777
ag43
asg44
(lp778
g46
ag46
ag46
ag46
ag46
ag46
ag46
asg47
(lp779
g49
ag49
ag90
ag56
ag53
ag131
ag57
asg58
VAll these and security were within.
p780
sba(i__main__
Sentence
p781
(dp782
g17
I20
sg18
(lp783
S'Without'
p784
aS'was'
p785
aS'the'
p786
aS'``'
p787
aS'Red'
p788
aS'Death'
p789
aS"''"
p790
aS'.'
p791
asg31
(lp792
VWithout
p793
ag113
aVthe
p794
aV``
p795
aVRed
p796
aVDeath
p797
aV''
p798
ag43
asg44
(lp799
g46
ag46
ag46
ag46
ag46
ag46
ag46
ag46
asg47
(lp800
g131
ag53
ag49
ag50
ag51
ag51
ag52
ag57
asg58
VWithout was the "Red Death".
p801
sba(i__main__
Sentence
p802
(dp803
g17
I21
sg18
(lp804
S'Tired'
p805
aS'of'
p806
aS'reading'
p807
aS'?'
p808
asg31
(lp809
VTired
p810
aVof
p811
aVreading
p812
aV?
p813
asg44
(lp814
g46
ag46
ag46
ag46
asg47
(lp815
g88
ag131
ag56
ag57
asg58
VTired of reading?
p816
sba(i__main__
Sentence
p817
(dp818
g17
I22
sg18
(lp819
S'Add'
p820
aS'this'
p821
aS'page'
p822
aS'to'
p823
aS'your'
p824
aS'Bookmarks'
p825
aS'or'
p826
aS'Favorites'
p827
aS'and'
p828
aS'finish'
p829
aS'it'
p830
aS'later'
p831
aS'.'
p832
asg31
(lp833
VAdd
p834
aVthis
p835
aVpage
p836
aVto
p837
aVyour
p838
aVBookmarks
p839
aVor
p840
aVFavorites
p841
aVand
p842
aVfinish
p843
aVit
p844
aVlate
p845
ag43
asg44
(lp846
g46
ag46
ag46
ag46
ag46
ag46
ag46
ag46
ag46
ag46
ag46
ag46
ag46
asg47
(lp847
g51
ag49
ag56
ag416
ag129
ag51
ag90
aS'NNPS'
p848
ag90
ag88
ag253
ag88
ag57
asg58
VAdd this page to your Bookmarks or Favorites and finish it later.
p849
sba(i__main__
Sentence
p850
(dp851
g17
I23
sg18
(lp852
S'It'
p853
aS'was'
p854
aS'towards'
p855
aS'the'
p856
aS'close'
p857
aS'of'
p858
aS'the'
p859
aS'fifth'
p860
aS'or'
p861
aS'sixth'
p862
aS'month'
p863
aS'of'
p864
aS'his'
p865
aS'seclusion'
p866
aS','
p867
aS'and'
p868
aS'while'
p869
aS'the'
p870
aS'pestilence'
p871
aS'raged'
p872
aS'most'
p873
aS'furiously'
p874
aS'abroad'
p875
aS','
p876
aS'that'
p877
aS'the'
p878
aS'Prince'
p879
aS'Prospero'
p880
aS'entertained'
p881
aS'his'
p882
aS'thousand'
p883
aS'friends'
p884
aS'at'
p885
aS'a'
p886
aS'masked'
p887
aS'ball'
p888
aS'of'
p889
aS'the'
p890
aS'most'
p891
aS'unusual'
p892
aS'magnificence'
p893
aS'.'
p894
asg31
(lp895
VIt
p896
ag113
aVtowards
p897
aVthe
p898
aVclose
p899
aVof
p900
aVthe
p901
aVfifth
p902
aVor
p903
aVsixth
p904
aVmonth
p905
aVof
p906
aVhis
p907
aVseclusion
p908
ag82
aVand
p909
aVwhile
p910
aVthe
p911
aVpestilence
p912
aVrag
p913
aVmost
p914
aVfuriously
p915
aVabroad
p916
ag82
aVthat
p917
aVthe
p918
aVPrince
p919
aVProspero
p920
aVentertain
p921
aVhis
p922
aVthousand
p923
aVfriend
p924
aVat
p925
ag384
aVmasked
p926
aVball
p927
aVof
p928
aVthe
p929
aVmost
p930
aVunusual
p931
aVmagnificence
p932
ag43
asg44
(lp933
g46
ag46
ag46
ag46
ag46
ag46
ag46
ag46
ag46
ag46
ag46
ag46
ag46
ag46
ag46
ag46
ag46
ag46
ag46
ag46
ag46
ag46
ag46
ag46
ag46
ag46
ag46
aVPERSON
p934
ag46
ag46
ag46
ag46
ag46
ag46
ag46
ag46
ag46
ag46
ag46
ag46
ag46
ag46
asg47
(lp935
g253
ag53
ag176
ag49
ag56
ag131
ag49
ag88
ag90
ag88
ag56
ag131
ag129
ag56
ag89
ag90
ag131
ag49
ag56
ag53
ag251
ag54
ag54
ag89
ag131
ag49
ag51
ag51
ag53
ag129
ag56
ag176
ag131
ag49
ag88
ag56
ag131
ag49
aS'RBS'
p936
ag88
ag56
ag57
asg58
VIt was towards the close of the fifth or sixth month of his seclusion, and while the pestilence raged most furiously abroad, that the Prince Prospero entertained his thousand friends at a masked ball of the most unusual magnificence.
p937
sba(i__main__
Sentence
p938
(dp939
g17
I24
sg18
(lp940
S'It'
p941
aS'was'
p942
aS'a'
p943
aS'voluptuous'
p944
aS'scene'
p945
aS','
p946
aS'that'
p947
aS'masquerade'
p948
aS'.'
p949
asg31
(lp950
VIt
p951
ag113
ag384
aVvoluptuous
p952
aVscene
p953
ag82
aVthat
p954
aVmasquerade
p955
ag43
asg44
(lp956
g46
ag46
ag46
ag46
ag46
ag46
ag46
ag46
ag46
asg47
(lp957
g253
ag53
ag49
ag88
ag56
ag89
ag131
ag56
ag57
asg58
VIt was a voluptuous scene, that masquerade.
p958
sba(i__main__
Sentence
p959
(dp960
g17
I25
sg18
(lp961
S'But'
p962
aS'first'
p963
aS'let'
p964
aS'me'
p965
aS'tell'
p966
aS'of'
p967
aS'the'
p968
aS'rooms'
p969
aS'in'
p970
aS'which'
p971
aS'it'
p972
aS'was'
p973
aS'held'
p974
aS'.'
p975
asg31
(lp976
VBut
p977
aVfirst
p978
aVlet
p979
aVme
p980
aVtell
p981
aVof
p982
aVthe
p983
aVroom
p984
aVin
p985
aVwhich
p986
aVit
p987
ag113
aVhold
p988
ag43
asg44
(lp989
g46
ag46
ag46
ag46
ag46
ag46
ag46
ag46
ag46
ag46
ag46
ag46
ag46
ag46
asg47
(lp990
g90
ag54
aS'VBP'
p991
ag253
ag991
ag131
ag49
ag176
ag131
ag252
ag253
ag53
ag55
ag57
asg58
VBut first let me tell of the rooms in which it was held.
p992
sba(i__main__
Sentence
p993
(dp994
g17
I26
sg18
(lp995
S'These'
p996
aS'were'
p997
aS'seven'
p998
aS'--'
p999
aS'an'
p1000
aS'imperial'
p1001
aS'suite'
p1002
aS'.'
p1003
asg31
(lp1004
VThese
p1005
ag158
aVseven
p1006
aV--
p1007
aVan
p1008
aVimperial
p1009
aVsuite
p1010
ag43
asg44
(lp1011
g46
ag46
ag46
ag46
ag46
ag46
ag46
ag46
asg47
(lp1012
g49
ag53
ag417
ag130
ag49
ag88
ag56
ag57
asg58
VThese were seven--an imperial suite.
p1013
sba(i__main__
Sentence
p1014
(dp1015
g17
I27
sg18
(lp1016
S'In'
p1017
aS'many'
p1018
aS'palaces'
p1019
aS','
p1020
aS'however'
p1021
aS','
p1022
aS'such'
p1023
aS'suites'
p1024
aS'form'
p1025
aS'a'
p1026
aS'long'
p1027
aS'and'
p1028
aS'straight'
p1029
aS'vista'
p1030
aS','
p1031
aS'while'
p1032
aS'the'
p1033
aS'folding'
p1034
aS'doors'
p1035
aS'slide'
p1036
aS'back'
p1037
aS'nearly'
p1038
aS'to'
p1039
aS'the'
p1040
aS'walls'
p1041
aS'on'
p1042
aS'either'
p1043
aS'hand'
p1044
aS','
p1045
aS'so'
p1046
aS'that'
p1047
aS'the'
p1048
aS'view'
p1049
aS'of'
p1050
aS'the'
p1051
aS'whole'
p1052
aS'extent'
p1053
aS'is'
p1054
aS'scarcely'
p1055
aS'impeded'
p1056
aS'.'
p1057
asg31
(lp1058
VIn
p1059
aVmany
p1060
aVpalace
p1061
ag82
aVhowever
p1062
ag82
aVsuch
p1063
aVsuite
p1064
aVform
p1065
ag384
aVlong
p1066
aVand
p1067
aVstraight
p1068
aVvista
p1069
ag82
aVwhile
p1070
aVthe
p1071
aVfolding
p1072
aVdoor
p1073
aVslide
p1074
aVback
p1075
aVnearly
p1076
aVto
p1077
aVthe
p1078
aVwall
p1079
aVon
p1080
aVeither
p1081
aVhand
p1082
ag82
aVso
p1083
aVthat
p1084
aVthe
p1085
aVview
p1086
aVof
p1087
aVthe
p1088
aVwhole
p1089
aVextent
p1090
aVbe
p1091
aVscarcely
p1092
aVimpede
p1093
ag43
asg44
(lp1094
g46
ag46
ag46
ag46
ag46
ag46
ag46
ag46
ag46
ag46
ag46
ag46
ag46
ag46
ag46
ag46
ag46
ag46
ag46
ag46
ag46
ag46
ag46
ag46
ag46
ag46
ag46
ag46
ag46
ag46
ag46
ag46
ag46
ag46
ag46
ag46
ag46
ag46
ag46
ag46
ag46
asg47
(lp1095
g131
ag88
ag176
ag89
ag54
ag89
ag88
ag176
ag56
ag49
ag88
ag90
ag88
ag56
ag89
ag131
ag49
ag56
ag176
ag991
ag54
ag54
ag416
ag49
ag176
ag131
ag49
ag56
ag89
ag54
ag131
ag49
ag56
ag131
ag49
ag88
ag56
ag250
ag54
ag55
ag57
asg58
VIn many palaces, however, such suites form a long and straight vista, while the folding doors slide back nearly to the walls on either hand, so that the view of the whole extent is scarcely impeded.
p1096
sba(i__main__
Sentence
p1097
(dp1098
g17
I28
sg18
(lp1099
S'Here'
p1100
aS'the'
p1101
aS'case'
p1102
aS'was'
p1103
aS'very'
p1104
aS'different'
p1105
aS','
p1106
aS'as'
p1107
aS'might'
p1108
aS'have'
p1109
aS'been'
p1110
aS'expected'
p1111
aS'from'
p1112
aS'the'
p1113
aS'duke'
p1114
aS"'s"
p1115
aS'love'
p1116
aS'of'
p1117
aS'the'
p1118
aS'bizarre'
p1119
aS'.'
p1120
asg31
(lp1121
VHere
p1122
aVthe
p1123
aVcase
p1124
ag113
aVvery
p1125
aVdifferent
p1126
ag82
ag384
aVmight
p1127
aVhave
p1128
ag79
aVexpect
p1129
aVfrom
p1130
aVthe
p1131
aVduke
p1132
aV's
p1133
aVlove
p1134
aVof
p1135
aVthe
p1136
aVbizarre
p1137
ag43
asg44
(lp1138
g46
ag46
ag46
ag46
ag46
ag46
ag46
ag46
ag46
ag46
ag46
ag46
ag46
ag46
ag46
ag46
ag46
ag46
ag46
ag46
ag46
asg47
(lp1139
g54
ag49
ag56
ag53
ag54
ag88
ag89
ag131
ag638
ag177
ag55
ag55
ag131
ag49
ag56
ag462
ag56
ag131
ag49
ag56
ag57
asg58
VHere the case was very different, as might have been expected from the duke's love of the bizarre.
p1140
sba(i__main__
Sentence
p1141
(dp1142
g17
I29
sg18
(lp1143
S'The'
p1144
aS'apartments'
p1145
aS'were'
p1146
aS'so'
p1147
aS'irregularly'
p1148
aS'disposed'
p1149
aS'that'
p1150
aS'the'
p1151
aS'vision'
p1152
aS'embraced'
p1153
aS'but'
p1154
aS'little'
p1155
aS'more'
p1156
aS'than'
p1157
aS'one'
p1158
aS'at'
p1159
aS'a'
p1160
aS'time'
p1161
aS'.'
p1162
asg31
(lp1163
VThe
p1164
aVapartment
p1165
ag158
aVso
p1166
aVirregularly
p1167
aVdispose
p1168
aVthat
p1169
aVthe
p1170
aVvision
p1171
aVembrace
p1172
aVbut
p1173
aVlittle
p1174
aVmore
p1175
aVthan
p1176
aVone
p1177
aVat
p1178
ag384
aVtime
p1179
ag43
asg44
(lp1180
g46
ag46
ag46
ag46
ag46
ag46
ag46
ag46
ag46
ag46
ag46
ag46
ag46
ag46
ag46
ag46
ag46
ag46
ag46
asg47
(lp1181
g49
ag176
ag53
ag54
ag54
ag55
ag131
ag49
ag56
ag53
ag90
ag54
aS'RBR'
p1182
ag131
ag417
ag131
ag49
ag56
ag57
asg58
VThe apartments were so irregularly disposed that the vision embraced but little more than one at a time.
p1183
sba(i__main__
Sentence
p1184
(dp1185
g17
I30
sg18
(lp1186
S'There'
p1187
aS'was'
p1188
aS'a'
p1189
aS'sharp'
p1190
aS'turn'
p1191
aS'at'
p1192
aS'every'
p1193
aS'twenty'
p1194
aS'or'
p1195
aS'thirty'
p1196
aS'yards'
p1197
aS','
p1198
aS'and'
p1199
aS'at'
p1200
aS'each'
p1201
aS'turn'
p1202
aS'a'
p1203
aS'novel'
p1204
aS'effect'
p1205
aS'.'
p1206
asg31
(lp1207
VThere
p1208
ag113
ag384
aVsharp
p1209
aVturn
p1210
aVat
p1211
aVevery
p1212
aVtwenty
p1213
aVor
p1214
aVthirty
p1215
aVyard
p1216
ag82
aVand
p1217
aVat
p1218
aVeach
p1219
aVturn
p1220
ag384
aVnovel
p1221
aVeffect
p1222
ag43
asg44
(lp1223
g46
ag46
ag46
ag46
ag46
ag46
ag46
ag46
ag46
ag46
ag46
ag46
ag46
ag46
ag46
ag46
ag46
ag46
ag46
ag46
asg47
(lp1224
g175
ag53
ag49
ag88
ag56
ag131
ag49
ag56
ag90
ag56
ag176
ag89
ag90
ag131
ag49
ag56
ag49
ag56
ag56
ag57
asg58
VThere was a sharp turn at every twenty or thirty yards, and at each turn a novel effect.
p1225
sba(i__main__
Sentence
p1226
(dp1227
g17
I31
sg18
(lp1228
S'To'
p1229
aS'the'
p1230
aS'right'
p1231
aS'and'
p1232
aS'left'
p1233
aS','
p1234
aS'in'
p1235
aS'the'
p1236
aS'middle'
p1237
aS'of'
p1238
aS'each'
p1239
aS'wall'
p1240
aS','
p1241
aS'a'
p1242
aS'tall'
p1243
aS'and'
p1244
aS'narrow'
p1245
aS'Gothic'
p1246
aS'window'
p1247
aS'looked'
p1248
aS'out'
p1249
aS'upon'
p1250
aS'a'
p1251
aS'closed'
p1252
aS'corridor'
p1253
aS'which'
p1254
aS'pursued'
p1255
aS'the'
p1256
aS'windings'
p1257
aS'of'
p1258
aS'the'
p1259
aS'suite'
p1260
aS'.'
p1261
asg31
(lp1262
VTo
p1263
aVthe
p1264
aVright
p1265
aVand
p1266
aVleave
p1267
ag82
aVin
p1268
aVthe
p1269
aVmiddle
p1270
aVof
p1271
aVeach
p1272
aVwall
p1273
ag82
ag384
aVtall
p1274
aVand
p1275
aVnarrow
p1276
aVGothic
p1277
aVwindow
p1278
aVlook
p1279
aVout
p1280
aVupon
p1281
ag384
aVclose
p1282
aVcorridor
p1283
aVwhich
p1284
aVpursue
p1285
aVthe
p1286
aVwinding
p1287
aVof
p1288
aVthe
p1289
aVsuite
p1290
ag43
asg44
(lp1291
g46
ag46
ag46
ag46
ag46
ag46
ag46
ag46
ag46
ag46
ag46
ag46
ag46
ag46
ag46
ag46
ag46
ag46
ag46
ag46
ag46
ag46
ag46
ag46
ag46
ag46
ag46
ag46
ag46
ag46
ag46
ag46
ag46
asg47
(lp1292
g416
ag49
ag56
ag90
ag55
ag89
ag131
ag49
ag56
ag131
ag49
ag56
ag89
ag49
ag88
ag90
ag56
ag51
ag56
ag53
ag254
ag131
ag49
ag55
ag56
ag252
ag55
ag49
ag176
ag131
ag49
ag88
ag57
asg58
VTo the right and left, in the middle of each wall, a tall and narrow Gothic window looked out upon a closed corridor which pursued the windings of the suite.
p1293
sba(i__main__
Sentence
p1294
(dp1295
g17
I32
sg18
(lp1296
S'These'
p1297
aS'windows'
p1298
aS'were'
p1299
aS'of'
p1300
aS'stained'
p1301
aS'glass'
p1302
aS'whose'
p1303
aS'colour'
p1304
aS'varied'
p1305
aS'in'
p1306
aS'accordance'
p1307
aS'with'
p1308
aS'the'
p1309
aS'prevailing'
p1310
aS'hue'
p1311
aS'of'
p1312
aS'the'
p1313
aS'decorations'
p1314
aS'of'
p1315
aS'the'
p1316
aS'chamber'
p1317
aS'into'
p1318
aS'which'
p1319
aS'it'
p1320
aS'opened'
p1321
aS'.'
p1322
asg31
(lp1323
VThese
p1324
aVwindow
p1325
ag158
aVof
p1326
aVstain
p1327
aVglass
p1328
aVwhose
p1329
aVcolour
p1330
aVvary
p1331
aVin
p1332
aVaccordance
p1333
aVwith
p1334
aVthe
p1335
aVprevail
p1336
aVhue
p1337
aVof
p1338
aVthe
p1339
aVdecoration
p1340
aVof
p1341
aVthe
p1342
aVchamber
p1343
aVinto
p1344
aVwhich
p1345
aVit
p1346
aVopen
p1347
ag43
asg44
(lp1348
g46
ag46
ag46
ag46
ag46
ag46
ag46
ag46
ag46
ag46
ag46
ag46
ag46
ag46
ag46
ag46
ag46
ag46
ag46
ag46
ag46
ag46
ag46
ag46
ag46
ag46
asg47
(lp1349
g49
ag176
ag53
ag131
ag55
ag56
aS'WP$'
p1350
ag56
ag53
ag131
ag56
ag131
ag49
ag542
ag56
ag131
ag49
ag176
ag131
ag49
ag56
ag131
ag252
ag253
ag53
ag57
asg58
VThese windows were of stained glass whose colour varied in accordance with the prevailing hue of the decorations of the chamber into which it opened.
p1351
sba(i__main__
Sentence
p1352
(dp1353
g17
I33
sg18
(lp1354
S'That'
p1355
aS'at'
p1356
aS'the'
p1357
aS'eastern'
p1358
aS'extremity'
p1359
aS'was'
p1360
aS'hung'
p1361
aS','
p1362
aS'for'
p1363
aS'example'
p1364
aS'in'
p1365
aS'blue'
p1366
aS'--'
p1367
aS'and'
p1368
aS'vividly'
p1369
aS'blue'
p1370
aS'were'
p1371
aS'its'
p1372
aS'windows'
p1373
aS'.'
p1374
asg31
(lp1375
VThat
p1376
aVat
p1377
aVthe
p1378
aVeastern
p1379
aVextremity
p1380
ag113
aVhung
p1381
ag82
aVfor
p1382
aVexample
p1383
aVin
p1384
aVblue
p1385
aV--
p1386
aVand
p1387
aVvividly
p1388
aVblue
p1389
ag158
aVit
p1390
aVwindow
p1391
ag43
asg44
(lp1392
g46
ag46
ag46
ag46
ag46
ag46
ag46
ag46
ag46
ag46
ag46
ag46
ag46
ag46
ag46
ag46
ag46
ag46
ag46
ag46
asg47
(lp1393
g49
ag131
ag49
ag56
ag56
ag53
ag88
ag89
ag131
ag56
ag131
ag56
ag130
ag90
ag54
ag88
ag53
ag129
ag176
ag57
asg58
VThat at the eastern extremity was hung, for example in blue--and vividly blue were its windows.
p1394
sba(i__main__
Sentence
p1395
(dp1396
g17
I34
sg18
(lp1397
S'The'
p1398
aS'second'
p1399
aS'chamber'
p1400
aS'was'
p1401
aS'purple'
p1402
aS'in'
p1403
aS'its'
p1404
aS'ornaments'
p1405
aS'and'
p1406
aS'tapestries'
p1407
aS','
p1408
aS'and'
p1409
aS'here'
p1410
aS'the'
p1411
aS'panes'
p1412
aS'were'
p1413
aS'purple'
p1414
aS'.'
p1415
asg31
(lp1416
VThe
p1417
aVsecond
p1418
aVchamber
p1419
ag113
aVpurple
p1420
aVin
p1421
aVit
p1422
aVornament
p1423
aVand
p1424
aVtapestry
p1425
ag82
aVand
p1426
aVhere
p1427
aVthe
p1428
aVpane
p1429
ag158
aVpurple
p1430
ag43
asg44
(lp1431
g46
ag46
ag46
ag46
ag46
ag46
ag46
ag46
ag46
ag46
ag46
ag46
ag46
ag46
ag46
ag46
ag46
ag46
asg47
(lp1432
g49
ag88
ag56
ag53
ag88
ag131
ag129
ag176
ag90
ag176
ag89
ag90
ag54
ag49
ag176
ag53
ag176
ag57
asg58
VThe second chamber was purple in its ornaments and tapestries, and here the panes were purple.
p1433
sba(i__main__
Sentence
p1434
(dp1435
g17
I35
sg18
(lp1436
S'The'
p1437
aS'third'
p1438
aS'was'
p1439
aS'green'
p1440
aS'throughout'
p1441
aS','
p1442
aS'and'
p1443
aS'so'
p1444
aS'were'
p1445
aS'the'
p1446
aS'casements'
p1447
aS'.'
p1448
asg31
(lp1449
VThe
p1450
aVthird
p1451
ag113
aVgreen
p1452
aVthroughout
p1453
ag82
aVand
p1454
aVso
p1455
ag158
aVthe
p1456
aVcasement
p1457
ag43
asg44
(lp1458
g46
ag46
ag46
ag46
ag46
ag46
ag46
ag46
ag46
ag46
ag46
ag46
asg47
(lp1459
g49
ag88
ag53
ag88
ag131
ag89
ag90
ag54
ag53
ag49
ag176
ag57
asg58
VThe third was green throughout, and so were the casements.
p1460
sba(i__main__
Sentence
p1461
(dp1462
g17
I36
sg18
(lp1463
S'The'
p1464
aS'fourth'
p1465
aS'was'
p1466
aS'furnished'
p1467
aS'and'
p1468
aS'lighted'
p1469
aS'with'
p1470
aS'orange'
p1471
aS'--'
p1472
aS'the'
p1473
aS'fifth'
p1474
aS'with'
p1475
aS'white'
p1476
aS'--'
p1477
aS'the'
p1478
aS'sixth'
p1479
aS'with'
p1480
aS'violet'
p1481
aS'.'
p1482
asg31
(lp1483
VThe
p1484
aVfourth
p1485
ag113
aVfurnish
p1486
aVand
p1487
aVlight
p1488
aVwith
p1489
aVorange
p1490
aV--
p1491
aVthe
p1492
aVfifth
p1493
aVwith
p1494
aVwhite
p1495
aV--
p1496
aVthe
p1497
aVsixth
p1498
aVwith
p1499
aVviolet
p1500
ag43
asg44
(lp1501
g46
ag46
ag46
ag46
ag46
ag46
ag46
ag46
ag46
ag46
ag46
ag46
ag46
ag46
ag46
ag46
ag46
ag46
ag46
asg47
(lp1502
g49
ag88
ag53
ag55
ag90
ag55
ag131
ag88
ag130
ag49
ag88
ag131
ag88
ag130
ag49
ag88
ag131
ag88
ag57
asg58
VThe fourth was furnished and lighted with orange--the fifth with white--the sixth with violet.
p1503
sba(i__main__
Sentence
p1504
(dp1505
g17
I37
sg18
(lp1506
S'The'
p1507
aS'seventh'
p1508
aS'apartment'
p1509
aS'was'
p1510
aS'closely'
p1511
aS'shrouded'
p1512
aS'in'
p1513
aS'black'
p1514
aS'velvet'
p1515
aS'tapestries'
p1516
aS'that'
p1517
aS'hung'
p1518
aS'all'
p1519
aS'over'
p1520
aS'the'
p1521
aS'ceiling'
p1522
aS'and'
p1523
aS'down'
p1524
aS'the'
p1525
aS'walls'
p1526
aS','
p1527
aS'falling'
p1528
aS'in'
p1529
aS'heavy'
p1530
aS'folds'
p1531
aS'upon'
p1532
aS'a'
p1533
aS'carpet'
p1534
aS'of'
p1535
aS'the'
p1536
aS'same'
p1537
aS'material'
p1538
aS'and'
p1539
aS'hue'
p1540
aS'.'
p1541
asg31
(lp1542
VThe
p1543
aVseventh
p1544
aVapartment
p1545
ag113
aVclosely
p1546
aVshroud
p1547
aVin
p1548
aVblack
p1549
aVvelvet
p1550
aVtapestry
p1551
aVthat
p1552
aVhung
p1553
aVall
p1554
aVover
p1555
aVthe
p1556
aVceiling
p1557
aVand
p1558
aVdown
p1559
aVthe
p1560
aVwall
p1561
ag82
aVfall
p1562
aVin
p1563
aVheavy
p1564
aVfold
p1565
aVupon
p1566
ag384
aVcarpet
p1567
aVof
p1568
aVthe
p1569
aVsame
p1570
aVmaterial
p1571
aVand
p1572
aVhue
p1573
ag43
asg44
(lp1574
g46
ag46
ag46
ag46
ag46
ag46
ag46
ag46
ag46
ag46
ag46
ag46
ag46
ag46
ag46
ag46
ag46
ag46
ag46
ag46
ag46
ag46
ag46
ag46
ag46
ag46
ag46
ag46
ag46
ag46
ag46
ag46
ag46
ag46
ag46
asg47
(lp1575
g49
ag56
ag56
ag53
ag54
ag55
ag131
ag88
ag56
ag176
ag252
ag131
ag49
ag131
ag49
ag56
ag90
ag131
ag49
ag176
ag89
ag542
ag131
ag88
ag176
ag131
ag49
ag56
ag131
ag49
ag88
ag56
ag90
ag56
ag57
asg58
VThe seventh apartment was closely shrouded in black velvet tapestries that hung all over the ceiling and down the walls, falling in heavy folds upon a carpet of the same material and hue.
p1576
sba(i__main__
Sentence
p1577
(dp1578
g17
I38
sg18
(lp1579
S'But'
p1580
aS'in'
p1581
aS'this'
p1582
aS'chamber'
p1583
aS'only'
p1584
aS','
p1585
aS'the'
p1586
aS'colour'
p1587
aS'of'
p1588
aS'the'
p1589
aS'windows'
p1590
aS'failed'
p1591
aS'to'
p1592
aS'correspond'
p1593
aS'with'
p1594
aS'the'
p1595
aS'decorations'
p1596
aS'.'
p1597
asg31
(lp1598
VBut
p1599
aVin
p1600
aVthis
p1601
aVchamber
p1602
aVonly
p1603
ag82
aVthe
p1604
aVcolour
p1605
aVof
p1606
aVthe
p1607
aVwindow
p1608
aVfail
p1609
aVto
p1610
aVcorrespond
p1611
aVwith
p1612
aVthe
p1613
aVdecoration
p1614
ag43
asg44
(lp1615
g46
ag46
ag46
ag46
ag46
ag46
ag46
ag46
ag46
ag46
ag46
ag46
ag46
ag46
ag46
ag46
ag46
ag46
asg47
(lp1616
g90
ag131
ag49
ag56
ag54
ag89
ag49
ag56
ag131
ag49
ag176
ag53
ag416
ag177
ag131
ag49
ag176
ag57
asg58
VBut in this chamber only, the colour of the windows failed to correspond with the decorations.
p1617
sba(i__main__
Sentence
p1618
(dp1619
g17
I39
sg18
(lp1620
S'The'
p1621
aS'panes'
p1622
aS'here'
p1623
aS'were'
p1624
aS'scarlet'
p1625
aS'--'
p1626
aS'a'
p1627
aS'deep'
p1628
aS'blood'
p1629
aS'colour'
p1630
aS'.'
p1631
asg31
(lp1632
VThe
p1633
aVpane
p1634
aVhere
p1635
ag158
aVscarlet
p1636
aV--
p1637
ag384
aVdeep
p1638
aVblood
p1639
aVcolour
p1640
ag43
asg44
(lp1641
g46
ag46
ag46
ag46
ag46
ag46
ag46
ag46
ag46
ag46
ag46
asg47
(lp1642
g49
ag176
ag54
ag53
ag55
ag130
ag49
ag56
ag56
ag56
ag57
asg58
VThe panes here were scarlet--a deep blood colour.
p1643
sba(i__main__
Sentence
p1644
(dp1645
g17
I40
sg18
(lp1646
S'Now'
p1647
aS'in'
p1648
aS'no'
p1649
aS'one'
p1650
aS'of'
p1651
aS'the'
p1652
aS'seven'
p1653
aS'apartments'
p1654
aS'was'
p1655
aS'there'
p1656
aS'any'
p1657
aS'lamp'
p1658
aS'or'
p1659
aS'candelabrum'
p1660
aS','
p1661
aS'amid'
p1662
aS'the'
p1663
aS'profusion'
p1664
aS'of'
p1665
aS'golden'
p1666
aS'ornaments'
p1667
aS'that'
p1668
aS'lay'
p1669
aS'scattered'
p1670
aS'to'
p1671
aS'and'
p1672
aS'fro'
p1673
aS'or'
p1674
aS'depended'
p1675
aS'from'
p1676
aS'the'
p1677
aS'roof'
p1678
aS'.'
p1679
asg31
(lp1680
VNow
p1681
aVin
p1682
aVno
p1683
aVone
p1684
aVof
p1685
aVthe
p1686
aVseven
p1687
aVapartment
p1688
ag113
aVthere
p1689
aVany
p1690
aVlamp
p1691
aVor
p1692
aVcandelabrum
p1693
ag82
aVamid
p1694
aVthe
p1695
aVprofusion
p1696
aVof
p1697
aVgolden
p1698
aVornament
p1699
aVthat
p1700
aVlay
p1701
aVscatter
p1702
aVto
p1703
aVand
p1704
aVfro
p1705
aVor
p1706
aVdepend
p1707
aVfrom
p1708
aVthe
p1709
aVroof
p1710
ag43
asg44
(lp1711
g46
ag46
ag46
ag46
ag46
ag46
ag46
ag46
ag46
ag46
ag46
ag46
ag46
ag46
ag46
ag46
ag46
ag46
ag46
ag46
ag46
ag46
ag46
ag46
ag46
ag46
ag46
ag46
ag46
ag46
ag46
ag46
ag46
asg47
(lp1712
g54
ag131
ag49
ag56
ag131
ag49
ag417
ag176
ag53
ag54
ag49
ag56
ag90
ag56
ag89
ag131
ag49
ag56
ag131
ag88
ag176
ag252
ag56
ag53
ag416
ag90
ag177
ag90
ag55
ag131
ag49
ag56
ag57
asg58
VNow in no one of the seven apartments was there any lamp or candelabrum, amid the profusion of golden ornaments that lay scattered to and fro or depended from the roof.
p1713
sba(i__main__
Sentence
p1714
(dp1715
g17
I41
sg18
(lp1716
S'There'
p1717
aS'was'
p1718
aS'no'
p1719
aS'light'
p1720
aS'of'
p1721
aS'any'
p1722
aS'kind'
p1723
aS'emanating'
p1724
aS'from'
p1725
aS'lamp'
p1726
aS'or'
p1727
aS'candle'
p1728
aS'within'
p1729
aS'the'
p1730
aS'suite'
p1731
aS'of'
p1732
aS'chambers'
p1733
aS'.'
p1734
asg31
(lp1735
VThere
p1736
ag113
aVno
p1737
aVlight
p1738
aVof
p1739
aVany
p1740
aVkind
p1741
aVemanate
p1742
aVfrom
p1743
aVlamp
p1744
aVor
p1745
aVcandle
p1746
aVwithin
p1747
aVthe
p1748
aVsuite
p1749
aVof
p1750
aVchamber
p1751
ag43
asg44
(lp1752
g46
ag46
ag46
ag46
ag46
ag46
ag46
ag46
ag46
ag46
ag46
ag46
ag46
ag46
ag46
ag46
ag46
ag46
asg47
(lp1753
g175
ag53
ag49
ag56
ag131
ag49
ag56
ag542
ag131
ag56
ag90
ag177
ag131
ag49
ag88
ag131
ag176
ag57
asg58
VThere was no light of any kind emanating from lamp or candle within the suite of chambers.
p1754
sba(i__main__
Sentence
p1755
(dp1756
g17
I42
sg18
(lp1757
S'But'
p1758
aS'in'
p1759
aS'the'
p1760
aS'corridors'
p1761
aS'that'
p1762
aS'followed'
p1763
aS'the'
p1764
aS'suite'
p1765
aS','
p1766
aS'there'
p1767
aS'stood'
p1768
aS','
p1769
aS'opposite'
p1770
aS'to'
p1771
aS'each'
p1772
aS'window'
p1773
aS','
p1774
aS'a'
p1775
aS'heavy'
p1776
aS'tripod'
p1777
aS','
p1778
aS'bearing'
p1779
aS'a'
p1780
aS'brazier'
p1781
aS'of'
p1782
aS'fire'
p1783
aS','
p1784
aS'that'
p1785
aS'projected'
p1786
aS'its'
p1787
aS'rays'
p1788
aS'through'
p1789
aS'the'
p1790
aS'tinted'
p1791
aS'glass'
p1792
aS'and'
p1793
aS'so'
p1794
aS'glaringly'
p1795
aS'illumined'
p1796
aS'the'
p1797
aS'room'
p1798
aS'.'
p1799
asg31
(lp1800
VBut
p1801
aVin
p1802
aVthe
p1803
aVcorridor
p1804
aVthat
p1805
aVfollow
p1806
aVthe
p1807
aVsuite
p1808
ag82
aVthere
p1809
aVstood
p1810
ag82
aVopposite
p1811
aVto
p1812
aVeach
p1813
aVwindow
p1814
ag82
ag384
aVheavy
p1815
aVtripod
p1816
ag82
aVbear
p1817
ag384
aVbrazier
p1818
aVof
p1819
aVfire
p1820
ag82
aVthat
p1821
aVproject
p1822
aVit
p1823
aVray
p1824
aVthrough
p1825
aVthe
p1826
aVtint
p1827
aVglass
p1828
aVand
p1829
aVso
p1830
aVglaringly
p1831
aVillumine
p1832
aVthe
p1833
aVroom
p1834
ag43
asg44
(lp1835
g46
ag46
ag46
ag46
ag46
ag46
ag46
ag46
ag46
ag46
ag46
ag46
ag46
ag46
ag46
ag46
ag46
ag46
ag46
ag46
ag46
ag46
ag46
ag46
ag46
ag46
ag46
ag46
ag46
ag46
ag46
ag46
ag46
ag46
ag46
ag46
ag46
ag46
ag46
ag46
ag46
ag46
asg47
(lp1836
g90
ag131
ag49
ag176
ag252
ag53
ag49
ag88
ag89
ag175
ag56
ag89
ag88
ag416
ag49
ag56
ag89
ag49
ag88
ag56
ag89
ag542
ag49
ag56
ag131
ag56
ag89
ag131
ag55
ag129
ag176
ag131
ag49
ag55
ag56
ag90
ag54
ag54
ag55
ag49
ag56
ag57
asg58
VBut in the corridors that followed the suite, there stood, opposite to each window, a heavy tripod, bearing a brazier of fire, that projected its rays through the tinted glass and so glaringly illumined the room.
p1837
sba(i__main__
Sentence
p1838
(dp1839
g17
I43
sg18
(lp1840
S'And'
p1841
aS'thus'
p1842
aS'were'
p1843
aS'produced'
p1844
aS'a'
p1845
aS'multitude'
p1846
aS'of'
p1847
aS'gaudy'
p1848
aS'and'
p1849
aS'fantastic'
p1850
aS'appearances'
p1851
aS'.'
p1852
asg31
(lp1853
VAnd
p1854
aVthus
p1855
ag158
aVproduce
p1856
ag384
aVmultitude
p1857
aVof
p1858
aVgaudy
p1859
aVand
p1860
aVfantastic
p1861
aVappearance
p1862
ag43
asg44
(lp1863
g46
ag46
ag46
ag46
ag46
ag46
ag46
ag46
ag46
ag46
ag46
ag46
asg47
(lp1864
g90
ag54
ag53
ag55
ag49
ag56
ag131
ag56
ag90
ag88
ag176
ag57
asg58
VAnd thus were produced a multitude of gaudy and fantastic appearances.
p1865
sba(i__main__
Sentence
p1866
(dp1867
g17
I44
sg18
(lp1868
S'But'
p1869
aS'in'
p1870
aS'the'
p1871
aS'western'
p1872
aS'or'
p1873
aS'black'
p1874
aS'chamber'
p1875
aS'the'
p1876
aS'effect'
p1877
aS'of'
p1878
aS'the'
p1879
aS'fire-light'
p1880
aS'that'
p1881
aS'streamed'
p1882
aS'upon'
p1883
aS'the'
p1884
aS'dark'
p1885
aS'hangings'
p1886
aS'through'
p1887
aS'the'
p1888
aS'blood-tinted'
p1889
aS'panes'
p1890
aS','
p1891
aS'was'
p1892
aS'ghastly'
p1893
aS'in'
p1894
aS'the'
p1895
aS'extreme'
p1896
aS','
p1897
aS'and'
p1898
aS'produced'
p1899
aS'so'
p1900
aS'wild'
p1901
aS'a'
p1902
aS'look'
p1903
aS'upon'
p1904
aS'the'
p1905
aS'countenances'
p1906
aS'of'
p1907
aS'those'
p1908
aS'who'
p1909
aS'entered'
p1910
aS','
p1911
aS'that'
p1912
aS'there'
p1913
aS'were'
p1914
aS'few'
p1915
aS'of'
p1916
aS'the'
p1917
aS'company'
p1918
aS'bold'
p1919
aS'enough'
p1920
aS'to'
p1921
aS'set'
p1922
aS'foot'
p1923
aS'within'
p1924
aS'its'
p1925
aS'precincts'
p1926
aS'at'
p1927
aS'all'
p1928
aS'.'
p1929
asg31
(lp1930
VBut
p1931
aVin
p1932
aVthe
p1933
aVwestern
p1934
aVor
p1935
aVblack
p1936
aVchamber
p1937
aVthe
p1938
aVeffect
p1939
aVof
p1940
aVthe
p1941
aVfire-light
p1942
aVthat
p1943
aVstream
p1944
aVupon
p1945
aVthe
p1946
aVdark
p1947
aVhanging
p1948
aVthrough
p1949
aVthe
p1950
aVblood-tinted
p1951
aVpane
p1952
ag82
ag113
aVghastly
p1953
aVin
p1954
aVthe
p1955
aVextreme
p1956
ag82
aVand
p1957
aVproduce
p1958
aVso
p1959
aVwild
p1960
ag384
aVlook
p1961
aVupon
p1962
aVthe
p1963
aVcountenance
p1964
aVof
p1965
aVthose
p1966
aVwho
p1967
aVenter
p1968
ag82
aVthat
p1969
aVthere
p1970
ag158
aVfew
p1971
aVof
p1972
aVthe
p1973
aVcompany
p1974
aVbold
p1975
aVenough
p1976
aVto
p1977
aVset
p1978
aVfoot
p1979
aVwithin
p1980
aVit
p1981
aVprecinct
p1982
aVat
p1983
aVall
p1984
ag43
asg44
(lp1985
g46
ag46
ag46
ag46
ag46
ag46
ag46
ag46
ag46
ag46
ag46
ag46
ag46
ag46
ag46
ag46
ag46
ag46
ag46
ag46
ag46
ag46
ag46
ag46
ag46
ag46
ag46
ag46
ag46
ag46
ag46
ag46
ag46
ag46
ag46
ag46
ag46
ag46
ag46
ag46
ag46
ag46
ag46
ag46
ag46
ag46
ag46
ag46
ag46
ag46
ag46
ag46
ag46
ag46
ag46
ag46
ag46
ag46
ag46
ag46
ag46
asg47
(lp1986
g90
ag131
ag49
ag56
ag90
ag88
ag56
ag49
ag56
ag131
ag49
ag88
ag131
ag55
ag131
ag49
ag88
ag176
ag131
ag49
ag88
ag176
ag89
ag53
ag54
ag131
ag49
ag56
ag89
ag90
ag55
ag54
ag88
ag49
ag56
ag131
ag49
ag176
ag131
ag49
aS'WP'
p1987
ag55
ag89
ag131
ag175
ag53
ag88
ag131
ag49
ag56
ag53
ag54
ag416
ag177
ag56
ag131
ag129
ag176
ag131
ag49
ag57
asg58
VBut in the western or black chamber the effect of the fire-light that streamed upon the dark hangings through the blood-tinted panes, was ghastly in the extreme, and produced so wild a look upon the countenances of those who entered, that there were few of the company bold enough to set foot within its precincts at all.
p1988
sbasbsS'summary'
p1989
g0
(g7
g2
Ntp1990
Rp1991
(dp1992
g11
S"After the virulent plague of the Red Death strikes Prince Prospero's country, he and a thousand of his courtiers choose to lock themselves away from the disease and hold parties to pass the time until the contagion leaves. After several months, Prospero holds a particularly grand masked ball that features an ominous room with an unnerving clock. At midnight, the revelers are interrupted by the masked figure of the Red Death, which finally brings to the plague to the door of the hiding courtiers."
p1993
sg13
(lp1994
(i__main__
Sentence
p1995
(dp1996
g17
I0
sg18
(lp1997
S'After'
p1998
aS'the'
p1999
aS'virulent'
p2000
aS'plague'
p2001
aS'of'
p2002
aS'the'
p2003
aS'Red'
p2004
aS'Death'
p2005
aS'strikes'
p2006
aS'Prince'
p2007
aS'Prospero'
p2008
aS"'s"
p2009
aS'country'
p2010
aS','
p2011
aS'he'
p2012
aS'and'
p2013
aS'a'
p2014
aS'thousand'
p2015
aS'of'
p2016
aS'his'
p2017
aS'courtiers'
p2018
aS'choose'
p2019
aS'to'
p2020
aS'lock'
p2021
aS'themselves'
p2022
aS'away'
p2023
aS'from'
p2024
aS'the'
p2025
aS'disease'
p2026
aS'and'
p2027
aS'hold'
p2028
aS'parties'
p2029
aS'to'
p2030
aS'pass'
p2031
aS'the'
p2032
aS'time'
p2033
aS'until'
p2034
aS'the'
p2035
aS'contagion'
p2036
aS'leaves'
p2037
aS'.'
p2038
asg31
(lp2039
VAfter
p2040
aVthe
p2041
aVvirulent
p2042
aVplague
p2043
aVof
p2044
aVthe
p2045
aVRed
p2046
aVDeath
p2047
aVstrike
p2048
aVPrince
p2049
aVProspero
p2050
aV's
p2051
aVcountry
p2052
ag82
aVhe
p2053
aVand
p2054
ag384
aVthousand
p2055
aVof
p2056
aVhis
p2057
aVcourtier
p2058
aVchoose
p2059
aVto
p2060
aVlock
p2061
aVthemselves
p2062
aVaway
p2063
aVfrom
p2064
aVthe
p2065
aVdisease
p2066
aVand
p2067
aVhold
p2068
aVparty
p2069
aVto
p2070
aVpass
p2071
aVthe
p2072
aVtime
p2073
aVuntil
p2074
aVthe
p2075
aVcontagion
p2076
aVleave
p2077
ag43
asg44
(lp2078
g46
ag46
ag46
ag46
ag46
ag46
ag46
ag46
ag46
ag46
aVPERSON
p2079
ag46
ag46
ag46
ag46
ag46
ag46
ag46
ag46
ag46
ag46
ag46
ag46
ag46
ag46
ag46
ag46
ag46
ag46
ag46
ag46
ag46
ag46
ag46
ag46
ag46
ag46
ag46
ag46
ag46
ag46
asg47
(lp2080
g131
ag49
ag56
ag56
ag131
ag49
ag51
ag51
ag250
ag51
ag51
ag462
ag56
ag89
ag253
ag90
ag49
ag56
ag131
ag129
ag176
ag991
ag416
ag177
ag253
ag54
ag131
ag49
ag56
ag90
ag177
ag176
ag416
ag177
ag49
ag56
ag131
ag49
ag56
ag250
ag57
asg58
VAfter the virulent plague of the Red Death strikes Prince Prospero's country, he and a thousand of his courtiers choose to lock themselves away from the disease and hold parties to pass the time until the contagion leaves.
p2081
sba(i__main__
Sentence
p2082
(dp2083
g17
I1
sg18
(lp2084
S'After'
p2085
aS'several'
p2086
aS'months'
p2087
aS','
p2088
aS'Prospero'
p2089
aS'holds'
p2090
aS'a'
p2091
aS'particularly'
p2092
aS'grand'
p2093
aS'masked'
p2094
aS'ball'
p2095
aS'that'
p2096
aS'features'
p2097
aS'an'
p2098
aS'ominous'
p2099
aS'room'
p2100
aS'with'
p2101
aS'an'
p2102
aS'unnerving'
p2103
aS'clock'
p2104
aS'.'
p2105
asg31
(lp2106
VAfter
p2107
aVseveral
p2108
aVmonth
p2109
ag82
aVProspero
p2110
aVhold
p2111
ag384
aVparticularly
p2112
aVgrand
p2113
aVmask
p2114
aVball
p2115
aVthat
p2116
aVfeature
p2117
aVan
p2118
aVominous
p2119
aVroom
p2120
aVwith
p2121
aVan
p2122
aVunnerve
p2123
aVclock
p2124
ag43
asg44
(lp2125
g46
ag46
ag46
ag46
aVPERSON
p2126
ag46
ag46
ag46
ag46
ag46
ag46
ag46
ag46
ag46
ag46
ag46
ag46
ag46
ag46
ag46
ag46
asg47
(lp2127
g131
ag88
ag176
ag89
ag51
ag176
ag49
ag54
ag88
ag55
ag56
ag131
ag176
ag49
ag88
ag56
ag131
ag49
ag542
ag56
ag57
asg58
VAfter several months, Prospero holds a particularly grand masked ball that features an ominous room with an unnerving clock.
p2128
sba(i__main__
Sentence
p2129
(dp2130
g17
I2
sg18
(lp2131
S'At'
p2132
aS'midnight'
p2133
aS','
p2134
aS'the'
p2135
aS'revelers'
p2136
aS'are'
p2137
aS'interrupted'
p2138
aS'by'
p2139
aS'the'
p2140
aS'masked'
p2141
aS'figure'
p2142
aS'of'
p2143
aS'the'
p2144
aS'Red'
p2145
aS'Death'
p2146
aS','
p2147
aS'which'
p2148
aS'finally'
p2149
aS'brings'
p2150
aS'to'
p2151
aS'the'
p2152
aS'plague'
p2153
aS'to'
p2154
aS'the'
p2155
aS'door'
p2156
aS'of'
p2157
aS'the'
p2158
aS'hiding'
p2159
aS'courtiers'
p2160
aS'.'
p2161
asg31
(lp2162
VAt
p2163
aVmidnight
p2164
ag82
aVthe
p2165
aVreveler
p2166
aVbe
p2167
aVinterrupt
p2168
aVby
p2169
aVthe
p2170
aVmask
p2171
aVfigure
p2172
aVof
p2173
aVthe
p2174
aVRed
p2175
aVDeath
p2176
ag82
aVwhich
p2177
aVfinally
p2178
aVbring
p2179
aVto
p2180
aVthe
p2181
aVplague
p2182
aVto
p2183
aVthe
p2184
aVdoor
p2185
aVof
p2186
aVthe
p2187
aVhiding
p2188
aVcourtier
p2189
ag43
asg44
(lp2190
g46
ag46
ag46
ag46
ag46
ag46
ag46
ag46
ag46
ag46
ag46
ag46
ag46
aVLOCATION
p2191
aVLOCATION
p2192
ag46
ag46
ag46
ag46
ag46
ag46
ag46
ag46
ag46
ag46
ag46
ag46
ag46
ag46
ag46
asg47
(lp2193
g131
ag56
ag89
ag49
ag176
ag991
ag55
ag131
ag49
ag55
ag56
ag131
ag49
ag51
ag51
ag89
ag252
ag54
ag250
ag416
ag49
ag56
ag416
ag49
ag56
ag131
ag49
ag56
ag176
ag57
asg58
VAt midnight, the revelers are interrupted by the masked figure of the Red Death, which finally brings to the plague to the door of the hiding courtiers.
p2194
sbasbsS'name'
p2195
S'The Masque of the Red Death'
p2196
sS'summaries'
p2197
(lp2198
g1991
asb.