ccopy_reg
_reconstructor
p0
(c__main__
Story
p1
c__builtin__
object
p2
Ntp3
Rp4
(dp5
S'text'
p6
g0
(c__main__
Document
p7
g2
Ntp8
Rp9
(dp10
S'_Document__initialContent'
p11
S"There was once upon a time a man who was called frederick\nand a woman called catherine, who had married each other\nand lived together as young married folks.  One day\nfrederick said, I will now go and plough, catherine, when\nI come back, there must be some roast meat on the table for\nhunger, and a fresh draught for thirst.  Just go, frederick,\nanswered kate, just go, I will have all ready for you.  So when\ndinner-time drew near she got a sausage out of the chimney, put\nit in the frying-pan, put some butter to it, and set it on the\nfire.  The sausage began to fry and to hiss, catherine stood\nbeside it and held the handle of the pan, and had her own\nthoughts as she was doing it.  Then it occurred to her, while\nthe sausage is getting done you could go into the cellar and draw\nbeer.  So she set the frying-pan safely on the fire, took a can,\nand went down into the cellar to draw beer.  The beer ran\ninto the can and kate watched it, and then she thought, oh,\ndear.  The dog upstairs is not fastened up, it might get the\nsausage out of the pan.  Lucky I thought of it.  And in a trice\nshe was up the cellar-steps again, but the spitz had the sausage\nin its mouth already, and trailed it away on the ground.  But\ncatherine, who was not idle, set out after it, and chased it a\nlong way into the field, the dog, however, was swifter than\ncatherine and did not let the sausage go, but skipped over\nthe furrows with it.  What's gone is gone, said kate, and\nturned round, and as she had run till she was weary, she walked\nquietly and comfortably, and cooled herself.  During this time\nthe beer was still running out of the cask, for kate had not\nturned the tap.  And when the can was full and there was no\nother place for it, it ran into the cellar and did not stop until\nthe whole cask was empty.  As soon as kate was on the steps she\nsaw the accident.  Good\ngracious, she cried.  What shall I do now to stop frederick\nfinding out.  She thought for a while, and at last she remembered\nthat up in the garret was still standing a sack of the finest\nwheat flour from the last fair, and she would fetch that down and\nstrew it over the beer.  Yes, said she, he who saves a thing\nwhen he ought, has it afterwards when he needs it, and she climbed\nup to the garret and carried the sack below, and threw it straight\ndown on the can of beer, which she knocked over, and frederick's\ndraught swam also in the cellar.  It is all right, said kate,\nwhere the one is the other ought to be also, and she strewed\nthe meal over the whole cellar.  When it was done she was heartily\ndelighted with her work, and said, how clean and wholesome it does\nlook here.  At mid-day home came frederick, now, wife, what\nhave you ready for me.  Ah, freddy, she answered, I was frying\na sausage for you, but whilst I was drawing the beer to drink\nwith it, the dog took it away out of the pan, and whilst I was\nrunning after the dog, all the beer ran out, and whilst I was\ndrying up the beer with the flour, I knocked over the can as\nwell, but be easy, the cellar is quite dry again.  Said\nfrederick, kate, kate, you should not have done that, to let\nthe sausage be carried off and the beer run out of the cask,\nand throw out all our flour into the bargain.  Well, frederick,\nI did not know that, you should have told me.  The man thought,\nif this is the kind of wife I have, I had better take more care\nof things.  Now he had saved up a good number of talers\nwhich he changed into gold, and said to catherine, look,\nthese are yellow counters for playing games, I will put\nthem in a pot and bury them in the stable under the cow's manger,\nbut mind you keep away from them, or it will be the worse for\nyou.  Said she, oh, no, frederick, I certainly will not go\nnear them.  And when frederick was gone some pedlars came into\nthe village who had cheap earthen bowls and pots, and asked\nthe young woman if there was nothing she wanted to bargain with\nthem for.  Oh, dear people, said catherine, I have no money\nand can buy nothing, but if you have any use for yellow\ncounters I will buy of you.  Yellow counters, why not.  But\njust let us see them.  Then go into the stable and\ndig under the cow's manger, and you will find the yellow\ncounters.  I am not allowed to go there.  The rogues went\nthither, dug and found pure gold.  Then they laid hold of it,\nran away, and left their pots and bowls behind in the house.\nCatherine though she must use her new things, and as she had\nno lack in the kitchen already without these, she knocked the\nbottom out of every pot, and set them all as ornaments on the\npaling which went round about the house.  When frederick came\nand saw the new decorations, he said, catherine, what have you\nbeen about.  I have bought them, frederick, for the counters\nwhich were under the cow's manger.  I did not go there myself,\nthe pedlars had to dig them out for themselves.  Ah, wife,\nsaid frederick, what have you done.  Those were not counters,\nbut pure gold, and all our wealth, you should not have done that.\nIndeed, frederick, said she, I did not know that, you should\nhave forewarned me.\nCatherine stood for a while and wondered, then she said,\nlisten, frederick, we will soon get the gold back again, we\nwill run after the thieves.  Come, then, said frederick, we\nwill try it, but take with you some butter and cheese that we may\nhave something to eat on the way.  Yes, frederick, I will take\nthem.  They set out, and as frederick was the better walker,\ncatherine followed him.  It is to my advantage, thought she,\nwhen we turn back I shall be a little way in advance.  Then\nshe came to a hill where there were deep ruts on both sides\nof the road.  There one can see, said catherine, how they\nhave torn and skinned and galled the poor earth, it will never\nbe whole again as long as it lives, and in her heart's\ncompassion she took her butter and smeared the ruts right\nand left, that they might not be so hurt by the wheels, and as\nshe was thus bending down in her charity, one of the cheeses\nrolled out of her pocket down the hill.  Said catherine, I\nhave made my way once up here, I will not go down again, another\nmay run and fetch it back.  So she took another cheese and rolled\nit down.  But the cheeses did not come back, so she let a third\nrun down, thinking.  Perhaps they are waiting for company, and\ndo not like to walk alone.  As all three stayed away she said,\nI do not know what that\ncan mean, but it may perhaps be that the third has not found\nthe way, and has gone wrong, I will just send the fourth to\ncall it.  But the fourth did no better than the third.  Then\ncatherine was angry, and threw down the fifth and sixth as\nwell, and these were her last.  She remained standing for some\ntime watching for their coming, but when they still did not come,\nshe said, oh, you are good folks to send in search of death,\nyou stay a fine long time away.  Do you think I will wait any\nlonger for you.  I shall go my way, you may run after me,\nyou have younger legs than I.  Catherine went on and found\nfrederick, who was standing waiting for her because he wanted\nsomething to eat.  Now just let us have what you have brought\nwith you, said he.  She gave him the dry bread.  Where have\nyou the butter and the cheeses, asked the man.  Ah, freddy,\nsaid catherine, I smeared the cart-ruts with the butter and\nthe cheeses will come soon, one ran away from me, so I sent\nthe others after to call it.  Said frederick, you should not\nhave done that, catherine, to smear the butter on the road,\nand let the cheeses run down the hill.  Really, frederick,\nyou should have told me.\nThen they ate the dry bread together, and frederick said,\ncatherine, did you make the house safe when you came away.\nNo, frederick, you should have told me to do it before.  Then\ngo home again, and make the house safe before we go any farther,\nand bring with you something else to eat.  I will wait here\nfor you.  Catherine went back and thought, frederick wants\nsomething more to eat, he does not like butter and cheese, so I\nwill take with me a handkerchief full of dried pears and\na pitcher of vinegar for him to drink.  Then she bolted the\nupper half of the door fast, but unhinged the lower door, and\ntook it on her back, believing that when she had placed the\ndoor in security the house must be well taken care of.  Catherine\ntook her time on the way, and thought, frederick will rest\nhimself so much the longer.  When she had once reached him she\nsaid, here is the house-door for you, frederick, and now you\ncan take care of the house yourself.  Oh, heavens, said he, what\na wise wife I have.  She takes the under-door\noff the hinges that everything may run in, and bolts the\nupper one.  It is now too late to go back home again, but\nsince you have brought the door here, you shall just carry it\nfarther.  I will carry the door, frederick, but the dried pears\nand the vinegar-jug will be too heavy for me, I will hang them\non the door, it may carry them.\nAnd now they went into the forest, and sought the rogues, but\ndid not find them.  At length as it grew dark they climbed into\na tree and resolved to spend the night there.  Scarcely, however,\nhad they sat down at the top of it than the rascals came thither\nwho carry away with them what does not want to go, and find\nthings before they are lost.  They sat down under the very tree\nin which frederick and catherine were sitting, lighted a fire,\nand were about to share their booty.  Frederick got down on the\nother side and collected\nsome stones together.  Then he climbed up again with them, and\nwished to throw them at the thieves and kill them.  The stones,\nhowever, did not hit them, and the knaves cried, it will soon\nbe morning, the wind is shaking down the fir-cones.  Catherine\nstill had the door on her back, and as it pressed so heavily on\nher, she thought it was the fault of the dried pears, and said,\nfrederick, I must throw the pears down.  No, catherine, not now,\nhe replied, they might betray us.  Oh, but, frederick, I must.\nThey weigh me down far too much.  Do it, then, and be hanged.\nThen the dried pears rolled down between the branches, and the\nrascals below said, those are birds, droppings.\nA short time afterwards, as the door was still heavy, catherine\nsaid, ah, frederick, I must pour out the vinegar.  No, catherine,\nyou must not, it might betray us.  Ah, but, frederick, I must,\nit weighs me down far too much.  Then do it and be hanged.\nSo she emptied out the vinegar, and it spattered over the\nrobbers.  They said amongst themselves, the dew is already\nfalling.  At length catherine thought, can it really be the\ndoor which weighs me down so, and said, frederick, I must\nthrow the door down.  No, not now, catherine, it might betray us.\nOh, but, frederick, I must.  It weighs me down far too much.  Oh,\nno, catherine, do hold it fast.  Ah, frederick, I am letting it\nfall.  Let it go, then, in the devil's name.  Then it fell down\nwith a violent clatter, and the rascals below cried, the devil is\ncoming down the tree, and they ran away and left everything behind\nthem.  Early next morning, when the two came down they found all\ntheir gold again, and carried it home.\nWhen they were once more at home, frederick said, and now,\ncatherine, you, too, must be industrious and work.  Yes,\nfrederick, I will soon do that, I will go into the field and\ncut corn.  When catherine got into the field, she said to\nherself, shall I eat before I cut, or shall I sleep before I\ncut.  Oh, I will eat first.  Then catherine ate and eating made\nher sleepy, and she began to cut, and half in a dream cut all her\nclothes to pieces, her apron, her gown, and her shift.  When\ncatherine awoke again after a long sleep she was standing\nthere half-naked, and said to herself, is it I, or is it not\nI.  Alas, it is not I.  In the meantime night came, and catherine\nran into the village, knocked at her husband's window, and cried,\nfrederick.\nWhat is the matter.  I should very much like to know if catherine\nis in.  Yes, yes, replied frederick, she must be in and asleep.\nSaid she, that's all right, then I am certainly at home already,\nand ran away.\nOutside catherine found some vagabonds who were going to steal.\nThen she went to them and said, I will help you to steal.  The\nrascals thought that she knew what opportunities the place\noffered, and were willing.  Catherine went in front of the houses,\nand cried, good folks, have you anything.  We want to steal.\nThe thieves thought to themselves, that's a fine way of doing\nthings, and wished themselves once more rid of catherine.  Then\nthey said to her, outside the village the pastor has some turnips\nin the field.  Go there and pull up some turnips for us.\nCatherine went to the ground, and began to pull them up, but\nwas so lazy that she never stood up straight.  Then a man came\nby, saw her, and stood still and thought that it was the devil\nwho was thus rooting amongst the turnips.  He ran away into the\nvillage to the pastor, and said, mr. Pastor, the devil is in\nyour turnip-ground, rooting up turnips.  Ah, heavens, answered\nthe pastor, I have a lame foot, I cannot go out and drive him\naway.  Said the man, then I will carry you on my back, and he\ncarried him out on his back.  And when they came to the ground,\ncatherine arose and stood up her full height.  Ah, the devil,\ncried the pastor, and both hurried away, and in his great\nfright the pastor could run better with his lame foot than the\nman who had carried him on his back could do on his sound legs.\n"
p12
sS'sentences'
p13
(lp14
(i__main__
Sentence
p15
(dp16
S'index'
p17
I0
sS'words'
p18
(lp19
S'There'
p20
aS'was'
p21
aS'once'
p22
aS'upon'
p23
aS'a'
p24
aS'time'
p25
aS'a'
p26
aS'man'
p27
aS'who'
p28
aS'was'
p29
aS'called'
p30
aS'frederick'
p31
aS'and'
p32
aS'a'
p33
aS'woman'
p34
aS'called'
p35
aS'catherine'
p36
aS','
p37
aS'who'
p38
aS'had'
p39
aS'married'
p40
aS'each'
p41
aS'other'
p42
aS'and'
p43
aS'lived'
p44
aS'together'
p45
aS'as'
p46
aS'young'
p47
aS'married'
p48
aS'folks'
p49
aS'.'
p50
asS'lemmas'
p51
(lp52
VThere
p53
aVbe
p54
aVonce
p55
aVupon
p56
aVa
p57
aVtime
p58
ag57
aVman
p59
aVwho
p60
ag54
aVcall
p61
aVfrederick
p62
aVand
p63
ag57
aVwoman
p64
aVcall
p65
aVcatherine
p66
aV,
p67
aVwho
p68
aVhave
p69
aVmarry
p70
aVeach
p71
aVother
p72
aVand
p73
aVlive
p74
aVtogether
p75
ag57
aVyoung
p76
ag70
aVfolk
p77
aV.
p78
asS'nerTags'
p79
(lp80
VO
p81
ag81
ag81
ag81
ag81
ag81
ag81
ag81
ag81
ag81
ag81
ag81
ag81
ag81
ag81
ag81
ag81
ag81
ag81
ag81
ag81
ag81
ag81
ag81
ag81
ag81
ag81
ag81
ag81
ag81
ag81
asS'posTags'
p82
(lp83
S'EX'
p84
aS'VBD'
p85
aS'RB'
p86
aS'IN'
p87
aS'DT'
p88
aS'NN'
p89
ag88
ag89
aS'WP'
p90
ag85
aS'VBN'
p91
ag89
aS'CC'
p92
ag88
ag89
ag91
ag89
aS','
p93
ag90
ag85
ag91
ag88
aS'JJ'
p94
ag92
ag85
aS'RP'
p95
ag87
ag94
ag91
aS'NNS'
p96
aS'.'
p97
asS'_Sentence__initialContent'
p98
VThere was once upon a time a man who was called frederick and a woman called catherine, who had married each other and lived together as young married folks.
p99
sba(i__main__
Sentence
p100
(dp101
g17
I1
sg18
(lp102
S'One'
p103
aS'day'
p104
aS'frederick'
p105
aS'said'
p106
aS','
p107
aS'I'
p108
aS'will'
p109
aS'now'
p110
aS'go'
p111
aS'and'
p112
aS'plough'
p113
aS','
p114
aS'catherine'
p115
aS','
p116
aS'when'
p117
aS'I'
p118
aS'come'
p119
aS'back'
p120
aS','
p121
aS'there'
p122
aS'must'
p123
aS'be'
p124
aS'some'
p125
aS'roast'
p126
aS'meat'
p127
aS'on'
p128
aS'the'
p129
aS'table'
p130
aS'for'
p131
aS'hunger'
p132
aS','
p133
aS'and'
p134
aS'a'
p135
aS'fresh'
p136
aS'draught'
p137
aS'for'
p138
aS'thirst'
p139
aS'.'
p140
asg51
(lp141
VOne
p142
aVday
p143
aVfrederick
p144
aVsay
p145
ag67
aVI
p146
aVwill
p147
aVnow
p148
aVgo
p149
aVand
p150
aVplough
p151
ag67
aVcatherine
p152
ag67
aVwhen
p153
ag146
aVcome
p154
aVback
p155
ag67
aVthere
p156
aVmust
p157
aVbe
p158
aVsome
p159
aVroast
p160
aVmeat
p161
aVon
p162
aVthe
p163
aVtable
p164
aVfor
p165
aVhunger
p166
ag67
aVand
p167
ag57
aVfresh
p168
aVdraught
p169
aVfor
p170
aVthirst
p171
ag78
asg79
(lp172
g81
ag81
ag81
ag81
ag81
ag81
ag81
ag81
ag81
ag81
ag81
ag81
ag81
ag81
ag81
ag81
ag81
ag81
ag81
ag81
ag81
ag81
ag81
ag81
ag81
ag81
ag81
ag81
ag81
ag81
ag81
ag81
ag81
ag81
ag81
ag81
ag81
ag81
asg82
(lp173
S'CD'
p174
ag89
ag89
ag85
ag93
aS'PRP'
p175
aS'MD'
p176
ag86
aS'VB'
p177
ag92
ag87
ag93
ag89
ag93
aS'WRB'
p178
ag175
aS'VBP'
p179
ag86
ag93
ag84
ag176
ag177
ag88
ag94
ag89
ag87
ag88
ag89
ag87
ag89
ag93
ag92
ag88
ag94
ag89
ag87
ag94
ag97
asg98
VOne day frederick said, I will now go and plough, catherine, when I come back, there must be some roast meat on the table for hunger, and a fresh draught for thirst.
p180
sba(i__main__
Sentence
p181
(dp182
g17
I2
sg18
(lp183
S'Just'
p184
aS'go'
p185
aS','
p186
aS'frederick'
p187
aS','
p188
aS'answered'
p189
aS'kate'
p190
aS','
p191
aS'just'
p192
aS'go'
p193
aS','
p194
aS'I'
p195
aS'will'
p196
aS'have'
p197
aS'all'
p198
aS'ready'
p199
aS'for'
p200
aS'you'
p201
aS'.'
p202
asg51
(lp203
VJust
p204
aVgo
p205
ag67
aVfrederick
p206
ag67
aVanswer
p207
aVkate
p208
ag67
aVjust
p209
aVgo
p210
ag67
ag146
aVwill
p211
aVhave
p212
aVall
p213
aVready
p214
aVfor
p215
aVyou
p216
ag78
asg79
(lp217
g81
ag81
ag81
ag81
ag81
ag81
ag81
ag81
ag81
ag81
ag81
ag81
ag81
ag81
ag81
ag81
ag81
ag81
ag81
asg82
(lp218
g86
ag179
ag93
ag89
ag93
ag85
ag94
ag93
ag86
ag179
ag93
ag175
ag176
ag177
aS'PDT'
p219
ag86
ag87
ag175
ag97
asg98
VJust go, frederick, answered kate, just go, I will have all ready for you.
p220
sba(i__main__
Sentence
p221
(dp222
g17
I3
sg18
(lp223
S'So'
p224
aS'when'
p225
aS'dinner-time'
p226
aS'drew'
p227
aS'near'
p228
aS'she'
p229
aS'got'
p230
aS'a'
p231
aS'sausage'
p232
aS'out'
p233
aS'of'
p234
aS'the'
p235
aS'chimney'
p236
aS','
p237
aS'put'
p238
aS'it'
p239
aS'in'
p240
aS'the'
p241
aS'frying-pan'
p242
aS','
p243
aS'put'
p244
aS'some'
p245
aS'butter'
p246
aS'to'
p247
aS'it'
p248
aS','
p249
aS'and'
p250
aS'set'
p251
aS'it'
p252
aS'on'
p253
aS'the'
p254
aS'fire'
p255
aS'.'
p256
asg51
(lp257
VSo
p258
aVwhen
p259
aVdinner-time
p260
aVdrew
p261
aVnear
p262
aVshe
p263
aVget
p264
ag57
aVsausage
p265
aVout
p266
aVof
p267
aVthe
p268
aVchimney
p269
ag67
aVput
p270
aVit
p271
aVin
p272
aVthe
p273
aVfrying-pan
p274
ag67
aVput
p275
aVsome
p276
aVbutter
p277
aVto
p278
aVit
p279
ag67
aVand
p280
aVset
p281
aVit
p282
aVon
p283
aVthe
p284
aVfire
p285
ag78
asg79
(lp286
g81
ag81
ag81
ag81
ag81
ag81
ag81
ag81
ag81
ag81
ag81
ag81
ag81
ag81
ag81
ag81
ag81
ag81
ag81
ag81
ag81
ag81
ag81
ag81
ag81
ag81
ag81
ag81
ag81
ag81
ag81
ag81
ag81
asg82
(lp287
g87
ag178
ag94
ag89
ag87
ag175
ag85
ag88
ag89
ag87
ag87
ag88
ag89
ag93
ag85
ag175
ag87
ag88
ag94
ag93
ag85
ag88
ag89
aS'TO'
p288
ag175
ag93
ag92
ag85
ag175
ag87
ag88
ag89
ag97
asg98
VSo when dinner-time drew near she got a sausage out of the chimney, put it in the frying-pan, put some butter to it, and set it on the fire.
p289
sba(i__main__
Sentence
p290
(dp291
g17
I4
sg18
(lp292
S'The'
p293
aS'sausage'
p294
aS'began'
p295
aS'to'
p296
aS'fry'
p297
aS'and'
p298
aS'to'
p299
aS'hiss'
p300
aS','
p301
aS'catherine'
p302
aS'stood'
p303
aS'beside'
p304
aS'it'
p305
aS'and'
p306
aS'held'
p307
aS'the'
p308
aS'handle'
p309
aS'of'
p310
aS'the'
p311
aS'pan'
p312
aS','
p313
aS'and'
p314
aS'had'
p315
aS'her'
p316
aS'own'
p317
aS'thoughts'
p318
aS'as'
p319
aS'she'
p320
aS'was'
p321
aS'doing'
p322
aS'it'
p323
aS'.'
p324
asg51
(lp325
VThe
p326
aVsausage
p327
aVbegin
p328
aVto
p329
aVfry
p330
aVand
p331
aVto
p332
aVhiss
p333
ag67
aVcatherine
p334
aVstand
p335
aVbeside
p336
aVit
p337
aVand
p338
aVhold
p339
aVthe
p340
aVhandle
p341
aVof
p342
aVthe
p343
aVpan
p344
ag67
aVand
p345
ag69
aVher
p346
aVown
p347
aVthought
p348
ag57
aVshe
p349
ag54
aVdo
p350
aVit
p351
ag78
asg79
(lp352
g81
ag81
ag81
ag81
ag81
ag81
ag81
ag81
ag81
ag81
ag81
ag81
ag81
ag81
ag81
ag81
ag81
ag81
ag81
ag81
ag81
ag81
ag81
ag81
ag81
ag81
ag81
ag81
ag81
ag81
ag81
ag81
asg82
(lp353
g88
ag89
ag85
ag288
ag89
ag92
ag288
ag177
ag93
ag89
ag85
ag89
ag175
ag92
ag85
ag88
ag89
ag87
ag88
ag89
ag93
ag92
ag85
ag175
ag94
ag96
ag87
ag175
ag85
aS'VBG'
p354
ag175
ag97
asg98
VThe sausage began to fry and to hiss, catherine stood beside it and held the handle of the pan, and had her own thoughts as she was doing it.
p355
sba(i__main__
Sentence
p356
(dp357
g17
I5
sg18
(lp358
S'Then'
p359
aS'it'
p360
aS'occurred'
p361
aS'to'
p362
aS'her'
p363
aS','
p364
aS'while'
p365
aS'the'
p366
aS'sausage'
p367
aS'is'
p368
aS'getting'
p369
aS'done'
p370
aS'you'
p371
aS'could'
p372
aS'go'
p373
aS'into'
p374
aS'the'
p375
aS'cellar'
p376
aS'and'
p377
aS'draw'
p378
aS'beer'
p379
aS'.'
p380
asg51
(lp381
VThen
p382
aVit
p383
aVoccur
p384
aVto
p385
aVher
p386
ag67
aVwhile
p387
aVthe
p388
aVsausage
p389
aVbe
p390
aVget
p391
aVdone
p392
aVyou
p393
aVcould
p394
aVgo
p395
aVinto
p396
aVthe
p397
aVcellar
p398
aVand
p399
aVdraw
p400
aVbeer
p401
ag78
asg79
(lp402
g81
ag81
ag81
ag81
ag81
ag81
ag81
ag81
ag81
ag81
ag81
ag81
ag81
ag81
ag81
ag81
ag81
ag81
ag81
ag81
ag81
ag81
asg82
(lp403
g86
ag175
ag85
ag288
aS'PRP$'
p404
ag93
ag87
ag88
ag89
aS'VBZ'
p405
ag354
ag89
ag175
ag176
ag177
ag87
ag88
ag94
ag92
ag89
ag89
ag97
asg98
VThen it occurred to her, while the sausage is getting done you could go into the cellar and draw beer.
p406
sba(i__main__
Sentence
p407
(dp408
g17
I6
sg18
(lp409
S'So'
p410
aS'she'
p411
aS'set'
p412
aS'the'
p413
aS'frying-pan'
p414
aS'safely'
p415
aS'on'
p416
aS'the'
p417
aS'fire'
p418
aS','
p419
aS'took'
p420
aS'a'
p421
aS'can'
p422
aS','
p423
aS'and'
p424
aS'went'
p425
aS'down'
p426
aS'into'
p427
aS'the'
p428
aS'cellar'
p429
aS'to'
p430
aS'draw'
p431
aS'beer'
p432
aS'.'
p433
asg51
(lp434
VSo
p435
aVshe
p436
aVset
p437
aVthe
p438
aVfrying-pan
p439
aVsafely
p440
aVon
p441
aVthe
p442
aVfire
p443
ag67
aVtake
p444
ag57
aVcan
p445
ag67
aVand
p446
aVgo
p447
aVdown
p448
aVinto
p449
aVthe
p450
aVcellar
p451
aVto
p452
aVdraw
p453
aVbeer
p454
ag78
asg79
(lp455
g81
ag81
ag81
ag81
ag81
ag81
ag81
ag81
ag81
ag81
ag81
ag81
ag81
ag81
ag81
ag81
ag81
ag81
ag81
ag81
ag81
ag81
ag81
ag81
asg82
(lp456
g87
ag175
ag85
ag88
ag94
ag86
ag87
ag88
ag89
ag93
ag85
ag88
ag89
ag93
ag92
ag85
ag87
ag87
ag88
ag94
ag288
ag177
ag89
ag97
asg98
VSo she set the frying-pan safely on the fire, took a can, and went down into the cellar to draw beer.
p457
sba(i__main__
Sentence
p458
(dp459
g17
I7
sg18
(lp460
S'The'
p461
aS'beer'
p462
aS'ran'
p463
aS'into'
p464
aS'the'
p465
aS'can'
p466
aS'and'
p467
aS'kate'
p468
aS'watched'
p469
aS'it'
p470
aS','
p471
aS'and'
p472
aS'then'
p473
aS'she'
p474
aS'thought'
p475
aS','
p476
aS'oh'
p477
aS','
p478
aS'dear'
p479
aS'.'
p480
asg51
(lp481
VThe
p482
aVbeer
p483
aVrun
p484
aVinto
p485
aVthe
p486
aVcan
p487
aVand
p488
aVkate
p489
aVwatch
p490
aVit
p491
ag67
aVand
p492
aVthen
p493
aVshe
p494
aVthink
p495
ag67
aVoh
p496
ag67
aVdear
p497
ag78
asg79
(lp498
g81
ag81
ag81
ag81
ag81
ag81
ag81
ag81
ag81
ag81
ag81
ag81
ag81
ag81
ag81
ag81
ag81
ag81
ag81
ag81
asg82
(lp499
g88
ag89
ag85
ag87
ag88
ag176
ag92
ag177
ag91
ag175
ag93
ag92
ag86
ag175
ag85
ag93
ag89
ag93
ag94
ag97
asg98
VThe beer ran into the can and kate watched it, and then she thought, oh, dear.
p500
sba(i__main__
Sentence
p501
(dp502
g17
I8
sg18
(lp503
S'The'
p504
aS'dog'
p505
aS'upstairs'
p506
aS'is'
p507
aS'not'
p508
aS'fastened'
p509
aS'up'
p510
aS','
p511
aS'it'
p512
aS'might'
p513
aS'get'
p514
aS'the'
p515
aS'sausage'
p516
aS'out'
p517
aS'of'
p518
aS'the'
p519
aS'pan'
p520
aS'.'
p521
asg51
(lp522
VThe
p523
aVdog
p524
aVupstairs
p525
ag390
aVnot
p526
aVfasten
p527
aVup
p528
ag67
aVit
p529
aVmight
p530
aVget
p531
aVthe
p532
aVsausage
p533
aVout
p534
aVof
p535
aVthe
p536
aVpan
p537
ag78
asg79
(lp538
g81
ag81
ag81
ag81
ag81
ag81
ag81
ag81
ag81
ag81
ag81
ag81
ag81
ag81
ag81
ag81
ag81
ag81
asg82
(lp539
g88
ag89
ag96
ag405
ag86
ag91
ag95
ag93
ag175
ag176
ag177
ag88
ag89
ag87
ag87
ag88
ag89
ag97
asg98
VThe dog upstairs is not fastened up, it might get the sausage out of the pan.
p540
sba(i__main__
Sentence
p541
(dp542
g17
I9
sg18
(lp543
S'Lucky'
p544
aS'I'
p545
aS'thought'
p546
aS'of'
p547
aS'it'
p548
aS'.'
p549
asg51
(lp550
VLucky
p551
ag146
ag495
aVof
p552
aVit
p553
ag78
asg79
(lp554
g81
ag81
ag81
ag81
ag81
ag81
asg82
(lp555
S'NNP'
p556
ag175
ag85
ag87
ag175
ag97
asg98
VLucky I thought of it.
p557
sba(i__main__
Sentence
p558
(dp559
g17
I10
sg18
(lp560
S'And'
p561
aS'in'
p562
aS'a'
p563
aS'trice'
p564
aS'she'
p565
aS'was'
p566
aS'up'
p567
aS'the'
p568
aS'cellar-steps'
p569
aS'again'
p570
aS','
p571
aS'but'
p572
aS'the'
p573
aS'spitz'
p574
aS'had'
p575
aS'the'
p576
aS'sausage'
p577
aS'in'
p578
aS'its'
p579
aS'mouth'
p580
aS'already'
p581
aS','
p582
aS'and'
p583
aS'trailed'
p584
aS'it'
p585
aS'away'
p586
aS'on'
p587
aS'the'
p588
aS'ground'
p589
aS'.'
p590
asg51
(lp591
VAnd
p592
aVin
p593
ag57
aVtrice
p594
aVshe
p595
ag54
aVup
p596
aVthe
p597
aVcellar-steps
p598
aVagain
p599
ag67
aVbut
p600
aVthe
p601
aVspitz
p602
ag69
aVthe
p603
aVsausage
p604
aVin
p605
aVit
p606
aVmouth
p607
aValready
p608
ag67
aVand
p609
aVtrail
p610
aVit
p611
aVaway
p612
aVon
p613
aVthe
p614
aVground
p615
ag78
asg79
(lp616
g81
ag81
ag81
ag81
ag81
ag81
ag81
ag81
ag81
ag81
ag81
ag81
ag81
ag81
ag81
ag81
ag81
ag81
ag81
ag81
ag81
ag81
ag81
ag81
ag81
ag81
ag81
ag81
ag81
ag81
asg82
(lp617
g92
ag87
ag88
ag89
ag175
ag85
ag95
ag88
ag96
ag86
ag93
ag92
ag88
ag89
ag85
ag88
ag89
ag87
ag404
ag89
ag86
ag93
ag92
ag85
ag175
ag86
ag87
ag88
ag89
ag97
asg98
VAnd in a trice she was up the cellar-steps again, but the spitz had the sausage in its mouth already, and trailed it away on the ground.
p618
sba(i__main__
Sentence
p619
(dp620
g17
I11
sg18
(lp621
S'But'
p622
aS'catherine'
p623
aS','
p624
aS'who'
p625
aS'was'
p626
aS'not'
p627
aS'idle'
p628
aS','
p629
aS'set'
p630
aS'out'
p631
aS'after'
p632
aS'it'
p633
aS','
p634
aS'and'
p635
aS'chased'
p636
aS'it'
p637
aS'a'
p638
aS'long'
p639
aS'way'
p640
aS'into'
p641
aS'the'
p642
aS'field'
p643
aS','
p644
aS'the'
p645
aS'dog'
p646
aS','
p647
aS'however'
p648
aS','
p649
aS'was'
p650
aS'swifter'
p651
aS'than'
p652
aS'catherine'
p653
aS'and'
p654
aS'did'
p655
aS'not'
p656
aS'let'
p657
aS'the'
p658
aS'sausage'
p659
aS'go'
p660
aS','
p661
aS'but'
p662
aS'skipped'
p663
aS'over'
p664
aS'the'
p665
aS'furrows'
p666
aS'with'
p667
aS'it'
p668
aS'.'
p669
asg51
(lp670
VBut
p671
aVcatherine
p672
ag67
aVwho
p673
ag54
aVnot
p674
aVidle
p675
ag67
aVset
p676
aVout
p677
aVafter
p678
aVit
p679
ag67
aVand
p680
aVchase
p681
aVit
p682
ag57
aVlong
p683
aVway
p684
aVinto
p685
aVthe
p686
aVfield
p687
ag67
aVthe
p688
aVdog
p689
ag67
aVhowever
p690
ag67
ag54
aVswifter
p691
aVthan
p692
aVcatherine
p693
aVand
p694
aVdo
p695
aVnot
p696
aVlet
p697
aVthe
p698
aVsausage
p699
aVgo
p700
ag67
aVbut
p701
aVskip
p702
aVover
p703
aVthe
p704
aVfurrow
p705
aVwith
p706
aVit
p707
ag78
asg79
(lp708
g81
aVPERSON
p709
ag81
ag81
ag81
ag81
ag81
ag81
ag81
ag81
ag81
ag81
ag81
ag81
ag81
ag81
ag81
ag81
ag81
ag81
ag81
ag81
ag81
ag81
ag81
ag81
ag81
ag81
ag81
ag81
ag81
ag81
ag81
ag81
ag81
ag81
ag81
ag81
ag81
ag81
ag81
ag81
ag81
ag81
ag81
ag81
ag81
ag81
asg82
(lp710
g92
ag89
ag93
ag90
ag85
ag86
ag94
ag93
ag91
ag95
ag87
ag175
ag93
ag92
ag85
ag175
ag88
ag94
ag89
ag87
ag88
ag89
ag93
ag88
ag89
ag93
ag86
ag93
ag85
ag89
ag87
ag89
ag92
ag85
ag86
ag177
ag88
ag89
ag89
ag93
ag92
ag85
ag95
ag88
ag96
ag87
ag175
ag97
asg98
VBut catherine, who was not idle, set out after it, and chased it a long way into the field, the dog, however, was swifter than catherine and did not let the sausage go, but skipped over the furrows with it.
p711
sba(i__main__
Sentence
p712
(dp713
g17
I12
sg18
(lp714
S'What'
p715
aS"'s"
p716
aS'gone'
p717
aS'is'
p718
aS'gone'
p719
aS','
p720
aS'said'
p721
aS'kate'
p722
aS','
p723
aS'and'
p724
aS'turned'
p725
aS'round'
p726
aS','
p727
aS'and'
p728
aS'as'
p729
aS'she'
p730
aS'had'
p731
aS'run'
p732
aS'till'
p733
aS'she'
p734
aS'was'
p735
aS'weary'
p736
aS','
p737
aS'she'
p738
aS'walked'
p739
aS'quietly'
p740
aS'and'
p741
aS'comfortably'
p742
aS','
p743
aS'and'
p744
aS'cooled'
p745
aS'herself'
p746
aS'.'
p747
asg51
(lp748
VWhat
p749
aV's
p750
aVgo
p751
ag390
ag751
ag67
ag145
aVkate
p752
ag67
aVand
p753
aVturn
p754
aVround
p755
ag67
aVand
p756
ag57
aVshe
p757
ag69
aVrun
p758
aVtill
p759
aVshe
p760
ag54
aVweary
p761
ag67
aVshe
p762
aVwalk
p763
aVquietly
p764
aVand
p765
aVcomfortably
p766
ag67
aVand
p767
aVcool
p768
aVherself
p769
ag78
asg79
(lp770
g81
ag81
ag81
ag81
ag81
ag81
ag81
ag81
ag81
ag81
ag81
ag81
ag81
ag81
ag81
ag81
ag81
ag81
ag81
ag81
ag81
ag81
ag81
ag81
ag81
ag81
ag81
ag81
ag81
ag81
ag81
ag81
ag81
asg82
(lp771
g90
ag405
ag91
ag405
ag91
ag93
ag85
ag89
ag93
ag92
ag85
ag89
ag93
ag92
ag87
ag175
ag85
ag91
ag89
ag175
ag85
ag94
ag93
ag175
ag85
ag86
ag92
ag86
ag93
ag92
ag85
ag175
ag97
asg98
VWhat's gone is gone, said kate, and turned round, and as she had run till she was weary, she walked quietly and comfortably, and cooled herself.
p772
sba(i__main__
Sentence
p773
(dp774
g17
I13
sg18
(lp775
S'During'
p776
aS'this'
p777
aS'time'
p778
aS'the'
p779
aS'beer'
p780
aS'was'
p781
aS'still'
p782
aS'running'
p783
aS'out'
p784
aS'of'
p785
aS'the'
p786
aS'cask'
p787
aS','
p788
aS'for'
p789
aS'kate'
p790
aS'had'
p791
aS'not'
p792
aS'turned'
p793
aS'the'
p794
aS'tap'
p795
aS'.'
p796
asg51
(lp797
VDuring
p798
aVthis
p799
aVtime
p800
aVthe
p801
aVbeer
p802
ag54
aVstill
p803
aVrun
p804
aVout
p805
aVof
p806
aVthe
p807
aVcask
p808
ag67
aVfor
p809
aVkate
p810
ag69
aVnot
p811
aVturn
p812
aVthe
p813
aVtap
p814
ag78
asg79
(lp815
g81
ag81
ag81
ag81
ag81
ag81
ag81
ag81
ag81
ag81
ag81
ag81
ag81
ag81
ag81
ag81
ag81
ag81
ag81
ag81
ag81
asg82
(lp816
g87
ag88
ag89
ag88
ag89
ag85
ag86
ag354
ag95
ag87
ag88
ag89
ag93
ag87
ag89
ag85
ag86
ag91
ag88
ag89
ag97
asg98
VDuring this time the beer was still running out of the cask, for kate had not turned the tap.
p817
sba(i__main__
Sentence
p818
(dp819
g17
I14
sg18
(lp820
S'And'
p821
aS'when'
p822
aS'the'
p823
aS'can'
p824
aS'was'
p825
aS'full'
p826
aS'and'
p827
aS'there'
p828
aS'was'
p829
aS'no'
p830
aS'other'
p831
aS'place'
p832
aS'for'
p833
aS'it'
p834
aS','
p835
aS'it'
p836
aS'ran'
p837
aS'into'
p838
aS'the'
p839
aS'cellar'
p840
aS'and'
p841
aS'did'
p842
aS'not'
p843
aS'stop'
p844
aS'until'
p845
aS'the'
p846
aS'whole'
p847
aS'cask'
p848
aS'was'
p849
aS'empty'
p850
aS'.'
p851
asg51
(lp852
VAnd
p853
aVwhen
p854
aVthe
p855
aVcan
p856
ag54
aVfull
p857
aVand
p858
aVthere
p859
ag54
aVno
p860
aVother
p861
aVplace
p862
aVfor
p863
aVit
p864
ag67
aVit
p865
ag484
aVinto
p866
aVthe
p867
aVcellar
p868
aVand
p869
ag695
aVnot
p870
aVstop
p871
aVuntil
p872
aVthe
p873
aVwhole
p874
aVcask
p875
ag54
aVempty
p876
ag78
asg79
(lp877
g81
ag81
ag81
ag81
ag81
ag81
ag81
ag81
ag81
ag81
ag81
ag81
ag81
ag81
ag81
ag81
ag81
ag81
ag81
ag81
ag81
ag81
ag81
ag81
ag81
ag81
ag81
ag81
ag81
ag81
ag81
asg82
(lp878
g92
ag178
ag88
ag176
ag85
ag94
ag92
ag84
ag85
ag88
ag94
ag89
ag87
ag175
ag93
ag175
ag85
ag87
ag88
ag94
ag92
ag85
ag86
ag177
ag87
ag88
ag94
ag89
ag85
ag94
ag97
asg98
VAnd when the can was full and there was no other place for it, it ran into the cellar and did not stop until the whole cask was empty.
p879
sba(i__main__
Sentence
p880
(dp881
g17
I15
sg18
(lp882
S'As'
p883
aS'soon'
p884
aS'as'
p885
aS'kate'
p886
aS'was'
p887
aS'on'
p888
aS'the'
p889
aS'steps'
p890
aS'she'
p891
aS'saw'
p892
aS'the'
p893
aS'accident'
p894
aS'.'
p895
asg51
(lp896
VAs
p897
aVsoon
p898
ag57
aVkate
p899
ag54
aVon
p900
aVthe
p901
aVstep
p902
aVshe
p903
aVsaw
p904
aVthe
p905
aVaccident
p906
ag78
asg79
(lp907
g81
ag81
ag81
ag81
ag81
ag81
ag81
ag81
ag81
ag81
ag81
ag81
ag81
asg82
(lp908
g87
ag86
ag87
ag94
ag85
ag87
ag88
ag96
ag175
ag85
ag88
ag89
ag97
asg98
VAs soon as kate was on the steps she saw the accident.
p909
sba(i__main__
Sentence
p910
(dp911
g17
I16
sg18
(lp912
S'Good'
p913
aS'gracious'
p914
aS','
p915
aS'she'
p916
aS'cried'
p917
aS'.'
p918
asg51
(lp919
VGood
p920
aVgracious
p921
ag67
aVshe
p922
aVcry
p923
ag78
asg79
(lp924
g81
ag81
ag81
ag81
ag81
ag81
asg82
(lp925
g556
ag94
ag93
ag175
ag85
ag97
asg98
VGood gracious, she cried.
p926
sba(i__main__
Sentence
p927
(dp928
g17
I17
sg18
(lp929
S'What'
p930
aS'shall'
p931
aS'I'
p932
aS'do'
p933
aS'now'
p934
aS'to'
p935
aS'stop'
p936
aS'frederick'
p937
aS'finding'
p938
aS'out'
p939
aS'.'
p940
asg51
(lp941
VWhat
p942
aVshall
p943
ag146
aVdo
p944
aVnow
p945
aVto
p946
aVstop
p947
aVfrederick
p948
aVfinding
p949
aVout
p950
ag78
asg79
(lp951
g81
ag81
ag81
ag81
ag81
ag81
ag81
ag81
ag81
ag81
ag81
asg82
(lp952
g90
ag176
ag175
ag179
ag86
ag288
ag177
ag89
ag89
ag87
ag97
asg98
VWhat shall I do now to stop frederick finding out.
p953
sba(i__main__
Sentence
p954
(dp955
g17
I18
sg18
(lp956
S'She'
p957
aS'thought'
p958
aS'for'
p959
aS'a'
p960
aS'while'
p961
aS','
p962
aS'and'
p963
aS'at'
p964
aS'last'
p965
aS'she'
p966
aS'remembered'
p967
aS'that'
p968
aS'up'
p969
aS'in'
p970
aS'the'
p971
aS'garret'
p972
aS'was'
p973
aS'still'
p974
aS'standing'
p975
aS'a'
p976
aS'sack'
p977
aS'of'
p978
aS'the'
p979
aS'finest'
p980
aS'wheat'
p981
aS'flour'
p982
aS'from'
p983
aS'the'
p984
aS'last'
p985
aS'fair'
p986
aS','
p987
aS'and'
p988
aS'she'
p989
aS'would'
p990
aS'fetch'
p991
aS'that'
p992
aS'down'
p993
aS'and'
p994
aS'strew'
p995
aS'it'
p996
aS'over'
p997
aS'the'
p998
aS'beer'
p999
aS'.'
p1000
asg51
(lp1001
VShe
p1002
ag495
aVfor
p1003
ag57
aVwhile
p1004
ag67
aVand
p1005
aVat
p1006
aVlast
p1007
aVshe
p1008
aVremember
p1009
aVthat
p1010
aVup
p1011
aVin
p1012
aVthe
p1013
aVgarret
p1014
ag54
aVstill
p1015
aVstanding
p1016
ag57
aVsack
p1017
aVof
p1018
aVthe
p1019
aVfine
p1020
aVwheat
p1021
aVflour
p1022
aVfrom
p1023
aVthe
p1024
aVlast
p1025
aVfair
p1026
ag67
aVand
p1027
aVshe
p1028
aVwould
p1029
aVfetch
p1030
aVthat
p1031
aVdown
p1032
aVand
p1033
aVstrew
p1034
aVit
p1035
aVover
p1036
aVthe
p1037
aVbeer
p1038
ag78
asg79
(lp1039
g81
ag81
ag81
ag81
ag81
ag81
ag81
ag81
ag81
ag81
ag81
ag81
ag81
ag81
ag81
ag81
ag81
ag81
ag81
ag81
ag81
ag81
ag81
ag81
ag81
ag81
ag81
ag81
ag81
ag81
ag81
ag81
ag81
ag81
ag81
ag81
ag81
ag81
ag81
ag81
ag81
ag81
ag81
ag81
asg82
(lp1040
g175
ag85
ag87
ag88
ag89
ag93
ag92
ag87
ag94
ag175
ag85
ag87
ag87
ag87
ag88
ag89
ag85
ag86
ag89
ag88
ag89
ag87
ag88
aS'JJS'
p1041
ag89
ag89
ag87
ag88
ag94
ag89
ag93
ag92
ag175
ag176
ag177
ag87
ag87
ag92
ag177
ag175
ag87
ag88
ag89
ag97
asg98
VShe thought for a while, and at last she remembered that up in the garret was still standing a sack of the finest wheat flour from the last fair, and she would fetch that down and strew it over the beer.
p1042
sba(i__main__
Sentence
p1043
(dp1044
g17
I19
sg18
(lp1045
S'Yes'
p1046
aS','
p1047
aS'said'
p1048
aS'she'
p1049
aS','
p1050
aS'he'
p1051
aS'who'
p1052
aS'saves'
p1053
aS'a'
p1054
aS'thing'
p1055
aS'when'
p1056
aS'he'
p1057
aS'ought'
p1058
aS','
p1059
aS'has'
p1060
aS'it'
p1061
aS'afterwards'
p1062
aS'when'
p1063
aS'he'
p1064
aS'needs'
p1065
aS'it'
p1066
aS','
p1067
aS'and'
p1068
aS'she'
p1069
aS'climbed'
p1070
aS'up'
p1071
aS'to'
p1072
aS'the'
p1073
aS'garret'
p1074
aS'and'
p1075
aS'carried'
p1076
aS'the'
p1077
aS'sack'
p1078
aS'below'
p1079
aS','
p1080
aS'and'
p1081
aS'threw'
p1082
aS'it'
p1083
aS'straight'
p1084
aS'down'
p1085
aS'on'
p1086
aS'the'
p1087
aS'can'
p1088
aS'of'
p1089
aS'beer'
p1090
aS','
p1091
aS'which'
p1092
aS'she'
p1093
aS'knocked'
p1094
aS'over'
p1095
aS','
p1096
aS'and'
p1097
aS'frederick'
p1098
aS"'s"
p1099
aS'draught'
p1100
aS'swam'
p1101
aS'also'
p1102
aS'in'
p1103
aS'the'
p1104
aS'cellar'
p1105
aS'.'
p1106
asg51
(lp1107
VYes
p1108
ag67
ag145
aVshe
p1109
ag67
aVhe
p1110
aVwho
p1111
aVsave
p1112
ag57
aVthing
p1113
aVwhen
p1114
aVhe
p1115
aVought
p1116
ag67
aVhave
p1117
aVit
p1118
aVafterwards
p1119
aVwhen
p1120
aVhe
p1121
aVneed
p1122
aVit
p1123
ag67
aVand
p1124
aVshe
p1125
aVclimb
p1126
aVup
p1127
aVto
p1128
aVthe
p1129
aVgarret
p1130
aVand
p1131
aVcarry
p1132
aVthe
p1133
aVsack
p1134
aVbelow
p1135
ag67
aVand
p1136
aVthrow
p1137
aVit
p1138
aVstraight
p1139
aVdown
p1140
aVon
p1141
aVthe
p1142
aVcan
p1143
aVof
p1144
aVbeer
p1145
ag67
aVwhich
p1146
aVshe
p1147
aVknock
p1148
aVover
p1149
ag67
aVand
p1150
aVfrederick
p1151
aV's
p1152
aVdraught
p1153
aVswam
p1154
aValso
p1155
aVin
p1156
aVthe
p1157
aVcellar
p1158
ag78
asg79
(lp1159
g81
ag81
ag81
ag81
ag81
ag81
ag81
ag81
ag81
ag81
ag81
ag81
ag81
ag81
ag81
ag81
ag81
ag81
ag81
ag81
ag81
ag81
ag81
ag81
ag81
ag81
ag81
ag81
ag81
ag81
ag81
ag81
ag81
ag81
ag81
ag81
ag81
ag81
ag81
ag81
ag81
ag81
ag81
ag81
ag81
ag81
ag81
ag81
ag81
ag81
ag81
ag81
ag81
ag81
ag81
ag81
ag81
ag81
ag81
ag81
ag81
asg82
(lp1160
g96
ag93
ag85
ag175
ag93
ag175
ag90
ag96
ag88
ag89
ag178
ag175
ag176
ag93
ag405
ag175
ag405
ag178
ag175
ag405
ag175
ag93
ag92
ag175
ag85
ag95
ag288
ag88
ag89
ag92
ag85
ag88
ag89
ag87
ag93
ag92
ag85
ag175
ag86
ag87
ag87
ag88
ag89
ag87
ag89
ag93
aS'WDT'
p1161
ag175
ag85
ag95
ag93
ag92
ag177
ag405
ag91
ag89
ag86
ag87
ag88
ag94
ag97
asg98
VYes, said she, he who saves a thing when he ought, has it afterwards when he needs it, and she climbed up to the garret and carried the sack below, and threw it straight down on the can of beer, which she knocked over, and frederick's draught swam also in the cellar.
p1162
sba(i__main__
Sentence
p1163
(dp1164
g17
I20
sg18
(lp1165
S'It'
p1166
aS'is'
p1167
aS'all'
p1168
aS'right'
p1169
aS','
p1170
aS'said'
p1171
aS'kate'
p1172
aS','
p1173
aS'where'
p1174
aS'the'
p1175
aS'one'
p1176
aS'is'
p1177
aS'the'
p1178
aS'other'
p1179
aS'ought'
p1180
aS'to'
p1181
aS'be'
p1182
aS'also'
p1183
aS','
p1184
aS'and'
p1185
aS'she'
p1186
aS'strewed'
p1187
aS'the'
p1188
aS'meal'
p1189
aS'over'
p1190
aS'the'
p1191
aS'whole'
p1192
aS'cellar'
p1193
aS'.'
p1194
asg51
(lp1195
VIt
p1196
ag390
aVall
p1197
aVright
p1198
ag67
ag145
aVkate
p1199
ag67
aVwhere
p1200
aVthe
p1201
aVone
p1202
ag390
aVthe
p1203
aVother
p1204
aVought
p1205
aVto
p1206
aVbe
p1207
aValso
p1208
ag67
aVand
p1209
aVshe
p1210
aVstrew
p1211
aVthe
p1212
aVmeal
p1213
aVover
p1214
aVthe
p1215
aVwhole
p1216
aVcellar
p1217
ag78
asg79
(lp1218
g81
ag81
ag81
ag81
ag81
ag81
ag81
ag81
ag81
ag81
ag81
ag81
ag81
ag81
ag81
ag81
ag81
ag81
ag81
ag81
ag81
ag81
ag81
ag81
ag81
ag81
ag81
ag81
ag81
asg82
(lp1219
g175
ag405
ag88
ag86
ag93
ag85
ag89
ag93
ag178
ag88
ag174
ag405
ag88
ag94
ag89
ag288
ag177
ag86
ag93
ag92
ag175
ag85
ag88
ag89
ag87
ag88
ag94
ag89
ag97
asg98
VIt is all right, said kate, where the one is the other ought to be also, and she strewed the meal over the whole cellar.
p1220
sba(i__main__
Sentence
p1221
(dp1222
g17
I21
sg18
(lp1223
S'When'
p1224
aS'it'
p1225
aS'was'
p1226
aS'done'
p1227
aS'she'
p1228
aS'was'
p1229
aS'heartily'
p1230
aS'delighted'
p1231
aS'with'
p1232
aS'her'
p1233
aS'work'
p1234
aS','
p1235
aS'and'
p1236
aS'said'
p1237
aS','
p1238
aS'how'
p1239
aS'clean'
p1240
aS'and'
p1241
aS'wholesome'
p1242
aS'it'
p1243
aS'does'
p1244
aS'look'
p1245
aS'here'
p1246
aS'.'
p1247
asg51
(lp1248
VWhen
p1249
aVit
p1250
ag54
aVdo
p1251
aVshe
p1252
ag54
aVheartily
p1253
aVdelight
p1254
aVwith
p1255
aVher
p1256
aVwork
p1257
ag67
aVand
p1258
ag145
ag67
aVhow
p1259
aVclean
p1260
aVand
p1261
aVwholesome
p1262
aVit
p1263
aVdo
p1264
aVlook
p1265
aVhere
p1266
ag78
asg79
(lp1267
g81
ag81
ag81
ag81
ag81
ag81
ag81
ag81
ag81
ag81
ag81
ag81
ag81
ag81
ag81
ag81
ag81
ag81
ag81
ag81
ag81
ag81
ag81
ag81
asg82
(lp1268
g178
ag175
ag85
ag91
ag175
ag85
ag86
ag91
ag87
ag404
ag89
ag93
ag92
ag85
ag93
ag178
ag94
ag92
ag89
ag175
ag405
ag177
ag86
ag97
asg98
VWhen it was done she was heartily delighted with her work, and said, how clean and wholesome it does look here.
p1269
sba(i__main__
Sentence
p1270
(dp1271
g17
I22
sg18
(lp1272
S'At'
p1273
aS'mid-day'
p1274
aS'home'
p1275
aS'came'
p1276
aS'frederick'
p1277
aS','
p1278
aS'now'
p1279
aS','
p1280
aS'wife'
p1281
aS','
p1282
aS'what'
p1283
aS'have'
p1284
aS'you'
p1285
aS'ready'
p1286
aS'for'
p1287
aS'me'
p1288
aS'.'
p1289
asg51
(lp1290
VAt
p1291
aVmid-day
p1292
aVhome
p1293
aVcome
p1294
aVfrederick
p1295
ag67
aVnow
p1296
ag67
aVwife
p1297
ag67
aVwhat
p1298
aVhave
p1299
aVyou
p1300
aVready
p1301
aVfor
p1302
aVme
p1303
ag78
asg79
(lp1304
g81
ag81
ag81
ag81
ag81
ag81
ag81
ag81
ag81
ag81
ag81
ag81
ag81
ag81
ag81
ag81
ag81
asg82
(lp1305
g87
ag94
ag89
ag85
ag89
ag93
ag86
ag93
ag89
ag93
ag90
ag179
ag175
ag86
ag87
ag175
ag97
asg98
VAt mid-day home came frederick, now, wife, what have you ready for me.
p1306
sba(i__main__
Sentence
p1307
(dp1308
g17
I23
sg18
(lp1309
S'Ah'
p1310
aS','
p1311
aS'freddy'
p1312
aS','
p1313
aS'she'
p1314
aS'answered'
p1315
aS','
p1316
aS'I'
p1317
aS'was'
p1318
aS'frying'
p1319
aS'a'
p1320
aS'sausage'
p1321
aS'for'
p1322
aS'you'
p1323
aS','
p1324
aS'but'
p1325
aS'whilst'
p1326
aS'I'
p1327
aS'was'
p1328
aS'drawing'
p1329
aS'the'
p1330
aS'beer'
p1331
aS'to'
p1332
aS'drink'
p1333
aS'with'
p1334
aS'it'
p1335
aS','
p1336
aS'the'
p1337
aS'dog'
p1338
aS'took'
p1339
aS'it'
p1340
aS'away'
p1341
aS'out'
p1342
aS'of'
p1343
aS'the'
p1344
aS'pan'
p1345
aS','
p1346
aS'and'
p1347
aS'whilst'
p1348
aS'I'
p1349
aS'was'
p1350
aS'running'
p1351
aS'after'
p1352
aS'the'
p1353
aS'dog'
p1354
aS','
p1355
aS'all'
p1356
aS'the'
p1357
aS'beer'
p1358
aS'ran'
p1359
aS'out'
p1360
aS','
p1361
aS'and'
p1362
aS'whilst'
p1363
aS'I'
p1364
aS'was'
p1365
aS'drying'
p1366
aS'up'
p1367
aS'the'
p1368
aS'beer'
p1369
aS'with'
p1370
aS'the'
p1371
aS'flour'
p1372
aS','
p1373
aS'I'
p1374
aS'knocked'
p1375
aS'over'
p1376
aS'the'
p1377
aS'can'
p1378
aS'as'
p1379
aS'well'
p1380
aS','
p1381
aS'but'
p1382
aS'be'
p1383
aS'easy'
p1384
aS','
p1385
aS'the'
p1386
aS'cellar'
p1387
aS'is'
p1388
aS'quite'
p1389
aS'dry'
p1390
aS'again'
p1391
aS'.'
p1392
asg51
(lp1393
VAh
p1394
ag67
aVfreddy
p1395
ag67
aVshe
p1396
aVanswer
p1397
ag67
ag146
ag54
aVfry
p1398
ag57
aVsausage
p1399
aVfor
p1400
aVyou
p1401
ag67
aVbut
p1402
aVwhilst
p1403
ag146
ag54
aVdraw
p1404
aVthe
p1405
aVbeer
p1406
aVto
p1407
aVdrink
p1408
aVwith
p1409
aVit
p1410
ag67
aVthe
p1411
aVdog
p1412
ag444
aVit
p1413
aVaway
p1414
aVout
p1415
aVof
p1416
aVthe
p1417
aVpan
p1418
ag67
aVand
p1419
aVwhilst
p1420
ag146
ag54
ag804
aVafter
p1421
aVthe
p1422
aVdog
p1423
ag67
aVall
p1424
aVthe
p1425
aVbeer
p1426
ag484
aVout
p1427
ag67
aVand
p1428
aVwhilst
p1429
ag146
ag54
aVdry
p1430
aVup
p1431
aVthe
p1432
aVbeer
p1433
aVwith
p1434
aVthe
p1435
aVflour
p1436
ag67
ag146
aVknock
p1437
aVover
p1438
aVthe
p1439
aVcan
p1440
ag57
aVwell
p1441
ag67
aVbut
p1442
aVbe
p1443
aVeasy
p1444
ag67
aVthe
p1445
aVcellar
p1446
ag390
aVquite
p1447
aVdry
p1448
aVagain
p1449
ag78
asg79
(lp1450
g81
ag81
ag81
ag81
ag81
ag81
ag81
ag81
ag81
ag81
ag81
ag81
ag81
ag81
ag81
ag81
ag81
ag81
ag81
ag81
ag81
ag81
ag81
ag81
ag81
ag81
ag81
ag81
ag81
ag81
ag81
ag81
ag81
ag81
ag81
ag81
ag81
ag81
ag81
ag81
ag81
ag81
ag81
ag81
ag81
ag81
ag81
ag81
ag81
ag81
ag81
ag81
ag81
ag81
ag81
ag81
ag81
ag81
ag81
ag81
ag81
ag81
ag81
ag81
ag81
ag81
ag81
ag81
ag81
ag81
ag81
ag81
ag81
ag81
ag81
ag81
ag81
ag81
ag81
ag81
ag81
ag81
ag81
asg82
(lp1451
g556
ag93
ag89
ag93
ag175
ag85
ag93
ag175
ag85
ag354
ag88
ag89
ag87
ag175
ag93
ag92
ag86
ag175
ag85
ag354
ag88
ag89
ag288
ag177
ag87
ag175
ag93
ag88
ag89
ag85
ag175
ag86
ag87
ag87
ag88
ag89
ag93
ag92
ag177
ag175
ag85
ag354
ag87
ag88
ag89
ag93
ag88
ag88
ag89
ag85
ag87
ag93
ag92
ag177
ag175
ag85
ag354
ag95
ag88
ag89
ag87
ag88
ag89
ag93
ag175
ag85
ag95
ag88
ag89
ag87
ag86
ag93
ag92
ag177
ag94
ag93
ag88
ag94
ag405
ag86
ag94
ag86
ag97
asg98
VAh, freddy, she answered, I was frying a sausage for you, but whilst I was drawing the beer to drink with it, the dog took it away out of the pan, and whilst I was running after the dog, all the beer ran out, and whilst I was drying up the beer with the flour, I knocked over the can as well, but be easy, the cellar is quite dry again.
p1452
sba(i__main__
Sentence
p1453
(dp1454
g17
I24
sg18
(lp1455
S'Said'
p1456
aS'frederick'
p1457
aS','
p1458
aS'kate'
p1459
aS','
p1460
aS'kate'
p1461
aS','
p1462
aS'you'
p1463
aS'should'
p1464
aS'not'
p1465
aS'have'
p1466
aS'done'
p1467
aS'that'
p1468
aS','
p1469
aS'to'
p1470
aS'let'
p1471
aS'the'
p1472
aS'sausage'
p1473
aS'be'
p1474
aS'carried'
p1475
aS'off'
p1476
aS'and'
p1477
aS'the'
p1478
aS'beer'
p1479
aS'run'
p1480
aS'out'
p1481
aS'of'
p1482
aS'the'
p1483
aS'cask'
p1484
aS','
p1485
aS'and'
p1486
aS'throw'
p1487
aS'out'
p1488
aS'all'
p1489
aS'our'
p1490
aS'flour'
p1491
aS'into'
p1492
aS'the'
p1493
aS'bargain'
p1494
aS'.'
p1495
asg51
(lp1496
VSaid
p1497
aVfrederick
p1498
ag67
aVkate
p1499
ag67
aVkate
p1500
ag67
aVyou
p1501
aVshould
p1502
aVnot
p1503
aVhave
p1504
ag1251
aVthat
p1505
ag67
aVto
p1506
aVlet
p1507
aVthe
p1508
aVsausage
p1509
aVbe
p1510
ag1132
aVoff
p1511
aVand
p1512
aVthe
p1513
aVbeer
p1514
aVrun
p1515
aVout
p1516
aVof
p1517
aVthe
p1518
aVcask
p1519
ag67
aVand
p1520
aVthrow
p1521
aVout
p1522
aVall
p1523
aVour
p1524
aVflour
p1525
aVinto
p1526
aVthe
p1527
aVbargain
p1528
ag78
asg79
(lp1529
g81
ag81
ag81
ag81
ag81
ag81
ag81
ag81
ag81
ag81
ag81
ag81
ag81
ag81
ag81
ag81
ag81
ag81
ag81
ag81
ag81
ag81
ag81
ag81
ag81
ag81
ag81
ag81
ag81
ag81
ag81
ag81
ag81
ag81
ag81
ag81
ag81
ag81
ag81
ag81
asg82
(lp1530
g556
ag85
ag93
ag94
ag93
ag94
ag93
ag175
ag176
ag86
ag177
ag91
ag87
ag93
ag288
ag177
ag88
ag89
ag177
ag91
ag95
ag92
ag88
ag89
ag91
ag95
ag87
ag88
ag89
ag93
ag92
ag89
ag95
ag88
ag404
ag89
ag87
ag88
ag89
ag97
asg98
VSaid frederick, kate, kate, you should not have done that, to let the sausage be carried off and the beer run out of the cask, and throw out all our flour into the bargain.
p1531
sba(i__main__
Sentence
p1532
(dp1533
g17
I25
sg18
(lp1534
S'Well'
p1535
aS','
p1536
aS'frederick'
p1537
aS','
p1538
aS'I'
p1539
aS'did'
p1540
aS'not'
p1541
aS'know'
p1542
aS'that'
p1543
aS','
p1544
aS'you'
p1545
aS'should'
p1546
aS'have'
p1547
aS'told'
p1548
aS'me'
p1549
aS'.'
p1550
asg51
(lp1551
VWell
p1552
ag67
aVfrederick
p1553
ag67
ag146
ag695
aVnot
p1554
aVknow
p1555
aVthat
p1556
ag67
aVyou
p1557
aVshould
p1558
aVhave
p1559
aVtell
p1560
aVme
p1561
ag78
asg79
(lp1562
g81
ag81
ag81
ag81
ag81
ag81
ag81
ag81
ag81
ag81
ag81
ag81
ag81
ag81
ag81
ag81
asg82
(lp1563
g556
ag93
ag89
ag93
ag175
ag85
ag86
ag177
ag87
ag93
ag175
ag176
ag177
ag91
ag175
ag97
asg98
VWell, frederick, I did not know that, you should have told me.
p1564
sba(i__main__
Sentence
p1565
(dp1566
g17
I26
sg18
(lp1567
S'The'
p1568
aS'man'
p1569
aS'thought'
p1570
aS','
p1571
aS'if'
p1572
aS'this'
p1573
aS'is'
p1574
aS'the'
p1575
aS'kind'
p1576
aS'of'
p1577
aS'wife'
p1578
aS'I'
p1579
aS'have'
p1580
aS','
p1581
aS'I'
p1582
aS'had'
p1583
aS'better'
p1584
aS'take'
p1585
aS'more'
p1586
aS'care'
p1587
aS'of'
p1588
aS'things'
p1589
aS'.'
p1590
asg51
(lp1591
VThe
p1592
aVman
p1593
ag495
ag67
aVif
p1594
aVthis
p1595
ag390
aVthe
p1596
aVkind
p1597
aVof
p1598
aVwife
p1599
ag146
aVhave
p1600
ag67
ag146
ag69
aVwell
p1601
aVtake
p1602
aVmore
p1603
aVcare
p1604
aVof
p1605
aVthing
p1606
ag78
asg79
(lp1607
g81
ag81
ag81
ag81
ag81
ag81
ag81
ag81
ag81
ag81
ag81
ag81
ag81
ag81
ag81
ag81
ag81
ag81
ag81
ag81
ag81
ag81
ag81
asg82
(lp1608
g88
ag89
ag85
ag93
ag87
ag88
ag405
ag88
ag89
ag87
ag89
ag175
ag179
ag93
ag175
ag85
aS'RBR'
p1609
ag177
ag1609
ag94
ag87
ag96
ag97
asg98
VThe man thought, if this is the kind of wife I have, I had better take more care of things.
p1610
sba(i__main__
Sentence
p1611
(dp1612
g17
I27
sg18
(lp1613
S'Now'
p1614
aS'he'
p1615
aS'had'
p1616
aS'saved'
p1617
aS'up'
p1618
aS'a'
p1619
aS'good'
p1620
aS'number'
p1621
aS'of'
p1622
aS'talers'
p1623
aS'which'
p1624
aS'he'
p1625
aS'changed'
p1626
aS'into'
p1627
aS'gold'
p1628
aS','
p1629
aS'and'
p1630
aS'said'
p1631
aS'to'
p1632
aS'catherine'
p1633
aS','
p1634
aS'look'
p1635
aS','
p1636
aS'these'
p1637
aS'are'
p1638
aS'yellow'
p1639
aS'counters'
p1640
aS'for'
p1641
aS'playing'
p1642
aS'games'
p1643
aS','
p1644
aS'I'
p1645
aS'will'
p1646
aS'put'
p1647
aS'them'
p1648
aS'in'
p1649
aS'a'
p1650
aS'pot'
p1651
aS'and'
p1652
aS'bury'
p1653
aS'them'
p1654
aS'in'
p1655
aS'the'
p1656
aS'stable'
p1657
aS'under'
p1658
aS'the'
p1659
aS'cow'
p1660
aS"'s"
p1661
aS'manger'
p1662
aS','
p1663
aS'but'
p1664
aS'mind'
p1665
aS'you'
p1666
aS'keep'
p1667
aS'away'
p1668
aS'from'
p1669
aS'them'
p1670
aS','
p1671
aS'or'
p1672
aS'it'
p1673
aS'will'
p1674
aS'be'
p1675
aS'the'
p1676
aS'worse'
p1677
aS'for'
p1678
aS'you'
p1679
aS'.'
p1680
asg51
(lp1681
VNow
p1682
aVhe
p1683
ag69
aVsave
p1684
aVup
p1685
ag57
aVgood
p1686
aVnumber
p1687
aVof
p1688
aVtalers
p1689
aVwhich
p1690
aVhe
p1691
aVchange
p1692
aVinto
p1693
aVgold
p1694
ag67
aVand
p1695
ag145
aVto
p1696
aVcatherine
p1697
ag67
aVlook
p1698
ag67
aVthese
p1699
aVbe
p1700
aVyellow
p1701
aVcounter
p1702
aVfor
p1703
aVplaying
p1704
aVgame
p1705
ag67
ag146
aVwill
p1706
aVput
p1707
aVthem
p1708
aVin
p1709
ag57
aVpot
p1710
aVand
p1711
aVbury
p1712
aVthem
p1713
aVin
p1714
aVthe
p1715
aVstable
p1716
aVunder
p1717
aVthe
p1718
aVcow
p1719
aV's
p1720
aVmanger
p1721
ag67
aVbut
p1722
aVmind
p1723
aVyou
p1724
aVkeep
p1725
aVaway
p1726
aVfrom
p1727
aVthem
p1728
ag67
aVor
p1729
aVit
p1730
aVwill
p1731
aVbe
p1732
aVthe
p1733
aVworse
p1734
aVfor
p1735
aVyou
p1736
ag78
asg79
(lp1737
g81
ag81
ag81
ag81
ag81
ag81
ag81
ag81
ag81
ag81
ag81
ag81
ag81
ag81
ag81
ag81
ag81
ag81
ag81
ag81
ag81
ag81
ag81
ag81
ag81
ag81
ag81
ag81
ag81
ag81
ag81
ag81
ag81
ag81
ag81
ag81
ag81
ag81
ag81
ag81
ag81
ag81
ag81
ag81
ag81
ag81
ag81
ag81
ag81
ag81
ag81
ag81
ag81
ag81
ag81
ag81
ag81
ag81
ag81
ag81
ag81
ag81
ag81
ag81
ag81
ag81
ag81
asg82
(lp1738
g86
ag175
ag85
ag91
ag95
ag88
ag94
ag89
ag87
ag96
ag1161
ag175
ag85
ag87
ag89
ag93
ag92
ag85
ag288
ag89
ag93
ag89
ag93
ag88
ag179
ag94
ag96
ag87
ag89
ag96
ag93
ag175
ag176
ag177
ag175
ag87
ag88
ag89
ag92
ag89
ag175
ag87
ag88
ag89
ag87
ag88
ag89
aS'POS'
p1739
ag89
ag93
ag92
ag87
ag175
ag177
ag95
ag87
ag175
ag93
ag92
ag175
ag176
ag177
ag88
ag89
ag87
ag175
ag97
asg98
VNow he had saved up a good number of talers which he changed into gold, and said to catherine, look, these are yellow counters for playing games, I will put them in a pot and bury them in the stable under the cow's manger, but mind you keep away from them, or it will be the worse for you.
p1740
sba(i__main__
Sentence
p1741
(dp1742
g17
I28
sg18
(lp1743
S'Said'
p1744
aS'she'
p1745
aS','
p1746
aS'oh'
p1747
aS','
p1748
aS'no'
p1749
aS','
p1750
aS'frederick'
p1751
aS','
p1752
aS'I'
p1753
aS'certainly'
p1754
aS'will'
p1755
aS'not'
p1756
aS'go'
p1757
aS'near'
p1758
aS'them'
p1759
aS'.'
p1760
asg51
(lp1761
VSaid
p1762
aVshe
p1763
ag67
aVoh
p1764
ag67
aVno
p1765
ag67
aVfrederick
p1766
ag67
ag146
aVcertainly
p1767
aVwill
p1768
aVnot
p1769
aVgo
p1770
aVnear
p1771
aVthem
p1772
ag78
asg79
(lp1773
g81
ag81
ag81
ag81
ag81
ag81
ag81
ag81
ag81
ag81
ag81
ag81
ag81
ag81
ag81
ag81
ag81
asg82
(lp1774
g556
ag175
ag93
ag94
ag93
ag88
ag93
ag179
ag93
ag175
ag86
ag176
ag86
ag177
ag87
ag175
ag97
asg98
VSaid she, oh, no, frederick, I certainly will not go near them.
p1775
sba(i__main__
Sentence
p1776
(dp1777
g17
I29
sg18
(lp1778
S'And'
p1779
aS'when'
p1780
aS'frederick'
p1781
aS'was'
p1782
aS'gone'
p1783
aS'some'
p1784
aS'pedlars'
p1785
aS'came'
p1786
aS'into'
p1787
aS'the'
p1788
aS'village'
p1789
aS'who'
p1790
aS'had'
p1791
aS'cheap'
p1792
aS'earthen'
p1793
aS'bowls'
p1794
aS'and'
p1795
aS'pots'
p1796
aS','
p1797
aS'and'
p1798
aS'asked'
p1799
aS'the'
p1800
aS'young'
p1801
aS'woman'
p1802
aS'if'
p1803
aS'there'
p1804
aS'was'
p1805
aS'nothing'
p1806
aS'she'
p1807
aS'wanted'
p1808
aS'to'
p1809
aS'bargain'
p1810
aS'with'
p1811
aS'them'
p1812
aS'for'
p1813
aS'.'
p1814
asg51
(lp1815
VAnd
p1816
aVwhen
p1817
aVfrederick
p1818
ag54
ag751
aVsome
p1819
aVpedlar
p1820
ag1294
aVinto
p1821
aVthe
p1822
aVvillage
p1823
aVwho
p1824
ag69
aVcheap
p1825
aVearthen
p1826
aVbowl
p1827
aVand
p1828
aVpot
p1829
ag67
aVand
p1830
aVask
p1831
aVthe
p1832
aVyoung
p1833
aVwoman
p1834
aVif
p1835
aVthere
p1836
ag54
aVnothing
p1837
aVshe
p1838
aVwant
p1839
aVto
p1840
aVbargain
p1841
aVwith
p1842
aVthem
p1843
aVfor
p1844
ag78
asg79
(lp1845
g81
ag81
ag81
ag81
ag81
ag81
ag81
ag81
ag81
ag81
ag81
ag81
ag81
ag81
ag81
ag81
ag81
ag81
ag81
ag81
ag81
ag81
ag81
ag81
ag81
ag81
ag81
ag81
ag81
ag81
ag81
ag81
ag81
ag81
ag81
ag81
asg82
(lp1846
g92
ag178
ag89
ag85
ag91
ag88
ag96
ag85
ag87
ag88
ag89
ag90
ag85
ag179
ag91
ag96
ag92
ag96
ag93
ag92
ag85
ag88
ag94
ag89
ag87
ag84
ag85
ag89
ag175
ag85
ag288
ag177
ag87
ag175
ag87
ag97
asg98
VAnd when frederick was gone some pedlars came into the village who had cheap earthen bowls and pots, and asked the young woman if there was nothing she wanted to bargain with them for.
p1847
sba(i__main__
Sentence
p1848
(dp1849
g17
I30
sg18
(lp1850
S'Oh'
p1851
aS','
p1852
aS'dear'
p1853
aS'people'
p1854
aS','
p1855
aS'said'
p1856
aS'catherine'
p1857
aS','
p1858
aS'I'
p1859
aS'have'
p1860
aS'no'
p1861
aS'money'
p1862
aS'and'
p1863
aS'can'
p1864
aS'buy'
p1865
aS'nothing'
p1866
aS','
p1867
aS'but'
p1868
aS'if'
p1869
aS'you'
p1870
aS'have'
p1871
aS'any'
p1872
aS'use'
p1873
aS'for'
p1874
aS'yellow'
p1875
aS'counters'
p1876
aS'I'
p1877
aS'will'
p1878
aS'buy'
p1879
aS'of'
p1880
aS'you'
p1881
aS'.'
p1882
asg51
(lp1883
VOh
p1884
ag67
aVdear
p1885
aVpeople
p1886
ag67
ag145
aVcatherine
p1887
ag67
ag146
aVhave
p1888
aVno
p1889
aVmoney
p1890
aVand
p1891
aVcan
p1892
aVbuy
p1893
aVnothing
p1894
ag67
aVbut
p1895
aVif
p1896
aVyou
p1897
aVhave
p1898
aVany
p1899
aVuse
p1900
aVfor
p1901
aVyellow
p1902
aVcounter
p1903
ag146
aVwill
p1904
aVbuy
p1905
aVof
p1906
aVyou
p1907
ag78
asg79
(lp1908
g81
ag81
ag81
ag81
ag81
ag81
ag81
ag81
ag81
ag81
ag81
ag81
ag81
ag81
ag81
ag81
ag81
ag81
ag81
ag81
ag81
ag81
ag81
ag81
ag81
ag81
ag81
ag81
ag81
ag81
ag81
ag81
asg82
(lp1909
S'UH'
p1910
ag93
ag94
ag96
ag93
ag85
ag89
ag93
ag175
ag179
ag88
ag89
ag92
ag176
ag177
ag89
ag93
ag92
ag87
ag175
ag179
ag88
ag89
ag87
ag89
ag96
ag175
ag176
ag177
ag87
ag175
ag97
asg98
VOh, dear people, said catherine, I have no money and can buy nothing, but if you have any use for yellow counters I will buy of you.
p1911
sba(i__main__
Sentence
p1912
(dp1913
g17
I31
sg18
(lp1914
S'Yellow'
p1915
aS'counters'
p1916
aS','
p1917
aS'why'
p1918
aS'not'
p1919
aS'.'
p1920
asg51
(lp1921
VYellow
p1922
aVcounter
p1923
ag67
aVwhy
p1924
aVnot
p1925
ag78
asg79
(lp1926
g81
ag81
ag81
ag81
ag81
ag81
asg82
(lp1927
g556
ag96
ag93
ag178
ag86
ag97
asg98
VYellow counters, why not.
p1928
sba(i__main__
Sentence
p1929
(dp1930
g17
I32
sg18
(lp1931
S'But'
p1932
aS'just'
p1933
aS'let'
p1934
aS'us'
p1935
aS'see'
p1936
aS'them'
p1937
aS'.'
p1938
asg51
(lp1939
VBut
p1940
aVjust
p1941
aVlet
p1942
aVu
p1943
aVsee
p1944
aVthem
p1945
ag78
asg79
(lp1946
g81
ag81
ag81
ag81
ag81
ag81
ag81
asg82
(lp1947
g92
ag86
ag179
ag175
ag179
ag175
ag97
asg98
VBut just let us see them.
p1948
sba(i__main__
Sentence
p1949
(dp1950
g17
I33
sg18
(lp1951
S'Then'
p1952
aS'go'
p1953
aS'into'
p1954
aS'the'
p1955
aS'stable'
p1956
aS'and'
p1957
aS'dig'
p1958
aS'under'
p1959
aS'the'
p1960
aS'cow'
p1961
aS"'s"
p1962
aS'manger'
p1963
aS','
p1964
aS'and'
p1965
aS'you'
p1966
aS'will'
p1967
aS'find'
p1968
aS'the'
p1969
aS'yellow'
p1970
aS'counters'
p1971
aS'.'
p1972
asg51
(lp1973
VThen
p1974
aVgo
p1975
aVinto
p1976
aVthe
p1977
aVstable
p1978
aVand
p1979
aVdig
p1980
aVunder
p1981
aVthe
p1982
aVcow
p1983
aV's
p1984
aVmanger
p1985
ag67
aVand
p1986
aVyou
p1987
aVwill
p1988
aVfind
p1989
aVthe
p1990
aVyellow
p1991
aVcounter
p1992
ag78
asg79
(lp1993
g81
ag81
ag81
ag81
ag81
ag81
ag81
ag81
ag81
ag81
ag81
ag81
ag81
ag81
ag81
ag81
ag81
ag81
ag81
ag81
ag81
asg82
(lp1994
g86
ag179
ag87
ag88
ag94
ag92
ag94
ag87
ag88
ag89
ag1739
ag89
ag93
ag92
ag175
ag176
ag177
ag88
ag94
ag96
ag97
asg98
VThen go into the stable and dig under the cow's manger, and you will find the yellow counters.
p1995
sba(i__main__
Sentence
p1996
(dp1997
g17
I34
sg18
(lp1998
S'I'
p1999
aS'am'
p2000
aS'not'
p2001
aS'allowed'
p2002
aS'to'
p2003
aS'go'
p2004
aS'there'
p2005
aS'.'
p2006
asg51
(lp2007
g146
aVbe
p2008
aVnot
p2009
aVallow
p2010
aVto
p2011
aVgo
p2012
aVthere
p2013
ag78
asg79
(lp2014
g81
ag81
ag81
ag81
ag81
ag81
ag81
ag81
asg82
(lp2015
g175
ag179
ag86
ag91
ag288
ag177
ag86
ag97
asg98
VI am not allowed to go there.
p2016
sba(i__main__
Sentence
p2017
(dp2018
g17
I35
sg18
(lp2019
S'The'
p2020
aS'rogues'
p2021
aS'went'
p2022
aS'thither'
p2023
aS','
p2024
aS'dug'
p2025
aS'and'
p2026
aS'found'
p2027
aS'pure'
p2028
aS'gold'
p2029
aS'.'
p2030
asg51
(lp2031
VThe
p2032
aVrogue
p2033
ag447
aVthither
p2034
ag67
aVdug
p2035
aVand
p2036
aVfind
p2037
aVpure
p2038
aVgold
p2039
ag78
asg79
(lp2040
g81
ag81
ag81
ag81
ag81
ag81
ag81
ag81
ag81
ag81
ag81
asg82
(lp2041
g88
ag96
ag85
ag86
ag93
ag89
ag92
ag85
ag89
ag89
ag97
asg98
VThe rogues went thither, dug and found pure gold.
p2042
sba(i__main__
Sentence
p2043
(dp2044
g17
I36
sg18
(lp2045
S'Then'
p2046
aS'they'
p2047
aS'laid'
p2048
aS'hold'
p2049
aS'of'
p2050
aS'it'
p2051
aS','
p2052
aS'ran'
p2053
aS'away'
p2054
aS','
p2055
aS'and'
p2056
aS'left'
p2057
aS'their'
p2058
aS'pots'
p2059
aS'and'
p2060
aS'bowls'
p2061
aS'behind'
p2062
aS'in'
p2063
aS'the'
p2064
aS'house'
p2065
aS'.'
p2066
asg51
(lp2067
VThen
p2068
aVthey
p2069
aVlay
p2070
aVhold
p2071
aVof
p2072
aVit
p2073
ag67
ag484
aVaway
p2074
ag67
aVand
p2075
aVleave
p2076
aVtheir
p2077
aVpot
p2078
aVand
p2079
aVbowl
p2080
aVbehind
p2081
aVin
p2082
aVthe
p2083
aVhouse
p2084
ag78
asg79
(lp2085
g81
ag81
ag81
ag81
ag81
ag81
ag81
ag81
ag81
ag81
ag81
ag81
ag81
ag81
ag81
ag81
ag81
ag81
ag81
ag81
ag81
asg82
(lp2086
g86
ag175
ag85
ag94
ag87
ag175
ag93
ag85
ag86
ag93
ag92
ag85
ag404
ag96
ag92
ag96
ag87
ag87
ag88
ag89
ag97
asg98
VThen they laid hold of it, ran away, and left their pots and bowls behind in the house.
p2087
sba(i__main__
Sentence
p2088
(dp2089
g17
I37
sg18
(lp2090
S'Catherine'
p2091
aS'though'
p2092
aS'she'
p2093
aS'must'
p2094
aS'use'
p2095
aS'her'
p2096
aS'new'
p2097
aS'things'
p2098
aS','
p2099
aS'and'
p2100
aS'as'
p2101
aS'she'
p2102
aS'had'
p2103
aS'no'
p2104
aS'lack'
p2105
aS'in'
p2106
aS'the'
p2107
aS'kitchen'
p2108
aS'already'
p2109
aS'without'
p2110
aS'these'
p2111
aS','
p2112
aS'she'
p2113
aS'knocked'
p2114
aS'the'
p2115
aS'bottom'
p2116
aS'out'
p2117
aS'of'
p2118
aS'every'
p2119
aS'pot'
p2120
aS','
p2121
aS'and'
p2122
aS'set'
p2123
aS'them'
p2124
aS'all'
p2125
aS'as'
p2126
aS'ornaments'
p2127
aS'on'
p2128
aS'the'
p2129
aS'paling'
p2130
aS'which'
p2131
aS'went'
p2132
aS'round'
p2133
aS'about'
p2134
aS'the'
p2135
aS'house'
p2136
aS'.'
p2137
asg51
(lp2138
VCatherine
p2139
aVthough
p2140
aVshe
p2141
aVmust
p2142
aVuse
p2143
aVher
p2144
aVnew
p2145
aVthing
p2146
ag67
aVand
p2147
ag57
aVshe
p2148
ag69
aVno
p2149
aVlack
p2150
aVin
p2151
aVthe
p2152
aVkitchen
p2153
aValready
p2154
aVwithout
p2155
aVthese
p2156
ag67
aVshe
p2157
aVknock
p2158
aVthe
p2159
aVbottom
p2160
aVout
p2161
aVof
p2162
aVevery
p2163
aVpot
p2164
ag67
aVand
p2165
aVset
p2166
aVthem
p2167
aVall
p2168
ag57
aVornament
p2169
aVon
p2170
aVthe
p2171
aVpaling
p2172
aVwhich
p2173
aVwent
p2174
aVround
p2175
aVabout
p2176
aVthe
p2177
aVhouse
p2178
ag78
asg79
(lp2179
VPERSON
p2180
ag81
ag81
ag81
ag81
ag81
ag81
ag81
ag81
ag81
ag81
ag81
ag81
ag81
ag81
ag81
ag81
ag81
ag81
ag81
ag81
ag81
ag81
ag81
ag81
ag81
ag81
ag81
ag81
ag81
ag81
ag81
ag81
ag81
ag81
ag81
ag81
ag81
ag81
ag81
ag81
ag81
ag81
ag81
ag81
ag81
ag81
asg82
(lp2181
g556
ag87
ag175
ag176
ag177
ag175
ag94
ag96
ag93
ag92
ag87
ag175
ag85
ag88
ag89
ag87
ag88
ag89
ag86
ag87
ag88
ag93
ag175
ag85
ag88
ag89
ag87
ag87
ag88
ag89
ag93
ag92
ag85
ag175
ag88
ag87
ag96
ag87
ag88
ag89
ag1161
ag89
ag85
ag87
ag88
ag89
ag97
asg98
VCatherine though she must use her new things, and as she had no lack in the kitchen already without these, she knocked the bottom out of every pot, and set them all as ornaments on the paling which went round about the house.
p2182
sba(i__main__
Sentence
p2183
(dp2184
g17
I38
sg18
(lp2185
S'When'
p2186
aS'frederick'
p2187
aS'came'
p2188
aS'and'
p2189
aS'saw'
p2190
aS'the'
p2191
aS'new'
p2192
aS'decorations'
p2193
aS','
p2194
aS'he'
p2195
aS'said'
p2196
aS','
p2197
aS'catherine'
p2198
aS','
p2199
aS'what'
p2200
aS'have'
p2201
aS'you'
p2202
aS'been'
p2203
aS'about'
p2204
aS'.'
p2205
asg51
(lp2206
VWhen
p2207
aVfrederick
p2208
ag1294
aVand
p2209
aVsaw
p2210
aVthe
p2211
aVnew
p2212
aVdecoration
p2213
ag67
aVhe
p2214
ag145
ag67
aVcatherine
p2215
ag67
aVwhat
p2216
aVhave
p2217
aVyou
p2218
aVbe
p2219
aVabout
p2220
ag78
asg79
(lp2221
g81
ag81
ag81
ag81
ag81
ag81
ag81
ag81
ag81
ag81
ag81
ag81
ag81
ag81
ag81
ag81
ag81
ag81
ag81
ag81
asg82
(lp2222
g178
ag89
ag85
ag92
ag85
ag88
ag94
ag96
ag93
ag175
ag85
ag93
ag89
ag93
ag90
ag179
ag175
ag91
ag87
ag97
asg98
VWhen frederick came and saw the new decorations, he said, catherine, what have you been about.
p2223
sba(i__main__
Sentence
p2224
(dp2225
g17
I39
sg18
(lp2226
S'I'
p2227
aS'have'
p2228
aS'bought'
p2229
aS'them'
p2230
aS','
p2231
aS'frederick'
p2232
aS','
p2233
aS'for'
p2234
aS'the'
p2235
aS'counters'
p2236
aS'which'
p2237
aS'were'
p2238
aS'under'
p2239
aS'the'
p2240
aS'cow'
p2241
aS"'s"
p2242
aS'manger'
p2243
aS'.'
p2244
asg51
(lp2245
g146
aVhave
p2246
aVbuy
p2247
aVthem
p2248
ag67
aVfrederick
p2249
ag67
aVfor
p2250
aVthe
p2251
aVcounter
p2252
aVwhich
p2253
aVbe
p2254
aVunder
p2255
aVthe
p2256
aVcow
p2257
aV's
p2258
aVmanger
p2259
ag78
asg79
(lp2260
g81
ag81
ag81
ag81
ag81
ag81
ag81
ag81
ag81
ag81
ag81
ag81
ag81
ag81
ag81
ag81
ag81
ag81
asg82
(lp2261
g175
ag179
ag91
ag175
ag93
ag179
ag93
ag87
ag88
ag96
ag1161
ag85
ag87
ag88
ag89
ag1739
ag89
ag97
asg98
VI have bought them, frederick, for the counters which were under the cow's manger.
p2262
sba(i__main__
Sentence
p2263
(dp2264
g17
I40
sg18
(lp2265
S'I'
p2266
aS'did'
p2267
aS'not'
p2268
aS'go'
p2269
aS'there'
p2270
aS'myself'
p2271
aS','
p2272
aS'the'
p2273
aS'pedlars'
p2274
aS'had'
p2275
aS'to'
p2276
aS'dig'
p2277
aS'them'
p2278
aS'out'
p2279
aS'for'
p2280
aS'themselves'
p2281
aS'.'
p2282
asg51
(lp2283
g146
ag695
aVnot
p2284
aVgo
p2285
aVthere
p2286
aVmyself
p2287
ag67
aVthe
p2288
aVpedlar
p2289
ag69
aVto
p2290
aVdig
p2291
aVthem
p2292
aVout
p2293
aVfor
p2294
aVthemselves
p2295
ag78
asg79
(lp2296
g81
ag81
ag81
ag81
ag81
ag81
ag81
ag81
ag81
ag81
ag81
ag81
ag81
ag81
ag81
ag81
ag81
asg82
(lp2297
g175
ag85
ag86
ag177
ag86
ag175
ag93
ag88
ag96
ag85
ag288
ag177
ag175
ag95
ag87
ag175
ag97
asg98
VI did not go there myself, the pedlars had to dig them out for themselves.
p2298
sba(i__main__
Sentence
p2299
(dp2300
g17
I41
sg18
(lp2301
S'Ah'
p2302
aS','
p2303
aS'wife'
p2304
aS','
p2305
aS'said'
p2306
aS'frederick'
p2307
aS','
p2308
aS'what'
p2309
aS'have'
p2310
aS'you'
p2311
aS'done'
p2312
aS'.'
p2313
asg51
(lp2314
VAh
p2315
ag67
aVwife
p2316
ag67
ag145
aVfrederick
p2317
ag67
aVwhat
p2318
aVhave
p2319
aVyou
p2320
ag1251
ag78
asg79
(lp2321
g81
ag81
ag81
ag81
ag81
ag81
ag81
ag81
ag81
ag81
ag81
ag81
asg82
(lp2322
g556
ag93
ag89
ag93
ag85
ag89
ag93
ag90
ag179
ag175
ag91
ag97
asg98
VAh, wife, said frederick, what have you done.
p2323
sba(i__main__
Sentence
p2324
(dp2325
g17
I42
sg18
(lp2326
S'Those'
p2327
aS'were'
p2328
aS'not'
p2329
aS'counters'
p2330
aS','
p2331
aS'but'
p2332
aS'pure'
p2333
aS'gold'
p2334
aS','
p2335
aS'and'
p2336
aS'all'
p2337
aS'our'
p2338
aS'wealth'
p2339
aS','
p2340
aS'you'
p2341
aS'should'
p2342
aS'not'
p2343
aS'have'
p2344
aS'done'
p2345
aS'that'
p2346
aS'.'
p2347
asg51
(lp2348
VThose
p2349
ag2254
aVnot
p2350
aVcounter
p2351
ag67
aVbut
p2352
aVpure
p2353
aVgold
p2354
ag67
aVand
p2355
aVall
p2356
aVour
p2357
aVwealth
p2358
ag67
aVyou
p2359
aVshould
p2360
aVnot
p2361
aVhave
p2362
ag1251
aVthat
p2363
ag78
asg79
(lp2364
g81
ag81
ag81
ag81
ag81
ag81
ag81
ag81
ag81
ag81
ag81
ag81
ag81
ag81
ag81
ag81
ag81
ag81
ag81
ag81
ag81
asg82
(lp2365
g88
ag85
ag86
ag96
ag93
ag92
ag89
ag89
ag93
ag92
ag88
ag404
ag89
ag93
ag175
ag176
ag86
ag177
ag91
ag87
ag97
asg98
VThose were not counters, but pure gold, and all our wealth, you should not have done that.
p2366
sba(i__main__
Sentence
p2367
(dp2368
g17
I43
sg18
(lp2369
S'Indeed'
p2370
aS','
p2371
aS'frederick'
p2372
aS','
p2373
aS'said'
p2374
aS'she'
p2375
aS','
p2376
aS'I'
p2377
aS'did'
p2378
aS'not'
p2379
aS'know'
p2380
aS'that'
p2381
aS','
p2382
aS'you'
p2383
aS'should'
p2384
aS'have'
p2385
aS'forewarned'
p2386
aS'me'
p2387
aS'.'
p2388
asg51
(lp2389
VIndeed
p2390
ag67
aVfrederick
p2391
ag67
ag145
aVshe
p2392
ag67
ag146
ag695
aVnot
p2393
aVknow
p2394
aVthat
p2395
ag67
aVyou
p2396
aVshould
p2397
aVhave
p2398
aVforewarn
p2399
aVme
p2400
ag78
asg79
(lp2401
g81
ag81
ag81
ag81
ag81
ag81
ag81
ag81
ag81
ag81
ag81
ag81
ag81
ag81
ag81
ag81
ag81
ag81
ag81
asg82
(lp2402
g86
ag93
ag89
ag93
ag85
ag175
ag93
ag175
ag85
ag86
ag177
ag87
ag93
ag175
ag176
ag177
ag91
ag175
ag97
asg98
VIndeed, frederick, said she, I did not know that, you should have forewarned me.
p2403
sba(i__main__
Sentence
p2404
(dp2405
g17
I44
sg18
(lp2406
S'Catherine'
p2407
aS'stood'
p2408
aS'for'
p2409
aS'a'
p2410
aS'while'
p2411
aS'and'
p2412
aS'wondered'
p2413
aS','
p2414
aS'then'
p2415
aS'she'
p2416
aS'said'
p2417
aS','
p2418
aS'listen'
p2419
aS','
p2420
aS'frederick'
p2421
aS','
p2422
aS'we'
p2423
aS'will'
p2424
aS'soon'
p2425
aS'get'
p2426
aS'the'
p2427
aS'gold'
p2428
aS'back'
p2429
aS'again'
p2430
aS','
p2431
aS'we'
p2432
aS'will'
p2433
aS'run'
p2434
aS'after'
p2435
aS'the'
p2436
aS'thieves'
p2437
aS'.'
p2438
asg51
(lp2439
VCatherine
p2440
ag335
aVfor
p2441
ag57
aVwhile
p2442
aVand
p2443
aVwonder
p2444
ag67
aVthen
p2445
aVshe
p2446
ag145
ag67
aVlisten
p2447
ag67
aVfrederick
p2448
ag67
aVwe
p2449
aVwill
p2450
aVsoon
p2451
aVget
p2452
aVthe
p2453
aVgold
p2454
aVback
p2455
aVagain
p2456
ag67
aVwe
p2457
aVwill
p2458
aVrun
p2459
aVafter
p2460
aVthe
p2461
aVthief
p2462
ag78
asg79
(lp2463
VPERSON
p2464
ag81
ag81
ag81
ag81
ag81
ag81
ag81
ag81
ag81
ag81
ag81
ag81
ag81
ag81
ag81
ag81
ag81
ag81
ag81
ag81
ag81
ag81
ag81
ag81
ag81
ag81
ag81
ag81
ag81
ag81
ag81
asg82
(lp2465
g556
ag85
ag87
ag88
ag89
ag92
ag85
ag93
ag86
ag175
ag85
ag93
ag91
ag93
ag89
ag93
ag175
ag176
ag86
ag177
ag88
ag89
ag86
ag86
ag93
ag175
ag176
ag177
ag87
ag88
ag96
ag97
asg98
VCatherine stood for a while and wondered, then she said, listen, frederick, we will soon get the gold back again, we will run after the thieves.
p2466
sba(i__main__
Sentence
p2467
(dp2468
g17
I45
sg18
(lp2469
S'Come'
p2470
aS','
p2471
aS'then'
p2472
aS','
p2473
aS'said'
p2474
aS'frederick'
p2475
aS','
p2476
aS'we'
p2477
aS'will'
p2478
aS'try'
p2479
aS'it'
p2480
aS','
p2481
aS'but'
p2482
aS'take'
p2483
aS'with'
p2484
aS'you'
p2485
aS'some'
p2486
aS'butter'
p2487
aS'and'
p2488
aS'cheese'
p2489
aS'that'
p2490
aS'we'
p2491
aS'may'
p2492
aS'have'
p2493
aS'something'
p2494
aS'to'
p2495
aS'eat'
p2496
aS'on'
p2497
aS'the'
p2498
aS'way'
p2499
aS'.'
p2500
asg51
(lp2501
VCome
p2502
ag67
aVthen
p2503
ag67
ag145
aVfrederick
p2504
ag67
aVwe
p2505
aVwill
p2506
aVtry
p2507
aVit
p2508
ag67
aVbut
p2509
aVtake
p2510
aVwith
p2511
aVyou
p2512
aVsome
p2513
aVbutter
p2514
aVand
p2515
aVcheese
p2516
aVthat
p2517
aVwe
p2518
aVmay
p2519
aVhave
p2520
aVsomething
p2521
aVto
p2522
aVeat
p2523
aVon
p2524
aVthe
p2525
aVway
p2526
ag78
asg79
(lp2527
g81
ag81
ag81
ag81
ag81
ag81
ag81
ag81
ag81
ag81
ag81
ag81
ag81
ag81
ag81
ag81
ag81
ag81
ag81
ag81
ag81
ag81
ag81
ag81
ag81
ag81
ag81
ag81
ag81
ag81
ag81
asg82
(lp2528
g556
ag93
ag86
ag93
ag85
ag89
ag93
ag175
ag176
ag177
ag175
ag93
ag92
ag177
ag87
ag175
ag88
ag89
ag92
ag94
ag87
ag175
ag176
ag177
ag89
ag288
ag177
ag87
ag88
ag89
ag97
asg98
VCome, then, said frederick, we will try it, but take with you some butter and cheese that we may have something to eat on the way.
p2529
sba(i__main__
Sentence
p2530
(dp2531
g17
I46
sg18
(lp2532
S'Yes'
p2533
aS','
p2534
aS'frederick'
p2535
aS','
p2536
aS'I'
p2537
aS'will'
p2538
aS'take'
p2539
aS'them'
p2540
aS'.'
p2541
asg51
(lp2542
VYes
p2543
ag67
aVfrederick
p2544
ag67
ag146
aVwill
p2545
aVtake
p2546
aVthem
p2547
ag78
asg79
(lp2548
g81
ag81
ag81
ag81
ag81
ag81
ag81
ag81
ag81
asg82
(lp2549
g96
ag93
ag179
ag93
ag175
ag176
ag177
ag175
ag97
asg98
VYes, frederick, I will take them.
p2550
sba(i__main__
Sentence
p2551
(dp2552
g17
I47
sg18
(lp2553
S'They'
p2554
aS'set'
p2555
aS'out'
p2556
aS','
p2557
aS'and'
p2558
aS'as'
p2559
aS'frederick'
p2560
aS'was'
p2561
aS'the'
p2562
aS'better'
p2563
aS'walker'
p2564
aS','
p2565
aS'catherine'
p2566
aS'followed'
p2567
aS'him'
p2568
aS'.'
p2569
asg51
(lp2570
VThey
p2571
aVset
p2572
aVout
p2573
ag67
aVand
p2574
ag57
aVfrederick
p2575
ag54
aVthe
p2576
aVgood
p2577
aVwalker
p2578
ag67
aVcatherine
p2579
aVfollow
p2580
aVhim
p2581
ag78
asg79
(lp2582
g81
ag81
ag81
ag81
ag81
ag81
ag81
ag81
ag81
ag81
ag81
ag81
ag81
ag81
ag81
ag81
asg82
(lp2583
g175
ag85
ag95
ag93
ag92
ag87
ag89
ag85
ag88
aS'JJR'
p2584
ag89
ag93
ag89
ag85
ag175
ag97
asg98
VThey set out, and as frederick was the better walker, catherine followed him.
p2585
sba(i__main__
Sentence
p2586
(dp2587
g17
I48
sg18
(lp2588
S'It'
p2589
aS'is'
p2590
aS'to'
p2591
aS'my'
p2592
aS'advantage'
p2593
aS','
p2594
aS'thought'
p2595
aS'she'
p2596
aS','
p2597
aS'when'
p2598
aS'we'
p2599
aS'turn'
p2600
aS'back'
p2601
aS'I'
p2602
aS'shall'
p2603
aS'be'
p2604
aS'a'
p2605
aS'little'
p2606
aS'way'
p2607
aS'in'
p2608
aS'advance'
p2609
aS'.'
p2610
asg51
(lp2611
VIt
p2612
ag390
aVto
p2613
aVmy
p2614
aVadvantage
p2615
ag67
ag495
aVshe
p2616
ag67
aVwhen
p2617
aVwe
p2618
aVturn
p2619
aVback
p2620
ag146
aVshall
p2621
aVbe
p2622
ag57
aVlittle
p2623
aVway
p2624
aVin
p2625
aVadvance
p2626
ag78
asg79
(lp2627
g81
ag81
ag81
ag81
ag81
ag81
ag81
ag81
ag81
ag81
ag81
ag81
ag81
ag81
ag81
ag81
ag81
ag81
ag81
ag81
ag81
ag81
asg82
(lp2628
g175
ag405
ag288
ag404
ag89
ag93
ag85
ag175
ag93
ag178
ag175
ag179
ag86
ag175
ag176
ag177
ag88
ag86
ag89
ag87
ag89
ag97
asg98
VIt is to my advantage, thought she, when we turn back I shall be a little way in advance.
p2629
sba(i__main__
Sentence
p2630
(dp2631
g17
I49
sg18
(lp2632
S'Then'
p2633
aS'she'
p2634
aS'came'
p2635
aS'to'
p2636
aS'a'
p2637
aS'hill'
p2638
aS'where'
p2639
aS'there'
p2640
aS'were'
p2641
aS'deep'
p2642
aS'ruts'
p2643
aS'on'
p2644
aS'both'
p2645
aS'sides'
p2646
aS'of'
p2647
aS'the'
p2648
aS'road'
p2649
aS'.'
p2650
asg51
(lp2651
VThen
p2652
aVshe
p2653
ag1294
aVto
p2654
ag57
aVhill
p2655
aVwhere
p2656
aVthere
p2657
ag2254
aVdeep
p2658
aVrut
p2659
aVon
p2660
aVboth
p2661
aVside
p2662
aVof
p2663
aVthe
p2664
aVroad
p2665
ag78
asg79
(lp2666
g81
ag81
ag81
ag81
ag81
ag81
ag81
ag81
ag81
ag81
ag81
ag81
ag81
ag81
ag81
ag81
ag81
ag81
asg82
(lp2667
g86
ag175
ag85
ag288
ag88
ag89
ag178
ag84
ag85
ag89
ag96
ag87
ag88
ag96
ag87
ag88
ag89
ag97
asg98
VThen she came to a hill where there were deep ruts on both sides of the road.
p2668
sba(i__main__
Sentence
p2669
(dp2670
g17
I50
sg18
(lp2671
S'There'
p2672
aS'one'
p2673
aS'can'
p2674
aS'see'
p2675
aS','
p2676
aS'said'
p2677
aS'catherine'
p2678
aS','
p2679
aS'how'
p2680
aS'they'
p2681
aS'have'
p2682
aS'torn'
p2683
aS'and'
p2684
aS'skinned'
p2685
aS'and'
p2686
aS'galled'
p2687
aS'the'
p2688
aS'poor'
p2689
aS'earth'
p2690
aS','
p2691
aS'it'
p2692
aS'will'
p2693
aS'never'
p2694
aS'be'
p2695
aS'whole'
p2696
aS'again'
p2697
aS'as'
p2698
aS'long'
p2699
aS'as'
p2700
aS'it'
p2701
aS'lives'
p2702
aS','
p2703
aS'and'
p2704
aS'in'
p2705
aS'her'
p2706
aS'heart'
p2707
aS"'s"
p2708
aS'compassion'
p2709
aS'she'
p2710
aS'took'
p2711
aS'her'
p2712
aS'butter'
p2713
aS'and'
p2714
aS'smeared'
p2715
aS'the'
p2716
aS'ruts'
p2717
aS'right'
p2718
aS'and'
p2719
aS'left'
p2720
aS','
p2721
aS'that'
p2722
aS'they'
p2723
aS'might'
p2724
aS'not'
p2725
aS'be'
p2726
aS'so'
p2727
aS'hurt'
p2728
aS'by'
p2729
aS'the'
p2730
aS'wheels'
p2731
aS','
p2732
aS'and'
p2733
aS'as'
p2734
aS'she'
p2735
aS'was'
p2736
aS'thus'
p2737
aS'bending'
p2738
aS'down'
p2739
aS'in'
p2740
aS'her'
p2741
aS'charity'
p2742
aS','
p2743
aS'one'
p2744
aS'of'
p2745
aS'the'
p2746
aS'cheeses'
p2747
aS'rolled'
p2748
aS'out'
p2749
aS'of'
p2750
aS'her'
p2751
aS'pocket'
p2752
aS'down'
p2753
aS'the'
p2754
aS'hill'
p2755
aS'.'
p2756
asg51
(lp2757
VThere
p2758
aVone
p2759
aVcan
p2760
aVsee
p2761
ag67
ag145
aVcatherine
p2762
ag67
aVhow
p2763
aVthey
p2764
aVhave
p2765
aVtear
p2766
aVand
p2767
aVskin
p2768
aVand
p2769
aVgall
p2770
aVthe
p2771
aVpoor
p2772
aVearth
p2773
ag67
aVit
p2774
aVwill
p2775
aVnever
p2776
aVbe
p2777
aVwhole
p2778
aVagain
p2779
ag57
aVlong
p2780
ag57
aVit
p2781
aVlive
p2782
ag67
aVand
p2783
aVin
p2784
aVher
p2785
aVheart
p2786
aV's
p2787
aVcompassion
p2788
aVshe
p2789
ag444
aVher
p2790
aVbutter
p2791
aVand
p2792
aVsmear
p2793
aVthe
p2794
aVrut
p2795
aVright
p2796
aVand
p2797
ag2076
ag67
aVthat
p2798
aVthey
p2799
aVmight
p2800
aVnot
p2801
aVbe
p2802
aVso
p2803
aVhurt
p2804
aVby
p2805
aVthe
p2806
aVwheel
p2807
ag67
aVand
p2808
ag57
aVshe
p2809
ag54
aVthus
p2810
aVbend
p2811
aVdown
p2812
aVin
p2813
aVher
p2814
aVcharity
p2815
ag67
aVone
p2816
aVof
p2817
aVthe
p2818
aVcheese
p2819
aVroll
p2820
aVout
p2821
aVof
p2822
aVher
p2823
aVpocket
p2824
aVdown
p2825
aVthe
p2826
aVhill
p2827
ag78
asg79
(lp2828
g81
ag81
ag81
ag81
ag81
ag81
ag81
ag81
ag81
ag81
ag81
ag81
ag81
ag81
ag81
ag81
ag81
ag81
ag81
ag81
ag81
ag81
ag81
ag81
ag81
ag81
ag81
ag81
ag81
ag81
ag81
ag81
ag81
ag81
ag81
ag81
ag81
ag81
ag81
ag81
ag81
ag81
ag81
ag81
ag81
ag81
ag81
ag81
ag81
ag81
ag81
ag81
ag81
ag81
ag81
ag81
ag81
ag81
ag81
ag81
ag81
ag81
ag81
ag81
ag81
ag81
ag81
ag81
ag81
ag81
ag81
ag81
ag81
ag81
ag81
ag81
ag81
ag81
ag81
ag81
ag81
ag81
ag81
ag81
ag81
asg82
(lp2829
g84
ag174
ag176
ag177
ag93
ag85
ag89
ag93
ag178
ag175
ag179
ag91
ag92
ag91
ag92
ag91
ag88
ag94
ag89
ag93
ag175
ag176
ag86
ag177
ag94
ag89
ag87
ag86
ag87
ag175
ag405
ag93
ag92
ag87
ag404
ag89
ag1739
ag89
ag175
ag85
ag404
ag89
ag92
ag85
ag88
ag96
ag86
ag92
ag91
ag93
ag87
ag175
ag176
ag86
ag177
ag86
ag91
ag87
ag88
ag96
ag93
ag92
ag87
ag175
ag85
ag86
ag354
ag87
ag87
ag404
ag89
ag93
ag174
ag87
ag88
ag96
ag85
ag87
ag87
ag404
ag89
ag87
ag88
ag89
ag97
asg98
VThere one can see, said catherine, how they have torn and skinned and galled the poor earth, it will never be whole again as long as it lives, and in her heart's compassion she took her butter and smeared the ruts right and left, that they might not be so hurt by the wheels, and as she was thus bending down in her charity, one of the cheeses rolled out of her pocket down the hill.
p2830
sba(i__main__
Sentence
p2831
(dp2832
g17
I51
sg18
(lp2833
S'Said'
p2834
aS'catherine'
p2835
aS','
p2836
aS'I'
p2837
aS'have'
p2838
aS'made'
p2839
aS'my'
p2840
aS'way'
p2841
aS'once'
p2842
aS'up'
p2843
aS'here'
p2844
aS','
p2845
aS'I'
p2846
aS'will'
p2847
aS'not'
p2848
aS'go'
p2849
aS'down'
p2850
aS'again'
p2851
aS','
p2852
aS'another'
p2853
aS'may'
p2854
aS'run'
p2855
aS'and'
p2856
aS'fetch'
p2857
aS'it'
p2858
aS'back'
p2859
aS'.'
p2860
asg51
(lp2861
VSaid
p2862
aVcatherine
p2863
ag67
ag146
aVhave
p2864
aVmake
p2865
aVmy
p2866
aVway
p2867
aVonce
p2868
aVup
p2869
aVhere
p2870
ag67
ag146
aVwill
p2871
aVnot
p2872
aVgo
p2873
aVdown
p2874
aVagain
p2875
ag67
aVanother
p2876
aVmay
p2877
aVrun
p2878
aVand
p2879
aVfetch
p2880
aVit
p2881
aVback
p2882
ag78
asg79
(lp2883
g81
ag81
ag81
ag81
ag81
ag81
ag81
ag81
ag81
ag81
ag81
ag81
ag81
ag81
ag81
ag81
ag81
ag81
ag81
ag81
ag81
ag81
ag81
ag81
ag81
ag81
ag81
asg82
(lp2884
g556
ag89
ag93
ag175
ag179
ag91
ag404
ag89
ag86
ag87
ag86
ag93
ag175
ag176
ag86
ag177
ag86
ag86
ag93
ag88
ag176
ag177
ag92
ag89
ag175
ag86
ag97
asg98
VSaid catherine, I have made my way once up here, I will not go down again, another may run and fetch it back.
p2885
sba(i__main__
Sentence
p2886
(dp2887
g17
I52
sg18
(lp2888
S'So'
p2889
aS'she'
p2890
aS'took'
p2891
aS'another'
p2892
aS'cheese'
p2893
aS'and'
p2894
aS'rolled'
p2895
aS'it'
p2896
aS'down'
p2897
aS'.'
p2898
asg51
(lp2899
VSo
p2900
aVshe
p2901
ag444
aVanother
p2902
aVcheese
p2903
aVand
p2904
aVroll
p2905
aVit
p2906
aVdown
p2907
ag78
asg79
(lp2908
g81
ag81
ag81
ag81
ag81
ag81
ag81
ag81
ag81
ag81
asg82
(lp2909
g87
ag175
ag85
ag88
ag89
ag92
ag85
ag175
ag95
ag97
asg98
VSo she took another cheese and rolled it down.
p2910
sba(i__main__
Sentence
p2911
(dp2912
g17
I53
sg18
(lp2913
S'But'
p2914
aS'the'
p2915
aS'cheeses'
p2916
aS'did'
p2917
aS'not'
p2918
aS'come'
p2919
aS'back'
p2920
aS','
p2921
aS'so'
p2922
aS'she'
p2923
aS'let'
p2924
aS'a'
p2925
aS'third'
p2926
aS'run'
p2927
aS'down'
p2928
aS','
p2929
aS'thinking'
p2930
aS'.'
p2931
asg51
(lp2932
VBut
p2933
aVthe
p2934
aVcheese
p2935
ag695
aVnot
p2936
aVcome
p2937
aVback
p2938
ag67
aVso
p2939
aVshe
p2940
aVlet
p2941
ag57
aVthird
p2942
aVrun
p2943
aVdown
p2944
ag67
aVthink
p2945
ag78
asg79
(lp2946
g81
ag81
ag81
ag81
ag81
ag81
ag81
ag81
ag81
ag81
ag81
ag81
ag81
ag81
ag81
ag81
ag81
ag81
asg82
(lp2947
g92
ag88
ag96
ag85
ag86
ag91
ag86
ag93
ag86
ag175
ag177
ag88
ag94
ag89
ag87
ag93
ag354
ag97
asg98
VBut the cheeses did not come back, so she let a third run down, thinking.
p2948
sba(i__main__
Sentence
p2949
(dp2950
g17
I54
sg18
(lp2951
S'Perhaps'
p2952
aS'they'
p2953
aS'are'
p2954
aS'waiting'
p2955
aS'for'
p2956
aS'company'
p2957
aS','
p2958
aS'and'
p2959
aS'do'
p2960
aS'not'
p2961
aS'like'
p2962
aS'to'
p2963
aS'walk'
p2964
aS'alone'
p2965
aS'.'
p2966
asg51
(lp2967
VPerhaps
p2968
aVthey
p2969
ag1700
aVwait
p2970
aVfor
p2971
aVcompany
p2972
ag67
aVand
p2973
aVdo
p2974
aVnot
p2975
aVlike
p2976
aVto
p2977
aVwalk
p2978
aValone
p2979
ag78
asg79
(lp2980
g81
ag81
ag81
ag81
ag81
ag81
ag81
ag81
ag81
ag81
ag81
ag81
ag81
ag81
ag81
asg82
(lp2981
g86
ag175
ag179
ag354
ag87
ag89
ag93
ag92
ag177
ag86
ag177
ag288
ag177
ag86
ag97
asg98
VPerhaps they are waiting for company, and do not like to walk alone.
p2982
sba(i__main__
Sentence
p2983
(dp2984
g17
I55
sg18
(lp2985
S'As'
p2986
aS'all'
p2987
aS'three'
p2988
aS'stayed'
p2989
aS'away'
p2990
aS'she'
p2991
aS'said'
p2992
aS','
p2993
aS'I'
p2994
aS'do'
p2995
aS'not'
p2996
aS'know'
p2997
aS'what'
p2998
aS'that'
p2999
aS'can'
p3000
aS'mean'
p3001
aS','
p3002
aS'but'
p3003
aS'it'
p3004
aS'may'
p3005
aS'perhaps'
p3006
aS'be'
p3007
aS'that'
p3008
aS'the'
p3009
aS'third'
p3010
aS'has'
p3011
aS'not'
p3012
aS'found'
p3013
aS'the'
p3014
aS'way'
p3015
aS','
p3016
aS'and'
p3017
aS'has'
p3018
aS'gone'
p3019
aS'wrong'
p3020
aS','
p3021
aS'I'
p3022
aS'will'
p3023
aS'just'
p3024
aS'send'
p3025
aS'the'
p3026
aS'fourth'
p3027
aS'to'
p3028
aS'call'
p3029
aS'it'
p3030
aS'.'
p3031
asg51
(lp3032
VAs
p3033
aVall
p3034
aVthree
p3035
aVstay
p3036
aVaway
p3037
aVshe
p3038
ag145
ag67
ag146
aVdo
p3039
aVnot
p3040
aVknow
p3041
aVwhat
p3042
aVthat
p3043
aVcan
p3044
aVmean
p3045
ag67
aVbut
p3046
aVit
p3047
aVmay
p3048
aVperhaps
p3049
aVbe
p3050
aVthat
p3051
aVthe
p3052
aVthird
p3053
ag1117
aVnot
p3054
ag2037
aVthe
p3055
aVway
p3056
ag67
aVand
p3057
ag1117
ag751
aVwrong
p3058
ag67
ag146
aVwill
p3059
aVjust
p3060
aVsend
p3061
aVthe
p3062
aVfourth
p3063
aVto
p3064
aVcall
p3065
aVit
p3066
ag78
asg79
(lp3067
g81
ag81
ag81
ag81
ag81
ag81
ag81
ag81
ag81
ag81
ag81
ag81
ag81
ag81
ag81
ag81
ag81
ag81
ag81
ag81
ag81
ag81
ag81
ag81
ag81
ag81
ag81
ag81
ag81
ag81
ag81
ag81
ag81
ag81
ag81
ag81
ag81
ag81
ag81
ag81
ag81
ag81
ag81
ag81
ag81
ag81
asg82
(lp3068
g87
ag88
ag174
ag91
ag86
ag175
ag85
ag93
ag175
ag179
ag86
ag177
ag90
ag87
ag176
ag177
ag93
ag92
ag175
ag176
ag86
ag177
ag87
ag88
ag94
ag405
ag86
ag91
ag88
ag89
ag93
ag92
ag405
ag91
ag94
ag93
ag175
ag176
ag86
ag177
ag88
ag94
ag288
ag177
ag175
ag97
asg98
VAs all three stayed away she said, I do not know what that can mean, but it may perhaps be that the third has not found the way, and has gone wrong, I will just send the fourth to call it.
p3069
sba(i__main__
Sentence
p3070
(dp3071
g17
I56
sg18
(lp3072
S'But'
p3073
aS'the'
p3074
aS'fourth'
p3075
aS'did'
p3076
aS'no'
p3077
aS'better'
p3078
aS'than'
p3079
aS'the'
p3080
aS'third'
p3081
aS'.'
p3082
asg51
(lp3083
VBut
p3084
aVthe
p3085
aVfourth
p3086
ag695
aVno
p3087
ag2577
aVthan
p3088
aVthe
p3089
aVthird
p3090
ag78
asg79
(lp3091
g81
ag81
ag81
ag81
ag81
ag81
ag81
ag81
ag81
ag81
asg82
(lp3092
g92
ag88
ag94
ag85
ag88
ag2584
ag87
ag88
ag94
ag97
asg98
VBut the fourth did no better than the third.
p3093
sba(i__main__
Sentence
p3094
(dp3095
g17
I57
sg18
(lp3096
S'Then'
p3097
aS'catherine'
p3098
aS'was'
p3099
aS'angry'
p3100
aS','
p3101
aS'and'
p3102
aS'threw'
p3103
aS'down'
p3104
aS'the'
p3105
aS'fifth'
p3106
aS'and'
p3107
aS'sixth'
p3108
aS'as'
p3109
aS'well'
p3110
aS','
p3111
aS'and'
p3112
aS'these'
p3113
aS'were'
p3114
aS'her'
p3115
aS'last'
p3116
aS'.'
p3117
asg51
(lp3118
VThen
p3119
aVcatherine
p3120
ag54
aVangry
p3121
ag67
aVand
p3122
ag1137
aVdown
p3123
aVthe
p3124
aVfifth
p3125
aVand
p3126
aVsixth
p3127
ag57
aVwell
p3128
ag67
aVand
p3129
aVthese
p3130
ag2254
aVher
p3131
aVlast
p3132
ag78
asg79
(lp3133
g81
ag81
ag81
ag81
ag81
ag81
ag81
ag81
ag81
ag81
ag81
ag81
ag81
ag81
ag81
ag81
ag81
ag81
ag81
ag81
ag81
asg82
(lp3134
g86
ag179
ag85
ag94
ag93
ag92
ag85
ag95
ag88
ag94
ag92
ag94
ag87
ag86
ag93
ag92
ag88
ag85
ag175
ag94
ag97
asg98
VThen catherine was angry, and threw down the fifth and sixth as well, and these were her last.
p3135
sba(i__main__
Sentence
p3136
(dp3137
g17
I58
sg18
(lp3138
S'She'
p3139
aS'remained'
p3140
aS'standing'
p3141
aS'for'
p3142
aS'some'
p3143
aS'time'
p3144
aS'watching'
p3145
aS'for'
p3146
aS'their'
p3147
aS'coming'
p3148
aS','
p3149
aS'but'
p3150
aS'when'
p3151
aS'they'
p3152
aS'still'
p3153
aS'did'
p3154
aS'not'
p3155
aS'come'
p3156
aS','
p3157
aS'she'
p3158
aS'said'
p3159
aS','
p3160
aS'oh'
p3161
aS','
p3162
aS'you'
p3163
aS'are'
p3164
aS'good'
p3165
aS'folks'
p3166
aS'to'
p3167
aS'send'
p3168
aS'in'
p3169
aS'search'
p3170
aS'of'
p3171
aS'death'
p3172
aS','
p3173
aS'you'
p3174
aS'stay'
p3175
aS'a'
p3176
aS'fine'
p3177
aS'long'
p3178
aS'time'
p3179
aS'away'
p3180
aS'.'
p3181
asg51
(lp3182
VShe
p3183
aVremain
p3184
aVstanding
p3185
aVfor
p3186
aVsome
p3187
aVtime
p3188
aVwatch
p3189
aVfor
p3190
aVtheir
p3191
aVcome
p3192
ag67
aVbut
p3193
aVwhen
p3194
aVthey
p3195
aVstill
p3196
ag695
aVnot
p3197
aVcome
p3198
ag67
aVshe
p3199
ag145
ag67
aVoh
p3200
ag67
aVyou
p3201
ag1700
aVgood
p3202
aVfolk
p3203
aVto
p3204
aVsend
p3205
aVin
p3206
aVsearch
p3207
aVof
p3208
aVdeath
p3209
ag67
aVyou
p3210
aVstay
p3211
ag57
aVfine
p3212
aVlong
p3213
aVtime
p3214
aVaway
p3215
ag78
asg79
(lp3216
g81
ag81
ag81
ag81
ag81
ag81
ag81
ag81
ag81
ag81
ag81
ag81
ag81
ag81
ag81
ag81
ag81
ag81
ag81
ag81
ag81
ag81
ag81
ag81
ag81
ag81
ag81
ag81
ag81
ag81
ag81
ag81
ag81
ag81
ag81
ag81
ag81
ag81
ag81
ag81
ag81
ag81
ag81
asg82
(lp3217
g175
ag85
ag89
ag87
ag88
ag89
ag354
ag87
ag404
ag354
ag93
ag92
ag178
ag175
ag86
ag85
ag86
ag91
ag93
ag175
ag85
ag93
ag89
ag93
ag175
ag179
ag94
ag96
ag288
ag177
ag87
ag89
ag87
ag89
ag93
ag175
ag179
ag88
ag89
ag86
ag89
ag86
ag97
asg98
VShe remained standing for some time watching for their coming, but when they still did not come, she said, oh, you are good folks to send in search of death, you stay a fine long time away.
p3218
sba(i__main__
Sentence
p3219
(dp3220
g17
I59
sg18
(lp3221
S'Do'
p3222
aS'you'
p3223
aS'think'
p3224
aS'I'
p3225
aS'will'
p3226
aS'wait'
p3227
aS'any'
p3228
aS'longer'
p3229
aS'for'
p3230
aS'you'
p3231
aS'.'
p3232
asg51
(lp3233
VDo
p3234
aVyou
p3235
aVthink
p3236
ag146
aVwill
p3237
aVwait
p3238
aVany
p3239
aVlonger
p3240
aVfor
p3241
aVyou
p3242
ag78
asg79
(lp3243
g81
ag81
ag81
ag81
ag81
ag81
ag81
ag81
ag81
ag81
ag81
asg82
(lp3244
g556
ag175
ag179
ag175
ag176
ag177
ag88
ag89
ag87
ag175
ag97
asg98
VDo you think I will wait any longer for you.
p3245
sba(i__main__
Sentence
p3246
(dp3247
g17
I60
sg18
(lp3248
S'I'
p3249
aS'shall'
p3250
aS'go'
p3251
aS'my'
p3252
aS'way'
p3253
aS','
p3254
aS'you'
p3255
aS'may'
p3256
aS'run'
p3257
aS'after'
p3258
aS'me'
p3259
aS','
p3260
aS'you'
p3261
aS'have'
p3262
aS'younger'
p3263
aS'legs'
p3264
aS'than'
p3265
aS'I.'
p3266
aS'Catherine'
p3267
aS'went'
p3268
aS'on'
p3269
aS'and'
p3270
aS'found'
p3271
aS'frederick'
p3272
aS','
p3273
aS'who'
p3274
aS'was'
p3275
aS'standing'
p3276
aS'waiting'
p3277
aS'for'
p3278
aS'her'
p3279
aS'because'
p3280
aS'he'
p3281
aS'wanted'
p3282
aS'something'
p3283
aS'to'
p3284
aS'eat'
p3285
aS'.'
p3286
asg51
(lp3287
g146
aVshall
p3288
aVgo
p3289
aVmy
p3290
aVway
p3291
ag67
aVyou
p3292
aVmay
p3293
aVrun
p3294
aVafter
p3295
aVme
p3296
ag67
aVyou
p3297
aVhave
p3298
aVyoung
p3299
aVleg
p3300
aVthan
p3301
aVI.
p3302
aVCatherine
p3303
ag447
aVon
p3304
aVand
p3305
ag2037
aVfrederick
p3306
ag67
aVwho
p3307
ag54
aVstand
p3308
aVwait
p3309
aVfor
p3310
aVher
p3311
aVbecause
p3312
aVhe
p3313
aVwant
p3314
aVsomething
p3315
aVto
p3316
aVeat
p3317
ag78
asg79
(lp3318
g81
ag81
ag81
ag81
ag81
ag81
ag81
ag81
ag81
ag81
ag81
ag81
ag81
ag81
ag81
ag81
ag81
aVPERSON
p3319
aVPERSON
p3320
ag81
ag81
ag81
ag81
ag81
ag81
ag81
ag81
ag81
ag81
ag81
ag81
ag81
ag81
ag81
ag81
ag81
ag81
ag81
asg82
(lp3321
g175
ag179
ag86
ag404
ag89
ag93
ag175
ag176
ag177
ag87
ag175
ag93
ag175
ag179
ag2584
ag96
ag87
ag556
ag556
ag85
ag87
ag92
ag91
ag89
ag93
ag90
ag85
ag354
ag354
ag87
ag404
ag87
ag175
ag85
ag89
ag288
ag177
ag97
asg98
VI shall go my way, you may run after me, you have younger legs than I.  Catherine went on and found frederick, who was standing waiting for her because he wanted something to eat.
p3322
sba(i__main__
Sentence
p3323
(dp3324
g17
I61
sg18
(lp3325
S'Now'
p3326
aS'just'
p3327
aS'let'
p3328
aS'us'
p3329
aS'have'
p3330
aS'what'
p3331
aS'you'
p3332
aS'have'
p3333
aS'brought'
p3334
aS'with'
p3335
aS'you'
p3336
aS','
p3337
aS'said'
p3338
aS'he'
p3339
aS'.'
p3340
asg51
(lp3341
VNow
p3342
aVjust
p3343
aVlet
p3344
ag1943
aVhave
p3345
aVwhat
p3346
aVyou
p3347
aVhave
p3348
aVbring
p3349
aVwith
p3350
aVyou
p3351
ag67
ag145
aVhe
p3352
ag78
asg79
(lp3353
g81
ag81
ag81
ag81
ag81
ag81
ag81
ag81
ag81
ag81
ag81
ag81
ag81
ag81
ag81
asg82
(lp3354
g86
ag86
ag177
ag175
ag177
ag90
ag175
ag179
ag91
ag87
ag175
ag93
ag85
ag175
ag97
asg98
VNow just let us have what you have brought with you, said he.
p3355
sba(i__main__
Sentence
p3356
(dp3357
g17
I62
sg18
(lp3358
S'She'
p3359
aS'gave'
p3360
aS'him'
p3361
aS'the'
p3362
aS'dry'
p3363
aS'bread'
p3364
aS'.'
p3365
asg51
(lp3366
VShe
p3367
aVgive
p3368
aVhim
p3369
aVthe
p3370
aVdry
p3371
aVbread
p3372
ag78
asg79
(lp3373
g81
ag81
ag81
ag81
ag81
ag81
ag81
asg82
(lp3374
g175
ag85
ag175
ag88
ag94
ag89
ag97
asg98
VShe gave him the dry bread.
p3375
sba(i__main__
Sentence
p3376
(dp3377
g17
I63
sg18
(lp3378
S'Where'
p3379
aS'have'
p3380
aS'you'
p3381
aS'the'
p3382
aS'butter'
p3383
aS'and'
p3384
aS'the'
p3385
aS'cheeses'
p3386
aS','
p3387
aS'asked'
p3388
aS'the'
p3389
aS'man'
p3390
aS'.'
p3391
asg51
(lp3392
VWhere
p3393
aVhave
p3394
aVyou
p3395
aVthe
p3396
aVbutter
p3397
aVand
p3398
aVthe
p3399
aVcheese
p3400
ag67
aVask
p3401
aVthe
p3402
aVman
p3403
ag78
asg79
(lp3404
g81
ag81
ag81
ag81
ag81
ag81
ag81
ag81
ag81
ag81
ag81
ag81
ag81
asg82
(lp3405
g178
ag179
ag175
ag88
ag89
ag92
ag88
ag96
ag93
ag85
ag88
ag89
ag97
asg98
VWhere have you the butter and the cheeses, asked the man.
p3406
sba(i__main__
Sentence
p3407
(dp3408
g17
I64
sg18
(lp3409
S'Ah'
p3410
aS','
p3411
aS'freddy'
p3412
aS','
p3413
aS'said'
p3414
aS'catherine'
p3415
aS','
p3416
aS'I'
p3417
aS'smeared'
p3418
aS'the'
p3419
aS'cart-ruts'
p3420
aS'with'
p3421
aS'the'
p3422
aS'butter'
p3423
aS'and'
p3424
aS'the'
p3425
aS'cheeses'
p3426
aS'will'
p3427
aS'come'
p3428
aS'soon'
p3429
aS','
p3430
aS'one'
p3431
aS'ran'
p3432
aS'away'
p3433
aS'from'
p3434
aS'me'
p3435
aS','
p3436
aS'so'
p3437
aS'I'
p3438
aS'sent'
p3439
aS'the'
p3440
aS'others'
p3441
aS'after'
p3442
aS'to'
p3443
aS'call'
p3444
aS'it'
p3445
aS'.'
p3446
asg51
(lp3447
VAh
p3448
ag67
aVfreddy
p3449
ag67
ag145
aVcatherine
p3450
ag67
ag146
aVsmear
p3451
aVthe
p3452
aVcart-ruts
p3453
aVwith
p3454
aVthe
p3455
aVbutter
p3456
aVand
p3457
aVthe
p3458
aVcheese
p3459
aVwill
p3460
aVcome
p3461
aVsoon
p3462
ag67
aVone
p3463
aVran
p3464
aVaway
p3465
aVfrom
p3466
aVme
p3467
ag67
aVso
p3468
ag146
aVsend
p3469
aVthe
p3470
aVothers
p3471
aVafter
p3472
aVto
p3473
aVcall
p3474
aVit
p3475
ag78
asg79
(lp3476
g81
ag81
ag81
ag81
ag81
ag81
ag81
ag81
ag81
ag81
ag81
ag81
ag81
ag81
ag81
ag81
ag81
ag81
ag81
ag81
ag81
ag81
ag81
ag81
ag81
ag81
ag81
ag81
ag81
ag81
ag81
ag81
ag81
ag81
ag81
ag81
ag81
asg82
(lp3477
g556
ag93
ag89
ag93
ag85
ag89
ag93
ag175
ag85
ag88
ag96
ag87
ag88
ag89
ag92
ag88
ag96
ag176
ag177
ag86
ag93
ag174
ag89
ag86
ag87
ag175
ag93
ag86
ag175
ag179
ag88
ag96
ag87
ag288
ag177
ag175
ag97
asg98
VAh, freddy, said catherine, I smeared the cart-ruts with the butter and the cheeses will come soon, one ran away from me, so I sent the others after to call it.
p3478
sba(i__main__
Sentence
p3479
(dp3480
g17
I65
sg18
(lp3481
S'Said'
p3482
aS'frederick'
p3483
aS','
p3484
aS'you'
p3485
aS'should'
p3486
aS'not'
p3487
aS'have'
p3488
aS'done'
p3489
aS'that'
p3490
aS','
p3491
aS'catherine'
p3492
aS','
p3493
aS'to'
p3494
aS'smear'
p3495
aS'the'
p3496
aS'butter'
p3497
aS'on'
p3498
aS'the'
p3499
aS'road'
p3500
aS','
p3501
aS'and'
p3502
aS'let'
p3503
aS'the'
p3504
aS'cheeses'
p3505
aS'run'
p3506
aS'down'
p3507
aS'the'
p3508
aS'hill'
p3509
aS'.'
p3510
asg51
(lp3511
VSaid
p3512
aVfrederick
p3513
ag67
aVyou
p3514
aVshould
p3515
aVnot
p3516
aVhave
p3517
ag1251
aVthat
p3518
ag67
aVcatherine
p3519
ag67
aVto
p3520
aVsmear
p3521
aVthe
p3522
aVbutter
p3523
aVon
p3524
aVthe
p3525
aVroad
p3526
ag67
aVand
p3527
aVlet
p3528
aVthe
p3529
aVcheese
p3530
aVrun
p3531
aVdown
p3532
aVthe
p3533
aVhill
p3534
ag78
asg79
(lp3535
g81
ag81
ag81
ag81
ag81
ag81
ag81
ag81
ag81
ag81
ag81
ag81
ag81
ag81
ag81
ag81
ag81
ag81
ag81
ag81
ag81
ag81
ag81
ag81
ag81
ag81
ag81
ag81
ag81
asg82
(lp3536
g556
ag85
ag93
ag175
ag176
ag86
ag177
ag91
ag87
ag93
ag89
ag93
ag288
ag177
ag88
ag89
ag87
ag88
ag89
ag93
ag92
ag177
ag88
ag96
ag179
ag87
ag88
ag89
ag97
asg98
VSaid frederick, you should not have done that, catherine, to smear the butter on the road, and let the cheeses run down the hill.
p3537
sba(i__main__
Sentence
p3538
(dp3539
g17
I66
sg18
(lp3540
S'Really'
p3541
aS','
p3542
aS'frederick'
p3543
aS','
p3544
aS'you'
p3545
aS'should'
p3546
aS'have'
p3547
aS'told'
p3548
aS'me'
p3549
aS'.'
p3550
asg51
(lp3551
VReally
p3552
ag67
aVfrederick
p3553
ag67
aVyou
p3554
aVshould
p3555
aVhave
p3556
ag1560
aVme
p3557
ag78
asg79
(lp3558
g81
ag81
ag81
ag81
ag81
ag81
ag81
ag81
ag81
ag81
asg82
(lp3559
g86
ag93
ag89
ag93
ag175
ag176
ag177
ag91
ag175
ag97
asg98
VReally, frederick, you should have told me.
p3560
sba(i__main__
Sentence
p3561
(dp3562
g17
I67
sg18
(lp3563
S'Then'
p3564
aS'they'
p3565
aS'ate'
p3566
aS'the'
p3567
aS'dry'
p3568
aS'bread'
p3569
aS'together'
p3570
aS','
p3571
aS'and'
p3572
aS'frederick'
p3573
aS'said'
p3574
aS','
p3575
aS'catherine'
p3576
aS','
p3577
aS'did'
p3578
aS'you'
p3579
aS'make'
p3580
aS'the'
p3581
aS'house'
p3582
aS'safe'
p3583
aS'when'
p3584
aS'you'
p3585
aS'came'
p3586
aS'away'
p3587
aS'.'
p3588
asg51
(lp3589
VThen
p3590
aVthey
p3591
aVeat
p3592
aVthe
p3593
aVdry
p3594
aVbread
p3595
aVtogether
p3596
ag67
aVand
p3597
aVfrederick
p3598
ag145
ag67
aVcatherine
p3599
ag67
ag695
aVyou
p3600
aVmake
p3601
aVthe
p3602
aVhouse
p3603
aVsafe
p3604
aVwhen
p3605
aVyou
p3606
ag1294
aVaway
p3607
ag78
asg79
(lp3608
g81
ag81
ag81
ag81
ag81
ag81
ag81
ag81
ag81
ag81
ag81
ag81
ag81
ag81
ag81
ag81
ag81
ag81
ag81
ag81
ag81
ag81
ag81
ag81
ag81
asg82
(lp3609
g86
ag175
ag179
ag88
ag94
ag89
ag86
ag93
ag92
ag177
ag85
ag93
ag89
ag93
ag85
ag175
ag177
ag88
ag89
ag89
ag178
ag175
ag85
ag86
ag97
asg98
VThen they ate the dry bread together, and frederick said, catherine, did you make the house safe when you came away.
p3610
sba(i__main__
Sentence
p3611
(dp3612
g17
I68
sg18
(lp3613
S'No'
p3614
aS','
p3615
aS'frederick'
p3616
aS','
p3617
aS'you'
p3618
aS'should'
p3619
aS'have'
p3620
aS'told'
p3621
aS'me'
p3622
aS'to'
p3623
aS'do'
p3624
aS'it'
p3625
aS'before'
p3626
aS'.'
p3627
asg51
(lp3628
VNo
p3629
ag67
aVfrederick
p3630
ag67
aVyou
p3631
aVshould
p3632
aVhave
p3633
ag1560
aVme
p3634
aVto
p3635
aVdo
p3636
aVit
p3637
aVbefore
p3638
ag78
asg79
(lp3639
g81
ag81
ag81
ag81
ag81
ag81
ag81
ag81
ag81
ag81
ag81
ag81
ag81
ag81
asg82
(lp3640
g88
ag93
ag179
ag93
ag175
ag176
ag177
ag91
ag175
ag288
ag177
ag175
ag87
ag97
asg98
VNo, frederick, you should have told me to do it before.
p3641
sba(i__main__
Sentence
p3642
(dp3643
g17
I69
sg18
(lp3644
S'Then'
p3645
aS'go'
p3646
aS'home'
p3647
aS'again'
p3648
aS','
p3649
aS'and'
p3650
aS'make'
p3651
aS'the'
p3652
aS'house'
p3653
aS'safe'
p3654
aS'before'
p3655
aS'we'
p3656
aS'go'
p3657
aS'any'
p3658
aS'farther'
p3659
aS','
p3660
aS'and'
p3661
aS'bring'
p3662
aS'with'
p3663
aS'you'
p3664
aS'something'
p3665
aS'else'
p3666
aS'to'
p3667
aS'eat'
p3668
aS'.'
p3669
asg51
(lp3670
VThen
p3671
aVgo
p3672
aVhome
p3673
aVagain
p3674
ag67
aVand
p3675
aVmake
p3676
aVthe
p3677
aVhouse
p3678
aVsafe
p3679
aVbefore
p3680
aVwe
p3681
aVgo
p3682
aVany
p3683
aVfarther
p3684
ag67
aVand
p3685
aVbring
p3686
aVwith
p3687
aVyou
p3688
aVsomething
p3689
aVelse
p3690
aVto
p3691
aVeat
p3692
ag78
asg79
(lp3693
g81
ag81
ag81
ag81
ag81
ag81
ag81
ag81
ag81
ag81
ag81
ag81
ag81
ag81
ag81
ag81
ag81
ag81
ag81
ag81
ag81
ag81
ag81
ag81
ag81
asg82
(lp3694
g86
ag179
ag89
ag86
ag93
ag92
ag177
ag88
ag89
ag89
ag87
ag175
ag179
ag88
ag89
ag93
ag92
ag354
ag87
ag175
ag354
ag86
ag288
ag177
ag97
asg98
VThen go home again, and make the house safe before we go any farther, and bring with you something else to eat.
p3695
sba(i__main__
Sentence
p3696
(dp3697
g17
I70
sg18
(lp3698
S'I'
p3699
aS'will'
p3700
aS'wait'
p3701
aS'here'
p3702
aS'for'
p3703
aS'you'
p3704
aS'.'
p3705
asg51
(lp3706
g146
aVwill
p3707
aVwait
p3708
aVhere
p3709
aVfor
p3710
aVyou
p3711
ag78
asg79
(lp3712
g81
ag81
ag81
ag81
ag81
ag81
ag81
asg82
(lp3713
g175
ag176
ag177
ag86
ag87
ag175
ag97
asg98
VI will wait here for you.
p3714
sba(i__main__
Sentence
p3715
(dp3716
g17
I71
sg18
(lp3717
S'Catherine'
p3718
aS'went'
p3719
aS'back'
p3720
aS'and'
p3721
aS'thought'
p3722
aS','
p3723
aS'frederick'
p3724
aS'wants'
p3725
aS'something'
p3726
aS'more'
p3727
aS'to'
p3728
aS'eat'
p3729
aS','
p3730
aS'he'
p3731
aS'does'
p3732
aS'not'
p3733
aS'like'
p3734
aS'butter'
p3735
aS'and'
p3736
aS'cheese'
p3737
aS','
p3738
aS'so'
p3739
aS'I'
p3740
aS'will'
p3741
aS'take'
p3742
aS'with'
p3743
aS'me'
p3744
aS'a'
p3745
aS'handkerchief'
p3746
aS'full'
p3747
aS'of'
p3748
aS'dried'
p3749
aS'pears'
p3750
aS'and'
p3751
aS'a'
p3752
aS'pitcher'
p3753
aS'of'
p3754
aS'vinegar'
p3755
aS'for'
p3756
aS'him'
p3757
aS'to'
p3758
aS'drink'
p3759
aS'.'
p3760
asg51
(lp3761
VCatherine
p3762
ag447
aVback
p3763
aVand
p3764
ag495
ag67
aVfrederick
p3765
aVwant
p3766
aVsomething
p3767
aVmore
p3768
aVto
p3769
aVeat
p3770
ag67
aVhe
p3771
aVdo
p3772
aVnot
p3773
aVlike
p3774
aVbutter
p3775
aVand
p3776
aVcheese
p3777
ag67
aVso
p3778
ag146
aVwill
p3779
aVtake
p3780
aVwith
p3781
aVme
p3782
ag57
aVhandkerchief
p3783
aVfull
p3784
aVof
p3785
aVdried
p3786
aVpear
p3787
aVand
p3788
ag57
aVpitcher
p3789
aVof
p3790
aVvinegar
p3791
aVfor
p3792
aVhim
p3793
aVto
p3794
aVdrink
p3795
ag78
asg79
(lp3796
VPERSON
p3797
ag81
ag81
ag81
ag81
ag81
ag81
ag81
ag81
ag81
ag81
ag81
ag81
ag81
ag81
ag81
ag81
ag81
ag81
ag81
ag81
ag81
ag81
ag81
ag81
ag81
ag81
ag81
ag81
ag81
ag81
ag81
ag81
ag81
ag81
ag81
ag81
ag81
ag81
ag81
ag81
ag81
ag81
asg82
(lp3798
g556
ag85
ag86
ag92
ag85
ag93
ag89
ag405
ag89
ag2584
ag288
ag177
ag93
ag175
ag405
ag86
ag87
ag89
ag92
ag94
ag93
ag86
ag175
ag176
ag177
ag87
ag175
ag88
ag89
ag94
ag87
ag94
ag96
ag92
ag88
ag89
ag87
ag89
ag87
ag175
ag288
ag177
ag97
asg98
VCatherine went back and thought, frederick wants something more to eat, he does not like butter and cheese, so I will take with me a handkerchief full of dried pears and a pitcher of vinegar for him to drink.
p3799
sba(i__main__
Sentence
p3800
(dp3801
g17
I72
sg18
(lp3802
S'Then'
p3803
aS'she'
p3804
aS'bolted'
p3805
aS'the'
p3806
aS'upper'
p3807
aS'half'
p3808
aS'of'
p3809
aS'the'
p3810
aS'door'
p3811
aS'fast'
p3812
aS','
p3813
aS'but'
p3814
aS'unhinged'
p3815
aS'the'
p3816
aS'lower'
p3817
aS'door'
p3818
aS','
p3819
aS'and'
p3820
aS'took'
p3821
aS'it'
p3822
aS'on'
p3823
aS'her'
p3824
aS'back'
p3825
aS','
p3826
aS'believing'
p3827
aS'that'
p3828
aS'when'
p3829
aS'she'
p3830
aS'had'
p3831
aS'placed'
p3832
aS'the'
p3833
aS'door'
p3834
aS'in'
p3835
aS'security'
p3836
aS'the'
p3837
aS'house'
p3838
aS'must'
p3839
aS'be'
p3840
aS'well'
p3841
aS'taken'
p3842
aS'care'
p3843
aS'of'
p3844
aS'.'
p3845
asg51
(lp3846
VThen
p3847
aVshe
p3848
aVbolt
p3849
aVthe
p3850
aVupper
p3851
aVhalf
p3852
aVof
p3853
aVthe
p3854
aVdoor
p3855
aVfast
p3856
ag67
aVbut
p3857
aVunhinge
p3858
aVthe
p3859
aVlow
p3860
aVdoor
p3861
ag67
aVand
p3862
ag444
aVit
p3863
aVon
p3864
aVher
p3865
aVback
p3866
ag67
aVbelieve
p3867
aVthat
p3868
aVwhen
p3869
aVshe
p3870
ag69
aVplace
p3871
aVthe
p3872
aVdoor
p3873
aVin
p3874
aVsecurity
p3875
aVthe
p3876
aVhouse
p3877
aVmust
p3878
aVbe
p3879
aVwell
p3880
aVtake
p3881
aVcare
p3882
aVof
p3883
ag78
asg79
(lp3884
g81
ag81
ag81
ag81
ag81
ag81
ag81
ag81
ag81
ag81
ag81
ag81
ag81
ag81
ag81
ag81
ag81
ag81
ag81
ag81
ag81
ag81
ag81
ag81
ag81
ag81
ag81
ag81
ag81
ag81
ag81
ag81
ag81
ag81
ag81
ag81
ag81
ag81
ag81
ag81
ag81
ag81
ag81
asg82
(lp3885
g86
ag175
ag85
ag88
ag94
ag89
ag87
ag88
ag89
ag89
ag93
ag92
ag85
ag88
ag2584
ag89
ag93
ag92
ag85
ag175
ag87
ag404
ag89
ag93
ag354
ag87
ag178
ag175
ag85
ag91
ag88
ag89
ag87
ag89
ag88
ag89
ag176
ag177
ag86
ag91
ag89
ag87
ag97
asg98
VThen she bolted the upper half of the door fast, but unhinged the lower door, and took it on her back, believing that when she had placed the door in security the house must be well taken care of.
p3886
sba(i__main__
Sentence
p3887
(dp3888
g17
I73
sg18
(lp3889
S'Catherine'
p3890
aS'took'
p3891
aS'her'
p3892
aS'time'
p3893
aS'on'
p3894
aS'the'
p3895
aS'way'
p3896
aS','
p3897
aS'and'
p3898
aS'thought'
p3899
aS','
p3900
aS'frederick'
p3901
aS'will'
p3902
aS'rest'
p3903
aS'himself'
p3904
aS'so'
p3905
aS'much'
p3906
aS'the'
p3907
aS'longer'
p3908
aS'.'
p3909
asg51
(lp3910
VCatherine
p3911
ag444
aVher
p3912
aVtime
p3913
aVon
p3914
aVthe
p3915
aVway
p3916
ag67
aVand
p3917
ag495
ag67
aVfrederick
p3918
aVwill
p3919
aVrest
p3920
aVhimself
p3921
aVso
p3922
aVmuch
p3923
aVthe
p3924
aVlonger
p3925
ag78
asg79
(lp3926
VPERSON
p3927
ag81
ag81
ag81
ag81
ag81
ag81
ag81
ag81
ag81
ag81
ag81
ag81
ag81
ag81
ag81
ag81
ag81
ag81
ag81
asg82
(lp3928
g556
ag85
ag175
ag89
ag87
ag88
ag89
ag93
ag92
ag85
ag93
ag89
ag176
ag177
ag175
ag86
ag86
ag88
ag89
ag97
asg98
VCatherine took her time on the way, and thought, frederick will rest himself so much the longer.
p3929
sba(i__main__
Sentence
p3930
(dp3931
g17
I74
sg18
(lp3932
S'When'
p3933
aS'she'
p3934
aS'had'
p3935
aS'once'
p3936
aS'reached'
p3937
aS'him'
p3938
aS'she'
p3939
aS'said'
p3940
aS','
p3941
aS'here'
p3942
aS'is'
p3943
aS'the'
p3944
aS'house-door'
p3945
aS'for'
p3946
aS'you'
p3947
aS','
p3948
aS'frederick'
p3949
aS','
p3950
aS'and'
p3951
aS'now'
p3952
aS'you'
p3953
aS'can'
p3954
aS'take'
p3955
aS'care'
p3956
aS'of'
p3957
aS'the'
p3958
aS'house'
p3959
aS'yourself'
p3960
aS'.'
p3961
asg51
(lp3962
VWhen
p3963
aVshe
p3964
ag69
aVonce
p3965
aVreach
p3966
aVhim
p3967
aVshe
p3968
ag145
ag67
aVhere
p3969
ag390
aVthe
p3970
aVhouse-door
p3971
aVfor
p3972
aVyou
p3973
ag67
aVfrederick
p3974
ag67
aVand
p3975
aVnow
p3976
aVyou
p3977
aVcan
p3978
aVtake
p3979
aVcare
p3980
aVof
p3981
aVthe
p3982
aVhouse
p3983
aVyourself
p3984
ag78
asg79
(lp3985
g81
ag81
ag81
ag81
ag81
ag81
ag81
ag81
ag81
ag81
ag81
ag81
ag81
ag81
ag81
ag81
ag81
ag81
ag81
ag81
ag81
ag81
ag81
ag81
ag81
ag81
ag81
ag81
ag81
asg82
(lp3986
g178
ag175
ag85
ag86
ag91
ag175
ag175
ag85
ag93
ag86
ag405
ag88
ag94
ag87
ag175
ag93
ag179
ag93
ag92
ag86
ag175
ag176
ag177
ag89
ag87
ag88
ag89
ag175
ag97
asg98
VWhen she had once reached him she said, here is the house-door for you, frederick, and now you can take care of the house yourself.
p3987
sba(i__main__
Sentence
p3988
(dp3989
g17
I75
sg18
(lp3990
S'Oh'
p3991
aS','
p3992
aS'heavens'
p3993
aS','
p3994
aS'said'
p3995
aS'he'
p3996
aS','
p3997
aS'what'
p3998
aS'a'
p3999
aS'wise'
p4000
aS'wife'
p4001
aS'I'
p4002
aS'have'
p4003
aS'.'
p4004
asg51
(lp4005
VOh
p4006
ag67
aVheaven
p4007
ag67
ag145
aVhe
p4008
ag67
aVwhat
p4009
ag57
aVwise
p4010
aVwife
p4011
ag146
aVhave
p4012
ag78
asg79
(lp4013
g81
ag81
ag81
ag81
ag81
ag81
ag81
ag81
ag81
ag81
ag81
ag81
ag81
ag81
asg82
(lp4014
g1910
ag93
ag96
ag93
ag85
ag175
ag93
ag90
ag88
ag89
ag89
ag175
ag179
ag97
asg98
VOh, heavens, said he, what a wise wife I have.
p4015
sba(i__main__
Sentence
p4016
(dp4017
g17
I76
sg18
(lp4018
S'She'
p4019
aS'takes'
p4020
aS'the'
p4021
aS'under-door'
p4022
aS'off'
p4023
aS'the'
p4024
aS'hinges'
p4025
aS'that'
p4026
aS'everything'
p4027
aS'may'
p4028
aS'run'
p4029
aS'in'
p4030
aS','
p4031
aS'and'
p4032
aS'bolts'
p4033
aS'the'
p4034
aS'upper'
p4035
aS'one'
p4036
aS'.'
p4037
asg51
(lp4038
VShe
p4039
aVtake
p4040
aVthe
p4041
aVunder-door
p4042
aVoff
p4043
aVthe
p4044
aVhinge
p4045
aVthat
p4046
aVeverything
p4047
aVmay
p4048
aVrun
p4049
aVin
p4050
ag67
aVand
p4051
aVbolt
p4052
aVthe
p4053
aVupper
p4054
aVone
p4055
ag78
asg79
(lp4056
g81
ag81
ag81
ag81
ag81
ag81
ag81
ag81
ag81
ag81
ag81
ag81
ag81
ag81
ag81
ag81
ag81
ag81
ag81
asg82
(lp4057
g175
ag405
ag88
ag94
ag89
ag88
ag96
ag1161
ag354
ag176
ag177
ag87
ag93
ag92
ag96
ag88
ag94
ag174
ag97
asg98
VShe takes the under-door off the hinges that everything may run in, and bolts the upper one.
p4058
sba(i__main__
Sentence
p4059
(dp4060
g17
I77
sg18
(lp4061
S'It'
p4062
aS'is'
p4063
aS'now'
p4064
aS'too'
p4065
aS'late'
p4066
aS'to'
p4067
aS'go'
p4068
aS'back'
p4069
aS'home'
p4070
aS'again'
p4071
aS','
p4072
aS'but'
p4073
aS'since'
p4074
aS'you'
p4075
aS'have'
p4076
aS'brought'
p4077
aS'the'
p4078
aS'door'
p4079
aS'here'
p4080
aS','
p4081
aS'you'
p4082
aS'shall'
p4083
aS'just'
p4084
aS'carry'
p4085
aS'it'
p4086
aS'farther'
p4087
aS'.'
p4088
asg51
(lp4089
VIt
p4090
ag390
aVnow
p4091
aVtoo
p4092
aVlate
p4093
aVto
p4094
aVgo
p4095
aVback
p4096
aVhome
p4097
aVagain
p4098
ag67
aVbut
p4099
aVsince
p4100
aVyou
p4101
aVhave
p4102
ag3349
aVthe
p4103
aVdoor
p4104
aVhere
p4105
ag67
aVyou
p4106
aVshall
p4107
aVjust
p4108
aVcarry
p4109
aVit
p4110
aVfarther
p4111
ag78
asg79
(lp4112
g81
ag81
ag81
ag81
ag81
ag81
ag81
ag81
ag81
ag81
ag81
ag81
ag81
ag81
ag81
ag81
ag81
ag81
ag81
ag81
ag81
ag81
ag81
ag81
ag81
ag81
ag81
asg82
(lp4113
g175
ag405
ag86
ag86
ag94
ag288
ag177
ag86
ag89
ag86
ag93
ag92
ag87
ag175
ag179
ag91
ag88
ag89
ag86
ag93
ag175
ag176
ag86
ag177
ag175
ag2584
ag97
asg98
VIt is now too late to go back home again, but since you have brought the door here, you shall just carry it farther.
p4114
sba(i__main__
Sentence
p4115
(dp4116
g17
I78
sg18
(lp4117
S'I'
p4118
aS'will'
p4119
aS'carry'
p4120
aS'the'
p4121
aS'door'
p4122
aS','
p4123
aS'frederick'
p4124
aS','
p4125
aS'but'
p4126
aS'the'
p4127
aS'dried'
p4128
aS'pears'
p4129
aS'and'
p4130
aS'the'
p4131
aS'vinegar-jug'
p4132
aS'will'
p4133
aS'be'
p4134
aS'too'
p4135
aS'heavy'
p4136
aS'for'
p4137
aS'me'
p4138
aS','
p4139
aS'I'
p4140
aS'will'
p4141
aS'hang'
p4142
aS'them'
p4143
aS'on'
p4144
aS'the'
p4145
aS'door'
p4146
aS','
p4147
aS'it'
p4148
aS'may'
p4149
aS'carry'
p4150
aS'them'
p4151
aS'.'
p4152
asg51
(lp4153
g146
aVwill
p4154
aVcarry
p4155
aVthe
p4156
aVdoor
p4157
ag67
aVfrederick
p4158
ag67
aVbut
p4159
aVthe
p4160
aVdried
p4161
aVpear
p4162
aVand
p4163
aVthe
p4164
aVvinegar-jug
p4165
aVwill
p4166
aVbe
p4167
aVtoo
p4168
aVheavy
p4169
aVfor
p4170
aVme
p4171
ag67
ag146
aVwill
p4172
aVhang
p4173
aVthem
p4174
aVon
p4175
aVthe
p4176
aVdoor
p4177
ag67
aVit
p4178
aVmay
p4179
aVcarry
p4180
aVthem
p4181
ag78
asg79
(lp4182
g81
ag81
ag81
ag81
ag81
ag81
ag81
ag81
ag81
ag81
ag81
ag81
ag81
ag81
ag81
ag81
ag81
ag81
ag81
ag81
ag81
ag81
ag81
ag81
ag81
ag81
ag81
ag81
ag81
ag81
ag81
ag81
ag81
ag81
ag81
asg82
(lp4183
g175
ag176
ag177
ag88
ag89
ag93
ag89
ag93
ag92
ag88
ag94
ag96
ag92
ag88
ag94
ag176
ag177
ag86
ag94
ag87
ag175
ag93
ag175
ag176
ag177
ag175
ag87
ag88
ag89
ag93
ag175
ag176
ag177
ag175
ag97
asg98
VI will carry the door, frederick, but the dried pears and the vinegar-jug will be too heavy for me, I will hang them on the door, it may carry them.
p4184
sba(i__main__
Sentence
p4185
(dp4186
g17
I79
sg18
(lp4187
S'And'
p4188
aS'now'
p4189
aS'they'
p4190
aS'went'
p4191
aS'into'
p4192
aS'the'
p4193
aS'forest'
p4194
aS','
p4195
aS'and'
p4196
aS'sought'
p4197
aS'the'
p4198
aS'rogues'
p4199
aS','
p4200
aS'but'
p4201
aS'did'
p4202
aS'not'
p4203
aS'find'
p4204
aS'them'
p4205
aS'.'
p4206
asg51
(lp4207
VAnd
p4208
aVnow
p4209
aVthey
p4210
ag447
aVinto
p4211
aVthe
p4212
aVforest
p4213
ag67
aVand
p4214
aVseek
p4215
aVthe
p4216
aVrogue
p4217
ag67
aVbut
p4218
ag695
aVnot
p4219
aVfind
p4220
aVthem
p4221
ag78
asg79
(lp4222
g81
ag81
ag81
ag81
ag81
ag81
ag81
ag81
ag81
ag81
ag81
ag81
ag81
ag81
ag81
ag81
ag81
ag81
ag81
asg82
(lp4223
g92
ag86
ag175
ag85
ag87
ag88
ag1041
ag93
ag92
ag85
ag88
ag96
ag93
ag92
ag85
ag86
ag177
ag175
ag97
asg98
VAnd now they went into the forest, and sought the rogues, but did not find them.
p4224
sba(i__main__
Sentence
p4225
(dp4226
g17
I80
sg18
(lp4227
S'At'
p4228
aS'length'
p4229
aS'as'
p4230
aS'it'
p4231
aS'grew'
p4232
aS'dark'
p4233
aS'they'
p4234
aS'climbed'
p4235
aS'into'
p4236
aS'a'
p4237
aS'tree'
p4238
aS'and'
p4239
aS'resolved'
p4240
aS'to'
p4241
aS'spend'
p4242
aS'the'
p4243
aS'night'
p4244
aS'there'
p4245
aS'.'
p4246
asg51
(lp4247
VAt
p4248
aVlength
p4249
ag57
aVit
p4250
aVgrow
p4251
aVdark
p4252
aVthey
p4253
aVclimb
p4254
aVinto
p4255
ag57
aVtree
p4256
aVand
p4257
aVresolve
p4258
aVto
p4259
aVspend
p4260
aVthe
p4261
aVnight
p4262
aVthere
p4263
ag78
asg79
(lp4264
g81
ag81
ag81
ag81
ag81
ag81
ag81
ag81
ag81
ag81
ag81
ag81
ag81
ag81
ag81
ag81
ag81
ag81
ag81
asg82
(lp4265
g87
ag89
ag87
ag175
ag85
ag94
ag175
ag85
ag87
ag88
ag94
ag92
ag85
ag288
ag177
ag88
ag89
ag86
ag97
asg98
VAt length as it grew dark they climbed into a tree and resolved to spend the night there.
p4266
sba(i__main__
Sentence
p4267
(dp4268
g17
I81
sg18
(lp4269
S'Scarcely'
p4270
aS','
p4271
aS'however'
p4272
aS','
p4273
aS'had'
p4274
aS'they'
p4275
aS'sat'
p4276
aS'down'
p4277
aS'at'
p4278
aS'the'
p4279
aS'top'
p4280
aS'of'
p4281
aS'it'
p4282
aS'than'
p4283
aS'the'
p4284
aS'rascals'
p4285
aS'came'
p4286
aS'thither'
p4287
aS'who'
p4288
aS'carry'
p4289
aS'away'
p4290
aS'with'
p4291
aS'them'
p4292
aS'what'
p4293
aS'does'
p4294
aS'not'
p4295
aS'want'
p4296
aS'to'
p4297
aS'go'
p4298
aS','
p4299
aS'and'
p4300
aS'find'
p4301
aS'things'
p4302
aS'before'
p4303
aS'they'
p4304
aS'are'
p4305
aS'lost'
p4306
aS'.'
p4307
asg51
(lp4308
VScarcely
p4309
ag67
aVhowever
p4310
ag67
ag69
aVthey
p4311
aVsit
p4312
aVdown
p4313
aVat
p4314
aVthe
p4315
aVtop
p4316
aVof
p4317
aVit
p4318
aVthan
p4319
aVthe
p4320
aVrascal
p4321
ag1294
aVthither
p4322
aVwho
p4323
aVcarry
p4324
aVaway
p4325
aVwith
p4326
aVthem
p4327
aVwhat
p4328
aVdo
p4329
aVnot
p4330
aVwant
p4331
aVto
p4332
aVgo
p4333
ag67
aVand
p4334
aVfind
p4335
aVthing
p4336
aVbefore
p4337
aVthey
p4338
ag1700
aVlose
p4339
ag78
asg79
(lp4340
g81
ag81
ag81
ag81
ag81
ag81
ag81
ag81
ag81
ag81
ag81
ag81
ag81
ag81
ag81
ag81
ag81
ag81
ag81
ag81
ag81
ag81
ag81
ag81
ag81
ag81
ag81
ag81
ag81
ag81
ag81
ag81
ag81
ag81
ag81
ag81
ag81
ag81
asg82
(lp4341
g86
ag93
ag86
ag93
ag85
ag175
ag179
ag95
ag87
ag88
ag94
ag87
ag175
ag87
ag88
ag96
ag85
ag86
ag90
ag86
ag86
ag87
ag175
ag90
ag405
ag86
ag177
ag288
ag177
ag93
ag92
ag177
ag96
ag87
ag175
ag179
ag91
ag97
asg98
VScarcely, however, had they sat down at the top of it than the rascals came thither who carry away with them what does not want to go, and find things before they are lost.
p4342
sba(i__main__
Sentence
p4343
(dp4344
g17
I82
sg18
(lp4345
S'They'
p4346
aS'sat'
p4347
aS'down'
p4348
aS'under'
p4349
aS'the'
p4350
aS'very'
p4351
aS'tree'
p4352
aS'in'
p4353
aS'which'
p4354
aS'frederick'
p4355
aS'and'
p4356
aS'catherine'
p4357
aS'were'
p4358
aS'sitting'
p4359
aS','
p4360
aS'lighted'
p4361
aS'a'
p4362
aS'fire'
p4363
aS','
p4364
aS'and'
p4365
aS'were'
p4366
aS'about'
p4367
aS'to'
p4368
aS'share'
p4369
aS'their'
p4370
aS'booty'
p4371
aS'.'
p4372
asg51
(lp4373
VThey
p4374
ag4312
aVdown
p4375
aVunder
p4376
aVthe
p4377
aVvery
p4378
aVtree
p4379
aVin
p4380
aVwhich
p4381
aVfrederick
p4382
aVand
p4383
aVcatherine
p4384
ag2254
aVsit
p4385
ag67
aVlight
p4386
ag57
aVfire
p4387
ag67
aVand
p4388
ag2254
aVabout
p4389
aVto
p4390
aVshare
p4391
aVtheir
p4392
aVbooty
p4393
ag78
asg79
(lp4394
g81
ag81
ag81
ag81
ag81
ag81
ag81
ag81
ag81
ag81
ag81
ag81
ag81
ag81
ag81
ag81
ag81
ag81
ag81
ag81
ag81
ag81
ag81
ag81
ag81
ag81
ag81
asg82
(lp4395
g175
ag179
ag95
ag87
ag88
ag94
ag89
ag87
ag1161
ag89
ag92
ag89
ag85
ag354
ag93
ag91
ag88
ag89
ag93
ag92
ag85
ag87
ag288
ag177
ag404
ag89
ag97
asg98
VThey sat down under the very tree in which frederick and catherine were sitting, lighted a fire, and were about to share their booty.
p4396
sba(i__main__
Sentence
p4397
(dp4398
g17
I83
sg18
(lp4399
S'Frederick'
p4400
aS'got'
p4401
aS'down'
p4402
aS'on'
p4403
aS'the'
p4404
aS'other'
p4405
aS'side'
p4406
aS'and'
p4407
aS'collected'
p4408
aS'some'
p4409
aS'stones'
p4410
aS'together'
p4411
aS'.'
p4412
asg51
(lp4413
VFrederick
p4414
ag264
aVdown
p4415
aVon
p4416
aVthe
p4417
aVother
p4418
aVside
p4419
aVand
p4420
aVcollect
p4421
aVsome
p4422
aVstone
p4423
aVtogether
p4424
ag78
asg79
(lp4425
VPERSON
p4426
ag81
ag81
ag81
ag81
ag81
ag81
ag81
ag81
ag81
ag81
ag81
ag81
asg82
(lp4427
g556
ag85
ag95
ag87
ag88
ag94
ag89
ag92
ag85
ag88
ag96
ag86
ag97
asg98
VFrederick got down on the other side and collected some stones together.
p4428
sba(i__main__
Sentence
p4429
(dp4430
g17
I84
sg18
(lp4431
S'Then'
p4432
aS'he'
p4433
aS'climbed'
p4434
aS'up'
p4435
aS'again'
p4436
aS'with'
p4437
aS'them'
p4438
aS','
p4439
aS'and'
p4440
aS'wished'
p4441
aS'to'
p4442
aS'throw'
p4443
aS'them'
p4444
aS'at'
p4445
aS'the'
p4446
aS'thieves'
p4447
aS'and'
p4448
aS'kill'
p4449
aS'them'
p4450
aS'.'
p4451
asg51
(lp4452
VThen
p4453
aVhe
p4454
aVclimb
p4455
aVup
p4456
aVagain
p4457
aVwith
p4458
aVthem
p4459
ag67
aVand
p4460
aVwish
p4461
aVto
p4462
aVthrow
p4463
aVthem
p4464
aVat
p4465
aVthe
p4466
ag2462
aVand
p4467
aVkill
p4468
aVthem
p4469
ag78
asg79
(lp4470
g81
ag81
ag81
ag81
ag81
ag81
ag81
ag81
ag81
ag81
ag81
ag81
ag81
ag81
ag81
ag81
ag81
ag81
ag81
ag81
asg82
(lp4471
g86
ag175
ag85
ag95
ag86
ag87
ag175
ag93
ag92
ag85
ag288
ag177
ag175
ag87
ag88
ag96
ag92
ag179
ag175
ag97
asg98
VThen he climbed up again with them, and wished to throw them at the thieves and kill them.
p4472
sba(i__main__
Sentence
p4473
(dp4474
g17
I85
sg18
(lp4475
S'The'
p4476
aS'stones'
p4477
aS','
p4478
aS'however'
p4479
aS','
p4480
aS'did'
p4481
aS'not'
p4482
aS'hit'
p4483
aS'them'
p4484
aS','
p4485
aS'and'
p4486
aS'the'
p4487
aS'knaves'
p4488
aS'cried'
p4489
aS','
p4490
aS'it'
p4491
aS'will'
p4492
aS'soon'
p4493
aS'be'
p4494
aS'morning'
p4495
aS','
p4496
aS'the'
p4497
aS'wind'
p4498
aS'is'
p4499
aS'shaking'
p4500
aS'down'
p4501
aS'the'
p4502
aS'fir-cones'
p4503
aS'.'
p4504
asg51
(lp4505
VThe
p4506
aVstone
p4507
ag67
aVhowever
p4508
ag67
ag695
aVnot
p4509
aVhit
p4510
aVthem
p4511
ag67
aVand
p4512
aVthe
p4513
aVknave
p4514
ag923
ag67
aVit
p4515
aVwill
p4516
aVsoon
p4517
aVbe
p4518
aVmorning
p4519
ag67
aVthe
p4520
aVwind
p4521
ag390
aVshake
p4522
aVdown
p4523
aVthe
p4524
aVfir-cones
p4525
ag78
asg79
(lp4526
g81
ag81
ag81
ag81
ag81
ag81
ag81
ag81
ag81
ag81
ag81
ag81
ag81
ag81
ag81
ag81
ag81
ag81
ag81
ag81
ag81
ag81
ag81
ag81
ag81
ag81
ag81
ag81
ag81
asg82
(lp4527
g88
ag96
ag93
ag86
ag93
ag85
ag86
ag91
ag175
ag93
ag92
ag88
ag96
ag85
ag93
ag175
ag176
ag86
ag177
ag354
ag93
ag88
ag89
ag405
ag354
ag87
ag88
ag96
ag97
asg98
VThe stones, however, did not hit them, and the knaves cried, it will soon be morning, the wind is shaking down the fir-cones.
p4528
sba(i__main__
Sentence
p4529
(dp4530
g17
I86
sg18
(lp4531
S'Catherine'
p4532
aS'still'
p4533
aS'had'
p4534
aS'the'
p4535
aS'door'
p4536
aS'on'
p4537
aS'her'
p4538
aS'back'
p4539
aS','
p4540
aS'and'
p4541
aS'as'
p4542
aS'it'
p4543
aS'pressed'
p4544
aS'so'
p4545
aS'heavily'
p4546
aS'on'
p4547
aS'her'
p4548
aS','
p4549
aS'she'
p4550
aS'thought'
p4551
aS'it'
p4552
aS'was'
p4553
aS'the'
p4554
aS'fault'
p4555
aS'of'
p4556
aS'the'
p4557
aS'dried'
p4558
aS'pears'
p4559
aS','
p4560
aS'and'
p4561
aS'said'
p4562
aS','
p4563
aS'frederick'
p4564
aS','
p4565
aS'I'
p4566
aS'must'
p4567
aS'throw'
p4568
aS'the'
p4569
aS'pears'
p4570
aS'down'
p4571
aS'.'
p4572
asg51
(lp4573
VCatherine
p4574
aVstill
p4575
ag69
aVthe
p4576
aVdoor
p4577
aVon
p4578
aVher
p4579
aVback
p4580
ag67
aVand
p4581
ag57
aVit
p4582
aVpress
p4583
aVso
p4584
aVheavily
p4585
aVon
p4586
aVher
p4587
ag67
aVshe
p4588
ag495
aVit
p4589
ag54
aVthe
p4590
aVfault
p4591
aVof
p4592
aVthe
p4593
aVdried
p4594
aVpear
p4595
ag67
aVand
p4596
ag145
ag67
aVfrederick
p4597
ag67
ag146
aVmust
p4598
aVthrow
p4599
aVthe
p4600
aVpear
p4601
aVdown
p4602
ag78
asg79
(lp4603
VPERSON
p4604
ag81
ag81
ag81
ag81
ag81
ag81
ag81
ag81
ag81
ag81
ag81
ag81
ag81
ag81
ag81
ag81
ag81
ag81
ag81
ag81
ag81
ag81
ag81
ag81
ag81
ag81
ag81
ag81
ag81
ag81
ag81
ag81
ag81
ag81
ag81
ag81
ag81
ag81
ag81
ag81
asg82
(lp4605
g556
ag86
ag85
ag88
ag89
ag87
ag404
ag89
ag93
ag92
ag87
ag175
ag85
ag86
ag86
ag87
ag404
ag93
ag175
ag85
ag175
ag85
ag88
ag89
ag87
ag88
ag94
ag96
ag93
ag92
ag85
ag93
ag89
ag93
ag175
ag176
ag177
ag88
ag96
ag87
ag97
asg98
VCatherine still had the door on her back, and as it pressed so heavily on her, she thought it was the fault of the dried pears, and said, frederick, I must throw the pears down.
p4606
sba(i__main__
Sentence
p4607
(dp4608
g17
I87
sg18
(lp4609
S'No'
p4610
aS','
p4611
aS'catherine'
p4612
aS','
p4613
aS'not'
p4614
aS'now'
p4615
aS','
p4616
aS'he'
p4617
aS'replied'
p4618
aS','
p4619
aS'they'
p4620
aS'might'
p4621
aS'betray'
p4622
aS'us'
p4623
aS'.'
p4624
asg51
(lp4625
VNo
p4626
ag67
aVcatherine
p4627
ag67
aVnot
p4628
aVnow
p4629
ag67
aVhe
p4630
aVreply
p4631
ag67
aVthey
p4632
aVmight
p4633
aVbetray
p4634
ag1943
ag78
asg79
(lp4635
g81
ag81
ag81
ag81
ag81
ag81
ag81
ag81
ag81
ag81
ag81
ag81
ag81
ag81
ag81
asg82
(lp4636
g88
ag93
ag89
ag93
ag86
ag86
ag93
ag175
ag85
ag93
ag175
ag176
ag177
ag175
ag97
asg98
VNo, catherine, not now, he replied, they might betray us.
p4637
sba(i__main__
Sentence
p4638
(dp4639
g17
I88
sg18
(lp4640
S'Oh'
p4641
aS','
p4642
aS'but'
p4643
aS','
p4644
aS'frederick'
p4645
aS','
p4646
aS'I'
p4647
aS'must'
p4648
aS'.'
p4649
asg51
(lp4650
VOh
p4651
ag67
aVbut
p4652
ag67
aVfrederick
p4653
ag67
ag146
aVmust
p4654
ag78
asg79
(lp4655
g81
ag81
ag81
ag81
ag81
ag81
ag81
ag81
ag81
asg82
(lp4656
g1910
ag93
ag92
ag93
ag179
ag93
ag175
ag176
ag97
asg98
VOh, but, frederick, I must.
p4657
sba(i__main__
Sentence
p4658
(dp4659
g17
I89
sg18
(lp4660
S'They'
p4661
aS'weigh'
p4662
aS'me'
p4663
aS'down'
p4664
aS'far'
p4665
aS'too'
p4666
aS'much'
p4667
aS'.'
p4668
asg51
(lp4669
VThey
p4670
aVweigh
p4671
aVme
p4672
aVdown
p4673
aVfar
p4674
aVtoo
p4675
aVmuch
p4676
ag78
asg79
(lp4677
g81
ag81
ag81
ag81
ag81
ag81
ag81
ag81
asg82
(lp4678
g175
ag179
ag175
ag87
ag86
ag86
ag86
ag97
asg98
VThey weigh me down far too much.
p4679
sba(i__main__
Sentence
p4680
(dp4681
g17
I90
sg18
(lp4682
S'Do'
p4683
aS'it'
p4684
aS','
p4685
aS'then'
p4686
aS','
p4687
aS'and'
p4688
aS'be'
p4689
aS'hanged'
p4690
aS'.'
p4691
asg51
(lp4692
VDo
p4693
aVit
p4694
ag67
aVthen
p4695
ag67
aVand
p4696
aVbe
p4697
aVhang
p4698
ag78
asg79
(lp4699
g81
ag81
ag81
ag81
ag81
ag81
ag81
ag81
ag81
asg82
(lp4700
g556
ag175
ag93
ag86
ag93
ag92
ag177
ag91
ag97
asg98
VDo it, then, and be hanged.
p4701
sba(i__main__
Sentence
p4702
(dp4703
g17
I91
sg18
(lp4704
S'Then'
p4705
aS'the'
p4706
aS'dried'
p4707
aS'pears'
p4708
aS'rolled'
p4709
aS'down'
p4710
aS'between'
p4711
aS'the'
p4712
aS'branches'
p4713
aS','
p4714
aS'and'
p4715
aS'the'
p4716
aS'rascals'
p4717
aS'below'
p4718
aS'said'
p4719
aS','
p4720
aS'those'
p4721
aS'are'
p4722
aS'birds'
p4723
aS','
p4724
aS'droppings'
p4725
aS'.'
p4726
asg51
(lp4727
VThen
p4728
aVthe
p4729
aVdried
p4730
aVpear
p4731
aVroll
p4732
aVdown
p4733
aVbetween
p4734
aVthe
p4735
aVbranch
p4736
ag67
aVand
p4737
aVthe
p4738
aVrascal
p4739
aVbelow
p4740
ag145
ag67
aVthose
p4741
ag1700
aVbird
p4742
ag67
aVdroppings
p4743
ag78
asg79
(lp4744
g81
ag81
ag81
ag81
ag81
ag81
ag81
ag81
ag81
ag81
ag81
ag81
ag81
ag81
ag81
ag81
ag81
ag81
ag81
ag81
ag81
ag81
asg82
(lp4745
g86
ag88
ag94
ag96
ag85
ag87
ag87
ag88
ag96
ag93
ag92
ag88
ag96
ag87
ag85
ag93
ag88
ag179
ag96
ag93
ag96
ag97
asg98
VThen the dried pears rolled down between the branches, and the rascals below said, those are birds, droppings.
p4746
sba(i__main__
Sentence
p4747
(dp4748
g17
I92
sg18
(lp4749
S'A'
p4750
aS'short'
p4751
aS'time'
p4752
aS'afterwards'
p4753
aS','
p4754
aS'as'
p4755
aS'the'
p4756
aS'door'
p4757
aS'was'
p4758
aS'still'
p4759
aS'heavy'
p4760
aS','
p4761
aS'catherine'
p4762
aS'said'
p4763
aS','
p4764
aS'ah'
p4765
aS','
p4766
aS'frederick'
p4767
aS','
p4768
aS'I'
p4769
aS'must'
p4770
aS'pour'
p4771
aS'out'
p4772
aS'the'
p4773
aS'vinegar'
p4774
aS'.'
p4775
asg51
(lp4776
VA
p4777
aVshort
p4778
aVtime
p4779
aVafterwards
p4780
ag67
ag57
aVthe
p4781
aVdoor
p4782
ag54
aVstill
p4783
aVheavy
p4784
ag67
aVcatherine
p4785
ag145
ag67
aVah
p4786
ag67
aVfrederick
p4787
ag67
ag146
aVmust
p4788
aVpour
p4789
aVout
p4790
aVthe
p4791
aVvinegar
p4792
ag78
asg79
(lp4793
g81
ag81
ag81
ag81
ag81
ag81
ag81
ag81
ag81
ag81
ag81
ag81
ag81
ag81
ag81
ag81
ag81
ag81
ag81
ag81
ag81
ag81
ag81
ag81
ag81
ag81
asg82
(lp4794
g88
ag94
ag89
ag96
ag93
ag87
ag88
ag89
ag85
ag86
ag94
ag93
ag89
ag85
ag93
ag89
ag93
ag89
ag93
ag175
ag176
ag177
ag95
ag88
ag89
ag97
asg98
VA short time afterwards, as the door was still heavy, catherine said, ah, frederick, I must pour out the vinegar.
p4795
sba(i__main__
Sentence
p4796
(dp4797
g17
I93
sg18
(lp4798
S'No'
p4799
aS','
p4800
aS'catherine'
p4801
aS','
p4802
aS'you'
p4803
aS'must'
p4804
aS'not'
p4805
aS','
p4806
aS'it'
p4807
aS'might'
p4808
aS'betray'
p4809
aS'us'
p4810
aS'.'
p4811
asg51
(lp4812
VNo
p4813
ag67
aVcatherine
p4814
ag67
aVyou
p4815
aVmust
p4816
aVnot
p4817
ag67
aVit
p4818
aVmight
p4819
aVbetray
p4820
ag1943
ag78
asg79
(lp4821
g81
ag81
ag81
ag81
ag81
ag81
ag81
ag81
ag81
ag81
ag81
ag81
ag81
asg82
(lp4822
g88
ag93
ag89
ag93
ag175
ag176
ag86
ag93
ag175
ag176
ag177
ag175
ag97
asg98
VNo, catherine, you must not, it might betray us.
p4823
sba(i__main__
Sentence
p4824
(dp4825
g17
I94
sg18
(lp4826
S'Ah'
p4827
aS','
p4828
aS'but'
p4829
aS','
p4830
aS'frederick'
p4831
aS','
p4832
aS'I'
p4833
aS'must'
p4834
aS','
p4835
aS'it'
p4836
aS'weighs'
p4837
aS'me'
p4838
aS'down'
p4839
aS'far'
p4840
aS'too'
p4841
aS'much'
p4842
aS'.'
p4843
asg51
(lp4844
VAh
p4845
ag67
aVbut
p4846
ag67
aVfrederick
p4847
ag67
ag146
aVmust
p4848
ag67
aVit
p4849
aVweigh
p4850
aVme
p4851
aVdown
p4852
aVfar
p4853
aVtoo
p4854
aVmuch
p4855
ag78
asg79
(lp4856
g81
ag81
ag81
ag81
ag81
ag81
ag81
ag81
ag81
ag81
ag81
ag81
ag81
ag81
ag81
ag81
ag81
asg82
(lp4857
g556
ag93
ag92
ag93
ag179
ag93
ag175
ag176
ag93
ag175
ag405
ag175
ag87
ag86
ag86
ag86
ag97
asg98
VAh, but, frederick, I must, it weighs me down far too much.
p4858
sba(i__main__
Sentence
p4859
(dp4860
g17
I95
sg18
(lp4861
S'Then'
p4862
aS'do'
p4863
aS'it'
p4864
aS'and'
p4865
aS'be'
p4866
aS'hanged'
p4867
aS'.'
p4868
asg51
(lp4869
VThen
p4870
aVdo
p4871
aVit
p4872
aVand
p4873
aVbe
p4874
aVhang
p4875
ag78
asg79
(lp4876
g81
ag81
ag81
ag81
ag81
ag81
ag81
asg82
(lp4877
g86
ag179
ag175
ag92
ag177
ag91
ag97
asg98
VThen do it and be hanged.
p4878
sba(i__main__
Sentence
p4879
(dp4880
g17
I96
sg18
(lp4881
S'So'
p4882
aS'she'
p4883
aS'emptied'
p4884
aS'out'
p4885
aS'the'
p4886
aS'vinegar'
p4887
aS','
p4888
aS'and'
p4889
aS'it'
p4890
aS'spattered'
p4891
aS'over'
p4892
aS'the'
p4893
aS'robbers'
p4894
aS'.'
p4895
asg51
(lp4896
VSo
p4897
aVshe
p4898
aVempty
p4899
aVout
p4900
aVthe
p4901
aVvinegar
p4902
ag67
aVand
p4903
aVit
p4904
aVspatter
p4905
aVover
p4906
aVthe
p4907
aVrobber
p4908
ag78
asg79
(lp4909
g81
ag81
ag81
ag81
ag81
ag81
ag81
ag81
ag81
ag81
ag81
ag81
ag81
ag81
asg82
(lp4910
g87
ag175
ag85
ag95
ag88
ag89
ag93
ag92
ag175
ag85
ag87
ag88
ag96
ag97
asg98
VSo she emptied out the vinegar, and it spattered over the robbers.
p4911
sba(i__main__
Sentence
p4912
(dp4913
g17
I97
sg18
(lp4914
S'They'
p4915
aS'said'
p4916
aS'amongst'
p4917
aS'themselves'
p4918
aS','
p4919
aS'the'
p4920
aS'dew'
p4921
aS'is'
p4922
aS'already'
p4923
aS'falling'
p4924
aS'.'
p4925
asg51
(lp4926
VThey
p4927
ag145
aVamongst
p4928
aVthemselves
p4929
ag67
aVthe
p4930
aVdew
p4931
ag390
aValready
p4932
aVfall
p4933
ag78
asg79
(lp4934
g81
ag81
ag81
ag81
ag81
ag81
ag81
ag81
ag81
ag81
ag81
asg82
(lp4935
g175
ag85
ag94
ag96
ag93
ag88
ag89
ag405
ag86
ag354
ag97
asg98
VThey said amongst themselves, the dew is already falling.
p4936
sba(i__main__
Sentence
p4937
(dp4938
g17
I98
sg18
(lp4939
S'At'
p4940
aS'length'
p4941
aS'catherine'
p4942
aS'thought'
p4943
aS','
p4944
aS'can'
p4945
aS'it'
p4946
aS'really'
p4947
aS'be'
p4948
aS'the'
p4949
aS'door'
p4950
aS'which'
p4951
aS'weighs'
p4952
aS'me'
p4953
aS'down'
p4954
aS'so'
p4955
aS','
p4956
aS'and'
p4957
aS'said'
p4958
aS','
p4959
aS'frederick'
p4960
aS','
p4961
aS'I'
p4962
aS'must'
p4963
aS'throw'
p4964
aS'the'
p4965
aS'door'
p4966
aS'down'
p4967
aS'.'
p4968
asg51
(lp4969
VAt
p4970
aVlength
p4971
aVcatherine
p4972
ag495
ag67
aVcan
p4973
aVit
p4974
aVreally
p4975
aVbe
p4976
aVthe
p4977
aVdoor
p4978
aVwhich
p4979
aVweighs
p4980
aVme
p4981
aVdown
p4982
aVso
p4983
ag67
aVand
p4984
ag145
ag67
aVfrederick
p4985
ag67
ag146
aVmust
p4986
aVthrow
p4987
aVthe
p4988
aVdoor
p4989
aVdown
p4990
ag78
asg79
(lp4991
g81
ag81
ag81
ag81
ag81
ag81
ag81
ag81
ag81
ag81
ag81
ag81
ag81
ag81
ag81
ag81
ag81
ag81
ag81
ag81
ag81
ag81
ag81
ag81
ag81
ag81
ag81
ag81
ag81
asg82
(lp4992
g87
ag89
ag89
ag85
ag93
ag176
ag175
ag86
ag177
ag88
ag89
ag1161
ag96
ag175
ag87
ag86
ag93
ag92
ag85
ag93
ag89
ag93
ag175
ag176
ag177
ag88
ag89
ag87
ag97
asg98
VAt length catherine thought, can it really be the door which weighs me down so, and said, frederick, I must throw the door down.
p4993
sba(i__main__
Sentence
p4994
(dp4995
g17
I99
sg18
(lp4996
S'No'
p4997
aS','
p4998
aS'not'
p4999
aS'now'
p5000
aS','
p5001
aS'catherine'
p5002
aS','
p5003
aS'it'
p5004
aS'might'
p5005
aS'betray'
p5006
aS'us'
p5007
aS'.'
p5008
asg51
(lp5009
VNo
p5010
ag67
aVnot
p5011
aVnow
p5012
ag67
aVcatherine
p5013
ag67
aVit
p5014
aVmight
p5015
aVbetray
p5016
ag1943
ag78
asg79
(lp5017
g81
ag81
ag81
ag81
ag81
ag81
ag81
ag81
ag81
ag81
ag81
ag81
asg82
(lp5018
g88
ag93
ag86
ag86
ag93
ag89
ag93
ag175
ag176
ag177
ag175
ag97
asg98
VNo, not now, catherine, it might betray us.
p5019
sba(i__main__
Sentence
p5020
(dp5021
g17
I100
sg18
(lp5022
S'Oh'
p5023
aS','
p5024
aS'but'
p5025
aS','
p5026
aS'frederick'
p5027
aS','
p5028
aS'I'
p5029
aS'must'
p5030
aS'.'
p5031
asg51
(lp5032
VOh
p5033
ag67
aVbut
p5034
ag67
aVfrederick
p5035
ag67
ag146
aVmust
p5036
ag78
asg79
(lp5037
g81
ag81
ag81
ag81
ag81
ag81
ag81
ag81
ag81
asg82
(lp5038
g1910
ag93
ag92
ag93
ag179
ag93
ag175
ag176
ag97
asg98
VOh, but, frederick, I must.
p5039
sba(i__main__
Sentence
p5040
(dp5041
g17
I101
sg18
(lp5042
S'It'
p5043
aS'weighs'
p5044
aS'me'
p5045
aS'down'
p5046
aS'far'
p5047
aS'too'
p5048
aS'much'
p5049
aS'.'
p5050
asg51
(lp5051
VIt
p5052
aVweigh
p5053
aVme
p5054
aVdown
p5055
aVfar
p5056
aVtoo
p5057
aVmuch
p5058
ag78
asg79
(lp5059
g81
ag81
ag81
ag81
ag81
ag81
ag81
ag81
asg82
(lp5060
g175
ag405
ag175
ag87
ag86
ag86
ag86
ag97
asg98
VIt weighs me down far too much.
p5061
sba(i__main__
Sentence
p5062
(dp5063
g17
I102
sg18
(lp5064
S'Oh'
p5065
aS','
p5066
aS'no'
p5067
aS','
p5068
aS'catherine'
p5069
aS','
p5070
aS'do'
p5071
aS'hold'
p5072
aS'it'
p5073
aS'fast'
p5074
aS'.'
p5075
asg51
(lp5076
VOh
p5077
ag67
aVno
p5078
ag67
aVcatherine
p5079
ag67
aVdo
p5080
aVhold
p5081
aVit
p5082
aVfast
p5083
ag78
asg79
(lp5084
g81
ag81
ag81
ag81
ag81
ag81
ag81
ag81
ag81
ag81
ag81
asg82
(lp5085
g1910
ag93
ag88
ag93
ag89
ag93
ag179
ag91
ag175
ag86
ag97
asg98
VOh, no, catherine, do hold it fast.
p5086
sba(i__main__
Sentence
p5087
(dp5088
g17
I103
sg18
(lp5089
S'Ah'
p5090
aS','
p5091
aS'frederick'
p5092
aS','
p5093
aS'I'
p5094
aS'am'
p5095
aS'letting'
p5096
aS'it'
p5097
aS'fall'
p5098
aS'.'
p5099
asg51
(lp5100
VAh
p5101
ag67
aVfrederick
p5102
ag67
ag146
ag2008
aVlet
p5103
aVit
p5104
aVfall
p5105
ag78
asg79
(lp5106
g81
ag81
ag81
ag81
ag81
ag81
ag81
ag81
ag81
ag81
asg82
(lp5107
g556
ag93
ag89
ag93
ag175
ag179
ag354
ag175
ag176
ag97
asg98
VAh, frederick, I am letting it fall.
p5108
sba(i__main__
Sentence
p5109
(dp5110
g17
I104
sg18
(lp5111
S'Let'
p5112
aS'it'
p5113
aS'go'
p5114
aS','
p5115
aS'then'
p5116
aS','
p5117
aS'in'
p5118
aS'the'
p5119
aS'devil'
p5120
aS"'s"
p5121
aS'name'
p5122
aS'.'
p5123
asg51
(lp5124
VLet
p5125
aVit
p5126
aVgo
p5127
ag67
aVthen
p5128
ag67
aVin
p5129
aVthe
p5130
aVdevil
p5131
aV's
p5132
aVname
p5133
ag78
asg79
(lp5134
g81
ag81
ag81
ag81
ag81
ag81
ag81
ag81
ag81
ag81
ag81
ag81
asg82
(lp5135
g556
ag175
ag179
ag93
ag86
ag93
ag87
ag88
ag89
ag1739
ag89
ag97
asg98
VLet it go, then, in the devil's name.
p5136
sba(i__main__
Sentence
p5137
(dp5138
g17
I105
sg18
(lp5139
S'Then'
p5140
aS'it'
p5141
aS'fell'
p5142
aS'down'
p5143
aS'with'
p5144
aS'a'
p5145
aS'violent'
p5146
aS'clatter'
p5147
aS','
p5148
aS'and'
p5149
aS'the'
p5150
aS'rascals'
p5151
aS'below'
p5152
aS'cried'
p5153
aS','
p5154
aS'the'
p5155
aS'devil'
p5156
aS'is'
p5157
aS'coming'
p5158
aS'down'
p5159
aS'the'
p5160
aS'tree'
p5161
aS','
p5162
aS'and'
p5163
aS'they'
p5164
aS'ran'
p5165
aS'away'
p5166
aS'and'
p5167
aS'left'
p5168
aS'everything'
p5169
aS'behind'
p5170
aS'them'
p5171
aS'.'
p5172
asg51
(lp5173
VThen
p5174
aVit
p5175
aVfell
p5176
aVdown
p5177
aVwith
p5178
ag57
aVviolent
p5179
aVclatter
p5180
ag67
aVand
p5181
aVthe
p5182
aVrascal
p5183
aVbelow
p5184
aVcried
p5185
ag67
aVthe
p5186
aVdevil
p5187
ag390
aVcome
p5188
aVdown
p5189
aVthe
p5190
aVtree
p5191
ag67
aVand
p5192
aVthey
p5193
ag484
aVaway
p5194
aVand
p5195
ag2076
aVeverything
p5196
aVbehind
p5197
aVthem
p5198
ag78
asg79
(lp5199
g81
ag81
ag81
ag81
ag81
ag81
ag81
ag81
ag81
ag81
ag81
ag81
ag81
ag81
ag81
ag81
ag81
ag81
ag81
ag81
ag81
ag81
ag81
ag81
ag81
ag81
ag81
ag81
ag81
ag81
ag81
ag81
ag81
asg82
(lp5200
g86
ag175
ag85
ag95
ag87
ag88
ag89
ag89
ag93
ag92
ag88
ag96
ag87
ag94
ag93
ag88
ag89
ag405
ag354
ag87
ag88
ag89
ag93
ag92
ag175
ag85
ag86
ag92
ag91
ag89
ag87
ag175
ag97
asg98
VThen it fell down with a violent clatter, and the rascals below cried, the devil is coming down the tree, and they ran away and left everything behind them.
p5201
sba(i__main__
Sentence
p5202
(dp5203
g17
I106
sg18
(lp5204
S'Early'
p5205
aS'next'
p5206
aS'morning'
p5207
aS','
p5208
aS'when'
p5209
aS'the'
p5210
aS'two'
p5211
aS'came'
p5212
aS'down'
p5213
aS'they'
p5214
aS'found'
p5215
aS'all'
p5216
aS'their'
p5217
aS'gold'
p5218
aS'again'
p5219
aS','
p5220
aS'and'
p5221
aS'carried'
p5222
aS'it'
p5223
aS'home'
p5224
aS'.'
p5225
asg51
(lp5226
VEarly
p5227
aVnext
p5228
aVmorning
p5229
ag67
aVwhen
p5230
aVthe
p5231
aVtwo
p5232
ag1294
aVdown
p5233
aVthey
p5234
ag2037
aVall
p5235
aVtheir
p5236
aVgold
p5237
aVagain
p5238
ag67
aVand
p5239
ag1132
aVit
p5240
aVhome
p5241
ag78
asg79
(lp5242
g81
ag81
ag81
ag81
ag81
ag81
ag81
ag81
ag81
ag81
ag81
ag81
ag81
ag81
ag81
ag81
ag81
ag81
ag81
ag81
ag81
asg82
(lp5243
g86
ag94
ag89
ag93
ag178
ag88
ag174
ag85
ag87
ag175
ag85
ag219
ag404
ag89
ag86
ag93
ag92
ag85
ag175
ag89
ag97
asg98
VEarly next morning, when the two came down they found all their gold again, and carried it home.
p5244
sba(i__main__
Sentence
p5245
(dp5246
g17
I107
sg18
(lp5247
S'When'
p5248
aS'they'
p5249
aS'were'
p5250
aS'once'
p5251
aS'more'
p5252
aS'at'
p5253
aS'home'
p5254
aS','
p5255
aS'frederick'
p5256
aS'said'
p5257
aS','
p5258
aS'and'
p5259
aS'now'
p5260
aS','
p5261
aS'catherine'
p5262
aS','
p5263
aS'you'
p5264
aS','
p5265
aS'too'
p5266
aS','
p5267
aS'must'
p5268
aS'be'
p5269
aS'industrious'
p5270
aS'and'
p5271
aS'work'
p5272
aS'.'
p5273
asg51
(lp5274
VWhen
p5275
aVthey
p5276
ag2254
aVonce
p5277
aVmore
p5278
aVat
p5279
aVhome
p5280
ag67
aVfrederick
p5281
ag145
ag67
aVand
p5282
aVnow
p5283
ag67
aVcatherine
p5284
ag67
aVyou
p5285
ag67
aVtoo
p5286
ag67
aVmust
p5287
aVbe
p5288
aVindustrious
p5289
aVand
p5290
aVwork
p5291
ag78
asg79
(lp5292
g81
ag81
ag81
ag81
ag81
ag81
ag81
ag81
ag81
ag81
ag81
ag81
ag81
ag81
ag81
ag81
ag81
ag81
ag81
ag81
ag81
ag81
ag81
ag81
ag81
ag81
asg82
(lp5293
g178
ag175
ag85
ag86
ag1609
ag87
ag89
ag93
ag89
ag85
ag93
ag92
ag86
ag93
ag89
ag93
ag175
ag93
ag86
ag93
ag176
ag177
ag94
ag92
ag89
ag97
asg98
VWhen they were once more at home, frederick said, and now, catherine, you, too, must be industrious and work.
p5294
sba(i__main__
Sentence
p5295
(dp5296
g17
I108
sg18
(lp5297
S'Yes'
p5298
aS','
p5299
aS'frederick'
p5300
aS','
p5301
aS'I'
p5302
aS'will'
p5303
aS'soon'
p5304
aS'do'
p5305
aS'that'
p5306
aS','
p5307
aS'I'
p5308
aS'will'
p5309
aS'go'
p5310
aS'into'
p5311
aS'the'
p5312
aS'field'
p5313
aS'and'
p5314
aS'cut'
p5315
aS'corn'
p5316
aS'.'
p5317
asg51
(lp5318
VYes
p5319
ag67
aVfrederick
p5320
ag67
ag146
aVwill
p5321
aVsoon
p5322
aVdo
p5323
aVthat
p5324
ag67
ag146
aVwill
p5325
aVgo
p5326
aVinto
p5327
aVthe
p5328
aVfield
p5329
aVand
p5330
aVcut
p5331
aVcorn
p5332
ag78
asg79
(lp5333
g81
ag81
ag81
ag81
ag81
ag81
ag81
ag81
ag81
ag81
ag81
ag81
ag81
ag81
ag81
ag81
ag81
ag81
ag81
ag81
asg82
(lp5334
g96
ag93
ag179
ag93
ag175
ag176
ag86
ag177
ag88
ag93
ag175
ag176
ag177
ag87
ag88
ag89
ag92
ag85
ag89
ag97
asg98
VYes, frederick, I will soon do that, I will go into the field and cut corn.
p5335
sba(i__main__
Sentence
p5336
(dp5337
g17
I109
sg18
(lp5338
S'When'
p5339
aS'catherine'
p5340
aS'got'
p5341
aS'into'
p5342
aS'the'
p5343
aS'field'
p5344
aS','
p5345
aS'she'
p5346
aS'said'
p5347
aS'to'
p5348
aS'herself'
p5349
aS','
p5350
aS'shall'
p5351
aS'I'
p5352
aS'eat'
p5353
aS'before'
p5354
aS'I'
p5355
aS'cut'
p5356
aS','
p5357
aS'or'
p5358
aS'shall'
p5359
aS'I'
p5360
aS'sleep'
p5361
aS'before'
p5362
aS'I'
p5363
aS'cut'
p5364
aS'.'
p5365
asg51
(lp5366
VWhen
p5367
aVcatherine
p5368
ag264
aVinto
p5369
aVthe
p5370
aVfield
p5371
ag67
aVshe
p5372
ag145
aVto
p5373
aVherself
p5374
ag67
aVshall
p5375
ag146
aVeat
p5376
aVbefore
p5377
ag146
aVcut
p5378
ag67
aVor
p5379
aVshall
p5380
ag146
aVsleep
p5381
aVbefore
p5382
ag146
aVcut
p5383
ag78
asg79
(lp5384
g81
ag81
ag81
ag81
ag81
ag81
ag81
ag81
ag81
ag81
ag81
ag81
ag81
ag81
ag81
ag81
ag81
ag81
ag81
ag81
ag81
ag81
ag81
ag81
ag81
ag81
ag81
asg82
(lp5385
g178
ag89
ag85
ag87
ag88
ag89
ag93
ag175
ag85
ag288
ag175
ag93
ag176
ag175
ag177
ag87
ag175
ag85
ag93
ag92
ag176
ag175
ag177
ag87
ag175
ag85
ag97
asg98
VWhen catherine got into the field, she said to herself, shall I eat before I cut, or shall I sleep before I cut.
p5386
sba(i__main__
Sentence
p5387
(dp5388
g17
I110
sg18
(lp5389
S'Oh'
p5390
aS','
p5391
aS'I'
p5392
aS'will'
p5393
aS'eat'
p5394
aS'first'
p5395
aS'.'
p5396
asg51
(lp5397
VOh
p5398
ag67
ag146
aVwill
p5399
aVeat
p5400
aVfirst
p5401
ag78
asg79
(lp5402
g81
ag81
ag81
ag81
ag81
ag81
ag81
asg82
(lp5403
g1910
ag93
ag175
ag176
ag177
ag94
ag97
asg98
VOh, I will eat first.
p5404
sba(i__main__
Sentence
p5405
(dp5406
g17
I111
sg18
(lp5407
S'Then'
p5408
aS'catherine'
p5409
aS'ate'
p5410
aS'and'
p5411
aS'eating'
p5412
aS'made'
p5413
aS'her'
p5414
aS'sleepy'
p5415
aS','
p5416
aS'and'
p5417
aS'she'
p5418
aS'began'
p5419
aS'to'
p5420
aS'cut'
p5421
aS','
p5422
aS'and'
p5423
aS'half'
p5424
aS'in'
p5425
aS'a'
p5426
aS'dream'
p5427
aS'cut'
p5428
aS'all'
p5429
aS'her'
p5430
aS'clothes'
p5431
aS'to'
p5432
aS'pieces'
p5433
aS','
p5434
aS'her'
p5435
aS'apron'
p5436
aS','
p5437
aS'her'
p5438
aS'gown'
p5439
aS','
p5440
aS'and'
p5441
aS'her'
p5442
aS'shift'
p5443
aS'.'
p5444
asg51
(lp5445
VThen
p5446
aVcatherine
p5447
aVate
p5448
aVand
p5449
aVeat
p5450
aVmade
p5451
aVher
p5452
aVsleepy
p5453
ag67
aVand
p5454
aVshe
p5455
ag328
aVto
p5456
aVcut
p5457
ag67
aVand
p5458
aVhalf
p5459
aVin
p5460
ag57
aVdream
p5461
aVcut
p5462
aVall
p5463
aVher
p5464
aVclothe
p5465
aVto
p5466
aVpiece
p5467
ag67
aVher
p5468
aVapron
p5469
ag67
aVher
p5470
aVgown
p5471
ag67
aVand
p5472
aVher
p5473
aVshift
p5474
ag78
asg79
(lp5475
g81
ag81
ag81
ag81
ag81
ag81
ag81
ag81
ag81
ag81
ag81
ag81
ag81
ag81
ag81
ag81
ag81
ag81
ag81
ag81
ag81
ag81
ag81
ag81
ag81
ag81
ag81
ag81
ag81
ag81
ag81
ag81
ag81
ag81
ag81
ag81
ag81
asg82
(lp5476
g86
ag179
ag94
ag92
ag354
ag89
ag404
ag89
ag93
ag92
ag175
ag85
ag288
ag177
ag93
ag92
ag88
ag87
ag88
ag89
ag85
ag88
ag175
ag405
ag288
ag96
ag93
ag404
ag89
ag93
ag404
ag89
ag93
ag92
ag404
ag89
ag97
asg98
VThen catherine ate and eating made her sleepy, and she began to cut, and half in a dream cut all her clothes to pieces, her apron, her gown, and her shift.
p5477
sba(i__main__
Sentence
p5478
(dp5479
g17
I112
sg18
(lp5480
S'When'
p5481
aS'catherine'
p5482
aS'awoke'
p5483
aS'again'
p5484
aS'after'
p5485
aS'a'
p5486
aS'long'
p5487
aS'sleep'
p5488
aS'she'
p5489
aS'was'
p5490
aS'standing'
p5491
aS'there'
p5492
aS'half-naked'
p5493
aS','
p5494
aS'and'
p5495
aS'said'
p5496
aS'to'
p5497
aS'herself'
p5498
aS','
p5499
aS'is'
p5500
aS'it'
p5501
aS'I'
p5502
aS','
p5503
aS'or'
p5504
aS'is'
p5505
aS'it'
p5506
aS'not'
p5507
aS'I.'
p5508
aS'Alas'
p5509
aS','
p5510
aS'it'
p5511
aS'is'
p5512
aS'not'
p5513
aS'I'
p5514
aS'.'
p5515
asg51
(lp5516
VWhen
p5517
aVcatherine
p5518
aVawoke
p5519
aVagain
p5520
aVafter
p5521
ag57
aVlong
p5522
aVsleep
p5523
aVshe
p5524
ag54
aVstand
p5525
aVthere
p5526
aVhalf-naked
p5527
ag67
aVand
p5528
ag145
aVto
p5529
aVherself
p5530
ag67
ag390
aVit
p5531
ag146
ag67
aVor
p5532
ag390
aVit
p5533
aVnot
p5534
aVI.
p5535
aVAlas
p5536
ag67
aVit
p5537
ag390
aVnot
p5538
ag146
ag78
asg79
(lp5539
g81
ag81
ag81
ag81
ag81
ag81
ag81
ag81
ag81
ag81
ag81
ag81
ag81
ag81
ag81
ag81
ag81
ag81
ag81
ag81
ag81
ag81
ag81
ag81
ag81
ag81
ag81
ag81
ag81
ag81
ag81
ag81
ag81
ag81
ag81
asg82
(lp5540
g178
ag89
ag89
ag86
ag87
ag88
ag94
ag89
ag175
ag85
ag354
ag86
ag94
ag93
ag92
ag85
ag288
ag175
ag93
ag405
ag175
ag175
ag93
ag92
ag405
ag175
ag86
ag556
ag556
ag93
ag175
ag405
ag86
ag175
ag97
asg98
VWhen catherine awoke again after a long sleep she was standing there half-naked, and said to herself, is it I, or is it not I.  Alas, it is not I.
p5541
sba(i__main__
Sentence
p5542
(dp5543
g17
I113
sg18
(lp5544
S'In'
p5545
aS'the'
p5546
aS'meantime'
p5547
aS'night'
p5548
aS'came'
p5549
aS','
p5550
aS'and'
p5551
aS'catherine'
p5552
aS'ran'
p5553
aS'into'
p5554
aS'the'
p5555
aS'village'
p5556
aS','
p5557
aS'knocked'
p5558
aS'at'
p5559
aS'her'
p5560
aS'husband'
p5561
aS"'s"
p5562
aS'window'
p5563
aS','
p5564
aS'and'
p5565
aS'cried'
p5566
aS','
p5567
aS'frederick'
p5568
aS'.'
p5569
asg51
(lp5570
VIn
p5571
aVthe
p5572
aVmeantime
p5573
aVnight
p5574
ag1294
ag67
aVand
p5575
aVcatherine
p5576
ag484
aVinto
p5577
aVthe
p5578
aVvillage
p5579
ag67
aVknock
p5580
aVat
p5581
aVher
p5582
aVhusband
p5583
aV's
p5584
aVwindow
p5585
ag67
aVand
p5586
ag923
ag67
aVfrederick
p5587
ag78
asg79
(lp5588
g81
ag81
ag81
ag81
ag81
ag81
ag81
ag81
ag81
ag81
ag81
ag81
ag81
ag81
ag81
ag81
ag81
ag81
ag81
ag81
ag81
ag81
ag81
ag81
ag81
asg82
(lp5589
g87
ag88
ag89
ag89
ag85
ag93
ag92
ag89
ag85
ag87
ag88
ag89
ag93
ag85
ag87
ag404
ag89
ag1739
ag89
ag93
ag92
ag85
ag93
ag89
ag97
asg98
VIn the meantime night came, and catherine ran into the village, knocked at her husband's window, and cried, frederick.
p5590
sba(i__main__
Sentence
p5591
(dp5592
g17
I114
sg18
(lp5593
S'What'
p5594
aS'is'
p5595
aS'the'
p5596
aS'matter'
p5597
aS'.'
p5598
asg51
(lp5599
VWhat
p5600
ag390
aVthe
p5601
aVmatter
p5602
ag78
asg79
(lp5603
g81
ag81
ag81
ag81
ag81
asg82
(lp5604
g90
ag405
ag88
ag89
ag97
asg98
VWhat is the matter.
p5605
sba(i__main__
Sentence
p5606
(dp5607
g17
I115
sg18
(lp5608
S'I'
p5609
aS'should'
p5610
aS'very'
p5611
aS'much'
p5612
aS'like'
p5613
aS'to'
p5614
aS'know'
p5615
aS'if'
p5616
aS'catherine'
p5617
aS'is'
p5618
aS'in'
p5619
aS'.'
p5620
asg51
(lp5621
g146
aVshould
p5622
aVvery
p5623
aVmuch
p5624
aVlike
p5625
aVto
p5626
aVknow
p5627
aVif
p5628
aVcatherine
p5629
ag390
aVin
p5630
ag78
asg79
(lp5631
g81
ag81
ag81
ag81
ag81
ag81
ag81
ag81
ag81
ag81
ag81
ag81
asg82
(lp5632
g175
ag176
ag86
ag86
ag87
ag288
ag177
ag87
ag89
ag405
ag87
ag97
asg98
VI should very much like to know if catherine is in.
p5633
sba(i__main__
Sentence
p5634
(dp5635
g17
I116
sg18
(lp5636
S'Yes'
p5637
aS','
p5638
aS'yes'
p5639
aS','
p5640
aS'replied'
p5641
aS'frederick'
p5642
aS','
p5643
aS'she'
p5644
aS'must'
p5645
aS'be'
p5646
aS'in'
p5647
aS'and'
p5648
aS'asleep'
p5649
aS'.'
p5650
asg51
(lp5651
VYes
p5652
ag67
aVyes
p5653
ag67
ag4631
aVfrederick
p5654
ag67
aVshe
p5655
aVmust
p5656
aVbe
p5657
aVin
p5658
aVand
p5659
aVasleep
p5660
ag78
asg79
(lp5661
g81
ag81
ag81
ag81
ag81
ag81
ag81
ag81
ag81
ag81
ag81
ag81
ag81
ag81
asg82
(lp5662
g96
ag93
ag96
ag93
ag85
ag89
ag93
ag175
ag176
ag177
ag87
ag92
ag177
ag97
asg98
VYes, yes, replied frederick, she must be in and asleep.
p5663
sba(i__main__
Sentence
p5664
(dp5665
g17
I117
sg18
(lp5666
S'Said'
p5667
aS'she'
p5668
aS','
p5669
aS'that'
p5670
aS"'s"
p5671
aS'all'
p5672
aS'right'
p5673
aS','
p5674
aS'then'
p5675
aS'I'
p5676
aS'am'
p5677
aS'certainly'
p5678
aS'at'
p5679
aS'home'
p5680
aS'already'
p5681
aS','
p5682
aS'and'
p5683
aS'ran'
p5684
aS'away'
p5685
aS'.'
p5686
asg51
(lp5687
VSaid
p5688
aVshe
p5689
ag67
aVthat
p5690
aV's
p5691
aVall
p5692
aVright
p5693
ag67
aVthen
p5694
ag146
ag2008
aVcertainly
p5695
aVat
p5696
aVhome
p5697
aValready
p5698
ag67
aVand
p5699
ag484
aVaway
p5700
ag78
asg79
(lp5701
VPERSON
p5702
ag81
ag81
ag81
ag81
ag81
ag81
ag81
ag81
ag81
ag81
ag81
ag81
ag81
ag81
ag81
ag81
ag81
ag81
ag81
asg82
(lp5703
g556
ag175
ag93
ag87
ag1739
ag88
ag89
ag93
ag86
ag175
ag179
ag86
ag87
ag89
ag86
ag93
ag92
ag85
ag86
ag97
asg98
VSaid she, that's all right, then I am certainly at home already, and ran away.
p5704
sba(i__main__
Sentence
p5705
(dp5706
g17
I118
sg18
(lp5707
S'Outside'
p5708
aS'catherine'
p5709
aS'found'
p5710
aS'some'
p5711
aS'vagabonds'
p5712
aS'who'
p5713
aS'were'
p5714
aS'going'
p5715
aS'to'
p5716
aS'steal'
p5717
aS'.'
p5718
asg51
(lp5719
VOutside
p5720
aVcatherine
p5721
ag2037
aVsome
p5722
aVvagabond
p5723
aVwho
p5724
ag2254
aVgo
p5725
aVto
p5726
aVsteal
p5727
ag78
asg79
(lp5728
g81
ag81
ag81
ag81
ag81
ag81
ag81
ag81
ag81
ag81
ag81
asg82
(lp5729
g94
ag89
ag85
ag88
ag96
ag90
ag85
ag354
ag288
ag177
ag97
asg98
VOutside catherine found some vagabonds who were going to steal.
p5730
sba(i__main__
Sentence
p5731
(dp5732
g17
I119
sg18
(lp5733
S'Then'
p5734
aS'she'
p5735
aS'went'
p5736
aS'to'
p5737
aS'them'
p5738
aS'and'
p5739
aS'said'
p5740
aS','
p5741
aS'I'
p5742
aS'will'
p5743
aS'help'
p5744
aS'you'
p5745
aS'to'
p5746
aS'steal'
p5747
aS'.'
p5748
asg51
(lp5749
VThen
p5750
aVshe
p5751
ag447
aVto
p5752
aVthem
p5753
aVand
p5754
ag145
ag67
ag146
aVwill
p5755
aVhelp
p5756
aVyou
p5757
aVto
p5758
aVsteal
p5759
ag78
asg79
(lp5760
g81
ag81
ag81
ag81
ag81
ag81
ag81
ag81
ag81
ag81
ag81
ag81
ag81
ag81
ag81
asg82
(lp5761
g86
ag175
ag85
ag288
ag175
ag92
ag85
ag93
ag175
ag176
ag177
ag175
ag288
ag177
ag97
asg98
VThen she went to them and said, I will help you to steal.
p5762
sba(i__main__
Sentence
p5763
(dp5764
g17
I120
sg18
(lp5765
S'The'
p5766
aS'rascals'
p5767
aS'thought'
p5768
aS'that'
p5769
aS'she'
p5770
aS'knew'
p5771
aS'what'
p5772
aS'opportunities'
p5773
aS'the'
p5774
aS'place'
p5775
aS'offered'
p5776
aS','
p5777
aS'and'
p5778
aS'were'
p5779
aS'willing'
p5780
aS'.'
p5781
asg51
(lp5782
VThe
p5783
aVrascal
p5784
ag495
aVthat
p5785
aVshe
p5786
aVknow
p5787
aVwhat
p5788
aVopportunity
p5789
aVthe
p5790
aVplace
p5791
aVoffer
p5792
ag67
aVand
p5793
ag2254
aVwilling
p5794
ag78
asg79
(lp5795
g81
ag81
ag81
ag81
ag81
ag81
ag81
ag81
ag81
ag81
ag81
ag81
ag81
ag81
ag81
ag81
asg82
(lp5796
g88
ag96
ag85
ag87
ag175
ag85
ag90
ag96
ag88
ag89
ag85
ag93
ag92
ag85
ag94
ag97
asg98
VThe rascals thought that she knew what opportunities the place offered, and were willing.
p5797
sba(i__main__
Sentence
p5798
(dp5799
g17
I121
sg18
(lp5800
S'Catherine'
p5801
aS'went'
p5802
aS'in'
p5803
aS'front'
p5804
aS'of'
p5805
aS'the'
p5806
aS'houses'
p5807
aS','
p5808
aS'and'
p5809
aS'cried'
p5810
aS','
p5811
aS'good'
p5812
aS'folks'
p5813
aS','
p5814
aS'have'
p5815
aS'you'
p5816
aS'anything'
p5817
aS'.'
p5818
asg51
(lp5819
VCatherine
p5820
ag447
aVin
p5821
aVfront
p5822
aVof
p5823
aVthe
p5824
aVhouse
p5825
ag67
aVand
p5826
ag923
ag67
aVgood
p5827
aVfolk
p5828
ag67
aVhave
p5829
aVyou
p5830
aVanything
p5831
ag78
asg79
(lp5832
VPERSON
p5833
ag81
ag81
ag81
ag81
ag81
ag81
ag81
ag81
ag81
ag81
ag81
ag81
ag81
ag81
ag81
ag81
ag81
asg82
(lp5834
g556
ag85
ag87
ag89
ag87
ag88
ag96
ag93
ag92
ag85
ag93
ag94
ag96
ag93
ag179
ag175
ag354
ag97
asg98
VCatherine went in front of the houses, and cried, good folks, have you anything.
p5835
sba(i__main__
Sentence
p5836
(dp5837
g17
I122
sg18
(lp5838
S'We'
p5839
aS'want'
p5840
aS'to'
p5841
aS'steal'
p5842
aS'.'
p5843
asg51
(lp5844
VWe
p5845
aVwant
p5846
aVto
p5847
aVsteal
p5848
ag78
asg79
(lp5849
g81
ag81
ag81
ag81
ag81
asg82
(lp5850
g175
ag179
ag288
ag177
ag97
asg98
VWe want to steal.
p5851
sba(i__main__
Sentence
p5852
(dp5853
g17
I123
sg18
(lp5854
S'The'
p5855
aS'thieves'
p5856
aS'thought'
p5857
aS'to'
p5858
aS'themselves'
p5859
aS','
p5860
aS'that'
p5861
aS"'s"
p5862
aS'a'
p5863
aS'fine'
p5864
aS'way'
p5865
aS'of'
p5866
aS'doing'
p5867
aS'things'
p5868
aS','
p5869
aS'and'
p5870
aS'wished'
p5871
aS'themselves'
p5872
aS'once'
p5873
aS'more'
p5874
aS'rid'
p5875
aS'of'
p5876
aS'catherine'
p5877
aS'.'
p5878
asg51
(lp5879
VThe
p5880
ag2462
ag495
aVto
p5881
aVthemselves
p5882
ag67
aVthat
p5883
aV's
p5884
ag57
aVfine
p5885
aVway
p5886
aVof
p5887
aVdo
p5888
aVthing
p5889
ag67
aVand
p5890
aVwish
p5891
aVthemselves
p5892
aVonce
p5893
aVmore
p5894
aVrid
p5895
aVof
p5896
aVcatherine
p5897
ag78
asg79
(lp5898
g81
ag81
ag81
ag81
ag81
ag81
ag81
ag81
ag81
ag81
ag81
ag81
ag81
ag81
ag81
ag81
ag81
ag81
ag81
ag81
ag81
ag81
ag81
ag81
asg82
(lp5899
g88
ag96
ag85
ag288
ag175
ag93
ag87
ag1739
ag88
ag89
ag89
ag87
ag354
ag96
ag93
ag92
ag85
ag175
ag86
ag1609
ag94
ag87
ag89
ag97
asg98
VThe thieves thought to themselves, that's a fine way of doing things, and wished themselves once more rid of catherine.
p5900
sba(i__main__
Sentence
p5901
(dp5902
g17
I124
sg18
(lp5903
S'Then'
p5904
aS'they'
p5905
aS'said'
p5906
aS'to'
p5907
aS'her'
p5908
aS','
p5909
aS'outside'
p5910
aS'the'
p5911
aS'village'
p5912
aS'the'
p5913
aS'pastor'
p5914
aS'has'
p5915
aS'some'
p5916
aS'turnips'
p5917
aS'in'
p5918
aS'the'
p5919
aS'field'
p5920
aS'.'
p5921
asg51
(lp5922
VThen
p5923
aVthey
p5924
ag145
aVto
p5925
aVher
p5926
ag67
aVoutside
p5927
aVthe
p5928
aVvillage
p5929
aVthe
p5930
aVpastor
p5931
ag1117
aVsome
p5932
aVturnip
p5933
aVin
p5934
aVthe
p5935
aVfield
p5936
ag78
asg79
(lp5937
g81
ag81
ag81
ag81
ag81
ag81
ag81
ag81
ag81
ag81
ag81
ag81
ag81
ag81
ag81
ag81
ag81
ag81
asg82
(lp5938
g86
ag175
ag85
ag288
ag404
ag93
ag87
ag88
ag89
ag88
ag89
ag405
ag88
ag96
ag87
ag88
ag89
ag97
asg98
VThen they said to her, outside the village the pastor has some turnips in the field.
p5939
sba(i__main__
Sentence
p5940
(dp5941
g17
I125
sg18
(lp5942
S'Go'
p5943
aS'there'
p5944
aS'and'
p5945
aS'pull'
p5946
aS'up'
p5947
aS'some'
p5948
aS'turnips'
p5949
aS'for'
p5950
aS'us'
p5951
aS'.'
p5952
asg51
(lp5953
VGo
p5954
aVthere
p5955
aVand
p5956
aVpull
p5957
aVup
p5958
aVsome
p5959
aVturnip
p5960
aVfor
p5961
ag1943
ag78
asg79
(lp5962
g81
ag81
ag81
ag81
ag81
ag81
ag81
ag81
ag81
ag81
asg82
(lp5963
g556
ag86
ag92
ag94
ag95
ag88
ag96
ag87
ag175
ag97
asg98
VGo there and pull up some turnips for us.
p5964
sba(i__main__
Sentence
p5965
(dp5966
g17
I126
sg18
(lp5967
S'Catherine'
p5968
aS'went'
p5969
aS'to'
p5970
aS'the'
p5971
aS'ground'
p5972
aS','
p5973
aS'and'
p5974
aS'began'
p5975
aS'to'
p5976
aS'pull'
p5977
aS'them'
p5978
aS'up'
p5979
aS','
p5980
aS'but'
p5981
aS'was'
p5982
aS'so'
p5983
aS'lazy'
p5984
aS'that'
p5985
aS'she'
p5986
aS'never'
p5987
aS'stood'
p5988
aS'up'
p5989
aS'straight'
p5990
aS'.'
p5991
asg51
(lp5992
VCatherine
p5993
ag447
aVto
p5994
aVthe
p5995
aVground
p5996
ag67
aVand
p5997
ag328
aVto
p5998
aVpull
p5999
aVthem
p6000
aVup
p6001
ag67
aVbut
p6002
ag54
aVso
p6003
aVlazy
p6004
aVthat
p6005
aVshe
p6006
aVnever
p6007
ag335
aVup
p6008
aVstraight
p6009
ag78
asg79
(lp6010
VPERSON
p6011
ag81
ag81
ag81
ag81
ag81
ag81
ag81
ag81
ag81
ag81
ag81
ag81
ag81
ag81
ag81
ag81
ag81
ag81
ag81
ag81
ag81
ag81
ag81
asg82
(lp6012
g556
ag85
ag288
ag88
ag89
ag93
ag92
ag85
ag288
ag177
ag175
ag95
ag93
ag92
ag85
ag86
ag94
ag87
ag175
ag86
ag85
ag95
ag94
ag97
asg98
VCatherine went to the ground, and began to pull them up, but was so lazy that she never stood up straight.
p6013
sba(i__main__
Sentence
p6014
(dp6015
g17
I127
sg18
(lp6016
S'Then'
p6017
aS'a'
p6018
aS'man'
p6019
aS'came'
p6020
aS'by'
p6021
aS','
p6022
aS'saw'
p6023
aS'her'
p6024
aS','
p6025
aS'and'
p6026
aS'stood'
p6027
aS'still'
p6028
aS'and'
p6029
aS'thought'
p6030
aS'that'
p6031
aS'it'
p6032
aS'was'
p6033
aS'the'
p6034
aS'devil'
p6035
aS'who'
p6036
aS'was'
p6037
aS'thus'
p6038
aS'rooting'
p6039
aS'amongst'
p6040
aS'the'
p6041
aS'turnips'
p6042
aS'.'
p6043
asg51
(lp6044
VThen
p6045
ag57
aVman
p6046
ag1294
aVby
p6047
ag67
aVsaw
p6048
aVher
p6049
ag67
aVand
p6050
ag335
aVstill
p6051
aVand
p6052
ag495
aVthat
p6053
aVit
p6054
ag54
aVthe
p6055
aVdevil
p6056
aVwho
p6057
ag54
aVthus
p6058
aVroot
p6059
aVamongst
p6060
aVthe
p6061
aVturnip
p6062
ag78
asg79
(lp6063
g81
ag81
ag81
ag81
ag81
ag81
ag81
ag81
ag81
ag81
ag81
ag81
ag81
ag81
ag81
ag81
ag81
ag81
ag81
ag81
ag81
ag81
ag81
ag81
ag81
ag81
ag81
asg82
(lp6064
g86
ag88
ag89
ag85
ag87
ag93
ag85
ag175
ag93
ag92
ag85
ag86
ag92
ag85
ag87
ag175
ag85
ag88
ag89
ag90
ag85
ag86
ag354
ag89
ag88
ag96
ag97
asg98
VThen a man came by, saw her, and stood still and thought that it was the devil who was thus rooting amongst the turnips.
p6065
sba(i__main__
Sentence
p6066
(dp6067
g17
I128
sg18
(lp6068
S'He'
p6069
aS'ran'
p6070
aS'away'
p6071
aS'into'
p6072
aS'the'
p6073
aS'village'
p6074
aS'to'
p6075
aS'the'
p6076
aS'pastor'
p6077
aS','
p6078
aS'and'
p6079
aS'said'
p6080
aS','
p6081
aS'mr.'
p6082
aS'Pastor'
p6083
aS','
p6084
aS'the'
p6085
aS'devil'
p6086
aS'is'
p6087
aS'in'
p6088
aS'your'
p6089
aS'turnip-ground'
p6090
aS','
p6091
aS'rooting'
p6092
aS'up'
p6093
aS'turnips'
p6094
aS'.'
p6095
asg51
(lp6096
VHe
p6097
ag484
aVaway
p6098
aVinto
p6099
aVthe
p6100
aVvillage
p6101
aVto
p6102
aVthe
p6103
aVpastor
p6104
ag67
aVand
p6105
ag145
ag67
aVmr.
p6106
aVPastor
p6107
ag67
aVthe
p6108
aVdevil
p6109
ag390
aVin
p6110
aVyour
p6111
aVturnip-ground
p6112
ag67
aVroot
p6113
aVup
p6114
aVturnip
p6115
ag78
asg79
(lp6116
g81
ag81
ag81
ag81
ag81
ag81
ag81
ag81
ag81
ag81
ag81
ag81
ag81
ag81
ag81
ag81
ag81
ag81
ag81
ag81
ag81
ag81
ag81
ag81
ag81
ag81
ag81
asg82
(lp6117
g175
ag85
ag86
ag87
ag88
ag89
ag288
ag88
ag89
ag93
ag92
ag85
ag93
ag556
ag556
ag93
ag88
ag89
ag405
ag87
ag404
ag89
ag93
ag354
ag95
ag96
ag97
asg98
VHe ran away into the village to the pastor, and said, mr. Pastor, the devil is in your turnip-ground, rooting up turnips.
p6118
sba(i__main__
Sentence
p6119
(dp6120
g17
I129
sg18
(lp6121
S'Ah'
p6122
aS','
p6123
aS'heavens'
p6124
aS','
p6125
aS'answered'
p6126
aS'the'
p6127
aS'pastor'
p6128
aS','
p6129
aS'I'
p6130
aS'have'
p6131
aS'a'
p6132
aS'lame'
p6133
aS'foot'
p6134
aS','
p6135
aS'I'
p6136
aS'can'
p6137
aS'not'
p6138
aS'go'
p6139
aS'out'
p6140
aS'and'
p6141
aS'drive'
p6142
aS'him'
p6143
aS'away'
p6144
aS'.'
p6145
asg51
(lp6146
VAh
p6147
ag67
aVheavens
p6148
ag67
aVanswer
p6149
aVthe
p6150
aVpastor
p6151
ag67
ag146
aVhave
p6152
ag57
aVlame
p6153
aVfoot
p6154
ag67
ag146
aVcan
p6155
aVnot
p6156
aVgo
p6157
aVout
p6158
aVand
p6159
aVdrive
p6160
aVhim
p6161
aVaway
p6162
ag78
asg79
(lp6163
g81
ag81
ag81
ag81
ag81
ag81
ag81
ag81
ag81
ag81
ag81
ag81
ag81
ag81
ag81
ag81
ag81
ag81
ag81
ag81
ag81
ag81
ag81
ag81
asg82
(lp6164
g556
ag93
ag405
ag93
ag91
ag88
ag89
ag93
ag175
ag179
ag88
ag89
ag89
ag93
ag175
ag176
ag86
ag177
ag95
ag92
ag94
ag89
ag86
ag97
asg98
VAh, heavens, answered the pastor, I have a lame foot, I cannot go out and drive him away.
p6165
sba(i__main__
Sentence
p6166
(dp6167
g17
I130
sg18
(lp6168
S'Said'
p6169
aS'the'
p6170
aS'man'
p6171
aS','
p6172
aS'then'
p6173
aS'I'
p6174
aS'will'
p6175
aS'carry'
p6176
aS'you'
p6177
aS'on'
p6178
aS'my'
p6179
aS'back'
p6180
aS','
p6181
aS'and'
p6182
aS'he'
p6183
aS'carried'
p6184
aS'him'
p6185
aS'out'
p6186
aS'on'
p6187
aS'his'
p6188
aS'back'
p6189
aS'.'
p6190
asg51
(lp6191
VSaid
p6192
aVthe
p6193
aVman
p6194
ag67
aVthen
p6195
ag146
aVwill
p6196
aVcarry
p6197
aVyou
p6198
aVon
p6199
aVmy
p6200
aVback
p6201
ag67
aVand
p6202
aVhe
p6203
ag1132
aVhim
p6204
aVout
p6205
aVon
p6206
aVhis
p6207
aVback
p6208
ag78
asg79
(lp6209
g81
ag81
ag81
ag81
ag81
ag81
ag81
ag81
ag81
ag81
ag81
ag81
ag81
ag81
ag81
ag81
ag81
ag81
ag81
ag81
ag81
ag81
asg82
(lp6210
g556
ag88
ag89
ag93
ag86
ag175
ag176
ag177
ag175
ag87
ag404
ag89
ag93
ag92
ag175
ag85
ag175
ag87
ag87
ag404
ag89
ag97
asg98
VSaid the man, then I will carry you on my back, and he carried him out on his back.
p6211
sba(i__main__
Sentence
p6212
(dp6213
g17
I131
sg18
(lp6214
S'And'
p6215
aS'when'
p6216
aS'they'
p6217
aS'came'
p6218
aS'to'
p6219
aS'the'
p6220
aS'ground'
p6221
aS','
p6222
aS'catherine'
p6223
aS'arose'
p6224
aS'and'
p6225
aS'stood'
p6226
aS'up'
p6227
aS'her'
p6228
aS'full'
p6229
aS'height'
p6230
aS'.'
p6231
asg51
(lp6232
VAnd
p6233
aVwhen
p6234
aVthey
p6235
ag1294
aVto
p6236
aVthe
p6237
aVground
p6238
ag67
aVcatherine
p6239
aVarose
p6240
aVand
p6241
ag335
aVup
p6242
aVher
p6243
aVfull
p6244
aVheight
p6245
ag78
asg79
(lp6246
g81
ag81
ag81
ag81
ag81
ag81
ag81
ag81
ag81
ag81
ag81
ag81
ag81
ag81
ag81
ag81
ag81
asg82
(lp6247
g92
ag178
ag175
ag85
ag288
ag88
ag89
ag93
ag89
ag89
ag92
ag85
ag95
ag404
ag94
ag89
ag97
asg98
VAnd when they came to the ground, catherine arose and stood up her full height.
p6248
sba(i__main__
Sentence
p6249
(dp6250
g17
I132
sg18
(lp6251
S'Ah'
p6252
aS','
p6253
aS'the'
p6254
aS'devil'
p6255
aS','
p6256
aS'cried'
p6257
aS'the'
p6258
aS'pastor'
p6259
aS','
p6260
aS'and'
p6261
aS'both'
p6262
aS'hurried'
p6263
aS'away'
p6264
aS','
p6265
aS'and'
p6266
aS'in'
p6267
aS'his'
p6268
aS'great'
p6269
aS'fright'
p6270
aS'the'
p6271
aS'pastor'
p6272
aS'could'
p6273
aS'run'
p6274
aS'better'
p6275
aS'with'
p6276
aS'his'
p6277
aS'lame'
p6278
aS'foot'
p6279
aS'than'
p6280
aS'the'
p6281
aS'man'
p6282
aS'who'
p6283
aS'had'
p6284
aS'carried'
p6285
aS'him'
p6286
aS'on'
p6287
aS'his'
p6288
aS'back'
p6289
aS'could'
p6290
aS'do'
p6291
aS'on'
p6292
aS'his'
p6293
aS'sound'
p6294
aS'legs'
p6295
aS'.'
p6296
asg51
(lp6297
VAh
p6298
ag67
aVthe
p6299
aVdevil
p6300
ag67
ag923
aVthe
p6301
aVpastor
p6302
ag67
aVand
p6303
aVboth
p6304
aVhurried
p6305
aVaway
p6306
ag67
aVand
p6307
aVin
p6308
aVhis
p6309
aVgreat
p6310
aVfright
p6311
aVthe
p6312
aVpastor
p6313
aVcould
p6314
aVrun
p6315
ag2577
aVwith
p6316
aVhis
p6317
aVlame
p6318
aVfoot
p6319
aVthan
p6320
aVthe
p6321
aVman
p6322
aVwho
p6323
ag69
ag1132
aVhim
p6324
aVon
p6325
aVhis
p6326
aVback
p6327
aVcould
p6328
aVdo
p6329
aVon
p6330
aVhis
p6331
aVsound
p6332
aVleg
p6333
ag78
asg79
(lp6334
g81
ag81
ag81
ag81
ag81
ag81
ag81
ag81
ag81
ag81
ag81
ag81
ag81
ag81
ag81
ag81
ag81
ag81
ag81
ag81
ag81
ag81
ag81
ag81
ag81
ag81
ag81
ag81
ag81
ag81
ag81
ag81
ag81
ag81
ag81
ag81
ag81
ag81
ag81
ag81
ag81
ag81
ag81
ag81
ag81
asg82
(lp6335
g556
ag93
ag88
ag89
ag93
ag85
ag88
ag89
ag93
ag92
ag88
ag94
ag89
ag93
ag92
ag87
ag404
ag94
ag89
ag88
ag89
ag176
ag177
ag2584
ag87
ag404
ag89
ag89
ag87
ag88
ag89
ag90
ag85
ag91
ag175
ag87
ag404
ag89
ag176
ag177
ag87
ag404
ag89
ag96
ag97
asg98
VAh, the devil, cried the pastor, and both hurried away, and in his great fright the pastor could run better with his lame foot than the man who had carried him on his back could do on his sound legs. 
p6336
sbasbsS'summary'
p6337
g0
(g7
g2
Ntp6338
Rp6339
(dp6340
g11
S'In this silly story a woman and her husband outsmart some salesmen. Later when Catherine shows her laziness, Frederick tricks her into believing she is not herself. Catherine finally winds up in a turnip patch where she scares the local preacher because he thinks she is devil. '
p6341
sg13
(lp6342
(i__main__
Sentence
p6343
(dp6344
g17
I0
sg18
(lp6345
S'In'
p6346
aS'this'
p6347
aS'silly'
p6348
aS'story'
p6349
aS'a'
p6350
aS'woman'
p6351
aS'and'
p6352
aS'her'
p6353
aS'husband'
p6354
aS'outsmart'
p6355
aS'some'
p6356
aS'salesmen'
p6357
aS'.'
p6358
asg51
(lp6359
VIn
p6360
aVthis
p6361
aVsilly
p6362
aVstory
p6363
ag57
aVwoman
p6364
aVand
p6365
aVher
p6366
aVhusband
p6367
aVoutsmart
p6368
aVsome
p6369
aVsalesman
p6370
ag78
asg79
(lp6371
g81
ag81
ag81
ag81
ag81
ag81
ag81
ag81
ag81
ag81
ag81
ag81
ag81
asg82
(lp6372
g87
ag88
ag86
ag89
ag88
ag89
ag92
ag404
ag89
ag89
ag88
ag96
ag97
asg98
VIn this silly story a woman and her husband outsmart some salesmen.
p6373
sba(i__main__
Sentence
p6374
(dp6375
g17
I1
sg18
(lp6376
S'Later'
p6377
aS'when'
p6378
aS'Catherine'
p6379
aS'shows'
p6380
aS'her'
p6381
aS'laziness'
p6382
aS','
p6383
aS'Frederick'
p6384
aS'tricks'
p6385
aS'her'
p6386
aS'into'
p6387
aS'believing'
p6388
aS'she'
p6389
aS'is'
p6390
aS'not'
p6391
aS'herself'
p6392
aS'.'
p6393
asg51
(lp6394
VLater
p6395
aVwhen
p6396
aVCatherine
p6397
aVshow
p6398
aVher
p6399
aVlaziness
p6400
ag67
aVFrederick
p6401
aVtrick
p6402
aVher
p6403
aVinto
p6404
aVbelieving
p6405
aVshe
p6406
ag390
aVnot
p6407
aVherself
p6408
ag78
asg79
(lp6409
g81
ag81
aVPERSON
p6410
ag81
ag81
ag81
ag81
aVPERSON
p6411
ag81
ag81
ag81
ag81
ag81
ag81
ag81
ag81
ag81
asg82
(lp6412
g94
ag178
ag556
ag405
ag175
ag89
ag93
ag556
ag96
ag404
ag87
ag89
ag175
ag405
ag86
ag175
ag97
asg98
VLater when Catherine shows her laziness, Frederick tricks her into believing she is not herself.
p6413
sba(i__main__
Sentence
p6414
(dp6415
g17
I2
sg18
(lp6416
S'Catherine'
p6417
aS'finally'
p6418
aS'winds'
p6419
aS'up'
p6420
aS'in'
p6421
aS'a'
p6422
aS'turnip'
p6423
aS'patch'
p6424
aS'where'
p6425
aS'she'
p6426
aS'scares'
p6427
aS'the'
p6428
aS'local'
p6429
aS'preacher'
p6430
aS'because'
p6431
aS'he'
p6432
aS'thinks'
p6433
aS'she'
p6434
aS'is'
p6435
aS'devil'
p6436
aS'.'
p6437
asg51
(lp6438
VCatherine
p6439
aVfinally
p6440
aVwind
p6441
aVup
p6442
aVin
p6443
ag57
aVturnip
p6444
aVpatch
p6445
aVwhere
p6446
aVshe
p6447
aVscar
p6448
aVthe
p6449
aVlocal
p6450
aVpreacher
p6451
aVbecause
p6452
aVhe
p6453
aVthink
p6454
aVshe
p6455
ag390
aVdevil
p6456
ag78
asg79
(lp6457
VPERSON
p6458
ag81
ag81
ag81
ag81
ag81
ag81
ag81
ag81
ag81
ag81
ag81
ag81
ag81
ag81
ag81
ag81
ag81
ag81
ag81
ag81
asg82
(lp6459
g556
ag86
ag405
ag95
ag87
ag88
ag89
ag89
ag178
ag175
ag405
ag88
ag94
ag89
ag87
ag175
ag405
ag175
ag405
ag94
ag97
asg98
VCatherine finally winds up in a turnip patch where she scares the local preacher because he thinks she is devil. 
p6460
sbasbsS'name'
p6461
S'Frederick and Catherine'
p6462
sS'summaries'
p6463
(lp6464
g6339
asb.