ccopy_reg
_reconstructor
p0
(c__main__
Story
p1
c__builtin__
object
p2
Ntp3
Rp4
(dp5
S'text'
p6
g0
(c__main__
Document
p7
g2
Ntp8
Rp9
(dp10
S'_Document__initialContent'
p11
S"A certain tailor who was great at boasting but ill at doing,\ntook it into his head to go abroad for a while, and look about\nthe world.  As soon as he could manage it, he left his\nwork-shop, and wandered on his way, over hill and dale,\nsometimes hither, sometimes, thither, but ever on and on.  Once on\nhis way he perceived in the blue distance a steep hill, and behind\nit a tower\nreaching to the clouds, which rose up out of a wild dark forest.\nThunder and lightning, cried the tailor, what is that, and as he\nwas strongly goaded by curiosity, he went boldly towards it. But\nhow he did gaze and gape when he came near it, for the tower had\nlegs, and leapt in one bound over the steep hill, and was now\nstanding as an all-powerful giant before him.  What do you want here,\nyou tiny fly's leg, cried the giant, with a voice as if it were\nthundering on every side.  The tailor whimpered, I want just to\nlook about and see if I can earn a bit of bread for myself, in\nthis forest.  If that is what you are after, said the giant,\nyou may have a place with me.  If it must be, why not.  What wages\nshall I receive.  You shall hear what wages you shall have.  Every\nyear three hundred and sixty-five days, and when it is leap-year,\none more into the bargain.  Does that suit you.  All right,\nreplied the tailor, and thought, in his own mind, a man must cut\nhis coat according to his cloth.  I will try to get away as fast as\nI can.\nAt this the giant said to him, go, little ragamuffin, and fetch\nme a jug of water.  Had I not better bring the well itself\nat once, and the spring too, asked the boaster, and went with the\npitcher to the water.  What, the well and the spring too, growled\nthe giant in his beard, for he was somewhat of a silly dolt, and\nbegan\nto be afraid.  That knave is not a fool, he has a mandrake in\nhis body.  Be on your guard, old Hans, this is no serving-man for\nyou.  When the tailor had brought the water, the giant bade\nhim go into the forest, and cut a couple of blocks of\nwood and bring them back.  Why not the whole forest, at once,\nwith one stroke.  The whole forest, young and old, with\nall that is there, both gnarled and smooth, and the well and its\nspring too, growled the credulous giant in his beard, and was still\nmore terrified.  The knave can do much more than bake apples, and\nhas a mandrake in his body.  Be on your guard, old Hans, this is\nno serving-man for you.  When the tailor had brought the wood, the\ngiant commanded\nhim to shoot two or three wild boars for supper.  Why not\nrather a thousand at one shot, and bring them all here, inquired\nthe insolent tailor.  What, cried the timid giant in great terror.\nLet well alone to-night, and lie down to rest.\nThe giant was so terribly alarmed that he could not close an\neye all night long for thinking what would be the best way to\nget rid of this accursed sorcerer of a servant.  Time\nbrings counsel.  Next morning the giant and the tailor went to a\nmarsh, round which stood a number of willow-trees.  Then said\nthe giant, listen, tailor, seat yourself on one of the\nwillow-branches.  I long of all things to see if you are big enough\nto bend it down.  All at once the tailor was sitting on it, holding\nhis breath, and making himself heavy, so heavy that the bough\nbent down.  When, however, he was compelled to draw breath, it\nhurled him - for unfortunately he had not put his goose in his\npocket - so high into the air that he never was seen again, and\nthis to the great delight of the giant.  If the tailor has not\nfallen down again, he must still be hovering about in the air.\n"
p12
sS'sentences'
p13
(lp14
(i__main__
Sentence
p15
(dp16
S'index'
p17
I0
sS'words'
p18
(lp19
S'A'
p20
aS'certain'
p21
aS'tailor'
p22
aS'who'
p23
aS'was'
p24
aS'great'
p25
aS'at'
p26
aS'boasting'
p27
aS'but'
p28
aS'ill'
p29
aS'at'
p30
aS'doing'
p31
aS','
p32
aS'took'
p33
aS'it'
p34
aS'into'
p35
aS'his'
p36
aS'head'
p37
aS'to'
p38
aS'go'
p39
aS'abroad'
p40
aS'for'
p41
aS'a'
p42
aS'while'
p43
aS','
p44
aS'and'
p45
aS'look'
p46
aS'about'
p47
aS'the'
p48
aS'world'
p49
aS'.'
p50
asS'lemmas'
p51
(lp52
VA
p53
aVcertain
p54
aVtailor
p55
aVwho
p56
aVbe
p57
aVgreat
p58
aVat
p59
aVboasting
p60
aVbut
p61
aVill
p62
aVat
p63
aVdo
p64
aV,
p65
aVtake
p66
aVit
p67
aVinto
p68
aVhis
p69
aVhead
p70
aVto
p71
aVgo
p72
aVabroad
p73
aVfor
p74
aVa
p75
aVwhile
p76
ag65
aVand
p77
aVlook
p78
aVabout
p79
aVthe
p80
aVworld
p81
aV.
p82
asS'nerTags'
p83
(lp84
VO
p85
ag85
ag85
ag85
ag85
ag85
ag85
ag85
ag85
ag85
ag85
ag85
ag85
ag85
ag85
ag85
ag85
ag85
ag85
ag85
ag85
ag85
ag85
ag85
ag85
ag85
ag85
ag85
ag85
ag85
ag85
asS'posTags'
p86
(lp87
S'DT'
p88
aS'JJ'
p89
aS'NN'
p90
aS'WP'
p91
aS'VBD'
p92
ag89
aS'IN'
p93
ag90
aS'CC'
p94
aS'RB'
p95
ag93
aS'VBG'
p96
aS','
p97
ag92
aS'PRP'
p98
ag93
aS'PRP$'
p99
ag90
aS'TO'
p100
aS'VB'
p101
ag95
ag93
ag88
ag90
ag97
ag94
ag101
ag93
ag88
ag90
aS'.'
p102
asS'_Sentence__initialContent'
p103
VA certain tailor who was great at boasting but ill at doing, took it into his head to go abroad for a while, and look about the world.
p104
sba(i__main__
Sentence
p105
(dp106
g17
I1
sg18
(lp107
S'As'
p108
aS'soon'
p109
aS'as'
p110
aS'he'
p111
aS'could'
p112
aS'manage'
p113
aS'it'
p114
aS','
p115
aS'he'
p116
aS'left'
p117
aS'his'
p118
aS'work-shop'
p119
aS','
p120
aS'and'
p121
aS'wandered'
p122
aS'on'
p123
aS'his'
p124
aS'way'
p125
aS','
p126
aS'over'
p127
aS'hill'
p128
aS'and'
p129
aS'dale'
p130
aS','
p131
aS'sometimes'
p132
aS'hither'
p133
aS','
p134
aS'sometimes'
p135
aS','
p136
aS'thither'
p137
aS','
p138
aS'but'
p139
aS'ever'
p140
aS'on'
p141
aS'and'
p142
aS'on'
p143
aS'.'
p144
asg51
(lp145
VAs
p146
aVsoon
p147
ag75
aVhe
p148
aVcould
p149
aVmanage
p150
aVit
p151
ag65
aVhe
p152
aVleave
p153
aVhis
p154
aVwork-shop
p155
ag65
aVand
p156
aVwander
p157
aVon
p158
aVhis
p159
aVway
p160
ag65
aVover
p161
aVhill
p162
aVand
p163
aVdale
p164
ag65
aVsometimes
p165
aVhither
p166
ag65
aVsometimes
p167
ag65
aVthither
p168
ag65
aVbut
p169
aVever
p170
aVon
p171
aVand
p172
aVon
p173
ag82
asg83
(lp174
g85
ag85
ag85
ag85
ag85
ag85
ag85
ag85
ag85
ag85
ag85
ag85
ag85
ag85
ag85
ag85
ag85
ag85
ag85
ag85
ag85
ag85
ag85
ag85
ag85
ag85
ag85
ag85
ag85
ag85
ag85
ag85
ag85
ag85
ag85
ag85
ag85
asg86
(lp175
g93
ag95
ag93
ag98
aS'MD'
p176
ag101
ag98
ag97
ag98
ag92
ag99
ag89
ag97
ag94
ag92
ag93
ag99
ag90
ag97
ag93
ag90
ag94
ag90
ag97
ag95
ag95
ag97
ag95
ag97
ag95
ag97
ag94
ag95
ag93
ag94
ag93
ag102
asg103
VAs soon as he could manage it, he left his work-shop, and wandered on his way, over hill and dale, sometimes hither, sometimes, thither, but ever on and on.
p177
sba(i__main__
Sentence
p178
(dp179
g17
I2
sg18
(lp180
S'Once'
p181
aS'on'
p182
aS'his'
p183
aS'way'
p184
aS'he'
p185
aS'perceived'
p186
aS'in'
p187
aS'the'
p188
aS'blue'
p189
aS'distance'
p190
aS'a'
p191
aS'steep'
p192
aS'hill'
p193
aS','
p194
aS'and'
p195
aS'behind'
p196
aS'it'
p197
aS'a'
p198
aS'tower'
p199
aS'reaching'
p200
aS'to'
p201
aS'the'
p202
aS'clouds'
p203
aS','
p204
aS'which'
p205
aS'rose'
p206
aS'up'
p207
aS'out'
p208
aS'of'
p209
aS'a'
p210
aS'wild'
p211
aS'dark'
p212
aS'forest'
p213
aS'.'
p214
asg51
(lp215
VOnce
p216
aVon
p217
aVhis
p218
aVway
p219
aVhe
p220
aVperceive
p221
aVin
p222
aVthe
p223
aVblue
p224
aVdistance
p225
ag75
aVsteep
p226
aVhill
p227
ag65
aVand
p228
aVbehind
p229
aVit
p230
ag75
aVtower
p231
aVreach
p232
aVto
p233
aVthe
p234
aVcloud
p235
ag65
aVwhich
p236
aVrise
p237
aVup
p238
aVout
p239
aVof
p240
ag75
aVwild
p241
aVdark
p242
aVforest
p243
ag82
asg83
(lp244
g85
ag85
ag85
ag85
ag85
ag85
ag85
ag85
ag85
ag85
ag85
ag85
ag85
ag85
ag85
ag85
ag85
ag85
ag85
ag85
ag85
ag85
ag85
ag85
ag85
ag85
ag85
ag85
ag85
ag85
ag85
ag85
ag85
ag85
asg86
(lp245
g95
ag93
ag99
ag90
ag98
ag92
ag93
ag88
ag89
ag90
ag88
ag90
ag90
ag97
ag94
ag93
ag98
ag88
ag90
ag96
ag100
ag88
aS'NNS'
p246
ag97
aS'WDT'
p247
ag92
aS'RP'
p248
ag93
ag93
ag88
ag90
ag90
ag90
ag102
asg103
VOnce on his way he perceived in the blue distance a steep hill, and behind it a tower reaching to the clouds, which rose up out of a wild dark forest.
p249
sba(i__main__
Sentence
p250
(dp251
g17
I3
sg18
(lp252
S'Thunder'
p253
aS'and'
p254
aS'lightning'
p255
aS','
p256
aS'cried'
p257
aS'the'
p258
aS'tailor'
p259
aS','
p260
aS'what'
p261
aS'is'
p262
aS'that'
p263
aS','
p264
aS'and'
p265
aS'as'
p266
aS'he'
p267
aS'was'
p268
aS'strongly'
p269
aS'goaded'
p270
aS'by'
p271
aS'curiosity'
p272
aS','
p273
aS'he'
p274
aS'went'
p275
aS'boldly'
p276
aS'towards'
p277
aS'it'
p278
aS'.'
p279
asg51
(lp280
VThunder
p281
aVand
p282
aVlightning
p283
ag65
aVcried
p284
aVthe
p285
aVtailor
p286
ag65
aVwhat
p287
aVbe
p288
aVthat
p289
ag65
aVand
p290
ag75
aVhe
p291
ag57
aVstrongly
p292
aVgoad
p293
aVby
p294
aVcuriosity
p295
ag65
aVhe
p296
aVgo
p297
aVboldly
p298
aVtowards
p299
aVit
p300
ag82
asg83
(lp301
g85
ag85
ag85
ag85
ag85
ag85
ag85
ag85
ag85
ag85
ag85
ag85
ag85
ag85
ag85
ag85
ag85
ag85
ag85
ag85
ag85
ag85
ag85
ag85
ag85
ag85
ag85
asg86
(lp302
S'NNP'
p303
ag94
ag96
ag97
ag89
ag88
ag90
ag97
ag91
aS'VBZ'
p304
ag93
ag97
ag94
ag93
ag98
ag92
ag95
aS'VBN'
p305
ag93
ag90
ag97
ag98
ag92
ag95
ag246
ag98
ag102
asg103
VThunder and lightning, cried the tailor, what is that, and as he was strongly goaded by curiosity, he went boldly towards it.
p306
sba(i__main__
Sentence
p307
(dp308
g17
I4
sg18
(lp309
S'But'
p310
aS'how'
p311
aS'he'
p312
aS'did'
p313
aS'gaze'
p314
aS'and'
p315
aS'gape'
p316
aS'when'
p317
aS'he'
p318
aS'came'
p319
aS'near'
p320
aS'it'
p321
aS','
p322
aS'for'
p323
aS'the'
p324
aS'tower'
p325
aS'had'
p326
aS'legs'
p327
aS','
p328
aS'and'
p329
aS'leapt'
p330
aS'in'
p331
aS'one'
p332
aS'bound'
p333
aS'over'
p334
aS'the'
p335
aS'steep'
p336
aS'hill'
p337
aS','
p338
aS'and'
p339
aS'was'
p340
aS'now'
p341
aS'standing'
p342
aS'as'
p343
aS'an'
p344
aS'all-powerful'
p345
aS'giant'
p346
aS'before'
p347
aS'him'
p348
aS'.'
p349
asg51
(lp350
VBut
p351
aVhow
p352
aVhe
p353
aVdo
p354
aVgaze
p355
aVand
p356
aVgape
p357
aVwhen
p358
aVhe
p359
aVcome
p360
aVnear
p361
aVit
p362
ag65
aVfor
p363
aVthe
p364
aVtower
p365
aVhave
p366
aVleg
p367
ag65
aVand
p368
aVleap
p369
aVin
p370
aVone
p371
aVbound
p372
aVover
p373
aVthe
p374
aVsteep
p375
aVhill
p376
ag65
aVand
p377
ag57
aVnow
p378
aVstand
p379
ag75
aVan
p380
aVall-powerful
p381
aVgiant
p382
aVbefore
p383
aVhim
p384
ag82
asg83
(lp385
g85
ag85
ag85
ag85
ag85
ag85
ag85
ag85
ag85
ag85
ag85
ag85
ag85
ag85
ag85
ag85
ag85
ag85
ag85
ag85
ag85
ag85
ag85
ag85
ag85
ag85
ag85
ag85
ag85
ag85
ag85
ag85
ag85
ag85
ag85
ag85
ag85
ag85
ag85
ag85
asg86
(lp386
g94
aS'WRB'
p387
ag98
ag92
ag101
ag94
ag90
ag387
ag98
ag92
ag93
ag98
ag97
ag93
ag88
ag90
ag92
ag246
ag97
ag94
ag92
ag93
aS'CD'
p388
ag90
ag93
ag88
ag90
ag90
ag97
ag94
ag92
ag95
ag96
ag93
ag88
ag89
ag90
ag93
ag98
ag102
asg103
VBut how he did gaze and gape when he came near it, for the tower had legs, and leapt in one bound over the steep hill, and was now standing as an all-powerful giant before him.
p389
sba(i__main__
Sentence
p390
(dp391
g17
I5
sg18
(lp392
S'What'
p393
aS'do'
p394
aS'you'
p395
aS'want'
p396
aS'here'
p397
aS','
p398
aS'you'
p399
aS'tiny'
p400
aS'fly'
p401
aS"'s"
p402
aS'leg'
p403
aS','
p404
aS'cried'
p405
aS'the'
p406
aS'giant'
p407
aS','
p408
aS'with'
p409
aS'a'
p410
aS'voice'
p411
aS'as'
p412
aS'if'
p413
aS'it'
p414
aS'were'
p415
aS'thundering'
p416
aS'on'
p417
aS'every'
p418
aS'side'
p419
aS'.'
p420
asg51
(lp421
VWhat
p422
aVdo
p423
aVyou
p424
aVwant
p425
aVhere
p426
ag65
aVyou
p427
aVtiny
p428
aVfly
p429
aV's
p430
aVleg
p431
ag65
aVcry
p432
aVthe
p433
aVgiant
p434
ag65
aVwith
p435
ag75
aVvoice
p436
ag75
aVif
p437
aVit
p438
aVbe
p439
aVthunder
p440
aVon
p441
aVevery
p442
aVside
p443
ag82
asg83
(lp444
g85
ag85
ag85
ag85
ag85
ag85
ag85
ag85
ag85
ag85
ag85
ag85
ag85
ag85
ag85
ag85
ag85
ag85
ag85
ag85
ag85
ag85
ag85
ag85
ag85
ag85
ag85
ag85
asg86
(lp445
g91
aS'VBP'
p446
ag98
ag101
ag95
ag97
ag98
ag446
ag95
aS'POS'
p447
ag90
ag97
ag92
ag88
ag89
ag97
ag93
ag88
ag90
ag93
ag93
ag98
ag92
ag96
ag93
ag88
ag90
ag102
asg103
VWhat do you want here, you tiny fly's leg, cried the giant, with a voice as if it were thundering on every side.
p448
sba(i__main__
Sentence
p449
(dp450
g17
I6
sg18
(lp451
S'The'
p452
aS'tailor'
p453
aS'whimpered'
p454
aS','
p455
aS'I'
p456
aS'want'
p457
aS'just'
p458
aS'to'
p459
aS'look'
p460
aS'about'
p461
aS'and'
p462
aS'see'
p463
aS'if'
p464
aS'I'
p465
aS'can'
p466
aS'earn'
p467
aS'a'
p468
aS'bit'
p469
aS'of'
p470
aS'bread'
p471
aS'for'
p472
aS'myself'
p473
aS','
p474
aS'in'
p475
aS'this'
p476
aS'forest'
p477
aS'.'
p478
asg51
(lp479
VThe
p480
aVtailor
p481
aVwhimper
p482
ag65
aVI
p483
aVwant
p484
aVjust
p485
aVto
p486
aVlook
p487
aVabout
p488
aVand
p489
aVsee
p490
aVif
p491
ag483
aVcan
p492
aVearn
p493
ag75
aVbit
p494
aVof
p495
aVbread
p496
aVfor
p497
aVmyself
p498
ag65
aVin
p499
aVthis
p500
aVforest
p501
ag82
asg83
(lp502
g85
ag85
ag85
ag85
ag85
ag85
ag85
ag85
ag85
ag85
ag85
ag85
ag85
ag85
ag85
ag85
ag85
ag85
ag85
ag85
ag85
ag85
ag85
ag85
ag85
ag85
ag85
asg86
(lp503
g88
ag90
ag92
ag97
ag98
ag446
ag95
ag100
ag101
ag93
ag94
ag101
ag93
ag98
ag176
ag101
ag88
ag90
ag93
ag90
ag93
ag98
ag97
ag93
ag88
ag90
ag102
asg103
VThe tailor whimpered, I want just to look about and see if I can earn a bit of bread for myself, in this forest.
p504
sba(i__main__
Sentence
p505
(dp506
g17
I7
sg18
(lp507
S'If'
p508
aS'that'
p509
aS'is'
p510
aS'what'
p511
aS'you'
p512
aS'are'
p513
aS'after'
p514
aS','
p515
aS'said'
p516
aS'the'
p517
aS'giant'
p518
aS','
p519
aS'you'
p520
aS'may'
p521
aS'have'
p522
aS'a'
p523
aS'place'
p524
aS'with'
p525
aS'me'
p526
aS'.'
p527
asg51
(lp528
VIf
p529
aVthat
p530
ag288
aVwhat
p531
aVyou
p532
aVbe
p533
aVafter
p534
ag65
aVsay
p535
aVthe
p536
aVgiant
p537
ag65
aVyou
p538
aVmay
p539
aVhave
p540
ag75
aVplace
p541
aVwith
p542
aVme
p543
ag82
asg83
(lp544
g85
ag85
ag85
ag85
ag85
ag85
ag85
ag85
ag85
ag85
ag85
ag85
ag85
ag85
ag85
ag85
ag85
ag85
ag85
ag85
asg86
(lp545
g93
ag88
ag304
ag91
ag98
ag446
ag93
ag97
ag92
ag88
ag89
ag97
ag98
ag176
ag101
ag88
ag90
ag93
ag98
ag102
asg103
VIf that is what you are after, said the giant, you may have a place with me.
p546
sba(i__main__
Sentence
p547
(dp548
g17
I8
sg18
(lp549
S'If'
p550
aS'it'
p551
aS'must'
p552
aS'be'
p553
aS','
p554
aS'why'
p555
aS'not'
p556
aS'.'
p557
asg51
(lp558
VIf
p559
aVit
p560
aVmust
p561
aVbe
p562
ag65
aVwhy
p563
aVnot
p564
ag82
asg83
(lp565
g85
ag85
ag85
ag85
ag85
ag85
ag85
ag85
asg86
(lp566
g93
ag98
ag176
ag101
ag97
ag387
ag95
ag102
asg103
VIf it must be, why not.
p567
sba(i__main__
Sentence
p568
(dp569
g17
I9
sg18
(lp570
S'What'
p571
aS'wages'
p572
aS'shall'
p573
aS'I'
p574
aS'receive'
p575
aS'.'
p576
asg51
(lp577
VWhat
p578
aVwage
p579
aVshall
p580
ag483
aVreceive
p581
ag82
asg83
(lp582
g85
ag85
ag85
ag85
ag85
ag85
asg86
(lp583
g91
ag246
ag176
ag98
ag101
ag102
asg103
VWhat wages shall I receive.
p584
sba(i__main__
Sentence
p585
(dp586
g17
I10
sg18
(lp587
S'You'
p588
aS'shall'
p589
aS'hear'
p590
aS'what'
p591
aS'wages'
p592
aS'you'
p593
aS'shall'
p594
aS'have'
p595
aS'.'
p596
asg51
(lp597
VYou
p598
aVshall
p599
aVhear
p600
aVwhat
p601
aVwage
p602
aVyou
p603
aVshall
p604
aVhave
p605
ag82
asg83
(lp606
g85
ag85
ag85
ag85
ag85
ag85
ag85
ag85
ag85
asg86
(lp607
g98
ag176
ag101
ag91
ag246
ag98
ag176
ag101
ag102
asg103
VYou shall hear what wages you shall have.
p608
sba(i__main__
Sentence
p609
(dp610
g17
I11
sg18
(lp611
S'Every'
p612
aS'year'
p613
aS'three'
p614
aS'hundred'
p615
aS'and'
p616
aS'sixty-five'
p617
aS'days'
p618
aS','
p619
aS'and'
p620
aS'when'
p621
aS'it'
p622
aS'is'
p623
aS'leap-year'
p624
aS','
p625
aS'one'
p626
aS'more'
p627
aS'into'
p628
aS'the'
p629
aS'bargain'
p630
aS'.'
p631
asg51
(lp632
VEvery
p633
aVyear
p634
aVthree
p635
aVhundred
p636
aVand
p637
aVsixty-five
p638
aVday
p639
ag65
aVand
p640
aVwhen
p641
aVit
p642
ag288
aVleap-year
p643
ag65
aVone
p644
aVmore
p645
aVinto
p646
aVthe
p647
aVbargain
p648
ag82
asg83
(lp649
g85
ag85
ag85
ag85
ag85
ag85
ag85
ag85
ag85
ag85
ag85
ag85
ag85
ag85
ag85
ag85
ag85
ag85
ag85
ag85
asg86
(lp650
g88
ag90
ag388
ag305
ag94
ag89
ag246
ag97
ag94
ag387
ag98
ag304
ag89
ag97
ag388
aS'JJR'
p651
ag93
ag88
ag90
ag102
asg103
VEvery year three hundred and sixty-five days, and when it is leap-year, one more into the bargain.
p652
sba(i__main__
Sentence
p653
(dp654
g17
I12
sg18
(lp655
S'Does'
p656
aS'that'
p657
aS'suit'
p658
aS'you'
p659
aS'.'
p660
asg51
(lp661
VDoes
p662
aVthat
p663
aVsuit
p664
aVyou
p665
ag82
asg83
(lp666
g85
ag85
ag85
ag85
ag85
asg86
(lp667
g304
ag93
ag90
ag98
ag102
asg103
VDoes that suit you.
p668
sba(i__main__
Sentence
p669
(dp670
g17
I13
sg18
(lp671
S'All'
p672
aS'right'
p673
aS','
p674
aS'replied'
p675
aS'the'
p676
aS'tailor'
p677
aS','
p678
aS'and'
p679
aS'thought'
p680
aS','
p681
aS'in'
p682
aS'his'
p683
aS'own'
p684
aS'mind'
p685
aS','
p686
aS'a'
p687
aS'man'
p688
aS'must'
p689
aS'cut'
p690
aS'his'
p691
aS'coat'
p692
aS'according'
p693
aS'to'
p694
aS'his'
p695
aS'cloth'
p696
aS'.'
p697
asg51
(lp698
VAll
p699
aVright
p700
ag65
aVreply
p701
aVthe
p702
aVtailor
p703
ag65
aVand
p704
aVthink
p705
ag65
aVin
p706
aVhis
p707
aVown
p708
aVmind
p709
ag65
ag75
aVman
p710
aVmust
p711
aVcut
p712
aVhis
p713
aVcoat
p714
aVaccord
p715
aVto
p716
aVhis
p717
aVcloth
p718
ag82
asg83
(lp719
g85
ag85
ag85
ag85
ag85
ag85
ag85
ag85
ag85
ag85
ag85
ag85
ag85
ag85
ag85
ag85
ag85
ag85
ag85
ag85
ag85
ag85
ag85
ag85
ag85
ag85
asg86
(lp720
g88
ag90
ag97
ag92
ag88
ag90
ag97
ag94
ag92
ag97
ag93
ag99
ag89
ag90
ag97
ag88
ag90
ag176
ag101
ag99
ag89
ag96
ag100
ag99
ag90
ag102
asg103
VAll right, replied the tailor, and thought, in his own mind, a man must cut his coat according to his cloth.
p721
sba(i__main__
Sentence
p722
(dp723
g17
I14
sg18
(lp724
S'I'
p725
aS'will'
p726
aS'try'
p727
aS'to'
p728
aS'get'
p729
aS'away'
p730
aS'as'
p731
aS'fast'
p732
aS'as'
p733
aS'I'
p734
aS'can'
p735
aS'.'
p736
asg51
(lp737
g483
aVwill
p738
aVtry
p739
aVto
p740
aVget
p741
aVaway
p742
ag75
aVfast
p743
ag75
ag483
aVcan
p744
ag82
asg83
(lp745
g85
ag85
ag85
ag85
ag85
ag85
ag85
ag85
ag85
ag85
ag85
ag85
asg86
(lp746
g98
ag176
ag101
ag100
ag101
ag95
ag93
ag89
ag93
ag98
ag176
ag102
asg103
VI will try to get away as fast as I can.
p747
sba(i__main__
Sentence
p748
(dp749
g17
I15
sg18
(lp750
S'At'
p751
aS'this'
p752
aS'the'
p753
aS'giant'
p754
aS'said'
p755
aS'to'
p756
aS'him'
p757
aS','
p758
aS'go'
p759
aS','
p760
aS'little'
p761
aS'ragamuffin'
p762
aS','
p763
aS'and'
p764
aS'fetch'
p765
aS'me'
p766
aS'a'
p767
aS'jug'
p768
aS'of'
p769
aS'water'
p770
aS'.'
p771
asg51
(lp772
VAt
p773
aVthis
p774
aVthe
p775
aVgiant
p776
ag535
aVto
p777
aVhim
p778
ag65
aVgo
p779
ag65
aVlittle
p780
aVragamuffin
p781
ag65
aVand
p782
aVfetch
p783
aVme
p784
ag75
aVjug
p785
aVof
p786
aVwater
p787
ag82
asg83
(lp788
g85
ag85
ag85
ag85
ag85
ag85
ag85
ag85
ag85
ag85
ag85
ag85
ag85
ag85
ag85
ag85
ag85
ag85
ag85
ag85
ag85
asg86
(lp789
g93
ag88
ag88
ag89
ag92
ag100
ag98
ag97
ag446
ag97
ag95
ag101
ag97
ag94
ag90
ag98
ag88
ag90
ag93
ag90
ag102
asg103
VAt this the giant said to him, go, little ragamuffin, and fetch me a jug of water.
p790
sba(i__main__
Sentence
p791
(dp792
g17
I16
sg18
(lp793
S'Had'
p794
aS'I'
p795
aS'not'
p796
aS'better'
p797
aS'bring'
p798
aS'the'
p799
aS'well'
p800
aS'itself'
p801
aS'at'
p802
aS'once'
p803
aS','
p804
aS'and'
p805
aS'the'
p806
aS'spring'
p807
aS'too'
p808
aS','
p809
aS'asked'
p810
aS'the'
p811
aS'boaster'
p812
aS','
p813
aS'and'
p814
aS'went'
p815
aS'with'
p816
aS'the'
p817
aS'pitcher'
p818
aS'to'
p819
aS'the'
p820
aS'water'
p821
aS'.'
p822
asg51
(lp823
VHad
p824
ag483
aVnot
p825
aVwell
p826
aVbring
p827
aVthe
p828
aVwell
p829
aVitself
p830
aVat
p831
aVonce
p832
ag65
aVand
p833
aVthe
p834
aVspring
p835
aVtoo
p836
ag65
aVask
p837
aVthe
p838
aVboaster
p839
ag65
aVand
p840
ag297
aVwith
p841
aVthe
p842
aVpitcher
p843
aVto
p844
aVthe
p845
aVwater
p846
ag82
asg83
(lp847
g85
ag85
ag85
ag85
ag85
ag85
ag85
ag85
ag85
ag85
ag85
ag85
ag85
ag85
ag85
ag85
ag85
ag85
ag85
ag85
ag85
ag85
ag85
ag85
ag85
ag85
ag85
ag85
ag85
asg86
(lp848
g303
ag98
ag95
aS'RBR'
p849
ag96
ag88
ag90
ag98
ag93
ag95
ag97
ag94
ag88
ag90
ag95
ag97
ag92
ag88
ag90
ag97
ag94
ag92
ag93
ag88
ag90
ag100
ag88
ag90
ag102
asg103
VHad I not better bring the well itself at once, and the spring too, asked the boaster, and went with the pitcher to the water.
p850
sba(i__main__
Sentence
p851
(dp852
g17
I17
sg18
(lp853
S'What'
p854
aS','
p855
aS'the'
p856
aS'well'
p857
aS'and'
p858
aS'the'
p859
aS'spring'
p860
aS'too'
p861
aS','
p862
aS'growled'
p863
aS'the'
p864
aS'giant'
p865
aS'in'
p866
aS'his'
p867
aS'beard'
p868
aS','
p869
aS'for'
p870
aS'he'
p871
aS'was'
p872
aS'somewhat'
p873
aS'of'
p874
aS'a'
p875
aS'silly'
p876
aS'dolt'
p877
aS','
p878
aS'and'
p879
aS'began'
p880
aS'to'
p881
aS'be'
p882
aS'afraid'
p883
aS'.'
p884
asg51
(lp885
VWhat
p886
ag65
aVthe
p887
aVwell
p888
aVand
p889
aVthe
p890
aVspring
p891
aVtoo
p892
ag65
aVgrowl
p893
aVthe
p894
aVgiant
p895
aVin
p896
aVhis
p897
aVbeard
p898
ag65
aVfor
p899
aVhe
p900
ag57
aVsomewhat
p901
aVof
p902
ag75
aVsilly
p903
aVdolt
p904
ag65
aVand
p905
aVbegin
p906
aVto
p907
aVbe
p908
aVafraid
p909
ag82
asg83
(lp910
g85
ag85
ag85
ag85
ag85
ag85
ag85
ag85
ag85
ag85
ag85
ag85
ag85
ag85
ag85
ag85
ag85
ag85
ag85
ag85
ag85
ag85
ag85
ag85
ag85
ag85
ag85
ag85
ag85
ag85
ag85
asg86
(lp911
g91
ag97
ag88
ag95
ag94
ag88
ag90
ag95
ag97
ag92
ag88
ag89
ag93
ag99
ag90
ag97
ag93
ag98
ag92
ag95
ag93
ag88
ag95
ag305
ag97
ag94
ag92
ag100
ag101
ag305
ag102
asg103
VWhat, the well and the spring too, growled the giant in his beard, for he was somewhat of a silly dolt, and began to be afraid.
p912
sba(i__main__
Sentence
p913
(dp914
g17
I18
sg18
(lp915
S'That'
p916
aS'knave'
p917
aS'is'
p918
aS'not'
p919
aS'a'
p920
aS'fool'
p921
aS','
p922
aS'he'
p923
aS'has'
p924
aS'a'
p925
aS'mandrake'
p926
aS'in'
p927
aS'his'
p928
aS'body'
p929
aS'.'
p930
asg51
(lp931
VThat
p932
aVknave
p933
ag288
aVnot
p934
ag75
aVfool
p935
ag65
aVhe
p936
aVhave
p937
ag75
aVmandrake
p938
aVin
p939
aVhis
p940
aVbody
p941
ag82
asg83
(lp942
g85
ag85
ag85
ag85
ag85
ag85
ag85
ag85
ag85
ag85
ag85
ag85
ag85
ag85
ag85
asg86
(lp943
g88
ag446
ag304
ag95
ag88
ag90
ag97
ag98
ag304
ag88
ag90
ag93
ag99
ag90
ag102
asg103
VThat knave is not a fool, he has a mandrake in his body.
p944
sba(i__main__
Sentence
p945
(dp946
g17
I19
sg18
(lp947
S'Be'
p948
aS'on'
p949
aS'your'
p950
aS'guard'
p951
aS','
p952
aS'old'
p953
aS'Hans'
p954
aS','
p955
aS'this'
p956
aS'is'
p957
aS'no'
p958
aS'serving-man'
p959
aS'for'
p960
aS'you'
p961
aS'.'
p962
asg51
(lp963
VBe
p964
aVon
p965
aVyour
p966
aVguard
p967
ag65
aVold
p968
aVHans
p969
ag65
aVthis
p970
ag288
aVno
p971
aVserving-man
p972
aVfor
p973
aVyou
p974
ag82
asg83
(lp975
g85
ag85
ag85
ag85
ag85
ag85
aVPERSON
p976
ag85
ag85
ag85
ag85
ag85
ag85
ag85
ag85
asg86
(lp977
g101
ag93
ag99
ag90
ag97
ag89
ag246
ag97
ag88
ag304
ag88
ag89
ag93
ag98
ag102
asg103
VBe on your guard, old Hans, this is no serving-man for you.
p978
sba(i__main__
Sentence
p979
(dp980
g17
I20
sg18
(lp981
S'When'
p982
aS'the'
p983
aS'tailor'
p984
aS'had'
p985
aS'brought'
p986
aS'the'
p987
aS'water'
p988
aS','
p989
aS'the'
p990
aS'giant'
p991
aS'bade'
p992
aS'him'
p993
aS'go'
p994
aS'into'
p995
aS'the'
p996
aS'forest'
p997
aS','
p998
aS'and'
p999
aS'cut'
p1000
aS'a'
p1001
aS'couple'
p1002
aS'of'
p1003
aS'blocks'
p1004
aS'of'
p1005
aS'wood'
p1006
aS'and'
p1007
aS'bring'
p1008
aS'them'
p1009
aS'back'
p1010
aS'.'
p1011
asg51
(lp1012
VWhen
p1013
aVthe
p1014
aVtailor
p1015
ag366
aVbring
p1016
aVthe
p1017
aVwater
p1018
ag65
aVthe
p1019
aVgiant
p1020
aVbade
p1021
aVhim
p1022
aVgo
p1023
aVinto
p1024
aVthe
p1025
aVforest
p1026
ag65
aVand
p1027
aVcut
p1028
ag75
aVcouple
p1029
aVof
p1030
aVblock
p1031
aVof
p1032
aVwood
p1033
aVand
p1034
aVbring
p1035
aVthem
p1036
aVback
p1037
ag82
asg83
(lp1038
g85
ag85
ag85
ag85
ag85
ag85
ag85
ag85
ag85
ag85
ag85
ag85
ag85
ag85
ag85
ag85
ag85
ag85
ag85
ag85
ag85
ag85
ag85
ag85
ag85
ag85
ag85
ag85
ag85
ag85
asg86
(lp1039
g387
ag88
ag90
ag92
ag305
ag88
ag90
ag97
ag88
ag89
ag90
ag98
ag446
ag93
ag88
aS'JJS'
p1040
ag97
ag94
ag92
ag88
ag90
ag93
ag246
ag93
ag90
ag94
ag96
ag98
ag95
ag102
asg103
VWhen the tailor had brought the water, the giant bade him go into the forest, and cut a couple of blocks of wood and bring them back.
p1041
sba(i__main__
Sentence
p1042
(dp1043
g17
I21
sg18
(lp1044
S'Why'
p1045
aS'not'
p1046
aS'the'
p1047
aS'whole'
p1048
aS'forest'
p1049
aS','
p1050
aS'at'
p1051
aS'once'
p1052
aS','
p1053
aS'with'
p1054
aS'one'
p1055
aS'stroke'
p1056
aS'.'
p1057
asg51
(lp1058
VWhy
p1059
aVnot
p1060
aVthe
p1061
aVwhole
p1062
aVforest
p1063
ag65
aVat
p1064
aVonce
p1065
ag65
aVwith
p1066
aVone
p1067
aVstroke
p1068
ag82
asg83
(lp1069
g85
ag85
ag85
ag85
ag85
ag85
ag85
ag85
ag85
ag85
ag85
ag85
ag85
asg86
(lp1070
g387
ag95
ag88
ag89
ag90
ag97
ag93
ag95
ag97
ag93
ag388
ag90
ag102
asg103
VWhy not the whole forest, at once, with one stroke.
p1071
sba(i__main__
Sentence
p1072
(dp1073
g17
I22
sg18
(lp1074
S'The'
p1075
aS'whole'
p1076
aS'forest'
p1077
aS','
p1078
aS'young'
p1079
aS'and'
p1080
aS'old'
p1081
aS','
p1082
aS'with'
p1083
aS'all'
p1084
aS'that'
p1085
aS'is'
p1086
aS'there'
p1087
aS','
p1088
aS'both'
p1089
aS'gnarled'
p1090
aS'and'
p1091
aS'smooth'
p1092
aS','
p1093
aS'and'
p1094
aS'the'
p1095
aS'well'
p1096
aS'and'
p1097
aS'its'
p1098
aS'spring'
p1099
aS'too'
p1100
aS','
p1101
aS'growled'
p1102
aS'the'
p1103
aS'credulous'
p1104
aS'giant'
p1105
aS'in'
p1106
aS'his'
p1107
aS'beard'
p1108
aS','
p1109
aS'and'
p1110
aS'was'
p1111
aS'still'
p1112
aS'more'
p1113
aS'terrified'
p1114
aS'.'
p1115
asg51
(lp1116
VThe
p1117
aVwhole
p1118
aVforest
p1119
ag65
aVyoung
p1120
aVand
p1121
aVold
p1122
ag65
aVwith
p1123
aVall
p1124
aVthat
p1125
ag288
aVthere
p1126
ag65
aVboth
p1127
aVgnarl
p1128
aVand
p1129
aVsmooth
p1130
ag65
aVand
p1131
aVthe
p1132
aVwell
p1133
aVand
p1134
aVit
p1135
aVspring
p1136
aVtoo
p1137
ag65
aVgrowl
p1138
aVthe
p1139
aVcredulous
p1140
aVgiant
p1141
aVin
p1142
aVhis
p1143
aVbeard
p1144
ag65
aVand
p1145
ag57
aVstill
p1146
aVmore
p1147
aVterrified
p1148
ag82
asg83
(lp1149
g85
ag85
ag85
ag85
ag85
ag85
ag85
ag85
ag85
ag85
ag85
ag85
ag85
ag85
ag85
ag85
ag85
ag85
ag85
ag85
ag85
ag85
ag85
ag85
ag85
ag85
ag85
ag85
ag85
ag85
ag85
ag85
ag85
ag85
ag85
ag85
ag85
ag85
ag85
ag85
ag85
asg86
(lp1150
g88
ag89
ag90
ag97
ag89
ag94
ag89
ag97
ag93
ag88
ag88
ag304
ag95
ag97
ag88
ag92
ag94
ag88
ag97
ag94
ag88
ag90
ag94
ag99
ag90
ag95
ag97
ag92
ag88
ag89
ag90
ag93
ag99
ag90
ag97
ag94
ag92
ag95
ag651
ag89
ag102
asg103
VThe whole forest, young and old, with all that is there, both gnarled and smooth, and the well and its spring too, growled the credulous giant in his beard, and was still more terrified.
p1151
sba(i__main__
Sentence
p1152
(dp1153
g17
I23
sg18
(lp1154
S'The'
p1155
aS'knave'
p1156
aS'can'
p1157
aS'do'
p1158
aS'much'
p1159
aS'more'
p1160
aS'than'
p1161
aS'bake'
p1162
aS'apples'
p1163
aS','
p1164
aS'and'
p1165
aS'has'
p1166
aS'a'
p1167
aS'mandrake'
p1168
aS'in'
p1169
aS'his'
p1170
aS'body'
p1171
aS'.'
p1172
asg51
(lp1173
VThe
p1174
aVknave
p1175
aVcan
p1176
aVdo
p1177
aVmuch
p1178
aVmore
p1179
aVthan
p1180
aVbake
p1181
aVapple
p1182
ag65
aVand
p1183
ag937
ag75
aVmandrake
p1184
aVin
p1185
aVhis
p1186
aVbody
p1187
ag82
asg83
(lp1188
g85
ag85
ag85
ag85
ag85
ag85
ag85
ag85
ag85
ag85
ag85
ag85
ag85
ag85
ag85
ag85
ag85
ag85
asg86
(lp1189
g88
ag90
ag176
ag101
ag95
ag849
ag93
ag90
ag246
ag97
ag94
ag304
ag88
ag90
ag93
ag99
ag90
ag102
asg103
VThe knave can do much more than bake apples, and has a mandrake in his body.
p1190
sba(i__main__
Sentence
p1191
(dp1192
g17
I24
sg18
(lp1193
S'Be'
p1194
aS'on'
p1195
aS'your'
p1196
aS'guard'
p1197
aS','
p1198
aS'old'
p1199
aS'Hans'
p1200
aS','
p1201
aS'this'
p1202
aS'is'
p1203
aS'no'
p1204
aS'serving-man'
p1205
aS'for'
p1206
aS'you'
p1207
aS'.'
p1208
asg51
(lp1209
VBe
p1210
aVon
p1211
aVyour
p1212
aVguard
p1213
ag65
aVold
p1214
aVHans
p1215
ag65
aVthis
p1216
ag288
aVno
p1217
aVserving-man
p1218
aVfor
p1219
aVyou
p1220
ag82
asg83
(lp1221
g85
ag85
ag85
ag85
ag85
ag85
aVPERSON
p1222
ag85
ag85
ag85
ag85
ag85
ag85
ag85
ag85
asg86
(lp1223
g101
ag93
ag99
ag90
ag97
ag89
ag246
ag97
ag88
ag304
ag88
ag89
ag93
ag98
ag102
asg103
VBe on your guard, old Hans, this is no serving-man for you.
p1224
sba(i__main__
Sentence
p1225
(dp1226
g17
I25
sg18
(lp1227
S'When'
p1228
aS'the'
p1229
aS'tailor'
p1230
aS'had'
p1231
aS'brought'
p1232
aS'the'
p1233
aS'wood'
p1234
aS','
p1235
aS'the'
p1236
aS'giant'
p1237
aS'commanded'
p1238
aS'him'
p1239
aS'to'
p1240
aS'shoot'
p1241
aS'two'
p1242
aS'or'
p1243
aS'three'
p1244
aS'wild'
p1245
aS'boars'
p1246
aS'for'
p1247
aS'supper'
p1248
aS'.'
p1249
asg51
(lp1250
VWhen
p1251
aVthe
p1252
aVtailor
p1253
ag366
ag1016
aVthe
p1254
aVwood
p1255
ag65
aVthe
p1256
aVgiant
p1257
aVcommand
p1258
aVhim
p1259
aVto
p1260
aVshoot
p1261
aVtwo
p1262
aVor
p1263
aVthree
p1264
aVwild
p1265
aVboar
p1266
aVfor
p1267
aVsupper
p1268
ag82
asg83
(lp1269
g85
ag85
ag85
ag85
ag85
ag85
ag85
ag85
ag85
ag85
ag85
ag85
ag85
ag85
ag85
ag85
ag85
ag85
ag85
ag85
ag85
ag85
asg86
(lp1270
g387
ag88
ag90
ag92
ag305
ag88
ag90
ag97
ag88
ag89
ag305
ag98
ag100
ag101
ag388
ag94
ag388
ag89
ag246
ag93
ag90
ag102
asg103
VWhen the tailor had brought the wood, the giant commanded him to shoot two or three wild boars for supper.
p1271
sba(i__main__
Sentence
p1272
(dp1273
g17
I26
sg18
(lp1274
S'Why'
p1275
aS'not'
p1276
aS'rather'
p1277
aS'a'
p1278
aS'thousand'
p1279
aS'at'
p1280
aS'one'
p1281
aS'shot'
p1282
aS','
p1283
aS'and'
p1284
aS'bring'
p1285
aS'them'
p1286
aS'all'
p1287
aS'here'
p1288
aS','
p1289
aS'inquired'
p1290
aS'the'
p1291
aS'insolent'
p1292
aS'tailor'
p1293
aS'.'
p1294
asg51
(lp1295
VWhy
p1296
aVnot
p1297
aVrather
p1298
ag75
aVthousand
p1299
aVat
p1300
aVone
p1301
aVshot
p1302
ag65
aVand
p1303
aVbring
p1304
aVthem
p1305
aVall
p1306
aVhere
p1307
ag65
aVinquire
p1308
aVthe
p1309
aVinsolent
p1310
aVtailor
p1311
ag82
asg83
(lp1312
g85
ag85
ag85
ag85
ag85
ag85
ag85
ag85
ag85
ag85
ag85
ag85
ag85
ag85
ag85
ag85
ag85
ag85
ag85
ag85
asg86
(lp1313
g387
ag95
ag95
ag88
ag90
ag93
ag388
ag90
ag97
ag94
ag96
ag98
ag88
ag95
ag97
ag305
ag88
ag90
ag90
ag102
asg103
VWhy not rather a thousand at one shot, and bring them all here, inquired the insolent tailor.
p1314
sba(i__main__
Sentence
p1315
(dp1316
g17
I27
sg18
(lp1317
S'What'
p1318
aS','
p1319
aS'cried'
p1320
aS'the'
p1321
aS'timid'
p1322
aS'giant'
p1323
aS'in'
p1324
aS'great'
p1325
aS'terror'
p1326
aS'.'
p1327
asg51
(lp1328
VWhat
p1329
ag65
ag432
aVthe
p1330
aVtimid
p1331
aVgiant
p1332
aVin
p1333
aVgreat
p1334
aVterror
p1335
ag82
asg83
(lp1336
g85
ag85
ag85
ag85
ag85
ag85
ag85
ag85
ag85
ag85
asg86
(lp1337
g91
ag97
ag92
ag88
ag90
ag90
ag93
ag89
ag90
ag102
asg103
VWhat, cried the timid giant in great terror.
p1338
sba(i__main__
Sentence
p1339
(dp1340
g17
I28
sg18
(lp1341
S'Let'
p1342
aS'well'
p1343
aS'alone'
p1344
aS'to-night'
p1345
aS','
p1346
aS'and'
p1347
aS'lie'
p1348
aS'down'
p1349
aS'to'
p1350
aS'rest'
p1351
aS'.'
p1352
asg51
(lp1353
VLet
p1354
aVwell
p1355
aValone
p1356
aVto-night
p1357
ag65
aVand
p1358
aVlie
p1359
aVdown
p1360
aVto
p1361
aVrest
p1362
ag82
asg83
(lp1363
g85
ag85
ag85
ag85
ag85
ag85
ag85
ag85
ag85
ag85
ag85
asg86
(lp1364
g303
ag95
ag95
ag89
ag97
ag94
ag101
ag248
ag100
ag101
ag102
asg103
VLet well alone to-night, and lie down to rest.
p1365
sba(i__main__
Sentence
p1366
(dp1367
g17
I29
sg18
(lp1368
S'The'
p1369
aS'giant'
p1370
aS'was'
p1371
aS'so'
p1372
aS'terribly'
p1373
aS'alarmed'
p1374
aS'that'
p1375
aS'he'
p1376
aS'could'
p1377
aS'not'
p1378
aS'close'
p1379
aS'an'
p1380
aS'eye'
p1381
aS'all'
p1382
aS'night'
p1383
aS'long'
p1384
aS'for'
p1385
aS'thinking'
p1386
aS'what'
p1387
aS'would'
p1388
aS'be'
p1389
aS'the'
p1390
aS'best'
p1391
aS'way'
p1392
aS'to'
p1393
aS'get'
p1394
aS'rid'
p1395
aS'of'
p1396
aS'this'
p1397
aS'accursed'
p1398
aS'sorcerer'
p1399
aS'of'
p1400
aS'a'
p1401
aS'servant'
p1402
aS'.'
p1403
asg51
(lp1404
VThe
p1405
aVgiant
p1406
ag57
aVso
p1407
aVterribly
p1408
aValarm
p1409
aVthat
p1410
aVhe
p1411
aVcould
p1412
aVnot
p1413
aVclose
p1414
aVan
p1415
aVeye
p1416
aVall
p1417
aVnight
p1418
aVlong
p1419
aVfor
p1420
aVthink
p1421
aVwhat
p1422
aVwould
p1423
aVbe
p1424
aVthe
p1425
aVbest
p1426
aVway
p1427
aVto
p1428
aVget
p1429
aVrid
p1430
aVof
p1431
aVthis
p1432
aVaccurse
p1433
aVsorcerer
p1434
aVof
p1435
ag75
aVservant
p1436
ag82
asg83
(lp1437
g85
ag85
ag85
ag85
ag85
ag85
ag85
ag85
ag85
ag85
ag85
ag85
ag85
ag85
ag85
ag85
ag85
ag85
ag85
ag85
ag85
ag85
ag85
ag85
ag85
ag85
ag85
ag85
ag85
ag85
ag85
ag85
ag85
ag85
ag85
asg86
(lp1438
g88
ag89
ag92
ag95
ag95
ag305
ag93
ag98
ag176
ag95
ag101
ag88
ag90
ag88
ag90
ag95
ag93
ag96
ag91
ag176
ag101
ag88
ag1040
ag90
ag100
ag101
ag89
ag93
ag88
ag305
ag90
ag93
ag88
ag89
ag102
asg103
VThe giant was so terribly alarmed that he could not close an eye all night long for thinking what would be the best way to get rid of this accursed sorcerer of a servant.
p1439
sba(i__main__
Sentence
p1440
(dp1441
g17
I30
sg18
(lp1442
S'Time'
p1443
aS'brings'
p1444
aS'counsel'
p1445
aS'.'
p1446
asg51
(lp1447
VTime
p1448
aVbring
p1449
aVcounsel
p1450
ag82
asg83
(lp1451
g85
ag85
ag85
ag85
asg86
(lp1452
g303
ag304
ag90
ag102
asg103
VTime brings counsel.
p1453
sba(i__main__
Sentence
p1454
(dp1455
g17
I31
sg18
(lp1456
S'Next'
p1457
aS'morning'
p1458
aS'the'
p1459
aS'giant'
p1460
aS'and'
p1461
aS'the'
p1462
aS'tailor'
p1463
aS'went'
p1464
aS'to'
p1465
aS'a'
p1466
aS'marsh'
p1467
aS','
p1468
aS'round'
p1469
aS'which'
p1470
aS'stood'
p1471
aS'a'
p1472
aS'number'
p1473
aS'of'
p1474
aS'willow-trees'
p1475
aS'.'
p1476
asg51
(lp1477
VNext
p1478
aVmorning
p1479
aVthe
p1480
aVgiant
p1481
aVand
p1482
aVthe
p1483
aVtailor
p1484
ag297
aVto
p1485
ag75
aVmarsh
p1486
ag65
aVround
p1487
aVwhich
p1488
aVstood
p1489
ag75
aVnumber
p1490
aVof
p1491
aVwillow-trees
p1492
ag82
asg83
(lp1493
g85
ag85
ag85
ag85
ag85
ag85
ag85
ag85
ag85
ag85
ag85
ag85
ag85
ag85
ag85
ag85
ag85
ag85
ag85
ag85
asg86
(lp1494
g89
ag90
ag88
ag89
ag94
ag88
ag90
ag92
ag100
ag88
ag89
ag97
ag90
ag247
ag90
ag88
ag90
ag93
ag246
ag102
asg103
VNext morning the giant and the tailor went to a marsh, round which stood a number of willow-trees.
p1495
sba(i__main__
Sentence
p1496
(dp1497
g17
I32
sg18
(lp1498
S'Then'
p1499
aS'said'
p1500
aS'the'
p1501
aS'giant'
p1502
aS','
p1503
aS'listen'
p1504
aS','
p1505
aS'tailor'
p1506
aS','
p1507
aS'seat'
p1508
aS'yourself'
p1509
aS'on'
p1510
aS'one'
p1511
aS'of'
p1512
aS'the'
p1513
aS'willow-branches'
p1514
aS'.'
p1515
asg51
(lp1516
VThen
p1517
ag535
aVthe
p1518
aVgiant
p1519
ag65
aVlisten
p1520
ag65
aVtailor
p1521
ag65
aVseat
p1522
aVyourself
p1523
aVon
p1524
aVone
p1525
aVof
p1526
aVthe
p1527
aVwillow-branches
p1528
ag82
asg83
(lp1529
g85
ag85
ag85
ag85
ag85
ag85
ag85
ag85
ag85
ag85
ag85
ag85
ag85
ag85
ag85
ag85
ag85
asg86
(lp1530
g95
ag92
ag88
ag89
ag97
ag95
ag97
ag90
ag97
ag90
ag98
ag93
ag388
ag93
ag88
ag246
ag102
asg103
VThen said the giant, listen, tailor, seat yourself on one of the willow-branches.
p1531
sba(i__main__
Sentence
p1532
(dp1533
g17
I33
sg18
(lp1534
S'I'
p1535
aS'long'
p1536
aS'of'
p1537
aS'all'
p1538
aS'things'
p1539
aS'to'
p1540
aS'see'
p1541
aS'if'
p1542
aS'you'
p1543
aS'are'
p1544
aS'big'
p1545
aS'enough'
p1546
aS'to'
p1547
aS'bend'
p1548
aS'it'
p1549
aS'down'
p1550
aS'.'
p1551
asg51
(lp1552
g483
aVlong
p1553
aVof
p1554
aVall
p1555
aVthing
p1556
aVto
p1557
aVsee
p1558
aVif
p1559
aVyou
p1560
ag533
aVbig
p1561
aVenough
p1562
aVto
p1563
aVbend
p1564
aVit
p1565
aVdown
p1566
ag82
asg83
(lp1567
g85
ag85
ag85
ag85
ag85
ag85
ag85
ag85
ag85
ag85
ag85
ag85
ag85
ag85
ag85
ag85
ag85
asg86
(lp1568
g98
ag446
ag93
ag88
ag246
ag100
ag101
ag93
ag98
ag446
ag89
ag95
ag100
ag101
ag98
ag93
ag102
asg103
VI long of all things to see if you are big enough to bend it down.
p1569
sba(i__main__
Sentence
p1570
(dp1571
g17
I34
sg18
(lp1572
S'All'
p1573
aS'at'
p1574
aS'once'
p1575
aS'the'
p1576
aS'tailor'
p1577
aS'was'
p1578
aS'sitting'
p1579
aS'on'
p1580
aS'it'
p1581
aS','
p1582
aS'holding'
p1583
aS'his'
p1584
aS'breath'
p1585
aS','
p1586
aS'and'
p1587
aS'making'
p1588
aS'himself'
p1589
aS'heavy'
p1590
aS','
p1591
aS'so'
p1592
aS'heavy'
p1593
aS'that'
p1594
aS'the'
p1595
aS'bough'
p1596
aS'bent'
p1597
aS'down'
p1598
aS'.'
p1599
asg51
(lp1600
VAll
p1601
aVat
p1602
aVonce
p1603
aVthe
p1604
aVtailor
p1605
ag57
aVsit
p1606
aVon
p1607
aVit
p1608
ag65
aVhold
p1609
aVhis
p1610
aVbreath
p1611
ag65
aVand
p1612
aVmake
p1613
aVhimself
p1614
aVheavy
p1615
ag65
aVso
p1616
aVheavy
p1617
aVthat
p1618
aVthe
p1619
aVbough
p1620
aVbent
p1621
aVdown
p1622
ag82
asg83
(lp1623
g85
ag85
ag85
ag85
ag85
ag85
ag85
ag85
ag85
ag85
ag85
ag85
ag85
ag85
ag85
ag85
ag85
ag85
ag85
ag85
ag85
ag85
ag85
ag85
ag85
ag85
ag85
asg86
(lp1624
g88
ag93
ag95
ag88
ag90
ag92
ag96
ag93
ag98
ag97
ag96
ag99
ag90
ag97
ag94
ag96
ag98
ag89
ag97
ag95
ag89
ag93
ag88
ag89
ag90
ag93
ag102
asg103
VAll at once the tailor was sitting on it, holding his breath, and making himself heavy, so heavy that the bough bent down.
p1625
sba(i__main__
Sentence
p1626
(dp1627
g17
I35
sg18
(lp1628
S'When'
p1629
aS','
p1630
aS'however'
p1631
aS','
p1632
aS'he'
p1633
aS'was'
p1634
aS'compelled'
p1635
aS'to'
p1636
aS'draw'
p1637
aS'breath'
p1638
aS','
p1639
aS'it'
p1640
aS'hurled'
p1641
aS'him'
p1642
aS'-'
p1643
aS'for'
p1644
aS'unfortunately'
p1645
aS'he'
p1646
aS'had'
p1647
aS'not'
p1648
aS'put'
p1649
aS'his'
p1650
aS'goose'
p1651
aS'in'
p1652
aS'his'
p1653
aS'pocket'
p1654
aS'-'
p1655
aS'so'
p1656
aS'high'
p1657
aS'into'
p1658
aS'the'
p1659
aS'air'
p1660
aS'that'
p1661
aS'he'
p1662
aS'never'
p1663
aS'was'
p1664
aS'seen'
p1665
aS'again'
p1666
aS','
p1667
aS'and'
p1668
aS'this'
p1669
aS'to'
p1670
aS'the'
p1671
aS'great'
p1672
aS'delight'
p1673
aS'of'
p1674
aS'the'
p1675
aS'giant'
p1676
aS'.'
p1677
asg51
(lp1678
VWhen
p1679
ag65
aVhowever
p1680
ag65
aVhe
p1681
ag57
aVcompel
p1682
aVto
p1683
aVdraw
p1684
aVbreath
p1685
ag65
aVit
p1686
aVhurl
p1687
aVhim
p1688
aV-
p1689
aVfor
p1690
aVunfortunately
p1691
aVhe
p1692
ag366
aVnot
p1693
aVput
p1694
aVhis
p1695
aVgoose
p1696
aVin
p1697
aVhis
p1698
aVpocket
p1699
ag1689
aVso
p1700
aVhigh
p1701
aVinto
p1702
aVthe
p1703
aVair
p1704
aVthat
p1705
aVhe
p1706
aVnever
p1707
ag57
aVsee
p1708
aVagain
p1709
ag65
aVand
p1710
aVthis
p1711
aVto
p1712
aVthe
p1713
aVgreat
p1714
aVdelight
p1715
aVof
p1716
aVthe
p1717
aVgiant
p1718
ag82
asg83
(lp1719
g85
ag85
ag85
ag85
ag85
ag85
ag85
ag85
ag85
ag85
ag85
ag85
ag85
ag85
ag85
ag85
ag85
ag85
ag85
ag85
ag85
ag85
ag85
ag85
ag85
ag85
ag85
ag85
ag85
ag85
ag85
ag85
ag85
ag85
ag85
ag85
ag85
ag85
ag85
ag85
ag85
ag85
ag85
ag85
ag85
ag85
ag85
ag85
ag85
asg86
(lp1720
g387
ag97
ag95
ag97
ag98
ag92
ag305
ag100
ag101
ag90
ag97
ag98
ag92
ag98
aS':'
p1721
ag93
ag95
ag98
ag92
ag95
ag305
ag99
ag90
ag93
ag99
ag90
ag1721
ag95
ag89
ag93
ag88
ag90
ag93
ag98
ag95
ag92
ag305
ag95
ag97
ag94
ag88
ag100
ag88
ag89
ag90
ag93
ag88
ag89
ag102
asg103
VWhen, however, he was compelled to draw breath, it hurled him - for unfortunately he had not put his goose in his pocket - so high into the air that he never was seen again, and this to the great delight of the giant.
p1722
sba(i__main__
Sentence
p1723
(dp1724
g17
I36
sg18
(lp1725
S'If'
p1726
aS'the'
p1727
aS'tailor'
p1728
aS'has'
p1729
aS'not'
p1730
aS'fallen'
p1731
aS'down'
p1732
aS'again'
p1733
aS','
p1734
aS'he'
p1735
aS'must'
p1736
aS'still'
p1737
aS'be'
p1738
aS'hovering'
p1739
aS'about'
p1740
aS'in'
p1741
aS'the'
p1742
aS'air'
p1743
aS'.'
p1744
asg51
(lp1745
VIf
p1746
aVthe
p1747
aVtailor
p1748
ag937
aVnot
p1749
aVfall
p1750
aVdown
p1751
aVagain
p1752
ag65
aVhe
p1753
aVmust
p1754
aVstill
p1755
aVbe
p1756
aVhover
p1757
aVabout
p1758
aVin
p1759
aVthe
p1760
aVair
p1761
ag82
asg83
(lp1762
g85
ag85
ag85
ag85
ag85
ag85
ag85
ag85
ag85
ag85
ag85
ag85
ag85
ag85
ag85
ag85
ag85
ag85
ag85
asg86
(lp1763
g93
ag88
ag90
ag304
ag95
ag305
ag95
ag95
ag97
ag98
ag176
ag95
ag101
ag96
ag93
ag93
ag88
ag90
ag102
asg103
VIf the tailor has not fallen down again, he must still be hovering about in the air. 
p1764
sbasbsS'summary'
p1765
g0
(g7
g2
Ntp1766
Rp1767
(dp1768
g11
S'A boasting tailor meets a giant. The giant asks what the man wants and he responds he wants a piece of bread. The giant proposes the man work for him. The tailor agrees but secretly seeks some way to get away from the giant. His first task is to bring the giant a drink. The tailor sarcastically mentions he should bring the entire spring and well. The giant is troubled at this saying. Next the giant asks the tailor to cut down a few blocks of wood. The tailor again mocks the giant and says he will cut the entire forest down. Finally the giant asks for the tailor to kill a wild boar for supper. The tailor boasts he will kill one thousand boars with one shot. Here the giant suggests they just go to bed. The next...'
p1769
sg13
(lp1770
(i__main__
Sentence
p1771
(dp1772
g17
I0
sg18
(lp1773
S'A'
p1774
aS'boasting'
p1775
aS'tailor'
p1776
aS'meets'
p1777
aS'a'
p1778
aS'giant'
p1779
aS'.'
p1780
asg51
(lp1781
g53
aVboasting
p1782
aVtailor
p1783
aVmeet
p1784
ag75
aVgiant
p1785
ag82
asg83
(lp1786
g85
ag85
ag85
ag85
ag85
ag85
ag85
asg86
(lp1787
g88
ag90
ag90
ag246
ag88
ag89
ag102
asg103
VA boasting tailor meets a giant.
p1788
sba(i__main__
Sentence
p1789
(dp1790
g17
I1
sg18
(lp1791
S'The'
p1792
aS'giant'
p1793
aS'asks'
p1794
aS'what'
p1795
aS'the'
p1796
aS'man'
p1797
aS'wants'
p1798
aS'and'
p1799
aS'he'
p1800
aS'responds'
p1801
aS'he'
p1802
aS'wants'
p1803
aS'a'
p1804
aS'piece'
p1805
aS'of'
p1806
aS'bread'
p1807
aS'.'
p1808
asg51
(lp1809
VThe
p1810
aVgiant
p1811
aVasks
p1812
aVwhat
p1813
aVthe
p1814
aVman
p1815
aVwant
p1816
aVand
p1817
aVhe
p1818
aVrespond
p1819
aVhe
p1820
aVwant
p1821
ag75
aVpiece
p1822
aVof
p1823
aVbread
p1824
ag82
asg83
(lp1825
g85
ag85
ag85
ag85
ag85
ag85
ag85
ag85
ag85
ag85
ag85
ag85
ag85
ag85
ag85
ag85
ag85
asg86
(lp1826
g88
ag89
ag246
ag91
ag88
ag90
ag304
ag94
ag98
ag304
ag98
ag304
ag88
ag90
ag93
ag90
ag102
asg103
VThe giant asks what the man wants and he responds he wants a piece of bread.
p1827
sba(i__main__
Sentence
p1828
(dp1829
g17
I2
sg18
(lp1830
S'The'
p1831
aS'giant'
p1832
aS'proposes'
p1833
aS'the'
p1834
aS'man'
p1835
aS'work'
p1836
aS'for'
p1837
aS'him'
p1838
aS'.'
p1839
asg51
(lp1840
VThe
p1841
aVgiant
p1842
aVproposes
p1843
aVthe
p1844
aVman
p1845
aVwork
p1846
aVfor
p1847
aVhim
p1848
ag82
asg83
(lp1849
g85
ag85
ag85
ag85
ag85
ag85
ag85
ag85
ag85
asg86
(lp1850
g88
ag89
ag246
ag88
ag90
ag90
ag93
ag98
ag102
asg103
VThe giant proposes the man work for him.
p1851
sba(i__main__
Sentence
p1852
(dp1853
g17
I3
sg18
(lp1854
S'The'
p1855
aS'tailor'
p1856
aS'agrees'
p1857
aS'but'
p1858
aS'secretly'
p1859
aS'seeks'
p1860
aS'some'
p1861
aS'way'
p1862
aS'to'
p1863
aS'get'
p1864
aS'away'
p1865
aS'from'
p1866
aS'the'
p1867
aS'giant'
p1868
aS'.'
p1869
asg51
(lp1870
VThe
p1871
aVtailor
p1872
aVagree
p1873
aVbut
p1874
aVsecretly
p1875
aVseek
p1876
aVsome
p1877
aVway
p1878
aVto
p1879
aVget
p1880
aVaway
p1881
aVfrom
p1882
aVthe
p1883
aVgiant
p1884
ag82
asg83
(lp1885
g85
ag85
ag85
ag85
ag85
ag85
ag85
ag85
ag85
ag85
ag85
ag85
ag85
ag85
ag85
asg86
(lp1886
g88
ag90
ag304
ag94
ag95
ag304
ag88
ag90
ag100
ag101
ag95
ag93
ag88
ag89
ag102
asg103
VThe tailor agrees but secretly seeks some way to get away from the giant.
p1887
sba(i__main__
Sentence
p1888
(dp1889
g17
I4
sg18
(lp1890
S'His'
p1891
aS'first'
p1892
aS'task'
p1893
aS'is'
p1894
aS'to'
p1895
aS'bring'
p1896
aS'the'
p1897
aS'giant'
p1898
aS'a'
p1899
aS'drink'
p1900
aS'.'
p1901
asg51
(lp1902
VHis
p1903
aVfirst
p1904
aVtask
p1905
ag288
aVto
p1906
aVbring
p1907
aVthe
p1908
aVgiant
p1909
ag75
aVdrink
p1910
ag82
asg83
(lp1911
g85
ag85
ag85
ag85
ag85
ag85
ag85
ag85
ag85
ag85
ag85
asg86
(lp1912
g99
ag89
ag90
ag304
ag100
ag101
ag88
ag89
ag88
ag90
ag102
asg103
VHis first task is to bring the giant a drink.
p1913
sba(i__main__
Sentence
p1914
(dp1915
g17
I5
sg18
(lp1916
S'The'
p1917
aS'tailor'
p1918
aS'sarcastically'
p1919
aS'mentions'
p1920
aS'he'
p1921
aS'should'
p1922
aS'bring'
p1923
aS'the'
p1924
aS'entire'
p1925
aS'spring'
p1926
aS'and'
p1927
aS'well'
p1928
aS'.'
p1929
asg51
(lp1930
VThe
p1931
aVtailor
p1932
aVsarcastically
p1933
aVmention
p1934
aVhe
p1935
aVshould
p1936
aVbring
p1937
aVthe
p1938
aVentire
p1939
aVspring
p1940
aVand
p1941
aVwell
p1942
ag82
asg83
(lp1943
g85
ag85
ag85
ag85
ag85
ag85
ag85
ag85
ag85
ag85
ag85
ag85
ag85
asg86
(lp1944
g88
ag90
ag95
ag246
ag98
ag176
ag101
ag88
ag89
ag90
ag94
ag95
ag102
asg103
VThe tailor sarcastically mentions he should bring the entire spring and well.
p1945
sba(i__main__
Sentence
p1946
(dp1947
g17
I6
sg18
(lp1948
S'The'
p1949
aS'giant'
p1950
aS'is'
p1951
aS'troubled'
p1952
aS'at'
p1953
aS'this'
p1954
aS'saying'
p1955
aS'.'
p1956
asg51
(lp1957
VThe
p1958
aVgiant
p1959
ag288
aVtrouble
p1960
aVat
p1961
aVthis
p1962
aVsay
p1963
ag82
asg83
(lp1964
g85
ag85
ag85
ag85
ag85
ag85
ag85
ag85
asg86
(lp1965
g88
ag89
ag304
ag305
ag93
ag88
ag96
ag102
asg103
VThe giant is troubled at this saying.
p1966
sba(i__main__
Sentence
p1967
(dp1968
g17
I7
sg18
(lp1969
S'Next'
p1970
aS'the'
p1971
aS'giant'
p1972
aS'asks'
p1973
aS'the'
p1974
aS'tailor'
p1975
aS'to'
p1976
aS'cut'
p1977
aS'down'
p1978
aS'a'
p1979
aS'few'
p1980
aS'blocks'
p1981
aS'of'
p1982
aS'wood'
p1983
aS'.'
p1984
asg51
(lp1985
VNext
p1986
aVthe
p1987
aVgiant
p1988
aVasks
p1989
aVthe
p1990
aVtailor
p1991
aVto
p1992
aVcut
p1993
aVdown
p1994
ag75
aVfew
p1995
aVblock
p1996
aVof
p1997
aVwood
p1998
ag82
asg83
(lp1999
g85
ag85
ag85
ag85
ag85
ag85
ag85
ag85
ag85
ag85
ag85
ag85
ag85
ag85
ag85
asg86
(lp2000
g89
ag88
ag89
ag246
ag88
ag90
ag100
ag101
ag248
ag88
ag89
ag246
ag93
ag90
ag102
asg103
VNext the giant asks the tailor to cut down a few blocks of wood.
p2001
sba(i__main__
Sentence
p2002
(dp2003
g17
I8
sg18
(lp2004
S'The'
p2005
aS'tailor'
p2006
aS'again'
p2007
aS'mocks'
p2008
aS'the'
p2009
aS'giant'
p2010
aS'and'
p2011
aS'says'
p2012
aS'he'
p2013
aS'will'
p2014
aS'cut'
p2015
aS'the'
p2016
aS'entire'
p2017
aS'forest'
p2018
aS'down'
p2019
aS'.'
p2020
asg51
(lp2021
VThe
p2022
aVtailor
p2023
aVagain
p2024
aVmock
p2025
aVthe
p2026
aVgiant
p2027
aVand
p2028
aVsay
p2029
aVhe
p2030
aVwill
p2031
aVcut
p2032
aVthe
p2033
aVentire
p2034
aVforest
p2035
aVdown
p2036
ag82
asg83
(lp2037
g85
ag85
ag85
ag85
ag85
ag85
ag85
ag85
ag85
ag85
ag85
ag85
ag85
ag85
ag85
ag85
asg86
(lp2038
g88
ag90
ag95
ag304
ag88
ag89
ag94
ag304
ag98
ag176
ag101
ag88
ag89
ag90
ag93
ag102
asg103
VThe tailor again mocks the giant and says he will cut the entire forest down.
p2039
sba(i__main__
Sentence
p2040
(dp2041
g17
I9
sg18
(lp2042
S'Finally'
p2043
aS'the'
p2044
aS'giant'
p2045
aS'asks'
p2046
aS'for'
p2047
aS'the'
p2048
aS'tailor'
p2049
aS'to'
p2050
aS'kill'
p2051
aS'a'
p2052
aS'wild'
p2053
aS'boar'
p2054
aS'for'
p2055
aS'supper'
p2056
aS'.'
p2057
asg51
(lp2058
VFinally
p2059
aVthe
p2060
aVgiant
p2061
aVasks
p2062
aVfor
p2063
aVthe
p2064
aVtailor
p2065
aVto
p2066
aVkill
p2067
ag75
aVwild
p2068
aVboar
p2069
aVfor
p2070
aVsupper
p2071
ag82
asg83
(lp2072
g85
ag85
ag85
ag85
ag85
ag85
ag85
ag85
ag85
ag85
ag85
ag85
ag85
ag85
ag85
asg86
(lp2073
g95
ag88
ag89
ag246
ag93
ag88
ag90
ag100
ag101
ag88
ag90
ag90
ag93
ag90
ag102
asg103
VFinally the giant asks for the tailor to kill a wild boar for supper.
p2074
sba(i__main__
Sentence
p2075
(dp2076
g17
I10
sg18
(lp2077
S'The'
p2078
aS'tailor'
p2079
aS'boasts'
p2080
aS'he'
p2081
aS'will'
p2082
aS'kill'
p2083
aS'one'
p2084
aS'thousand'
p2085
aS'boars'
p2086
aS'with'
p2087
aS'one'
p2088
aS'shot'
p2089
aS'.'
p2090
asg51
(lp2091
VThe
p2092
aVtailor
p2093
aVboast
p2094
aVhe
p2095
aVwill
p2096
aVkill
p2097
aVone
p2098
aVthousand
p2099
aVboar
p2100
aVwith
p2101
aVone
p2102
aVshot
p2103
ag82
asg83
(lp2104
g85
ag85
ag85
ag85
ag85
ag85
ag85
ag85
ag85
ag85
ag85
ag85
ag85
asg86
(lp2105
g88
ag90
ag246
ag98
ag176
ag101
ag388
ag90
ag246
ag93
ag388
ag90
ag102
asg103
VThe tailor boasts he will kill one thousand boars with one shot.
p2106
sba(i__main__
Sentence
p2107
(dp2108
g17
I11
sg18
(lp2109
S'Here'
p2110
aS'the'
p2111
aS'giant'
p2112
aS'suggests'
p2113
aS'they'
p2114
aS'just'
p2115
aS'go'
p2116
aS'to'
p2117
aS'bed'
p2118
aS'.'
p2119
asg51
(lp2120
VHere
p2121
aVthe
p2122
aVgiant
p2123
aVsuggests
p2124
aVthey
p2125
aVjust
p2126
aVgo
p2127
aVto
p2128
aVbed
p2129
ag82
asg83
(lp2130
g85
ag85
ag85
ag85
ag85
ag85
ag85
ag85
ag85
ag85
asg86
(lp2131
g95
ag88
ag89
ag246
ag98
ag95
ag446
ag100
ag305
ag102
asg103
VHere the giant suggests they just go to bed.
p2132
sba(i__main__
Sentence
p2133
(dp2134
g17
I12
sg18
(lp2135
S'The'
p2136
aS'next'
p2137
aS'...'
p2138
asg51
(lp2139
VThe
p2140
aVnext
p2141
aV...
p2142
asg83
(lp2143
g85
ag85
ag85
asg86
(lp2144
g88
ag89
ag1721
asg103
VThe next...
p2145
sbasbsS'name'
p2146
S'The Giant and the Tailor'
p2147
sS'summaries'
p2148
(lp2149
g1767
asb.