ccopy_reg
_reconstructor
p0
(c__main__
Story
p1
c__builtin__
object
p2
Ntp3
Rp4
(dp5
S'text'
p6
g0
(c__main__
Document
p7
g2
Ntp8
Rp9
(dp10
S'_Document__initialContent'
p11
S"There was once a very old man, whose eyes had become dim, his ears\ndull of hearing, his knees trembled, and when he sat at table he\ncould hardly hold the spoon, and spilt the broth upon the table-cloth\nor let it run out of his mouth.  His son and his son's wife were\ndisgusted at this, so the old grandfather at last had to sit in the\ncorner behind the stove, and they gave him his food in an earthenware\nbowl, and not even enough of it.  And he used to look towards the\ntable with his eyes full of tears.\n\nOnce, too, his trembling hands could not hold the bowl, and it fell\nto the ground and broke.  The young wife scolded him, but he said\nnothing and only sighed.  Then they bought him a wooden bowl for a\nfew half-pence, out of which he had to eat.\n\nThey were once sitting thus when the little grandson of four years\nold began to gather together some bits of wood upon the ground.  What\nare you doing there, asked the father.  I am making a little trough,\nanswered the child, for father and mother to eat out of when I am\nbig.\n\nThe man and his wife looked at each other for a while, and presently\nbegan to cry.  Then they took the old grandfather to the table, and\nhenceforth always let him eat with them, and likewise said nothing if\nhe did spill a little of anything.\n"
p12
sS'sentences'
p13
(lp14
(i__main__
Sentence
p15
(dp16
S'index'
p17
I0
sS'words'
p18
(lp19
S'There'
p20
aS'was'
p21
aS'once'
p22
aS'a'
p23
aS'very'
p24
aS'old'
p25
aS'man'
p26
aS','
p27
aS'whose'
p28
aS'eyes'
p29
aS'had'
p30
aS'become'
p31
aS'dim'
p32
aS','
p33
aS'his'
p34
aS'ears'
p35
aS'dull'
p36
aS'of'
p37
aS'hearing'
p38
aS','
p39
aS'his'
p40
aS'knees'
p41
aS'trembled'
p42
aS','
p43
aS'and'
p44
aS'when'
p45
aS'he'
p46
aS'sat'
p47
aS'at'
p48
aS'table'
p49
aS'he'
p50
aS'could'
p51
aS'hardly'
p52
aS'hold'
p53
aS'the'
p54
aS'spoon'
p55
aS','
p56
aS'and'
p57
aS'spilt'
p58
aS'the'
p59
aS'broth'
p60
aS'upon'
p61
aS'the'
p62
aS'table-cloth'
p63
aS'or'
p64
aS'let'
p65
aS'it'
p66
aS'run'
p67
aS'out'
p68
aS'of'
p69
aS'his'
p70
aS'mouth'
p71
aS'.'
p72
asS'lemmas'
p73
(lp74
VThere
p75
aVbe
p76
aVonce
p77
aVa
p78
aVvery
p79
aVold
p80
aVman
p81
aV,
p82
aVwhose
p83
aVeye
p84
aVhave
p85
aVbecome
p86
aVdim
p87
ag82
aVhis
p88
aVear
p89
aVdull
p90
aVof
p91
aVhearing
p92
ag82
aVhis
p93
aVknee
p94
aVtremble
p95
ag82
aVand
p96
aVwhen
p97
aVhe
p98
aVsit
p99
aVat
p100
aVtable
p101
aVhe
p102
aVcould
p103
aVhardly
p104
aVhold
p105
aVthe
p106
aVspoon
p107
ag82
aVand
p108
aVspill
p109
aVthe
p110
aVbroth
p111
aVupon
p112
aVthe
p113
aVtable-cloth
p114
aVor
p115
aVlet
p116
aVit
p117
aVrun
p118
aVout
p119
aVof
p120
aVhis
p121
aVmouth
p122
aV.
p123
asS'nerTags'
p124
(lp125
VO
p126
ag126
ag126
ag126
ag126
ag126
ag126
ag126
ag126
ag126
ag126
ag126
ag126
ag126
ag126
ag126
ag126
ag126
ag126
ag126
ag126
ag126
ag126
ag126
ag126
ag126
ag126
ag126
ag126
ag126
ag126
ag126
ag126
ag126
ag126
ag126
ag126
ag126
ag126
ag126
ag126
ag126
ag126
ag126
ag126
ag126
ag126
ag126
ag126
ag126
ag126
ag126
ag126
asS'posTags'
p127
(lp128
S'EX'
p129
aS'VBD'
p130
aS'RB'
p131
aS'DT'
p132
ag131
aS'JJ'
p133
aS'NN'
p134
aS','
p135
aS'WP$'
p136
aS'NNS'
p137
ag130
aS'VBN'
p138
ag134
ag135
aS'PRP$'
p139
ag137
aS'VBP'
p140
aS'IN'
p141
ag134
ag135
ag139
ag137
ag130
ag135
aS'CC'
p142
aS'WRB'
p143
aS'PRP'
p144
ag140
ag141
ag133
ag144
aS'MD'
p145
ag131
aS'VB'
p146
ag132
ag134
ag135
ag142
ag130
ag132
ag134
ag141
ag132
ag133
ag142
ag146
ag144
ag146
aS'RP'
p147
ag141
ag139
ag134
aS'.'
p148
asS'_Sentence__initialContent'
p149
VThere was once a very old man, whose eyes had become dim, his ears dull of hearing, his knees trembled, and when he sat at table he could hardly hold the spoon, and spilt the broth upon the table-cloth or let it run out of his mouth.
p150
sba(i__main__
Sentence
p151
(dp152
g17
I1
sg18
(lp153
S'His'
p154
aS'son'
p155
aS'and'
p156
aS'his'
p157
aS'son'
p158
aS"'s"
p159
aS'wife'
p160
aS'were'
p161
aS'disgusted'
p162
aS'at'
p163
aS'this'
p164
aS','
p165
aS'so'
p166
aS'the'
p167
aS'old'
p168
aS'grandfather'
p169
aS'at'
p170
aS'last'
p171
aS'had'
p172
aS'to'
p173
aS'sit'
p174
aS'in'
p175
aS'the'
p176
aS'corner'
p177
aS'behind'
p178
aS'the'
p179
aS'stove'
p180
aS','
p181
aS'and'
p182
aS'they'
p183
aS'gave'
p184
aS'him'
p185
aS'his'
p186
aS'food'
p187
aS'in'
p188
aS'an'
p189
aS'earthenware'
p190
aS'bowl'
p191
aS','
p192
aS'and'
p193
aS'not'
p194
aS'even'
p195
aS'enough'
p196
aS'of'
p197
aS'it'
p198
aS'.'
p199
asg73
(lp200
VHis
p201
aVson
p202
aVand
p203
aVhis
p204
aVson
p205
aV's
p206
aVwife
p207
aVbe
p208
aVdisgust
p209
aVat
p210
aVthis
p211
ag82
aVso
p212
aVthe
p213
aVold
p214
aVgrandfather
p215
aVat
p216
aVlast
p217
ag85
aVto
p218
aVsit
p219
aVin
p220
aVthe
p221
aVcorner
p222
aVbehind
p223
aVthe
p224
aVstove
p225
ag82
aVand
p226
aVthey
p227
aVgive
p228
aVhim
p229
aVhis
p230
aVfood
p231
aVin
p232
aVan
p233
aVearthenware
p234
aVbowl
p235
ag82
aVand
p236
aVnot
p237
aVeven
p238
aVenough
p239
aVof
p240
aVit
p241
ag123
asg124
(lp242
g126
ag126
ag126
ag126
ag126
ag126
ag126
ag126
ag126
ag126
ag126
ag126
ag126
ag126
ag126
ag126
ag126
ag126
ag126
ag126
ag126
ag126
ag126
ag126
ag126
ag126
ag126
ag126
ag126
ag126
ag126
ag126
ag126
ag126
ag126
ag126
ag126
ag126
ag126
ag126
ag126
ag126
ag126
ag126
ag126
ag126
asg127
(lp243
g139
ag134
ag142
ag139
ag134
aS'POS'
p244
ag134
ag130
ag138
ag141
ag132
ag135
ag131
ag132
ag133
ag134
ag141
ag133
ag130
aS'TO'
p245
ag146
ag141
ag132
ag134
ag141
ag132
ag134
ag135
ag142
ag144
ag130
ag144
ag139
ag134
ag141
ag132
ag134
ag134
ag135
ag142
ag131
ag131
ag131
ag141
ag144
ag148
asg149
VHis son and his son's wife were disgusted at this, so the old grandfather at last had to sit in the corner behind the stove, and they gave him his food in an earthenware bowl, and not even enough of it.
p246
sba(i__main__
Sentence
p247
(dp248
g17
I2
sg18
(lp249
S'And'
p250
aS'he'
p251
aS'used'
p252
aS'to'
p253
aS'look'
p254
aS'towards'
p255
aS'the'
p256
aS'table'
p257
aS'with'
p258
aS'his'
p259
aS'eyes'
p260
aS'full'
p261
aS'of'
p262
aS'tears'
p263
aS'.'
p264
asg73
(lp265
VAnd
p266
aVhe
p267
aVuse
p268
aVto
p269
aVlook
p270
aVtowards
p271
aVthe
p272
aVtable
p273
aVwith
p274
aVhis
p275
aVeye
p276
aVfull
p277
aVof
p278
aVtear
p279
ag123
asg124
(lp280
g126
ag126
ag126
ag126
ag126
ag126
ag126
ag126
ag126
ag126
ag126
ag126
ag126
ag126
ag126
asg127
(lp281
g142
ag144
ag130
ag245
ag146
ag137
ag132
ag134
ag141
ag139
ag137
ag133
ag141
ag137
ag148
asg149
VAnd he used to look towards the table with his eyes full of tears.
p282
sba(i__main__
Sentence
p283
(dp284
g17
I3
sg18
(lp285
S'Once'
p286
aS','
p287
aS'too'
p288
aS','
p289
aS'his'
p290
aS'trembling'
p291
aS'hands'
p292
aS'could'
p293
aS'not'
p294
aS'hold'
p295
aS'the'
p296
aS'bowl'
p297
aS','
p298
aS'and'
p299
aS'it'
p300
aS'fell'
p301
aS'to'
p302
aS'the'
p303
aS'ground'
p304
aS'and'
p305
aS'broke'
p306
aS'.'
p307
asg73
(lp308
VOnce
p309
ag82
aVtoo
p310
ag82
aVhis
p311
aVtrembling
p312
aVhand
p313
aVcould
p314
aVnot
p315
aVhold
p316
aVthe
p317
aVbowl
p318
ag82
aVand
p319
aVit
p320
aVfell
p321
aVto
p322
aVthe
p323
aVground
p324
aVand
p325
aVbroke
p326
ag123
asg124
(lp327
g126
ag126
ag126
ag126
ag126
ag126
ag126
ag126
ag126
ag126
ag126
ag126
ag126
ag126
ag126
ag126
ag126
ag126
ag126
ag126
ag126
ag126
asg127
(lp328
g131
ag135
ag131
ag135
ag139
ag134
ag137
ag145
ag131
ag146
ag132
ag134
ag135
ag142
ag144
ag130
ag245
ag132
ag134
ag142
ag134
ag148
asg149
VOnce, too, his trembling hands could not hold the bowl, and it fell to the ground and broke.
p329
sba(i__main__
Sentence
p330
(dp331
g17
I4
sg18
(lp332
S'The'
p333
aS'young'
p334
aS'wife'
p335
aS'scolded'
p336
aS'him'
p337
aS','
p338
aS'but'
p339
aS'he'
p340
aS'said'
p341
aS'nothing'
p342
aS'and'
p343
aS'only'
p344
aS'sighed'
p345
aS'.'
p346
asg73
(lp347
VThe
p348
aVyoung
p349
aVwife
p350
aVscold
p351
aVhim
p352
ag82
aVbut
p353
aVhe
p354
aVsay
p355
aVnothing
p356
aVand
p357
aVonly
p358
aVsigh
p359
ag123
asg124
(lp360
g126
ag126
ag126
ag126
ag126
ag126
ag126
ag126
ag126
ag126
ag126
ag126
ag126
ag126
asg127
(lp361
g132
ag133
ag134
ag130
ag144
ag135
ag142
ag144
ag130
ag134
ag142
ag131
ag130
ag148
asg149
VThe young wife scolded him, but he said nothing and only sighed.
p362
sba(i__main__
Sentence
p363
(dp364
g17
I5
sg18
(lp365
S'Then'
p366
aS'they'
p367
aS'bought'
p368
aS'him'
p369
aS'a'
p370
aS'wooden'
p371
aS'bowl'
p372
aS'for'
p373
aS'a'
p374
aS'few'
p375
aS'half-pence'
p376
aS','
p377
aS'out'
p378
aS'of'
p379
aS'which'
p380
aS'he'
p381
aS'had'
p382
aS'to'
p383
aS'eat'
p384
aS'.'
p385
asg73
(lp386
VThen
p387
aVthey
p388
aVbuy
p389
aVhim
p390
ag78
aVwooden
p391
aVbowl
p392
aVfor
p393
ag78
aVfew
p394
aVhalf-pence
p395
ag82
aVout
p396
aVof
p397
aVwhich
p398
aVhe
p399
ag85
aVto
p400
aVeat
p401
ag123
asg124
(lp402
g126
ag126
ag126
ag126
ag126
ag126
ag126
ag126
ag126
ag126
ag126
ag126
ag126
ag126
ag126
ag126
ag126
ag126
ag126
ag126
asg127
(lp403
g131
ag144
ag130
ag144
ag132
ag134
ag134
ag141
ag132
ag133
ag134
ag135
ag141
ag141
aS'WDT'
p404
ag144
ag130
ag245
ag146
ag148
asg149
VThen they bought him a wooden bowl for a few half-pence, out of which he had to eat.
p405
sba(i__main__
Sentence
p406
(dp407
g17
I6
sg18
(lp408
S'They'
p409
aS'were'
p410
aS'once'
p411
aS'sitting'
p412
aS'thus'
p413
aS'when'
p414
aS'the'
p415
aS'little'
p416
aS'grandson'
p417
aS'of'
p418
aS'four'
p419
aS'years'
p420
aS'old'
p421
aS'began'
p422
aS'to'
p423
aS'gather'
p424
aS'together'
p425
aS'some'
p426
aS'bits'
p427
aS'of'
p428
aS'wood'
p429
aS'upon'
p430
aS'the'
p431
aS'ground'
p432
aS'.'
p433
asg73
(lp434
VThey
p435
ag208
aVonce
p436
aVsit
p437
aVthus
p438
aVwhen
p439
aVthe
p440
aVlittle
p441
aVgrandson
p442
aVof
p443
aVfour
p444
aVyear
p445
aVold
p446
aVbegin
p447
aVto
p448
aVgather
p449
aVtogether
p450
aVsome
p451
aVbit
p452
aVof
p453
aVwood
p454
aVupon
p455
aVthe
p456
aVground
p457
ag123
asg124
(lp458
g126
ag126
ag126
ag126
ag126
ag126
ag126
ag126
ag126
ag126
ag126
ag126
ag126
ag126
ag126
ag126
ag126
ag126
ag126
ag126
ag126
ag126
ag126
ag126
ag126
asg127
(lp459
g144
ag130
ag131
aS'VBG'
p460
ag131
ag143
ag132
ag133
ag134
ag141
aS'CD'
p461
ag137
ag133
ag130
ag245
ag146
ag147
ag132
ag137
ag141
ag134
ag141
ag132
ag134
ag148
asg149
VThey were once sitting thus when the little grandson of four years old began to gather together some bits of wood upon the ground.
p462
sba(i__main__
Sentence
p463
(dp464
g17
I7
sg18
(lp465
S'What'
p466
aS'are'
p467
aS'you'
p468
aS'doing'
p469
aS'there'
p470
aS','
p471
aS'asked'
p472
aS'the'
p473
aS'father'
p474
aS'.'
p475
asg73
(lp476
VWhat
p477
aVbe
p478
aVyou
p479
aVdo
p480
aVthere
p481
ag82
aVask
p482
aVthe
p483
aVfather
p484
ag123
asg124
(lp485
g126
ag126
ag126
ag126
ag126
ag126
ag126
ag126
ag126
ag126
asg127
(lp486
S'WP'
p487
ag140
ag144
ag460
ag131
ag135
ag130
ag132
ag134
ag148
asg149
VWhat are you doing there, asked the father.
p488
sba(i__main__
Sentence
p489
(dp490
g17
I8
sg18
(lp491
S'I'
p492
aS'am'
p493
aS'making'
p494
aS'a'
p495
aS'little'
p496
aS'trough'
p497
aS','
p498
aS'answered'
p499
aS'the'
p500
aS'child'
p501
aS','
p502
aS'for'
p503
aS'father'
p504
aS'and'
p505
aS'mother'
p506
aS'to'
p507
aS'eat'
p508
aS'out'
p509
aS'of'
p510
aS'when'
p511
aS'I'
p512
aS'am'
p513
aS'big'
p514
aS'.'
p515
asg73
(lp516
VI
p517
aVbe
p518
aVmake
p519
ag78
aVlittle
p520
aVtrough
p521
ag82
aVanswer
p522
aVthe
p523
aVchild
p524
ag82
aVfor
p525
aVfather
p526
aVand
p527
aVmother
p528
aVto
p529
aVeat
p530
aVout
p531
aVof
p532
aVwhen
p533
ag517
ag518
aVbig
p534
ag123
asg124
(lp535
g126
ag126
ag126
ag126
ag126
ag126
ag126
ag126
ag126
ag126
ag126
ag126
ag126
ag126
ag126
ag126
ag126
ag126
ag126
ag126
ag126
ag126
ag126
ag126
asg127
(lp536
g144
ag140
ag460
ag132
ag131
ag133
ag135
ag138
ag132
ag134
ag135
ag141
ag134
ag142
ag134
ag245
ag146
ag147
ag141
ag143
ag144
ag140
ag133
ag148
asg149
VI am making a little trough, answered the child, for father and mother to eat out of when I am big.
p537
sba(i__main__
Sentence
p538
(dp539
g17
I9
sg18
(lp540
S'The'
p541
aS'man'
p542
aS'and'
p543
aS'his'
p544
aS'wife'
p545
aS'looked'
p546
aS'at'
p547
aS'each'
p548
aS'other'
p549
aS'for'
p550
aS'a'
p551
aS'while'
p552
aS','
p553
aS'and'
p554
aS'presently'
p555
aS'began'
p556
aS'to'
p557
aS'cry'
p558
aS'.'
p559
asg73
(lp560
VThe
p561
aVman
p562
aVand
p563
aVhis
p564
aVwife
p565
aVlook
p566
aVat
p567
aVeach
p568
aVother
p569
aVfor
p570
ag78
aVwhile
p571
ag82
aVand
p572
aVpresently
p573
ag447
aVto
p574
aVcry
p575
ag123
asg124
(lp576
g126
ag126
ag126
ag126
ag126
ag126
ag126
ag126
ag126
ag126
ag126
ag126
ag126
ag126
ag126
ag126
ag126
ag126
ag126
asg127
(lp577
g132
ag134
ag142
ag139
ag134
ag130
ag141
ag132
ag133
ag141
ag132
ag134
ag135
ag142
ag131
ag130
ag245
ag134
ag148
asg149
VThe man and his wife looked at each other for a while, and presently began to cry.
p578
sba(i__main__
Sentence
p579
(dp580
g17
I10
sg18
(lp581
S'Then'
p582
aS'they'
p583
aS'took'
p584
aS'the'
p585
aS'old'
p586
aS'grandfather'
p587
aS'to'
p588
aS'the'
p589
aS'table'
p590
aS','
p591
aS'and'
p592
aS'henceforth'
p593
aS'always'
p594
aS'let'
p595
aS'him'
p596
aS'eat'
p597
aS'with'
p598
aS'them'
p599
aS','
p600
aS'and'
p601
aS'likewise'
p602
aS'said'
p603
aS'nothing'
p604
aS'if'
p605
aS'he'
p606
aS'did'
p607
aS'spill'
p608
aS'a'
p609
aS'little'
p610
aS'of'
p611
aS'anything'
p612
aS'.'
p613
asg73
(lp614
VThen
p615
aVthey
p616
aVtake
p617
aVthe
p618
aVold
p619
aVgrandfather
p620
aVto
p621
aVthe
p622
aVtable
p623
ag82
aVand
p624
aVhenceforth
p625
aValways
p626
aVlet
p627
aVhim
p628
aVeat
p629
aVwith
p630
aVthem
p631
ag82
aVand
p632
aVlikewise
p633
ag355
aVnothing
p634
aVif
p635
aVhe
p636
aVdo
p637
aVspill
p638
ag78
aVlittle
p639
aVof
p640
aVanything
p641
ag123
asg124
(lp642
g126
ag126
ag126
ag126
ag126
ag126
ag126
ag126
ag126
ag126
ag126
ag126
ag126
ag126
ag126
ag126
ag126
ag126
ag126
ag126
ag126
ag126
ag126
ag126
ag126
ag126
ag126
ag126
ag126
ag126
ag126
ag126
asg127
(lp643
g131
ag144
ag130
ag132
ag133
ag134
ag245
ag132
ag134
ag135
ag142
ag133
ag137
ag140
ag144
ag131
ag141
ag144
ag135
ag142
ag146
ag130
ag134
ag141
ag144
ag130
ag131
ag132
ag131
ag141
ag134
ag148
asg149
VThen they took the old grandfather to the table, and henceforth always let him eat with them, and likewise said nothing if he did spill a little of anything. 
p644
sbasbsS'summary'
p645
g0
(g7
g2
Ntp646
Rp647
(dp648
g11
S"Because they are embarrassed by their father's inability to eat without making a mess, the man's son and his wife make the man sit behind the stove to eat. The young grandson builds something with a few pieces of wood. The parents ask what it is and he tells them it is a trough for them to eat out of when they grow old. Learning their lesson, they allow the grandfather to eat at the table again."
p649
sg13
(lp650
(i__main__
Sentence
p651
(dp652
g17
I0
sg18
(lp653
S'Because'
p654
aS'they'
p655
aS'are'
p656
aS'embarrassed'
p657
aS'by'
p658
aS'their'
p659
aS'father'
p660
aS"'s"
p661
aS'inability'
p662
aS'to'
p663
aS'eat'
p664
aS'without'
p665
aS'making'
p666
aS'a'
p667
aS'mess'
p668
aS','
p669
aS'the'
p670
aS'man'
p671
aS"'s"
p672
aS'son'
p673
aS'and'
p674
aS'his'
p675
aS'wife'
p676
aS'make'
p677
aS'the'
p678
aS'man'
p679
aS'sit'
p680
aS'behind'
p681
aS'the'
p682
aS'stove'
p683
aS'to'
p684
aS'eat'
p685
aS'.'
p686
asg73
(lp687
VBecause
p688
aVthey
p689
ag478
aVembarrass
p690
aVby
p691
aVtheir
p692
aVfather
p693
aV's
p694
aVinability
p695
aVto
p696
aVeat
p697
aVwithout
p698
aVmake
p699
ag78
aVmess
p700
ag82
aVthe
p701
aVman
p702
aV's
p703
aVson
p704
aVand
p705
aVhis
p706
aVwife
p707
aVmake
p708
aVthe
p709
aVman
p710
aVsit
p711
aVbehind
p712
aVthe
p713
aVstove
p714
aVto
p715
aVeat
p716
ag123
asg124
(lp717
g126
ag126
ag126
ag126
ag126
ag126
ag126
ag126
ag126
ag126
ag126
ag126
ag126
ag126
ag126
ag126
ag126
ag126
ag126
ag126
ag126
ag126
ag126
ag126
ag126
ag126
ag126
ag126
ag126
ag126
ag126
ag126
ag126
asg127
(lp718
g141
ag144
ag140
ag138
ag141
ag139
ag134
ag244
ag134
ag245
ag146
ag141
ag460
ag132
ag134
ag135
ag132
ag134
ag244
ag134
ag142
ag139
ag134
ag146
ag132
ag134
ag134
ag141
ag132
ag134
ag245
ag146
ag148
asg149
VBecause they are embarrassed by their father's inability to eat without making a mess, the man's son and his wife make the man sit behind the stove to eat.
p719
sba(i__main__
Sentence
p720
(dp721
g17
I1
sg18
(lp722
S'The'
p723
aS'young'
p724
aS'grandson'
p725
aS'builds'
p726
aS'something'
p727
aS'with'
p728
aS'a'
p729
aS'few'
p730
aS'pieces'
p731
aS'of'
p732
aS'wood'
p733
aS'.'
p734
asg73
(lp735
VThe
p736
aVyoung
p737
aVgrandson
p738
aVbuild
p739
aVsomething
p740
aVwith
p741
ag78
aVfew
p742
aVpiece
p743
aVof
p744
aVwood
p745
ag123
asg124
(lp746
g126
ag126
ag126
ag126
ag126
ag126
ag126
ag126
ag126
ag126
ag126
ag126
asg127
(lp747
g132
ag133
ag134
ag137
ag134
ag141
ag132
ag133
ag137
ag141
ag134
ag148
asg149
VThe young grandson builds something with a few pieces of wood.
p748
sba(i__main__
Sentence
p749
(dp750
g17
I2
sg18
(lp751
S'The'
p752
aS'parents'
p753
aS'ask'
p754
aS'what'
p755
aS'it'
p756
aS'is'
p757
aS'and'
p758
aS'he'
p759
aS'tells'
p760
aS'them'
p761
aS'it'
p762
aS'is'
p763
aS'a'
p764
aS'trough'
p765
aS'for'
p766
aS'them'
p767
aS'to'
p768
aS'eat'
p769
aS'out'
p770
aS'of'
p771
aS'when'
p772
aS'they'
p773
aS'grow'
p774
aS'old'
p775
aS'.'
p776
asg73
(lp777
VThe
p778
aVparent
p779
aVask
p780
aVwhat
p781
aVit
p782
aVbe
p783
aVand
p784
aVhe
p785
aVtell
p786
aVthem
p787
aVit
p788
ag783
ag78
aVtrough
p789
aVfor
p790
aVthem
p791
aVto
p792
aVeat
p793
aVout
p794
aVof
p795
aVwhen
p796
aVthey
p797
aVgrow
p798
aVold
p799
ag123
asg124
(lp800
g126
ag126
ag126
ag126
ag126
ag126
ag126
ag126
ag126
ag126
ag126
ag126
ag126
ag126
ag126
ag126
ag126
ag126
ag126
ag126
ag126
ag126
ag126
ag126
ag126
asg127
(lp801
g132
ag137
ag140
ag487
ag144
aS'VBZ'
p802
ag142
ag144
ag802
ag144
ag144
ag802
ag132
ag133
ag141
ag144
ag245
ag146
ag147
ag141
ag143
ag144
ag140
ag133
ag148
asg149
VThe parents ask what it is and he tells them it is a trough for them to eat out of when they grow old.
p803
sba(i__main__
Sentence
p804
(dp805
g17
I3
sg18
(lp806
S'Learning'
p807
aS'their'
p808
aS'lesson'
p809
aS','
p810
aS'they'
p811
aS'allow'
p812
aS'the'
p813
aS'grandfather'
p814
aS'to'
p815
aS'eat'
p816
aS'at'
p817
aS'the'
p818
aS'table'
p819
aS'again'
p820
aS'.'
p821
asg73
(lp822
VLearning
p823
aVtheir
p824
aVlesson
p825
ag82
aVthey
p826
aVallow
p827
aVthe
p828
aVgrandfather
p829
aVto
p830
aVeat
p831
aVat
p832
aVthe
p833
aVtable
p834
aVagain
p835
ag123
asg124
(lp836
g126
ag126
ag126
ag126
ag126
ag126
ag126
ag126
ag126
ag126
ag126
ag126
ag126
ag126
ag126
asg127
(lp837
S'NNP'
p838
ag139
ag134
ag135
ag144
ag140
ag132
ag134
ag245
ag146
ag141
ag132
ag134
ag131
ag148
asg149
VLearning their lesson, they allow the grandfather to eat at the table again.
p839
sbasbsS'name'
p840
S'The Old Man and His Grandson'
p841
sS'summaries'
p842
(lp843
g647
asb.