ccopy_reg
_reconstructor
p0
(c__main__
Story
p1
c__builtin__
object
p2
Ntp3
Rp4
(dp5
S'text'
p6
g0
(c__main__
Document
p7
g2
Ntp8
Rp9
(dp10
S'_Document__initialContent'
p11
S'There was a poor but good little girl who lived alone with her\nmother, and they no longer had anything to eat.  So the child went\ninto the forest, and there an aged woman met her who was aware of her\nsorrow, and presented her with a little pot, which when she said,\ncook, little pot, cook, would cook good, sweet porridge, and when she\nsaid, stop, little pot, it ceased to cook.  The girl took the pot\nhome to her mother, and now they were freed from their poverty and\nhunger, and ate sweet porridge as often as they chose.  Once on a\ntime when the girl had gone out, her mother said, cook, little pot,\ncook.  And it did cook and she ate till she was satisfied, and then\nshe wanted the pot to stop cooking, but did not know the word.  So it\nwent on cooking and the porridge rose over the edge, and still it\ncooked on until the kitchen and whole house were full, and then the\nnext house, and then the whole street, just as if it wanted to\nsatisfy the hunger of the whole world, and there was the greatest\ndistress, but no one knew how to stop it.  At last when only one\nsingle house remained, the child came home and just said, stop,\nlittle pot, and it stopped and gave up cooking, and whosoever wished\nto return to the town had to eat his way back.\n'
p12
sS'sentences'
p13
(lp14
(i__main__
Sentence
p15
(dp16
S'index'
p17
I0
sS'words'
p18
(lp19
S'There'
p20
aS'was'
p21
aS'a'
p22
aS'poor'
p23
aS'but'
p24
aS'good'
p25
aS'little'
p26
aS'girl'
p27
aS'who'
p28
aS'lived'
p29
aS'alone'
p30
aS'with'
p31
aS'her'
p32
aS'mother'
p33
aS','
p34
aS'and'
p35
aS'they'
p36
aS'no'
p37
aS'longer'
p38
aS'had'
p39
aS'anything'
p40
aS'to'
p41
aS'eat'
p42
aS'.'
p43
asS'lemmas'
p44
(lp45
VThere
p46
aVbe
p47
aVa
p48
aVpoor
p49
aVbut
p50
aVgood
p51
aVlittle
p52
aVgirl
p53
aVwho
p54
aVlive
p55
aValone
p56
aVwith
p57
aVher
p58
aVmother
p59
aV,
p60
aVand
p61
aVthey
p62
aVno
p63
aVlonger
p64
aVhave
p65
aVanything
p66
aVto
p67
aVeat
p68
aV.
p69
asS'nerTags'
p70
(lp71
VO
p72
ag72
ag72
ag72
ag72
ag72
ag72
ag72
ag72
ag72
ag72
ag72
ag72
ag72
ag72
ag72
ag72
ag72
ag72
ag72
ag72
ag72
ag72
ag72
asS'posTags'
p73
(lp74
S'EX'
p75
aS'VBD'
p76
aS'DT'
p77
aS'JJ'
p78
aS'CC'
p79
ag78
ag78
aS'NN'
p80
aS'WP'
p81
aS'VBN'
p82
aS'RB'
p83
aS'IN'
p84
aS'PRP$'
p85
ag80
aS','
p86
ag79
aS'PRP'
p87
ag83
ag83
ag76
ag80
aS'TO'
p88
aS'VB'
p89
aS'.'
p90
asS'_Sentence__initialContent'
p91
VThere was a poor but good little girl who lived alone with her mother, and they no longer had anything to eat.
p92
sba(i__main__
Sentence
p93
(dp94
g17
I1
sg18
(lp95
S'So'
p96
aS'the'
p97
aS'child'
p98
aS'went'
p99
aS'into'
p100
aS'the'
p101
aS'forest'
p102
aS','
p103
aS'and'
p104
aS'there'
p105
aS'an'
p106
aS'aged'
p107
aS'woman'
p108
aS'met'
p109
aS'her'
p110
aS'who'
p111
aS'was'
p112
aS'aware'
p113
aS'of'
p114
aS'her'
p115
aS'sorrow'
p116
aS','
p117
aS'and'
p118
aS'presented'
p119
aS'her'
p120
aS'with'
p121
aS'a'
p122
aS'little'
p123
aS'pot'
p124
aS','
p125
aS'which'
p126
aS'when'
p127
aS'she'
p128
aS'said'
p129
aS','
p130
aS'cook'
p131
aS','
p132
aS'little'
p133
aS'pot'
p134
aS','
p135
aS'cook'
p136
aS','
p137
aS'would'
p138
aS'cook'
p139
aS'good'
p140
aS','
p141
aS'sweet'
p142
aS'porridge'
p143
aS','
p144
aS'and'
p145
aS'when'
p146
aS'she'
p147
aS'said'
p148
aS','
p149
aS'stop'
p150
aS','
p151
aS'little'
p152
aS'pot'
p153
aS','
p154
aS'it'
p155
aS'ceased'
p156
aS'to'
p157
aS'cook'
p158
aS'.'
p159
asg44
(lp160
VSo
p161
aVthe
p162
aVchild
p163
aVgo
p164
aVinto
p165
aVthe
p166
aVforest
p167
ag60
aVand
p168
aVthere
p169
aVan
p170
aVaged
p171
aVwoman
p172
aVmet
p173
aVher
p174
aVwho
p175
ag47
aVaware
p176
aVof
p177
aVher
p178
aVsorrow
p179
ag60
aVand
p180
aVpresent
p181
aVher
p182
aVwith
p183
ag48
aVlittle
p184
aVpot
p185
ag60
aVwhich
p186
aVwhen
p187
aVshe
p188
aVsay
p189
ag60
aVcook
p190
ag60
aVlittle
p191
aVpot
p192
ag60
aVcook
p193
ag60
aVwould
p194
aVcook
p195
aVgood
p196
ag60
aVsweet
p197
aVporridge
p198
ag60
aVand
p199
aVwhen
p200
aVshe
p201
ag189
ag60
aVstop
p202
ag60
aVlittle
p203
aVpot
p204
ag60
aVit
p205
aVcease
p206
aVto
p207
aVcook
p208
ag69
asg70
(lp209
g72
ag72
ag72
ag72
ag72
ag72
ag72
ag72
ag72
ag72
ag72
ag72
ag72
ag72
ag72
ag72
ag72
ag72
ag72
ag72
ag72
ag72
ag72
ag72
ag72
ag72
ag72
ag72
ag72
ag72
ag72
ag72
ag72
ag72
ag72
ag72
ag72
ag72
ag72
ag72
ag72
ag72
ag72
ag72
ag72
ag72
ag72
ag72
ag72
ag72
ag72
ag72
ag72
ag72
ag72
ag72
ag72
ag72
ag72
ag72
ag72
ag72
ag72
ag72
asg73
(lp210
g84
ag77
ag80
ag76
ag84
ag77
aS'JJS'
p211
ag86
ag79
ag75
ag77
ag78
ag80
ag80
ag85
ag81
ag76
aS'VBP'
p212
ag84
ag85
ag80
ag86
ag79
ag76
ag87
ag84
ag77
ag83
ag82
ag86
aS'WDT'
p213
aS'WRB'
p214
ag87
ag76
ag86
ag80
ag86
ag78
ag80
ag86
ag80
ag86
aS'MD'
p215
ag89
ag78
ag86
ag78
ag80
ag86
ag79
ag214
ag87
ag76
ag86
ag78
ag86
ag78
ag80
ag86
ag87
ag76
ag88
ag89
ag90
asg91
VSo the child went into the forest, and there an aged woman met her who was aware of her sorrow, and presented her with a little pot, which when she said, cook, little pot, cook, would cook good, sweet porridge, and when she said, stop, little pot, it ceased to cook.
p216
sba(i__main__
Sentence
p217
(dp218
g17
I2
sg18
(lp219
S'The'
p220
aS'girl'
p221
aS'took'
p222
aS'the'
p223
aS'pot'
p224
aS'home'
p225
aS'to'
p226
aS'her'
p227
aS'mother'
p228
aS','
p229
aS'and'
p230
aS'now'
p231
aS'they'
p232
aS'were'
p233
aS'freed'
p234
aS'from'
p235
aS'their'
p236
aS'poverty'
p237
aS'and'
p238
aS'hunger'
p239
aS','
p240
aS'and'
p241
aS'ate'
p242
aS'sweet'
p243
aS'porridge'
p244
aS'as'
p245
aS'often'
p246
aS'as'
p247
aS'they'
p248
aS'chose'
p249
aS'.'
p250
asg44
(lp251
VThe
p252
aVgirl
p253
aVtake
p254
aVthe
p255
aVpot
p256
aVhome
p257
aVto
p258
aVher
p259
aVmother
p260
ag60
aVand
p261
aVnow
p262
aVthey
p263
aVbe
p264
aVfree
p265
aVfrom
p266
aVtheir
p267
aVpoverty
p268
aVand
p269
aVhunger
p270
ag60
aVand
p271
aVeat
p272
aVsweet
p273
aVporridge
p274
ag48
aVoften
p275
ag48
aVthey
p276
aVchoose
p277
ag69
asg70
(lp278
g72
ag72
ag72
ag72
ag72
ag72
ag72
ag72
ag72
ag72
ag72
ag72
ag72
ag72
ag72
ag72
ag72
ag72
ag72
ag72
ag72
ag72
ag72
ag72
ag72
ag72
ag72
ag72
ag72
ag72
ag72
asg73
(lp279
g77
ag80
ag76
ag77
ag80
ag80
ag88
ag85
ag80
ag86
ag79
ag83
ag87
ag76
ag82
ag84
ag85
ag80
ag79
ag80
ag86
ag79
ag89
ag78
ag80
ag84
ag83
ag84
ag87
ag212
ag90
asg91
VThe girl took the pot home to her mother, and now they were freed from their poverty and hunger, and ate sweet porridge as often as they chose.
p280
sba(i__main__
Sentence
p281
(dp282
g17
I3
sg18
(lp283
S'Once'
p284
aS'on'
p285
aS'a'
p286
aS'time'
p287
aS'when'
p288
aS'the'
p289
aS'girl'
p290
aS'had'
p291
aS'gone'
p292
aS'out'
p293
aS','
p294
aS'her'
p295
aS'mother'
p296
aS'said'
p297
aS','
p298
aS'cook'
p299
aS','
p300
aS'little'
p301
aS'pot'
p302
aS','
p303
aS'cook'
p304
aS'.'
p305
asg44
(lp306
VOnce
p307
aVon
p308
ag48
aVtime
p309
aVwhen
p310
aVthe
p311
aVgirl
p312
ag65
aVgo
p313
aVout
p314
ag60
aVher
p315
aVmother
p316
ag189
ag60
aVcook
p317
ag60
aVlittle
p318
aVpot
p319
ag60
aVcook
p320
ag69
asg70
(lp321
g72
ag72
ag72
ag72
ag72
ag72
ag72
ag72
ag72
ag72
ag72
ag72
ag72
ag72
ag72
ag72
ag72
ag72
ag72
ag72
ag72
ag72
asg73
(lp322
g83
ag84
ag77
ag80
ag214
ag77
ag80
ag76
ag82
aS'RP'
p323
ag86
ag85
ag80
ag76
ag86
ag80
ag86
ag78
ag80
ag86
ag80
ag90
asg91
VOnce on a time when the girl had gone out, her mother said, cook, little pot, cook.
p324
sba(i__main__
Sentence
p325
(dp326
g17
I4
sg18
(lp327
S'And'
p328
aS'it'
p329
aS'did'
p330
aS'cook'
p331
aS'and'
p332
aS'she'
p333
aS'ate'
p334
aS'till'
p335
aS'she'
p336
aS'was'
p337
aS'satisfied'
p338
aS','
p339
aS'and'
p340
aS'then'
p341
aS'she'
p342
aS'wanted'
p343
aS'the'
p344
aS'pot'
p345
aS'to'
p346
aS'stop'
p347
aS'cooking'
p348
aS','
p349
aS'but'
p350
aS'did'
p351
aS'not'
p352
aS'know'
p353
aS'the'
p354
aS'word'
p355
aS'.'
p356
asg44
(lp357
VAnd
p358
aVit
p359
aVdo
p360
aVcook
p361
aVand
p362
aVshe
p363
ag272
aVtill
p364
aVshe
p365
ag47
aVsatisfy
p366
ag60
aVand
p367
aVthen
p368
aVshe
p369
aVwant
p370
aVthe
p371
aVpot
p372
aVto
p373
aVstop
p374
aVcooking
p375
ag60
aVbut
p376
ag360
aVnot
p377
aVknow
p378
aVthe
p379
aVword
p380
ag69
asg70
(lp381
g72
ag72
ag72
ag72
ag72
ag72
ag72
ag72
ag72
ag72
ag72
ag72
ag72
ag72
ag72
ag72
ag72
ag72
ag72
ag72
ag72
ag72
ag72
ag72
ag72
ag72
ag72
ag72
ag72
asg73
(lp382
g79
ag87
ag76
ag89
ag79
ag87
ag212
ag83
ag87
ag76
ag82
ag86
ag79
ag83
ag87
ag76
ag77
ag80
ag88
ag89
ag80
ag86
ag79
ag76
ag83
ag89
ag77
ag80
ag90
asg91
VAnd it did cook and she ate till she was satisfied, and then she wanted the pot to stop cooking, but did not know the word.
p383
sba(i__main__
Sentence
p384
(dp385
g17
I5
sg18
(lp386
S'So'
p387
aS'it'
p388
aS'went'
p389
aS'on'
p390
aS'cooking'
p391
aS'and'
p392
aS'the'
p393
aS'porridge'
p394
aS'rose'
p395
aS'over'
p396
aS'the'
p397
aS'edge'
p398
aS','
p399
aS'and'
p400
aS'still'
p401
aS'it'
p402
aS'cooked'
p403
aS'on'
p404
aS'until'
p405
aS'the'
p406
aS'kitchen'
p407
aS'and'
p408
aS'whole'
p409
aS'house'
p410
aS'were'
p411
aS'full'
p412
aS','
p413
aS'and'
p414
aS'then'
p415
aS'the'
p416
aS'next'
p417
aS'house'
p418
aS','
p419
aS'and'
p420
aS'then'
p421
aS'the'
p422
aS'whole'
p423
aS'street'
p424
aS','
p425
aS'just'
p426
aS'as'
p427
aS'if'
p428
aS'it'
p429
aS'wanted'
p430
aS'to'
p431
aS'satisfy'
p432
aS'the'
p433
aS'hunger'
p434
aS'of'
p435
aS'the'
p436
aS'whole'
p437
aS'world'
p438
aS','
p439
aS'and'
p440
aS'there'
p441
aS'was'
p442
aS'the'
p443
aS'greatest'
p444
aS'distress'
p445
aS','
p446
aS'but'
p447
aS'no'
p448
aS'one'
p449
aS'knew'
p450
aS'how'
p451
aS'to'
p452
aS'stop'
p453
aS'it'
p454
aS'.'
p455
asg44
(lp456
VSo
p457
aVit
p458
ag164
aVon
p459
aVcooking
p460
aVand
p461
aVthe
p462
aVporridge
p463
aVrise
p464
aVover
p465
aVthe
p466
aVedge
p467
ag60
aVand
p468
aVstill
p469
aVit
p470
aVcook
p471
aVon
p472
aVuntil
p473
aVthe
p474
aVkitchen
p475
aVand
p476
aVwhole
p477
aVhouse
p478
ag264
aVfull
p479
ag60
aVand
p480
aVthen
p481
aVthe
p482
aVnext
p483
aVhouse
p484
ag60
aVand
p485
aVthen
p486
aVthe
p487
aVwhole
p488
aVstreet
p489
ag60
aVjust
p490
ag48
aVif
p491
aVit
p492
aVwant
p493
aVto
p494
aVsatisfy
p495
aVthe
p496
aVhunger
p497
aVof
p498
aVthe
p499
aVwhole
p500
aVworld
p501
ag60
aVand
p502
aVthere
p503
ag47
aVthe
p504
aVgreat
p505
aVdistress
p506
ag60
aVbut
p507
aVno
p508
aVone
p509
aVknow
p510
aVhow
p511
aVto
p512
aVstop
p513
aVit
p514
ag69
asg70
(lp515
g72
ag72
ag72
ag72
ag72
ag72
ag72
ag72
ag72
ag72
ag72
ag72
ag72
ag72
ag72
ag72
ag72
ag72
ag72
ag72
ag72
ag72
ag72
ag72
ag72
ag72
ag72
ag72
ag72
ag72
ag72
ag72
ag72
ag72
ag72
ag72
ag72
ag72
ag72
ag72
ag72
ag72
ag72
ag72
ag72
ag72
ag72
ag72
ag72
ag72
ag72
ag72
ag72
ag72
ag72
ag72
ag72
ag72
ag72
ag72
ag72
ag72
ag72
ag72
ag72
ag72
ag72
ag72
ag72
asg73
(lp516
g84
ag87
ag76
ag84
ag80
ag79
ag77
ag80
ag76
ag84
ag77
ag80
ag86
ag79
ag83
ag87
ag76
ag84
ag84
ag77
ag80
ag79
ag78
ag80
ag76
ag78
ag86
ag79
ag83
ag77
ag78
ag80
ag86
ag79
ag83
ag77
ag78
ag80
ag86
ag83
ag84
ag84
ag87
ag76
ag88
ag89
ag77
ag80
ag84
ag77
ag78
ag80
ag86
ag79
ag75
ag76
ag77
ag211
ag80
ag86
ag79
ag77
ag80
ag76
ag214
ag88
ag89
ag87
ag90
asg91
VSo it went on cooking and the porridge rose over the edge, and still it cooked on until the kitchen and whole house were full, and then the next house, and then the whole street, just as if it wanted to satisfy the hunger of the whole world, and there was the greatest distress, but no one knew how to stop it.
p517
sba(i__main__
Sentence
p518
(dp519
g17
I6
sg18
(lp520
S'At'
p521
aS'last'
p522
aS'when'
p523
aS'only'
p524
aS'one'
p525
aS'single'
p526
aS'house'
p527
aS'remained'
p528
aS','
p529
aS'the'
p530
aS'child'
p531
aS'came'
p532
aS'home'
p533
aS'and'
p534
aS'just'
p535
aS'said'
p536
aS','
p537
aS'stop'
p538
aS','
p539
aS'little'
p540
aS'pot'
p541
aS','
p542
aS'and'
p543
aS'it'
p544
aS'stopped'
p545
aS'and'
p546
aS'gave'
p547
aS'up'
p548
aS'cooking'
p549
aS','
p550
aS'and'
p551
aS'whosoever'
p552
aS'wished'
p553
aS'to'
p554
aS'return'
p555
aS'to'
p556
aS'the'
p557
aS'town'
p558
aS'had'
p559
aS'to'
p560
aS'eat'
p561
aS'his'
p562
aS'way'
p563
aS'back'
p564
aS'.'
p565
asg44
(lp566
VAt
p567
aVlast
p568
aVwhen
p569
aVonly
p570
aVone
p571
aVsingle
p572
aVhouse
p573
aVremain
p574
ag60
aVthe
p575
aVchild
p576
aVcome
p577
aVhome
p578
aVand
p579
aVjust
p580
ag189
ag60
aVstop
p581
ag60
aVlittle
p582
aVpot
p583
ag60
aVand
p584
aVit
p585
aVstop
p586
aVand
p587
aVgive
p588
aVup
p589
aVcook
p590
ag60
aVand
p591
aVwhosoever
p592
aVwish
p593
aVto
p594
aVreturn
p595
aVto
p596
aVthe
p597
aVtown
p598
ag65
aVto
p599
aVeat
p600
aVhis
p601
aVway
p602
aVback
p603
ag69
asg70
(lp604
g72
ag72
ag72
ag72
ag72
ag72
ag72
ag72
ag72
ag72
ag72
ag72
ag72
ag72
ag72
ag72
ag72
ag72
ag72
ag72
ag72
ag72
ag72
ag72
ag72
ag72
ag72
ag72
ag72
ag72
ag72
ag72
ag72
ag72
ag72
ag72
ag72
ag72
ag72
ag72
ag72
ag72
ag72
ag72
ag72
asg73
(lp605
g84
ag78
ag214
ag83
aS'CD'
p606
ag78
ag80
ag76
ag86
ag77
ag80
ag76
ag80
ag79
ag83
ag76
ag86
ag78
ag86
ag78
ag80
ag86
ag79
ag87
ag76
ag79
ag76
ag323
aS'VBG'
p607
ag86
ag79
ag83
ag76
ag88
ag89
ag88
ag77
ag80
ag76
ag88
ag89
ag85
ag80
ag83
ag90
asg91
VAt last when only one single house remained, the child came home and just said, stop, little pot, and it stopped and gave up cooking, and whosoever wished to return to the town had to eat his way back. 
p608
sbasbsS'summary'
p609
g0
(g7
g2
Ntp610
Rp611
(dp612
g11
S'A poor child and her mother are given a pot that will cook porridge when commanded and stop cooking when commanded. The mother asks the pot to cook porridge and eats until she is satisfied. The mother cannot remember the command to make the pot stop cooking, so it continues to make porridge until the entire town is filled. The child stops the pot from cooking, but not soon enough to spare the town.'
p613
sg13
(lp614
(i__main__
Sentence
p615
(dp616
g17
I0
sg18
(lp617
S'A'
p618
aS'poor'
p619
aS'child'
p620
aS'and'
p621
aS'her'
p622
aS'mother'
p623
aS'are'
p624
aS'given'
p625
aS'a'
p626
aS'pot'
p627
aS'that'
p628
aS'will'
p629
aS'cook'
p630
aS'porridge'
p631
aS'when'
p632
aS'commanded'
p633
aS'and'
p634
aS'stop'
p635
aS'cooking'
p636
aS'when'
p637
aS'commanded'
p638
aS'.'
p639
asg44
(lp640
VA
p641
aVpoor
p642
aVchild
p643
aVand
p644
aVher
p645
aVmother
p646
aVbe
p647
aVgive
p648
ag48
aVpot
p649
aVthat
p650
aVwill
p651
aVcook
p652
aVporridge
p653
aVwhen
p654
aVcommand
p655
aVand
p656
aVstop
p657
aVcook
p658
aVwhen
p659
aVcommanded
p660
ag69
asg70
(lp661
g72
ag72
ag72
ag72
ag72
ag72
ag72
ag72
ag72
ag72
ag72
ag72
ag72
ag72
ag72
ag72
ag72
ag72
ag72
ag72
ag72
ag72
asg73
(lp662
g77
ag78
ag80
ag79
ag85
ag80
ag212
ag82
ag77
ag80
ag213
ag215
ag89
ag80
ag214
ag82
ag79
ag89
ag607
ag214
ag78
ag90
asg91
VA poor child and her mother are given a pot that will cook porridge when commanded and stop cooking when commanded.
p663
sba(i__main__
Sentence
p664
(dp665
g17
I1
sg18
(lp666
S'The'
p667
aS'mother'
p668
aS'asks'
p669
aS'the'
p670
aS'pot'
p671
aS'to'
p672
aS'cook'
p673
aS'porridge'
p674
aS'and'
p675
aS'eats'
p676
aS'until'
p677
aS'she'
p678
aS'is'
p679
aS'satisfied'
p680
aS'.'
p681
asg44
(lp682
VThe
p683
aVmother
p684
aVask
p685
aVthe
p686
aVpot
p687
aVto
p688
aVcook
p689
aVporridge
p690
aVand
p691
aVeats
p692
aVuntil
p693
aVshe
p694
aVbe
p695
ag366
ag69
asg70
(lp696
g72
ag72
ag72
ag72
ag72
ag72
ag72
ag72
ag72
ag72
ag72
ag72
ag72
ag72
ag72
asg73
(lp697
g77
ag80
aS'VBZ'
p698
ag77
ag80
ag88
ag89
ag80
ag79
aS'NNS'
p699
ag84
ag87
ag698
ag82
ag90
asg91
VThe mother asks the pot to cook porridge and eats until she is satisfied.
p700
sba(i__main__
Sentence
p701
(dp702
g17
I2
sg18
(lp703
S'The'
p704
aS'mother'
p705
aS'can'
p706
aS'not'
p707
aS'remember'
p708
aS'the'
p709
aS'command'
p710
aS'to'
p711
aS'make'
p712
aS'the'
p713
aS'pot'
p714
aS'stop'
p715
aS'cooking'
p716
aS','
p717
aS'so'
p718
aS'it'
p719
aS'continues'
p720
aS'to'
p721
aS'make'
p722
aS'porridge'
p723
aS'until'
p724
aS'the'
p725
aS'entire'
p726
aS'town'
p727
aS'is'
p728
aS'filled'
p729
aS'.'
p730
asg44
(lp731
VThe
p732
aVmother
p733
aVcan
p734
aVnot
p735
aVremember
p736
aVthe
p737
aVcommand
p738
aVto
p739
aVmake
p740
aVthe
p741
aVpot
p742
aVstop
p743
aVcook
p744
ag60
aVso
p745
aVit
p746
aVcontinue
p747
aVto
p748
aVmake
p749
aVporridge
p750
aVuntil
p751
aVthe
p752
aVentire
p753
aVtown
p754
ag695
aVfill
p755
ag69
asg70
(lp756
g72
ag72
ag72
ag72
ag72
ag72
ag72
ag72
ag72
ag72
ag72
ag72
ag72
ag72
ag72
ag72
ag72
ag72
ag72
ag72
ag72
ag72
ag72
ag72
ag72
ag72
ag72
asg73
(lp757
g77
ag80
ag215
ag83
ag89
ag77
ag80
ag88
ag89
ag77
ag80
ag80
ag607
ag86
ag83
ag87
ag698
ag88
ag89
ag80
ag84
ag77
ag78
ag80
ag698
ag82
ag90
asg91
VThe mother cannot remember the command to make the pot stop cooking, so it continues to make porridge until the entire town is filled.
p758
sba(i__main__
Sentence
p759
(dp760
g17
I3
sg18
(lp761
S'The'
p762
aS'child'
p763
aS'stops'
p764
aS'the'
p765
aS'pot'
p766
aS'from'
p767
aS'cooking'
p768
aS','
p769
aS'but'
p770
aS'not'
p771
aS'soon'
p772
aS'enough'
p773
aS'to'
p774
aS'spare'
p775
aS'the'
p776
aS'town'
p777
aS'.'
p778
asg44
(lp779
VThe
p780
aVchild
p781
aVstop
p782
aVthe
p783
aVpot
p784
aVfrom
p785
aVcook
p786
ag60
aVbut
p787
aVnot
p788
aVsoon
p789
aVenough
p790
aVto
p791
aVspare
p792
aVthe
p793
aVtown
p794
ag69
asg70
(lp795
g72
ag72
ag72
ag72
ag72
ag72
ag72
ag72
ag72
ag72
ag72
ag72
ag72
ag72
ag72
ag72
ag72
asg73
(lp796
g77
ag80
ag699
ag77
ag80
ag84
ag607
ag86
ag79
ag83
ag83
ag83
ag88
ag89
ag77
ag80
ag90
asg91
VThe child stops the pot from cooking, but not soon enough to spare the town.
p797
sbasbsS'name'
p798
S'Sweet Porridge'
p799
sS'summaries'
p800
(lp801
g611
asb.