ccopy_reg
_reconstructor
p0
(c__main__
Story
p1
c__builtin__
object
p2
Ntp3
Rp4
(dp5
S'text'
p6
g0
(c__main__
Document
p7
g2
Ntp8
Rp9
(dp10
S'_Document__initialContent'
p11
S'A certain king had three sons who were all equally dear to\nhim, and he did not know which of them to appoint as his successor\nafter his own death.  When the time came when he was about to\ndie, he summoned them to his bedside and said, dear children,\nI have been thinking of something which I will declare unto\nyou, whichsoever of you is the laziest shall have the kingdom.\nThe eldest said, then, father, the kingdom is mine, for I am so\nidle that if I lie down to rest, and a drop falls in my eye,\nI will not open it that I may sleep.  The second said, father,\nthe kingdom belongs to me, for I am so idle that when I am\nsitting by the fire warming myself, I would rather let my heel\nbe burnt off than draw back my leg.  The third said, father,\nthe kingdom is mine, for I am so idle that if I were going to\nbe hanged, and had the rope already round my neck, and any one\nput a sharp knife into my hand with which I might cut the rope,\nI would rather let myself be hanged than raise my hand to the rope.\nWhen the father heard that, he said, you have carried it the\nfarthest, and shall be king.\n'
p12
sS'sentences'
p13
(lp14
(i__main__
Sentence
p15
(dp16
S'index'
p17
I0
sS'words'
p18
(lp19
S'A'
p20
aS'certain'
p21
aS'king'
p22
aS'had'
p23
aS'three'
p24
aS'sons'
p25
aS'who'
p26
aS'were'
p27
aS'all'
p28
aS'equally'
p29
aS'dear'
p30
aS'to'
p31
aS'him'
p32
aS','
p33
aS'and'
p34
aS'he'
p35
aS'did'
p36
aS'not'
p37
aS'know'
p38
aS'which'
p39
aS'of'
p40
aS'them'
p41
aS'to'
p42
aS'appoint'
p43
aS'as'
p44
aS'his'
p45
aS'successor'
p46
aS'after'
p47
aS'his'
p48
aS'own'
p49
aS'death'
p50
aS'.'
p51
asS'lemmas'
p52
(lp53
VA
p54
aVcertain
p55
aVking
p56
aVhave
p57
aVthree
p58
aVson
p59
aVwho
p60
aVbe
p61
aVall
p62
aVequally
p63
aVdear
p64
aVto
p65
aVhim
p66
aV,
p67
aVand
p68
aVhe
p69
aVdo
p70
aVnot
p71
aVknow
p72
aVwhich
p73
aVof
p74
aVthem
p75
aVto
p76
aVappoint
p77
aVa
p78
aVhis
p79
aVsuccessor
p80
aVafter
p81
aVhis
p82
aVown
p83
aVdeath
p84
aV.
p85
asS'nerTags'
p86
(lp87
VO
p88
ag88
ag88
ag88
ag88
ag88
ag88
ag88
ag88
ag88
ag88
ag88
ag88
ag88
ag88
ag88
ag88
ag88
ag88
ag88
ag88
ag88
ag88
ag88
ag88
ag88
ag88
ag88
ag88
ag88
ag88
ag88
asS'posTags'
p89
(lp90
S'DT'
p91
aS'JJ'
p92
aS'NN'
p93
aS'VBD'
p94
aS'CD'
p95
aS'NNS'
p96
aS'WP'
p97
ag94
ag91
aS'RB'
p98
ag92
aS'TO'
p99
aS'PRP'
p100
aS','
p101
aS'CC'
p102
ag100
ag94
ag98
aS'VB'
p103
aS'WDT'
p104
aS'IN'
p105
ag100
ag99
ag103
ag105
aS'PRP$'
p106
ag93
ag105
ag106
ag92
ag93
aS'.'
p107
asS'_Sentence__initialContent'
p108
VA certain king had three sons who were all equally dear to him, and he did not know which of them to appoint as his successor after his own death.
p109
sba(i__main__
Sentence
p110
(dp111
g17
I1
sg18
(lp112
S'When'
p113
aS'the'
p114
aS'time'
p115
aS'came'
p116
aS'when'
p117
aS'he'
p118
aS'was'
p119
aS'about'
p120
aS'to'
p121
aS'die'
p122
aS','
p123
aS'he'
p124
aS'summoned'
p125
aS'them'
p126
aS'to'
p127
aS'his'
p128
aS'bedside'
p129
aS'and'
p130
aS'said'
p131
aS','
p132
aS'dear'
p133
aS'children'
p134
aS','
p135
aS'I'
p136
aS'have'
p137
aS'been'
p138
aS'thinking'
p139
aS'of'
p140
aS'something'
p141
aS'which'
p142
aS'I'
p143
aS'will'
p144
aS'declare'
p145
aS'unto'
p146
aS'you'
p147
aS','
p148
aS'whichsoever'
p149
aS'of'
p150
aS'you'
p151
aS'is'
p152
aS'the'
p153
aS'laziest'
p154
aS'shall'
p155
aS'have'
p156
aS'the'
p157
aS'kingdom'
p158
aS'.'
p159
asg52
(lp160
VWhen
p161
aVthe
p162
aVtime
p163
aVcome
p164
aVwhen
p165
aVhe
p166
aVbe
p167
aVabout
p168
aVto
p169
aVdie
p170
ag67
aVhe
p171
aVsummon
p172
aVthem
p173
aVto
p174
aVhis
p175
aVbedside
p176
aVand
p177
aVsay
p178
ag67
aVdear
p179
aVchild
p180
ag67
aVI
p181
aVhave
p182
aVbe
p183
aVthink
p184
aVof
p185
aVsomething
p186
aVwhich
p187
ag181
aVwill
p188
aVdeclare
p189
aVunto
p190
aVyou
p191
ag67
aVwhichsoever
p192
aVof
p193
aVyou
p194
aVbe
p195
aVthe
p196
aVlazy
p197
aVshall
p198
aVhave
p199
aVthe
p200
aVkingdom
p201
ag85
asg86
(lp202
g88
ag88
ag88
ag88
ag88
ag88
ag88
ag88
ag88
ag88
ag88
ag88
ag88
ag88
ag88
ag88
ag88
ag88
ag88
ag88
ag88
ag88
ag88
ag88
ag88
ag88
ag88
ag88
ag88
ag88
ag88
ag88
ag88
ag88
ag88
ag88
ag88
ag88
ag88
ag88
ag88
ag88
ag88
ag88
ag88
ag88
ag88
asg89
(lp203
S'WRB'
p204
ag91
ag93
ag94
ag204
ag100
ag94
ag105
ag99
ag103
ag101
ag100
ag94
ag100
ag99
ag106
ag93
ag102
ag94
ag101
ag92
ag96
ag101
ag100
aS'VBP'
p205
aS'VBN'
p206
aS'VBG'
p207
ag105
ag93
ag104
ag100
aS'MD'
p208
ag103
ag105
ag100
ag101
ag98
ag105
ag100
aS'VBZ'
p209
ag91
aS'JJS'
p210
ag208
ag103
ag91
ag93
ag107
asg108
VWhen the time came when he was about to die, he summoned them to his bedside and said, dear children, I have been thinking of something which I will declare unto you, whichsoever of you is the laziest shall have the kingdom.
p211
sba(i__main__
Sentence
p212
(dp213
g17
I2
sg18
(lp214
S'The'
p215
aS'eldest'
p216
aS'said'
p217
aS','
p218
aS'then'
p219
aS','
p220
aS'father'
p221
aS','
p222
aS'the'
p223
aS'kingdom'
p224
aS'is'
p225
aS'mine'
p226
aS','
p227
aS'for'
p228
aS'I'
p229
aS'am'
p230
aS'so'
p231
aS'idle'
p232
aS'that'
p233
aS'if'
p234
aS'I'
p235
aS'lie'
p236
aS'down'
p237
aS'to'
p238
aS'rest'
p239
aS','
p240
aS'and'
p241
aS'a'
p242
aS'drop'
p243
aS'falls'
p244
aS'in'
p245
aS'my'
p246
aS'eye'
p247
aS','
p248
aS'I'
p249
aS'will'
p250
aS'not'
p251
aS'open'
p252
aS'it'
p253
aS'that'
p254
aS'I'
p255
aS'may'
p256
aS'sleep'
p257
aS'.'
p258
asg52
(lp259
VThe
p260
aVeldest
p261
ag178
ag67
aVthen
p262
ag67
aVfather
p263
ag67
aVthe
p264
aVkingdom
p265
ag195
aVmine
p266
ag67
aVfor
p267
ag181
aVbe
p268
aVso
p269
aVidle
p270
aVthat
p271
aVif
p272
ag181
aVlie
p273
aVdown
p274
aVto
p275
aVrest
p276
ag67
aVand
p277
ag78
aVdrop
p278
aVfall
p279
aVin
p280
aVmy
p281
aVeye
p282
ag67
ag181
aVwill
p283
aVnot
p284
aVopen
p285
aVit
p286
aVthat
p287
ag181
aVmay
p288
aVsleep
p289
ag85
asg86
(lp290
g88
ag88
ag88
ag88
ag88
ag88
ag88
ag88
ag88
ag88
ag88
ag88
ag88
ag88
ag88
ag88
ag88
ag88
ag88
ag88
ag88
ag88
ag88
ag88
ag88
ag88
ag88
ag88
ag88
ag88
ag88
ag88
ag88
ag88
ag88
ag88
ag88
ag88
ag88
ag88
ag88
ag88
ag88
ag88
asg89
(lp291
g91
ag210
ag94
ag101
ag98
ag101
ag93
ag101
ag91
ag93
ag209
ag92
ag101
ag105
ag100
ag205
ag98
ag92
ag105
ag105
ag100
ag205
aS'RP'
p292
ag99
ag103
ag101
ag102
ag91
ag93
ag209
ag105
ag106
ag93
ag101
ag100
ag208
ag98
ag103
ag100
ag105
ag100
ag208
ag103
ag107
asg108
VThe eldest said, then, father, the kingdom is mine, for I am so idle that if I lie down to rest, and a drop falls in my eye, I will not open it that I may sleep.
p293
sba(i__main__
Sentence
p294
(dp295
g17
I3
sg18
(lp296
S'The'
p297
aS'second'
p298
aS'said'
p299
aS','
p300
aS'father'
p301
aS','
p302
aS'the'
p303
aS'kingdom'
p304
aS'belongs'
p305
aS'to'
p306
aS'me'
p307
aS','
p308
aS'for'
p309
aS'I'
p310
aS'am'
p311
aS'so'
p312
aS'idle'
p313
aS'that'
p314
aS'when'
p315
aS'I'
p316
aS'am'
p317
aS'sitting'
p318
aS'by'
p319
aS'the'
p320
aS'fire'
p321
aS'warming'
p322
aS'myself'
p323
aS','
p324
aS'I'
p325
aS'would'
p326
aS'rather'
p327
aS'let'
p328
aS'my'
p329
aS'heel'
p330
aS'be'
p331
aS'burnt'
p332
aS'off'
p333
aS'than'
p334
aS'draw'
p335
aS'back'
p336
aS'my'
p337
aS'leg'
p338
aS'.'
p339
asg52
(lp340
VThe
p341
aVsecond
p342
ag178
ag67
aVfather
p343
ag67
aVthe
p344
aVkingdom
p345
aVbelong
p346
aVto
p347
aVme
p348
ag67
aVfor
p349
ag181
ag268
aVso
p350
aVidle
p351
aVthat
p352
aVwhen
p353
ag181
ag268
aVsit
p354
aVby
p355
aVthe
p356
aVfire
p357
aVwarm
p358
aVmyself
p359
ag67
ag181
aVwould
p360
aVrather
p361
aVlet
p362
aVmy
p363
aVheel
p364
aVbe
p365
aVburnt
p366
aVoff
p367
aVthan
p368
aVdraw
p369
aVback
p370
aVmy
p371
aVleg
p372
ag85
asg86
(lp373
g88
ag88
ag88
ag88
ag88
ag88
ag88
ag88
ag88
ag88
ag88
ag88
ag88
ag88
ag88
ag88
ag88
ag88
ag88
ag88
ag88
ag88
ag88
ag88
ag88
ag88
ag88
ag88
ag88
ag88
ag88
ag88
ag88
ag88
ag88
ag88
ag88
ag88
ag88
ag88
ag88
ag88
ag88
asg89
(lp374
g91
ag92
ag94
ag101
ag93
ag101
ag91
ag93
ag209
ag99
ag100
ag101
ag105
ag100
ag205
ag98
ag92
ag105
ag204
ag100
ag205
ag207
ag105
ag91
ag93
ag207
ag100
ag101
ag100
ag208
ag98
ag103
ag106
ag93
ag103
ag92
ag105
ag105
ag93
ag98
ag106
ag93
ag107
asg108
VThe second said, father, the kingdom belongs to me, for I am so idle that when I am sitting by the fire warming myself, I would rather let my heel be burnt off than draw back my leg.
p375
sba(i__main__
Sentence
p376
(dp377
g17
I4
sg18
(lp378
S'The'
p379
aS'third'
p380
aS'said'
p381
aS','
p382
aS'father'
p383
aS','
p384
aS'the'
p385
aS'kingdom'
p386
aS'is'
p387
aS'mine'
p388
aS','
p389
aS'for'
p390
aS'I'
p391
aS'am'
p392
aS'so'
p393
aS'idle'
p394
aS'that'
p395
aS'if'
p396
aS'I'
p397
aS'were'
p398
aS'going'
p399
aS'to'
p400
aS'be'
p401
aS'hanged'
p402
aS','
p403
aS'and'
p404
aS'had'
p405
aS'the'
p406
aS'rope'
p407
aS'already'
p408
aS'round'
p409
aS'my'
p410
aS'neck'
p411
aS','
p412
aS'and'
p413
aS'any'
p414
aS'one'
p415
aS'put'
p416
aS'a'
p417
aS'sharp'
p418
aS'knife'
p419
aS'into'
p420
aS'my'
p421
aS'hand'
p422
aS'with'
p423
aS'which'
p424
aS'I'
p425
aS'might'
p426
aS'cut'
p427
aS'the'
p428
aS'rope'
p429
aS','
p430
aS'I'
p431
aS'would'
p432
aS'rather'
p433
aS'let'
p434
aS'myself'
p435
aS'be'
p436
aS'hanged'
p437
aS'than'
p438
aS'raise'
p439
aS'my'
p440
aS'hand'
p441
aS'to'
p442
aS'the'
p443
aS'rope'
p444
aS'.'
p445
asg52
(lp446
VThe
p447
aVthird
p448
ag178
ag67
aVfather
p449
ag67
aVthe
p450
aVkingdom
p451
ag195
aVmine
p452
ag67
aVfor
p453
ag181
ag268
aVso
p454
aVidle
p455
aVthat
p456
aVif
p457
ag181
ag61
aVgo
p458
aVto
p459
aVbe
p460
aVhang
p461
ag67
aVand
p462
ag57
aVthe
p463
aVrope
p464
aValready
p465
aVround
p466
aVmy
p467
aVneck
p468
ag67
aVand
p469
aVany
p470
aVone
p471
aVput
p472
ag78
aVsharp
p473
aVknife
p474
aVinto
p475
aVmy
p476
aVhand
p477
aVwith
p478
aVwhich
p479
ag181
aVmight
p480
aVcut
p481
aVthe
p482
aVrope
p483
ag67
ag181
aVwould
p484
aVrather
p485
aVlet
p486
aVmyself
p487
aVbe
p488
aVhang
p489
aVthan
p490
aVraise
p491
aVmy
p492
aVhand
p493
aVto
p494
aVthe
p495
aVrope
p496
ag85
asg86
(lp497
g88
ag88
ag88
ag88
ag88
ag88
ag88
ag88
ag88
ag88
ag88
ag88
ag88
ag88
ag88
ag88
ag88
ag88
ag88
ag88
ag88
ag88
ag88
ag88
ag88
ag88
ag88
ag88
ag88
ag88
ag88
ag88
ag88
ag88
ag88
ag88
ag88
ag88
ag88
ag88
ag88
ag88
ag88
ag88
ag88
ag88
ag88
ag88
ag88
ag88
ag88
ag88
ag88
ag88
ag88
ag88
ag88
ag88
ag88
ag88
ag88
ag88
ag88
ag88
ag88
ag88
ag88
asg89
(lp498
g91
ag92
ag94
ag101
ag93
ag101
ag91
ag93
ag209
ag92
ag101
ag105
ag100
ag205
ag98
ag92
ag105
ag105
ag100
ag94
ag207
ag99
ag103
ag206
ag101
ag102
ag94
ag91
ag93
ag98
ag93
ag106
ag93
ag101
ag102
ag91
ag95
ag93
ag91
ag92
ag93
ag105
ag106
ag93
ag105
ag104
ag100
ag208
ag103
ag91
ag93
ag101
ag100
ag208
ag98
ag103
ag100
ag103
ag206
ag105
ag93
ag106
ag93
ag99
ag91
ag93
ag107
asg108
VThe third said, father, the kingdom is mine, for I am so idle that if I were going to be hanged, and had the rope already round my neck, and any one put a sharp knife into my hand with which I might cut the rope, I would rather let myself be hanged than raise my hand to the rope.
p499
sba(i__main__
Sentence
p500
(dp501
g17
I5
sg18
(lp502
S'When'
p503
aS'the'
p504
aS'father'
p505
aS'heard'
p506
aS'that'
p507
aS','
p508
aS'he'
p509
aS'said'
p510
aS','
p511
aS'you'
p512
aS'have'
p513
aS'carried'
p514
aS'it'
p515
aS'the'
p516
aS'farthest'
p517
aS','
p518
aS'and'
p519
aS'shall'
p520
aS'be'
p521
aS'king'
p522
aS'.'
p523
asg52
(lp524
VWhen
p525
aVthe
p526
aVfather
p527
aVheard
p528
aVthat
p529
ag67
aVhe
p530
ag178
ag67
aVyou
p531
aVhave
p532
aVcarry
p533
aVit
p534
aVthe
p535
aVfarthest
p536
ag67
aVand
p537
aVshall
p538
aVbe
p539
aVking
p540
ag85
asg86
(lp541
g88
ag88
ag88
ag88
ag88
ag88
ag88
ag88
ag88
ag88
ag88
ag88
ag88
ag88
ag88
ag88
ag88
ag88
ag88
ag88
ag88
asg89
(lp542
g204
ag91
ag93
ag93
ag104
ag101
ag100
ag94
ag101
ag100
ag205
ag206
ag100
ag91
ag210
ag101
ag102
ag208
ag103
ag207
ag107
asg108
VWhen the father heard that, he said, you have carried it the farthest, and shall be king. 
p543
sbasbsS'summary'
p544
g0
(g7
g2
Ntp545
Rp546
(dp547
g11
S'A king decides to grant his kingdom to his laziest son. All three sons make up stories about how lazy they are. The kingdom is awarded to the third son because he carried the tale the furthest. '
p548
sg13
(lp549
(i__main__
Sentence
p550
(dp551
g17
I0
sg18
(lp552
S'A'
p553
aS'king'
p554
aS'decides'
p555
aS'to'
p556
aS'grant'
p557
aS'his'
p558
aS'kingdom'
p559
aS'to'
p560
aS'his'
p561
aS'laziest'
p562
aS'son'
p563
aS'.'
p564
asg52
(lp565
g54
aVking
p566
aVdecide
p567
aVto
p568
aVgrant
p569
aVhis
p570
aVkingdom
p571
aVto
p572
aVhis
p573
aVlaziest
p574
aVson
p575
ag85
asg86
(lp576
g88
ag88
ag88
ag88
ag88
ag88
ag88
ag88
ag88
ag88
ag88
ag88
asg89
(lp577
g91
ag93
ag209
ag99
ag103
ag106
ag93
ag99
ag106
ag93
ag93
ag107
asg108
VA king decides to grant his kingdom to his laziest son.
p578
sba(i__main__
Sentence
p579
(dp580
g17
I1
sg18
(lp581
S'All'
p582
aS'three'
p583
aS'sons'
p584
aS'make'
p585
aS'up'
p586
aS'stories'
p587
aS'about'
p588
aS'how'
p589
aS'lazy'
p590
aS'they'
p591
aS'are'
p592
aS'.'
p593
asg52
(lp594
VAll
p595
aVthree
p596
aVson
p597
aVmake
p598
aVup
p599
aVstory
p600
aVabout
p601
aVhow
p602
aVlazy
p603
aVthey
p604
aVbe
p605
ag85
asg86
(lp606
g88
ag88
ag88
ag88
ag88
ag88
ag88
ag88
ag88
ag88
ag88
ag88
asg89
(lp607
g91
ag95
ag96
ag205
ag292
ag96
ag105
ag204
ag92
ag100
ag205
ag107
asg108
VAll three sons make up stories about how lazy they are.
p608
sba(i__main__
Sentence
p609
(dp610
g17
I2
sg18
(lp611
S'The'
p612
aS'kingdom'
p613
aS'is'
p614
aS'awarded'
p615
aS'to'
p616
aS'the'
p617
aS'third'
p618
aS'son'
p619
aS'because'
p620
aS'he'
p621
aS'carried'
p622
aS'the'
p623
aS'tale'
p624
aS'the'
p625
aS'furthest'
p626
aS'.'
p627
asg52
(lp628
VThe
p629
aVkingdom
p630
ag195
aVaward
p631
aVto
p632
aVthe
p633
aVthird
p634
aVson
p635
aVbecause
p636
aVhe
p637
ag533
aVthe
p638
aVtale
p639
aVthe
p640
aVfurthest
p641
ag85
asg86
(lp642
g88
ag88
ag88
ag88
ag88
ag88
ag88
ag88
ag88
ag88
ag88
ag88
ag88
ag88
ag88
ag88
asg89
(lp643
g91
ag93
ag209
ag206
ag99
ag91
ag92
ag93
ag105
ag100
ag94
ag91
ag93
ag91
ag210
ag107
asg108
VThe kingdom is awarded to the third son because he carried the tale the furthest. 
p644
sbasbsS'name'
p645
S'The Three Sluggards'
p646
sS'summaries'
p647
(lp648
g546
asb.