ccopy_reg
_reconstructor
p0
(c__main__
Story
p1
c__builtin__
object
p2
Ntp3
Rp4
(dp5
S'text'
p6
g0
(c__main__
Document
p7
g2
Ntp8
Rp9
(dp10
S'_Document__initialContent'
p11
S'A man and his wife were once sitting by the door of their house,\nand they had a roasted chicken set before them, and were about\nto eat it together.  Then the man saw that his aged father was\ncoming, and hastily took the chicken and hid it, for he would\nnot permit him to have any of it.  The old man came, took a drink,\nand went away.  Now the son wanted to put the roasted chicken on\nthe table again, but when he took it up, it had become a great\ntoad, which jumped into his face and sat there and never went\naway again, and if any one wanted to take it off, it looked\nvenomously at him as if it would jump in his face, so that no\none would venture to touch it.  And the ungrateful son was forced\nto feed the toad every day, or else it fed itself on his face,\nand thus he went about the world knowing no rest.\n'
p12
sS'sentences'
p13
(lp14
(i__main__
Sentence
p15
(dp16
S'index'
p17
I0
sS'words'
p18
(lp19
S'A'
p20
aS'man'
p21
aS'and'
p22
aS'his'
p23
aS'wife'
p24
aS'were'
p25
aS'once'
p26
aS'sitting'
p27
aS'by'
p28
aS'the'
p29
aS'door'
p30
aS'of'
p31
aS'their'
p32
aS'house'
p33
aS','
p34
aS'and'
p35
aS'they'
p36
aS'had'
p37
aS'a'
p38
aS'roasted'
p39
aS'chicken'
p40
aS'set'
p41
aS'before'
p42
aS'them'
p43
aS','
p44
aS'and'
p45
aS'were'
p46
aS'about'
p47
aS'to'
p48
aS'eat'
p49
aS'it'
p50
aS'together'
p51
aS'.'
p52
asS'lemmas'
p53
(lp54
VA
p55
aVman
p56
aVand
p57
aVhis
p58
aVwife
p59
aVbe
p60
aVonce
p61
aVsit
p62
aVby
p63
aVthe
p64
aVdoor
p65
aVof
p66
aVtheir
p67
aVhouse
p68
aV,
p69
aVand
p70
aVthey
p71
aVhave
p72
aVa
p73
aVroast
p74
aVchicken
p75
aVset
p76
aVbefore
p77
aVthem
p78
ag69
aVand
p79
ag60
aVabout
p80
aVto
p81
aVeat
p82
aVit
p83
aVtogether
p84
aV.
p85
asS'nerTags'
p86
(lp87
VO
p88
ag88
ag88
ag88
ag88
ag88
ag88
ag88
ag88
ag88
ag88
ag88
ag88
ag88
ag88
ag88
ag88
ag88
ag88
ag88
ag88
ag88
ag88
ag88
ag88
ag88
ag88
ag88
ag88
ag88
ag88
ag88
ag88
asS'posTags'
p89
(lp90
S'DT'
p91
aS'NN'
p92
aS'CC'
p93
aS'PRP$'
p94
ag92
aS'VBD'
p95
aS'RB'
p96
aS'VBG'
p97
aS'IN'
p98
ag91
ag92
ag98
ag94
ag92
aS','
p99
ag93
aS'PRP'
p100
ag95
ag91
aS'VBN'
p101
ag101
ag92
ag98
ag100
ag99
ag93
ag95
ag98
aS'TO'
p102
aS'VB'
p103
ag100
ag96
aS'.'
p104
asS'_Sentence__initialContent'
p105
VA man and his wife were once sitting by the door of their house, and they had a roasted chicken set before them, and were about to eat it together.
p106
sba(i__main__
Sentence
p107
(dp108
g17
I1
sg18
(lp109
S'Then'
p110
aS'the'
p111
aS'man'
p112
aS'saw'
p113
aS'that'
p114
aS'his'
p115
aS'aged'
p116
aS'father'
p117
aS'was'
p118
aS'coming'
p119
aS','
p120
aS'and'
p121
aS'hastily'
p122
aS'took'
p123
aS'the'
p124
aS'chicken'
p125
aS'and'
p126
aS'hid'
p127
aS'it'
p128
aS','
p129
aS'for'
p130
aS'he'
p131
aS'would'
p132
aS'not'
p133
aS'permit'
p134
aS'him'
p135
aS'to'
p136
aS'have'
p137
aS'any'
p138
aS'of'
p139
aS'it'
p140
aS'.'
p141
asg53
(lp142
VThen
p143
aVthe
p144
aVman
p145
aVsaw
p146
aVthat
p147
aVhis
p148
aVaged
p149
aVfather
p150
aVbe
p151
aVcome
p152
ag69
aVand
p153
aVhastily
p154
aVtake
p155
aVthe
p156
aVchicken
p157
aVand
p158
aVhide
p159
aVit
p160
ag69
aVfor
p161
aVhe
p162
aVwould
p163
aVnot
p164
aVpermit
p165
aVhim
p166
aVto
p167
aVhave
p168
aVany
p169
aVof
p170
aVit
p171
ag85
asg86
(lp172
g88
ag88
ag88
ag88
ag88
ag88
ag88
ag88
ag88
ag88
ag88
ag88
ag88
ag88
ag88
ag88
ag88
ag88
ag88
ag88
ag88
ag88
ag88
ag88
ag88
ag88
ag88
ag88
ag88
ag88
ag88
ag88
asg89
(lp173
g96
ag91
ag92
ag95
ag98
ag94
aS'JJ'
p174
ag92
ag95
ag97
ag99
ag93
ag96
ag95
ag91
ag92
ag93
ag95
ag100
ag99
ag98
ag100
aS'MD'
p175
ag96
ag103
ag100
ag102
ag103
ag91
ag98
ag100
ag104
asg105
VThen the man saw that his aged father was coming, and hastily took the chicken and hid it, for he would not permit him to have any of it.
p176
sba(i__main__
Sentence
p177
(dp178
g17
I2
sg18
(lp179
S'The'
p180
aS'old'
p181
aS'man'
p182
aS'came'
p183
aS','
p184
aS'took'
p185
aS'a'
p186
aS'drink'
p187
aS','
p188
aS'and'
p189
aS'went'
p190
aS'away'
p191
aS'.'
p192
asg53
(lp193
VThe
p194
aVold
p195
aVman
p196
aVcome
p197
ag69
ag155
ag73
aVdrink
p198
ag69
aVand
p199
aVgo
p200
aVaway
p201
ag85
asg86
(lp202
g88
ag88
ag88
ag88
ag88
ag88
ag88
ag88
ag88
ag88
ag88
ag88
ag88
asg89
(lp203
g91
ag174
ag92
ag95
ag99
ag95
ag91
ag92
ag99
ag93
ag95
ag96
ag104
asg105
VThe old man came, took a drink, and went away.
p204
sba(i__main__
Sentence
p205
(dp206
g17
I3
sg18
(lp207
S'Now'
p208
aS'the'
p209
aS'son'
p210
aS'wanted'
p211
aS'to'
p212
aS'put'
p213
aS'the'
p214
aS'roasted'
p215
aS'chicken'
p216
aS'on'
p217
aS'the'
p218
aS'table'
p219
aS'again'
p220
aS','
p221
aS'but'
p222
aS'when'
p223
aS'he'
p224
aS'took'
p225
aS'it'
p226
aS'up'
p227
aS','
p228
aS'it'
p229
aS'had'
p230
aS'become'
p231
aS'a'
p232
aS'great'
p233
aS'toad'
p234
aS','
p235
aS'which'
p236
aS'jumped'
p237
aS'into'
p238
aS'his'
p239
aS'face'
p240
aS'and'
p241
aS'sat'
p242
aS'there'
p243
aS'and'
p244
aS'never'
p245
aS'went'
p246
aS'away'
p247
aS'again'
p248
aS','
p249
aS'and'
p250
aS'if'
p251
aS'any'
p252
aS'one'
p253
aS'wanted'
p254
aS'to'
p255
aS'take'
p256
aS'it'
p257
aS'off'
p258
aS','
p259
aS'it'
p260
aS'looked'
p261
aS'venomously'
p262
aS'at'
p263
aS'him'
p264
aS'as'
p265
aS'if'
p266
aS'it'
p267
aS'would'
p268
aS'jump'
p269
aS'in'
p270
aS'his'
p271
aS'face'
p272
aS','
p273
aS'so'
p274
aS'that'
p275
aS'no'
p276
aS'one'
p277
aS'would'
p278
aS'venture'
p279
aS'to'
p280
aS'touch'
p281
aS'it'
p282
aS'.'
p283
asg53
(lp284
VNow
p285
aVthe
p286
aVson
p287
aVwant
p288
aVto
p289
aVput
p290
aVthe
p291
aVroast
p292
aVchicken
p293
aVon
p294
aVthe
p295
aVtable
p296
aVagain
p297
ag69
aVbut
p298
aVwhen
p299
aVhe
p300
ag155
aVit
p301
aVup
p302
ag69
aVit
p303
ag72
aVbecome
p304
ag73
aVgreat
p305
aVtoad
p306
ag69
aVwhich
p307
aVjump
p308
aVinto
p309
aVhis
p310
aVface
p311
aVand
p312
aVsit
p313
aVthere
p314
aVand
p315
aVnever
p316
ag200
aVaway
p317
aVagain
p318
ag69
aVand
p319
aVif
p320
aVany
p321
aVone
p322
aVwanted
p323
aVto
p324
aVtake
p325
aVit
p326
aVoff
p327
ag69
aVit
p328
aVlook
p329
aVvenomously
p330
aVat
p331
aVhim
p332
ag73
aVif
p333
aVit
p334
aVwould
p335
aVjump
p336
aVin
p337
aVhis
p338
aVface
p339
ag69
aVso
p340
aVthat
p341
aVno
p342
aVone
p343
aVwould
p344
aVventure
p345
aVto
p346
aVtouch
p347
aVit
p348
ag85
asg86
(lp349
g88
ag88
ag88
ag88
ag88
ag88
ag88
ag88
ag88
ag88
ag88
ag88
ag88
ag88
ag88
ag88
ag88
ag88
ag88
ag88
ag88
ag88
ag88
ag88
ag88
ag88
ag88
ag88
ag88
ag88
ag88
ag88
ag88
ag88
ag88
ag88
ag88
ag88
ag88
ag88
ag88
ag88
ag88
ag88
ag88
ag88
ag88
ag88
ag88
ag88
ag88
ag88
ag88
ag88
ag88
ag88
ag88
ag88
ag88
ag88
ag88
ag88
ag88
ag88
ag88
ag88
ag88
ag88
ag88
ag88
ag88
ag88
ag88
ag88
ag88
ag88
asg89
(lp350
g96
ag91
ag92
ag95
ag102
ag103
ag91
ag101
ag92
ag98
ag91
ag92
ag96
ag99
ag93
aS'WRB'
p351
ag100
ag95
ag100
aS'RP'
p352
ag99
ag100
ag95
ag101
ag91
ag174
ag92
ag99
aS'WDT'
p353
ag95
ag98
ag94
ag92
ag93
ag103
aS'EX'
p354
ag93
ag96
ag95
ag96
ag96
ag99
ag93
ag98
ag91
aS'CD'
p355
ag174
ag102
ag103
ag100
ag98
ag99
ag100
ag95
ag96
ag98
ag100
ag98
ag98
ag100
ag175
ag103
ag98
ag94
ag92
ag99
ag96
ag98
ag91
ag92
ag175
ag103
ag102
ag103
ag100
ag104
asg105
VNow the son wanted to put the roasted chicken on the table again, but when he took it up, it had become a great toad, which jumped into his face and sat there and never went away again, and if any one wanted to take it off, it looked venomously at him as if it would jump in his face, so that no one would venture to touch it.
p356
sba(i__main__
Sentence
p357
(dp358
g17
I4
sg18
(lp359
S'And'
p360
aS'the'
p361
aS'ungrateful'
p362
aS'son'
p363
aS'was'
p364
aS'forced'
p365
aS'to'
p366
aS'feed'
p367
aS'the'
p368
aS'toad'
p369
aS'every'
p370
aS'day'
p371
aS','
p372
aS'or'
p373
aS'else'
p374
aS'it'
p375
aS'fed'
p376
aS'itself'
p377
aS'on'
p378
aS'his'
p379
aS'face'
p380
aS','
p381
aS'and'
p382
aS'thus'
p383
aS'he'
p384
aS'went'
p385
aS'about'
p386
aS'the'
p387
aS'world'
p388
aS'knowing'
p389
aS'no'
p390
aS'rest'
p391
aS'.'
p392
asg53
(lp393
VAnd
p394
aVthe
p395
aVungrateful
p396
aVson
p397
ag151
aVforce
p398
aVto
p399
aVfee
p400
aVthe
p401
aVtoad
p402
aVevery
p403
aVday
p404
ag69
aVor
p405
aVelse
p406
aVit
p407
aVfeed
p408
aVitself
p409
aVon
p410
aVhis
p411
aVface
p412
ag69
aVand
p413
aVthus
p414
aVhe
p415
ag200
aVabout
p416
aVthe
p417
aVworld
p418
aVknow
p419
aVno
p420
aVrest
p421
ag85
asg86
(lp422
g88
ag88
ag88
ag88
ag88
ag88
ag88
ag88
ag88
ag88
ag88
ag88
ag88
ag88
ag88
ag88
ag88
ag88
ag88
ag88
ag88
ag88
ag88
ag88
ag88
ag88
ag88
ag88
ag88
ag88
ag88
ag88
ag88
asg89
(lp423
g93
ag91
ag174
ag92
ag95
ag101
ag102
ag103
ag91
ag92
ag91
ag92
ag99
ag93
ag96
ag100
ag95
ag100
ag98
ag94
ag92
ag99
ag93
ag96
ag100
ag95
ag98
ag91
ag92
ag97
ag91
ag92
ag104
asg105
VAnd the ungrateful son was forced to feed the toad every day, or else it fed itself on his face, and thus he went about the world knowing no rest. 
p424
sbasbsS'summary'
p425
g0
(g7
g2
Ntp426
Rp427
(dp428
g11
S"A son will not let his father have any roast chicken. The chicken turns into a huge toad that attaches itself to the son's face. For the rest of his life the son goes around with this amphibian and is forced to feed it. "
p429
sg13
(lp430
(i__main__
Sentence
p431
(dp432
g17
I0
sg18
(lp433
S'A'
p434
aS'son'
p435
aS'will'
p436
aS'not'
p437
aS'let'
p438
aS'his'
p439
aS'father'
p440
aS'have'
p441
aS'any'
p442
aS'roast'
p443
aS'chicken'
p444
aS'.'
p445
asg53
(lp446
g55
aVson
p447
aVwill
p448
aVnot
p449
aVlet
p450
aVhis
p451
aVfather
p452
aVhave
p453
aVany
p454
aVroast
p455
aVchicken
p456
ag85
asg86
(lp457
g88
ag88
ag88
ag88
ag88
ag88
ag88
ag88
ag88
ag88
ag88
ag88
asg89
(lp458
g91
ag92
ag175
ag96
ag103
ag94
ag92
aS'VBP'
p459
ag91
ag174
ag92
ag104
asg105
VA son will not let his father have any roast chicken.
p460
sba(i__main__
Sentence
p461
(dp462
g17
I1
sg18
(lp463
S'The'
p464
aS'chicken'
p465
aS'turns'
p466
aS'into'
p467
aS'a'
p468
aS'huge'
p469
aS'toad'
p470
aS'that'
p471
aS'attaches'
p472
aS'itself'
p473
aS'to'
p474
aS'the'
p475
aS'son'
p476
aS"'s"
p477
aS'face'
p478
aS'.'
p479
asg53
(lp480
VThe
p481
aVchicken
p482
aVturn
p483
aVinto
p484
ag73
aVhuge
p485
aVtoad
p486
aVthat
p487
aVattach
p488
aVitself
p489
aVto
p490
aVthe
p491
aVson
p492
aV's
p493
aVface
p494
ag85
asg86
(lp495
g88
ag88
ag88
ag88
ag88
ag88
ag88
ag88
ag88
ag88
ag88
ag88
ag88
ag88
ag88
ag88
asg89
(lp496
g91
ag101
aS'NNS'
p497
ag98
ag91
ag174
ag92
ag353
aS'VBZ'
p498
ag100
ag102
ag91
ag92
aS'POS'
p499
ag92
ag104
asg105
VThe chicken turns into a huge toad that attaches itself to the son's face.
p500
sba(i__main__
Sentence
p501
(dp502
g17
I2
sg18
(lp503
S'For'
p504
aS'the'
p505
aS'rest'
p506
aS'of'
p507
aS'his'
p508
aS'life'
p509
aS'the'
p510
aS'son'
p511
aS'goes'
p512
aS'around'
p513
aS'with'
p514
aS'this'
p515
aS'amphibian'
p516
aS'and'
p517
aS'is'
p518
aS'forced'
p519
aS'to'
p520
aS'feed'
p521
aS'it'
p522
aS'.'
p523
asg53
(lp524
VFor
p525
aVthe
p526
aVrest
p527
aVof
p528
aVhis
p529
aVlife
p530
aVthe
p531
aVson
p532
aVgo
p533
aVaround
p534
aVwith
p535
aVthis
p536
aVamphibian
p537
aVand
p538
aVbe
p539
aVforce
p540
aVto
p541
ag400
aVit
p542
ag85
asg86
(lp543
g88
ag88
ag88
ag88
ag88
ag88
ag88
ag88
ag88
ag88
ag88
ag88
ag88
ag88
ag88
ag88
ag88
ag88
ag88
ag88
asg89
(lp544
g98
ag91
ag92
ag98
ag94
ag92
ag91
ag92
ag498
ag98
ag98
ag91
ag174
ag93
ag498
ag101
ag102
ag103
ag100
ag104
asg105
VFor the rest of his life the son goes around with this amphibian and is forced to feed it. 
p545
sbasbsS'name'
p546
S'The Ungrateful Son'
p547
sS'summaries'
p548
(lp549
g427
asb.