ccopy_reg
_reconstructor
p0
(c__main__
Story
p1
c__builtin__
object
p2
Ntp3
Rp4
(dp5
S'text'
p6
g0
(c__main__
Document
p7
g2
Ntp8
Rp9
(dp10
S'_Document__initialContent'
p11
S"In the time of schlauraffen I went forth and saw rome and the\nlateran hanging by a small silken thread, and a man without feet who\noutran a swift horse, and a keen sharp sword that cut through a\nbridge.  I saw a young ass with a silver nose which pursued two\nfleet hares, and a lime-tree that was very large, on which hot cakes\nwere growing.  I saw a lean old goat which carried about a hundred\ncart-loads of fat on his body, and sixty loads of salt.  Have I not\ntold enough lies.  I saw a plough ploughing without horse or cow,\nand a child of one year threw four millstones from ratisbon to\ntreves, and from treves to strasburg, and a hawk swam over the\nrhine, which he had a perfect right to do.  I heard some fishes\nbegin to make such a disturbance with each other, that it resounded\nas far as heaven, and sweet honey flowed like water from a deep\nvalley to the top of a high mountain, and these were strange things.\nThere were two crows which were mowing a meadow, and I saw two gnats\nbuilding a bridge, and two doves tore a wolf to pieces, two children\nbrought forth two kids, and two frogs threshed corn\ntogether.  I saw two mice consecrating a bishop, and two cats\nscratching out a bear's tongue.  Then a snail came running up and\nkilled two furious lions.  There stood a barber and shaved a woman's\nbeard off, and two sucking-children bade their mother hold her\ntongue.  There I saw two greyhounds which brought a mill out of the\nwater, and a broken-down old horse was beside it, and said it was\nright.  And four horses were standing in the yard threshing corn\nwith all their might, and two goats were heating the stove, and a\nred cow shot the bread into the oven.  Then a hen crowed,\ncock-a-doodle-doo.  The story is all told, cock-a-doodle-doo.\n"
p12
sS'sentences'
p13
(lp14
(i__main__
Sentence
p15
(dp16
S'index'
p17
I0
sS'words'
p18
(lp19
S'In'
p20
aS'the'
p21
aS'time'
p22
aS'of'
p23
aS'schlauraffen'
p24
aS'I'
p25
aS'went'
p26
aS'forth'
p27
aS'and'
p28
aS'saw'
p29
aS'rome'
p30
aS'and'
p31
aS'the'
p32
aS'lateran'
p33
aS'hanging'
p34
aS'by'
p35
aS'a'
p36
aS'small'
p37
aS'silken'
p38
aS'thread'
p39
aS','
p40
aS'and'
p41
aS'a'
p42
aS'man'
p43
aS'without'
p44
aS'feet'
p45
aS'who'
p46
aS'outran'
p47
aS'a'
p48
aS'swift'
p49
aS'horse'
p50
aS','
p51
aS'and'
p52
aS'a'
p53
aS'keen'
p54
aS'sharp'
p55
aS'sword'
p56
aS'that'
p57
aS'cut'
p58
aS'through'
p59
aS'a'
p60
aS'bridge'
p61
aS'.'
p62
asS'lemmas'
p63
(lp64
VIn
p65
aVthe
p66
aVtime
p67
aVof
p68
aVschlauraffen
p69
aVI
p70
aVgo
p71
aVforth
p72
aVand
p73
aVsaw
p74
aVrome
p75
aVand
p76
aVthe
p77
aVlateran
p78
aVhang
p79
aVby
p80
aVa
p81
aVsmall
p82
aVsilken
p83
aVthread
p84
aV,
p85
aVand
p86
ag81
aVman
p87
aVwithout
p88
aVfoot
p89
aVwho
p90
aVoutran
p91
ag81
aVswift
p92
aVhorse
p93
ag85
aVand
p94
ag81
aVkeen
p95
aVsharp
p96
aVsword
p97
aVthat
p98
aVcut
p99
aVthrough
p100
ag81
aVbridge
p101
aV.
p102
asS'nerTags'
p103
(lp104
VO
p105
ag105
ag105
ag105
ag105
ag105
ag105
ag105
ag105
ag105
ag105
ag105
ag105
ag105
ag105
ag105
ag105
ag105
ag105
ag105
ag105
ag105
ag105
ag105
ag105
ag105
ag105
ag105
ag105
ag105
ag105
ag105
ag105
ag105
ag105
ag105
ag105
ag105
ag105
ag105
ag105
ag105
ag105
asS'posTags'
p106
(lp107
S'IN'
p108
aS'DT'
p109
aS'NN'
p110
ag108
ag110
aS'PRP'
p111
aS'VBD'
p112
aS'JJ'
p113
aS'CC'
p114
ag112
ag110
ag114
ag109
ag110
aS'VBG'
p115
ag108
ag109
ag113
ag110
ag110
aS','
p116
ag114
ag109
ag110
ag108
ag110
aS'WP'
p117
ag110
ag109
ag110
ag110
ag116
ag114
ag109
ag110
ag110
ag110
aS'WDT'
p118
ag112
ag108
ag109
ag110
aS'.'
p119
asS'_Sentence__initialContent'
p120
VIn the time of schlauraffen I went forth and saw rome and the lateran hanging by a small silken thread, and a man without feet who outran a swift horse, and a keen sharp sword that cut through a bridge.
p121
sba(i__main__
Sentence
p122
(dp123
g17
I1
sg18
(lp124
S'I'
p125
aS'saw'
p126
aS'a'
p127
aS'young'
p128
aS'ass'
p129
aS'with'
p130
aS'a'
p131
aS'silver'
p132
aS'nose'
p133
aS'which'
p134
aS'pursued'
p135
aS'two'
p136
aS'fleet'
p137
aS'hares'
p138
aS','
p139
aS'and'
p140
aS'a'
p141
aS'lime-tree'
p142
aS'that'
p143
aS'was'
p144
aS'very'
p145
aS'large'
p146
aS','
p147
aS'on'
p148
aS'which'
p149
aS'hot'
p150
aS'cakes'
p151
aS'were'
p152
aS'growing'
p153
aS'.'
p154
asg63
(lp155
g70
aVsaw
p156
ag81
aVyoung
p157
aVas
p158
aVwith
p159
ag81
aVsilver
p160
aVnose
p161
aVwhich
p162
aVpursue
p163
aVtwo
p164
aVfleet
p165
aVhare
p166
ag85
aVand
p167
ag81
aVlime-tree
p168
aVthat
p169
aVbe
p170
aVvery
p171
aVlarge
p172
ag85
aVon
p173
aVwhich
p174
aVhot
p175
aVcake
p176
aVbe
p177
aVgrow
p178
ag102
asg103
(lp179
g105
ag105
ag105
ag105
ag105
ag105
ag105
ag105
ag105
ag105
ag105
ag105
ag105
ag105
ag105
ag105
ag105
ag105
ag105
ag105
ag105
ag105
ag105
ag105
ag105
ag105
ag105
ag105
ag105
ag105
asg106
(lp180
g111
ag112
ag109
ag113
ag110
ag108
ag109
ag110
ag110
ag118
aS'VBN'
p181
aS'CD'
p182
ag113
aS'NNS'
p183
ag116
ag114
ag109
ag113
ag108
ag112
aS'RB'
p184
ag113
ag116
ag108
ag118
ag113
ag183
ag112
ag115
ag119
asg120
VI saw a young ass with a silver nose which pursued two fleet hares, and a lime-tree that was very large, on which hot cakes were growing.
p185
sba(i__main__
Sentence
p186
(dp187
g17
I2
sg18
(lp188
S'I'
p189
aS'saw'
p190
aS'a'
p191
aS'lean'
p192
aS'old'
p193
aS'goat'
p194
aS'which'
p195
aS'carried'
p196
aS'about'
p197
aS'a'
p198
aS'hundred'
p199
aS'cart-loads'
p200
aS'of'
p201
aS'fat'
p202
aS'on'
p203
aS'his'
p204
aS'body'
p205
aS','
p206
aS'and'
p207
aS'sixty'
p208
aS'loads'
p209
aS'of'
p210
aS'salt'
p211
aS'.'
p212
asg63
(lp213
g70
aVsaw
p214
ag81
aVlean
p215
aVold
p216
aVgoat
p217
aVwhich
p218
aVcarry
p219
aVabout
p220
ag81
aVhundred
p221
aVcart-loads
p222
aVof
p223
aVfat
p224
aVon
p225
aVhis
p226
aVbody
p227
ag85
aVand
p228
aVsixty
p229
aVload
p230
aVof
p231
aVsalt
p232
ag102
asg103
(lp233
g105
ag105
ag105
ag105
ag105
ag105
ag105
ag105
ag105
ag105
ag105
ag105
ag105
ag105
ag105
ag105
ag105
ag105
ag105
ag105
ag105
ag105
ag105
ag105
asg106
(lp234
g111
ag112
ag109
ag113
ag113
ag110
ag118
ag181
ag108
ag109
ag182
ag183
ag108
ag113
ag108
aS'PRP$'
p235
ag110
ag116
ag114
ag110
ag183
ag108
ag110
ag119
asg120
VI saw a lean old goat which carried about a hundred cart-loads of fat on his body, and sixty loads of salt.
p236
sba(i__main__
Sentence
p237
(dp238
g17
I3
sg18
(lp239
S'Have'
p240
aS'I'
p241
aS'not'
p242
aS'told'
p243
aS'enough'
p244
aS'lies'
p245
aS'.'
p246
asg63
(lp247
VHave
p248
ag70
aVnot
p249
aVtell
p250
aVenough
p251
aVlie
p252
ag102
asg103
(lp253
g105
ag105
ag105
ag105
ag105
ag105
ag105
asg106
(lp254
S'NNP'
p255
ag111
ag184
ag112
ag184
ag183
ag119
asg120
VHave I not told enough lies.
p256
sba(i__main__
Sentence
p257
(dp258
g17
I4
sg18
(lp259
S'I'
p260
aS'saw'
p261
aS'a'
p262
aS'plough'
p263
aS'ploughing'
p264
aS'without'
p265
aS'horse'
p266
aS'or'
p267
aS'cow'
p268
aS','
p269
aS'and'
p270
aS'a'
p271
aS'child'
p272
aS'of'
p273
aS'one'
p274
aS'year'
p275
aS'threw'
p276
aS'four'
p277
aS'millstones'
p278
aS'from'
p279
aS'ratisbon'
p280
aS'to'
p281
aS'treves'
p282
aS','
p283
aS'and'
p284
aS'from'
p285
aS'treves'
p286
aS'to'
p287
aS'strasburg'
p288
aS','
p289
aS'and'
p290
aS'a'
p291
aS'hawk'
p292
aS'swam'
p293
aS'over'
p294
aS'the'
p295
aS'rhine'
p296
aS','
p297
aS'which'
p298
aS'he'
p299
aS'had'
p300
aS'a'
p301
aS'perfect'
p302
aS'right'
p303
aS'to'
p304
aS'do'
p305
aS'.'
p306
asg63
(lp307
g70
aVsaw
p308
ag81
aVplough
p309
aVploughing
p310
aVwithout
p311
aVhorse
p312
aVor
p313
aVcow
p314
ag85
aVand
p315
ag81
aVchild
p316
aVof
p317
aVone
p318
aVyear
p319
aVthrow
p320
aVfour
p321
aVmillstone
p322
aVfrom
p323
aVratisbon
p324
aVto
p325
aVtreves
p326
ag85
aVand
p327
aVfrom
p328
aVtreves
p329
aVto
p330
aVstrasburg
p331
ag85
aVand
p332
ag81
aVhawk
p333
aVswam
p334
aVover
p335
aVthe
p336
aVrhine
p337
ag85
aVwhich
p338
aVhe
p339
aVhave
p340
ag81
aVperfect
p341
aVright
p342
aVto
p343
aVdo
p344
ag102
asg103
(lp345
g105
ag105
ag105
ag105
ag105
ag105
ag105
ag105
ag105
ag105
ag105
ag105
ag105
ag105
ag105
ag105
ag105
ag105
ag105
ag105
ag105
ag105
ag105
ag105
ag105
ag105
ag105
ag105
ag105
ag105
ag105
ag105
ag105
ag105
ag105
ag105
ag105
ag105
ag105
ag105
ag105
ag105
ag105
ag105
ag105
ag105
ag105
asg106
(lp346
g111
ag112
ag109
ag113
ag110
ag108
ag110
ag114
ag110
ag116
ag114
ag109
ag110
ag108
ag182
ag110
ag112
ag182
ag183
ag108
ag110
aS'TO'
p347
ag183
ag116
ag114
ag108
ag183
ag347
aS'VB'
p348
ag116
ag114
ag109
ag110
ag110
ag108
ag109
ag110
ag116
ag118
ag111
ag112
ag109
ag110
ag184
ag347
ag348
ag119
asg120
VI saw a plough ploughing without horse or cow, and a child of one year threw four millstones from ratisbon to treves, and from treves to strasburg, and a hawk swam over the rhine, which he had a perfect right to do.
p349
sba(i__main__
Sentence
p350
(dp351
g17
I5
sg18
(lp352
S'I'
p353
aS'heard'
p354
aS'some'
p355
aS'fishes'
p356
aS'begin'
p357
aS'to'
p358
aS'make'
p359
aS'such'
p360
aS'a'
p361
aS'disturbance'
p362
aS'with'
p363
aS'each'
p364
aS'other'
p365
aS','
p366
aS'that'
p367
aS'it'
p368
aS'resounded'
p369
aS'as'
p370
aS'far'
p371
aS'as'
p372
aS'heaven'
p373
aS','
p374
aS'and'
p375
aS'sweet'
p376
aS'honey'
p377
aS'flowed'
p378
aS'like'
p379
aS'water'
p380
aS'from'
p381
aS'a'
p382
aS'deep'
p383
aS'valley'
p384
aS'to'
p385
aS'the'
p386
aS'top'
p387
aS'of'
p388
aS'a'
p389
aS'high'
p390
aS'mountain'
p391
aS','
p392
aS'and'
p393
aS'these'
p394
aS'were'
p395
aS'strange'
p396
aS'things'
p397
aS'.'
p398
asg63
(lp399
g70
aVhear
p400
aVsome
p401
aVfish
p402
aVbegin
p403
aVto
p404
aVmake
p405
aVsuch
p406
ag81
aVdisturbance
p407
aVwith
p408
aVeach
p409
aVother
p410
ag85
aVthat
p411
aVit
p412
aVresound
p413
ag81
aVfar
p414
ag81
aVheaven
p415
ag85
aVand
p416
aVsweet
p417
aVhoney
p418
aVflow
p419
aVlike
p420
aVwater
p421
aVfrom
p422
ag81
aVdeep
p423
aVvalley
p424
aVto
p425
aVthe
p426
aVtop
p427
aVof
p428
ag81
aVhigh
p429
aVmountain
p430
ag85
aVand
p431
aVthese
p432
ag177
aVstrange
p433
aVthing
p434
ag102
asg103
(lp435
g105
ag105
ag105
ag105
ag105
ag105
ag105
ag105
ag105
ag105
ag105
ag105
ag105
ag105
ag105
ag105
ag105
ag105
ag105
ag105
ag105
ag105
ag105
ag105
ag105
ag105
ag105
ag105
ag105
ag105
ag105
ag105
ag105
ag105
ag105
ag105
ag105
ag105
ag105
ag105
ag105
ag105
ag105
ag105
ag105
ag105
asg106
(lp436
g111
aS'VBP'
p437
ag109
ag183
ag437
ag347
ag348
ag113
ag109
ag110
ag108
ag109
ag113
ag116
ag108
ag111
ag112
ag108
ag184
ag108
ag181
ag116
ag114
ag113
ag110
ag112
ag108
ag110
ag108
ag109
ag110
ag110
ag347
ag109
ag113
ag108
ag109
ag113
ag110
ag116
ag114
ag109
ag112
ag110
ag183
ag119
asg120
VI heard some fishes begin to make such a disturbance with each other, that it resounded as far as heaven, and sweet honey flowed like water from a deep valley to the top of a high mountain, and these were strange things.
p438
sba(i__main__
Sentence
p439
(dp440
g17
I6
sg18
(lp441
S'There'
p442
aS'were'
p443
aS'two'
p444
aS'crows'
p445
aS'which'
p446
aS'were'
p447
aS'mowing'
p448
aS'a'
p449
aS'meadow'
p450
aS','
p451
aS'and'
p452
aS'I'
p453
aS'saw'
p454
aS'two'
p455
aS'gnats'
p456
aS'building'
p457
aS'a'
p458
aS'bridge'
p459
aS','
p460
aS'and'
p461
aS'two'
p462
aS'doves'
p463
aS'tore'
p464
aS'a'
p465
aS'wolf'
p466
aS'to'
p467
aS'pieces'
p468
aS','
p469
aS'two'
p470
aS'children'
p471
aS'brought'
p472
aS'forth'
p473
aS'two'
p474
aS'kids'
p475
aS','
p476
aS'and'
p477
aS'two'
p478
aS'frogs'
p479
aS'threshed'
p480
aS'corn'
p481
aS'together'
p482
aS'.'
p483
asg63
(lp484
VThere
p485
ag177
aVtwo
p486
aVcrow
p487
aVwhich
p488
ag177
aVmow
p489
ag81
aVmeadow
p490
ag85
aVand
p491
ag70
aVsaw
p492
aVtwo
p493
aVgnat
p494
aVbuild
p495
ag81
aVbridge
p496
ag85
aVand
p497
aVtwo
p498
aVdove
p499
aVtore
p500
ag81
aVwolf
p501
aVto
p502
aVpiece
p503
ag85
aVtwo
p504
aVchild
p505
aVbring
p506
aVforth
p507
aVtwo
p508
aVkid
p509
ag85
aVand
p510
aVtwo
p511
aVfrog
p512
aVthresh
p513
aVcorn
p514
aVtogether
p515
ag102
asg103
(lp516
g105
ag105
ag105
ag105
ag105
ag105
ag105
ag105
ag105
ag105
ag105
ag105
ag105
ag105
ag105
ag105
ag105
ag105
ag105
ag105
ag105
ag105
ag105
ag105
ag105
ag105
ag105
ag105
ag105
ag105
ag105
ag105
ag105
ag105
ag105
ag105
ag105
ag105
ag105
ag105
ag105
ag105
asg106
(lp517
S'EX'
p518
ag112
ag182
ag183
ag118
ag112
ag115
ag109
ag110
ag116
ag114
ag111
ag112
ag182
ag183
ag115
ag109
ag110
ag116
ag114
ag182
ag183
ag108
ag109
ag110
ag347
ag183
ag116
ag182
ag183
ag112
ag113
ag182
ag183
ag116
ag114
ag182
ag183
ag112
ag110
ag184
ag119
asg120
VThere were two crows which were mowing a meadow, and I saw two gnats building a bridge, and two doves tore a wolf to pieces, two children brought forth two kids, and two frogs threshed corn together.
p519
sba(i__main__
Sentence
p520
(dp521
g17
I7
sg18
(lp522
S'I'
p523
aS'saw'
p524
aS'two'
p525
aS'mice'
p526
aS'consecrating'
p527
aS'a'
p528
aS'bishop'
p529
aS','
p530
aS'and'
p531
aS'two'
p532
aS'cats'
p533
aS'scratching'
p534
aS'out'
p535
aS'a'
p536
aS'bear'
p537
aS"'s"
p538
aS'tongue'
p539
aS'.'
p540
asg63
(lp541
g70
aVsaw
p542
aVtwo
p543
aVmouse
p544
aVconsecrate
p545
ag81
aVbishop
p546
ag85
aVand
p547
aVtwo
p548
aVcat
p549
aVscratch
p550
aVout
p551
ag81
aVbear
p552
aV's
p553
aVtongue
p554
ag102
asg103
(lp555
g105
ag105
ag105
ag105
ag105
ag105
ag105
ag105
ag105
ag105
ag105
ag105
ag105
ag105
ag105
ag105
ag105
ag105
asg106
(lp556
g111
ag112
ag182
ag110
ag115
ag109
ag110
ag116
ag114
ag182
ag183
ag115
aS'RP'
p557
ag109
ag113
aS'POS'
p558
ag110
ag119
asg120
VI saw two mice consecrating a bishop, and two cats scratching out a bear's tongue.
p559
sba(i__main__
Sentence
p560
(dp561
g17
I8
sg18
(lp562
S'Then'
p563
aS'a'
p564
aS'snail'
p565
aS'came'
p566
aS'running'
p567
aS'up'
p568
aS'and'
p569
aS'killed'
p570
aS'two'
p571
aS'furious'
p572
aS'lions'
p573
aS'.'
p574
asg63
(lp575
VThen
p576
ag81
aVsnail
p577
aVcome
p578
aVrun
p579
aVup
p580
aVand
p581
aVkill
p582
aVtwo
p583
aVfurious
p584
aVlion
p585
ag102
asg103
(lp586
g105
ag105
ag105
ag105
ag105
ag105
ag105
ag105
ag105
ag105
ag105
ag105
asg106
(lp587
g184
ag109
ag110
ag112
ag115
ag557
ag114
ag112
ag182
ag113
ag183
ag119
asg120
VThen a snail came running up and killed two furious lions.
p588
sba(i__main__
Sentence
p589
(dp590
g17
I9
sg18
(lp591
S'There'
p592
aS'stood'
p593
aS'a'
p594
aS'barber'
p595
aS'and'
p596
aS'shaved'
p597
aS'a'
p598
aS'woman'
p599
aS"'s"
p600
aS'beard'
p601
aS'off'
p602
aS','
p603
aS'and'
p604
aS'two'
p605
aS'sucking-children'
p606
aS'bade'
p607
aS'their'
p608
aS'mother'
p609
aS'hold'
p610
aS'her'
p611
aS'tongue'
p612
aS'.'
p613
asg63
(lp614
VThere
p615
aVstand
p616
ag81
aVbarber
p617
aVand
p618
aVshave
p619
ag81
aVwoman
p620
aV's
p621
aVbeard
p622
aVoff
p623
ag85
aVand
p624
aVtwo
p625
aVsucking-children
p626
aVbade
p627
aVtheir
p628
aVmother
p629
aVhold
p630
aVher
p631
aVtongue
p632
ag102
asg103
(lp633
g105
ag105
ag105
ag105
ag105
ag105
ag105
ag105
ag105
ag105
ag105
ag105
ag105
ag105
ag105
ag105
ag105
ag105
ag105
ag105
ag105
ag105
asg106
(lp634
g518
ag112
ag109
ag110
ag114
ag112
ag109
ag110
ag558
ag110
ag108
ag116
ag114
ag182
ag113
ag110
ag235
ag110
ag110
ag235
ag110
ag119
asg120
VThere stood a barber and shaved a woman's beard off, and two sucking-children bade their mother hold her tongue.
p635
sba(i__main__
Sentence
p636
(dp637
g17
I10
sg18
(lp638
S'There'
p639
aS'I'
p640
aS'saw'
p641
aS'two'
p642
aS'greyhounds'
p643
aS'which'
p644
aS'brought'
p645
aS'a'
p646
aS'mill'
p647
aS'out'
p648
aS'of'
p649
aS'the'
p650
aS'water'
p651
aS','
p652
aS'and'
p653
aS'a'
p654
aS'broken-down'
p655
aS'old'
p656
aS'horse'
p657
aS'was'
p658
aS'beside'
p659
aS'it'
p660
aS','
p661
aS'and'
p662
aS'said'
p663
aS'it'
p664
aS'was'
p665
aS'right'
p666
aS'.'
p667
asg63
(lp668
VThere
p669
ag70
aVsaw
p670
aVtwo
p671
aVgreyhound
p672
aVwhich
p673
ag506
ag81
aVmill
p674
aVout
p675
aVof
p676
aVthe
p677
aVwater
p678
ag85
aVand
p679
ag81
aVbroken-down
p680
aVold
p681
aVhorse
p682
ag170
aVbeside
p683
aVit
p684
ag85
aVand
p685
aVsay
p686
aVit
p687
ag170
aVright
p688
ag102
asg103
(lp689
g105
ag105
ag105
ag105
ag105
ag105
ag105
ag105
ag105
ag105
ag105
ag105
ag105
ag105
ag105
ag105
ag105
ag105
ag105
ag105
ag105
ag105
ag105
ag105
ag105
ag105
ag105
ag105
ag105
asg106
(lp690
g518
ag111
ag112
ag182
ag183
ag118
ag181
ag109
ag110
ag108
ag108
ag109
ag110
ag116
ag114
ag109
ag113
ag113
ag110
ag112
ag113
ag111
ag116
ag114
ag112
ag111
ag112
ag184
ag119
asg120
VThere I saw two greyhounds which brought a mill out of the water, and a broken-down old horse was beside it, and said it was right.
p691
sba(i__main__
Sentence
p692
(dp693
g17
I11
sg18
(lp694
S'And'
p695
aS'four'
p696
aS'horses'
p697
aS'were'
p698
aS'standing'
p699
aS'in'
p700
aS'the'
p701
aS'yard'
p702
aS'threshing'
p703
aS'corn'
p704
aS'with'
p705
aS'all'
p706
aS'their'
p707
aS'might'
p708
aS','
p709
aS'and'
p710
aS'two'
p711
aS'goats'
p712
aS'were'
p713
aS'heating'
p714
aS'the'
p715
aS'stove'
p716
aS','
p717
aS'and'
p718
aS'a'
p719
aS'red'
p720
aS'cow'
p721
aS'shot'
p722
aS'the'
p723
aS'bread'
p724
aS'into'
p725
aS'the'
p726
aS'oven'
p727
aS'.'
p728
asg63
(lp729
VAnd
p730
aVfour
p731
aVhorse
p732
ag177
aVstand
p733
aVin
p734
aVthe
p735
aVyard
p736
aVthresh
p737
aVcorn
p738
aVwith
p739
aVall
p740
aVtheir
p741
aVmight
p742
ag85
aVand
p743
aVtwo
p744
aVgoat
p745
ag177
aVheat
p746
aVthe
p747
aVstove
p748
ag85
aVand
p749
ag81
aVred
p750
aVcow
p751
aVshot
p752
aVthe
p753
aVbread
p754
aVinto
p755
aVthe
p756
aVoven
p757
ag102
asg103
(lp758
g105
ag105
ag105
ag105
ag105
ag105
ag105
ag105
ag105
ag105
ag105
ag105
ag105
ag105
ag105
ag105
ag105
ag105
ag105
ag105
ag105
ag105
ag105
ag105
ag105
ag105
ag105
ag105
ag105
ag105
ag105
ag105
ag105
ag105
asg106
(lp759
g114
ag235
ag183
ag112
ag115
ag108
ag109
ag110
ag115
ag110
ag108
ag109
ag235
ag110
ag116
ag114
ag182
ag183
ag112
ag115
ag109
ag110
ag116
ag114
ag109
ag113
ag110
ag110
ag109
ag110
ag108
ag109
ag113
ag119
asg120
VAnd four horses were standing in the yard threshing corn with all their might, and two goats were heating the stove, and a red cow shot the bread into the oven.
p760
sba(i__main__
Sentence
p761
(dp762
g17
I12
sg18
(lp763
S'Then'
p764
aS'a'
p765
aS'hen'
p766
aS'crowed'
p767
aS','
p768
aS'cock-a-doodle-doo'
p769
aS'.'
p770
asg63
(lp771
VThen
p772
ag81
aVhen
p773
aVcrow
p774
ag85
aVcock-a-doodle-doo
p775
ag102
asg103
(lp776
g105
ag105
ag105
ag105
ag105
ag105
ag105
asg106
(lp777
g184
ag109
ag110
ag181
ag116
ag255
ag119
asg120
VThen a hen crowed, cock-a-doodle-doo.
p778
sba(i__main__
Sentence
p779
(dp780
g17
I13
sg18
(lp781
S'The'
p782
aS'story'
p783
aS'is'
p784
aS'all'
p785
aS'told'
p786
aS','
p787
aS'cock-a-doodle-doo'
p788
aS'.'
p789
asg63
(lp790
VThe
p791
aVstory
p792
aVbe
p793
aVall
p794
aVtold
p795
ag85
aVcock-a-doodle-doo
p796
ag102
asg103
(lp797
g105
ag105
ag105
ag105
ag105
ag105
ag105
ag105
asg106
(lp798
g109
ag110
aS'VBZ'
p799
ag109
ag110
ag116
ag255
ag119
asg120
VThe story is all told, cock-a-doodle-doo. 
p800
sbasbsS'summary'
p801
g0
(g7
g2
Ntp802
Rp803
(dp804
g11
S'A stream of unconnected impossibilities and lies make up the bulk of this story.'
p805
sg13
(lp806
(i__main__
Sentence
p807
(dp808
g17
I0
sg18
(lp809
S'A'
p810
aS'stream'
p811
aS'of'
p812
aS'unconnected'
p813
aS'impossibilities'
p814
aS'and'
p815
aS'lies'
p816
aS'make'
p817
aS'up'
p818
aS'the'
p819
aS'bulk'
p820
aS'of'
p821
aS'this'
p822
aS'story'
p823
aS'.'
p824
asg63
(lp825
VA
p826
aVstream
p827
aVof
p828
aVunconnected
p829
aVimpossibility
p830
aVand
p831
aVlie
p832
aVmake
p833
aVup
p834
aVthe
p835
aVbulk
p836
aVof
p837
aVthis
p838
aVstory
p839
ag102
asg103
(lp840
g105
ag105
ag105
ag105
ag105
ag105
ag105
ag105
ag105
ag105
ag105
ag105
ag105
ag105
ag105
asg106
(lp841
g109
ag110
ag108
ag181
ag183
ag114
ag183
ag437
ag557
ag109
ag110
ag108
ag109
ag110
ag119
asg120
VA stream of unconnected impossibilities and lies make up the bulk of this story.
p842
sbasbsS'name'
p843
S'The Story of Schlauraffen Land'
p844
sS'summaries'
p845
(lp846
g803
asb.