ccopy_reg
_reconstructor
p0
(c__main__
Story
p1
c__builtin__
object
p2
Ntp3
Rp4
(dp5
S'text'
p6
g0
(c__main__
Document
p7
g2
Ntp8
Rp9
(dp10
S'_Document__initialContent'
p11
S"Seven swabians were once together.  The first was master\nschulz, the second, jackli, the third, marli, the fourth,\njergli, the fifth, michal, the sixth, Hans, the seventh,\nveitli.  All seven had made up their minds to travel\nabout the world to seek adventures and perform great\ndeeds.  But in order that they might go in safety and with\narms in their hands, they thought it would be advisable\nthat they should have one solitary, but very strong,\nand very long spear made for them.  This spear all seven of\nthem took in their hands at once.  In front walked the\nboldest and bravest,\nand that was master schulz.  All the others followed in a\nrow, and veitli was the last.  Then it came to pass one\nday in the hay month, when they had walked a long distance,\nand still had a long way to go before they reached the\nvillage where they were to pass the night, that as they\nwere in a meadow in the twilight a great beetle or hornet\nflew by them from behind a bush, and hummed in a menacing\nmanner.  Master schulz was so terrified that he all but dropped\nthe spear, and a cold sweat broke out over his whole body.\nHark, hark, cried he to his comrades, good heavens.  I hear a\ndrum.  Jackli, who was behind him holding the spear, and into\nwhose nose some smell had risen, said, something is most\ncertainly going on, for I smell the powder and the match.  At\nthese words master schulz began to take to flight, and in a\ntrice jumped\nover a hedge, but as he just happened to jump on to the teeth of\na rake which had been left lying there after the hay-making, the\nhandle of it struck against his face and gave him a tremendous\nblow.  O dear.  O dear, screamed master schulz.  Take me\nprisoner, I surrender, I surrender.  The other six all leapt\nover, one on the top of the other, crying, if you surrender, I\nsurrender too.  If you surrender, I surrender too.  At length,\nas no enemy was there to bind and take them away, they saw that\nthey had been mistaken, and in order that the story might not\nbe known, and they be treated as fools and ridiculed, they\nall swore to each other to hold their peace about it until one\nof them should speak of it by mistake.\nThen they journeyed onwards.  The second danger which they\nsurvived cannot be compared with the first.  Some days afterwards,\ntheir path led them through a fallow-field where a hare was sitting\nsleeping in the sun.  Her ears were standing straight up, and her\ngreat glassy eyes were wide open.  All of them were alarmed at\nthe sight of the horrible wild beast, and they consulted together\nas to what it would be the least dangerous to do.  For if they\nwere to run away, they knew that the monster would pursue and\nswallow them whole.  So they said, we must go through a great\nand dangerous struggle.  Boldly ventured, is half won, and all\nseven grasped the spear, master schulz in front, and veitli\nbehind.  Master schulz was always trying to keep the spear\nback, but veitli had become quite brave while behind, and wanted\nto dash forward and cried,\n          strike home, in every swabian's name,\n          or else I wish you may be lame.\nBut Hans knew how to meet this, and said,\n          thunder and lightning, it's fine to prate,\n          but for dragon-hunting you are always late.\nMichal cried,\n          nothing is missing, not even a hair,\n          be sure the devil himself is there.\nThen it was jergli's turn, and he said,\n          if it be not he, it's at least his mother,\n          or else the devil's own step-brother.\nAnd now marli had a bright thought, and said to veitli,\n          advance, veitli, advance, advance,\n          and I behind will hold the lance.\nVeitli, however, did not obey, and jackli said,\n          tis schulz's place the first to be,\n          no one deserves that honor but he.\nThen master schulz plucked up his courage, and said, gravely,\n          then let us boldly advance to the fight,\n          thus we shall show our valor and might.\nHereupon they all together set on the dragon.  Master\nschulz crossed himself and prayed for God's assistance, but\nas all this was of no avail, and he was getting nearer and nearer\nto the enemy, he screamed, oho, oho, ho, ho, ho, in the greatest\nanguish.  This awakened the hare, which in great alarm darted\nswiftly away.  When master schulz saw her thus flying from the\nfield of battle, he cried in his joy,\n          quick, veitli, quick, look there, look there,\n          the monster's nothing but a hare.\nBut the swabian allies went in search of further adventures, and\ncame to the moselle, a mossy, quiet, deep river, over which there are\nfew bridges, and which in many places people have to cross in\nboats.  As the seven swabians did not know this, they called\nto a man who was working on the opposite side of the river, to\nknow how people contrived to get across.  The distance and their\nway of speaking made the man unable to understand what they\nwanted, and he said, what, what, in the way people speak in\nthe neighborhood of treves.  Master schulz thought he was saying,\nwade, wade through the water, and as he was the first, began\nto set out and\nwent into the moselle.  It was not long before he sank in the\nmud and the deep waves which drove against him, but his hat was\nblown on the opposite shore by the wind, and a frog sat down\nbeside it, and croaked, wat, wat, wat.  The other six on the\nopposite side heard that, and said, oho, comrades, master\nschulz is calling us.  If he can wade across, why cannot we.\nSo they all jumped into the water together in a great hurry, and\nwere drowned, and thus one frog took the lives of all six of\nthem, and not one of the swabian allies ever reached home again.\n"
p12
sS'sentences'
p13
(lp14
(i__main__
Sentence
p15
(dp16
S'index'
p17
I0
sS'words'
p18
(lp19
S'Seven'
p20
aS'swabians'
p21
aS'were'
p22
aS'once'
p23
aS'together'
p24
aS'.'
p25
asS'lemmas'
p26
(lp27
VSeven
p28
aVswabians
p29
aVbe
p30
aVonce
p31
aVtogether
p32
aV.
p33
asS'nerTags'
p34
(lp35
VO
p36
ag36
ag36
ag36
ag36
ag36
asS'posTags'
p37
(lp38
S'CD'
p39
aS'NNS'
p40
aS'VBD'
p41
aS'RB'
p42
ag42
aS'.'
p43
asS'_Sentence__initialContent'
p44
VSeven swabians were once together.
p45
sba(i__main__
Sentence
p46
(dp47
g17
I1
sg18
(lp48
S'The'
p49
aS'first'
p50
aS'was'
p51
aS'master'
p52
aS'schulz'
p53
aS','
p54
aS'the'
p55
aS'second'
p56
aS','
p57
aS'jackli'
p58
aS','
p59
aS'the'
p60
aS'third'
p61
aS','
p62
aS'marli'
p63
aS','
p64
aS'the'
p65
aS'fourth'
p66
aS','
p67
aS'jergli'
p68
aS','
p69
aS'the'
p70
aS'fifth'
p71
aS','
p72
aS'michal'
p73
aS','
p74
aS'the'
p75
aS'sixth'
p76
aS','
p77
aS'Hans'
p78
aS','
p79
aS'the'
p80
aS'seventh'
p81
aS','
p82
aS'veitli'
p83
aS'.'
p84
asg26
(lp85
VThe
p86
aVfirst
p87
aVbe
p88
aVmaster
p89
aVschulz
p90
aV,
p91
aVthe
p92
aVsecond
p93
ag91
aVjackli
p94
ag91
aVthe
p95
aVthird
p96
ag91
aVmarli
p97
ag91
aVthe
p98
aVfourth
p99
ag91
aVjergli
p100
ag91
aVthe
p101
aVfifth
p102
ag91
aVmichal
p103
ag91
aVthe
p104
aVsixth
p105
ag91
aVHans
p106
ag91
aVthe
p107
aVseventh
p108
ag91
aVveitli
p109
ag33
asg34
(lp110
g36
ag36
ag36
ag36
ag36
ag36
ag36
ag36
ag36
ag36
ag36
ag36
ag36
ag36
ag36
ag36
ag36
ag36
ag36
ag36
ag36
ag36
ag36
ag36
ag36
ag36
ag36
ag36
ag36
aVPERSON
p111
ag36
ag36
ag36
ag36
ag36
ag36
asg37
(lp112
S'DT'
p113
aS'JJ'
p114
ag41
aS'NN'
p115
ag115
aS','
p116
ag113
ag114
ag116
ag115
ag116
ag113
ag114
ag116
ag115
ag116
ag113
ag114
ag116
ag115
ag116
ag113
ag114
ag116
ag114
ag116
ag113
ag114
ag116
aS'NNP'
p117
ag116
ag113
ag115
ag116
ag115
ag43
asg44
VThe first was master schulz, the second, jackli, the third, marli, the fourth, jergli, the fifth, michal, the sixth, Hans, the seventh, veitli.
p118
sba(i__main__
Sentence
p119
(dp120
g17
I2
sg18
(lp121
S'All'
p122
aS'seven'
p123
aS'had'
p124
aS'made'
p125
aS'up'
p126
aS'their'
p127
aS'minds'
p128
aS'to'
p129
aS'travel'
p130
aS'about'
p131
aS'the'
p132
aS'world'
p133
aS'to'
p134
aS'seek'
p135
aS'adventures'
p136
aS'and'
p137
aS'perform'
p138
aS'great'
p139
aS'deeds'
p140
aS'.'
p141
asg26
(lp142
VAll
p143
aVseven
p144
aVhave
p145
aVmake
p146
aVup
p147
aVtheir
p148
aVmind
p149
aVto
p150
aVtravel
p151
aVabout
p152
aVthe
p153
aVworld
p154
aVto
p155
aVseek
p156
aVadventure
p157
aVand
p158
aVperform
p159
aVgreat
p160
aVdeed
p161
ag33
asg34
(lp162
g36
ag36
ag36
ag36
ag36
ag36
ag36
ag36
ag36
ag36
ag36
ag36
ag36
ag36
ag36
ag36
ag36
ag36
ag36
ag36
asg37
(lp163
g113
ag39
ag41
aS'VBN'
p164
aS'RP'
p165
aS'PRP$'
p166
ag40
aS'TO'
p167
ag115
aS'IN'
p168
ag113
ag115
ag167
aS'VB'
p169
ag40
aS'CC'
p170
ag115
ag115
ag40
ag43
asg44
VAll seven had made up their minds to travel about the world to seek adventures and perform great deeds.
p171
sba(i__main__
Sentence
p172
(dp173
g17
I3
sg18
(lp174
S'But'
p175
aS'in'
p176
aS'order'
p177
aS'that'
p178
aS'they'
p179
aS'might'
p180
aS'go'
p181
aS'in'
p182
aS'safety'
p183
aS'and'
p184
aS'with'
p185
aS'arms'
p186
aS'in'
p187
aS'their'
p188
aS'hands'
p189
aS','
p190
aS'they'
p191
aS'thought'
p192
aS'it'
p193
aS'would'
p194
aS'be'
p195
aS'advisable'
p196
aS'that'
p197
aS'they'
p198
aS'should'
p199
aS'have'
p200
aS'one'
p201
aS'solitary'
p202
aS','
p203
aS'but'
p204
aS'very'
p205
aS'strong'
p206
aS','
p207
aS'and'
p208
aS'very'
p209
aS'long'
p210
aS'spear'
p211
aS'made'
p212
aS'for'
p213
aS'them'
p214
aS'.'
p215
asg26
(lp216
VBut
p217
aVin
p218
aVorder
p219
aVthat
p220
aVthey
p221
aVmight
p222
aVgo
p223
aVin
p224
aVsafety
p225
aVand
p226
aVwith
p227
aVarm
p228
aVin
p229
aVtheir
p230
aVhand
p231
ag91
aVthey
p232
aVthink
p233
aVit
p234
aVwould
p235
aVbe
p236
aVadvisable
p237
aVthat
p238
aVthey
p239
aVshould
p240
aVhave
p241
aVone
p242
aVsolitary
p243
ag91
aVbut
p244
aVvery
p245
aVstrong
p246
ag91
aVand
p247
aVvery
p248
aVlong
p249
aVspear
p250
aVmade
p251
aVfor
p252
aVthem
p253
ag33
asg34
(lp254
g36
ag36
ag36
ag36
ag36
ag36
ag36
ag36
ag36
ag36
ag36
ag36
ag36
ag36
ag36
ag36
ag36
ag36
ag36
ag36
ag36
ag36
ag36
ag36
ag36
ag36
ag36
ag36
ag36
ag36
ag36
ag36
ag36
ag36
ag36
ag36
ag36
ag36
ag36
ag36
ag36
asg37
(lp255
g170
ag168
ag115
ag168
aS'PRP'
p256
aS'MD'
p257
ag169
ag168
ag115
ag170
ag168
ag40
ag168
ag166
ag40
ag116
ag256
ag41
ag256
ag257
ag169
ag114
ag168
ag256
ag257
ag169
ag39
ag114
ag116
ag170
ag42
ag114
ag116
ag170
ag42
ag42
ag114
ag115
ag168
ag256
ag43
asg44
VBut in order that they might go in safety and with arms in their hands, they thought it would be advisable that they should have one solitary, but very strong, and very long spear made for them.
p258
sba(i__main__
Sentence
p259
(dp260
g17
I4
sg18
(lp261
S'This'
p262
aS'spear'
p263
aS'all'
p264
aS'seven'
p265
aS'of'
p266
aS'them'
p267
aS'took'
p268
aS'in'
p269
aS'their'
p270
aS'hands'
p271
aS'at'
p272
aS'once'
p273
aS'.'
p274
asg26
(lp275
VThis
p276
aVspear
p277
aVall
p278
aVseven
p279
aVof
p280
aVthem
p281
aVtake
p282
aVin
p283
aVtheir
p284
aVhand
p285
aVat
p286
aVonce
p287
ag33
asg34
(lp288
g36
ag36
ag36
ag36
ag36
ag36
ag36
ag36
ag36
ag36
ag36
ag36
ag36
asg37
(lp289
g113
ag115
ag113
ag39
ag168
ag256
ag41
ag168
ag166
ag40
ag168
ag42
ag43
asg44
VThis spear all seven of them took in their hands at once.
p290
sba(i__main__
Sentence
p291
(dp292
g17
I5
sg18
(lp293
S'In'
p294
aS'front'
p295
aS'walked'
p296
aS'the'
p297
aS'boldest'
p298
aS'and'
p299
aS'bravest'
p300
aS','
p301
aS'and'
p302
aS'that'
p303
aS'was'
p304
aS'master'
p305
aS'schulz'
p306
aS'.'
p307
asg26
(lp308
VIn
p309
aVfront
p310
aVwalk
p311
aVthe
p312
aVbold
p313
aVand
p314
aVbrave
p315
ag91
aVand
p316
aVthat
p317
ag88
aVmaster
p318
aVschulz
p319
ag33
asg34
(lp320
g36
ag36
ag36
ag36
ag36
ag36
ag36
ag36
ag36
ag36
ag36
ag36
ag36
ag36
asg37
(lp321
g168
ag115
ag41
ag113
aS'JJS'
p322
ag170
ag322
ag116
ag170
ag168
ag41
ag115
ag115
ag43
asg44
VIn front walked the boldest and bravest, and that was master schulz.
p323
sba(i__main__
Sentence
p324
(dp325
g17
I6
sg18
(lp326
S'All'
p327
aS'the'
p328
aS'others'
p329
aS'followed'
p330
aS'in'
p331
aS'a'
p332
aS'row'
p333
aS','
p334
aS'and'
p335
aS'veitli'
p336
aS'was'
p337
aS'the'
p338
aS'last'
p339
aS'.'
p340
asg26
(lp341
VAll
p342
aVthe
p343
aVothers
p344
aVfollow
p345
aVin
p346
aVa
p347
aVrow
p348
ag91
aVand
p349
aVveitli
p350
ag88
aVthe
p351
aVlast
p352
ag33
asg34
(lp353
g36
ag36
ag36
ag36
ag36
ag36
ag36
ag36
ag36
ag36
ag36
ag36
ag36
ag36
asg37
(lp354
g113
ag113
ag40
ag41
ag168
ag113
ag115
ag116
ag170
ag115
ag41
ag113
ag114
ag43
asg44
VAll the others followed in a row, and veitli was the last.
p355
sba(i__main__
Sentence
p356
(dp357
g17
I7
sg18
(lp358
S'Then'
p359
aS'it'
p360
aS'came'
p361
aS'to'
p362
aS'pass'
p363
aS'one'
p364
aS'day'
p365
aS'in'
p366
aS'the'
p367
aS'hay'
p368
aS'month'
p369
aS','
p370
aS'when'
p371
aS'they'
p372
aS'had'
p373
aS'walked'
p374
aS'a'
p375
aS'long'
p376
aS'distance'
p377
aS','
p378
aS'and'
p379
aS'still'
p380
aS'had'
p381
aS'a'
p382
aS'long'
p383
aS'way'
p384
aS'to'
p385
aS'go'
p386
aS'before'
p387
aS'they'
p388
aS'reached'
p389
aS'the'
p390
aS'village'
p391
aS'where'
p392
aS'they'
p393
aS'were'
p394
aS'to'
p395
aS'pass'
p396
aS'the'
p397
aS'night'
p398
aS','
p399
aS'that'
p400
aS'as'
p401
aS'they'
p402
aS'were'
p403
aS'in'
p404
aS'a'
p405
aS'meadow'
p406
aS'in'
p407
aS'the'
p408
aS'twilight'
p409
aS'a'
p410
aS'great'
p411
aS'beetle'
p412
aS'or'
p413
aS'hornet'
p414
aS'flew'
p415
aS'by'
p416
aS'them'
p417
aS'from'
p418
aS'behind'
p419
aS'a'
p420
aS'bush'
p421
aS','
p422
aS'and'
p423
aS'hummed'
p424
aS'in'
p425
aS'a'
p426
aS'menacing'
p427
aS'manner'
p428
aS'.'
p429
asg26
(lp430
VThen
p431
aVit
p432
aVcome
p433
aVto
p434
aVpass
p435
aVone
p436
aVday
p437
aVin
p438
aVthe
p439
aVhay
p440
aVmonth
p441
ag91
aVwhen
p442
aVthey
p443
ag145
aVwalk
p444
ag347
aVlong
p445
aVdistance
p446
ag91
aVand
p447
aVstill
p448
ag145
ag347
aVlong
p449
aVway
p450
aVto
p451
aVgo
p452
aVbefore
p453
aVthey
p454
aVreach
p455
aVthe
p456
aVvillage
p457
aVwhere
p458
aVthey
p459
ag30
aVto
p460
aVpass
p461
aVthe
p462
aVnight
p463
ag91
aVthat
p464
ag347
aVthey
p465
ag30
aVin
p466
ag347
aVmeadow
p467
aVin
p468
aVthe
p469
aVtwilight
p470
ag347
aVgreat
p471
aVbeetle
p472
aVor
p473
aVhornet
p474
aVflew
p475
aVby
p476
aVthem
p477
aVfrom
p478
aVbehind
p479
ag347
aVbush
p480
ag91
aVand
p481
aVhum
p482
aVin
p483
ag347
aVmenacing
p484
aVmanner
p485
ag33
asg34
(lp486
g36
ag36
ag36
ag36
ag36
ag36
ag36
ag36
ag36
ag36
ag36
ag36
ag36
ag36
ag36
ag36
ag36
ag36
ag36
ag36
ag36
ag36
ag36
ag36
ag36
ag36
ag36
ag36
ag36
ag36
ag36
ag36
ag36
ag36
ag36
ag36
ag36
ag36
ag36
ag36
ag36
ag36
ag36
ag36
ag36
ag36
ag36
ag36
ag36
ag36
ag36
ag36
ag36
ag36
ag36
ag36
ag36
ag36
ag36
ag36
ag36
ag36
ag36
ag36
ag36
ag36
ag36
ag36
ag36
ag36
ag36
asg37
(lp487
g42
ag256
ag41
ag167
ag169
ag39
ag115
ag168
ag113
ag115
ag115
ag116
aS'WRB'
p488
ag256
ag41
ag164
ag113
ag114
ag115
ag116
ag170
ag42
ag41
ag113
ag114
ag115
ag167
ag169
ag168
ag256
ag41
ag113
ag115
ag488
ag256
ag41
ag167
ag169
ag113
ag115
ag116
ag168
ag168
ag256
ag41
ag168
ag113
ag115
ag168
ag113
ag115
ag113
ag114
ag115
ag170
ag115
ag115
ag168
ag256
ag168
ag168
ag113
ag115
ag116
ag170
ag41
ag168
ag113
ag115
ag115
ag43
asg44
VThen it came to pass one day in the hay month, when they had walked a long distance, and still had a long way to go before they reached the village where they were to pass the night, that as they were in a meadow in the twilight a great beetle or hornet flew by them from behind a bush, and hummed in a menacing manner.
p489
sba(i__main__
Sentence
p490
(dp491
g17
I8
sg18
(lp492
S'Master'
p493
aS'schulz'
p494
aS'was'
p495
aS'so'
p496
aS'terrified'
p497
aS'that'
p498
aS'he'
p499
aS'all'
p500
aS'but'
p501
aS'dropped'
p502
aS'the'
p503
aS'spear'
p504
aS','
p505
aS'and'
p506
aS'a'
p507
aS'cold'
p508
aS'sweat'
p509
aS'broke'
p510
aS'out'
p511
aS'over'
p512
aS'his'
p513
aS'whole'
p514
aS'body'
p515
aS'.'
p516
asg26
(lp517
VMaster
p518
aVschulz
p519
ag88
aVso
p520
aVterrify
p521
aVthat
p522
aVhe
p523
aVall
p524
aVbut
p525
aVdrop
p526
aVthe
p527
aVspear
p528
ag91
aVand
p529
ag347
aVcold
p530
aVsweat
p531
aVbroke
p532
aVout
p533
aVover
p534
aVhis
p535
aVwhole
p536
aVbody
p537
ag33
asg34
(lp538
g36
ag36
ag36
ag36
ag36
ag36
ag36
ag36
ag36
ag36
ag36
ag36
ag36
ag36
ag36
ag36
ag36
ag36
ag36
ag36
ag36
ag36
ag36
ag36
asg37
(lp539
g117
ag115
ag41
ag42
ag164
ag168
ag256
ag113
ag170
ag41
ag113
ag114
ag116
ag170
ag113
ag115
ag115
ag115
ag168
ag168
ag166
ag115
ag115
ag43
asg44
VMaster schulz was so terrified that he all but dropped the spear, and a cold sweat broke out over his whole body.
p540
sba(i__main__
Sentence
p541
(dp542
g17
I9
sg18
(lp543
S'Hark'
p544
aS','
p545
aS'hark'
p546
aS','
p547
aS'cried'
p548
aS'he'
p549
aS'to'
p550
aS'his'
p551
aS'comrades'
p552
aS','
p553
aS'good'
p554
aS'heavens'
p555
aS'.'
p556
asg26
(lp557
VHark
p558
ag91
aVhark
p559
ag91
aVcry
p560
aVhe
p561
aVto
p562
aVhis
p563
aVcomrade
p564
ag91
aVgood
p565
aVheaven
p566
ag33
asg34
(lp567
g36
ag36
ag36
ag36
ag36
ag36
ag36
ag36
ag36
ag36
ag36
ag36
ag36
asg37
(lp568
g117
ag116
ag115
ag116
ag41
ag256
ag167
ag166
ag40
ag116
ag114
ag40
ag43
asg44
VHark, hark, cried he to his comrades, good heavens.
p569
sba(i__main__
Sentence
p570
(dp571
g17
I10
sg18
(lp572
S'I'
p573
aS'hear'
p574
aS'a'
p575
aS'drum'
p576
aS'.'
p577
asg26
(lp578
VI
p579
aVhear
p580
ag347
aVdrum
p581
ag33
asg34
(lp582
g36
ag36
ag36
ag36
ag36
asg37
(lp583
g256
aS'VBP'
p584
ag113
ag115
ag43
asg44
VI hear a drum.
p585
sba(i__main__
Sentence
p586
(dp587
g17
I11
sg18
(lp588
S'Jackli'
p589
aS','
p590
aS'who'
p591
aS'was'
p592
aS'behind'
p593
aS'him'
p594
aS'holding'
p595
aS'the'
p596
aS'spear'
p597
aS','
p598
aS'and'
p599
aS'into'
p600
aS'whose'
p601
aS'nose'
p602
aS'some'
p603
aS'smell'
p604
aS'had'
p605
aS'risen'
p606
aS','
p607
aS'said'
p608
aS','
p609
aS'something'
p610
aS'is'
p611
aS'most'
p612
aS'certainly'
p613
aS'going'
p614
aS'on'
p615
aS','
p616
aS'for'
p617
aS'I'
p618
aS'smell'
p619
aS'the'
p620
aS'powder'
p621
aS'and'
p622
aS'the'
p623
aS'match'
p624
aS'.'
p625
asg26
(lp626
VJackli
p627
ag91
aVwho
p628
ag88
aVbehind
p629
aVhim
p630
aVhold
p631
aVthe
p632
aVspear
p633
ag91
aVand
p634
aVinto
p635
aVwhose
p636
aVnose
p637
aVsome
p638
aVsmell
p639
ag145
aVrise
p640
ag91
aVsay
p641
ag91
aVsomething
p642
aVbe
p643
aVmost
p644
aVcertainly
p645
aVgo
p646
aVon
p647
ag91
aVfor
p648
ag579
aVsmell
p649
aVthe
p650
aVpowder
p651
aVand
p652
aVthe
p653
aVmatch
p654
ag33
asg34
(lp655
VPERSON
p656
ag36
ag36
ag36
ag36
ag36
ag36
ag36
ag36
ag36
ag36
ag36
ag36
ag36
ag36
ag36
ag36
ag36
ag36
ag36
ag36
ag36
ag36
ag36
ag36
ag36
ag36
ag36
ag36
ag36
ag36
ag36
ag36
ag36
ag36
ag36
ag36
asg37
(lp657
g117
ag116
aS'WP'
p658
ag41
ag168
ag256
aS'VBG'
p659
ag113
ag115
ag116
ag170
ag168
aS'WP$'
p660
ag115
ag113
ag115
ag41
ag164
ag116
ag41
ag116
ag115
aS'VBZ'
p661
ag322
ag42
ag659
ag168
ag116
ag168
ag256
ag584
ag113
ag115
ag170
ag113
ag115
ag43
asg44
VJackli, who was behind him holding the spear, and into whose nose some smell had risen, said, something is most certainly going on, for I smell the powder and the match.
p662
sba(i__main__
Sentence
p663
(dp664
g17
I12
sg18
(lp665
S'At'
p666
aS'these'
p667
aS'words'
p668
aS'master'
p669
aS'schulz'
p670
aS'began'
p671
aS'to'
p672
aS'take'
p673
aS'to'
p674
aS'flight'
p675
aS','
p676
aS'and'
p677
aS'in'
p678
aS'a'
p679
aS'trice'
p680
aS'jumped'
p681
aS'over'
p682
aS'a'
p683
aS'hedge'
p684
aS','
p685
aS'but'
p686
aS'as'
p687
aS'he'
p688
aS'just'
p689
aS'happened'
p690
aS'to'
p691
aS'jump'
p692
aS'on'
p693
aS'to'
p694
aS'the'
p695
aS'teeth'
p696
aS'of'
p697
aS'a'
p698
aS'rake'
p699
aS'which'
p700
aS'had'
p701
aS'been'
p702
aS'left'
p703
aS'lying'
p704
aS'there'
p705
aS'after'
p706
aS'the'
p707
aS'hay-making'
p708
aS','
p709
aS'the'
p710
aS'handle'
p711
aS'of'
p712
aS'it'
p713
aS'struck'
p714
aS'against'
p715
aS'his'
p716
aS'face'
p717
aS'and'
p718
aS'gave'
p719
aS'him'
p720
aS'a'
p721
aS'tremendous'
p722
aS'blow'
p723
aS'.'
p724
asg26
(lp725
VAt
p726
aVthese
p727
aVword
p728
aVmaster
p729
aVschulz
p730
aVbegin
p731
aVto
p732
aVtake
p733
aVto
p734
aVflight
p735
ag91
aVand
p736
aVin
p737
ag347
aVtrice
p738
aVjump
p739
aVover
p740
ag347
aVhedge
p741
ag91
aVbut
p742
ag347
aVhe
p743
aVjust
p744
aVhappen
p745
aVto
p746
aVjump
p747
aVon
p748
aVto
p749
aVthe
p750
aVteeth
p751
aVof
p752
ag347
aVrake
p753
aVwhich
p754
ag145
aVbe
p755
aVleave
p756
aVlie
p757
aVthere
p758
aVafter
p759
aVthe
p760
aVhay-making
p761
ag91
aVthe
p762
aVhandle
p763
aVof
p764
aVit
p765
aVstrike
p766
aVagainst
p767
aVhis
p768
aVface
p769
aVand
p770
aVgive
p771
aVhim
p772
ag347
aVtremendous
p773
aVblow
p774
ag33
asg34
(lp775
g36
ag36
ag36
ag36
ag36
ag36
ag36
ag36
ag36
ag36
ag36
ag36
ag36
ag36
ag36
ag36
ag36
ag36
ag36
ag36
ag36
ag36
ag36
ag36
ag36
ag36
ag36
ag36
ag36
ag36
ag36
ag36
ag36
ag36
ag36
ag36
ag36
ag36
ag36
ag36
ag36
ag36
ag36
ag36
ag36
ag36
ag36
ag36
ag36
ag36
ag36
ag36
ag36
ag36
ag36
ag36
ag36
ag36
ag36
asg37
(lp776
g168
ag113
ag40
ag115
ag115
ag41
ag167
ag169
ag167
ag169
ag116
ag170
ag168
ag113
ag115
ag41
ag168
ag113
ag115
ag116
ag170
ag168
ag256
ag42
ag41
ag167
ag169
ag168
ag167
ag113
ag115
ag168
ag113
ag115
aS'WDT'
p777
ag41
ag164
ag164
ag659
ag42
ag168
ag113
ag114
ag116
ag113
ag115
ag168
ag256
ag584
ag168
ag166
ag115
ag170
ag41
ag256
ag113
ag114
ag115
ag43
asg44
VAt these words master schulz began to take to flight, and in a trice jumped over a hedge, but as he just happened to jump on to the teeth of a rake which had been left lying there after the hay-making, the handle of it struck against his face and gave him a tremendous blow.
p778
sba(i__main__
Sentence
p779
(dp780
g17
I13
sg18
(lp781
S'O'
p782
aS'dear'
p783
aS'.'
p784
asg26
(lp785
g36
aVdear
p786
ag33
asg34
(lp787
g36
ag36
ag36
asg37
(lp788
g117
ag115
ag43
asg44
VO dear.
p789
sba(i__main__
Sentence
p790
(dp791
g17
I14
sg18
(lp792
S'O'
p793
aS'dear'
p794
aS','
p795
aS'screamed'
p796
aS'master'
p797
aS'schulz'
p798
aS'.'
p799
asg26
(lp800
g36
aVdear
p801
ag91
aVscream
p802
aVmaster
p803
aVschulz
p804
ag33
asg34
(lp805
g36
ag36
ag36
ag36
ag36
ag36
ag36
asg37
(lp806
g117
ag115
ag116
ag41
ag115
ag115
ag43
asg44
VO dear, screamed master schulz.
p807
sba(i__main__
Sentence
p808
(dp809
g17
I15
sg18
(lp810
S'Take'
p811
aS'me'
p812
aS'prisoner'
p813
aS','
p814
aS'I'
p815
aS'surrender'
p816
aS','
p817
aS'I'
p818
aS'surrender'
p819
aS'.'
p820
asg26
(lp821
VTake
p822
aVme
p823
aVprisoner
p824
ag91
ag579
aVsurrender
p825
ag91
ag579
aVsurrender
p826
ag33
asg34
(lp827
g36
ag36
ag36
ag36
ag36
ag36
ag36
ag36
ag36
ag36
asg37
(lp828
g117
ag115
ag115
ag116
ag256
ag584
ag116
ag256
ag584
ag43
asg44
VTake me prisoner, I surrender, I surrender.
p829
sba(i__main__
Sentence
p830
(dp831
g17
I16
sg18
(lp832
S'The'
p833
aS'other'
p834
aS'six'
p835
aS'all'
p836
aS'leapt'
p837
aS'over'
p838
aS','
p839
aS'one'
p840
aS'on'
p841
aS'the'
p842
aS'top'
p843
aS'of'
p844
aS'the'
p845
aS'other'
p846
aS','
p847
aS'crying'
p848
aS','
p849
aS'if'
p850
aS'you'
p851
aS'surrender'
p852
aS','
p853
aS'I'
p854
aS'surrender'
p855
aS'too'
p856
aS'.'
p857
asg26
(lp858
VThe
p859
aVother
p860
aVsix
p861
aVall
p862
aVleapt
p863
aVover
p864
ag91
aVone
p865
aVon
p866
aVthe
p867
aVtop
p868
aVof
p869
aVthe
p870
aVother
p871
ag91
aVcry
p872
ag91
aVif
p873
aVyou
p874
aVsurrender
p875
ag91
ag579
aVsurrender
p876
aVtoo
p877
ag33
asg34
(lp878
g36
ag36
ag36
ag36
ag36
ag36
ag36
ag36
ag36
ag36
ag36
ag36
ag36
ag36
ag36
ag36
ag36
ag36
ag36
ag36
ag36
ag36
ag36
ag36
ag36
asg37
(lp879
g113
ag114
ag39
ag113
ag115
ag168
ag116
ag39
ag168
ag113
ag114
ag168
ag113
ag114
ag116
ag659
ag116
ag168
ag256
ag584
ag116
ag256
ag584
ag42
ag43
asg44
VThe other six all leapt over, one on the top of the other, crying, if you surrender, I surrender too.
p880
sba(i__main__
Sentence
p881
(dp882
g17
I17
sg18
(lp883
S'If'
p884
aS'you'
p885
aS'surrender'
p886
aS','
p887
aS'I'
p888
aS'surrender'
p889
aS'too'
p890
aS'.'
p891
asg26
(lp892
VIf
p893
aVyou
p894
aVsurrender
p895
ag91
ag579
aVsurrender
p896
aVtoo
p897
ag33
asg34
(lp898
g36
ag36
ag36
ag36
ag36
ag36
ag36
ag36
asg37
(lp899
g168
ag256
ag584
ag116
ag256
ag584
ag42
ag43
asg44
VIf you surrender, I surrender too.
p900
sba(i__main__
Sentence
p901
(dp902
g17
I18
sg18
(lp903
S'At'
p904
aS'length'
p905
aS','
p906
aS'as'
p907
aS'no'
p908
aS'enemy'
p909
aS'was'
p910
aS'there'
p911
aS'to'
p912
aS'bind'
p913
aS'and'
p914
aS'take'
p915
aS'them'
p916
aS'away'
p917
aS','
p918
aS'they'
p919
aS'saw'
p920
aS'that'
p921
aS'they'
p922
aS'had'
p923
aS'been'
p924
aS'mistaken'
p925
aS','
p926
aS'and'
p927
aS'in'
p928
aS'order'
p929
aS'that'
p930
aS'the'
p931
aS'story'
p932
aS'might'
p933
aS'not'
p934
aS'be'
p935
aS'known'
p936
aS','
p937
aS'and'
p938
aS'they'
p939
aS'be'
p940
aS'treated'
p941
aS'as'
p942
aS'fools'
p943
aS'and'
p944
aS'ridiculed'
p945
aS','
p946
aS'they'
p947
aS'all'
p948
aS'swore'
p949
aS'to'
p950
aS'each'
p951
aS'other'
p952
aS'to'
p953
aS'hold'
p954
aS'their'
p955
aS'peace'
p956
aS'about'
p957
aS'it'
p958
aS'until'
p959
aS'one'
p960
aS'of'
p961
aS'them'
p962
aS'should'
p963
aS'speak'
p964
aS'of'
p965
aS'it'
p966
aS'by'
p967
aS'mistake'
p968
aS'.'
p969
asg26
(lp970
VAt
p971
aVlength
p972
ag91
ag347
aVno
p973
aVenemy
p974
ag88
aVthere
p975
aVto
p976
aVbind
p977
aVand
p978
aVtake
p979
aVthem
p980
aVaway
p981
ag91
aVthey
p982
aVsaw
p983
aVthat
p984
aVthey
p985
ag145
ag755
aVmistake
p986
ag91
aVand
p987
aVin
p988
aVorder
p989
aVthat
p990
aVthe
p991
aVstory
p992
aVmight
p993
aVnot
p994
aVbe
p995
aVknow
p996
ag91
aVand
p997
aVthey
p998
aVbe
p999
aVtreat
p1000
ag347
aVfool
p1001
aVand
p1002
aVridicule
p1003
ag91
aVthey
p1004
aVall
p1005
aVswore
p1006
aVto
p1007
aVeach
p1008
aVother
p1009
aVto
p1010
aVhold
p1011
aVtheir
p1012
aVpeace
p1013
aVabout
p1014
aVit
p1015
aVuntil
p1016
aVone
p1017
aVof
p1018
aVthem
p1019
aVshould
p1020
aVspeak
p1021
aVof
p1022
aVit
p1023
aVby
p1024
aVmistake
p1025
ag33
asg34
(lp1026
g36
ag36
ag36
ag36
ag36
ag36
ag36
ag36
ag36
ag36
ag36
ag36
ag36
ag36
ag36
ag36
ag36
ag36
ag36
ag36
ag36
ag36
ag36
ag36
ag36
ag36
ag36
ag36
ag36
ag36
ag36
ag36
ag36
ag36
ag36
ag36
ag36
ag36
ag36
ag36
ag36
ag36
ag36
ag36
ag36
ag36
ag36
ag36
ag36
ag36
ag36
ag36
ag36
ag36
ag36
ag36
ag36
ag36
ag36
ag36
ag36
ag36
ag36
ag36
ag36
ag36
asg37
(lp1027
g168
ag115
ag116
ag168
ag113
ag115
ag41
ag42
ag167
ag169
ag170
ag169
ag256
ag42
ag116
ag256
ag41
ag168
ag256
ag41
ag164
ag164
ag116
ag170
ag168
ag115
ag168
ag113
ag115
ag257
ag42
ag169
ag164
ag116
ag170
ag256
ag169
ag164
ag168
ag40
ag170
ag41
ag116
ag256
ag584
aS'RBR'
p1028
ag167
ag113
ag114
ag167
ag169
ag166
ag115
ag168
ag256
ag168
ag39
ag168
ag256
ag257
ag169
ag168
ag256
ag168
ag115
ag43
asg44
VAt length, as no enemy was there to bind and take them away, they saw that they had been mistaken, and in order that the story might not be known, and they be treated as fools and ridiculed, they all swore to each other to hold their peace about it until one of them should speak of it by mistake.
p1029
sba(i__main__
Sentence
p1030
(dp1031
g17
I19
sg18
(lp1032
S'Then'
p1033
aS'they'
p1034
aS'journeyed'
p1035
aS'onwards'
p1036
aS'.'
p1037
asg26
(lp1038
VThen
p1039
aVthey
p1040
aVjourney
p1041
aVonwards
p1042
ag33
asg34
(lp1043
g36
ag36
ag36
ag36
ag36
asg37
(lp1044
g42
ag256
ag41
ag40
ag43
asg44
VThen they journeyed onwards.
p1045
sba(i__main__
Sentence
p1046
(dp1047
g17
I20
sg18
(lp1048
S'The'
p1049
aS'second'
p1050
aS'danger'
p1051
aS'which'
p1052
aS'they'
p1053
aS'survived'
p1054
aS'can'
p1055
aS'not'
p1056
aS'be'
p1057
aS'compared'
p1058
aS'with'
p1059
aS'the'
p1060
aS'first'
p1061
aS'.'
p1062
asg26
(lp1063
VThe
p1064
aVsecond
p1065
aVdanger
p1066
aVwhich
p1067
aVthey
p1068
aVsurvive
p1069
aVcan
p1070
aVnot
p1071
aVbe
p1072
aVcompare
p1073
aVwith
p1074
aVthe
p1075
aVfirst
p1076
ag33
asg34
(lp1077
g36
ag36
ag36
ag36
ag36
ag36
ag36
ag36
ag36
ag36
ag36
ag36
ag36
ag36
asg37
(lp1078
g113
ag114
ag115
ag777
ag256
ag41
ag257
ag42
ag169
ag164
ag168
ag113
ag114
ag43
asg44
VThe second danger which they survived cannot be compared with the first.
p1079
sba(i__main__
Sentence
p1080
(dp1081
g17
I21
sg18
(lp1082
S'Some'
p1083
aS'days'
p1084
aS'afterwards'
p1085
aS','
p1086
aS'their'
p1087
aS'path'
p1088
aS'led'
p1089
aS'them'
p1090
aS'through'
p1091
aS'a'
p1092
aS'fallow-field'
p1093
aS'where'
p1094
aS'a'
p1095
aS'hare'
p1096
aS'was'
p1097
aS'sitting'
p1098
aS'sleeping'
p1099
aS'in'
p1100
aS'the'
p1101
aS'sun'
p1102
aS'.'
p1103
asg26
(lp1104
VSome
p1105
aVday
p1106
aVafterwards
p1107
ag91
aVtheir
p1108
aVpath
p1109
aVlead
p1110
aVthem
p1111
aVthrough
p1112
ag347
aVfallow-field
p1113
aVwhere
p1114
ag347
aVhare
p1115
ag88
aVsit
p1116
aVsleeping
p1117
aVin
p1118
aVthe
p1119
aVsun
p1120
ag33
asg34
(lp1121
g36
ag36
ag36
ag36
ag36
ag36
ag36
ag36
ag36
ag36
ag36
ag36
ag36
ag36
ag36
ag36
ag36
ag36
ag36
ag36
ag36
asg37
(lp1122
g113
ag40
ag40
ag116
ag166
ag115
ag41
ag256
ag168
ag113
ag114
ag488
ag113
ag114
ag41
ag659
ag115
ag168
ag113
ag115
ag43
asg44
VSome days afterwards, their path led them through a fallow-field where a hare was sitting sleeping in the sun.
p1123
sba(i__main__
Sentence
p1124
(dp1125
g17
I22
sg18
(lp1126
S'Her'
p1127
aS'ears'
p1128
aS'were'
p1129
aS'standing'
p1130
aS'straight'
p1131
aS'up'
p1132
aS','
p1133
aS'and'
p1134
aS'her'
p1135
aS'great'
p1136
aS'glassy'
p1137
aS'eyes'
p1138
aS'were'
p1139
aS'wide'
p1140
aS'open'
p1141
aS'.'
p1142
asg26
(lp1143
VHer
p1144
aVear
p1145
ag30
aVstand
p1146
aVstraight
p1147
aVup
p1148
ag91
aVand
p1149
aVher
p1150
aVgreat
p1151
aVglassy
p1152
aVeye
p1153
ag30
aVwide
p1154
aVopen
p1155
ag33
asg34
(lp1156
g36
ag36
ag36
ag36
ag36
ag36
ag36
ag36
ag36
ag36
ag36
ag36
ag36
ag36
ag36
ag36
asg37
(lp1157
g166
ag40
ag41
ag659
ag42
ag168
ag116
ag170
ag166
ag114
ag115
ag40
ag41
ag114
ag114
ag43
asg44
VHer ears were standing straight up, and her great glassy eyes were wide open.
p1158
sba(i__main__
Sentence
p1159
(dp1160
g17
I23
sg18
(lp1161
S'All'
p1162
aS'of'
p1163
aS'them'
p1164
aS'were'
p1165
aS'alarmed'
p1166
aS'at'
p1167
aS'the'
p1168
aS'sight'
p1169
aS'of'
p1170
aS'the'
p1171
aS'horrible'
p1172
aS'wild'
p1173
aS'beast'
p1174
aS','
p1175
aS'and'
p1176
aS'they'
p1177
aS'consulted'
p1178
aS'together'
p1179
aS'as'
p1180
aS'to'
p1181
aS'what'
p1182
aS'it'
p1183
aS'would'
p1184
aS'be'
p1185
aS'the'
p1186
aS'least'
p1187
aS'dangerous'
p1188
aS'to'
p1189
aS'do'
p1190
aS'.'
p1191
asg26
(lp1192
VAll
p1193
aVof
p1194
aVthem
p1195
ag30
aValarm
p1196
aVat
p1197
aVthe
p1198
aVsight
p1199
aVof
p1200
aVthe
p1201
aVhorrible
p1202
aVwild
p1203
aVbeast
p1204
ag91
aVand
p1205
aVthey
p1206
aVconsult
p1207
aVtogether
p1208
ag347
aVto
p1209
aVwhat
p1210
aVit
p1211
aVwould
p1212
aVbe
p1213
aVthe
p1214
aVleast
p1215
aVdangerous
p1216
aVto
p1217
aVdo
p1218
ag33
asg34
(lp1219
g36
ag36
ag36
ag36
ag36
ag36
ag36
ag36
ag36
ag36
ag36
ag36
ag36
ag36
ag36
ag36
ag36
ag36
ag36
ag36
ag36
ag36
ag36
ag36
ag36
ag36
ag36
ag36
ag36
ag36
asg37
(lp1220
g113
ag168
ag256
ag41
ag164
ag168
ag113
ag115
ag168
ag113
ag114
ag115
ag115
ag116
ag170
ag256
ag41
ag42
ag168
ag167
ag658
ag256
ag257
ag169
ag113
ag322
ag114
ag167
ag169
ag43
asg44
VAll of them were alarmed at the sight of the horrible wild beast, and they consulted together as to what it would be the least dangerous to do.
p1221
sba(i__main__
Sentence
p1222
(dp1223
g17
I24
sg18
(lp1224
S'For'
p1225
aS'if'
p1226
aS'they'
p1227
aS'were'
p1228
aS'to'
p1229
aS'run'
p1230
aS'away'
p1231
aS','
p1232
aS'they'
p1233
aS'knew'
p1234
aS'that'
p1235
aS'the'
p1236
aS'monster'
p1237
aS'would'
p1238
aS'pursue'
p1239
aS'and'
p1240
aS'swallow'
p1241
aS'them'
p1242
aS'whole'
p1243
aS'.'
p1244
asg26
(lp1245
VFor
p1246
aVif
p1247
aVthey
p1248
ag30
aVto
p1249
aVrun
p1250
aVaway
p1251
ag91
aVthey
p1252
aVknow
p1253
aVthat
p1254
aVthe
p1255
aVmonster
p1256
aVwould
p1257
aVpursue
p1258
aVand
p1259
aVswallow
p1260
aVthem
p1261
aVwhole
p1262
ag33
asg34
(lp1263
g36
ag36
ag36
ag36
ag36
ag36
ag36
ag36
ag36
ag36
ag36
ag36
ag36
ag36
ag36
ag36
ag36
ag36
ag36
ag36
asg37
(lp1264
g168
ag168
ag256
ag41
ag167
ag169
ag165
ag116
ag256
ag41
ag168
ag113
ag115
ag257
ag169
ag170
ag169
ag256
ag114
ag43
asg44
VFor if they were to run away, they knew that the monster would pursue and swallow them whole.
p1265
sba(i__main__
Sentence
p1266
(dp1267
g17
I25
sg18
(lp1268
S'So'
p1269
aS'they'
p1270
aS'said'
p1271
aS','
p1272
aS'we'
p1273
aS'must'
p1274
aS'go'
p1275
aS'through'
p1276
aS'a'
p1277
aS'great'
p1278
aS'and'
p1279
aS'dangerous'
p1280
aS'struggle'
p1281
aS'.'
p1282
asg26
(lp1283
VSo
p1284
aVthey
p1285
ag641
ag91
aVwe
p1286
aVmust
p1287
aVgo
p1288
aVthrough
p1289
ag347
aVgreat
p1290
aVand
p1291
aVdangerous
p1292
aVstruggle
p1293
ag33
asg34
(lp1294
g36
ag36
ag36
ag36
ag36
ag36
ag36
ag36
ag36
ag36
ag36
ag36
ag36
ag36
asg37
(lp1295
g168
ag256
ag41
ag116
ag256
ag257
ag169
ag168
ag113
ag114
ag170
ag114
ag115
ag43
asg44
VSo they said, we must go through a great and dangerous struggle.
p1296
sba(i__main__
Sentence
p1297
(dp1298
g17
I26
sg18
(lp1299
S'Boldly'
p1300
aS'ventured'
p1301
aS','
p1302
aS'is'
p1303
aS'half'
p1304
aS'won'
p1305
aS','
p1306
aS'and'
p1307
aS'all'
p1308
aS'seven'
p1309
aS'grasped'
p1310
aS'the'
p1311
aS'spear'
p1312
aS','
p1313
aS'master'
p1314
aS'schulz'
p1315
aS'in'
p1316
aS'front'
p1317
aS','
p1318
aS'and'
p1319
aS'veitli'
p1320
aS'behind'
p1321
aS'.'
p1322
asg26
(lp1323
VBoldly
p1324
aVventure
p1325
ag91
ag643
aVhalf
p1326
aVwon
p1327
ag91
aVand
p1328
aVall
p1329
aVseven
p1330
aVgrasp
p1331
aVthe
p1332
aVspear
p1333
ag91
aVmaster
p1334
aVschulz
p1335
aVin
p1336
aVfront
p1337
ag91
aVand
p1338
aVveitli
p1339
aVbehind
p1340
ag33
asg34
(lp1341
g36
ag36
ag36
ag36
ag36
ag36
ag36
ag36
ag36
ag36
ag36
ag36
ag36
ag36
ag36
ag36
ag36
ag36
ag36
ag36
ag36
ag36
ag36
asg37
(lp1342
g42
ag164
ag116
ag661
ag113
ag115
ag116
ag170
ag113
ag39
ag164
ag113
ag115
ag116
ag115
ag115
ag168
ag115
ag116
ag170
ag115
ag168
ag43
asg44
VBoldly ventured, is half won, and all seven grasped the spear, master schulz in front, and veitli behind.
p1343
sba(i__main__
Sentence
p1344
(dp1345
g17
I27
sg18
(lp1346
S'Master'
p1347
aS'schulz'
p1348
aS'was'
p1349
aS'always'
p1350
aS'trying'
p1351
aS'to'
p1352
aS'keep'
p1353
aS'the'
p1354
aS'spear'
p1355
aS'back'
p1356
aS','
p1357
aS'but'
p1358
aS'veitli'
p1359
aS'had'
p1360
aS'become'
p1361
aS'quite'
p1362
aS'brave'
p1363
aS'while'
p1364
aS'behind'
p1365
aS','
p1366
aS'and'
p1367
aS'wanted'
p1368
aS'to'
p1369
aS'dash'
p1370
aS'forward'
p1371
aS'and'
p1372
aS'cried'
p1373
aS','
p1374
aS'strike'
p1375
aS'home'
p1376
aS','
p1377
aS'in'
p1378
aS'every'
p1379
aS'swabian'
p1380
aS"'s"
p1381
aS'name'
p1382
aS','
p1383
aS'or'
p1384
aS'else'
p1385
aS'I'
p1386
aS'wish'
p1387
aS'you'
p1388
aS'may'
p1389
aS'be'
p1390
aS'lame'
p1391
aS'.'
p1392
asg26
(lp1393
VMaster
p1394
aVschulz
p1395
ag88
aValways
p1396
aVtry
p1397
aVto
p1398
aVkeep
p1399
aVthe
p1400
aVspear
p1401
aVback
p1402
ag91
aVbut
p1403
aVveitli
p1404
ag145
aVbecome
p1405
aVquite
p1406
aVbrave
p1407
aVwhile
p1408
aVbehind
p1409
ag91
aVand
p1410
aVwant
p1411
aVto
p1412
aVdash
p1413
aVforward
p1414
aVand
p1415
ag560
ag91
aVstrike
p1416
aVhome
p1417
ag91
aVin
p1418
aVevery
p1419
aVswabian
p1420
aV's
p1421
aVname
p1422
ag91
aVor
p1423
aVelse
p1424
ag579
aVwish
p1425
aVyou
p1426
aVmay
p1427
aVbe
p1428
aVlame
p1429
ag33
asg34
(lp1430
g36
ag36
ag36
ag36
ag36
ag36
ag36
ag36
ag36
ag36
ag36
ag36
ag36
ag36
ag36
ag36
ag36
ag36
ag36
ag36
ag36
ag36
ag36
ag36
ag36
ag36
ag36
ag36
ag36
ag36
ag36
ag36
ag36
ag36
ag36
ag36
ag36
ag36
ag36
ag36
ag36
ag36
ag36
ag36
ag36
ag36
asg37
(lp1431
g117
ag115
ag41
ag42
ag659
ag167
ag169
ag113
ag114
ag115
ag116
ag170
ag115
ag41
ag164
ag42
ag584
ag168
ag115
ag116
ag170
ag41
ag167
ag169
ag42
ag170
ag41
ag116
ag115
ag115
ag116
ag168
ag113
ag114
aS'POS'
p1432
ag115
ag116
ag170
ag42
ag256
ag584
ag256
ag257
ag169
ag164
ag43
asg44
VMaster schulz was always trying to keep the spear back, but veitli had become quite brave while behind, and wanted to dash forward and cried,           strike home, in every swabian's name,           or else I wish you may be lame.
p1433
sba(i__main__
Sentence
p1434
(dp1435
g17
I28
sg18
(lp1436
S'But'
p1437
aS'Hans'
p1438
aS'knew'
p1439
aS'how'
p1440
aS'to'
p1441
aS'meet'
p1442
aS'this'
p1443
aS','
p1444
aS'and'
p1445
aS'said'
p1446
aS','
p1447
aS'thunder'
p1448
aS'and'
p1449
aS'lightning'
p1450
aS','
p1451
aS'it'
p1452
aS"'s"
p1453
aS'fine'
p1454
aS'to'
p1455
aS'prate'
p1456
aS','
p1457
aS'but'
p1458
aS'for'
p1459
aS'dragon-hunting'
p1460
aS'you'
p1461
aS'are'
p1462
aS'always'
p1463
aS'late'
p1464
aS'.'
p1465
asg26
(lp1466
VBut
p1467
aVHans
p1468
ag1253
aVhow
p1469
aVto
p1470
aVmeet
p1471
aVthis
p1472
ag91
aVand
p1473
ag641
ag91
aVthunder
p1474
aVand
p1475
aVlightning
p1476
ag91
aVit
p1477
aV's
p1478
aVfine
p1479
aVto
p1480
aVprate
p1481
ag91
aVbut
p1482
aVfor
p1483
aVdragon-hunting
p1484
aVyou
p1485
aVbe
p1486
aValways
p1487
aVlate
p1488
ag33
asg34
(lp1489
g36
aVPERSON
p1490
ag36
ag36
ag36
ag36
ag36
ag36
ag36
ag36
ag36
ag36
ag36
ag36
ag36
ag36
ag36
ag36
ag36
ag36
ag36
ag36
ag36
ag36
ag36
ag36
ag36
ag36
ag36
asg37
(lp1491
g170
ag117
ag41
ag488
ag167
ag169
ag113
ag116
ag170
ag41
ag116
ag115
ag170
ag659
ag116
ag256
ag661
ag115
ag167
ag169
ag116
ag170
ag168
ag114
ag256
ag584
ag42
ag114
ag43
asg44
VBut Hans knew how to meet this, and said,           thunder and lightning, it's fine to prate,           but for dragon-hunting you are always late.
p1492
sba(i__main__
Sentence
p1493
(dp1494
g17
I29
sg18
(lp1495
S'Michal'
p1496
aS'cried'
p1497
aS','
p1498
aS'nothing'
p1499
aS'is'
p1500
aS'missing'
p1501
aS','
p1502
aS'not'
p1503
aS'even'
p1504
aS'a'
p1505
aS'hair'
p1506
aS','
p1507
aS'be'
p1508
aS'sure'
p1509
aS'the'
p1510
aS'devil'
p1511
aS'himself'
p1512
aS'is'
p1513
aS'there'
p1514
aS'.'
p1515
asg26
(lp1516
VMichal
p1517
ag560
ag91
aVnothing
p1518
ag643
aVmiss
p1519
ag91
aVnot
p1520
aVeven
p1521
ag347
aVhair
p1522
ag91
aVbe
p1523
aVsure
p1524
aVthe
p1525
aVdevil
p1526
aVhimself
p1527
ag643
aVthere
p1528
ag33
asg34
(lp1529
VPERSON
p1530
ag36
ag36
ag36
ag36
ag36
ag36
ag36
ag36
ag36
ag36
ag36
ag36
ag36
ag36
ag36
ag36
ag36
ag36
ag36
asg37
(lp1531
g117
ag41
ag116
ag115
ag661
ag659
ag116
ag42
ag42
ag113
ag115
ag116
ag169
ag114
ag113
ag115
ag256
ag661
ag42
ag43
asg44
VMichal cried,           nothing is missing, not even a hair,           be sure the devil himself is there.
p1532
sba(i__main__
Sentence
p1533
(dp1534
g17
I30
sg18
(lp1535
S'Then'
p1536
aS'it'
p1537
aS'was'
p1538
aS'jergli'
p1539
aS"'s"
p1540
aS'turn'
p1541
aS','
p1542
aS'and'
p1543
aS'he'
p1544
aS'said'
p1545
aS','
p1546
aS'if'
p1547
aS'it'
p1548
aS'be'
p1549
aS'not'
p1550
aS'he'
p1551
aS','
p1552
aS'it'
p1553
aS"'s"
p1554
aS'at'
p1555
aS'least'
p1556
aS'his'
p1557
aS'mother'
p1558
aS','
p1559
aS'or'
p1560
aS'else'
p1561
aS'the'
p1562
aS'devil'
p1563
aS"'s"
p1564
aS'own'
p1565
aS'step-brother'
p1566
aS'.'
p1567
asg26
(lp1568
VThen
p1569
aVit
p1570
ag88
aVjergli
p1571
aV's
p1572
aVturn
p1573
ag91
aVand
p1574
aVhe
p1575
ag641
ag91
aVif
p1576
aVit
p1577
aVbe
p1578
aVnot
p1579
aVhe
p1580
ag91
aVit
p1581
aV's
p1582
aVat
p1583
aVleast
p1584
aVhis
p1585
aVmother
p1586
ag91
aVor
p1587
aVelse
p1588
aVthe
p1589
aVdevil
p1590
aV's
p1591
aVown
p1592
aVstep-brother
p1593
ag33
asg34
(lp1594
g36
ag36
ag36
ag36
ag36
ag36
ag36
ag36
ag36
ag36
ag36
ag36
ag36
ag36
ag36
ag36
ag36
ag36
ag36
ag36
ag36
ag36
ag36
ag36
ag36
ag36
ag36
ag36
ag36
ag36
ag36
ag36
asg37
(lp1595
g42
ag256
ag41
ag256
ag661
ag115
ag116
ag170
ag256
ag41
ag116
ag168
ag256
ag169
ag42
ag256
ag116
ag256
ag661
ag168
ag322
ag166
ag115
ag116
ag170
ag42
ag113
ag115
ag1432
ag114
ag114
ag43
asg44
VThen it was jergli's turn, and he said,           if it be not he, it's at least his mother,           or else the devil's own step-brother.
p1596
sba(i__main__
Sentence
p1597
(dp1598
g17
I31
sg18
(lp1599
S'And'
p1600
aS'now'
p1601
aS'marli'
p1602
aS'had'
p1603
aS'a'
p1604
aS'bright'
p1605
aS'thought'
p1606
aS','
p1607
aS'and'
p1608
aS'said'
p1609
aS'to'
p1610
aS'veitli'
p1611
aS','
p1612
aS'advance'
p1613
aS','
p1614
aS'veitli'
p1615
aS','
p1616
aS'advance'
p1617
aS','
p1618
aS'advance'
p1619
aS','
p1620
aS'and'
p1621
aS'I'
p1622
aS'behind'
p1623
aS'will'
p1624
aS'hold'
p1625
aS'the'
p1626
aS'lance'
p1627
aS'.'
p1628
asg26
(lp1629
VAnd
p1630
aVnow
p1631
aVmarli
p1632
ag145
ag347
aVbright
p1633
aVthought
p1634
ag91
aVand
p1635
ag641
aVto
p1636
aVveitli
p1637
ag91
aVadvance
p1638
ag91
aVveitli
p1639
ag91
aVadvance
p1640
ag91
aVadvance
p1641
ag91
aVand
p1642
ag579
aVbehind
p1643
aVwill
p1644
aVhold
p1645
aVthe
p1646
aVlance
p1647
ag33
asg34
(lp1648
g36
ag36
ag36
ag36
ag36
ag36
ag36
ag36
ag36
ag36
ag36
ag36
ag36
ag36
ag36
ag36
ag36
ag36
ag36
ag36
ag36
ag36
ag36
ag36
ag36
ag36
ag36
ag36
ag36
asg37
(lp1649
g170
ag42
ag584
ag164
ag113
ag114
ag115
ag116
ag170
ag41
ag167
ag169
ag116
ag115
ag116
ag115
ag116
ag115
ag116
ag115
ag116
ag170
ag256
ag584
ag257
ag169
ag113
ag115
ag43
asg44
VAnd now marli had a bright thought, and said to veitli,           advance, veitli, advance, advance,           and I behind will hold the lance.
p1650
sba(i__main__
Sentence
p1651
(dp1652
g17
I32
sg18
(lp1653
S'Veitli'
p1654
aS','
p1655
aS'however'
p1656
aS','
p1657
aS'did'
p1658
aS'not'
p1659
aS'obey'
p1660
aS','
p1661
aS'and'
p1662
aS'jackli'
p1663
aS'said'
p1664
aS','
p1665
aS'tis'
p1666
aS'schulz'
p1667
aS"'s"
p1668
aS'place'
p1669
aS'the'
p1670
aS'first'
p1671
aS'to'
p1672
aS'be'
p1673
aS','
p1674
aS'no'
p1675
aS'one'
p1676
aS'deserves'
p1677
aS'that'
p1678
aS'honor'
p1679
aS'but'
p1680
aS'he'
p1681
aS'.'
p1682
asg26
(lp1683
VVeitli
p1684
ag91
aVhowever
p1685
ag91
aVdo
p1686
aVnot
p1687
aVobey
p1688
ag91
aVand
p1689
aVjackli
p1690
ag641
ag91
aVti
p1691
aVschulz
p1692
aV's
p1693
aVplace
p1694
aVthe
p1695
aVfirst
p1696
aVto
p1697
aVbe
p1698
ag91
aVno
p1699
aVone
p1700
aVdeserve
p1701
aVthat
p1702
aVhonor
p1703
aVbut
p1704
aVhe
p1705
ag33
asg34
(lp1706
VPERSON
p1707
ag36
ag36
ag36
ag36
ag36
ag36
ag36
ag36
ag36
ag36
ag36
ag36
ag36
ag36
ag36
ag36
ag36
ag36
ag36
ag36
ag36
ag36
ag36
ag36
ag36
ag36
ag36
ag36
asg37
(lp1708
g117
ag116
ag42
ag116
ag41
ag42
ag169
ag116
ag170
ag115
ag41
ag116
ag40
ag584
ag1432
ag115
ag113
ag114
ag167
ag169
ag116
ag113
ag256
ag661
ag168
ag115
ag170
ag256
ag43
asg44
VVeitli, however, did not obey, and jackli said,           tis schulz's place the first to be,           no one deserves that honor but he.
p1709
sba(i__main__
Sentence
p1710
(dp1711
g17
I33
sg18
(lp1712
S'Then'
p1713
aS'master'
p1714
aS'schulz'
p1715
aS'plucked'
p1716
aS'up'
p1717
aS'his'
p1718
aS'courage'
p1719
aS','
p1720
aS'and'
p1721
aS'said'
p1722
aS','
p1723
aS'gravely'
p1724
aS','
p1725
aS'then'
p1726
aS'let'
p1727
aS'us'
p1728
aS'boldly'
p1729
aS'advance'
p1730
aS'to'
p1731
aS'the'
p1732
aS'fight'
p1733
aS','
p1734
aS'thus'
p1735
aS'we'
p1736
aS'shall'
p1737
aS'show'
p1738
aS'our'
p1739
aS'valor'
p1740
aS'and'
p1741
aS'might'
p1742
aS'.'
p1743
asg26
(lp1744
VThen
p1745
aVmaster
p1746
aVschulz
p1747
aVpluck
p1748
aVup
p1749
aVhis
p1750
aVcourage
p1751
ag91
aVand
p1752
ag641
ag91
aVgravely
p1753
ag91
aVthen
p1754
aVlet
p1755
aVu
p1756
aVboldly
p1757
aVadvance
p1758
aVto
p1759
aVthe
p1760
aVfight
p1761
ag91
aVthus
p1762
aVwe
p1763
aVshall
p1764
aVshow
p1765
aVour
p1766
aVvalor
p1767
aVand
p1768
aVmight
p1769
ag33
asg34
(lp1770
g36
ag36
aVPERSON
p1771
ag36
ag36
ag36
ag36
ag36
ag36
ag36
ag36
ag36
ag36
ag36
ag36
ag36
ag36
ag36
ag36
ag36
ag36
ag36
ag36
ag36
ag36
ag36
ag36
ag36
ag36
ag36
ag36
asg37
(lp1772
g42
aS'JJR'
p1773
ag115
ag41
ag165
ag166
ag115
ag116
ag170
ag41
ag116
ag42
ag116
ag42
ag169
ag256
ag42
ag115
ag167
ag113
ag115
ag116
ag42
ag256
ag257
ag169
ag166
ag115
ag170
ag257
ag43
asg44
VThen master schulz plucked up his courage, and said, gravely,           then let us boldly advance to the fight,           thus we shall show our valor and might.
p1774
sba(i__main__
Sentence
p1775
(dp1776
g17
I34
sg18
(lp1777
S'Hereupon'
p1778
aS'they'
p1779
aS'all'
p1780
aS'together'
p1781
aS'set'
p1782
aS'on'
p1783
aS'the'
p1784
aS'dragon'
p1785
aS'.'
p1786
asg26
(lp1787
VHereupon
p1788
aVthey
p1789
aVall
p1790
aVtogether
p1791
aVset
p1792
aVon
p1793
aVthe
p1794
aVdragon
p1795
ag33
asg34
(lp1796
g36
ag36
ag36
ag36
ag36
ag36
ag36
ag36
ag36
asg37
(lp1797
g117
ag256
ag113
ag42
ag164
ag168
ag113
ag115
ag43
asg44
VHereupon they all together set on the dragon.
p1798
sba(i__main__
Sentence
p1799
(dp1800
g17
I35
sg18
(lp1801
S'Master'
p1802
aS'schulz'
p1803
aS'crossed'
p1804
aS'himself'
p1805
aS'and'
p1806
aS'prayed'
p1807
aS'for'
p1808
aS'God'
p1809
aS"'s"
p1810
aS'assistance'
p1811
aS','
p1812
aS'but'
p1813
aS'as'
p1814
aS'all'
p1815
aS'this'
p1816
aS'was'
p1817
aS'of'
p1818
aS'no'
p1819
aS'avail'
p1820
aS','
p1821
aS'and'
p1822
aS'he'
p1823
aS'was'
p1824
aS'getting'
p1825
aS'nearer'
p1826
aS'and'
p1827
aS'nearer'
p1828
aS'to'
p1829
aS'the'
p1830
aS'enemy'
p1831
aS','
p1832
aS'he'
p1833
aS'screamed'
p1834
aS','
p1835
aS'oho'
p1836
aS','
p1837
aS'oho'
p1838
aS','
p1839
aS'ho'
p1840
aS','
p1841
aS'ho'
p1842
aS','
p1843
aS'ho'
p1844
aS','
p1845
aS'in'
p1846
aS'the'
p1847
aS'greatest'
p1848
aS'anguish'
p1849
aS'.'
p1850
asg26
(lp1851
VMaster
p1852
aVschulz
p1853
aVcross
p1854
aVhimself
p1855
aVand
p1856
aVpray
p1857
aVfor
p1858
aVGod
p1859
aV's
p1860
aVassistance
p1861
ag91
aVbut
p1862
ag347
aVall
p1863
aVthis
p1864
ag88
aVof
p1865
aVno
p1866
aVavail
p1867
ag91
aVand
p1868
aVhe
p1869
ag88
aVget
p1870
aVnearer
p1871
aVand
p1872
aVnearer
p1873
aVto
p1874
aVthe
p1875
aVenemy
p1876
ag91
aVhe
p1877
aVscream
p1878
ag91
aVoho
p1879
ag91
aVoho
p1880
ag91
aVho
p1881
ag91
aVho
p1882
ag91
aVho
p1883
ag91
aVin
p1884
aVthe
p1885
aVgreat
p1886
aVanguish
p1887
ag33
asg34
(lp1888
g36
ag36
ag36
ag36
ag36
ag36
ag36
ag36
ag36
ag36
ag36
ag36
ag36
ag36
ag36
ag36
ag36
ag36
ag36
ag36
ag36
ag36
ag36
ag36
ag36
ag36
ag36
ag36
ag36
ag36
ag36
ag36
ag36
ag36
ag36
ag36
ag36
ag36
ag36
ag36
ag36
ag36
ag36
ag36
ag36
ag36
ag36
ag36
ag36
asg37
(lp1889
g117
ag115
ag41
ag256
ag170
ag41
ag168
ag117
ag1432
ag115
ag116
ag170
ag168
ag113
ag113
ag41
ag168
ag113
ag115
ag116
ag170
ag256
ag41
ag659
ag115
ag170
ag115
ag167
ag113
ag115
ag116
ag256
ag41
ag116
ag115
ag116
ag658
ag116
ag584
ag116
ag658
ag116
ag584
ag116
ag168
ag113
ag322
ag114
ag43
asg44
VMaster schulz crossed himself and prayed for God's assistance, but as all this was of no avail, and he was getting nearer and nearer to the enemy, he screamed, oho, oho, ho, ho, ho, in the greatest anguish.
p1890
sba(i__main__
Sentence
p1891
(dp1892
g17
I36
sg18
(lp1893
S'This'
p1894
aS'awakened'
p1895
aS'the'
p1896
aS'hare'
p1897
aS','
p1898
aS'which'
p1899
aS'in'
p1900
aS'great'
p1901
aS'alarm'
p1902
aS'darted'
p1903
aS'swiftly'
p1904
aS'away'
p1905
aS'.'
p1906
asg26
(lp1907
VThis
p1908
aVawaken
p1909
aVthe
p1910
aVhare
p1911
ag91
aVwhich
p1912
aVin
p1913
aVgreat
p1914
aValarm
p1915
aVdart
p1916
aVswiftly
p1917
aVaway
p1918
ag33
asg34
(lp1919
g36
ag36
ag36
ag36
ag36
ag36
ag36
ag36
ag36
ag36
ag36
ag36
ag36
asg37
(lp1920
g113
ag164
ag113
ag115
ag116
ag777
ag168
ag114
ag115
ag41
ag42
ag42
ag43
asg44
VThis awakened the hare, which in great alarm darted swiftly away.
p1921
sba(i__main__
Sentence
p1922
(dp1923
g17
I37
sg18
(lp1924
S'When'
p1925
aS'master'
p1926
aS'schulz'
p1927
aS'saw'
p1928
aS'her'
p1929
aS'thus'
p1930
aS'flying'
p1931
aS'from'
p1932
aS'the'
p1933
aS'field'
p1934
aS'of'
p1935
aS'battle'
p1936
aS','
p1937
aS'he'
p1938
aS'cried'
p1939
aS'in'
p1940
aS'his'
p1941
aS'joy'
p1942
aS','
p1943
aS'quick'
p1944
aS','
p1945
aS'veitli'
p1946
aS','
p1947
aS'quick'
p1948
aS','
p1949
aS'look'
p1950
aS'there'
p1951
aS','
p1952
aS'look'
p1953
aS'there'
p1954
aS','
p1955
aS'the'
p1956
aS'monster'
p1957
aS"'s"
p1958
aS'nothing'
p1959
aS'but'
p1960
aS'a'
p1961
aS'hare'
p1962
aS'.'
p1963
asg26
(lp1964
VWhen
p1965
aVmaster
p1966
aVschulz
p1967
aVsaw
p1968
aVher
p1969
aVthus
p1970
aVfly
p1971
aVfrom
p1972
aVthe
p1973
aVfield
p1974
aVof
p1975
aVbattle
p1976
ag91
aVhe
p1977
ag560
aVin
p1978
aVhis
p1979
aVjoy
p1980
ag91
aVquick
p1981
ag91
aVveitli
p1982
ag91
aVquick
p1983
ag91
aVlook
p1984
aVthere
p1985
ag91
aVlook
p1986
aVthere
p1987
ag91
aVthe
p1988
aVmonster
p1989
aV's
p1990
aVnothing
p1991
aVbut
p1992
ag347
aVhare
p1993
ag33
asg34
(lp1994
g36
ag36
ag36
ag36
ag36
ag36
ag36
ag36
ag36
ag36
ag36
ag36
ag36
ag36
ag36
ag36
ag36
ag36
ag36
ag36
ag36
ag36
ag36
ag36
ag36
ag36
ag36
ag36
ag36
ag36
ag36
ag36
ag36
ag36
ag36
ag36
ag36
ag36
ag36
asg37
(lp1995
g488
ag115
ag115
ag41
ag256
ag42
ag659
ag168
ag113
ag115
ag168
ag115
ag116
ag256
ag41
ag168
ag166
ag115
ag116
ag114
ag116
ag115
ag116
ag114
ag116
ag115
aS'EX'
p1996
ag116
ag115
ag1996
ag116
ag113
ag115
ag1432
ag115
ag170
ag113
ag115
ag43
asg44
VWhen master schulz saw her thus flying from the field of battle, he cried in his joy,           quick, veitli, quick, look there, look there,           the monster's nothing but a hare.
p1997
sba(i__main__
Sentence
p1998
(dp1999
g17
I38
sg18
(lp2000
S'But'
p2001
aS'the'
p2002
aS'swabian'
p2003
aS'allies'
p2004
aS'went'
p2005
aS'in'
p2006
aS'search'
p2007
aS'of'
p2008
aS'further'
p2009
aS'adventures'
p2010
aS','
p2011
aS'and'
p2012
aS'came'
p2013
aS'to'
p2014
aS'the'
p2015
aS'moselle'
p2016
aS','
p2017
aS'a'
p2018
aS'mossy'
p2019
aS','
p2020
aS'quiet'
p2021
aS','
p2022
aS'deep'
p2023
aS'river'
p2024
aS','
p2025
aS'over'
p2026
aS'which'
p2027
aS'there'
p2028
aS'are'
p2029
aS'few'
p2030
aS'bridges'
p2031
aS','
p2032
aS'and'
p2033
aS'which'
p2034
aS'in'
p2035
aS'many'
p2036
aS'places'
p2037
aS'people'
p2038
aS'have'
p2039
aS'to'
p2040
aS'cross'
p2041
aS'in'
p2042
aS'boats'
p2043
aS'.'
p2044
asg26
(lp2045
VBut
p2046
aVthe
p2047
aVswabian
p2048
aVally
p2049
aVgo
p2050
aVin
p2051
aVsearch
p2052
aVof
p2053
aVfurther
p2054
aVadventure
p2055
ag91
aVand
p2056
ag433
aVto
p2057
aVthe
p2058
aVmoselle
p2059
ag91
ag347
aVmossy
p2060
ag91
aVquiet
p2061
ag91
aVdeep
p2062
aVriver
p2063
ag91
aVover
p2064
aVwhich
p2065
aVthere
p2066
ag1486
aVfew
p2067
aVbridge
p2068
ag91
aVand
p2069
aVwhich
p2070
aVin
p2071
aVmany
p2072
aVplace
p2073
aVpeople
p2074
aVhave
p2075
aVto
p2076
aVcross
p2077
aVin
p2078
aVboat
p2079
ag33
asg34
(lp2080
g36
ag36
ag36
ag36
ag36
ag36
ag36
ag36
ag36
ag36
ag36
ag36
ag36
ag36
ag36
ag36
ag36
ag36
ag36
ag36
ag36
ag36
ag36
ag36
ag36
ag36
ag36
ag36
ag36
ag36
ag36
ag36
ag36
ag36
ag36
ag36
ag36
ag36
ag36
ag36
ag36
ag36
ag36
ag36
asg37
(lp2081
g170
ag113
ag114
ag40
ag41
ag168
ag115
ag168
ag114
ag40
ag116
ag170
ag41
ag167
ag113
ag115
ag116
ag113
ag115
ag116
ag114
ag116
ag115
ag115
ag116
ag168
ag777
ag1996
ag584
ag114
ag40
ag116
ag170
ag777
ag168
ag114
ag40
ag40
ag584
ag167
ag40
ag168
ag40
ag43
asg44
VBut the swabian allies went in search of further adventures, and came to the moselle, a mossy, quiet, deep river, over which there are few bridges, and which in many places people have to cross in boats.
p2082
sba(i__main__
Sentence
p2083
(dp2084
g17
I39
sg18
(lp2085
S'As'
p2086
aS'the'
p2087
aS'seven'
p2088
aS'swabians'
p2089
aS'did'
p2090
aS'not'
p2091
aS'know'
p2092
aS'this'
p2093
aS','
p2094
aS'they'
p2095
aS'called'
p2096
aS'to'
p2097
aS'a'
p2098
aS'man'
p2099
aS'who'
p2100
aS'was'
p2101
aS'working'
p2102
aS'on'
p2103
aS'the'
p2104
aS'opposite'
p2105
aS'side'
p2106
aS'of'
p2107
aS'the'
p2108
aS'river'
p2109
aS','
p2110
aS'to'
p2111
aS'know'
p2112
aS'how'
p2113
aS'people'
p2114
aS'contrived'
p2115
aS'to'
p2116
aS'get'
p2117
aS'across'
p2118
aS'.'
p2119
asg26
(lp2120
VAs
p2121
aVthe
p2122
aVseven
p2123
aVswabians
p2124
ag1686
aVnot
p2125
aVknow
p2126
aVthis
p2127
ag91
aVthey
p2128
aVcall
p2129
aVto
p2130
ag347
aVman
p2131
aVwho
p2132
ag88
aVwork
p2133
aVon
p2134
aVthe
p2135
aVopposite
p2136
aVside
p2137
aVof
p2138
aVthe
p2139
aVriver
p2140
ag91
aVto
p2141
aVknow
p2142
aVhow
p2143
aVpeople
p2144
aVcontrive
p2145
aVto
p2146
aVget
p2147
aVacross
p2148
ag33
asg34
(lp2149
g36
ag36
ag36
ag36
ag36
ag36
ag36
ag36
ag36
ag36
ag36
ag36
ag36
ag36
ag36
ag36
ag36
ag36
ag36
ag36
ag36
ag36
ag36
ag36
ag36
ag36
ag36
ag36
ag36
ag36
ag36
ag36
ag36
ag36
asg37
(lp2150
g168
ag113
ag39
ag40
ag41
ag42
ag169
ag113
ag116
ag256
ag41
ag167
ag113
ag115
ag658
ag41
ag659
ag168
ag113
ag114
ag115
ag168
ag113
ag115
ag116
ag167
ag169
ag488
ag40
ag164
ag167
ag169
ag165
ag43
asg44
VAs the seven swabians did not know this, they called to a man who was working on the opposite side of the river, to know how people contrived to get across.
p2151
sba(i__main__
Sentence
p2152
(dp2153
g17
I40
sg18
(lp2154
S'The'
p2155
aS'distance'
p2156
aS'and'
p2157
aS'their'
p2158
aS'way'
p2159
aS'of'
p2160
aS'speaking'
p2161
aS'made'
p2162
aS'the'
p2163
aS'man'
p2164
aS'unable'
p2165
aS'to'
p2166
aS'understand'
p2167
aS'what'
p2168
aS'they'
p2169
aS'wanted'
p2170
aS','
p2171
aS'and'
p2172
aS'he'
p2173
aS'said'
p2174
aS','
p2175
aS'what'
p2176
aS','
p2177
aS'what'
p2178
aS','
p2179
aS'in'
p2180
aS'the'
p2181
aS'way'
p2182
aS'people'
p2183
aS'speak'
p2184
aS'in'
p2185
aS'the'
p2186
aS'neighborhood'
p2187
aS'of'
p2188
aS'treves'
p2189
aS'.'
p2190
asg26
(lp2191
VThe
p2192
aVdistance
p2193
aVand
p2194
aVtheir
p2195
aVway
p2196
aVof
p2197
aVspeak
p2198
ag146
aVthe
p2199
aVman
p2200
aVunable
p2201
aVto
p2202
aVunderstand
p2203
aVwhat
p2204
aVthey
p2205
aVwant
p2206
ag91
aVand
p2207
aVhe
p2208
ag641
ag91
aVwhat
p2209
ag91
aVwhat
p2210
ag91
aVin
p2211
aVthe
p2212
aVway
p2213
aVpeople
p2214
aVspeak
p2215
aVin
p2216
aVthe
p2217
aVneighborhood
p2218
aVof
p2219
aVtreves
p2220
ag33
asg34
(lp2221
g36
ag36
ag36
ag36
ag36
ag36
ag36
ag36
ag36
ag36
ag36
ag36
ag36
ag36
ag36
ag36
ag36
ag36
ag36
ag36
ag36
ag36
ag36
ag36
ag36
ag36
ag36
ag36
ag36
ag36
ag36
ag36
ag36
ag36
ag36
ag36
asg37
(lp2222
g113
ag115
ag170
ag166
ag115
ag168
ag659
ag164
ag113
ag115
ag114
ag167
ag169
ag658
ag256
ag41
ag116
ag170
ag256
ag41
ag116
ag658
ag116
ag658
ag116
ag168
ag113
ag115
ag40
ag584
ag168
ag113
ag115
ag168
ag40
ag43
asg44
VThe distance and their way of speaking made the man unable to understand what they wanted, and he said, what, what, in the way people speak in the neighborhood of treves.
p2223
sba(i__main__
Sentence
p2224
(dp2225
g17
I41
sg18
(lp2226
S'Master'
p2227
aS'schulz'
p2228
aS'thought'
p2229
aS'he'
p2230
aS'was'
p2231
aS'saying'
p2232
aS','
p2233
aS'wade'
p2234
aS','
p2235
aS'wade'
p2236
aS'through'
p2237
aS'the'
p2238
aS'water'
p2239
aS','
p2240
aS'and'
p2241
aS'as'
p2242
aS'he'
p2243
aS'was'
p2244
aS'the'
p2245
aS'first'
p2246
aS','
p2247
aS'began'
p2248
aS'to'
p2249
aS'set'
p2250
aS'out'
p2251
aS'and'
p2252
aS'went'
p2253
aS'into'
p2254
aS'the'
p2255
aS'moselle'
p2256
aS'.'
p2257
asg26
(lp2258
VMaster
p2259
aVschulz
p2260
ag233
aVhe
p2261
ag88
aVsay
p2262
ag91
aVwade
p2263
ag91
aVwade
p2264
aVthrough
p2265
aVthe
p2266
aVwater
p2267
ag91
aVand
p2268
ag347
aVhe
p2269
ag88
aVthe
p2270
aVfirst
p2271
ag91
ag731
aVto
p2272
aVset
p2273
aVout
p2274
aVand
p2275
ag2050
aVinto
p2276
aVthe
p2277
aVmoselle
p2278
ag33
asg34
(lp2279
g36
ag36
ag36
ag36
ag36
ag36
ag36
ag36
ag36
ag36
ag36
ag36
ag36
ag36
ag36
ag36
ag36
ag36
ag36
ag36
ag36
ag36
ag36
ag36
ag36
ag36
ag36
ag36
ag36
ag36
ag36
asg37
(lp2280
g117
ag115
ag41
ag256
ag41
ag659
ag116
ag115
ag116
ag115
ag168
ag113
ag115
ag116
ag170
ag168
ag256
ag41
ag113
ag114
ag116
ag41
ag167
ag169
ag165
ag170
ag41
ag168
ag113
ag114
ag43
asg44
VMaster schulz thought he was saying, wade, wade through the water, and as he was the first, began to set out and went into the moselle.
p2281
sba(i__main__
Sentence
p2282
(dp2283
g17
I42
sg18
(lp2284
S'It'
p2285
aS'was'
p2286
aS'not'
p2287
aS'long'
p2288
aS'before'
p2289
aS'he'
p2290
aS'sank'
p2291
aS'in'
p2292
aS'the'
p2293
aS'mud'
p2294
aS'and'
p2295
aS'the'
p2296
aS'deep'
p2297
aS'waves'
p2298
aS'which'
p2299
aS'drove'
p2300
aS'against'
p2301
aS'him'
p2302
aS','
p2303
aS'but'
p2304
aS'his'
p2305
aS'hat'
p2306
aS'was'
p2307
aS'blown'
p2308
aS'on'
p2309
aS'the'
p2310
aS'opposite'
p2311
aS'shore'
p2312
aS'by'
p2313
aS'the'
p2314
aS'wind'
p2315
aS','
p2316
aS'and'
p2317
aS'a'
p2318
aS'frog'
p2319
aS'sat'
p2320
aS'down'
p2321
aS'beside'
p2322
aS'it'
p2323
aS','
p2324
aS'and'
p2325
aS'croaked'
p2326
aS','
p2327
aS'wat'
p2328
aS','
p2329
aS'wat'
p2330
aS','
p2331
aS'wat'
p2332
aS'.'
p2333
asg26
(lp2334
VIt
p2335
ag88
aVnot
p2336
aVlong
p2337
aVbefore
p2338
aVhe
p2339
aVsink
p2340
aVin
p2341
aVthe
p2342
aVmud
p2343
aVand
p2344
aVthe
p2345
aVdeep
p2346
aVwave
p2347
aVwhich
p2348
aVdrove
p2349
aVagainst
p2350
aVhim
p2351
ag91
aVbut
p2352
aVhis
p2353
aVhat
p2354
ag88
aVblow
p2355
aVon
p2356
aVthe
p2357
aVopposite
p2358
aVshore
p2359
aVby
p2360
aVthe
p2361
aVwind
p2362
ag91
aVand
p2363
ag347
aVfrog
p2364
aVsat
p2365
aVdown
p2366
aVbeside
p2367
aVit
p2368
ag91
aVand
p2369
aVcroak
p2370
ag91
aVwat
p2371
ag91
aVwat
p2372
ag91
aVwat
p2373
ag33
asg34
(lp2374
g36
ag36
ag36
ag36
ag36
ag36
ag36
ag36
ag36
ag36
ag36
ag36
ag36
ag36
ag36
ag36
ag36
ag36
ag36
ag36
ag36
ag36
ag36
ag36
ag36
ag36
ag36
ag36
ag36
ag36
ag36
ag36
ag36
ag36
ag36
ag36
ag36
ag36
ag36
ag36
ag36
ag36
ag36
ag36
ag36
ag36
ag36
ag36
ag36
asg37
(lp2375
g256
ag41
ag42
ag42
ag168
ag256
ag41
ag168
ag113
ag115
ag170
ag113
ag115
ag661
ag777
ag168
ag168
ag256
ag116
ag170
ag166
ag115
ag41
ag164
ag168
ag113
ag114
ag115
ag168
ag113
ag115
ag116
ag170
ag113
ag115
ag115
ag168
ag115
ag256
ag116
ag170
ag41
ag116
ag168
ag116
ag114
ag116
ag114
ag43
asg44
VIt was not long before he sank in the mud and the deep waves which drove against him, but his hat was blown on the opposite shore by the wind, and a frog sat down beside it, and croaked, wat, wat, wat.
p2376
sba(i__main__
Sentence
p2377
(dp2378
g17
I43
sg18
(lp2379
S'The'
p2380
aS'other'
p2381
aS'six'
p2382
aS'on'
p2383
aS'the'
p2384
aS'opposite'
p2385
aS'side'
p2386
aS'heard'
p2387
aS'that'
p2388
aS','
p2389
aS'and'
p2390
aS'said'
p2391
aS','
p2392
aS'oho'
p2393
aS','
p2394
aS'comrades'
p2395
aS','
p2396
aS'master'
p2397
aS'schulz'
p2398
aS'is'
p2399
aS'calling'
p2400
aS'us'
p2401
aS'.'
p2402
asg26
(lp2403
VThe
p2404
aVother
p2405
aVsix
p2406
aVon
p2407
aVthe
p2408
aVopposite
p2409
aVside
p2410
aVheard
p2411
aVthat
p2412
ag91
aVand
p2413
ag641
ag91
aVoho
p2414
ag91
aVcomrades
p2415
ag91
aVmaster
p2416
aVschulz
p2417
ag643
aVcall
p2418
ag1756
ag33
asg34
(lp2419
g36
ag36
ag36
ag36
ag36
ag36
ag36
ag36
ag36
ag36
ag36
ag36
ag36
ag36
ag36
ag36
ag36
ag36
ag36
ag36
ag36
ag36
ag36
asg37
(lp2420
g113
ag114
ag39
ag168
ag113
ag114
ag115
ag115
ag777
ag116
ag170
ag41
ag116
ag115
ag116
ag661
ag116
ag115
ag115
ag661
ag659
ag256
ag43
asg44
VThe other six on the opposite side heard that, and said, oho, comrades, master schulz is calling us.
p2421
sba(i__main__
Sentence
p2422
(dp2423
g17
I44
sg18
(lp2424
S'If'
p2425
aS'he'
p2426
aS'can'
p2427
aS'wade'
p2428
aS'across'
p2429
aS','
p2430
aS'why'
p2431
aS'can'
p2432
aS'not'
p2433
aS'we'
p2434
aS'.'
p2435
asg26
(lp2436
VIf
p2437
aVhe
p2438
aVcan
p2439
aVwade
p2440
aVacross
p2441
ag91
aVwhy
p2442
aVcan
p2443
aVnot
p2444
aVwe
p2445
ag33
asg34
(lp2446
g36
ag36
ag36
ag36
ag36
ag36
ag36
ag36
ag36
ag36
ag36
asg37
(lp2447
g168
ag256
ag257
ag169
ag168
ag116
ag488
ag257
ag42
ag169
ag43
asg44
VIf he can wade across, why cannot we.
p2448
sba(i__main__
Sentence
p2449
(dp2450
g17
I45
sg18
(lp2451
S'So'
p2452
aS'they'
p2453
aS'all'
p2454
aS'jumped'
p2455
aS'into'
p2456
aS'the'
p2457
aS'water'
p2458
aS'together'
p2459
aS'in'
p2460
aS'a'
p2461
aS'great'
p2462
aS'hurry'
p2463
aS','
p2464
aS'and'
p2465
aS'were'
p2466
aS'drowned'
p2467
aS','
p2468
aS'and'
p2469
aS'thus'
p2470
aS'one'
p2471
aS'frog'
p2472
aS'took'
p2473
aS'the'
p2474
aS'lives'
p2475
aS'of'
p2476
aS'all'
p2477
aS'six'
p2478
aS'of'
p2479
aS'them'
p2480
aS','
p2481
aS'and'
p2482
aS'not'
p2483
aS'one'
p2484
aS'of'
p2485
aS'the'
p2486
aS'swabian'
p2487
aS'allies'
p2488
aS'ever'
p2489
aS'reached'
p2490
aS'home'
p2491
aS'again'
p2492
aS'.'
p2493
asg26
(lp2494
VSo
p2495
aVthey
p2496
aVall
p2497
aVjump
p2498
aVinto
p2499
aVthe
p2500
aVwater
p2501
aVtogether
p2502
aVin
p2503
ag347
aVgreat
p2504
aVhurry
p2505
ag91
aVand
p2506
ag30
aVdrown
p2507
ag91
aVand
p2508
aVthus
p2509
aVone
p2510
aVfrog
p2511
ag282
aVthe
p2512
aVlife
p2513
aVof
p2514
aVall
p2515
aVsix
p2516
aVof
p2517
aVthem
p2518
ag91
aVand
p2519
aVnot
p2520
aVone
p2521
aVof
p2522
aVthe
p2523
aVswabian
p2524
aVally
p2525
aVever
p2526
aVreach
p2527
aVhome
p2528
aVagain
p2529
ag33
asg34
(lp2530
g36
ag36
ag36
ag36
ag36
ag36
ag36
ag36
ag36
ag36
ag36
ag36
ag36
ag36
ag36
ag36
ag36
ag36
ag36
ag36
ag36
ag36
ag36
ag36
ag36
ag36
ag36
ag36
ag36
ag36
ag36
ag36
ag36
ag36
ag36
ag36
ag36
ag36
ag36
ag36
ag36
ag36
asg37
(lp2531
g168
ag256
ag584
ag164
ag168
ag113
ag115
ag42
ag168
ag113
ag114
ag115
ag116
ag170
ag41
ag164
ag116
ag170
ag42
ag39
ag115
ag41
ag113
ag40
ag168
ag113
ag39
ag168
ag256
ag116
ag170
ag42
ag39
ag168
ag113
ag114
ag40
ag42
ag164
ag115
ag42
ag43
asg44
VSo they all jumped into the water together in a great hurry, and were drowned, and thus one frog took the lives of all six of them, and not one of the swabian allies ever reached home again. 
p2532
sbasbsS'summary'
p2533
g0
(g7
g2
Ntp2534
Rp2535
(dp2536
g11
S'Seven Swabians set out on an adventure. They carry one spear, a weapon so long it takes all seven to hold it. In their first adventure, the Swabians are scared by a hornet and surrender to a garden rake. Once they realize they have been silly, the seven agree not to speak of the incident. Next, they encounter a hare, which they believe to be a dragon. The seven attack and are happy when their "enemy" runs away from them. Next the men come to a river they want to cross. They all drown when they try to wade across this deep, rough river.'
p2537
sg13
(lp2538
(i__main__
Sentence
p2539
(dp2540
g17
I0
sg18
(lp2541
S'Seven'
p2542
aS'Swabians'
p2543
aS'set'
p2544
aS'out'
p2545
aS'on'
p2546
aS'an'
p2547
aS'adventure'
p2548
aS'.'
p2549
asg26
(lp2550
VSeven
p2551
aVSwabians
p2552
aVset
p2553
aVout
p2554
aVon
p2555
aVan
p2556
aVadventure
p2557
ag33
asg34
(lp2558
g36
ag36
ag36
ag36
ag36
ag36
ag36
ag36
asg37
(lp2559
g39
ag40
ag41
ag168
ag168
ag113
ag115
ag43
asg44
VSeven Swabians set out on an adventure.
p2560
sba(i__main__
Sentence
p2561
(dp2562
g17
I1
sg18
(lp2563
S'They'
p2564
aS'carry'
p2565
aS'one'
p2566
aS'spear'
p2567
aS','
p2568
aS'a'
p2569
aS'weapon'
p2570
aS'so'
p2571
aS'long'
p2572
aS'it'
p2573
aS'takes'
p2574
aS'all'
p2575
aS'seven'
p2576
aS'to'
p2577
aS'hold'
p2578
aS'it'
p2579
aS'.'
p2580
asg26
(lp2581
VThey
p2582
aVcarry
p2583
aVone
p2584
aVspear
p2585
ag91
ag347
aVweapon
p2586
aVso
p2587
aVlong
p2588
aVit
p2589
aVtake
p2590
aVall
p2591
aVseven
p2592
aVto
p2593
aVhold
p2594
aVit
p2595
ag33
asg34
(lp2596
g36
ag36
ag36
ag36
ag36
ag36
ag36
ag36
ag36
ag36
ag36
ag36
ag36
ag36
ag36
ag36
ag36
asg37
(lp2597
g256
ag584
ag39
ag114
ag116
ag113
ag115
ag168
ag42
ag256
ag661
ag113
ag39
ag167
ag169
ag256
ag43
asg44
VThey carry one spear, a weapon so long it takes all seven to hold it.
p2598
sba(i__main__
Sentence
p2599
(dp2600
g17
I2
sg18
(lp2601
S'In'
p2602
aS'their'
p2603
aS'first'
p2604
aS'adventure'
p2605
aS','
p2606
aS'the'
p2607
aS'Swabians'
p2608
aS'are'
p2609
aS'scared'
p2610
aS'by'
p2611
aS'a'
p2612
aS'hornet'
p2613
aS'and'
p2614
aS'surrender'
p2615
aS'to'
p2616
aS'a'
p2617
aS'garden'
p2618
aS'rake'
p2619
aS'.'
p2620
asg26
(lp2621
VIn
p2622
aVtheir
p2623
aVfirst
p2624
aVadventure
p2625
ag91
aVthe
p2626
aVSwabians
p2627
ag1486
aVscar
p2628
aVby
p2629
ag347
aVhornet
p2630
aVand
p2631
aVsurrender
p2632
aVto
p2633
ag347
aVgarden
p2634
aVrake
p2635
ag33
asg34
(lp2636
g36
ag36
ag36
ag36
ag36
ag36
ag36
ag36
ag36
ag36
ag36
ag36
ag36
ag36
ag36
ag36
ag36
ag36
ag36
asg37
(lp2637
g168
ag166
ag114
ag115
ag116
ag113
aS'NNPS'
p2638
ag584
ag164
ag168
ag113
ag115
ag170
ag115
ag167
ag113
ag115
ag115
ag43
asg44
VIn their first adventure, the Swabians are scared by a hornet and surrender to a garden rake.
p2639
sba(i__main__
Sentence
p2640
(dp2641
g17
I3
sg18
(lp2642
S'Once'
p2643
aS'they'
p2644
aS'realize'
p2645
aS'they'
p2646
aS'have'
p2647
aS'been'
p2648
aS'silly'
p2649
aS','
p2650
aS'the'
p2651
aS'seven'
p2652
aS'agree'
p2653
aS'not'
p2654
aS'to'
p2655
aS'speak'
p2656
aS'of'
p2657
aS'the'
p2658
aS'incident'
p2659
aS'.'
p2660
asg26
(lp2661
VOnce
p2662
aVthey
p2663
aVrealize
p2664
aVthey
p2665
aVhave
p2666
ag755
aVsilly
p2667
ag91
aVthe
p2668
aVseven
p2669
aVagree
p2670
aVnot
p2671
aVto
p2672
aVspeak
p2673
aVof
p2674
aVthe
p2675
aVincident
p2676
ag33
asg34
(lp2677
g36
ag36
ag36
ag36
ag36
ag36
ag36
ag36
ag36
ag36
ag36
ag36
ag36
ag36
ag36
ag36
ag36
ag36
asg37
(lp2678
g42
ag256
ag584
ag256
ag584
ag164
ag42
ag116
ag113
ag39
ag39
ag42
ag167
ag169
ag168
ag113
ag115
ag43
asg44
VOnce they realize they have been silly, the seven agree not to speak of the incident.
p2679
sba(i__main__
Sentence
p2680
(dp2681
g17
I4
sg18
(lp2682
S'Next'
p2683
aS','
p2684
aS'they'
p2685
aS'encounter'
p2686
aS'a'
p2687
aS'hare'
p2688
aS','
p2689
aS'which'
p2690
aS'they'
p2691
aS'believe'
p2692
aS'to'
p2693
aS'be'
p2694
aS'a'
p2695
aS'dragon'
p2696
aS'.'
p2697
asg26
(lp2698
VNext
p2699
ag91
aVthey
p2700
aVencounter
p2701
ag347
aVhare
p2702
ag91
aVwhich
p2703
aVthey
p2704
aVbelieve
p2705
aVto
p2706
aVbe
p2707
ag347
aVdragon
p2708
ag33
asg34
(lp2709
g36
ag36
ag36
ag36
ag36
ag36
ag36
ag36
ag36
ag36
ag36
ag36
ag36
ag36
ag36
asg37
(lp2710
g114
ag116
ag256
ag584
ag113
ag115
ag116
ag777
ag256
ag584
ag167
ag169
ag113
ag115
ag43
asg44
VNext, they encounter a hare, which they believe to be a dragon.
p2711
sba(i__main__
Sentence
p2712
(dp2713
g17
I5
sg18
(lp2714
S'The'
p2715
aS'seven'
p2716
aS'attack'
p2717
aS'and'
p2718
aS'are'
p2719
aS'happy'
p2720
aS'when'
p2721
aS'their'
p2722
aS'``'
p2723
aS'enemy'
p2724
aS"''"
p2725
aS'runs'
p2726
aS'away'
p2727
aS'from'
p2728
aS'them'
p2729
aS'.'
p2730
asg26
(lp2731
VThe
p2732
aVseven
p2733
aVattack
p2734
aVand
p2735
ag1486
aVhappy
p2736
aVwhen
p2737
aVtheir
p2738
aV``
p2739
aVenemy
p2740
aV''
p2741
aVrun
p2742
aVaway
p2743
aVfrom
p2744
aVthem
p2745
ag33
asg34
(lp2746
g36
ag36
ag36
ag36
ag36
ag36
ag36
ag36
ag36
ag36
ag36
ag36
ag36
ag36
ag36
ag36
asg37
(lp2747
g113
ag39
ag115
ag170
ag584
ag114
ag488
ag166
aS'``'
p2748
ag115
aS"''"
p2749
ag661
ag42
ag168
ag256
ag43
asg44
VThe seven attack and are happy when their "enemy" runs away from them.
p2750
sba(i__main__
Sentence
p2751
(dp2752
g17
I6
sg18
(lp2753
S'Next'
p2754
aS'the'
p2755
aS'men'
p2756
aS'come'
p2757
aS'to'
p2758
aS'a'
p2759
aS'river'
p2760
aS'they'
p2761
aS'want'
p2762
aS'to'
p2763
aS'cross'
p2764
aS'.'
p2765
asg26
(lp2766
VNext
p2767
aVthe
p2768
aVmen
p2769
aVcome
p2770
aVto
p2771
ag347
aVriver
p2772
aVthey
p2773
aVwant
p2774
aVto
p2775
aVcross
p2776
ag33
asg34
(lp2777
g36
ag36
ag36
ag36
ag36
ag36
ag36
ag36
ag36
ag36
ag36
ag36
asg37
(lp2778
g114
ag113
ag40
ag584
ag167
ag113
ag115
ag256
ag584
ag167
ag40
ag43
asg44
VNext the men come to a river they want to cross.
p2779
sba(i__main__
Sentence
p2780
(dp2781
g17
I7
sg18
(lp2782
S'They'
p2783
aS'all'
p2784
aS'drown'
p2785
aS'when'
p2786
aS'they'
p2787
aS'try'
p2788
aS'to'
p2789
aS'wade'
p2790
aS'across'
p2791
aS'this'
p2792
aS'deep'
p2793
aS','
p2794
aS'rough'
p2795
aS'river'
p2796
aS'.'
p2797
asg26
(lp2798
VThey
p2799
aVall
p2800
aVdrown
p2801
aVwhen
p2802
aVthey
p2803
aVtry
p2804
aVto
p2805
aVwade
p2806
aVacross
p2807
aVthis
p2808
aVdeep
p2809
ag91
aVrough
p2810
aVriver
p2811
ag33
asg34
(lp2812
g36
ag36
ag36
ag36
ag36
ag36
ag36
ag36
ag36
ag36
ag36
ag36
ag36
ag36
ag36
asg37
(lp2813
g256
ag584
ag165
ag488
ag256
ag584
ag167
ag169
ag165
ag113
ag115
ag116
ag114
ag115
ag43
asg44
VThey all drown when they try to wade across this deep, rough river.
p2814
sbasbsS'name'
p2815
S'The Seven Swabians'
p2816
sS'summaries'
p2817
(lp2818
g2535
asb.