ccopy_reg
_reconstructor
p0
(c__main__
Story
p1
c__builtin__
object
p2
Ntp3
Rp4
(dp5
S'text'
p6
g0
(c__main__
Document
p7
g2
Ntp8
Rp9
(dp10
S'_Document__initialContent'
p11
S'Knowing that Mrs. Mallard was afflicted with a heart trouble, great care was taken to break to her as gently as possible the news of her husband\'s death.\n\n\n\nIt was her sister Josephine who told her, in broken sentences; veiled hints that revealed in half concealing. Her husband\'s friend Richards was there, too, near her. It was he who had been in the newspaper office when intelligence of the railroad disaster was received, with Brently Mallard\'s name leading the list of "killed." He had only taken the time to assure himself of its truth by a second telegram, and had hastened to forestall any less careful, less tender friend in bearing the sad message.\n\n\n\nShe did not hear the story as many women have heard the same, with a paralyzed inability to accept its significance. She wept at once, with sudden, wild abandonment, in her sister\'s arms. When the storm of grief had spent itself she went away to her room alone. She would have no one follow her.\n\n\n\nThere stood, facing the open window, a comfortable, roomy armchair. Into this she sank, pressed down by a physical exhaustion that haunted her body and seemed to reach into her soul.\n\n\n\nShe could see in the open square before her house the tops of trees that were all aquiver with the new spring life. The delicious breath of rain was in the air. In the street below a peddler was crying his wares. The notes of a distant song which someone was singing reached her faintly, and countless sparrows were twittering in the eaves.\n\n\n\nThere were patches of blue sky showing here and there through the clouds that had met and piled one above the other in the west facing her window.\n\n\n\nShe sat with her head thrown back upon the cushion of the chair, quite motionless, except when a sob came up into her throat and shook her, as a child who has cried itself to sleep continues to sob in its dreams.\n\n\n\nShe was young, with a fair, calm face, whose lines bespoke repression and even a certain strength. But now there was a dull stare in her eyes, whose gaze was fixed away off yonder on one of those patches of blue sky. It was not a glance of reflection, but rather indicated a suspension of intelligent thought.\n\n\n\nThere was something coming to her and she was waiting for it, fearfully. What was it? She did not know; it was too subtle and elusive to name. But she felt it, creeping out of the sky, reaching toward her through the sounds, the scents, the color that filled the air.\n\n\n\nNow her bosom rose and fell tumultuously. She was beginning to recognize this thing that was approaching to possess her, and she was striving to beat it back with her will--as powerless as her two white slender hands would have been. When she abandoned herself a little whispered word escaped her slightly parted lips. She said it over and over under the breath: "free, free, free!" The vacant stare and the look of terror that had followed it went from her eyes. They stayed keen and bright. Her pulses beat fast, and the coursing blood warmed and relaxed every inch of her body.\n\n\n\nShe did not stop to ask if it were or were not a monstrous joy that held her. A clear and exalted perception enabled her to dismiss the suggestion as trivial. She knew that she would weep again when she saw the kind, tender hands folded in death; the face that had never looked save with love upon her, fixed and gray and dead. But she saw beyond that bitter moment a long procession of years to come that would belong to her absolutely. And she opened and spread her arms out to them in welcome.\n\n\n\nThere would be no one to live for during those coming years; she would live for herself. There would be no powerful will bending hers in that blind persistence with which men and women believe they have a right to impose a private will upon a fellow-creature. A kind intention or a cruel intention made the act seem no less a crime as she looked upon it in that brief moment of illumination.\n\n\n\nAnd yet she had loved him--sometimes. Often she had not. What did it matter! What could love, the unsolved mystery, count for in the face of this possession of self-assertion which she suddenly recognized as the strongest impulse of her being!\n\n\n\n"Free! Body and soul free!" she kept whispering.\n\n\n\nJosephine was kneeling before the closed door with her lips to the keyhole, imploring for admission. "Louise, open the door! I beg; open the door--you will make yourself ill. What are you doing, Louise? For heaven\'s sake open the door."\n\n\n\n"Go away. I am not making myself ill." No; she was drinking in a very elixir of life through that open window.\n\n\n\nHer fancy was running riot along those days ahead of her. Spring days, and summer days, and all sorts of days that would be her own. She breathed a quick prayer that life might be long. It was only yesterday she had thought with a shudder that life might be long.\n\n\n\nShe arose at length and opened the door to her sister\'s importunities. There was a feverish triumph in her eyes, and she carried herself unwittingly like a goddess of Victory. She clasped her sister\'s waist, and together they descended the stairs. Richards stood waiting for them at the bottom.\n\n\n\nSomeone was opening the front door with a latchkey. It was Brently Mallard who entered, a little travel-stained, composedly carrying his grip-sack and umbrella. He had been far from the scene of the accident, and did not even know there had been one. He stood amazed at Josephine\'s piercing cry; at Richards\' quick motion to screen him from the view of his wife.\n\n\n\nWhen the doctors came they said she had died of heart disease--of the joy that kills.'
p12
sS'sentences'
p13
(lp14
(i__main__
Sentence
p15
(dp16
S'index'
p17
I0
sS'words'
p18
(lp19
S'Knowing'
p20
aS'that'
p21
aS'Mrs.'
p22
aS'Mallard'
p23
aS'was'
p24
aS'afflicted'
p25
aS'with'
p26
aS'a'
p27
aS'heart'
p28
aS'trouble'
p29
aS','
p30
aS'great'
p31
aS'care'
p32
aS'was'
p33
aS'taken'
p34
aS'to'
p35
aS'break'
p36
aS'to'
p37
aS'her'
p38
aS'as'
p39
aS'gently'
p40
aS'as'
p41
aS'possible'
p42
aS'the'
p43
aS'news'
p44
aS'of'
p45
aS'her'
p46
aS'husband'
p47
aS"'s"
p48
aS'death'
p49
aS'.'
p50
asS'lemmas'
p51
(lp52
VKnowing
p53
aVthat
p54
aVMrs.
p55
aVMallard
p56
aVbe
p57
aVafflict
p58
aVwith
p59
aVa
p60
aVheart
p61
aVtrouble
p62
aV,
p63
aVgreat
p64
aVcare
p65
ag57
aVtake
p66
aVto
p67
aVbreak
p68
aVto
p69
aVher
p70
ag60
aVgently
p71
ag60
aVpossible
p72
aVthe
p73
aVnews
p74
aVof
p75
aVher
p76
aVhusband
p77
aV's
p78
aVdeath
p79
aV.
p80
asS'nerTags'
p81
(lp82
VO
p83
ag83
ag83
aVPERSON
p84
ag83
ag83
ag83
ag83
ag83
ag83
ag83
ag83
ag83
ag83
ag83
ag83
ag83
ag83
ag83
ag83
ag83
ag83
ag83
ag83
ag83
ag83
ag83
ag83
ag83
ag83
ag83
asS'posTags'
p85
(lp86
S'VBG'
p87
aS'IN'
p88
aS'NNP'
p89
ag89
aS'VBD'
p90
aS'VBN'
p91
ag88
aS'DT'
p92
aS'NN'
p93
ag93
aS','
p94
aS'JJ'
p95
ag93
ag90
ag91
aS'TO'
p96
aS'VB'
p97
ag96
aS'PRP$'
p98
ag88
aS'RB'
p99
ag88
ag95
ag92
ag93
ag88
ag98
ag93
aS'POS'
p100
ag93
aS'.'
p101
asS'_Sentence__initialContent'
p102
VKnowing that Mrs. Mallard was afflicted with a heart trouble, great care was taken to break to her as gently as possible the news of her husband's death.
p103
sba(i__main__
Sentence
p104
(dp105
g17
I1
sg18
(lp106
S'It'
p107
aS'was'
p108
aS'her'
p109
aS'sister'
p110
aS'Josephine'
p111
aS'who'
p112
aS'told'
p113
aS'her'
p114
aS','
p115
aS'in'
p116
aS'broken'
p117
aS'sentences'
p118
aS';'
p119
aS'veiled'
p120
aS'hints'
p121
aS'that'
p122
aS'revealed'
p123
aS'in'
p124
aS'half'
p125
aS'concealing'
p126
aS'.'
p127
asg51
(lp128
VIt
p129
ag57
aVher
p130
aVsister
p131
aVJosephine
p132
aVwho
p133
aVtell
p134
aVher
p135
ag63
aVin
p136
aVbreak
p137
aVsentence
p138
aV;
p139
aVveil
p140
aVhint
p141
aVthat
p142
aVreveal
p143
aVin
p144
aVhalf
p145
aVconcealing
p146
ag80
asg81
(lp147
g83
ag83
ag83
ag83
aVPERSON
p148
ag83
ag83
ag83
ag83
ag83
ag83
ag83
ag83
ag83
ag83
ag83
ag83
ag83
ag83
ag83
ag83
asg85
(lp149
S'PRP'
p150
ag90
ag98
ag93
ag89
aS'WP'
p151
ag90
ag150
ag94
ag88
ag91
aS'NNS'
p152
aS':'
p153
ag90
ag152
ag88
ag91
ag88
ag92
ag93
ag101
asg102
VIt was her sister Josephine who told her, in broken sentences; veiled hints that revealed in half concealing.
p154
sba(i__main__
Sentence
p155
(dp156
g17
I2
sg18
(lp157
S'Her'
p158
aS'husband'
p159
aS"'s"
p160
aS'friend'
p161
aS'Richards'
p162
aS'was'
p163
aS'there'
p164
aS','
p165
aS'too'
p166
aS','
p167
aS'near'
p168
aS'her'
p169
aS'.'
p170
asg51
(lp171
VHer
p172
aVhusband
p173
aV's
p174
aVfriend
p175
aVRichards
p176
ag57
aVthere
p177
ag63
aVtoo
p178
ag63
aVnear
p179
aVher
p180
ag80
asg81
(lp181
g83
ag83
ag83
ag83
aVPERSON
p182
ag83
ag83
ag83
ag83
ag83
ag83
ag83
ag83
asg85
(lp183
g98
ag93
ag100
ag93
ag152
ag90
ag99
ag94
ag99
ag94
ag88
ag98
ag101
asg102
VHer husband's friend Richards was there, too, near her.
p184
sba(i__main__
Sentence
p185
(dp186
g17
I3
sg18
(lp187
S'It'
p188
aS'was'
p189
aS'he'
p190
aS'who'
p191
aS'had'
p192
aS'been'
p193
aS'in'
p194
aS'the'
p195
aS'newspaper'
p196
aS'office'
p197
aS'when'
p198
aS'intelligence'
p199
aS'of'
p200
aS'the'
p201
aS'railroad'
p202
aS'disaster'
p203
aS'was'
p204
aS'received'
p205
aS','
p206
aS'with'
p207
aS'Brently'
p208
aS'Mallard'
p209
aS"'s"
p210
aS'name'
p211
aS'leading'
p212
aS'the'
p213
aS'list'
p214
aS'of'
p215
aS'``'
p216
aS'killed'
p217
aS'.'
p218
aS"''"
p219
asg51
(lp220
VIt
p221
ag57
aVhe
p222
aVwho
p223
aVhave
p224
aVbe
p225
aVin
p226
aVthe
p227
aVnewspaper
p228
aVoffice
p229
aVwhen
p230
aVintelligence
p231
aVof
p232
aVthe
p233
aVrailroad
p234
aVdisaster
p235
ag57
aVreceive
p236
ag63
aVwith
p237
aVBrently
p238
aVMallard
p239
aV's
p240
aVname
p241
aVlead
p242
aVthe
p243
aVlist
p244
aVof
p245
aV``
p246
aVkill
p247
ag80
aV''
p248
asg81
(lp249
g83
ag83
ag83
ag83
ag83
ag83
ag83
ag83
ag83
ag83
ag83
ag83
ag83
ag83
ag83
ag83
ag83
ag83
ag83
ag83
aVPERSON
p250
aVPERSON
p251
ag83
ag83
ag83
ag83
ag83
ag83
ag83
ag83
ag83
ag83
asg85
(lp252
g150
ag90
ag150
ag151
ag90
ag91
ag88
ag92
ag93
ag93
aS'WRB'
p253
ag93
ag88
ag92
ag93
ag93
ag90
ag91
ag94
ag88
ag89
ag89
ag100
ag93
ag87
ag92
ag93
ag88
aS'``'
p254
ag91
ag101
aS"''"
p255
asg102
VIt was he who had been in the newspaper office when intelligence of the railroad disaster was received, with Brently Mallard's name leading the list of "killed."
p256
sba(i__main__
Sentence
p257
(dp258
g17
I4
sg18
(lp259
S'He'
p260
aS'had'
p261
aS'only'
p262
aS'taken'
p263
aS'the'
p264
aS'time'
p265
aS'to'
p266
aS'assure'
p267
aS'himself'
p268
aS'of'
p269
aS'its'
p270
aS'truth'
p271
aS'by'
p272
aS'a'
p273
aS'second'
p274
aS'telegram'
p275
aS','
p276
aS'and'
p277
aS'had'
p278
aS'hastened'
p279
aS'to'
p280
aS'forestall'
p281
aS'any'
p282
aS'less'
p283
aS'careful'
p284
aS','
p285
aS'less'
p286
aS'tender'
p287
aS'friend'
p288
aS'in'
p289
aS'bearing'
p290
aS'the'
p291
aS'sad'
p292
aS'message'
p293
aS'.'
p294
asg51
(lp295
VHe
p296
ag224
aVonly
p297
ag66
aVthe
p298
aVtime
p299
aVto
p300
aVassure
p301
aVhimself
p302
aVof
p303
aVit
p304
aVtruth
p305
aVby
p306
ag60
aVsecond
p307
aVtelegram
p308
ag63
aVand
p309
ag224
aVhasten
p310
aVto
p311
aVforestall
p312
aVany
p313
aVless
p314
aVcareful
p315
ag63
aVless
p316
aVtender
p317
aVfriend
p318
aVin
p319
aVbearing
p320
aVthe
p321
aVsad
p322
aVmessage
p323
ag80
asg81
(lp324
g83
ag83
ag83
ag83
ag83
ag83
ag83
ag83
ag83
ag83
ag83
ag83
ag83
ag83
ag83
ag83
ag83
ag83
ag83
ag83
ag83
ag83
ag83
ag83
ag83
ag83
ag83
ag83
ag83
ag83
ag83
ag83
ag83
ag83
ag83
asg85
(lp325
g150
ag90
ag99
ag91
ag92
ag93
ag96
ag97
ag150
ag88
ag98
ag93
ag88
ag92
ag95
ag93
ag94
aS'CC'
p326
ag90
ag91
ag96
ag97
ag92
aS'JJR'
p327
ag95
ag94
aS'RBR'
p328
ag95
ag93
ag88
ag93
ag92
ag95
ag93
ag101
asg102
VHe had only taken the time to assure himself of its truth by a second telegram, and had hastened to forestall any less careful, less tender friend in bearing the sad message.
p329
sba(i__main__
Sentence
p330
(dp331
g17
I5
sg18
(lp332
S'She'
p333
aS'did'
p334
aS'not'
p335
aS'hear'
p336
aS'the'
p337
aS'story'
p338
aS'as'
p339
aS'many'
p340
aS'women'
p341
aS'have'
p342
aS'heard'
p343
aS'the'
p344
aS'same'
p345
aS','
p346
aS'with'
p347
aS'a'
p348
aS'paralyzed'
p349
aS'inability'
p350
aS'to'
p351
aS'accept'
p352
aS'its'
p353
aS'significance'
p354
aS'.'
p355
asg51
(lp356
VShe
p357
aVdo
p358
aVnot
p359
aVhear
p360
aVthe
p361
aVstory
p362
ag60
aVmany
p363
aVwoman
p364
aVhave
p365
aVhear
p366
aVthe
p367
aVsame
p368
ag63
aVwith
p369
ag60
aVparalyzed
p370
aVinability
p371
aVto
p372
aVaccept
p373
aVit
p374
aVsignificance
p375
ag80
asg81
(lp376
g83
ag83
ag83
ag83
ag83
ag83
ag83
ag83
ag83
ag83
ag83
ag83
ag83
ag83
ag83
ag83
ag83
ag83
ag83
ag83
ag83
ag83
ag83
asg85
(lp377
g150
ag90
ag99
ag97
ag92
ag93
ag88
ag95
ag152
aS'VBP'
p378
ag91
ag92
ag95
ag94
ag88
ag92
ag95
ag93
ag96
ag97
ag98
ag93
ag101
asg102
VShe did not hear the story as many women have heard the same, with a paralyzed inability to accept its significance.
p379
sba(i__main__
Sentence
p380
(dp381
g17
I6
sg18
(lp382
S'She'
p383
aS'wept'
p384
aS'at'
p385
aS'once'
p386
aS','
p387
aS'with'
p388
aS'sudden'
p389
aS','
p390
aS'wild'
p391
aS'abandonment'
p392
aS','
p393
aS'in'
p394
aS'her'
p395
aS'sister'
p396
aS"'s"
p397
aS'arms'
p398
aS'.'
p399
asg51
(lp400
VShe
p401
aVweep
p402
aVat
p403
aVonce
p404
ag63
aVwith
p405
aVsudden
p406
ag63
aVwild
p407
aVabandonment
p408
ag63
aVin
p409
aVher
p410
aVsister
p411
aV's
p412
aVarm
p413
ag80
asg81
(lp414
g83
ag83
ag83
ag83
ag83
ag83
ag83
ag83
ag83
ag83
ag83
ag83
ag83
ag83
ag83
ag83
ag83
asg85
(lp415
g150
ag90
ag88
ag99
ag94
ag88
ag95
ag94
ag95
ag93
ag94
ag88
ag98
ag93
ag100
ag152
ag101
asg102
VShe wept at once, with sudden, wild abandonment, in her sister's arms.
p416
sba(i__main__
Sentence
p417
(dp418
g17
I7
sg18
(lp419
S'When'
p420
aS'the'
p421
aS'storm'
p422
aS'of'
p423
aS'grief'
p424
aS'had'
p425
aS'spent'
p426
aS'itself'
p427
aS'she'
p428
aS'went'
p429
aS'away'
p430
aS'to'
p431
aS'her'
p432
aS'room'
p433
aS'alone'
p434
aS'.'
p435
asg51
(lp436
VWhen
p437
aVthe
p438
aVstorm
p439
aVof
p440
aVgrief
p441
ag224
aVspend
p442
aVitself
p443
aVshe
p444
aVgo
p445
aVaway
p446
aVto
p447
aVher
p448
aVroom
p449
aValone
p450
ag80
asg81
(lp451
g83
ag83
ag83
ag83
ag83
ag83
ag83
ag83
ag83
ag83
ag83
ag83
ag83
ag83
ag83
ag83
asg85
(lp452
g253
ag92
ag93
ag88
ag93
ag90
ag91
ag150
ag150
ag90
ag99
ag96
ag98
ag93
ag93
ag101
asg102
VWhen the storm of grief had spent itself she went away to her room alone.
p453
sba(i__main__
Sentence
p454
(dp455
g17
I8
sg18
(lp456
S'She'
p457
aS'would'
p458
aS'have'
p459
aS'no'
p460
aS'one'
p461
aS'follow'
p462
aS'her'
p463
aS'.'
p464
asg51
(lp465
VShe
p466
aVwould
p467
aVhave
p468
aVno
p469
aVone
p470
aVfollow
p471
aVher
p472
ag80
asg81
(lp473
g83
ag83
ag83
ag83
ag83
ag83
ag83
ag83
asg85
(lp474
g150
aS'MD'
p475
ag97
ag92
ag150
ag378
ag150
ag101
asg102
VShe would have no one follow her.
p476
sba(i__main__
Sentence
p477
(dp478
g17
I9
sg18
(lp479
S'There'
p480
aS'stood'
p481
aS','
p482
aS'facing'
p483
aS'the'
p484
aS'open'
p485
aS'window'
p486
aS','
p487
aS'a'
p488
aS'comfortable'
p489
aS','
p490
aS'roomy'
p491
aS'armchair'
p492
aS'.'
p493
asg51
(lp494
VThere
p495
aVstand
p496
ag63
aVface
p497
aVthe
p498
aVopen
p499
aVwindow
p500
ag63
ag60
aVcomfortable
p501
ag63
aVroomy
p502
aVarmchair
p503
ag80
asg81
(lp504
g83
ag83
ag83
ag83
ag83
ag83
ag83
ag83
ag83
ag83
ag83
ag83
ag83
ag83
asg85
(lp505
S'EX'
p506
ag90
ag94
ag87
ag92
ag95
ag93
ag94
ag92
ag95
ag94
ag93
ag93
ag101
asg102
VThere stood, facing the open window, a comfortable, roomy armchair.
p507
sba(i__main__
Sentence
p508
(dp509
g17
I10
sg18
(lp510
S'Into'
p511
aS'this'
p512
aS'she'
p513
aS'sank'
p514
aS','
p515
aS'pressed'
p516
aS'down'
p517
aS'by'
p518
aS'a'
p519
aS'physical'
p520
aS'exhaustion'
p521
aS'that'
p522
aS'haunted'
p523
aS'her'
p524
aS'body'
p525
aS'and'
p526
aS'seemed'
p527
aS'to'
p528
aS'reach'
p529
aS'into'
p530
aS'her'
p531
aS'soul'
p532
aS'.'
p533
asg51
(lp534
VInto
p535
aVthis
p536
aVshe
p537
aVsink
p538
ag63
aVpress
p539
aVdown
p540
aVby
p541
ag60
aVphysical
p542
aVexhaustion
p543
aVthat
p544
aVhaunt
p545
aVher
p546
aVbody
p547
aVand
p548
aVseem
p549
aVto
p550
aVreach
p551
aVinto
p552
aVher
p553
aVsoul
p554
ag80
asg81
(lp555
g83
ag83
ag83
ag83
ag83
ag83
ag83
ag83
ag83
ag83
ag83
ag83
ag83
ag83
ag83
ag83
ag83
ag83
ag83
ag83
ag83
ag83
ag83
asg85
(lp556
g88
ag92
ag150
ag90
ag94
ag91
aS'RP'
p557
ag88
ag92
ag95
ag93
aS'WDT'
p558
ag91
ag98
ag93
ag326
ag90
ag96
ag97
ag88
ag98
ag95
ag101
asg102
VInto this she sank, pressed down by a physical exhaustion that haunted her body and seemed to reach into her soul.
p559
sba(i__main__
Sentence
p560
(dp561
g17
I11
sg18
(lp562
S'She'
p563
aS'could'
p564
aS'see'
p565
aS'in'
p566
aS'the'
p567
aS'open'
p568
aS'square'
p569
aS'before'
p570
aS'her'
p571
aS'house'
p572
aS'the'
p573
aS'tops'
p574
aS'of'
p575
aS'trees'
p576
aS'that'
p577
aS'were'
p578
aS'all'
p579
aS'aquiver'
p580
aS'with'
p581
aS'the'
p582
aS'new'
p583
aS'spring'
p584
aS'life'
p585
aS'.'
p586
asg51
(lp587
VShe
p588
aVcould
p589
aVsee
p590
aVin
p591
aVthe
p592
aVopen
p593
aVsquare
p594
aVbefore
p595
aVher
p596
aVhouse
p597
aVthe
p598
aVtop
p599
aVof
p600
aVtree
p601
aVthat
p602
aVbe
p603
aVall
p604
aVaquiver
p605
aVwith
p606
aVthe
p607
aVnew
p608
aVspring
p609
aVlife
p610
ag80
asg81
(lp611
g83
ag83
ag83
ag83
ag83
ag83
ag83
ag83
ag83
ag83
ag83
ag83
ag83
ag83
ag83
ag83
ag83
ag83
ag83
ag83
ag83
ag83
ag83
ag83
asg85
(lp612
g150
ag475
ag97
ag88
ag92
ag95
ag93
ag88
ag98
ag93
ag92
ag152
ag88
ag152
ag558
ag90
ag92
ag93
ag88
ag92
ag95
ag93
ag93
ag101
asg102
VShe could see in the open square before her house the tops of trees that were all aquiver with the new spring life.
p613
sba(i__main__
Sentence
p614
(dp615
g17
I12
sg18
(lp616
S'The'
p617
aS'delicious'
p618
aS'breath'
p619
aS'of'
p620
aS'rain'
p621
aS'was'
p622
aS'in'
p623
aS'the'
p624
aS'air'
p625
aS'.'
p626
asg51
(lp627
VThe
p628
aVdelicious
p629
aVbreath
p630
aVof
p631
aVrain
p632
ag57
aVin
p633
aVthe
p634
aVair
p635
ag80
asg81
(lp636
g83
ag83
ag83
ag83
ag83
ag83
ag83
ag83
ag83
ag83
asg85
(lp637
g92
ag95
ag93
ag88
ag93
ag90
ag88
ag92
ag93
ag101
asg102
VThe delicious breath of rain was in the air.
p638
sba(i__main__
Sentence
p639
(dp640
g17
I13
sg18
(lp641
S'In'
p642
aS'the'
p643
aS'street'
p644
aS'below'
p645
aS'a'
p646
aS'peddler'
p647
aS'was'
p648
aS'crying'
p649
aS'his'
p650
aS'wares'
p651
aS'.'
p652
asg51
(lp653
VIn
p654
aVthe
p655
aVstreet
p656
aVbelow
p657
ag60
aVpeddler
p658
ag57
aVcry
p659
aVhis
p660
aVware
p661
ag80
asg81
(lp662
g83
ag83
ag83
ag83
ag83
ag83
ag83
ag83
ag83
ag83
ag83
asg85
(lp663
g88
ag92
ag93
ag88
ag92
ag93
ag90
ag87
ag98
ag152
ag101
asg102
VIn the street below a peddler was crying his wares.
p664
sba(i__main__
Sentence
p665
(dp666
g17
I14
sg18
(lp667
S'The'
p668
aS'notes'
p669
aS'of'
p670
aS'a'
p671
aS'distant'
p672
aS'song'
p673
aS'which'
p674
aS'someone'
p675
aS'was'
p676
aS'singing'
p677
aS'reached'
p678
aS'her'
p679
aS'faintly'
p680
aS','
p681
aS'and'
p682
aS'countless'
p683
aS'sparrows'
p684
aS'were'
p685
aS'twittering'
p686
aS'in'
p687
aS'the'
p688
aS'eaves'
p689
aS'.'
p690
asg51
(lp691
VThe
p692
aVnote
p693
aVof
p694
ag60
aVdistant
p695
aVsong
p696
aVwhich
p697
aVsomeone
p698
ag57
aVsing
p699
aVreach
p700
aVher
p701
aVfaintly
p702
ag63
aVand
p703
aVcountless
p704
aVsparrows
p705
ag603
aVtwitter
p706
aVin
p707
aVthe
p708
aVeaves
p709
ag80
asg81
(lp710
g83
ag83
ag83
ag83
ag83
ag83
ag83
ag83
ag83
ag83
ag83
ag83
ag83
ag83
ag83
ag83
ag83
ag83
ag83
ag83
ag83
ag83
ag83
asg85
(lp711
g92
ag152
ag88
ag92
ag95
ag95
ag558
ag93
ag90
ag87
ag91
ag98
ag99
ag94
ag326
ag93
aS'VBZ'
p712
ag90
ag87
ag88
ag92
ag152
ag101
asg102
VThe notes of a distant song which someone was singing reached her faintly, and countless sparrows were twittering in the eaves.
p713
sba(i__main__
Sentence
p714
(dp715
g17
I15
sg18
(lp716
S'There'
p717
aS'were'
p718
aS'patches'
p719
aS'of'
p720
aS'blue'
p721
aS'sky'
p722
aS'showing'
p723
aS'here'
p724
aS'and'
p725
aS'there'
p726
aS'through'
p727
aS'the'
p728
aS'clouds'
p729
aS'that'
p730
aS'had'
p731
aS'met'
p732
aS'and'
p733
aS'piled'
p734
aS'one'
p735
aS'above'
p736
aS'the'
p737
aS'other'
p738
aS'in'
p739
aS'the'
p740
aS'west'
p741
aS'facing'
p742
aS'her'
p743
aS'window'
p744
aS'.'
p745
asg51
(lp746
VThere
p747
ag603
aVpatch
p748
aVof
p749
aVblue
p750
aVsky
p751
aVshow
p752
aVhere
p753
aVand
p754
aVthere
p755
aVthrough
p756
aVthe
p757
aVcloud
p758
aVthat
p759
ag224
aVmeet
p760
aVand
p761
aVpile
p762
aVone
p763
aVabove
p764
aVthe
p765
aVother
p766
aVin
p767
aVthe
p768
aVwest
p769
aVface
p770
aVher
p771
aVwindow
p772
ag80
asg81
(lp773
g83
ag83
ag83
ag83
ag83
ag83
ag83
ag83
ag83
ag83
ag83
ag83
ag83
ag83
ag83
ag83
ag83
ag83
ag83
ag83
ag83
ag83
ag83
ag83
ag83
ag83
ag83
ag83
ag83
asg85
(lp774
g506
ag90
ag152
ag88
ag95
ag93
ag87
ag99
ag326
ag506
ag88
ag92
ag152
ag558
ag90
ag91
ag326
ag91
aS'CD'
p775
ag88
ag92
ag95
ag88
ag92
ag93
ag87
ag150
ag93
ag101
asg102
VThere were patches of blue sky showing here and there through the clouds that had met and piled one above the other in the west facing her window.
p776
sba(i__main__
Sentence
p777
(dp778
g17
I16
sg18
(lp779
S'She'
p780
aS'sat'
p781
aS'with'
p782
aS'her'
p783
aS'head'
p784
aS'thrown'
p785
aS'back'
p786
aS'upon'
p787
aS'the'
p788
aS'cushion'
p789
aS'of'
p790
aS'the'
p791
aS'chair'
p792
aS','
p793
aS'quite'
p794
aS'motionless'
p795
aS','
p796
aS'except'
p797
aS'when'
p798
aS'a'
p799
aS'sob'
p800
aS'came'
p801
aS'up'
p802
aS'into'
p803
aS'her'
p804
aS'throat'
p805
aS'and'
p806
aS'shook'
p807
aS'her'
p808
aS','
p809
aS'as'
p810
aS'a'
p811
aS'child'
p812
aS'who'
p813
aS'has'
p814
aS'cried'
p815
aS'itself'
p816
aS'to'
p817
aS'sleep'
p818
aS'continues'
p819
aS'to'
p820
aS'sob'
p821
aS'in'
p822
aS'its'
p823
aS'dreams'
p824
aS'.'
p825
asg51
(lp826
VShe
p827
aVsit
p828
aVwith
p829
aVher
p830
aVhead
p831
aVthrown
p832
aVback
p833
aVupon
p834
aVthe
p835
aVcushion
p836
aVof
p837
aVthe
p838
aVchair
p839
ag63
aVquite
p840
aVmotionless
p841
ag63
aVexcept
p842
aVwhen
p843
ag60
aVsob
p844
aVcome
p845
aVup
p846
aVinto
p847
aVher
p848
aVthroat
p849
aVand
p850
aVshook
p851
aVher
p852
ag63
ag60
ag60
aVchild
p853
aVwho
p854
aVhave
p855
aVcry
p856
aVitself
p857
aVto
p858
aVsleep
p859
aVcontinues
p860
aVto
p861
aVsob
p862
aVin
p863
aVit
p864
aVdream
p865
ag80
asg81
(lp866
g83
ag83
ag83
ag83
ag83
ag83
ag83
ag83
ag83
ag83
ag83
ag83
ag83
ag83
ag83
ag83
ag83
ag83
ag83
ag83
ag83
ag83
ag83
ag83
ag83
ag83
ag83
ag83
ag83
ag83
ag83
ag83
ag83
ag83
ag83
ag83
ag83
ag83
ag83
ag83
ag83
ag83
ag83
ag83
ag83
ag83
asg85
(lp867
g150
ag90
ag88
ag98
ag93
ag93
ag99
ag88
ag92
ag93
ag88
ag92
ag93
ag94
ag99
ag95
ag94
ag88
ag253
ag92
ag93
ag90
ag557
ag88
ag98
ag95
ag326
ag93
ag98
ag94
ag88
ag92
ag93
ag151
ag712
ag91
ag150
ag96
ag97
ag152
ag96
ag97
ag88
ag98
ag152
ag101
asg102
VShe sat with her head thrown back upon the cushion of the chair, quite motionless, except when a sob came up into her throat and shook her, as a child who has cried itself to sleep continues to sob in its dreams.
p868
sba(i__main__
Sentence
p869
(dp870
g17
I17
sg18
(lp871
S'She'
p872
aS'was'
p873
aS'young'
p874
aS','
p875
aS'with'
p876
aS'a'
p877
aS'fair'
p878
aS','
p879
aS'calm'
p880
aS'face'
p881
aS','
p882
aS'whose'
p883
aS'lines'
p884
aS'bespoke'
p885
aS'repression'
p886
aS'and'
p887
aS'even'
p888
aS'a'
p889
aS'certain'
p890
aS'strength'
p891
aS'.'
p892
asg51
(lp893
VShe
p894
ag57
aVyoung
p895
ag63
aVwith
p896
ag60
aVfair
p897
ag63
aVcalm
p898
aVface
p899
ag63
aVwhose
p900
aVline
p901
aVbespeak
p902
aVrepression
p903
aVand
p904
aVeven
p905
ag60
aVcertain
p906
aVstrength
p907
ag80
asg81
(lp908
g83
ag83
ag83
ag83
ag83
ag83
ag83
ag83
ag83
ag83
ag83
ag83
ag83
ag83
ag83
ag83
ag83
ag83
ag83
ag83
ag83
asg85
(lp909
g150
ag90
ag95
ag94
ag88
ag92
ag95
ag94
ag93
ag93
ag94
aS'WP$'
p910
ag152
ag378
ag93
ag326
ag99
ag92
ag95
ag93
ag101
asg102
VShe was young, with a fair, calm face, whose lines bespoke repression and even a certain strength.
p911
sba(i__main__
Sentence
p912
(dp913
g17
I18
sg18
(lp914
S'But'
p915
aS'now'
p916
aS'there'
p917
aS'was'
p918
aS'a'
p919
aS'dull'
p920
aS'stare'
p921
aS'in'
p922
aS'her'
p923
aS'eyes'
p924
aS','
p925
aS'whose'
p926
aS'gaze'
p927
aS'was'
p928
aS'fixed'
p929
aS'away'
p930
aS'off'
p931
aS'yonder'
p932
aS'on'
p933
aS'one'
p934
aS'of'
p935
aS'those'
p936
aS'patches'
p937
aS'of'
p938
aS'blue'
p939
aS'sky'
p940
aS'.'
p941
asg51
(lp942
VBut
p943
aVnow
p944
aVthere
p945
ag57
ag60
aVdull
p946
aVstare
p947
aVin
p948
aVher
p949
aVeye
p950
ag63
aVwhose
p951
aVgaze
p952
ag57
aVfix
p953
aVaway
p954
aVoff
p955
aVyonder
p956
aVon
p957
aVone
p958
aVof
p959
aVthose
p960
aVpatch
p961
aVof
p962
aVblue
p963
aVsky
p964
ag80
asg81
(lp965
g83
ag83
ag83
ag83
ag83
ag83
ag83
ag83
ag83
ag83
ag83
ag83
ag83
ag83
ag83
ag83
ag83
ag83
ag83
ag83
ag83
ag83
ag83
ag83
ag83
ag83
ag83
asg85
(lp966
g326
ag99
ag506
ag90
ag92
ag95
ag93
ag88
ag98
ag152
ag94
ag910
ag93
ag90
ag91
ag99
ag557
ag93
ag88
ag775
ag88
ag92
ag152
ag88
ag95
ag93
ag101
asg102
VBut now there was a dull stare in her eyes, whose gaze was fixed away off yonder on one of those patches of blue sky.
p967
sba(i__main__
Sentence
p968
(dp969
g17
I19
sg18
(lp970
S'It'
p971
aS'was'
p972
aS'not'
p973
aS'a'
p974
aS'glance'
p975
aS'of'
p976
aS'reflection'
p977
aS','
p978
aS'but'
p979
aS'rather'
p980
aS'indicated'
p981
aS'a'
p982
aS'suspension'
p983
aS'of'
p984
aS'intelligent'
p985
aS'thought'
p986
aS'.'
p987
asg51
(lp988
VIt
p989
ag57
aVnot
p990
ag60
aVglance
p991
aVof
p992
aVreflection
p993
ag63
aVbut
p994
aVrather
p995
aVindicate
p996
ag60
aVsuspension
p997
aVof
p998
aVintelligent
p999
aVthink
p1000
ag80
asg81
(lp1001
g83
ag83
ag83
ag83
ag83
ag83
ag83
ag83
ag83
ag83
ag83
ag83
ag83
ag83
ag83
ag83
ag83
asg85
(lp1002
g150
ag90
ag99
ag92
ag93
ag88
ag93
ag94
ag326
ag99
ag90
ag92
ag93
ag88
ag93
ag90
ag101
asg102
VIt was not a glance of reflection, but rather indicated a suspension of intelligent thought.
p1003
sba(i__main__
Sentence
p1004
(dp1005
g17
I20
sg18
(lp1006
S'There'
p1007
aS'was'
p1008
aS'something'
p1009
aS'coming'
p1010
aS'to'
p1011
aS'her'
p1012
aS'and'
p1013
aS'she'
p1014
aS'was'
p1015
aS'waiting'
p1016
aS'for'
p1017
aS'it'
p1018
aS','
p1019
aS'fearfully'
p1020
aS'.'
p1021
asg51
(lp1022
VThere
p1023
ag57
aVsomething
p1024
aVcome
p1025
aVto
p1026
aVher
p1027
aVand
p1028
aVshe
p1029
ag57
aVwait
p1030
aVfor
p1031
aVit
p1032
ag63
aVfearfully
p1033
ag80
asg81
(lp1034
g83
ag83
ag83
ag83
ag83
ag83
ag83
ag83
ag83
ag83
ag83
ag83
ag83
ag83
ag83
asg85
(lp1035
g506
ag90
ag93
ag87
ag96
ag98
ag326
ag150
ag90
ag87
ag88
ag150
ag94
ag99
ag101
asg102
VThere was something coming to her and she was waiting for it, fearfully.
p1036
sba(i__main__
Sentence
p1037
(dp1038
g17
I21
sg18
(lp1039
S'What'
p1040
aS'was'
p1041
aS'it'
p1042
aS'?'
p1043
asg51
(lp1044
VWhat
p1045
ag57
aVit
p1046
aV?
p1047
asg81
(lp1048
g83
ag83
ag83
ag83
asg85
(lp1049
g151
ag90
ag150
ag101
asg102
VWhat was it?
p1050
sba(i__main__
Sentence
p1051
(dp1052
g17
I22
sg18
(lp1053
S'She'
p1054
aS'did'
p1055
aS'not'
p1056
aS'know'
p1057
aS';'
p1058
aS'it'
p1059
aS'was'
p1060
aS'too'
p1061
aS'subtle'
p1062
aS'and'
p1063
aS'elusive'
p1064
aS'to'
p1065
aS'name'
p1066
aS'.'
p1067
asg51
(lp1068
VShe
p1069
ag358
aVnot
p1070
aVknow
p1071
ag139
aVit
p1072
ag57
aVtoo
p1073
aVsubtle
p1074
aVand
p1075
aVelusive
p1076
aVto
p1077
aVname
p1078
ag80
asg81
(lp1079
g83
ag83
ag83
ag83
ag83
ag83
ag83
ag83
ag83
ag83
ag83
ag83
ag83
ag83
asg85
(lp1080
g150
ag90
ag99
ag97
ag153
ag150
ag90
ag99
ag99
ag326
ag95
ag96
ag97
ag101
asg102
VShe did not know; it was too subtle and elusive to name.
p1081
sba(i__main__
Sentence
p1082
(dp1083
g17
I23
sg18
(lp1084
S'But'
p1085
aS'she'
p1086
aS'felt'
p1087
aS'it'
p1088
aS','
p1089
aS'creeping'
p1090
aS'out'
p1091
aS'of'
p1092
aS'the'
p1093
aS'sky'
p1094
aS','
p1095
aS'reaching'
p1096
aS'toward'
p1097
aS'her'
p1098
aS'through'
p1099
aS'the'
p1100
aS'sounds'
p1101
aS','
p1102
aS'the'
p1103
aS'scents'
p1104
aS','
p1105
aS'the'
p1106
aS'color'
p1107
aS'that'
p1108
aS'filled'
p1109
aS'the'
p1110
aS'air'
p1111
aS'.'
p1112
asg51
(lp1113
VBut
p1114
aVshe
p1115
aVfelt
p1116
aVit
p1117
ag63
aVcreep
p1118
aVout
p1119
aVof
p1120
aVthe
p1121
aVsky
p1122
ag63
aVreach
p1123
aVtoward
p1124
aVher
p1125
aVthrough
p1126
aVthe
p1127
aVsound
p1128
ag63
aVthe
p1129
aVscent
p1130
ag63
aVthe
p1131
aVcolor
p1132
aVthat
p1133
aVfill
p1134
aVthe
p1135
aVair
p1136
ag80
asg81
(lp1137
g83
ag83
ag83
ag83
ag83
ag83
ag83
ag83
ag83
ag83
ag83
ag83
ag83
ag83
ag83
ag83
ag83
ag83
ag83
ag83
ag83
ag83
ag83
ag83
ag83
ag83
ag83
ag83
asg85
(lp1138
g326
ag150
ag90
ag150
ag94
ag87
ag557
ag88
ag92
ag93
ag94
ag87
ag88
ag98
ag88
ag92
ag152
ag94
ag92
ag152
ag94
ag92
ag93
ag88
ag91
ag92
ag93
ag101
asg102
VBut she felt it, creeping out of the sky, reaching toward her through the sounds, the scents, the color that filled the air.
p1139
sba(i__main__
Sentence
p1140
(dp1141
g17
I24
sg18
(lp1142
S'Now'
p1143
aS'her'
p1144
aS'bosom'
p1145
aS'rose'
p1146
aS'and'
p1147
aS'fell'
p1148
aS'tumultuously'
p1149
aS'.'
p1150
asg51
(lp1151
VNow
p1152
aVher
p1153
aVbosom
p1154
aVrise
p1155
aVand
p1156
aVfell
p1157
aVtumultuously
p1158
ag80
asg81
(lp1159
g83
ag83
ag83
ag83
ag83
ag83
ag83
ag83
asg85
(lp1160
g99
ag98
ag93
ag90
ag326
ag90
ag99
ag101
asg102
VNow her bosom rose and fell tumultuously.
p1161
sba(i__main__
Sentence
p1162
(dp1163
g17
I25
sg18
(lp1164
S'She'
p1165
aS'was'
p1166
aS'beginning'
p1167
aS'to'
p1168
aS'recognize'
p1169
aS'this'
p1170
aS'thing'
p1171
aS'that'
p1172
aS'was'
p1173
aS'approaching'
p1174
aS'to'
p1175
aS'possess'
p1176
aS'her'
p1177
aS','
p1178
aS'and'
p1179
aS'she'
p1180
aS'was'
p1181
aS'striving'
p1182
aS'to'
p1183
aS'beat'
p1184
aS'it'
p1185
aS'back'
p1186
aS'with'
p1187
aS'her'
p1188
aS'will'
p1189
aS'--'
p1190
aS'as'
p1191
aS'powerless'
p1192
aS'as'
p1193
aS'her'
p1194
aS'two'
p1195
aS'white'
p1196
aS'slender'
p1197
aS'hands'
p1198
aS'would'
p1199
aS'have'
p1200
aS'been'
p1201
aS'.'
p1202
asg51
(lp1203
VShe
p1204
ag57
aVbegin
p1205
aVto
p1206
aVrecognize
p1207
aVthis
p1208
aVthing
p1209
aVthat
p1210
ag57
aVapproach
p1211
aVto
p1212
aVposse
p1213
aVher
p1214
ag63
aVand
p1215
aVshe
p1216
ag57
aVstrive
p1217
aVto
p1218
aVbeat
p1219
aVit
p1220
aVback
p1221
aVwith
p1222
aVher
p1223
aVwill
p1224
aV--
p1225
ag60
aVpowerless
p1226
ag60
aVher
p1227
aVtwo
p1228
aVwhite
p1229
aVslender
p1230
aVhand
p1231
aVwould
p1232
aVhave
p1233
ag225
ag80
asg81
(lp1234
g83
ag83
ag83
ag83
ag83
ag83
ag83
ag83
ag83
ag83
ag83
ag83
ag83
ag83
ag83
ag83
ag83
ag83
ag83
ag83
ag83
ag83
ag83
ag83
ag83
ag83
ag83
ag83
ag83
ag83
ag83
ag83
ag83
ag83
ag83
ag83
ag83
ag83
asg85
(lp1235
g150
ag90
ag87
ag96
ag97
ag92
ag93
ag558
ag90
ag87
ag96
ag93
ag98
ag94
ag326
ag150
ag90
ag87
ag96
ag97
ag150
ag99
ag88
ag98
ag475
ag153
ag88
ag93
ag88
ag98
ag775
ag95
ag93
ag152
ag475
ag97
ag91
ag101
asg102
VShe was beginning to recognize this thing that was approaching to possess her, and she was striving to beat it back with her will--as powerless as her two white slender hands would have been.
p1236
sba(i__main__
Sentence
p1237
(dp1238
g17
I26
sg18
(lp1239
S'When'
p1240
aS'she'
p1241
aS'abandoned'
p1242
aS'herself'
p1243
aS'a'
p1244
aS'little'
p1245
aS'whispered'
p1246
aS'word'
p1247
aS'escaped'
p1248
aS'her'
p1249
aS'slightly'
p1250
aS'parted'
p1251
aS'lips'
p1252
aS'.'
p1253
asg51
(lp1254
VWhen
p1255
aVshe
p1256
aVabandon
p1257
aVherself
p1258
ag60
aVlittle
p1259
aVwhisper
p1260
aVword
p1261
aVescape
p1262
aVher
p1263
aVslightly
p1264
aVpart
p1265
aVlip
p1266
ag80
asg81
(lp1267
g83
ag83
ag83
ag83
ag83
ag83
ag83
ag83
ag83
ag83
ag83
ag83
ag83
ag83
asg85
(lp1268
g253
ag150
ag90
ag150
ag92
ag99
ag91
ag93
ag90
ag150
ag99
ag91
ag152
ag101
asg102
VWhen she abandoned herself a little whispered word escaped her slightly parted lips.
p1269
sba(i__main__
Sentence
p1270
(dp1271
g17
I27
sg18
(lp1272
S'She'
p1273
aS'said'
p1274
aS'it'
p1275
aS'over'
p1276
aS'and'
p1277
aS'over'
p1278
aS'under'
p1279
aS'the'
p1280
aS'breath'
p1281
aS':'
p1282
aS'``'
p1283
aS'free'
p1284
aS','
p1285
aS'free'
p1286
aS','
p1287
aS'free'
p1288
aS'!'
p1289
aS"''"
p1290
asg51
(lp1291
VShe
p1292
aVsay
p1293
aVit
p1294
aVover
p1295
aVand
p1296
aVover
p1297
aVunder
p1298
aVthe
p1299
aVbreath
p1300
aV:
p1301
aV``
p1302
aVfree
p1303
ag63
aVfree
p1304
ag63
aVfree
p1305
aV!
p1306
aV''
p1307
asg81
(lp1308
g83
ag83
ag83
ag83
ag83
ag83
ag83
ag83
ag83
ag83
ag83
ag83
ag83
ag83
ag83
ag83
ag83
ag83
asg85
(lp1309
g150
ag90
ag150
ag88
ag326
ag88
ag88
ag92
ag93
ag153
ag254
ag95
ag94
ag95
ag94
ag95
ag101
ag255
asg102
VShe said it over and over under the breath: "free, free, free!"
p1310
sba(i__main__
Sentence
p1311
(dp1312
g17
I28
sg18
(lp1313
S'The'
p1314
aS'vacant'
p1315
aS'stare'
p1316
aS'and'
p1317
aS'the'
p1318
aS'look'
p1319
aS'of'
p1320
aS'terror'
p1321
aS'that'
p1322
aS'had'
p1323
aS'followed'
p1324
aS'it'
p1325
aS'went'
p1326
aS'from'
p1327
aS'her'
p1328
aS'eyes'
p1329
aS'.'
p1330
asg51
(lp1331
VThe
p1332
aVvacant
p1333
aVstare
p1334
aVand
p1335
aVthe
p1336
aVlook
p1337
aVof
p1338
aVterror
p1339
aVthat
p1340
ag224
aVfollow
p1341
aVit
p1342
ag445
aVfrom
p1343
aVher
p1344
aVeye
p1345
ag80
asg81
(lp1346
g83
ag83
ag83
ag83
ag83
ag83
ag83
ag83
ag83
ag83
ag83
ag83
ag83
ag83
ag83
ag83
ag83
asg85
(lp1347
g92
ag95
ag93
ag326
ag92
ag93
ag88
ag93
ag88
ag90
ag91
ag150
ag90
ag88
ag98
ag152
ag101
asg102
VThe vacant stare and the look of terror that had followed it went from her eyes.
p1348
sba(i__main__
Sentence
p1349
(dp1350
g17
I29
sg18
(lp1351
S'They'
p1352
aS'stayed'
p1353
aS'keen'
p1354
aS'and'
p1355
aS'bright'
p1356
aS'.'
p1357
asg51
(lp1358
VThey
p1359
aVstay
p1360
aVkeen
p1361
aVand
p1362
aVbright
p1363
ag80
asg81
(lp1364
g83
ag83
ag83
ag83
ag83
ag83
asg85
(lp1365
g150
ag90
ag91
ag326
ag95
ag101
asg102
VThey stayed keen and bright.
p1366
sba(i__main__
Sentence
p1367
(dp1368
g17
I30
sg18
(lp1369
S'Her'
p1370
aS'pulses'
p1371
aS'beat'
p1372
aS'fast'
p1373
aS','
p1374
aS'and'
p1375
aS'the'
p1376
aS'coursing'
p1377
aS'blood'
p1378
aS'warmed'
p1379
aS'and'
p1380
aS'relaxed'
p1381
aS'every'
p1382
aS'inch'
p1383
aS'of'
p1384
aS'her'
p1385
aS'body'
p1386
aS'.'
p1387
asg51
(lp1388
VHer
p1389
aVpulse
p1390
aVbeat
p1391
aVfast
p1392
ag63
aVand
p1393
aVthe
p1394
aVcoursing
p1395
aVblood
p1396
aVwarm
p1397
aVand
p1398
aVrelax
p1399
aVevery
p1400
aVinch
p1401
aVof
p1402
aVher
p1403
aVbody
p1404
ag80
asg81
(lp1405
g83
ag83
ag83
ag83
ag83
ag83
ag83
ag83
ag83
ag83
ag83
ag83
ag83
ag83
ag83
ag83
ag83
ag83
asg85
(lp1406
g98
ag152
ag97
ag95
ag94
ag326
ag92
ag93
ag93
ag90
ag326
ag91
ag92
ag93
ag88
ag98
ag93
ag101
asg102
VHer pulses beat fast, and the coursing blood warmed and relaxed every inch of her body.
p1407
sba(i__main__
Sentence
p1408
(dp1409
g17
I31
sg18
(lp1410
S'She'
p1411
aS'did'
p1412
aS'not'
p1413
aS'stop'
p1414
aS'to'
p1415
aS'ask'
p1416
aS'if'
p1417
aS'it'
p1418
aS'were'
p1419
aS'or'
p1420
aS'were'
p1421
aS'not'
p1422
aS'a'
p1423
aS'monstrous'
p1424
aS'joy'
p1425
aS'that'
p1426
aS'held'
p1427
aS'her'
p1428
aS'.'
p1429
asg51
(lp1430
VShe
p1431
ag358
aVnot
p1432
aVstop
p1433
aVto
p1434
aVask
p1435
aVif
p1436
aVit
p1437
ag603
aVor
p1438
ag603
aVnot
p1439
ag60
aVmonstrous
p1440
aVjoy
p1441
aVthat
p1442
aVhold
p1443
aVher
p1444
ag80
asg81
(lp1445
g83
ag83
ag83
ag83
ag83
ag83
ag83
ag83
ag83
ag83
ag83
ag83
ag83
ag83
ag83
ag83
ag83
ag83
ag83
asg85
(lp1446
g150
ag90
ag99
ag97
ag96
ag97
ag88
ag150
ag90
ag326
ag90
ag99
ag92
ag95
ag93
ag558
ag91
ag98
ag101
asg102
VShe did not stop to ask if it were or were not a monstrous joy that held her.
p1447
sba(i__main__
Sentence
p1448
(dp1449
g17
I32
sg18
(lp1450
S'A'
p1451
aS'clear'
p1452
aS'and'
p1453
aS'exalted'
p1454
aS'perception'
p1455
aS'enabled'
p1456
aS'her'
p1457
aS'to'
p1458
aS'dismiss'
p1459
aS'the'
p1460
aS'suggestion'
p1461
aS'as'
p1462
aS'trivial'
p1463
aS'.'
p1464
asg51
(lp1465
VA
p1466
aVclear
p1467
aVand
p1468
aVexalt
p1469
aVperception
p1470
aVenable
p1471
aVher
p1472
aVto
p1473
aVdismiss
p1474
aVthe
p1475
aVsuggestion
p1476
ag60
aVtrivial
p1477
ag80
asg81
(lp1478
g83
ag83
ag83
ag83
ag83
ag83
ag83
ag83
ag83
ag83
ag83
ag83
ag83
ag83
asg85
(lp1479
g92
ag95
ag326
ag90
ag93
ag91
ag98
ag96
ag93
ag92
ag93
ag88
ag95
ag101
asg102
VA clear and exalted perception enabled her to dismiss the suggestion as trivial.
p1480
sba(i__main__
Sentence
p1481
(dp1482
g17
I33
sg18
(lp1483
S'She'
p1484
aS'knew'
p1485
aS'that'
p1486
aS'she'
p1487
aS'would'
p1488
aS'weep'
p1489
aS'again'
p1490
aS'when'
p1491
aS'she'
p1492
aS'saw'
p1493
aS'the'
p1494
aS'kind'
p1495
aS','
p1496
aS'tender'
p1497
aS'hands'
p1498
aS'folded'
p1499
aS'in'
p1500
aS'death'
p1501
aS';'
p1502
aS'the'
p1503
aS'face'
p1504
aS'that'
p1505
aS'had'
p1506
aS'never'
p1507
aS'looked'
p1508
aS'save'
p1509
aS'with'
p1510
aS'love'
p1511
aS'upon'
p1512
aS'her'
p1513
aS','
p1514
aS'fixed'
p1515
aS'and'
p1516
aS'gray'
p1517
aS'and'
p1518
aS'dead'
p1519
aS'.'
p1520
asg51
(lp1521
VShe
p1522
aVknow
p1523
aVthat
p1524
aVshe
p1525
aVwould
p1526
aVweep
p1527
aVagain
p1528
aVwhen
p1529
aVshe
p1530
aVsaw
p1531
aVthe
p1532
aVkind
p1533
ag63
aVtender
p1534
aVhand
p1535
aVfold
p1536
aVin
p1537
aVdeath
p1538
ag139
aVthe
p1539
aVface
p1540
aVthat
p1541
ag224
aVnever
p1542
aVlook
p1543
aVsave
p1544
aVwith
p1545
aVlove
p1546
aVupon
p1547
aVher
p1548
ag63
aVfix
p1549
aVand
p1550
aVgray
p1551
aVand
p1552
aVdead
p1553
ag80
asg81
(lp1554
g83
ag83
ag83
ag83
ag83
ag83
ag83
ag83
ag83
ag83
ag83
ag83
ag83
ag83
ag83
ag83
ag83
ag83
ag83
ag83
ag83
ag83
ag83
ag83
ag83
ag83
ag83
ag83
ag83
ag83
ag83
ag83
ag83
ag83
ag83
ag83
ag83
asg85
(lp1555
g150
ag90
ag88
ag150
ag475
ag97
ag99
ag253
ag150
ag90
ag92
ag93
ag94
ag93
ag152
ag90
ag88
ag93
ag153
ag92
ag93
ag88
ag90
ag99
ag91
ag97
ag88
ag95
ag88
ag98
ag94
ag91
ag326
ag93
ag326
ag95
ag101
asg102
VShe knew that she would weep again when she saw the kind, tender hands folded in death; the face that had never looked save with love upon her, fixed and gray and dead.
p1556
sba(i__main__
Sentence
p1557
(dp1558
g17
I34
sg18
(lp1559
S'But'
p1560
aS'she'
p1561
aS'saw'
p1562
aS'beyond'
p1563
aS'that'
p1564
aS'bitter'
p1565
aS'moment'
p1566
aS'a'
p1567
aS'long'
p1568
aS'procession'
p1569
aS'of'
p1570
aS'years'
p1571
aS'to'
p1572
aS'come'
p1573
aS'that'
p1574
aS'would'
p1575
aS'belong'
p1576
aS'to'
p1577
aS'her'
p1578
aS'absolutely'
p1579
aS'.'
p1580
asg51
(lp1581
VBut
p1582
aVshe
p1583
aVsaw
p1584
aVbeyond
p1585
aVthat
p1586
aVbitter
p1587
aVmoment
p1588
ag60
aVlong
p1589
aVprocession
p1590
aVof
p1591
aVyear
p1592
aVto
p1593
aVcome
p1594
aVthat
p1595
aVwould
p1596
aVbelong
p1597
aVto
p1598
aVher
p1599
aVabsolutely
p1600
ag80
asg81
(lp1601
g83
ag83
ag83
ag83
ag83
ag83
ag83
ag83
ag83
ag83
ag83
ag83
ag83
ag83
ag83
ag83
ag83
ag83
ag83
ag83
ag83
asg85
(lp1602
g326
ag150
ag90
ag88
ag92
ag95
ag93
ag92
ag95
ag93
ag88
ag152
ag96
ag97
ag88
ag475
ag97
ag96
ag98
ag99
ag101
asg102
VBut she saw beyond that bitter moment a long procession of years to come that would belong to her absolutely.
p1603
sba(i__main__
Sentence
p1604
(dp1605
g17
I35
sg18
(lp1606
S'And'
p1607
aS'she'
p1608
aS'opened'
p1609
aS'and'
p1610
aS'spread'
p1611
aS'her'
p1612
aS'arms'
p1613
aS'out'
p1614
aS'to'
p1615
aS'them'
p1616
aS'in'
p1617
aS'welcome'
p1618
aS'.'
p1619
asg51
(lp1620
VAnd
p1621
aVshe
p1622
aVopen
p1623
aVand
p1624
aVspread
p1625
aVher
p1626
aVarm
p1627
aVout
p1628
aVto
p1629
aVthem
p1630
aVin
p1631
aVwelcome
p1632
ag80
asg81
(lp1633
g83
ag83
ag83
ag83
ag83
ag83
ag83
ag83
ag83
ag83
ag83
ag83
ag83
asg85
(lp1634
g326
ag150
ag90
ag326
ag93
ag98
ag152
ag88
ag96
ag150
ag88
ag93
ag101
asg102
VAnd she opened and spread her arms out to them in welcome.
p1635
sba(i__main__
Sentence
p1636
(dp1637
g17
I36
sg18
(lp1638
S'There'
p1639
aS'would'
p1640
aS'be'
p1641
aS'no'
p1642
aS'one'
p1643
aS'to'
p1644
aS'live'
p1645
aS'for'
p1646
aS'during'
p1647
aS'those'
p1648
aS'coming'
p1649
aS'years'
p1650
aS';'
p1651
aS'she'
p1652
aS'would'
p1653
aS'live'
p1654
aS'for'
p1655
aS'herself'
p1656
aS'.'
p1657
asg51
(lp1658
VThere
p1659
aVwould
p1660
aVbe
p1661
aVno
p1662
aVone
p1663
aVto
p1664
aVlive
p1665
aVfor
p1666
aVduring
p1667
aVthose
p1668
aVcome
p1669
aVyear
p1670
ag139
aVshe
p1671
aVwould
p1672
aVlive
p1673
aVfor
p1674
aVherself
p1675
ag80
asg81
(lp1676
g83
ag83
ag83
ag83
ag83
ag83
ag83
ag83
ag83
ag83
ag83
ag83
ag83
ag83
ag83
ag83
ag83
ag83
ag83
asg85
(lp1677
g506
ag475
ag97
ag99
ag775
ag96
ag97
ag88
ag88
ag92
ag87
ag152
ag153
ag150
ag475
ag97
ag88
ag150
ag101
asg102
VThere would be no one to live for during those coming years; she would live for herself.
p1678
sba(i__main__
Sentence
p1679
(dp1680
g17
I37
sg18
(lp1681
S'There'
p1682
aS'would'
p1683
aS'be'
p1684
aS'no'
p1685
aS'powerful'
p1686
aS'will'
p1687
aS'bending'
p1688
aS'hers'
p1689
aS'in'
p1690
aS'that'
p1691
aS'blind'
p1692
aS'persistence'
p1693
aS'with'
p1694
aS'which'
p1695
aS'men'
p1696
aS'and'
p1697
aS'women'
p1698
aS'believe'
p1699
aS'they'
p1700
aS'have'
p1701
aS'a'
p1702
aS'right'
p1703
aS'to'
p1704
aS'impose'
p1705
aS'a'
p1706
aS'private'
p1707
aS'will'
p1708
aS'upon'
p1709
aS'a'
p1710
aS'fellow-creature'
p1711
aS'.'
p1712
asg51
(lp1713
VThere
p1714
aVwould
p1715
aVbe
p1716
aVno
p1717
aVpowerful
p1718
aVwill
p1719
aVbend
p1720
aVhers
p1721
aVin
p1722
aVthat
p1723
aVblind
p1724
aVpersistence
p1725
aVwith
p1726
aVwhich
p1727
aVmen
p1728
aVand
p1729
aVwoman
p1730
aVbelieve
p1731
aVthey
p1732
aVhave
p1733
ag60
aVright
p1734
aVto
p1735
aVimpose
p1736
ag60
aVprivate
p1737
aVwill
p1738
aVupon
p1739
ag60
aVfellow-creature
p1740
ag80
asg81
(lp1741
g83
ag83
ag83
ag83
ag83
ag83
ag83
ag83
ag83
ag83
ag83
ag83
ag83
ag83
ag83
ag83
ag83
ag83
ag83
ag83
ag83
ag83
ag83
ag83
ag83
ag83
ag83
ag83
ag83
ag83
ag83
asg85
(lp1742
g506
ag475
ag97
ag99
ag95
ag475
ag97
ag152
ag88
ag92
ag95
ag93
ag88
ag558
ag152
ag326
ag152
ag378
ag150
ag378
ag92
ag93
ag96
ag97
ag92
ag95
ag475
ag97
ag92
ag95
ag101
asg102
VThere would be no powerful will bending hers in that blind persistence with which men and women believe they have a right to impose a private will upon a fellow-creature.
p1743
sba(i__main__
Sentence
p1744
(dp1745
g17
I38
sg18
(lp1746
S'A'
p1747
aS'kind'
p1748
aS'intention'
p1749
aS'or'
p1750
aS'a'
p1751
aS'cruel'
p1752
aS'intention'
p1753
aS'made'
p1754
aS'the'
p1755
aS'act'
p1756
aS'seem'
p1757
aS'no'
p1758
aS'less'
p1759
aS'a'
p1760
aS'crime'
p1761
aS'as'
p1762
aS'she'
p1763
aS'looked'
p1764
aS'upon'
p1765
aS'it'
p1766
aS'in'
p1767
aS'that'
p1768
aS'brief'
p1769
aS'moment'
p1770
aS'of'
p1771
aS'illumination'
p1772
aS'.'
p1773
asg51
(lp1774
g1466
aVkind
p1775
aVintention
p1776
aVor
p1777
ag60
aVcruel
p1778
aVintention
p1779
aVmake
p1780
aVthe
p1781
aVact
p1782
aVseem
p1783
aVno
p1784
aVless
p1785
ag60
aVcrime
p1786
ag60
aVshe
p1787
aVlook
p1788
aVupon
p1789
aVit
p1790
aVin
p1791
aVthat
p1792
aVbrief
p1793
aVmoment
p1794
aVof
p1795
aVillumination
p1796
ag80
asg81
(lp1797
g83
ag83
ag83
ag83
ag83
ag83
ag83
ag83
ag83
ag83
ag83
ag83
ag83
ag83
ag83
ag83
ag83
ag83
ag83
ag83
ag83
ag83
ag83
ag83
ag83
ag83
ag83
asg85
(lp1798
g92
ag93
ag93
ag326
ag92
ag93
ag93
ag90
ag92
ag93
ag378
ag92
ag328
ag92
ag93
ag88
ag150
ag90
ag88
ag150
ag88
ag92
ag95
ag93
ag88
ag93
ag101
asg102
VA kind intention or a cruel intention made the act seem no less a crime as she looked upon it in that brief moment of illumination.
p1799
sba(i__main__
Sentence
p1800
(dp1801
g17
I39
sg18
(lp1802
S'And'
p1803
aS'yet'
p1804
aS'she'
p1805
aS'had'
p1806
aS'loved'
p1807
aS'him'
p1808
aS'--'
p1809
aS'sometimes'
p1810
aS'.'
p1811
asg51
(lp1812
VAnd
p1813
aVyet
p1814
aVshe
p1815
ag224
aVlove
p1816
aVhim
p1817
aV--
p1818
aVsometimes
p1819
ag80
asg81
(lp1820
g83
ag83
ag83
ag83
ag83
ag83
ag83
ag83
ag83
asg85
(lp1821
g326
ag99
ag150
ag90
ag91
ag150
ag153
ag99
ag101
asg102
VAnd yet she had loved him--sometimes.
p1822
sba(i__main__
Sentence
p1823
(dp1824
g17
I40
sg18
(lp1825
S'Often'
p1826
aS'she'
p1827
aS'had'
p1828
aS'not'
p1829
aS'.'
p1830
asg51
(lp1831
VOften
p1832
aVshe
p1833
ag224
aVnot
p1834
ag80
asg81
(lp1835
g83
ag83
ag83
ag83
ag83
asg85
(lp1836
g99
ag150
ag90
ag99
ag101
asg102
VOften she had not.
p1837
sba(i__main__
Sentence
p1838
(dp1839
g17
I41
sg18
(lp1840
S'What'
p1841
aS'did'
p1842
aS'it'
p1843
aS'matter'
p1844
aS'!'
p1845
asg51
(lp1846
VWhat
p1847
ag358
aVit
p1848
aVmatter
p1849
ag1306
asg81
(lp1850
g83
ag83
ag83
ag83
ag83
asg85
(lp1851
g151
ag90
ag150
ag327
ag101
asg102
VWhat did it matter!
p1852
sba(i__main__
Sentence
p1853
(dp1854
g17
I42
sg18
(lp1855
S'What'
p1856
aS'could'
p1857
aS'love'
p1858
aS','
p1859
aS'the'
p1860
aS'unsolved'
p1861
aS'mystery'
p1862
aS','
p1863
aS'count'
p1864
aS'for'
p1865
aS'in'
p1866
aS'the'
p1867
aS'face'
p1868
aS'of'
p1869
aS'this'
p1870
aS'possession'
p1871
aS'of'
p1872
aS'self-assertion'
p1873
aS'which'
p1874
aS'she'
p1875
aS'suddenly'
p1876
aS'recognized'
p1877
aS'as'
p1878
aS'the'
p1879
aS'strongest'
p1880
aS'impulse'
p1881
aS'of'
p1882
aS'her'
p1883
aS'being'
p1884
aS'!'
p1885
asg51
(lp1886
VWhat
p1887
aVcould
p1888
aVlove
p1889
ag63
aVthe
p1890
aVunsolved
p1891
aVmystery
p1892
ag63
aVcount
p1893
aVfor
p1894
aVin
p1895
aVthe
p1896
aVface
p1897
aVof
p1898
aVthis
p1899
aVpossession
p1900
aVof
p1901
aVself-assertion
p1902
aVwhich
p1903
aVshe
p1904
aVsuddenly
p1905
aVrecognize
p1906
ag60
aVthe
p1907
aVstrong
p1908
aVimpulse
p1909
aVof
p1910
aVher
p1911
aVbeing
p1912
ag1306
asg81
(lp1913
g83
ag83
ag83
ag83
ag83
ag83
ag83
ag83
ag83
ag83
ag83
ag83
ag83
ag83
ag83
ag83
ag83
ag83
ag83
ag83
ag83
ag83
ag83
ag83
ag83
ag83
ag83
ag83
ag83
ag83
asg85
(lp1914
g151
ag475
ag97
ag94
ag92
ag91
ag93
ag94
ag93
ag88
ag88
ag92
ag93
ag88
ag92
ag93
ag88
ag93
ag558
ag150
ag99
ag90
ag88
ag92
aS'JJS'
p1915
ag93
ag88
ag98
ag93
ag101
asg102
VWhat could love, the unsolved mystery, count for in the face of this possession of self-assertion which she suddenly recognized as the strongest impulse of her being!
p1916
sba(i__main__
Sentence
p1917
(dp1918
g17
I43
sg18
(lp1919
S'``'
p1920
aS'Free'
p1921
aS'!'
p1922
asg51
(lp1923
V``
p1924
aVFree
p1925
ag1306
asg81
(lp1926
g83
ag83
ag83
asg85
(lp1927
g254
ag89
ag101
asg102
V"Free!
p1928
sba(i__main__
Sentence
p1929
(dp1930
g17
I44
sg18
(lp1931
S'Body'
p1932
aS'and'
p1933
aS'soul'
p1934
aS'free'
p1935
aS'!'
p1936
aS"''"
p1937
asg51
(lp1938
VBody
p1939
aVand
p1940
aVsoul
p1941
aVfree
p1942
ag1306
aV''
p1943
asg81
(lp1944
g83
ag83
ag83
ag83
ag83
ag83
asg85
(lp1945
g89
ag326
ag95
ag95
ag101
ag255
asg102
VBody and soul free!"
p1946
sba(i__main__
Sentence
p1947
(dp1948
g17
I45
sg18
(lp1949
S'she'
p1950
aS'kept'
p1951
aS'whispering'
p1952
aS'.'
p1953
asg51
(lp1954
Vshe
p1955
aVkeep
p1956
aVwhisper
p1957
ag80
asg81
(lp1958
g83
ag83
ag83
ag83
asg85
(lp1959
g150
ag90
ag87
ag101
asg102
Vshe kept whispering.
p1960
sba(i__main__
Sentence
p1961
(dp1962
g17
I46
sg18
(lp1963
S'Josephine'
p1964
aS'was'
p1965
aS'kneeling'
p1966
aS'before'
p1967
aS'the'
p1968
aS'closed'
p1969
aS'door'
p1970
aS'with'
p1971
aS'her'
p1972
aS'lips'
p1973
aS'to'
p1974
aS'the'
p1975
aS'keyhole'
p1976
aS','
p1977
aS'imploring'
p1978
aS'for'
p1979
aS'admission'
p1980
aS'.'
p1981
asg51
(lp1982
VJosephine
p1983
ag57
aVkneel
p1984
aVbefore
p1985
aVthe
p1986
aVclose
p1987
aVdoor
p1988
aVwith
p1989
aVher
p1990
aVlip
p1991
aVto
p1992
aVthe
p1993
aVkeyhole
p1994
ag63
aVimplore
p1995
aVfor
p1996
aVadmission
p1997
ag80
asg81
(lp1998
VPERSON
p1999
ag83
ag83
ag83
ag83
ag83
ag83
ag83
ag83
ag83
ag83
ag83
ag83
ag83
ag83
ag83
ag83
ag83
asg85
(lp2000
g89
ag90
ag87
ag88
ag92
ag91
ag93
ag88
ag98
ag152
ag96
ag92
ag93
ag94
ag87
ag88
ag93
ag101
asg102
VJosephine was kneeling before the closed door with her lips to the keyhole, imploring for admission.
p2001
sba(i__main__
Sentence
p2002
(dp2003
g17
I47
sg18
(lp2004
S'``'
p2005
aS'Louise'
p2006
aS','
p2007
aS'open'
p2008
aS'the'
p2009
aS'door'
p2010
aS'!'
p2011
asg51
(lp2012
V``
p2013
aVLouise
p2014
ag63
aVopen
p2015
aVthe
p2016
aVdoor
p2017
ag1306
asg81
(lp2018
g83
aVPERSON
p2019
ag83
ag83
ag83
ag83
ag83
asg85
(lp2020
g254
ag89
ag94
ag95
ag92
ag93
ag101
asg102
V"Louise, open the door!
p2021
sba(i__main__
Sentence
p2022
(dp2023
g17
I48
sg18
(lp2024
S'I'
p2025
aS'beg'
p2026
aS';'
p2027
aS'open'
p2028
aS'the'
p2029
aS'door'
p2030
aS'--'
p2031
aS'you'
p2032
aS'will'
p2033
aS'make'
p2034
aS'yourself'
p2035
aS'ill.'
p2036
aS'What'
p2037
aS'are'
p2038
aS'you'
p2039
aS'doing'
p2040
aS','
p2041
aS'Louise'
p2042
aS'?'
p2043
asg51
(lp2044
VI
p2045
aVbeg
p2046
ag139
aVopen
p2047
aVthe
p2048
aVdoor
p2049
aV--
p2050
aVyou
p2051
aVwill
p2052
aVmake
p2053
aVyourself
p2054
aVill.
p2055
aVWhat
p2056
aVbe
p2057
aVyou
p2058
aVdo
p2059
ag63
aVLouise
p2060
ag1047
asg81
(lp2061
g83
ag83
ag83
ag83
ag83
ag83
ag83
ag83
ag83
ag83
ag83
ag83
ag83
ag83
ag83
ag83
ag83
aVPERSON
p2062
ag83
asg85
(lp2063
g150
ag378
ag153
ag95
ag92
ag93
ag153
ag150
ag475
ag97
ag150
ag89
ag89
ag378
ag150
ag87
ag94
ag89
ag101
asg102
VI beg; open the door--you will make yourself ill. What are you doing, Louise?
p2064
sba(i__main__
Sentence
p2065
(dp2066
g17
I49
sg18
(lp2067
S'For'
p2068
aS'heaven'
p2069
aS"'s"
p2070
aS'sake'
p2071
aS'open'
p2072
aS'the'
p2073
aS'door'
p2074
aS'.'
p2075
aS"''"
p2076
asg51
(lp2077
VFor
p2078
aVheaven
p2079
aV's
p2080
aVsake
p2081
aVopen
p2082
aVthe
p2083
aVdoor
p2084
ag80
aV''
p2085
asg81
(lp2086
g83
ag83
ag83
ag83
ag83
ag83
ag83
ag83
ag83
asg85
(lp2087
g88
ag91
ag100
ag93
ag95
ag92
ag93
ag101
ag255
asg102
VFor heaven's sake open the door."
p2088
sba(i__main__
Sentence
p2089
(dp2090
g17
I50
sg18
(lp2091
S'``'
p2092
aS'Go'
p2093
aS'away'
p2094
aS'.'
p2095
asg51
(lp2096
V``
p2097
aVGo
p2098
aVaway
p2099
ag80
asg81
(lp2100
g83
ag83
ag83
ag83
asg85
(lp2101
g254
ag89
ag99
ag101
asg102
V"Go away.
p2102
sba(i__main__
Sentence
p2103
(dp2104
g17
I51
sg18
(lp2105
S'I'
p2106
aS'am'
p2107
aS'not'
p2108
aS'making'
p2109
aS'myself'
p2110
aS'ill.'
p2111
aS"''"
p2112
aS'No'
p2113
aS';'
p2114
aS'she'
p2115
aS'was'
p2116
aS'drinking'
p2117
aS'in'
p2118
aS'a'
p2119
aS'very'
p2120
aS'elixir'
p2121
aS'of'
p2122
aS'life'
p2123
aS'through'
p2124
aS'that'
p2125
aS'open'
p2126
aS'window'
p2127
aS'.'
p2128
asg51
(lp2129
g2045
aVbe
p2130
aVnot
p2131
aVmake
p2132
aVmyself
p2133
aVill.
p2134
aV''
p2135
aVNo
p2136
ag139
aVshe
p2137
ag57
aVdrink
p2138
aVin
p2139
ag60
aVvery
p2140
aVelixir
p2141
aVof
p2142
aVlife
p2143
aVthrough
p2144
aVthat
p2145
aVopen
p2146
aVwindow
p2147
ag80
asg81
(lp2148
g83
ag83
ag83
ag83
ag83
ag83
ag83
ag83
ag83
ag83
ag83
ag83
ag83
ag83
ag83
ag83
ag83
ag83
ag83
ag83
ag83
ag83
ag83
asg85
(lp2149
g150
ag378
ag99
ag87
ag150
ag89
ag255
ag89
ag153
ag150
ag90
ag87
ag88
ag92
ag99
ag95
ag88
ag93
ag88
ag92
ag95
ag93
ag101
asg102
VI am not making myself ill." No; she was drinking in a very elixir of life through that open window.
p2150
sba(i__main__
Sentence
p2151
(dp2152
g17
I52
sg18
(lp2153
S'Her'
p2154
aS'fancy'
p2155
aS'was'
p2156
aS'running'
p2157
aS'riot'
p2158
aS'along'
p2159
aS'those'
p2160
aS'days'
p2161
aS'ahead'
p2162
aS'of'
p2163
aS'her'
p2164
aS'.'
p2165
asg51
(lp2166
VHer
p2167
aVfancy
p2168
ag57
aVrun
p2169
aVriot
p2170
aValong
p2171
aVthose
p2172
aVday
p2173
aVahead
p2174
aVof
p2175
aVher
p2176
ag80
asg81
(lp2177
g83
ag83
ag83
ag83
ag83
ag83
ag83
ag83
ag83
ag83
ag83
ag83
asg85
(lp2178
g98
ag93
ag90
ag87
ag93
ag88
ag92
ag152
ag99
ag88
ag98
ag101
asg102
VHer fancy was running riot along those days ahead of her.
p2179
sba(i__main__
Sentence
p2180
(dp2181
g17
I53
sg18
(lp2182
S'Spring'
p2183
aS'days'
p2184
aS','
p2185
aS'and'
p2186
aS'summer'
p2187
aS'days'
p2188
aS','
p2189
aS'and'
p2190
aS'all'
p2191
aS'sorts'
p2192
aS'of'
p2193
aS'days'
p2194
aS'that'
p2195
aS'would'
p2196
aS'be'
p2197
aS'her'
p2198
aS'own'
p2199
aS'.'
p2200
asg51
(lp2201
VSpring
p2202
aVday
p2203
ag63
aVand
p2204
aVsummer
p2205
aVday
p2206
ag63
aVand
p2207
aVall
p2208
aVsort
p2209
aVof
p2210
aVday
p2211
aVthat
p2212
aVwould
p2213
aVbe
p2214
aVher
p2215
aVown
p2216
ag80
asg81
(lp2217
g83
ag83
ag83
ag83
ag83
ag83
ag83
ag83
ag83
ag83
ag83
ag83
ag83
ag83
ag83
ag83
ag83
ag83
asg85
(lp2218
g87
ag152
ag94
ag326
ag93
ag152
ag94
ag326
ag92
ag152
ag88
ag152
ag558
ag475
ag97
ag150
ag97
ag101
asg102
VSpring days, and summer days, and all sorts of days that would be her own.
p2219
sba(i__main__
Sentence
p2220
(dp2221
g17
I54
sg18
(lp2222
S'She'
p2223
aS'breathed'
p2224
aS'a'
p2225
aS'quick'
p2226
aS'prayer'
p2227
aS'that'
p2228
aS'life'
p2229
aS'might'
p2230
aS'be'
p2231
aS'long'
p2232
aS'.'
p2233
asg51
(lp2234
VShe
p2235
aVbreathe
p2236
ag60
aVquick
p2237
aVprayer
p2238
aVthat
p2239
aVlife
p2240
aVmight
p2241
aVbe
p2242
aVlong
p2243
ag80
asg81
(lp2244
g83
ag83
ag83
ag83
ag83
ag83
ag83
ag83
ag83
ag83
ag83
asg85
(lp2245
g150
ag90
ag92
ag93
ag93
ag558
ag93
ag475
ag97
ag99
ag101
asg102
VShe breathed a quick prayer that life might be long.
p2246
sba(i__main__
Sentence
p2247
(dp2248
g17
I55
sg18
(lp2249
S'It'
p2250
aS'was'
p2251
aS'only'
p2252
aS'yesterday'
p2253
aS'she'
p2254
aS'had'
p2255
aS'thought'
p2256
aS'with'
p2257
aS'a'
p2258
aS'shudder'
p2259
aS'that'
p2260
aS'life'
p2261
aS'might'
p2262
aS'be'
p2263
aS'long'
p2264
aS'.'
p2265
asg51
(lp2266
VIt
p2267
ag57
aVonly
p2268
aVyesterday
p2269
aVshe
p2270
ag224
ag1000
aVwith
p2271
ag60
aVshudder
p2272
aVthat
p2273
aVlife
p2274
aVmight
p2275
aVbe
p2276
aVlong
p2277
ag80
asg81
(lp2278
g83
ag83
ag83
ag83
ag83
ag83
ag83
ag83
ag83
ag83
ag83
ag83
ag83
ag83
ag83
ag83
asg85
(lp2279
g150
ag90
ag99
ag93
ag150
ag90
ag91
ag88
ag92
ag93
ag558
ag93
ag475
ag97
ag99
ag101
asg102
VIt was only yesterday she had thought with a shudder that life might be long.
p2280
sba(i__main__
Sentence
p2281
(dp2282
g17
I56
sg18
(lp2283
S'She'
p2284
aS'arose'
p2285
aS'at'
p2286
aS'length'
p2287
aS'and'
p2288
aS'opened'
p2289
aS'the'
p2290
aS'door'
p2291
aS'to'
p2292
aS'her'
p2293
aS'sister'
p2294
aS"'s"
p2295
aS'importunities'
p2296
aS'.'
p2297
asg51
(lp2298
VShe
p2299
aVarise
p2300
aVat
p2301
aVlength
p2302
aVand
p2303
aVopen
p2304
aVthe
p2305
aVdoor
p2306
aVto
p2307
aVher
p2308
aVsister
p2309
aV's
p2310
aVimportunity
p2311
ag80
asg81
(lp2312
g83
ag83
ag83
ag83
ag83
ag83
ag83
ag83
ag83
ag83
ag83
ag83
ag83
ag83
asg85
(lp2313
g150
ag90
ag88
ag93
ag326
ag90
ag92
ag93
ag96
ag98
ag93
ag100
ag152
ag101
asg102
VShe arose at length and opened the door to her sister's importunities.
p2314
sba(i__main__
Sentence
p2315
(dp2316
g17
I57
sg18
(lp2317
S'There'
p2318
aS'was'
p2319
aS'a'
p2320
aS'feverish'
p2321
aS'triumph'
p2322
aS'in'
p2323
aS'her'
p2324
aS'eyes'
p2325
aS','
p2326
aS'and'
p2327
aS'she'
p2328
aS'carried'
p2329
aS'herself'
p2330
aS'unwittingly'
p2331
aS'like'
p2332
aS'a'
p2333
aS'goddess'
p2334
aS'of'
p2335
aS'Victory'
p2336
aS'.'
p2337
asg51
(lp2338
VThere
p2339
ag57
ag60
aVfeverish
p2340
aVtriumph
p2341
aVin
p2342
aVher
p2343
aVeye
p2344
ag63
aVand
p2345
aVshe
p2346
aVcarry
p2347
aVherself
p2348
aVunwittingly
p2349
aVlike
p2350
ag60
aVgoddess
p2351
aVof
p2352
aVVictory
p2353
ag80
asg81
(lp2354
g83
ag83
ag83
ag83
ag83
ag83
ag83
ag83
ag83
ag83
ag83
ag83
ag83
ag83
ag83
ag83
ag83
ag83
ag83
ag83
asg85
(lp2355
g506
ag90
ag92
ag95
ag93
ag88
ag98
ag152
ag94
ag326
ag150
ag90
ag150
ag99
ag88
ag92
ag93
ag88
ag89
ag101
asg102
VThere was a feverish triumph in her eyes, and she carried herself unwittingly like a goddess of Victory.
p2356
sba(i__main__
Sentence
p2357
(dp2358
g17
I58
sg18
(lp2359
S'She'
p2360
aS'clasped'
p2361
aS'her'
p2362
aS'sister'
p2363
aS"'s"
p2364
aS'waist'
p2365
aS','
p2366
aS'and'
p2367
aS'together'
p2368
aS'they'
p2369
aS'descended'
p2370
aS'the'
p2371
aS'stairs'
p2372
aS'.'
p2373
asg51
(lp2374
VShe
p2375
aVclasp
p2376
aVher
p2377
aVsister
p2378
aV's
p2379
aVwaist
p2380
ag63
aVand
p2381
aVtogether
p2382
aVthey
p2383
aVdescend
p2384
aVthe
p2385
aVstair
p2386
ag80
asg81
(lp2387
g83
ag83
ag83
ag83
ag83
ag83
ag83
ag83
ag83
ag83
ag83
ag83
ag83
ag83
asg85
(lp2388
g150
ag90
ag98
ag93
ag100
ag93
ag94
ag326
ag99
ag150
ag90
ag92
ag152
ag101
asg102
VShe clasped her sister's waist, and together they descended the stairs.
p2389
sba(i__main__
Sentence
p2390
(dp2391
g17
I59
sg18
(lp2392
S'Richards'
p2393
aS'stood'
p2394
aS'waiting'
p2395
aS'for'
p2396
aS'them'
p2397
aS'at'
p2398
aS'the'
p2399
aS'bottom'
p2400
aS'.'
p2401
asg51
(lp2402
VRichards
p2403
ag496
aVwait
p2404
aVfor
p2405
aVthem
p2406
aVat
p2407
aVthe
p2408
aVbottom
p2409
ag80
asg81
(lp2410
VPERSON
p2411
ag83
ag83
ag83
ag83
ag83
ag83
ag83
ag83
asg85
(lp2412
g152
ag90
ag87
ag88
ag150
ag88
ag92
ag93
ag101
asg102
VRichards stood waiting for them at the bottom.
p2413
sba(i__main__
Sentence
p2414
(dp2415
g17
I60
sg18
(lp2416
S'Someone'
p2417
aS'was'
p2418
aS'opening'
p2419
aS'the'
p2420
aS'front'
p2421
aS'door'
p2422
aS'with'
p2423
aS'a'
p2424
aS'latchkey'
p2425
aS'.'
p2426
asg51
(lp2427
VSomeone
p2428
ag57
aVopen
p2429
aVthe
p2430
aVfront
p2431
aVdoor
p2432
aVwith
p2433
ag60
aVlatchkey
p2434
ag80
asg81
(lp2435
g83
ag83
ag83
ag83
ag83
ag83
ag83
ag83
ag83
ag83
asg85
(lp2436
g93
ag90
ag87
ag92
ag93
ag93
ag88
ag92
ag93
ag101
asg102
VSomeone was opening the front door with a latchkey.
p2437
sba(i__main__
Sentence
p2438
(dp2439
g17
I61
sg18
(lp2440
S'It'
p2441
aS'was'
p2442
aS'Brently'
p2443
aS'Mallard'
p2444
aS'who'
p2445
aS'entered'
p2446
aS','
p2447
aS'a'
p2448
aS'little'
p2449
aS'travel-stained'
p2450
aS','
p2451
aS'composedly'
p2452
aS'carrying'
p2453
aS'his'
p2454
aS'grip-sack'
p2455
aS'and'
p2456
aS'umbrella'
p2457
aS'.'
p2458
asg51
(lp2459
VIt
p2460
ag57
aVBrently
p2461
aVMallard
p2462
aVwho
p2463
aVenter
p2464
ag63
ag60
aVlittle
p2465
aVtravel-stained
p2466
ag63
aVcomposedly
p2467
aVcarry
p2468
aVhis
p2469
aVgrip-sack
p2470
aVand
p2471
aVumbrella
p2472
ag80
asg81
(lp2473
g83
ag83
aVPERSON
p2474
aVPERSON
p2475
ag83
ag83
ag83
ag83
ag83
ag83
ag83
ag83
ag83
ag83
ag83
ag83
ag83
ag83
asg85
(lp2476
g150
ag90
ag99
ag89
ag151
ag90
ag94
ag92
ag99
ag95
ag94
ag99
ag87
ag98
ag95
ag326
ag93
ag101
asg102
VIt was Brently Mallard who entered, a little travel-stained, composedly carrying his grip-sack and umbrella.
p2477
sba(i__main__
Sentence
p2478
(dp2479
g17
I62
sg18
(lp2480
S'He'
p2481
aS'had'
p2482
aS'been'
p2483
aS'far'
p2484
aS'from'
p2485
aS'the'
p2486
aS'scene'
p2487
aS'of'
p2488
aS'the'
p2489
aS'accident'
p2490
aS','
p2491
aS'and'
p2492
aS'did'
p2493
aS'not'
p2494
aS'even'
p2495
aS'know'
p2496
aS'there'
p2497
aS'had'
p2498
aS'been'
p2499
aS'one'
p2500
aS'.'
p2501
asg51
(lp2502
VHe
p2503
ag224
ag225
aVfar
p2504
aVfrom
p2505
aVthe
p2506
aVscene
p2507
aVof
p2508
aVthe
p2509
aVaccident
p2510
ag63
aVand
p2511
ag358
aVnot
p2512
aVeven
p2513
aVknow
p2514
aVthere
p2515
ag224
ag225
aVone
p2516
ag80
asg81
(lp2517
g83
ag83
ag83
ag83
ag83
ag83
ag83
ag83
ag83
ag83
ag83
ag83
ag83
ag83
ag83
ag83
ag83
ag83
ag83
ag83
ag83
asg85
(lp2518
g150
ag90
ag91
ag99
ag88
ag92
ag93
ag88
ag92
ag93
ag94
ag326
ag90
ag99
ag99
ag97
ag506
ag90
ag91
ag775
ag101
asg102
VHe had been far from the scene of the accident, and did not even know there had been one.
p2519
sba(i__main__
Sentence
p2520
(dp2521
g17
I63
sg18
(lp2522
S'He'
p2523
aS'stood'
p2524
aS'amazed'
p2525
aS'at'
p2526
aS'Josephine'
p2527
aS"'s"
p2528
aS'piercing'
p2529
aS'cry'
p2530
aS';'
p2531
aS'at'
p2532
aS'Richards'
p2533
aS"'"
p2534
aS'quick'
p2535
aS'motion'
p2536
aS'to'
p2537
aS'screen'
p2538
aS'him'
p2539
aS'from'
p2540
aS'the'
p2541
aS'view'
p2542
aS'of'
p2543
aS'his'
p2544
aS'wife'
p2545
aS'.'
p2546
asg51
(lp2547
VHe
p2548
ag496
aVamaze
p2549
aVat
p2550
aVJosephine
p2551
aV's
p2552
aVpiercing
p2553
aVcry
p2554
ag139
aVat
p2555
aVRichards
p2556
aV'
p2557
aVquick
p2558
aVmotion
p2559
aVto
p2560
aVscreen
p2561
aVhim
p2562
aVfrom
p2563
aVthe
p2564
aVview
p2565
aVof
p2566
aVhis
p2567
aVwife
p2568
ag80
asg81
(lp2569
g83
ag83
ag83
ag83
aVPERSON
p2570
ag83
ag83
ag83
ag83
ag83
aVPERSON
p2571
ag83
ag83
ag83
ag83
ag83
ag83
ag83
ag83
ag83
ag83
ag83
ag83
ag83
asg85
(lp2572
g150
ag90
ag91
ag88
ag89
ag100
ag93
ag93
ag153
ag88
aS'NNPS'
p2573
ag100
ag93
ag93
ag96
ag97
ag150
ag88
ag92
ag93
ag88
ag98
ag93
ag101
asg102
VHe stood amazed at Josephine's piercing cry; at Richards' quick motion to screen him from the view of his wife.
p2574
sba(i__main__
Sentence
p2575
(dp2576
g17
I64
sg18
(lp2577
S'When'
p2578
aS'the'
p2579
aS'doctors'
p2580
aS'came'
p2581
aS'they'
p2582
aS'said'
p2583
aS'she'
p2584
aS'had'
p2585
aS'died'
p2586
aS'of'
p2587
aS'heart'
p2588
aS'disease'
p2589
aS'--'
p2590
aS'of'
p2591
aS'the'
p2592
aS'joy'
p2593
aS'that'
p2594
aS'kills'
p2595
aS'.'
p2596
asg51
(lp2597
VWhen
p2598
aVthe
p2599
aVdoctor
p2600
ag845
aVthey
p2601
ag1293
aVshe
p2602
ag224
aVdie
p2603
aVof
p2604
aVheart
p2605
aVdisease
p2606
aV--
p2607
aVof
p2608
aVthe
p2609
aVjoy
p2610
aVthat
p2611
aVkill
p2612
ag80
asg81
(lp2613
g83
ag83
ag83
ag83
ag83
ag83
ag83
ag83
ag83
ag83
ag83
ag83
ag83
ag83
ag83
ag83
ag83
ag83
ag83
asg85
(lp2614
g253
ag92
ag152
ag90
ag150
ag90
ag150
ag90
ag91
ag88
ag93
ag93
ag153
ag88
ag92
ag93
ag88
ag152
ag101
asg102
VWhen the doctors came they said she had died of heart disease--of the joy that kills.
p2615
sbasbsS'summary'
p2616
g0
(g7
g2
Ntp2617
Rp2618
(dp2619
g11
S'Louise Mallard has heart trouble, so she must be informed carefully about her husbands death. Her sister, Josephine, tells her the news. Louises husbands friend, Richards, learned about a railroad disaster when he was in the newspaper office and saw Louises husband, Brently, on the list of those killed. Louise begins sobbing when Josephine tells her of Brentlys death and goes upstairs to be alone in her room.\n\n\n\nLouise sits down and looks out an open window. She sees trees, smells approaching rain, and hears a peddler yelling out what hes selling. She hears someone singing as well as the sounds of sparrows, and there are fluffy white clouds in the sky. She is young, with lines around her eyes. Still crying, she gazes into the distance. She feels apprehensive and tries to suppress the building emotions within her, but cant. She begins repeating the word Free! to herself over and over again. Her heart beats quickly, and she feels very warm.\n\n\n\nLouise knows shell cry again when she sees Brentlys corpse. His hands were tender, and he always looked at her lovingly. But then she imagines the years ahead, which belong only to her now, and spreads her arms out joyfully with anticipation. She will be free, on her own without anyone to oppress her. She thinks that all women and men oppress one another even if they do it out of kindness. Louise knows that she often felt love for Brently but tells herself that none of that matters anymore. She feels ecstatic with her newfound sense of independence.\n\n\n\nJosephine comes to her door, begging Louise to come out, warning her that shell get sick if she doesnt. Louise tells her to go away. She fantasizes about all the days and years ahead and hopes that she lives a long life. Then she opens the door, and she and Josephine start walking down the stairs, where Richards is waiting.\n\n\n\nThe front door unexpectedly opens, and Brently comes in. He hadnt been in the train accident or even aware that one had happened. Josephine screams, and Richards tries unsuccessfully to block Louise from seeing him. Doctors arrive and pronounce that Louise died of a heart attack brought on by happiness.'
p2620
sg13
(lp2621
(i__main__
Sentence
p2622
(dp2623
g17
I0
sg18
(lp2624
S'Louise'
p2625
aS'Mallard'
p2626
aS'has'
p2627
aS'heart'
p2628
aS'trouble'
p2629
aS','
p2630
aS'so'
p2631
aS'she'
p2632
aS'must'
p2633
aS'be'
p2634
aS'informed'
p2635
aS'carefully'
p2636
aS'about'
p2637
aS'her'
p2638
aS'husbands'
p2639
aS'death'
p2640
aS'.'
p2641
asg51
(lp2642
VLouise
p2643
aVMallard
p2644
ag855
aVheart
p2645
aVtrouble
p2646
ag63
aVso
p2647
aVshe
p2648
aVmust
p2649
aVbe
p2650
aVinform
p2651
aVcarefully
p2652
aVabout
p2653
aVher
p2654
aVhusband
p2655
aVdeath
p2656
ag80
asg81
(lp2657
VPERSON
p2658
aVPERSON
p2659
ag83
ag83
ag83
ag83
ag83
ag83
ag83
ag83
ag83
ag83
ag83
ag83
ag83
ag83
ag83
asg85
(lp2660
g89
ag89
ag712
ag93
ag93
ag94
ag99
ag150
ag475
ag97
ag91
ag99
ag88
ag98
ag152
ag93
ag101
asg102
VLouise Mallard has heart trouble, so she must be informed carefully about her husbands death.
p2661
sba(i__main__
Sentence
p2662
(dp2663
g17
I1
sg18
(lp2664
S'Her'
p2665
aS'sister'
p2666
aS','
p2667
aS'Josephine'
p2668
aS','
p2669
aS'tells'
p2670
aS'her'
p2671
aS'the'
p2672
aS'news'
p2673
aS'.'
p2674
asg51
(lp2675
VHer
p2676
aVsister
p2677
ag63
aVJosephine
p2678
ag63
aVtell
p2679
aVher
p2680
aVthe
p2681
aVnews
p2682
ag80
asg81
(lp2683
g83
ag83
ag83
aVPERSON
p2684
ag83
ag83
ag83
ag83
ag83
ag83
asg85
(lp2685
g98
ag93
ag94
ag89
ag94
ag712
ag98
ag92
ag93
ag101
asg102
VHer sister, Josephine, tells her the news.
p2686
sba(i__main__
Sentence
p2687
(dp2688
g17
I2
sg18
(lp2689
S'Louises'
p2690
aS'husbands'
p2691
aS'friend'
p2692
aS','
p2693
aS'Richards'
p2694
aS','
p2695
aS'learned'
p2696
aS'about'
p2697
aS'a'
p2698
aS'railroad'
p2699
aS'disaster'
p2700
aS'when'
p2701
aS'he'
p2702
aS'was'
p2703
aS'in'
p2704
aS'the'
p2705
aS'newspaper'
p2706
aS'office'
p2707
aS'and'
p2708
aS'saw'
p2709
aS'Louises'
p2710
aS'husband'
p2711
aS','
p2712
aS'Brently'
p2713
aS','
p2714
aS'on'
p2715
aS'the'
p2716
aS'list'
p2717
aS'of'
p2718
aS'those'
p2719
aS'killed'
p2720
aS'.'
p2721
asg51
(lp2722
VLouises
p2723
aVhusband
p2724
aVfriend
p2725
ag63
aVRichards
p2726
ag63
aVlearn
p2727
aVabout
p2728
ag60
aVrailroad
p2729
aVdisaster
p2730
aVwhen
p2731
aVhe
p2732
ag57
aVin
p2733
aVthe
p2734
aVnewspaper
p2735
aVoffice
p2736
aVand
p2737
aVsaw
p2738
aVLouises
p2739
aVhusband
p2740
ag63
aVBrently
p2741
ag63
aVon
p2742
aVthe
p2743
aVlist
p2744
aVof
p2745
aVthose
p2746
aVkill
p2747
ag80
asg81
(lp2748
VPERSON
p2749
ag83
ag83
ag83
aVPERSON
p2750
ag83
ag83
ag83
ag83
ag83
ag83
ag83
ag83
ag83
ag83
ag83
ag83
ag83
ag83
ag83
aVPERSON
p2751
ag83
ag83
ag83
ag83
ag83
ag83
ag83
ag83
ag83
ag83
ag83
asg85
(lp2752
g152
ag152
ag378
ag94
ag89
ag94
ag90
ag99
ag92
ag93
ag93
ag253
ag150
ag90
ag88
ag92
ag93
ag93
ag326
ag90
ag152
ag378
ag94
ag89
ag94
ag88
ag92
ag93
ag88
ag92
ag91
ag101
asg102
VLouises husbands friend, Richards, learned about a railroad disaster when he was in the newspaper office and saw Louises husband, Brently, on the list of those killed.
p2753
sba(i__main__
Sentence
p2754
(dp2755
g17
I3
sg18
(lp2756
S'Louise'
p2757
aS'begins'
p2758
aS'sobbing'
p2759
aS'when'
p2760
aS'Josephine'
p2761
aS'tells'
p2762
aS'her'
p2763
aS'of'
p2764
aS'Brentlys'
p2765
aS'death'
p2766
aS'and'
p2767
aS'goes'
p2768
aS'upstairs'
p2769
aS'to'
p2770
aS'be'
p2771
aS'alone'
p2772
aS'in'
p2773
aS'her'
p2774
aS'room'
p2775
aS'.'
p2776
asg51
(lp2777
VLouise
p2778
aVbegin
p2779
aVsob
p2780
aVwhen
p2781
aVJosephine
p2782
aVtell
p2783
aVher
p2784
aVof
p2785
aVBrentlys
p2786
aVdeath
p2787
aVand
p2788
aVgo
p2789
aVupstairs
p2790
aVto
p2791
aVbe
p2792
aValone
p2793
aVin
p2794
aVher
p2795
aVroom
p2796
ag80
asg81
(lp2797
VPERSON
p2798
ag83
ag83
ag83
aVPERSON
p2799
ag83
ag83
ag83
aVLOCATION
p2800
ag83
ag83
ag83
ag83
ag83
ag83
ag83
ag83
ag83
ag83
ag83
asg85
(lp2801
g89
ag712
ag87
ag253
ag89
ag712
ag150
ag88
ag89
ag93
ag326
ag712
ag152
ag96
ag97
ag99
ag88
ag98
ag93
ag101
asg102
VLouise begins sobbing when Josephine tells her of Brentlys death and goes upstairs to be alone in her room.
p2802
sba(i__main__
Sentence
p2803
(dp2804
g17
I4
sg18
(lp2805
S'Louise'
p2806
aS'sits'
p2807
aS'down'
p2808
aS'and'
p2809
aS'looks'
p2810
aS'out'
p2811
aS'an'
p2812
aS'open'
p2813
aS'window'
p2814
aS'.'
p2815
asg51
(lp2816
VLouise
p2817
aVsit
p2818
aVdown
p2819
aVand
p2820
aVlook
p2821
aVout
p2822
aVan
p2823
aVopen
p2824
aVwindow
p2825
ag80
asg81
(lp2826
VPERSON
p2827
ag83
ag83
ag83
ag83
ag83
ag83
ag83
ag83
ag83
asg85
(lp2828
g89
ag712
ag99
ag326
ag152
ag88
ag92
ag95
ag93
ag101
asg102
VLouise sits down and looks out an open window.
p2829
sba(i__main__
Sentence
p2830
(dp2831
g17
I5
sg18
(lp2832
S'She'
p2833
aS'sees'
p2834
aS'trees'
p2835
aS','
p2836
aS'smells'
p2837
aS'approaching'
p2838
aS'rain'
p2839
aS','
p2840
aS'and'
p2841
aS'hears'
p2842
aS'a'
p2843
aS'peddler'
p2844
aS'yelling'
p2845
aS'out'
p2846
aS'what'
p2847
aS'hes'
p2848
aS'selling'
p2849
aS'.'
p2850
asg51
(lp2851
VShe
p2852
aVsee
p2853
aVtree
p2854
ag63
aVsmell
p2855
aVapproach
p2856
aVrain
p2857
ag63
aVand
p2858
aVhears
p2859
ag60
aVpeddler
p2860
aVyell
p2861
aVout
p2862
aVwhat
p2863
aVhe
p2864
aVsell
p2865
ag80
asg81
(lp2866
g83
ag83
ag83
ag83
ag83
ag83
ag83
ag83
ag83
ag83
ag83
ag83
ag83
ag83
ag83
ag83
ag83
ag83
asg85
(lp2867
g150
ag712
ag152
ag94
ag152
ag87
ag93
ag94
ag326
ag152
ag92
ag93
ag87
ag557
ag151
ag152
ag87
ag101
asg102
VShe sees trees, smells approaching rain, and hears a peddler yelling out what hes selling.
p2868
sba(i__main__
Sentence
p2869
(dp2870
g17
I6
sg18
(lp2871
S'She'
p2872
aS'hears'
p2873
aS'someone'
p2874
aS'singing'
p2875
aS'as'
p2876
aS'well'
p2877
aS'as'
p2878
aS'the'
p2879
aS'sounds'
p2880
aS'of'
p2881
aS'sparrows'
p2882
aS','
p2883
aS'and'
p2884
aS'there'
p2885
aS'are'
p2886
aS'fluffy'
p2887
aS'white'
p2888
aS'clouds'
p2889
aS'in'
p2890
aS'the'
p2891
aS'sky'
p2892
aS'.'
p2893
asg51
(lp2894
VShe
p2895
aVhear
p2896
aVsomeone
p2897
ag699
ag60
aVwell
p2898
ag60
aVthe
p2899
aVsound
p2900
aVof
p2901
aVsparrow
p2902
ag63
aVand
p2903
aVthere
p2904
ag2057
aVfluffy
p2905
aVwhite
p2906
aVcloud
p2907
aVin
p2908
aVthe
p2909
aVsky
p2910
ag80
asg81
(lp2911
g83
ag83
ag83
ag83
ag83
ag83
ag83
ag83
ag83
ag83
ag83
ag83
ag83
ag83
ag83
ag83
ag83
ag83
ag83
ag83
ag83
ag83
asg85
(lp2912
g150
ag712
ag93
ag87
ag88
ag99
ag88
ag92
ag152
ag88
ag152
ag94
ag326
ag506
ag378
ag95
ag95
ag152
ag88
ag92
ag93
ag101
asg102
VShe hears someone singing as well as the sounds of sparrows, and there are fluffy white clouds in the sky.
p2913
sba(i__main__
Sentence
p2914
(dp2915
g17
I7
sg18
(lp2916
S'She'
p2917
aS'is'
p2918
aS'young'
p2919
aS','
p2920
aS'with'
p2921
aS'lines'
p2922
aS'around'
p2923
aS'her'
p2924
aS'eyes'
p2925
aS'.'
p2926
asg51
(lp2927
VShe
p2928
aVbe
p2929
aVyoung
p2930
ag63
aVwith
p2931
aVline
p2932
aVaround
p2933
aVher
p2934
aVeye
p2935
ag80
asg81
(lp2936
g83
ag83
ag83
ag83
ag83
ag83
ag83
ag83
ag83
ag83
asg85
(lp2937
g150
ag712
ag95
ag94
ag88
ag152
ag88
ag98
ag152
ag101
asg102
VShe is young, with lines around her eyes.
p2938
sba(i__main__
Sentence
p2939
(dp2940
g17
I8
sg18
(lp2941
S'Still'
p2942
aS'crying'
p2943
aS','
p2944
aS'she'
p2945
aS'gazes'
p2946
aS'into'
p2947
aS'the'
p2948
aS'distance'
p2949
aS'.'
p2950
asg51
(lp2951
VStill
p2952
aVcry
p2953
ag63
aVshe
p2954
aVgaze
p2955
aVinto
p2956
aVthe
p2957
aVdistance
p2958
ag80
asg81
(lp2959
g83
ag83
ag83
ag83
ag83
ag83
ag83
ag83
ag83
asg85
(lp2960
g99
ag87
ag94
ag150
ag712
ag88
ag92
ag93
ag101
asg102
VStill crying, she gazes into the distance.
p2961
sba(i__main__
Sentence
p2962
(dp2963
g17
I9
sg18
(lp2964
S'She'
p2965
aS'feels'
p2966
aS'apprehensive'
p2967
aS'and'
p2968
aS'tries'
p2969
aS'to'
p2970
aS'suppress'
p2971
aS'the'
p2972
aS'building'
p2973
aS'emotions'
p2974
aS'within'
p2975
aS'her'
p2976
aS','
p2977
aS'but'
p2978
aS'cant'
p2979
aS'.'
p2980
asg51
(lp2981
VShe
p2982
aVfeel
p2983
aVapprehensive
p2984
aVand
p2985
aVtry
p2986
aVto
p2987
aVsuppress
p2988
aVthe
p2989
aVbuilding
p2990
aVemotion
p2991
aVwithin
p2992
aVher
p2993
ag63
aVbut
p2994
aVcant
p2995
ag80
asg81
(lp2996
g83
ag83
ag83
ag83
ag83
ag83
ag83
ag83
ag83
ag83
ag83
ag83
ag83
ag83
ag83
ag83
asg85
(lp2997
g150
ag712
ag95
ag326
ag152
ag96
ag93
ag92
ag93
ag152
ag88
ag98
ag94
ag326
ag95
ag101
asg102
VShe feels apprehensive and tries to suppress the building emotions within her, but cant.
p2998
sba(i__main__
Sentence
p2999
(dp3000
g17
I10
sg18
(lp3001
S'She'
p3002
aS'begins'
p3003
aS'repeating'
p3004
aS'the'
p3005
aS'word'
p3006
aS'Free'
p3007
aS'!'
p3008
asg51
(lp3009
VShe
p3010
aVbegin
p3011
aVrepeat
p3012
aVthe
p3013
aVword
p3014
aVFree
p3015
ag1306
asg81
(lp3016
g83
ag83
ag83
ag83
ag83
ag83
ag83
asg85
(lp3017
g150
ag712
ag87
ag92
ag93
ag89
ag101
asg102
VShe begins repeating the word Free!
p3018
sba(i__main__
Sentence
p3019
(dp3020
g17
I11
sg18
(lp3021
S'to'
p3022
aS'herself'
p3023
aS'over'
p3024
aS'and'
p3025
aS'over'
p3026
aS'again'
p3027
aS'.'
p3028
asg51
(lp3029
Vto
p3030
aVherself
p3031
aVover
p3032
aVand
p3033
aVover
p3034
aVagain
p3035
ag80
asg81
(lp3036
g83
ag83
ag83
ag83
ag83
ag83
ag83
asg85
(lp3037
g96
ag150
ag88
ag326
ag88
ag99
ag101
asg102
Vto herself over and over again.
p3038
sba(i__main__
Sentence
p3039
(dp3040
g17
I12
sg18
(lp3041
S'Her'
p3042
aS'heart'
p3043
aS'beats'
p3044
aS'quickly'
p3045
aS','
p3046
aS'and'
p3047
aS'she'
p3048
aS'feels'
p3049
aS'very'
p3050
aS'warm'
p3051
aS'.'
p3052
asg51
(lp3053
VHer
p3054
aVheart
p3055
aVbeat
p3056
aVquickly
p3057
ag63
aVand
p3058
aVshe
p3059
aVfeel
p3060
aVvery
p3061
aVwarm
p3062
ag80
asg81
(lp3063
g83
ag83
ag83
ag83
ag83
ag83
ag83
ag83
ag83
ag83
ag83
asg85
(lp3064
g98
ag93
ag152
ag99
ag94
ag326
ag150
ag712
ag99
ag93
ag101
asg102
VHer heart beats quickly, and she feels very warm.
p3065
sba(i__main__
Sentence
p3066
(dp3067
g17
I13
sg18
(lp3068
S'Louise'
p3069
aS'knows'
p3070
aS'shell'
p3071
aS'cry'
p3072
aS'again'
p3073
aS'when'
p3074
aS'she'
p3075
aS'sees'
p3076
aS'Brentlys'
p3077
aS'corpse'
p3078
aS'.'
p3079
asg51
(lp3080
VLouise
p3081
aVknow
p3082
aVshell
p3083
aVcry
p3084
aVagain
p3085
aVwhen
p3086
aVshe
p3087
aVsee
p3088
aVBrentlys
p3089
aVcorpse
p3090
ag80
asg81
(lp3091
VPERSON
p3092
ag83
ag83
ag83
ag83
ag83
ag83
ag83
ag83
ag83
ag83
asg85
(lp3093
g89
ag712
ag93
ag93
ag99
ag253
ag150
ag712
ag89
ag93
ag101
asg102
VLouise knows shell cry again when she sees Brentlys corpse.
p3094
sba(i__main__
Sentence
p3095
(dp3096
g17
I14
sg18
(lp3097
S'His'
p3098
aS'hands'
p3099
aS'were'
p3100
aS'tender'
p3101
aS','
p3102
aS'and'
p3103
aS'he'
p3104
aS'always'
p3105
aS'looked'
p3106
aS'at'
p3107
aS'her'
p3108
aS'lovingly'
p3109
aS'.'
p3110
asg51
(lp3111
VHis
p3112
aVhand
p3113
ag603
aVtender
p3114
ag63
aVand
p3115
aVhe
p3116
aValways
p3117
aVlook
p3118
aVat
p3119
aVher
p3120
aVlovingly
p3121
ag80
asg81
(lp3122
g83
ag83
ag83
ag83
ag83
ag83
ag83
ag83
ag83
ag83
ag83
ag83
ag83
asg85
(lp3123
g98
ag152
ag90
ag93
ag94
ag326
ag150
ag99
ag90
ag88
ag98
ag99
ag101
asg102
VHis hands were tender, and he always looked at her lovingly.
p3124
sba(i__main__
Sentence
p3125
(dp3126
g17
I15
sg18
(lp3127
S'But'
p3128
aS'then'
p3129
aS'she'
p3130
aS'imagines'
p3131
aS'the'
p3132
aS'years'
p3133
aS'ahead'
p3134
aS','
p3135
aS'which'
p3136
aS'belong'
p3137
aS'only'
p3138
aS'to'
p3139
aS'her'
p3140
aS'now'
p3141
aS','
p3142
aS'and'
p3143
aS'spreads'
p3144
aS'her'
p3145
aS'arms'
p3146
aS'out'
p3147
aS'joyfully'
p3148
aS'with'
p3149
aS'anticipation'
p3150
aS'.'
p3151
asg51
(lp3152
VBut
p3153
aVthen
p3154
aVshe
p3155
aVimagine
p3156
aVthe
p3157
aVyear
p3158
aVahead
p3159
ag63
aVwhich
p3160
aVbelong
p3161
aVonly
p3162
aVto
p3163
aVher
p3164
aVnow
p3165
ag63
aVand
p3166
aVspread
p3167
aVher
p3168
aVarm
p3169
aVout
p3170
aVjoyfully
p3171
aVwith
p3172
aVanticipation
p3173
ag80
asg81
(lp3174
g83
ag83
ag83
ag83
ag83
ag83
ag83
ag83
ag83
ag83
ag83
ag83
ag83
ag83
ag83
ag83
ag83
ag83
ag83
ag83
ag83
ag83
ag83
ag83
asg85
(lp3175
g326
ag99
ag150
ag712
ag92
ag152
ag99
ag94
ag558
ag95
ag99
ag96
ag98
ag99
ag94
ag326
ag152
ag98
ag152
ag88
ag99
ag88
ag93
ag101
asg102
VBut then she imagines the years ahead, which belong only to her now, and spreads her arms out joyfully with anticipation.
p3176
sba(i__main__
Sentence
p3177
(dp3178
g17
I16
sg18
(lp3179
S'She'
p3180
aS'will'
p3181
aS'be'
p3182
aS'free'
p3183
aS','
p3184
aS'on'
p3185
aS'her'
p3186
aS'own'
p3187
aS'without'
p3188
aS'anyone'
p3189
aS'to'
p3190
aS'oppress'
p3191
aS'her'
p3192
aS'.'
p3193
asg51
(lp3194
VShe
p3195
aVwill
p3196
aVbe
p3197
aVfree
p3198
ag63
aVon
p3199
aVher
p3200
aVown
p3201
aVwithout
p3202
aVanyone
p3203
aVto
p3204
aVoppress
p3205
aVher
p3206
ag80
asg81
(lp3207
g83
ag83
ag83
ag83
ag83
ag83
ag83
ag83
ag83
ag83
ag83
ag83
ag83
ag83
asg85
(lp3208
g150
ag475
ag97
ag95
ag94
ag88
ag98
ag95
ag88
ag93
ag96
ag93
ag98
ag101
asg102
VShe will be free, on her own without anyone to oppress her.
p3209
sba(i__main__
Sentence
p3210
(dp3211
g17
I17
sg18
(lp3212
S'She'
p3213
aS'thinks'
p3214
aS'that'
p3215
aS'all'
p3216
aS'women'
p3217
aS'and'
p3218
aS'men'
p3219
aS'oppress'
p3220
aS'one'
p3221
aS'another'
p3222
aS'even'
p3223
aS'if'
p3224
aS'they'
p3225
aS'do'
p3226
aS'it'
p3227
aS'out'
p3228
aS'of'
p3229
aS'kindness'
p3230
aS'.'
p3231
asg51
(lp3232
VShe
p3233
aVthink
p3234
aVthat
p3235
aVall
p3236
aVwoman
p3237
aVand
p3238
aVmen
p3239
aVoppress
p3240
aVone
p3241
aVanother
p3242
aVeven
p3243
aVif
p3244
aVthey
p3245
aVdo
p3246
aVit
p3247
aVout
p3248
aVof
p3249
aVkindness
p3250
ag80
asg81
(lp3251
g83
ag83
ag83
ag83
ag83
ag83
ag83
ag83
ag83
ag83
ag83
ag83
ag83
ag83
ag83
ag83
ag83
ag83
ag83
asg85
(lp3252
g150
ag712
ag88
ag92
ag152
ag326
ag152
ag93
ag775
ag92
ag99
ag88
ag150
ag378
ag150
ag557
ag88
ag93
ag101
asg102
VShe thinks that all women and men oppress one another even if they do it out of kindness.
p3253
sba(i__main__
Sentence
p3254
(dp3255
g17
I18
sg18
(lp3256
S'Louise'
p3257
aS'knows'
p3258
aS'that'
p3259
aS'she'
p3260
aS'often'
p3261
aS'felt'
p3262
aS'love'
p3263
aS'for'
p3264
aS'Brently'
p3265
aS'but'
p3266
aS'tells'
p3267
aS'herself'
p3268
aS'that'
p3269
aS'none'
p3270
aS'of'
p3271
aS'that'
p3272
aS'matters'
p3273
aS'anymore'
p3274
aS'.'
p3275
asg51
(lp3276
VLouise
p3277
aVknow
p3278
aVthat
p3279
aVshe
p3280
aVoften
p3281
aVfelt
p3282
aVlove
p3283
aVfor
p3284
aVBrently
p3285
aVbut
p3286
aVtell
p3287
aVherself
p3288
aVthat
p3289
aVnone
p3290
aVof
p3291
aVthat
p3292
aVmatter
p3293
aVanymore
p3294
ag80
asg81
(lp3295
VPERSON
p3296
ag83
ag83
ag83
ag83
ag83
ag83
ag83
aVPERSON
p3297
ag83
ag83
ag83
ag83
ag83
ag83
ag83
ag83
ag83
ag83
asg85
(lp3298
g89
ag712
ag88
ag150
ag99
ag90
ag88
ag88
ag89
ag326
ag712
ag150
ag88
ag93
ag88
ag92
ag152
ag378
ag101
asg102
VLouise knows that she often felt love for Brently but tells herself that none of that matters anymore.
p3299
sba(i__main__
Sentence
p3300
(dp3301
g17
I19
sg18
(lp3302
S'She'
p3303
aS'feels'
p3304
aS'ecstatic'
p3305
aS'with'
p3306
aS'her'
p3307
aS'newfound'
p3308
aS'sense'
p3309
aS'of'
p3310
aS'independence'
p3311
aS'.'
p3312
asg51
(lp3313
VShe
p3314
aVfeel
p3315
aVecstatic
p3316
aVwith
p3317
aVher
p3318
aVnewfound
p3319
aVsense
p3320
aVof
p3321
aVindependence
p3322
ag80
asg81
(lp3323
g83
ag83
ag83
ag83
ag83
ag83
ag83
ag83
ag83
ag83
asg85
(lp3324
g150
ag712
ag95
ag88
ag98
ag93
ag93
ag88
ag93
ag101
asg102
VShe feels ecstatic with her newfound sense of independence.
p3325
sba(i__main__
Sentence
p3326
(dp3327
g17
I20
sg18
(lp3328
S'Josephine'
p3329
aS'comes'
p3330
aS'to'
p3331
aS'her'
p3332
aS'door'
p3333
aS','
p3334
aS'begging'
p3335
aS'Louise'
p3336
aS'to'
p3337
aS'come'
p3338
aS'out'
p3339
aS','
p3340
aS'warning'
p3341
aS'her'
p3342
aS'that'
p3343
aS'shell'
p3344
aS'get'
p3345
aS'sick'
p3346
aS'if'
p3347
aS'she'
p3348
aS'doesnt'
p3349
aS'.'
p3350
asg51
(lp3351
VJosephine
p3352
aVcome
p3353
aVto
p3354
aVher
p3355
aVdoor
p3356
ag63
aVbeg
p3357
aVLouise
p3358
aVto
p3359
aVcome
p3360
aVout
p3361
ag63
aVwarn
p3362
aVher
p3363
aVthat
p3364
aVshell
p3365
aVget
p3366
aVsick
p3367
aVif
p3368
aVshe
p3369
aVdoesnt
p3370
ag80
asg81
(lp3371
VPERSON
p3372
ag83
ag83
ag83
ag83
ag83
ag83
aVPERSON
p3373
ag83
ag83
ag83
ag83
ag83
ag83
ag83
ag83
ag83
ag83
ag83
ag83
ag83
ag83
asg85
(lp3374
g89
ag712
ag96
ag98
ag93
ag94
ag87
ag89
ag96
ag97
ag557
ag94
ag87
ag150
ag88
ag93
ag93
ag93
ag88
ag150
ag378
ag101
asg102
VJosephine comes to her door, begging Louise to come out, warning her that shell get sick if she doesnt.
p3375
sba(i__main__
Sentence
p3376
(dp3377
g17
I21
sg18
(lp3378
S'Louise'
p3379
aS'tells'
p3380
aS'her'
p3381
aS'to'
p3382
aS'go'
p3383
aS'away'
p3384
aS'.'
p3385
asg51
(lp3386
VLouise
p3387
aVtell
p3388
aVher
p3389
aVto
p3390
aVgo
p3391
aVaway
p3392
ag80
asg81
(lp3393
VPERSON
p3394
ag83
ag83
ag83
ag83
ag83
ag83
asg85
(lp3395
g89
ag712
ag150
ag96
ag97
ag99
ag101
asg102
VLouise tells her to go away.
p3396
sba(i__main__
Sentence
p3397
(dp3398
g17
I22
sg18
(lp3399
S'She'
p3400
aS'fantasizes'
p3401
aS'about'
p3402
aS'all'
p3403
aS'the'
p3404
aS'days'
p3405
aS'and'
p3406
aS'years'
p3407
aS'ahead'
p3408
aS'and'
p3409
aS'hopes'
p3410
aS'that'
p3411
aS'she'
p3412
aS'lives'
p3413
aS'a'
p3414
aS'long'
p3415
aS'life'
p3416
aS'.'
p3417
asg51
(lp3418
VShe
p3419
aVfantasize
p3420
aVabout
p3421
aVall
p3422
aVthe
p3423
aVday
p3424
aVand
p3425
aVyear
p3426
aVahead
p3427
aVand
p3428
aVhope
p3429
aVthat
p3430
aVshe
p3431
aVlive
p3432
ag60
aVlong
p3433
aVlife
p3434
ag80
asg81
(lp3435
g83
ag83
ag83
ag83
ag83
ag83
ag83
ag83
ag83
ag83
ag83
ag83
ag83
ag83
ag83
ag83
ag83
ag83
asg85
(lp3436
g150
ag712
ag88
ag92
ag92
ag152
ag326
ag152
ag99
ag326
ag152
ag88
ag150
ag712
ag92
ag95
ag93
ag101
asg102
VShe fantasizes about all the days and years ahead and hopes that she lives a long life.
p3437
sba(i__main__
Sentence
p3438
(dp3439
g17
I23
sg18
(lp3440
S'Then'
p3441
aS'she'
p3442
aS'opens'
p3443
aS'the'
p3444
aS'door'
p3445
aS','
p3446
aS'and'
p3447
aS'she'
p3448
aS'and'
p3449
aS'Josephine'
p3450
aS'start'
p3451
aS'walking'
p3452
aS'down'
p3453
aS'the'
p3454
aS'stairs'
p3455
aS','
p3456
aS'where'
p3457
aS'Richards'
p3458
aS'is'
p3459
aS'waiting'
p3460
aS'.'
p3461
asg51
(lp3462
VThen
p3463
aVshe
p3464
aVopen
p3465
aVthe
p3466
aVdoor
p3467
ag63
aVand
p3468
aVshe
p3469
aVand
p3470
aVJosephine
p3471
aVstart
p3472
aVwalk
p3473
aVdown
p3474
aVthe
p3475
aVstair
p3476
ag63
aVwhere
p3477
aVRichards
p3478
ag2929
aVwait
p3479
ag80
asg81
(lp3480
g83
ag83
ag83
ag83
ag83
ag83
ag83
ag83
ag83
aVPERSON
p3481
ag83
ag83
ag83
ag83
ag83
ag83
ag83
aVPERSON
p3482
ag83
ag83
ag83
asg85
(lp3483
g99
ag150
ag712
ag92
ag93
ag94
ag326
ag150
ag326
ag89
ag93
ag87
ag88
ag92
ag152
ag94
ag253
ag152
ag712
ag87
ag101
asg102
VThen she opens the door, and she and Josephine start walking down the stairs, where Richards is waiting.
p3484
sba(i__main__
Sentence
p3485
(dp3486
g17
I24
sg18
(lp3487
S'The'
p3488
aS'front'
p3489
aS'door'
p3490
aS'unexpectedly'
p3491
aS'opens'
p3492
aS','
p3493
aS'and'
p3494
aS'Brently'
p3495
aS'comes'
p3496
aS'in'
p3497
aS'.'
p3498
asg51
(lp3499
VThe
p3500
aVfront
p3501
aVdoor
p3502
aVunexpectedly
p3503
aVopen
p3504
ag63
aVand
p3505
aVBrently
p3506
aVcome
p3507
aVin
p3508
ag80
asg81
(lp3509
g83
ag83
ag83
ag83
ag83
ag83
ag83
aVPERSON
p3510
ag83
ag83
ag83
asg85
(lp3511
g92
ag93
ag93
ag99
ag712
ag94
ag326
ag89
ag712
ag88
ag101
asg102
VThe front door unexpectedly opens, and Brently comes in.
p3512
sba(i__main__
Sentence
p3513
(dp3514
g17
I25
sg18
(lp3515
S'He'
p3516
aS'hadnt'
p3517
aS'been'
p3518
aS'in'
p3519
aS'the'
p3520
aS'train'
p3521
aS'accident'
p3522
aS'or'
p3523
aS'even'
p3524
aS'aware'
p3525
aS'that'
p3526
aS'one'
p3527
aS'had'
p3528
aS'happened'
p3529
aS'.'
p3530
asg51
(lp3531
VHe
p3532
aVhadnt
p3533
ag225
aVin
p3534
aVthe
p3535
aVtrain
p3536
aVaccident
p3537
aVor
p3538
aVeven
p3539
aVaware
p3540
aVthat
p3541
aVone
p3542
ag224
aVhappen
p3543
ag80
asg81
(lp3544
g83
ag83
ag83
ag83
ag83
ag83
ag83
ag83
ag83
ag83
ag83
ag83
ag83
ag83
ag83
asg85
(lp3545
g150
ag90
ag91
ag88
ag92
ag93
ag93
ag326
ag99
ag95
ag88
ag775
ag90
ag91
ag101
asg102
VHe hadnt been in the train accident or even aware that one had happened.
p3546
sba(i__main__
Sentence
p3547
(dp3548
g17
I26
sg18
(lp3549
S'Josephine'
p3550
aS'screams'
p3551
aS','
p3552
aS'and'
p3553
aS'Richards'
p3554
aS'tries'
p3555
aS'unsuccessfully'
p3556
aS'to'
p3557
aS'block'
p3558
aS'Louise'
p3559
aS'from'
p3560
aS'seeing'
p3561
aS'him'
p3562
aS'.'
p3563
asg51
(lp3564
VJosephine
p3565
aVscream
p3566
ag63
aVand
p3567
aVRichards
p3568
aVtry
p3569
aVunsuccessfully
p3570
aVto
p3571
aVblock
p3572
aVLouise
p3573
aVfrom
p3574
aVsee
p3575
aVhim
p3576
ag80
asg81
(lp3577
VPERSON
p3578
ag83
ag83
ag83
aVPERSON
p3579
ag83
ag83
ag83
ag83
aVPERSON
p3580
ag83
ag83
ag83
ag83
asg85
(lp3581
g89
ag152
ag94
ag326
ag89
ag152
ag99
ag96
ag97
ag89
ag88
ag87
ag150
ag101
asg102
VJosephine screams, and Richards tries unsuccessfully to block Louise from seeing him.
p3582
sba(i__main__
Sentence
p3583
(dp3584
g17
I27
sg18
(lp3585
S'Doctors'
p3586
aS'arrive'
p3587
aS'and'
p3588
aS'pronounce'
p3589
aS'that'
p3590
aS'Louise'
p3591
aS'died'
p3592
aS'of'
p3593
aS'a'
p3594
aS'heart'
p3595
aS'attack'
p3596
aS'brought'
p3597
aS'on'
p3598
aS'by'
p3599
aS'happiness'
p3600
aS'.'
p3601
asg51
(lp3602
VDoctors
p3603
aVarrive
p3604
aVand
p3605
aVpronounce
p3606
aVthat
p3607
aVLouise
p3608
aVdie
p3609
aVof
p3610
ag60
aVheart
p3611
aVattack
p3612
aVbring
p3613
aVon
p3614
aVby
p3615
aVhappiness
p3616
ag80
asg81
(lp3617
g83
ag83
ag83
ag83
ag83
aVPERSON
p3618
ag83
ag83
ag83
ag83
ag83
ag83
ag83
ag83
ag83
ag83
asg85
(lp3619
g152
ag378
ag326
ag93
ag88
ag89
ag90
ag88
ag92
ag93
ag93
ag90
ag88
ag88
ag93
ag101
asg102
VDoctors arrive and pronounce that Louise died of a heart attack brought on by happiness.
p3620
sbasbsS'name'
p3621
S'The Story of An Hour'
p3622
sS'summaries'
p3623
(lp3624
g2618
asb.