ccopy_reg
_reconstructor
p0
(c__main__
Story
p1
c__builtin__
object
p2
Ntp3
Rp4
(dp5
S'text'
p6
g0
(c__main__
Document
p7
g2
Ntp8
Rp9
(dp10
S'_Document__initialContent'
p11
S'There was once a mother who had a little boy of seven years old, who\nwas so handsome and lovable that no one could look at him without\nliking him, and she herself worshipped him above everything in the\nworld.  Now it so happened that he suddenly became ill, and God took\nhim to himself, and for this the mother could not be comforted and\nwept both day and night.  But soon afterwards, when the child had\nbeen buried, it appeared by night in the places where it had sat and\nplayed during its life, and if the mother wept, it wept also, and\nwhen morning came it disappeared.  But as the mother would not stop\ncrying, it came one night, in the little white shroud in which it had\nbeen laid in its coffin, and with its wreath of flowers round its\nhead, and stood on the bed at her feet, and said, "Oh, mother, do\nstop crying, or I shall never fall asleep in my coffin, for my shroud\nwill not dry because of all your tears, which fall upon it." The\nmother was afraid when she heard that, and wept no more.  The next\nnight the child came again, and held a little light in its hand, and\nsaid, "Look, mother, my shroud is nearly dry, and I can rest in my\ngrave." Then the mother gave her sorrow into God\'s keeping, and bore\nit quietly and patiently, and the child came no more, but slept in\nits little bed beneath the earth.\n'
p12
sS'sentences'
p13
(lp14
(i__main__
Sentence
p15
(dp16
S'index'
p17
I0
sS'words'
p18
(lp19
S'There'
p20
aS'was'
p21
aS'once'
p22
aS'a'
p23
aS'mother'
p24
aS'who'
p25
aS'had'
p26
aS'a'
p27
aS'little'
p28
aS'boy'
p29
aS'of'
p30
aS'seven'
p31
aS'years'
p32
aS'old'
p33
aS','
p34
aS'who'
p35
aS'was'
p36
aS'so'
p37
aS'handsome'
p38
aS'and'
p39
aS'lovable'
p40
aS'that'
p41
aS'no'
p42
aS'one'
p43
aS'could'
p44
aS'look'
p45
aS'at'
p46
aS'him'
p47
aS'without'
p48
aS'liking'
p49
aS'him'
p50
aS','
p51
aS'and'
p52
aS'she'
p53
aS'herself'
p54
aS'worshipped'
p55
aS'him'
p56
aS'above'
p57
aS'everything'
p58
aS'in'
p59
aS'the'
p60
aS'world'
p61
aS'.'
p62
asS'lemmas'
p63
(lp64
VThere
p65
aVbe
p66
aVonce
p67
aVa
p68
aVmother
p69
aVwho
p70
aVhave
p71
ag68
aVlittle
p72
aVboy
p73
aVof
p74
aVseven
p75
aVyear
p76
aVold
p77
aV,
p78
aVwho
p79
ag66
aVso
p80
aVhandsome
p81
aVand
p82
aVlovable
p83
aVthat
p84
aVno
p85
aVone
p86
aVcould
p87
aVlook
p88
aVat
p89
aVhim
p90
aVwithout
p91
aVlike
p92
aVhim
p93
ag78
aVand
p94
aVshe
p95
aVherself
p96
aVworship
p97
aVhim
p98
aVabove
p99
aVeverything
p100
aVin
p101
aVthe
p102
aVworld
p103
aV.
p104
asS'nerTags'
p105
(lp106
VO
p107
ag107
ag107
ag107
ag107
ag107
ag107
ag107
ag107
ag107
ag107
ag107
ag107
ag107
ag107
ag107
ag107
ag107
ag107
ag107
ag107
ag107
ag107
ag107
ag107
ag107
ag107
ag107
ag107
ag107
ag107
ag107
ag107
ag107
ag107
ag107
ag107
ag107
ag107
ag107
ag107
ag107
ag107
asS'posTags'
p108
(lp109
S'EX'
p110
aS'VBD'
p111
aS'RB'
p112
aS'DT'
p113
aS'NN'
p114
aS'WP'
p115
ag111
ag113
ag112
aS'JJ'
p116
aS'IN'
p117
aS'CD'
p118
aS'NNS'
p119
ag116
aS','
p120
ag115
ag111
ag112
ag112
aS'CC'
p121
ag116
ag117
ag113
ag114
aS'MD'
p122
aS'VB'
p123
ag117
aS'PRP'
p124
ag117
aS'VBG'
p125
ag124
ag120
ag121
ag124
ag124
ag111
ag124
ag117
ag114
ag117
ag113
ag114
aS'.'
p126
asS'_Sentence__initialContent'
p127
VThere was once a mother who had a little boy of seven years old, who was so handsome and lovable that no one could look at him without liking him, and she herself worshipped him above everything in the world.
p128
sba(i__main__
Sentence
p129
(dp130
g17
I1
sg18
(lp131
S'Now'
p132
aS'it'
p133
aS'so'
p134
aS'happened'
p135
aS'that'
p136
aS'he'
p137
aS'suddenly'
p138
aS'became'
p139
aS'ill'
p140
aS','
p141
aS'and'
p142
aS'God'
p143
aS'took'
p144
aS'him'
p145
aS'to'
p146
aS'himself'
p147
aS','
p148
aS'and'
p149
aS'for'
p150
aS'this'
p151
aS'the'
p152
aS'mother'
p153
aS'could'
p154
aS'not'
p155
aS'be'
p156
aS'comforted'
p157
aS'and'
p158
aS'wept'
p159
aS'both'
p160
aS'day'
p161
aS'and'
p162
aS'night'
p163
aS'.'
p164
asg63
(lp165
VNow
p166
aVit
p167
aVso
p168
aVhappen
p169
aVthat
p170
aVhe
p171
aVsuddenly
p172
aVbecome
p173
aVill
p174
ag78
aVand
p175
aVGod
p176
aVtake
p177
aVhim
p178
aVto
p179
aVhimself
p180
ag78
aVand
p181
aVfor
p182
aVthis
p183
aVthe
p184
aVmother
p185
aVcould
p186
aVnot
p187
aVbe
p188
aVcomfort
p189
aVand
p190
aVwept
p191
aVboth
p192
aVday
p193
aVand
p194
aVnight
p195
ag104
asg105
(lp196
g107
ag107
ag107
ag107
ag107
ag107
ag107
ag107
ag107
ag107
ag107
ag107
ag107
ag107
ag107
ag107
ag107
ag107
ag107
ag107
ag107
ag107
ag107
ag107
ag107
ag107
ag107
ag107
ag107
ag107
ag107
ag107
ag107
asg108
(lp197
g112
ag124
ag112
ag111
ag117
ag124
ag112
ag111
ag112
ag120
ag121
aS'NNP'
p198
ag111
ag124
aS'TO'
p199
ag124
ag120
ag121
ag117
ag113
ag113
ag114
ag122
ag112
ag123
aS'VBN'
p200
ag121
ag117
ag113
ag114
ag121
ag114
ag126
asg127
VNow it so happened that he suddenly became ill, and God took him to himself, and for this the mother could not be comforted and wept both day and night.
p201
sba(i__main__
Sentence
p202
(dp203
g17
I2
sg18
(lp204
S'But'
p205
aS'soon'
p206
aS'afterwards'
p207
aS','
p208
aS'when'
p209
aS'the'
p210
aS'child'
p211
aS'had'
p212
aS'been'
p213
aS'buried'
p214
aS','
p215
aS'it'
p216
aS'appeared'
p217
aS'by'
p218
aS'night'
p219
aS'in'
p220
aS'the'
p221
aS'places'
p222
aS'where'
p223
aS'it'
p224
aS'had'
p225
aS'sat'
p226
aS'and'
p227
aS'played'
p228
aS'during'
p229
aS'its'
p230
aS'life'
p231
aS','
p232
aS'and'
p233
aS'if'
p234
aS'the'
p235
aS'mother'
p236
aS'wept'
p237
aS','
p238
aS'it'
p239
aS'wept'
p240
aS'also'
p241
aS','
p242
aS'and'
p243
aS'when'
p244
aS'morning'
p245
aS'came'
p246
aS'it'
p247
aS'disappeared'
p248
aS'.'
p249
asg63
(lp250
VBut
p251
aVsoon
p252
aVafterwards
p253
ag78
aVwhen
p254
aVthe
p255
aVchild
p256
ag71
aVbe
p257
aVbury
p258
ag78
aVit
p259
aVappear
p260
aVby
p261
aVnight
p262
aVin
p263
aVthe
p264
aVplace
p265
aVwhere
p266
aVit
p267
ag71
aVsit
p268
aVand
p269
aVplay
p270
aVduring
p271
aVit
p272
aVlife
p273
ag78
aVand
p274
aVif
p275
aVthe
p276
aVmother
p277
aVweep
p278
ag78
aVit
p279
ag278
aValso
p280
ag78
aVand
p281
aVwhen
p282
aVmorning
p283
aVcome
p284
aVit
p285
aVdisappear
p286
ag104
asg105
(lp287
g107
ag107
ag107
ag107
ag107
ag107
ag107
ag107
ag107
ag107
ag107
ag107
ag107
ag107
ag107
ag107
ag107
ag107
ag107
ag107
ag107
ag107
ag107
ag107
ag107
ag107
ag107
ag107
ag107
ag107
ag107
ag107
ag107
ag107
ag107
ag107
ag107
ag107
ag107
ag107
ag107
ag107
ag107
ag107
ag107
asg108
(lp288
g121
ag112
ag119
ag120
aS'WRB'
p289
ag113
ag114
ag111
ag200
ag200
ag120
ag124
ag111
ag117
ag114
ag117
ag113
ag119
ag289
ag124
ag111
ag200
ag121
ag200
ag117
aS'PRP$'
p290
ag114
ag120
ag121
ag117
ag113
ag114
ag111
ag120
ag124
ag111
ag112
ag120
ag121
ag289
ag114
ag111
ag124
ag111
ag126
asg127
VBut soon afterwards, when the child had been buried, it appeared by night in the places where it had sat and played during its life, and if the mother wept, it wept also, and when morning came it disappeared.
p291
sba(i__main__
Sentence
p292
(dp293
g17
I3
sg18
(lp294
S'But'
p295
aS'as'
p296
aS'the'
p297
aS'mother'
p298
aS'would'
p299
aS'not'
p300
aS'stop'
p301
aS'crying'
p302
aS','
p303
aS'it'
p304
aS'came'
p305
aS'one'
p306
aS'night'
p307
aS','
p308
aS'in'
p309
aS'the'
p310
aS'little'
p311
aS'white'
p312
aS'shroud'
p313
aS'in'
p314
aS'which'
p315
aS'it'
p316
aS'had'
p317
aS'been'
p318
aS'laid'
p319
aS'in'
p320
aS'its'
p321
aS'coffin'
p322
aS','
p323
aS'and'
p324
aS'with'
p325
aS'its'
p326
aS'wreath'
p327
aS'of'
p328
aS'flowers'
p329
aS'round'
p330
aS'its'
p331
aS'head'
p332
aS','
p333
aS'and'
p334
aS'stood'
p335
aS'on'
p336
aS'the'
p337
aS'bed'
p338
aS'at'
p339
aS'her'
p340
aS'feet'
p341
aS','
p342
aS'and'
p343
aS'said'
p344
aS','
p345
aS'``'
p346
aS'Oh'
p347
aS','
p348
aS'mother'
p349
aS','
p350
aS'do'
p351
aS'stop'
p352
aS'crying'
p353
aS','
p354
aS'or'
p355
aS'I'
p356
aS'shall'
p357
aS'never'
p358
aS'fall'
p359
aS'asleep'
p360
aS'in'
p361
aS'my'
p362
aS'coffin'
p363
aS','
p364
aS'for'
p365
aS'my'
p366
aS'shroud'
p367
aS'will'
p368
aS'not'
p369
aS'dry'
p370
aS'because'
p371
aS'of'
p372
aS'all'
p373
aS'your'
p374
aS'tears'
p375
aS','
p376
aS'which'
p377
aS'fall'
p378
aS'upon'
p379
aS'it'
p380
aS'.'
p381
aS"''"
p382
asg63
(lp383
VBut
p384
ag68
aVthe
p385
aVmother
p386
aVwould
p387
aVnot
p388
aVstop
p389
aVcry
p390
ag78
aVit
p391
ag284
aVone
p392
aVnight
p393
ag78
aVin
p394
aVthe
p395
aVlittle
p396
aVwhite
p397
aVshroud
p398
aVin
p399
aVwhich
p400
aVit
p401
ag71
ag257
aVlay
p402
aVin
p403
aVit
p404
aVcoffin
p405
ag78
aVand
p406
aVwith
p407
aVit
p408
aVwreath
p409
aVof
p410
aVflower
p411
aVround
p412
aVit
p413
aVhead
p414
ag78
aVand
p415
aVstand
p416
aVon
p417
aVthe
p418
aVbed
p419
aVat
p420
aVher
p421
aVfoot
p422
ag78
aVand
p423
aVsay
p424
ag78
aV``
p425
aVOh
p426
ag78
aVmother
p427
ag78
aVdo
p428
aVstop
p429
aVcry
p430
ag78
aVor
p431
aVI
p432
aVshall
p433
aVnever
p434
aVfall
p435
aVasleep
p436
aVin
p437
aVmy
p438
aVcoffin
p439
ag78
aVfor
p440
aVmy
p441
aVshroud
p442
aVwill
p443
aVnot
p444
aVdry
p445
aVbecause
p446
aVof
p447
aVall
p448
aVyour
p449
aVtear
p450
ag78
aVwhich
p451
aVfall
p452
aVupon
p453
aVit
p454
ag104
aV''
p455
asg105
(lp456
g107
ag107
ag107
ag107
ag107
ag107
ag107
ag107
ag107
ag107
ag107
ag107
ag107
ag107
ag107
ag107
ag107
ag107
ag107
ag107
ag107
ag107
ag107
ag107
ag107
ag107
ag107
ag107
ag107
ag107
ag107
ag107
ag107
ag107
ag107
ag107
ag107
ag107
ag107
ag107
ag107
ag107
ag107
ag107
ag107
ag107
ag107
ag107
ag107
ag107
ag107
ag107
ag107
ag107
ag107
ag107
ag107
ag107
ag107
ag107
ag107
ag107
ag107
ag107
ag107
ag107
ag107
ag107
ag107
ag107
ag107
ag107
ag107
ag107
ag107
ag107
ag107
ag107
ag107
ag107
ag107
ag107
ag107
ag107
ag107
ag107
ag107
ag107
asg108
(lp457
g121
ag117
ag113
ag114
ag122
ag112
ag123
ag125
ag120
ag124
ag111
ag118
ag114
ag120
ag117
ag113
ag116
ag116
ag114
ag117
aS'WDT'
p458
ag124
ag111
ag200
ag200
ag117
ag290
ag114
ag120
ag121
ag117
ag290
ag114
ag117
ag119
ag117
ag290
ag114
ag120
ag121
ag111
ag117
ag113
ag200
ag117
ag290
ag119
ag120
ag121
ag111
ag120
aS'``'
p459
aS'UH'
p460
ag120
ag114
ag120
aS'VBP'
p461
ag123
ag125
ag120
ag121
ag124
ag122
ag112
ag123
ag116
ag117
ag290
ag114
ag120
ag117
ag290
ag114
ag122
ag112
ag123
ag117
ag117
ag113
ag290
ag119
ag120
ag458
ag114
ag117
ag124
ag126
aS"''"
p462
asg127
VBut as the mother would not stop crying, it came one night, in the little white shroud in which it had been laid in its coffin, and with its wreath of flowers round its head, and stood on the bed at her feet, and said, "Oh, mother, do stop crying, or I shall never fall asleep in my coffin, for my shroud will not dry because of all your tears, which fall upon it."
p463
sba(i__main__
Sentence
p464
(dp465
g17
I4
sg18
(lp466
S'The'
p467
aS'mother'
p468
aS'was'
p469
aS'afraid'
p470
aS'when'
p471
aS'she'
p472
aS'heard'
p473
aS'that'
p474
aS','
p475
aS'and'
p476
aS'wept'
p477
aS'no'
p478
aS'more'
p479
aS'.'
p480
asg63
(lp481
VThe
p482
aVmother
p483
ag66
aVafraid
p484
aVwhen
p485
aVshe
p486
aVhear
p487
aVthat
p488
ag78
aVand
p489
ag278
aVno
p490
aVmore
p491
ag104
asg105
(lp492
g107
ag107
ag107
ag107
ag107
ag107
ag107
ag107
ag107
ag107
ag107
ag107
ag107
ag107
asg108
(lp493
g113
ag114
ag111
ag116
ag289
ag124
ag461
ag117
ag120
ag121
ag111
ag113
aS'RBR'
p494
ag126
asg127
VThe mother was afraid when she heard that, and wept no more.
p495
sba(i__main__
Sentence
p496
(dp497
g17
I5
sg18
(lp498
S'The'
p499
aS'next'
p500
aS'night'
p501
aS'the'
p502
aS'child'
p503
aS'came'
p504
aS'again'
p505
aS','
p506
aS'and'
p507
aS'held'
p508
aS'a'
p509
aS'little'
p510
aS'light'
p511
aS'in'
p512
aS'its'
p513
aS'hand'
p514
aS','
p515
aS'and'
p516
aS'said'
p517
aS','
p518
aS'``'
p519
aS'Look'
p520
aS','
p521
aS'mother'
p522
aS','
p523
aS'my'
p524
aS'shroud'
p525
aS'is'
p526
aS'nearly'
p527
aS'dry'
p528
aS','
p529
aS'and'
p530
aS'I'
p531
aS'can'
p532
aS'rest'
p533
aS'in'
p534
aS'my'
p535
aS'grave'
p536
aS'.'
p537
aS"''"
p538
asg63
(lp539
VThe
p540
aVnext
p541
aVnight
p542
aVthe
p543
aVchild
p544
ag284
aVagain
p545
ag78
aVand
p546
aVhold
p547
ag68
aVlittle
p548
aVlight
p549
aVin
p550
aVit
p551
aVhand
p552
ag78
aVand
p553
ag424
ag78
aV``
p554
aVLook
p555
ag78
aVmother
p556
ag78
aVmy
p557
aVshroud
p558
aVbe
p559
aVnearly
p560
aVdry
p561
ag78
aVand
p562
ag432
aVcan
p563
aVrest
p564
aVin
p565
aVmy
p566
aVgrave
p567
ag104
aV''
p568
asg105
(lp569
g107
ag107
ag107
ag107
ag107
ag107
ag107
ag107
ag107
ag107
ag107
ag107
ag107
ag107
ag107
ag107
ag107
ag107
ag107
ag107
ag107
ag107
ag107
ag107
ag107
ag107
ag107
ag107
ag107
ag107
ag107
ag107
ag107
ag107
ag107
ag107
ag107
ag107
ag107
ag107
asg108
(lp570
g113
ag116
ag114
ag113
ag114
ag111
ag112
ag120
ag121
ag111
ag113
ag112
ag116
ag117
ag290
ag114
ag120
ag121
ag111
ag120
ag459
ag198
ag120
ag114
ag120
ag290
ag114
aS'VBZ'
p571
ag112
ag116
ag120
ag121
ag124
ag122
ag123
ag117
ag290
ag114
ag126
ag462
asg127
VThe next night the child came again, and held a little light in its hand, and said, "Look, mother, my shroud is nearly dry, and I can rest in my grave."
p572
sba(i__main__
Sentence
p573
(dp574
g17
I6
sg18
(lp575
S'Then'
p576
aS'the'
p577
aS'mother'
p578
aS'gave'
p579
aS'her'
p580
aS'sorrow'
p581
aS'into'
p582
aS'God'
p583
aS"'s"
p584
aS'keeping'
p585
aS','
p586
aS'and'
p587
aS'bore'
p588
aS'it'
p589
aS'quietly'
p590
aS'and'
p591
aS'patiently'
p592
aS','
p593
aS'and'
p594
aS'the'
p595
aS'child'
p596
aS'came'
p597
aS'no'
p598
aS'more'
p599
aS','
p600
aS'but'
p601
aS'slept'
p602
aS'in'
p603
aS'its'
p604
aS'little'
p605
aS'bed'
p606
aS'beneath'
p607
aS'the'
p608
aS'earth'
p609
aS'.'
p610
asg63
(lp611
VThen
p612
aVthe
p613
aVmother
p614
aVgive
p615
aVher
p616
aVsorrow
p617
aVinto
p618
aVGod
p619
aV's
p620
aVkeep
p621
ag78
aVand
p622
aVbore
p623
aVit
p624
aVquietly
p625
aVand
p626
aVpatiently
p627
ag78
aVand
p628
aVthe
p629
aVchild
p630
ag284
aVno
p631
aVmore
p632
ag78
aVbut
p633
aVslept
p634
aVin
p635
aVit
p636
aVlittle
p637
aVbed
p638
aVbeneath
p639
aVthe
p640
aVearth
p641
ag104
asg105
(lp642
g107
ag107
ag107
ag107
ag107
ag107
ag107
ag107
ag107
ag107
ag107
ag107
ag107
ag107
ag107
ag107
ag107
ag107
ag107
ag107
ag107
ag107
ag107
ag107
ag107
ag107
ag107
ag107
ag107
ag107
ag107
ag107
ag107
ag107
ag107
asg108
(lp643
g112
ag113
ag114
ag111
ag124
ag114
ag117
ag198
aS'POS'
p644
ag125
ag120
ag121
ag123
ag124
ag112
ag121
ag112
ag120
ag121
ag113
ag114
ag111
ag113
ag494
ag120
ag121
ag117
ag117
ag290
ag116
ag200
ag114
ag113
ag114
ag126
asg127
VThen the mother gave her sorrow into God's keeping, and bore it quietly and patiently, and the child came no more, but slept in its little bed beneath the earth. 
p645
sbasbsS'summary'
p646
g0
(g7
g2
Ntp647
Rp648
(dp649
g11
S"A young boy dies and his mother cries for her boy continually. The boy's ghost begins appearing at night. The ghost begs its mother to stop crying so its burial shroud will dry and it can rest comfortably in the grave. The mother gives her sorrow to God and the child is able to rest peacefully."
p650
sg13
(lp651
(i__main__
Sentence
p652
(dp653
g17
I0
sg18
(lp654
S'A'
p655
aS'young'
p656
aS'boy'
p657
aS'dies'
p658
aS'and'
p659
aS'his'
p660
aS'mother'
p661
aS'cries'
p662
aS'for'
p663
aS'her'
p664
aS'boy'
p665
aS'continually'
p666
aS'.'
p667
asg63
(lp668
VA
p669
aVyoung
p670
aVboy
p671
aVdy
p672
aVand
p673
aVhis
p674
aVmother
p675
aVcry
p676
aVfor
p677
aVher
p678
aVboy
p679
aVcontinually
p680
ag104
asg105
(lp681
g107
ag107
ag107
ag107
ag107
ag107
ag107
ag107
ag107
ag107
ag107
ag107
ag107
asg108
(lp682
g113
ag116
ag114
ag119
ag121
ag290
ag114
ag119
ag117
ag124
ag461
ag112
ag126
asg127
VA young boy dies and his mother cries for her boy continually.
p683
sba(i__main__
Sentence
p684
(dp685
g17
I1
sg18
(lp686
S'The'
p687
aS'boy'
p688
aS"'s"
p689
aS'ghost'
p690
aS'begins'
p691
aS'appearing'
p692
aS'at'
p693
aS'night'
p694
aS'.'
p695
asg63
(lp696
VThe
p697
aVboy
p698
aV's
p699
aVghost
p700
aVbegin
p701
aVappear
p702
aVat
p703
aVnight
p704
ag104
asg105
(lp705
g107
ag107
ag107
ag107
ag107
ag107
ag107
ag107
ag107
asg108
(lp706
g113
ag114
ag644
ag114
ag571
ag125
ag117
ag114
ag126
asg127
VThe boy's ghost begins appearing at night.
p707
sba(i__main__
Sentence
p708
(dp709
g17
I2
sg18
(lp710
S'The'
p711
aS'ghost'
p712
aS'begs'
p713
aS'its'
p714
aS'mother'
p715
aS'to'
p716
aS'stop'
p717
aS'crying'
p718
aS'so'
p719
aS'its'
p720
aS'burial'
p721
aS'shroud'
p722
aS'will'
p723
aS'dry'
p724
aS'and'
p725
aS'it'
p726
aS'can'
p727
aS'rest'
p728
aS'comfortably'
p729
aS'in'
p730
aS'the'
p731
aS'grave'
p732
aS'.'
p733
asg63
(lp734
VThe
p735
aVghost
p736
aVbegs
p737
aVit
p738
aVmother
p739
aVto
p740
aVstop
p741
aVcry
p742
aVso
p743
aVit
p744
aVburial
p745
aVshroud
p746
aVwill
p747
aVdry
p748
aVand
p749
aVit
p750
aVcan
p751
aVrest
p752
aVcomfortably
p753
aVin
p754
aVthe
p755
aVgrave
p756
ag104
asg105
(lp757
g107
ag107
ag107
ag107
ag107
ag107
ag107
ag107
ag107
ag107
ag107
ag107
ag107
ag107
ag107
ag107
ag107
ag107
ag107
ag107
ag107
ag107
ag107
asg108
(lp758
g113
ag114
ag119
ag290
ag114
ag199
ag123
ag114
ag117
ag290
ag116
ag114
ag122
ag123
ag121
ag124
ag122
ag123
ag112
ag117
ag113
ag114
ag126
asg127
VThe ghost begs its mother to stop crying so its burial shroud will dry and it can rest comfortably in the grave.
p759
sba(i__main__
Sentence
p760
(dp761
g17
I3
sg18
(lp762
S'The'
p763
aS'mother'
p764
aS'gives'
p765
aS'her'
p766
aS'sorrow'
p767
aS'to'
p768
aS'God'
p769
aS'and'
p770
aS'the'
p771
aS'child'
p772
aS'is'
p773
aS'able'
p774
aS'to'
p775
aS'rest'
p776
aS'peacefully'
p777
aS'.'
p778
asg63
(lp779
VThe
p780
aVmother
p781
aVgive
p782
aVher
p783
aVsorrow
p784
aVto
p785
aVGod
p786
aVand
p787
aVthe
p788
aVchild
p789
ag559
aVable
p790
aVto
p791
aVrest
p792
aVpeacefully
p793
ag104
asg105
(lp794
g107
ag107
ag107
ag107
ag107
ag107
ag107
ag107
ag107
ag107
ag107
ag107
ag107
ag107
ag107
ag107
asg108
(lp795
g113
ag114
ag571
ag290
ag114
ag199
ag198
ag121
ag113
ag114
ag571
ag116
ag199
ag114
ag112
ag126
asg127
VThe mother gives her sorrow to God and the child is able to rest peacefully.
p796
sbasbsS'name'
p797
S'The Shroud'
p798
sS'summaries'
p799
(lp800
g648
asb.