ccopy_reg
_reconstructor
p0
(c__main__
Story
p1
c__builtin__
object
p2
Ntp3
Rp4
(dp5
S'text'
p6
g0
(c__main__
Document
p7
g2
Ntp8
Rp9
(dp10
S'_Document__initialContent'
p11
S'About three miles from the little town of Norton, in Missouri, on the road leading to Maysville, stands an old house that was last occupied by a family named Harding. Since 1886 no one has lived in it, nor is anyone likely to live in it again. Time and the disfavor of persons dwelling thereabout are converting it into a rather picturesque ruin. An observer unacquainted with its history would hardly put it into the category of "haunted houses," yet in all the region round such is its evil reputation. Its windows are without glass, its doorways without doors; there are wide breaches in the shingle roof, and for lack of paint the weatherboarding is a dun gray. But these unfailing signs of the supernatural are partly concealed and greatly softened by the abundant foliage of a large vine overrunning the entire structure. This vine--of a species which no botanist has ever been able to name--has an important part in the story of the house.\n\n\n\nThe Harding family consisted of Robert Harding, his wife Matilda, Miss Julia Went, who was her sister, and two young children. Robert Harding was a silent, cold-mannered man who made no friends in the neighborhood and apparently cared to make none. He was about forty years old, frugal and industrious, and made a living from the little farm which is now overgrown with brush and brambles. He and his sister-in-law were rather tabooed by their neighbors, who seemed to think that they were seen too frequently together--not entirely their fault, for at these times they evidently did not challenge observation. The moral code of rural Missouri is stern and exacting.\n\n\n\nMrs. Harding was a gentle, sad-eyed woman, lacking a left foot.\n\n\n\nAt some time in 1884 it became known that she had gone to visit her mother in Iowa. That was what her husband said in reply to inquiries, and his manner of saying it did not encourage further questioning. She never came back, and two years later, without selling his farm or anything that was his, or appointing an agent to look after his interests, or removing his household goods, Harding, with the rest of the family, left the country. Nobody knew whither he went; nobody at that time cared. Naturally, whatever was movable about the place soon disappeared and the deserted house became "haunted" in the manner of its kind.\n\n\n\nOne summer evening, four or five years later, the Rev. J. Gruber, of Norton, and a Maysville attorney named Hyatt met on horseback in front of the Harding place. Having business matters to discuss, they hitched their animals and going to the house sat on the porch to talk. Some humorous reference to the somber reputation of the place was made and forgotten as soon as uttered, and they talked of their business affairs until it grew almost dark. The evening was oppressively warm, the air stagnant.\n\n\n\nPresently both men started from their seats in surprise: a long vine that covered half the front of the house and dangled its branches from the edge of the porch above them was visibly and audibly agitated, shaking violently in every stem and leaf.\n\n\n\n"We shall have a storm," Hyatt exclaimed.\n\n\n\nGruber said nothing, but silently directed the other\'s attention to the foliage of adjacent trees, which showed no movement; even the delicate tips of the boughs silhouetted against the clear sky were motionless. They hastily passed down the steps to what had been a lawn and looked upward at the vine, whose entire length was now visible. It continued in violent agitation, yet they could discern no disturbing cause.\n\n\n\n"Let us leave," said the minister.\n\n\n\nAnd leave they did. Forgetting that they had been traveling in opposite directions, they rode away together. They went to Norton, where they related their strange experience to several discreet friends. The next evening, at about the same hour, accompanied by two others whose names are not recalled, they were again on the porch of the Harding house, and again the mysterious phenomenon occurred: the vine was violently agitated while under the closest scrutiny from root to tip, nor did their combined strength applied to the trunk serve to still it. After an hour\'s observation they retreated, no less wise, it is thought, than when they had come.\n\n\n\nNo great time was required for these singular facts to rouse the curiosity of the entire neighborhood. By day and by night crowds of persons assembled at the Harding house "seeking a sign." It does not appear that any found it, yet so credible were the witnesses mentioned that none doubted the reality of the "manifestations" to which they testified.\n\n\n\nBy either a happy inspiration or some destructive design, it was one day proposed--nobody appeared to know from whom the suggestion came- -to dig up the vine, and after a good deal of debate this was done. Nothing was found but the root, yet nothing could have been more strange!\n\n\n\nFor five or six feet from the trunk, which had at the surface of the ground a diameter of several inches, it ran downward, single and straight, into a loose, friable earth; then it divided and subdivided into rootlets, fibers and filaments, most curiously interwoven. When carefully freed from soil they showed a singular formation. In their ramifications and doublings back upon themselves they made a compact network, having in size and shape an amazing resemblance to the human figure. Head, trunk and limbs were there; even the fingers and toes were distinctly defined; and many professed to see in the distribution and arrangement of the fibers in the globular mass representing the head a grotesque suggestion of a face. The figure was horizontal; the smaller roots had begun to unite at the breast.\n\n\n\nIn point of resemblance to the human form this image was imperfect. At about ten inches from one of the knees, the cilia forming that leg had abruptly doubled backward and inward upon their course of growth. The figure lacked the left foot.\n\n\n\nThere was but one inference--the obvious one; but in the ensuing excitement as many courses of action were proposed as there were incapable counselors. The matter was settled by the sheriff of the county, who as the lawful custodian of the abandoned estate ordered the root replaced and the excavation filled with the earth that had been removed.\n\n\n\nLater inquiry brought out only one fact of relevancy and significance: Mrs. Harding had never visited her relatives in Iowa, nor did they know that she was supposed to have done so.\n\n\n\nOf Robert Harding and the rest of his family nothing is known. The house retains its evil reputation, but the replanted vine is as orderly and well-behaved a vegetable as a nervous person could wish to sit under of a pleasant night, when the katydids grate out their immemorial revelation and the distant whippoorwill signifies his notion of what ought to be done about it.'
p12
sS'sentences'
p13
(lp14
(i__main__
Sentence
p15
(dp16
S'index'
p17
I0
sS'words'
p18
(lp19
S'About'
p20
aS'three'
p21
aS'miles'
p22
aS'from'
p23
aS'the'
p24
aS'little'
p25
aS'town'
p26
aS'of'
p27
aS'Norton'
p28
aS','
p29
aS'in'
p30
aS'Missouri'
p31
aS','
p32
aS'on'
p33
aS'the'
p34
aS'road'
p35
aS'leading'
p36
aS'to'
p37
aS'Maysville'
p38
aS','
p39
aS'stands'
p40
aS'an'
p41
aS'old'
p42
aS'house'
p43
aS'that'
p44
aS'was'
p45
aS'last'
p46
aS'occupied'
p47
aS'by'
p48
aS'a'
p49
aS'family'
p50
aS'named'
p51
aS'Harding'
p52
aS'.'
p53
asS'lemmas'
p54
(lp55
VAbout
p56
aVthree
p57
aVmile
p58
aVfrom
p59
aVthe
p60
aVlittle
p61
aVtown
p62
aVof
p63
aVNorton
p64
aV,
p65
aVin
p66
aVMissouri
p67
ag65
aVon
p68
aVthe
p69
aVroad
p70
aVlead
p71
aVto
p72
aVMaysville
p73
ag65
aVstand
p74
aVan
p75
aVold
p76
aVhouse
p77
aVthat
p78
aVbe
p79
aVlast
p80
aVoccupy
p81
aVby
p82
aVa
p83
aVfamily
p84
aVname
p85
aVHarding
p86
aV.
p87
asS'nerTags'
p88
(lp89
VO
p90
ag90
ag90
ag90
ag90
ag90
ag90
ag90
aVLOCATION
p91
ag90
ag90
aVLOCATION
p92
ag90
ag90
ag90
ag90
ag90
ag90
aVLOCATION
p93
ag90
ag90
ag90
ag90
ag90
ag90
ag90
ag90
ag90
ag90
ag90
ag90
ag90
aVPERSON
p94
ag90
asS'posTags'
p95
(lp96
S'IN'
p97
aS'CD'
p98
aS'NNS'
p99
ag97
aS'DT'
p100
aS'JJ'
p101
aS'NN'
p102
ag97
aS'NNP'
p103
aS','
p104
ag97
ag103
ag104
ag97
ag100
ag102
aS'VBG'
p105
aS'TO'
p106
ag103
ag104
aS'VBZ'
p107
ag100
ag101
ag102
ag97
aS'VBD'
p108
ag101
aS'VBN'
p109
ag97
ag100
ag102
ag109
ag103
aS'.'
p110
asS'_Sentence__initialContent'
p111
VAbout three miles from the little town of Norton, in Missouri, on the road leading to Maysville, stands an old house that was last occupied by a family named Harding.
p112
sba(i__main__
Sentence
p113
(dp114
g17
I1
sg18
(lp115
S'Since'
p116
aS'1886'
p117
aS'no'
p118
aS'one'
p119
aS'has'
p120
aS'lived'
p121
aS'in'
p122
aS'it'
p123
aS','
p124
aS'nor'
p125
aS'is'
p126
aS'anyone'
p127
aS'likely'
p128
aS'to'
p129
aS'live'
p130
aS'in'
p131
aS'it'
p132
aS'again'
p133
aS'.'
p134
asg54
(lp135
VSince
p136
aV1886
p137
aVno
p138
aVone
p139
aVhave
p140
aVlive
p141
aVin
p142
aVit
p143
ag65
aVnor
p144
aVbe
p145
aVanyone
p146
aVlikely
p147
aVto
p148
aVlive
p149
aVin
p150
aVit
p151
aVagain
p152
ag87
asg88
(lp153
g90
ag90
ag90
ag90
ag90
ag90
ag90
ag90
ag90
ag90
ag90
ag90
ag90
ag90
ag90
ag90
ag90
ag90
ag90
asg95
(lp154
g97
ag98
ag100
ag98
ag107
ag109
ag97
aS'PRP'
p155
ag104
aS'CC'
p156
ag107
ag102
aS'RB'
p157
ag106
aS'VB'
p158
ag97
ag155
ag157
ag110
asg111
VSince 1886 no one has lived in it, nor is anyone likely to live in it again.
p159
sba(i__main__
Sentence
p160
(dp161
g17
I2
sg18
(lp162
S'Time'
p163
aS'and'
p164
aS'the'
p165
aS'disfavor'
p166
aS'of'
p167
aS'persons'
p168
aS'dwelling'
p169
aS'thereabout'
p170
aS'are'
p171
aS'converting'
p172
aS'it'
p173
aS'into'
p174
aS'a'
p175
aS'rather'
p176
aS'picturesque'
p177
aS'ruin'
p178
aS'.'
p179
asg54
(lp180
VTime
p181
aVand
p182
aVthe
p183
aVdisfavor
p184
aVof
p185
aVperson
p186
aVdwell
p187
aVthereabout
p188
aVare
p189
aVconvert
p190
aVit
p191
aVinto
p192
ag83
aVrather
p193
aVpicturesque
p194
aVruin
p195
ag87
asg88
(lp196
g90
ag90
ag90
ag90
ag90
ag90
ag90
ag90
ag90
ag90
ag90
ag90
ag90
ag90
ag90
ag90
ag90
asg95
(lp197
g103
ag156
ag100
ag102
ag97
ag99
ag105
ag97
ag101
ag105
ag155
ag97
ag100
ag157
ag101
ag102
ag110
asg111
VTime and the disfavor of persons dwelling thereabout are converting it into a rather picturesque ruin.
p198
sba(i__main__
Sentence
p199
(dp200
g17
I3
sg18
(lp201
S'An'
p202
aS'observer'
p203
aS'unacquainted'
p204
aS'with'
p205
aS'its'
p206
aS'history'
p207
aS'would'
p208
aS'hardly'
p209
aS'put'
p210
aS'it'
p211
aS'into'
p212
aS'the'
p213
aS'category'
p214
aS'of'
p215
aS'``'
p216
aS'haunted'
p217
aS'houses'
p218
aS','
p219
aS"''"
p220
aS'yet'
p221
aS'in'
p222
aS'all'
p223
aS'the'
p224
aS'region'
p225
aS'round'
p226
aS'such'
p227
aS'is'
p228
aS'its'
p229
aS'evil'
p230
aS'reputation'
p231
aS'.'
p232
asg54
(lp233
VAn
p234
aVobserver
p235
aVunacquainted
p236
aVwith
p237
aVit
p238
aVhistory
p239
aVwould
p240
aVhardly
p241
aVput
p242
aVit
p243
aVinto
p244
aVthe
p245
aVcategory
p246
aVof
p247
aV``
p248
aVhaunt
p249
aVhouse
p250
ag65
aV''
p251
aVyet
p252
aVin
p253
aVall
p254
aVthe
p255
aVregion
p256
aVround
p257
aVsuch
p258
ag145
aVit
p259
aVevil
p260
aVreputation
p261
ag87
asg88
(lp262
g90
ag90
ag90
ag90
ag90
ag90
ag90
ag90
ag90
ag90
ag90
ag90
ag90
ag90
ag90
ag90
ag90
ag90
ag90
ag90
ag90
ag90
ag90
ag90
ag90
ag90
ag90
ag90
ag90
ag90
ag90
asg95
(lp263
g100
ag102
ag109
ag97
aS'PRP$'
p264
ag102
aS'MD'
p265
ag157
ag158
ag155
ag97
ag100
ag102
ag97
aS'``'
p266
ag109
ag99
ag104
aS"''"
p267
ag157
ag97
ag100
ag100
ag102
ag102
ag101
ag107
ag264
ag101
ag102
ag110
asg111
VAn observer unacquainted with its history would hardly put it into the category of "haunted houses," yet in all the region round such is its evil reputation.
p268
sba(i__main__
Sentence
p269
(dp270
g17
I4
sg18
(lp271
S'Its'
p272
aS'windows'
p273
aS'are'
p274
aS'without'
p275
aS'glass'
p276
aS','
p277
aS'its'
p278
aS'doorways'
p279
aS'without'
p280
aS'doors'
p281
aS';'
p282
aS'there'
p283
aS'are'
p284
aS'wide'
p285
aS'breaches'
p286
aS'in'
p287
aS'the'
p288
aS'shingle'
p289
aS'roof'
p290
aS','
p291
aS'and'
p292
aS'for'
p293
aS'lack'
p294
aS'of'
p295
aS'paint'
p296
aS'the'
p297
aS'weatherboarding'
p298
aS'is'
p299
aS'a'
p300
aS'dun'
p301
aS'gray'
p302
aS'.'
p303
asg54
(lp304
VIts
p305
aVwindow
p306
aVbe
p307
aVwithout
p308
aVglass
p309
ag65
aVit
p310
aVdoorway
p311
aVwithout
p312
aVdoor
p313
aV;
p314
aVthere
p315
ag307
aVwide
p316
aVbreach
p317
aVin
p318
aVthe
p319
aVshingle
p320
aVroof
p321
ag65
aVand
p322
aVfor
p323
aVlack
p324
aVof
p325
aVpaint
p326
aVthe
p327
aVweatherboarding
p328
ag145
ag83
aVdun
p329
aVgray
p330
ag87
asg88
(lp331
g90
ag90
ag90
ag90
ag90
ag90
ag90
ag90
ag90
ag90
ag90
ag90
ag90
ag90
ag90
ag90
ag90
ag90
ag90
ag90
ag90
ag90
ag90
ag90
ag90
ag90
ag90
ag90
ag90
ag90
ag90
ag90
asg95
(lp332
g264
ag99
aS'VBP'
p333
ag97
ag102
ag104
ag264
ag99
ag97
ag99
aS':'
p334
aS'EX'
p335
ag333
ag101
ag99
ag97
ag100
ag102
ag102
ag104
ag156
ag97
ag102
ag97
ag102
ag100
ag102
ag107
ag100
ag102
ag102
ag110
asg111
VIts windows are without glass, its doorways without doors; there are wide breaches in the shingle roof, and for lack of paint the weatherboarding is a dun gray.
p336
sba(i__main__
Sentence
p337
(dp338
g17
I5
sg18
(lp339
S'But'
p340
aS'these'
p341
aS'unfailing'
p342
aS'signs'
p343
aS'of'
p344
aS'the'
p345
aS'supernatural'
p346
aS'are'
p347
aS'partly'
p348
aS'concealed'
p349
aS'and'
p350
aS'greatly'
p351
aS'softened'
p352
aS'by'
p353
aS'the'
p354
aS'abundant'
p355
aS'foliage'
p356
aS'of'
p357
aS'a'
p358
aS'large'
p359
aS'vine'
p360
aS'overrunning'
p361
aS'the'
p362
aS'entire'
p363
aS'structure'
p364
aS'.'
p365
asg54
(lp366
VBut
p367
aVthese
p368
aVunfailing
p369
aVsign
p370
aVof
p371
aVthe
p372
aVsupernatural
p373
ag307
aVpartly
p374
aVconceal
p375
aVand
p376
aVgreatly
p377
aVsoften
p378
aVby
p379
aVthe
p380
aVabundant
p381
aVfoliage
p382
aVof
p383
ag83
aVlarge
p384
aVvine
p385
aVoverrun
p386
aVthe
p387
aVentire
p388
aVstructure
p389
ag87
asg88
(lp390
g90
ag90
ag90
ag90
ag90
ag90
ag90
ag90
ag90
ag90
ag90
ag90
ag90
ag90
ag90
ag90
ag90
ag90
ag90
ag90
ag90
ag90
ag90
ag90
ag90
ag90
asg95
(lp391
g156
ag100
ag105
ag99
ag97
ag100
ag101
ag333
ag157
ag109
ag156
ag157
ag108
ag97
ag100
ag101
ag102
ag97
ag100
ag101
ag102
ag105
ag100
ag101
ag102
ag110
asg111
VBut these unfailing signs of the supernatural are partly concealed and greatly softened by the abundant foliage of a large vine overrunning the entire structure.
p392
sba(i__main__
Sentence
p393
(dp394
g17
I6
sg18
(lp395
S'This'
p396
aS'vine'
p397
aS'--'
p398
aS'of'
p399
aS'a'
p400
aS'species'
p401
aS'which'
p402
aS'no'
p403
aS'botanist'
p404
aS'has'
p405
aS'ever'
p406
aS'been'
p407
aS'able'
p408
aS'to'
p409
aS'name'
p410
aS'--'
p411
aS'has'
p412
aS'an'
p413
aS'important'
p414
aS'part'
p415
aS'in'
p416
aS'the'
p417
aS'story'
p418
aS'of'
p419
aS'the'
p420
aS'house'
p421
aS'.'
p422
asg54
(lp423
VThis
p424
aVvine
p425
aV--
p426
aVof
p427
ag83
aVspecie
p428
aVwhich
p429
aVno
p430
aVbotanist
p431
ag140
aVever
p432
aVbe
p433
aVable
p434
aVto
p435
aVname
p436
aV--
p437
aVha
p438
aVan
p439
aVimportant
p440
aVpart
p441
aVin
p442
aVthe
p443
aVstory
p444
aVof
p445
aVthe
p446
aVhouse
p447
ag87
asg88
(lp448
g90
ag90
ag90
ag90
ag90
ag90
ag90
ag90
ag90
ag90
ag90
ag90
ag90
ag90
ag90
ag90
ag90
ag90
ag90
ag90
ag90
ag90
ag90
ag90
ag90
ag90
ag90
asg95
(lp449
g100
ag102
ag334
ag97
ag100
ag102
aS'WDT'
p450
ag100
ag102
ag107
ag157
ag109
ag101
ag106
ag158
ag334
ag97
ag100
ag101
ag102
ag97
ag100
ag102
ag97
ag100
ag102
ag110
asg111
VThis vine--of a species which no botanist has ever been able to name--has an important part in the story of the house.
p451
sba(i__main__
Sentence
p452
(dp453
g17
I7
sg18
(lp454
S'The'
p455
aS'Harding'
p456
aS'family'
p457
aS'consisted'
p458
aS'of'
p459
aS'Robert'
p460
aS'Harding'
p461
aS','
p462
aS'his'
p463
aS'wife'
p464
aS'Matilda'
p465
aS','
p466
aS'Miss'
p467
aS'Julia'
p468
aS'Went'
p469
aS','
p470
aS'who'
p471
aS'was'
p472
aS'her'
p473
aS'sister'
p474
aS','
p475
aS'and'
p476
aS'two'
p477
aS'young'
p478
aS'children'
p479
aS'.'
p480
asg54
(lp481
VThe
p482
aVHarding
p483
aVfamily
p484
aVconsist
p485
aVof
p486
aVRobert
p487
aVHarding
p488
ag65
aVhis
p489
aVwife
p490
aVMatilda
p491
ag65
aVMiss
p492
aVJulia
p493
aVWent
p494
ag65
aVwho
p495
ag79
aVher
p496
aVsister
p497
ag65
aVand
p498
aVtwo
p499
aVyoung
p500
aVchild
p501
ag87
asg88
(lp502
g90
aVPERSON
p503
ag90
ag90
ag90
aVPERSON
p504
aVPERSON
p505
ag90
ag90
ag90
aVPERSON
p506
ag90
ag90
aVPERSON
p507
aVPERSON
p508
ag90
ag90
ag90
ag90
ag90
ag90
ag90
ag90
ag90
ag90
ag90
asg95
(lp509
g100
ag103
ag102
ag108
ag97
ag103
ag103
ag104
ag264
ag102
ag103
ag104
ag103
ag103
ag103
ag104
aS'WP'
p510
ag108
ag264
ag102
ag104
ag156
ag98
ag101
ag99
ag110
asg111
VThe Harding family consisted of Robert Harding, his wife Matilda, Miss Julia Went, who was her sister, and two young children.
p511
sba(i__main__
Sentence
p512
(dp513
g17
I8
sg18
(lp514
S'Robert'
p515
aS'Harding'
p516
aS'was'
p517
aS'a'
p518
aS'silent'
p519
aS','
p520
aS'cold-mannered'
p521
aS'man'
p522
aS'who'
p523
aS'made'
p524
aS'no'
p525
aS'friends'
p526
aS'in'
p527
aS'the'
p528
aS'neighborhood'
p529
aS'and'
p530
aS'apparently'
p531
aS'cared'
p532
aS'to'
p533
aS'make'
p534
aS'none'
p535
aS'.'
p536
asg54
(lp537
VRobert
p538
aVHarding
p539
ag79
ag83
aVsilent
p540
ag65
aVcold-mannered
p541
aVman
p542
aVwho
p543
aVmake
p544
aVno
p545
aVfriend
p546
aVin
p547
aVthe
p548
aVneighborhood
p549
aVand
p550
aVapparently
p551
aVcare
p552
aVto
p553
aVmake
p554
aVnone
p555
ag87
asg88
(lp556
VPERSON
p557
aVPERSON
p558
ag90
ag90
ag90
ag90
ag90
ag90
ag90
ag90
ag90
ag90
ag90
ag90
ag90
ag90
ag90
ag90
ag90
ag90
ag90
ag90
asg95
(lp559
g103
ag103
ag108
ag100
ag102
ag104
ag101
ag102
ag510
ag109
ag100
ag99
ag97
ag100
ag102
ag156
ag157
ag108
ag106
ag158
ag102
ag110
asg111
VRobert Harding was a silent, cold-mannered man who made no friends in the neighborhood and apparently cared to make none.
p560
sba(i__main__
Sentence
p561
(dp562
g17
I9
sg18
(lp563
S'He'
p564
aS'was'
p565
aS'about'
p566
aS'forty'
p567
aS'years'
p568
aS'old'
p569
aS','
p570
aS'frugal'
p571
aS'and'
p572
aS'industrious'
p573
aS','
p574
aS'and'
p575
aS'made'
p576
aS'a'
p577
aS'living'
p578
aS'from'
p579
aS'the'
p580
aS'little'
p581
aS'farm'
p582
aS'which'
p583
aS'is'
p584
aS'now'
p585
aS'overgrown'
p586
aS'with'
p587
aS'brush'
p588
aS'and'
p589
aS'brambles'
p590
aS'.'
p591
asg54
(lp592
VHe
p593
ag79
aVabout
p594
aVforty
p595
aVyear
p596
aVold
p597
ag65
aVfrugal
p598
aVand
p599
aVindustrious
p600
ag65
aVand
p601
ag544
ag83
aVliving
p602
aVfrom
p603
aVthe
p604
aVlittle
p605
aVfarm
p606
aVwhich
p607
ag145
aVnow
p608
aVovergrow
p609
aVwith
p610
aVbrush
p611
aVand
p612
aVbramble
p613
ag87
asg88
(lp614
g90
ag90
ag90
ag90
ag90
ag90
ag90
ag90
ag90
ag90
ag90
ag90
ag90
ag90
ag90
ag90
ag90
ag90
ag90
ag90
ag90
ag90
ag90
ag90
ag90
ag90
ag90
ag90
asg95
(lp615
g155
ag108
ag97
ag102
ag99
ag101
ag104
ag101
ag156
ag101
ag104
ag156
ag108
ag100
ag102
ag97
ag100
ag101
ag102
ag450
ag107
ag157
ag109
ag97
ag101
ag156
ag99
ag110
asg111
VHe was about forty years old, frugal and industrious, and made a living from the little farm which is now overgrown with brush and brambles.
p616
sba(i__main__
Sentence
p617
(dp618
g17
I10
sg18
(lp619
S'He'
p620
aS'and'
p621
aS'his'
p622
aS'sister-in-law'
p623
aS'were'
p624
aS'rather'
p625
aS'tabooed'
p626
aS'by'
p627
aS'their'
p628
aS'neighbors'
p629
aS','
p630
aS'who'
p631
aS'seemed'
p632
aS'to'
p633
aS'think'
p634
aS'that'
p635
aS'they'
p636
aS'were'
p637
aS'seen'
p638
aS'too'
p639
aS'frequently'
p640
aS'together'
p641
aS'--'
p642
aS'not'
p643
aS'entirely'
p644
aS'their'
p645
aS'fault'
p646
aS','
p647
aS'for'
p648
aS'at'
p649
aS'these'
p650
aS'times'
p651
aS'they'
p652
aS'evidently'
p653
aS'did'
p654
aS'not'
p655
aS'challenge'
p656
aS'observation'
p657
aS'.'
p658
asg54
(lp659
VHe
p660
aVand
p661
aVhis
p662
aVsister-in-law
p663
aVbe
p664
aVrather
p665
aVtaboo
p666
aVby
p667
aVtheir
p668
aVneighbor
p669
ag65
aVwho
p670
aVseem
p671
aVto
p672
aVthink
p673
aVthat
p674
aVthey
p675
ag664
aVsee
p676
aVtoo
p677
aVfrequently
p678
aVtogether
p679
aV--
p680
aVnot
p681
aVentirely
p682
aVtheir
p683
aVfault
p684
ag65
aVfor
p685
aVat
p686
aVthese
p687
aVtime
p688
aVthey
p689
aVevidently
p690
aVdo
p691
aVnot
p692
aVchallenge
p693
aVobservation
p694
ag87
asg88
(lp695
g90
ag90
ag90
ag90
ag90
ag90
ag90
ag90
ag90
ag90
ag90
ag90
ag90
ag90
ag90
ag90
ag90
ag90
ag90
ag90
ag90
ag90
ag90
ag90
ag90
ag90
ag90
ag90
ag90
ag90
ag90
ag90
ag90
ag90
ag90
ag90
ag90
ag90
ag90
asg95
(lp696
g155
ag156
ag264
ag102
ag108
ag157
ag109
ag97
ag264
ag99
ag104
ag510
ag108
ag106
ag158
ag97
ag155
ag108
ag109
ag157
ag157
ag157
ag334
ag157
ag157
ag264
ag102
ag104
ag97
ag97
ag100
ag99
ag155
ag157
ag108
ag157
ag158
ag102
ag110
asg111
VHe and his sister-in-law were rather tabooed by their neighbors, who seemed to think that they were seen too frequently together--not entirely their fault, for at these times they evidently did not challenge observation.
p697
sba(i__main__
Sentence
p698
(dp699
g17
I11
sg18
(lp700
S'The'
p701
aS'moral'
p702
aS'code'
p703
aS'of'
p704
aS'rural'
p705
aS'Missouri'
p706
aS'is'
p707
aS'stern'
p708
aS'and'
p709
aS'exacting'
p710
aS'.'
p711
asg54
(lp712
VThe
p713
aVmoral
p714
aVcode
p715
aVof
p716
aVrural
p717
aVMissouri
p718
ag145
aVstern
p719
aVand
p720
aVexact
p721
ag87
asg88
(lp722
g90
ag90
ag90
ag90
ag90
aVLOCATION
p723
ag90
ag90
ag90
ag90
ag90
asg95
(lp724
g100
ag101
ag102
ag97
ag101
ag103
ag107
ag101
ag156
ag105
ag110
asg111
VThe moral code of rural Missouri is stern and exacting.
p725
sba(i__main__
Sentence
p726
(dp727
g17
I12
sg18
(lp728
S'Mrs.'
p729
aS'Harding'
p730
aS'was'
p731
aS'a'
p732
aS'gentle'
p733
aS','
p734
aS'sad-eyed'
p735
aS'woman'
p736
aS','
p737
aS'lacking'
p738
aS'a'
p739
aS'left'
p740
aS'foot'
p741
aS'.'
p742
asg54
(lp743
VMrs.
p744
aVHarding
p745
ag79
ag83
aVgentle
p746
ag65
aVsad-eyed
p747
aVwoman
p748
ag65
aVlack
p749
ag83
aVleft
p750
aVfoot
p751
ag87
asg88
(lp752
g90
aVPERSON
p753
ag90
ag90
ag90
ag90
ag90
ag90
ag90
ag90
ag90
ag90
ag90
ag90
asg95
(lp754
g103
ag103
ag108
ag100
ag101
ag104
ag101
ag102
ag104
ag105
ag100
ag102
ag102
ag110
asg111
VMrs. Harding was a gentle, sad-eyed woman, lacking a left foot.
p755
sba(i__main__
Sentence
p756
(dp757
g17
I13
sg18
(lp758
S'At'
p759
aS'some'
p760
aS'time'
p761
aS'in'
p762
aS'1884'
p763
aS'it'
p764
aS'became'
p765
aS'known'
p766
aS'that'
p767
aS'she'
p768
aS'had'
p769
aS'gone'
p770
aS'to'
p771
aS'visit'
p772
aS'her'
p773
aS'mother'
p774
aS'in'
p775
aS'Iowa'
p776
aS'.'
p777
asg54
(lp778
VAt
p779
aVsome
p780
aVtime
p781
aVin
p782
aV1884
p783
aVit
p784
aVbecome
p785
aVknow
p786
aVthat
p787
aVshe
p788
aVhave
p789
aVgo
p790
aVto
p791
aVvisit
p792
aVher
p793
aVmother
p794
aVin
p795
aVIowa
p796
ag87
asg88
(lp797
g90
ag90
ag90
ag90
ag90
ag90
ag90
ag90
ag90
ag90
ag90
ag90
ag90
ag90
ag90
ag90
ag90
aVLOCATION
p798
ag90
asg95
(lp799
g97
ag100
ag102
ag97
ag98
ag155
ag108
ag109
ag97
ag155
ag108
ag109
ag106
ag158
ag264
ag102
ag97
ag103
ag110
asg111
VAt some time in 1884 it became known that she had gone to visit her mother in Iowa.
p800
sba(i__main__
Sentence
p801
(dp802
g17
I14
sg18
(lp803
S'That'
p804
aS'was'
p805
aS'what'
p806
aS'her'
p807
aS'husband'
p808
aS'said'
p809
aS'in'
p810
aS'reply'
p811
aS'to'
p812
aS'inquiries'
p813
aS','
p814
aS'and'
p815
aS'his'
p816
aS'manner'
p817
aS'of'
p818
aS'saying'
p819
aS'it'
p820
aS'did'
p821
aS'not'
p822
aS'encourage'
p823
aS'further'
p824
aS'questioning'
p825
aS'.'
p826
asg54
(lp827
VThat
p828
ag79
aVwhat
p829
aVher
p830
aVhusband
p831
aVsay
p832
aVin
p833
aVreply
p834
aVto
p835
aVinquiry
p836
ag65
aVand
p837
aVhis
p838
aVmanner
p839
aVof
p840
aVsay
p841
aVit
p842
ag691
aVnot
p843
aVencourage
p844
aVfurther
p845
aVquestioning
p846
ag87
asg88
(lp847
g90
ag90
ag90
ag90
ag90
ag90
ag90
ag90
ag90
ag90
ag90
ag90
ag90
ag90
ag90
ag90
ag90
ag90
ag90
ag90
ag90
ag90
ag90
asg95
(lp848
g100
ag108
ag510
ag264
ag102
ag108
ag97
ag102
ag106
ag99
ag104
ag156
ag264
ag102
ag97
ag105
ag155
ag108
ag157
ag158
ag101
ag102
ag110
asg111
VThat was what her husband said in reply to inquiries, and his manner of saying it did not encourage further questioning.
p849
sba(i__main__
Sentence
p850
(dp851
g17
I15
sg18
(lp852
S'She'
p853
aS'never'
p854
aS'came'
p855
aS'back'
p856
aS','
p857
aS'and'
p858
aS'two'
p859
aS'years'
p860
aS'later'
p861
aS','
p862
aS'without'
p863
aS'selling'
p864
aS'his'
p865
aS'farm'
p866
aS'or'
p867
aS'anything'
p868
aS'that'
p869
aS'was'
p870
aS'his'
p871
aS','
p872
aS'or'
p873
aS'appointing'
p874
aS'an'
p875
aS'agent'
p876
aS'to'
p877
aS'look'
p878
aS'after'
p879
aS'his'
p880
aS'interests'
p881
aS','
p882
aS'or'
p883
aS'removing'
p884
aS'his'
p885
aS'household'
p886
aS'goods'
p887
aS','
p888
aS'Harding'
p889
aS','
p890
aS'with'
p891
aS'the'
p892
aS'rest'
p893
aS'of'
p894
aS'the'
p895
aS'family'
p896
aS','
p897
aS'left'
p898
aS'the'
p899
aS'country'
p900
aS'.'
p901
asg54
(lp902
VShe
p903
aVnever
p904
aVcome
p905
aVback
p906
ag65
aVand
p907
aVtwo
p908
aVyear
p909
aVlater
p910
ag65
aVwithout
p911
aVselling
p912
aVhis
p913
aVfarm
p914
aVor
p915
aVanything
p916
aVthat
p917
ag79
aVhis
p918
ag65
aVor
p919
aVappoint
p920
aVan
p921
aVagent
p922
aVto
p923
aVlook
p924
aVafter
p925
aVhis
p926
aVinterest
p927
ag65
aVor
p928
aVremove
p929
aVhis
p930
aVhousehold
p931
aVgood
p932
ag65
aVHarding
p933
ag65
aVwith
p934
aVthe
p935
aVrest
p936
aVof
p937
aVthe
p938
aVfamily
p939
ag65
aVleave
p940
aVthe
p941
aVcountry
p942
ag87
asg88
(lp943
g90
ag90
ag90
ag90
ag90
ag90
ag90
ag90
ag90
ag90
ag90
ag90
ag90
ag90
ag90
ag90
ag90
ag90
ag90
ag90
ag90
ag90
ag90
ag90
ag90
ag90
ag90
ag90
ag90
ag90
ag90
ag90
ag90
ag90
ag90
ag90
aVPERSON
p944
ag90
ag90
ag90
ag90
ag90
ag90
ag90
ag90
ag90
ag90
ag90
ag90
asg95
(lp945
g155
ag157
ag108
ag157
ag104
ag156
ag98
ag99
aS'RBR'
p946
ag104
ag97
ag102
ag264
ag102
ag156
ag102
ag97
ag108
ag264
ag104
ag156
ag105
ag100
ag102
ag106
ag158
ag97
ag264
ag99
ag104
ag156
ag105
ag264
ag102
ag99
ag104
ag103
ag104
ag97
ag100
ag102
ag97
ag100
ag102
ag104
ag109
ag100
ag102
ag110
asg111
VShe never came back, and two years later, without selling his farm or anything that was his, or appointing an agent to look after his interests, or removing his household goods, Harding, with the rest of the family, left the country.
p947
sba(i__main__
Sentence
p948
(dp949
g17
I16
sg18
(lp950
S'Nobody'
p951
aS'knew'
p952
aS'whither'
p953
aS'he'
p954
aS'went'
p955
aS';'
p956
aS'nobody'
p957
aS'at'
p958
aS'that'
p959
aS'time'
p960
aS'cared'
p961
aS'.'
p962
asg54
(lp963
VNobody
p964
aVknow
p965
aVwhither
p966
aVhe
p967
aVgo
p968
ag314
aVnobody
p969
aVat
p970
aVthat
p971
aVtime
p972
aVcare
p973
ag87
asg88
(lp974
g90
ag90
ag90
ag90
ag90
ag90
ag90
ag90
ag90
ag90
ag90
ag90
asg95
(lp975
g103
ag108
ag102
ag155
ag108
ag334
ag102
ag97
ag100
ag102
ag108
ag110
asg111
VNobody knew whither he went; nobody at that time cared.
p976
sba(i__main__
Sentence
p977
(dp978
g17
I17
sg18
(lp979
S'Naturally'
p980
aS','
p981
aS'whatever'
p982
aS'was'
p983
aS'movable'
p984
aS'about'
p985
aS'the'
p986
aS'place'
p987
aS'soon'
p988
aS'disappeared'
p989
aS'and'
p990
aS'the'
p991
aS'deserted'
p992
aS'house'
p993
aS'became'
p994
aS'``'
p995
aS'haunted'
p996
aS"''"
p997
aS'in'
p998
aS'the'
p999
aS'manner'
p1000
aS'of'
p1001
aS'its'
p1002
aS'kind'
p1003
aS'.'
p1004
asg54
(lp1005
VNaturally
p1006
ag65
aVwhatever
p1007
ag79
aVmovable
p1008
aVabout
p1009
aVthe
p1010
aVplace
p1011
aVsoon
p1012
aVdisappear
p1013
aVand
p1014
aVthe
p1015
aVdeserted
p1016
aVhouse
p1017
ag785
aV``
p1018
aVhaunt
p1019
aV''
p1020
aVin
p1021
aVthe
p1022
aVmanner
p1023
aVof
p1024
aVit
p1025
aVkind
p1026
ag87
asg88
(lp1027
g90
ag90
ag90
ag90
ag90
ag90
ag90
ag90
ag90
ag90
ag90
ag90
ag90
ag90
ag90
ag90
ag90
ag90
ag90
ag90
ag90
ag90
ag90
ag90
ag90
asg95
(lp1028
g157
ag104
ag157
ag108
ag101
ag97
ag100
ag102
ag157
ag109
ag156
ag100
ag101
ag102
ag108
ag266
ag109
ag267
ag97
ag100
ag102
ag97
ag264
ag102
ag110
asg111
VNaturally, whatever was movable about the place soon disappeared and the deserted house became "haunted" in the manner of its kind.
p1029
sba(i__main__
Sentence
p1030
(dp1031
g17
I18
sg18
(lp1032
S'One'
p1033
aS'summer'
p1034
aS'evening'
p1035
aS','
p1036
aS'four'
p1037
aS'or'
p1038
aS'five'
p1039
aS'years'
p1040
aS'later'
p1041
aS','
p1042
aS'the'
p1043
aS'Rev'
p1044
aS'.'
p1045
asg54
(lp1046
VOne
p1047
aVsummer
p1048
aVevening
p1049
ag65
aVfour
p1050
aVor
p1051
aVfive
p1052
aVyear
p1053
aVlater
p1054
ag65
aVthe
p1055
aVRev
p1056
ag87
asg88
(lp1057
g90
ag90
ag90
ag90
ag90
ag90
ag90
ag90
ag90
ag90
ag90
ag90
ag90
asg95
(lp1058
g98
ag102
ag102
ag104
ag98
ag156
ag98
ag99
ag946
ag104
ag100
ag103
ag110
asg111
VOne summer evening, four or five years later, the Rev.
p1059
sba(i__main__
Sentence
p1060
(dp1061
g17
I19
sg18
(lp1062
S'J.'
p1063
aS'Gruber'
p1064
aS','
p1065
aS'of'
p1066
aS'Norton'
p1067
aS','
p1068
aS'and'
p1069
aS'a'
p1070
aS'Maysville'
p1071
aS'attorney'
p1072
aS'named'
p1073
aS'Hyatt'
p1074
aS'met'
p1075
aS'on'
p1076
aS'horseback'
p1077
aS'in'
p1078
aS'front'
p1079
aS'of'
p1080
aS'the'
p1081
aS'Harding'
p1082
aS'place'
p1083
aS'.'
p1084
asg54
(lp1085
VJ.
p1086
aVGruber
p1087
ag65
aVof
p1088
aVNorton
p1089
ag65
aVand
p1090
ag83
aVMaysville
p1091
aVattorney
p1092
aVname
p1093
aVHyatt
p1094
aVmet
p1095
aVon
p1096
aVhorseback
p1097
aVin
p1098
aVfront
p1099
aVof
p1100
aVthe
p1101
aVHarding
p1102
aVplace
p1103
ag87
asg88
(lp1104
VPERSON
p1105
aVPERSON
p1106
ag90
ag90
aVPERSON
p1107
ag90
ag90
ag90
aVLOCATION
p1108
ag90
ag90
aVPERSON
p1109
ag90
ag90
ag90
ag90
ag90
ag90
ag90
ag90
ag90
ag90
asg95
(lp1110
g103
ag103
ag104
ag97
ag103
ag104
ag156
ag100
ag103
ag102
ag108
ag103
ag102
ag97
ag102
ag97
ag102
ag97
ag100
ag103
ag102
ag110
asg111
VJ. Gruber, of Norton, and a Maysville attorney named Hyatt met on horseback in front of the Harding place.
p1111
sba(i__main__
Sentence
p1112
(dp1113
g17
I20
sg18
(lp1114
S'Having'
p1115
aS'business'
p1116
aS'matters'
p1117
aS'to'
p1118
aS'discuss'
p1119
aS','
p1120
aS'they'
p1121
aS'hitched'
p1122
aS'their'
p1123
aS'animals'
p1124
aS'and'
p1125
aS'going'
p1126
aS'to'
p1127
aS'the'
p1128
aS'house'
p1129
aS'sat'
p1130
aS'on'
p1131
aS'the'
p1132
aS'porch'
p1133
aS'to'
p1134
aS'talk'
p1135
aS'.'
p1136
asg54
(lp1137
VHaving
p1138
aVbusiness
p1139
aVmatter
p1140
aVto
p1141
aVdiscuss
p1142
ag65
aVthey
p1143
aVhitch
p1144
aVtheir
p1145
aVanimal
p1146
aVand
p1147
aVgo
p1148
aVto
p1149
aVthe
p1150
aVhouse
p1151
aVsat
p1152
aVon
p1153
aVthe
p1154
aVporch
p1155
aVto
p1156
aVtalk
p1157
ag87
asg88
(lp1158
g90
ag90
ag90
ag90
ag90
ag90
ag90
ag90
ag90
ag90
ag90
ag90
ag90
ag90
ag90
ag90
ag90
ag90
ag90
ag90
ag90
ag90
asg95
(lp1159
g105
ag102
ag99
ag106
ag158
ag104
ag155
ag108
ag264
ag99
ag156
ag105
ag106
ag100
ag102
ag102
ag97
ag100
ag102
ag106
ag158
ag110
asg111
VHaving business matters to discuss, they hitched their animals and going to the house sat on the porch to talk.
p1160
sba(i__main__
Sentence
p1161
(dp1162
g17
I21
sg18
(lp1163
S'Some'
p1164
aS'humorous'
p1165
aS'reference'
p1166
aS'to'
p1167
aS'the'
p1168
aS'somber'
p1169
aS'reputation'
p1170
aS'of'
p1171
aS'the'
p1172
aS'place'
p1173
aS'was'
p1174
aS'made'
p1175
aS'and'
p1176
aS'forgotten'
p1177
aS'as'
p1178
aS'soon'
p1179
aS'as'
p1180
aS'uttered'
p1181
aS','
p1182
aS'and'
p1183
aS'they'
p1184
aS'talked'
p1185
aS'of'
p1186
aS'their'
p1187
aS'business'
p1188
aS'affairs'
p1189
aS'until'
p1190
aS'it'
p1191
aS'grew'
p1192
aS'almost'
p1193
aS'dark'
p1194
aS'.'
p1195
asg54
(lp1196
VSome
p1197
aVhumorous
p1198
aVreference
p1199
aVto
p1200
aVthe
p1201
aVsomber
p1202
aVreputation
p1203
aVof
p1204
aVthe
p1205
aVplace
p1206
ag79
ag544
aVand
p1207
aVforget
p1208
ag83
aVsoon
p1209
ag83
aVutter
p1210
ag65
aVand
p1211
aVthey
p1212
aVtalk
p1213
aVof
p1214
aVtheir
p1215
aVbusiness
p1216
aVaffair
p1217
aVuntil
p1218
aVit
p1219
aVgrow
p1220
aValmost
p1221
aVdark
p1222
ag87
asg88
(lp1223
g90
ag90
ag90
ag90
ag90
ag90
ag90
ag90
ag90
ag90
ag90
ag90
ag90
ag90
ag90
ag90
ag90
ag90
ag90
ag90
ag90
ag90
ag90
ag90
ag90
ag90
ag90
ag90
ag90
ag90
ag90
ag90
asg95
(lp1224
g100
ag101
ag102
ag106
ag100
ag102
ag102
ag97
ag100
ag102
ag108
ag109
ag156
ag109
ag97
ag157
ag97
ag109
ag104
ag156
ag155
ag108
ag97
ag264
ag102
ag99
ag97
ag155
ag108
ag157
ag101
ag110
asg111
VSome humorous reference to the somber reputation of the place was made and forgotten as soon as uttered, and they talked of their business affairs until it grew almost dark.
p1225
sba(i__main__
Sentence
p1226
(dp1227
g17
I22
sg18
(lp1228
S'The'
p1229
aS'evening'
p1230
aS'was'
p1231
aS'oppressively'
p1232
aS'warm'
p1233
aS','
p1234
aS'the'
p1235
aS'air'
p1236
aS'stagnant'
p1237
aS'.'
p1238
asg54
(lp1239
VThe
p1240
aVevening
p1241
ag79
aVoppressively
p1242
aVwarm
p1243
ag65
aVthe
p1244
aVair
p1245
aVstagnant
p1246
ag87
asg88
(lp1247
g90
ag90
ag90
ag90
ag90
ag90
ag90
ag90
ag90
ag90
asg95
(lp1248
g100
ag102
ag108
ag157
ag102
ag104
ag100
ag102
ag102
ag110
asg111
VThe evening was oppressively warm, the air stagnant.
p1249
sba(i__main__
Sentence
p1250
(dp1251
g17
I23
sg18
(lp1252
S'Presently'
p1253
aS'both'
p1254
aS'men'
p1255
aS'started'
p1256
aS'from'
p1257
aS'their'
p1258
aS'seats'
p1259
aS'in'
p1260
aS'surprise'
p1261
aS':'
p1262
aS'a'
p1263
aS'long'
p1264
aS'vine'
p1265
aS'that'
p1266
aS'covered'
p1267
aS'half'
p1268
aS'the'
p1269
aS'front'
p1270
aS'of'
p1271
aS'the'
p1272
aS'house'
p1273
aS'and'
p1274
aS'dangled'
p1275
aS'its'
p1276
aS'branches'
p1277
aS'from'
p1278
aS'the'
p1279
aS'edge'
p1280
aS'of'
p1281
aS'the'
p1282
aS'porch'
p1283
aS'above'
p1284
aS'them'
p1285
aS'was'
p1286
aS'visibly'
p1287
aS'and'
p1288
aS'audibly'
p1289
aS'agitated'
p1290
aS','
p1291
aS'shaking'
p1292
aS'violently'
p1293
aS'in'
p1294
aS'every'
p1295
aS'stem'
p1296
aS'and'
p1297
aS'leaf'
p1298
aS'.'
p1299
asg54
(lp1300
VPresently
p1301
aVboth
p1302
aVmen
p1303
aVstart
p1304
aVfrom
p1305
aVtheir
p1306
aVseat
p1307
aVin
p1308
aVsurprise
p1309
aV:
p1310
ag83
aVlong
p1311
aVvine
p1312
aVthat
p1313
aVcover
p1314
aVhalf
p1315
aVthe
p1316
aVfront
p1317
aVof
p1318
aVthe
p1319
aVhouse
p1320
aVand
p1321
aVdangle
p1322
aVit
p1323
aVbranch
p1324
aVfrom
p1325
aVthe
p1326
aVedge
p1327
aVof
p1328
aVthe
p1329
aVporch
p1330
aVabove
p1331
aVthem
p1332
ag79
aVvisibly
p1333
aVand
p1334
aVaudibly
p1335
aVagitate
p1336
ag65
aVshaking
p1337
aVviolently
p1338
aVin
p1339
aVevery
p1340
aVstem
p1341
aVand
p1342
aVleaf
p1343
ag87
asg88
(lp1344
g90
ag90
ag90
ag90
ag90
ag90
ag90
ag90
ag90
ag90
ag90
ag90
ag90
ag90
ag90
ag90
ag90
ag90
ag90
ag90
ag90
ag90
ag90
ag90
ag90
ag90
ag90
ag90
ag90
ag90
ag90
ag90
ag90
ag90
ag90
ag90
ag90
ag90
ag90
ag90
ag90
ag90
ag90
ag90
ag90
ag90
ag90
asg95
(lp1345
g157
ag100
ag99
ag108
ag97
ag264
ag99
ag97
ag102
ag334
ag100
ag101
ag102
ag450
ag109
ag102
ag100
ag102
ag97
ag100
ag102
ag156
ag108
ag264
ag99
ag97
ag100
ag102
ag97
ag100
ag102
ag97
ag155
ag108
ag157
ag156
ag157
ag109
ag104
ag102
ag157
ag97
ag100
ag102
ag156
ag102
ag110
asg111
VPresently both men started from their seats in surprise: a long vine that covered half the front of the house and dangled its branches from the edge of the porch above them was visibly and audibly agitated, shaking violently in every stem and leaf.
p1346
sba(i__main__
Sentence
p1347
(dp1348
g17
I24
sg18
(lp1349
S'``'
p1350
aS'We'
p1351
aS'shall'
p1352
aS'have'
p1353
aS'a'
p1354
aS'storm'
p1355
aS','
p1356
aS"''"
p1357
aS'Hyatt'
p1358
aS'exclaimed'
p1359
aS'.'
p1360
asg54
(lp1361
V``
p1362
aVWe
p1363
aVshall
p1364
aVhave
p1365
ag83
aVstorm
p1366
ag65
aV''
p1367
aVHyatt
p1368
aVexclaim
p1369
ag87
asg88
(lp1370
g90
ag90
ag90
ag90
ag90
ag90
ag90
ag90
aVPERSON
p1371
ag90
ag90
asg95
(lp1372
g266
ag155
ag265
ag158
ag100
ag102
ag104
ag267
ag103
ag108
ag110
asg111
V"We shall have a storm," Hyatt exclaimed.
p1373
sba(i__main__
Sentence
p1374
(dp1375
g17
I25
sg18
(lp1376
S'Gruber'
p1377
aS'said'
p1378
aS'nothing'
p1379
aS','
p1380
aS'but'
p1381
aS'silently'
p1382
aS'directed'
p1383
aS'the'
p1384
aS'other'
p1385
aS"'s"
p1386
aS'attention'
p1387
aS'to'
p1388
aS'the'
p1389
aS'foliage'
p1390
aS'of'
p1391
aS'adjacent'
p1392
aS'trees'
p1393
aS','
p1394
aS'which'
p1395
aS'showed'
p1396
aS'no'
p1397
aS'movement'
p1398
aS';'
p1399
aS'even'
p1400
aS'the'
p1401
aS'delicate'
p1402
aS'tips'
p1403
aS'of'
p1404
aS'the'
p1405
aS'boughs'
p1406
aS'silhouetted'
p1407
aS'against'
p1408
aS'the'
p1409
aS'clear'
p1410
aS'sky'
p1411
aS'were'
p1412
aS'motionless'
p1413
aS'.'
p1414
asg54
(lp1415
VGruber
p1416
ag832
aVnothing
p1417
ag65
aVbut
p1418
aVsilently
p1419
aVdirect
p1420
aVthe
p1421
aVother
p1422
aV's
p1423
aVattention
p1424
aVto
p1425
aVthe
p1426
aVfoliage
p1427
aVof
p1428
aVadjacent
p1429
aVtree
p1430
ag65
aVwhich
p1431
aVshow
p1432
aVno
p1433
aVmovement
p1434
ag314
aVeven
p1435
aVthe
p1436
aVdelicate
p1437
aVtip
p1438
aVof
p1439
aVthe
p1440
aVbough
p1441
aVsilhouette
p1442
aVagainst
p1443
aVthe
p1444
aVclear
p1445
aVsky
p1446
ag664
aVmotionless
p1447
ag87
asg88
(lp1448
VPERSON
p1449
ag90
ag90
ag90
ag90
ag90
ag90
ag90
ag90
ag90
ag90
ag90
ag90
ag90
ag90
ag90
ag90
ag90
ag90
ag90
ag90
ag90
ag90
ag90
ag90
ag90
ag90
ag90
ag90
ag90
ag90
ag90
ag90
ag90
ag90
ag90
ag90
ag90
asg95
(lp1450
g103
ag108
ag102
ag104
ag156
ag157
ag109
ag100
ag101
aS'POS'
p1451
ag102
ag106
ag100
ag102
ag97
ag102
ag99
ag104
ag450
ag108
ag100
ag102
ag334
ag157
ag100
ag102
ag99
ag97
ag100
ag99
ag108
ag97
ag100
ag101
ag102
ag108
ag102
ag110
asg111
VGruber said nothing, but silently directed the other's attention to the foliage of adjacent trees, which showed no movement; even the delicate tips of the boughs silhouetted against the clear sky were motionless.
p1452
sba(i__main__
Sentence
p1453
(dp1454
g17
I26
sg18
(lp1455
S'They'
p1456
aS'hastily'
p1457
aS'passed'
p1458
aS'down'
p1459
aS'the'
p1460
aS'steps'
p1461
aS'to'
p1462
aS'what'
p1463
aS'had'
p1464
aS'been'
p1465
aS'a'
p1466
aS'lawn'
p1467
aS'and'
p1468
aS'looked'
p1469
aS'upward'
p1470
aS'at'
p1471
aS'the'
p1472
aS'vine'
p1473
aS','
p1474
aS'whose'
p1475
aS'entire'
p1476
aS'length'
p1477
aS'was'
p1478
aS'now'
p1479
aS'visible'
p1480
aS'.'
p1481
asg54
(lp1482
VThey
p1483
aVhastily
p1484
aVpass
p1485
aVdown
p1486
aVthe
p1487
aVstep
p1488
aVto
p1489
aVwhat
p1490
ag789
ag433
ag83
aVlawn
p1491
aVand
p1492
aVlook
p1493
aVupward
p1494
aVat
p1495
aVthe
p1496
aVvine
p1497
ag65
aVwhose
p1498
aVentire
p1499
aVlength
p1500
ag79
aVnow
p1501
aVvisible
p1502
ag87
asg88
(lp1503
g90
ag90
ag90
ag90
ag90
ag90
ag90
ag90
ag90
ag90
ag90
ag90
ag90
ag90
ag90
ag90
ag90
ag90
ag90
ag90
ag90
ag90
ag90
ag90
ag90
ag90
asg95
(lp1504
g155
ag157
ag108
ag97
ag100
ag99
ag106
ag510
ag108
ag109
ag100
ag102
ag156
ag108
ag102
ag97
ag100
ag102
ag104
aS'WP$'
p1505
ag101
ag102
ag108
ag157
ag101
ag110
asg111
VThey hastily passed down the steps to what had been a lawn and looked upward at the vine, whose entire length was now visible.
p1506
sba(i__main__
Sentence
p1507
(dp1508
g17
I27
sg18
(lp1509
S'It'
p1510
aS'continued'
p1511
aS'in'
p1512
aS'violent'
p1513
aS'agitation'
p1514
aS','
p1515
aS'yet'
p1516
aS'they'
p1517
aS'could'
p1518
aS'discern'
p1519
aS'no'
p1520
aS'disturbing'
p1521
aS'cause'
p1522
aS'.'
p1523
asg54
(lp1524
VIt
p1525
aVcontinue
p1526
aVin
p1527
aVviolent
p1528
aVagitation
p1529
ag65
aVyet
p1530
aVthey
p1531
aVcould
p1532
aVdiscern
p1533
aVno
p1534
aVdisturbing
p1535
aVcause
p1536
ag87
asg88
(lp1537
g90
ag90
ag90
ag90
ag90
ag90
ag90
ag90
ag90
ag90
ag90
ag90
ag90
ag90
asg95
(lp1538
g155
ag108
ag97
ag102
ag102
ag104
ag156
ag155
ag265
ag158
ag100
ag101
ag102
ag110
asg111
VIt continued in violent agitation, yet they could discern no disturbing cause.
p1539
sba(i__main__
Sentence
p1540
(dp1541
g17
I28
sg18
(lp1542
S'``'
p1543
aS'Let'
p1544
aS'us'
p1545
aS'leave'
p1546
aS','
p1547
aS"''"
p1548
aS'said'
p1549
aS'the'
p1550
aS'minister'
p1551
aS'.'
p1552
asg54
(lp1553
V``
p1554
aVLet
p1555
aVu
p1556
aVleave
p1557
ag65
aV''
p1558
ag832
aVthe
p1559
aVminister
p1560
ag87
asg88
(lp1561
g90
ag90
ag90
ag90
ag90
ag90
ag90
ag90
ag90
ag90
asg95
(lp1562
g266
ag103
ag155
ag333
ag104
ag267
ag108
ag100
ag102
ag110
asg111
V"Let us leave," said the minister.
p1563
sba(i__main__
Sentence
p1564
(dp1565
g17
I29
sg18
(lp1566
S'And'
p1567
aS'leave'
p1568
aS'they'
p1569
aS'did'
p1570
aS'.'
p1571
asg54
(lp1572
VAnd
p1573
aVleave
p1574
aVthey
p1575
ag691
ag87
asg88
(lp1576
g90
ag90
ag90
ag90
ag90
asg95
(lp1577
g156
ag108
ag155
ag108
ag110
asg111
VAnd leave they did.
p1578
sba(i__main__
Sentence
p1579
(dp1580
g17
I30
sg18
(lp1581
S'Forgetting'
p1582
aS'that'
p1583
aS'they'
p1584
aS'had'
p1585
aS'been'
p1586
aS'traveling'
p1587
aS'in'
p1588
aS'opposite'
p1589
aS'directions'
p1590
aS','
p1591
aS'they'
p1592
aS'rode'
p1593
aS'away'
p1594
aS'together'
p1595
aS'.'
p1596
asg54
(lp1597
VForgetting
p1598
aVthat
p1599
aVthey
p1600
ag789
ag433
aVtravel
p1601
aVin
p1602
aVopposite
p1603
aVdirection
p1604
ag65
aVthey
p1605
aVride
p1606
aVaway
p1607
aVtogether
p1608
ag87
asg88
(lp1609
g90
ag90
ag90
ag90
ag90
ag90
ag90
ag90
ag90
ag90
ag90
ag90
ag90
ag90
ag90
asg95
(lp1610
g105
ag97
ag155
ag108
ag109
ag105
ag97
ag101
ag99
ag104
ag155
ag333
ag157
ag157
ag110
asg111
VForgetting that they had been traveling in opposite directions, they rode away together.
p1611
sba(i__main__
Sentence
p1612
(dp1613
g17
I31
sg18
(lp1614
S'They'
p1615
aS'went'
p1616
aS'to'
p1617
aS'Norton'
p1618
aS','
p1619
aS'where'
p1620
aS'they'
p1621
aS'related'
p1622
aS'their'
p1623
aS'strange'
p1624
aS'experience'
p1625
aS'to'
p1626
aS'several'
p1627
aS'discreet'
p1628
aS'friends'
p1629
aS'.'
p1630
asg54
(lp1631
VThey
p1632
ag968
aVto
p1633
aVNorton
p1634
ag65
aVwhere
p1635
aVthey
p1636
aVrelate
p1637
aVtheir
p1638
aVstrange
p1639
aVexperience
p1640
aVto
p1641
aVseveral
p1642
aVdiscreet
p1643
aVfriend
p1644
ag87
asg88
(lp1645
g90
ag90
ag90
aVPERSON
p1646
ag90
ag90
ag90
ag90
ag90
ag90
ag90
ag90
ag90
ag90
ag90
ag90
asg95
(lp1647
g155
ag108
ag106
ag103
ag104
aS'WRB'
p1648
ag155
ag108
ag264
ag102
ag102
ag106
ag101
ag102
ag99
ag110
asg111
VThey went to Norton, where they related their strange experience to several discreet friends.
p1649
sba(i__main__
Sentence
p1650
(dp1651
g17
I32
sg18
(lp1652
S'The'
p1653
aS'next'
p1654
aS'evening'
p1655
aS','
p1656
aS'at'
p1657
aS'about'
p1658
aS'the'
p1659
aS'same'
p1660
aS'hour'
p1661
aS','
p1662
aS'accompanied'
p1663
aS'by'
p1664
aS'two'
p1665
aS'others'
p1666
aS'whose'
p1667
aS'names'
p1668
aS'are'
p1669
aS'not'
p1670
aS'recalled'
p1671
aS','
p1672
aS'they'
p1673
aS'were'
p1674
aS'again'
p1675
aS'on'
p1676
aS'the'
p1677
aS'porch'
p1678
aS'of'
p1679
aS'the'
p1680
aS'Harding'
p1681
aS'house'
p1682
aS','
p1683
aS'and'
p1684
aS'again'
p1685
aS'the'
p1686
aS'mysterious'
p1687
aS'phenomenon'
p1688
aS'occurred'
p1689
aS':'
p1690
aS'the'
p1691
aS'vine'
p1692
aS'was'
p1693
aS'violently'
p1694
aS'agitated'
p1695
aS'while'
p1696
aS'under'
p1697
aS'the'
p1698
aS'closest'
p1699
aS'scrutiny'
p1700
aS'from'
p1701
aS'root'
p1702
aS'to'
p1703
aS'tip'
p1704
aS','
p1705
aS'nor'
p1706
aS'did'
p1707
aS'their'
p1708
aS'combined'
p1709
aS'strength'
p1710
aS'applied'
p1711
aS'to'
p1712
aS'the'
p1713
aS'trunk'
p1714
aS'serve'
p1715
aS'to'
p1716
aS'still'
p1717
aS'it'
p1718
aS'.'
p1719
asg54
(lp1720
VThe
p1721
aVnext
p1722
aVevening
p1723
ag65
aVat
p1724
aVabout
p1725
aVthe
p1726
aVsame
p1727
aVhour
p1728
ag65
aVaccompany
p1729
aVby
p1730
aVtwo
p1731
aVothers
p1732
aVwhose
p1733
aVname
p1734
ag307
aVnot
p1735
aVrecall
p1736
ag65
aVthey
p1737
ag664
aVagain
p1738
aVon
p1739
aVthe
p1740
aVporch
p1741
aVof
p1742
aVthe
p1743
aVHarding
p1744
aVhouse
p1745
ag65
aVand
p1746
aVagain
p1747
aVthe
p1748
aVmysterious
p1749
aVphenomenon
p1750
aVoccur
p1751
ag1310
aVthe
p1752
aVvine
p1753
ag79
aVviolently
p1754
aVagitate
p1755
aVwhile
p1756
aVunder
p1757
aVthe
p1758
aVclose
p1759
aVscrutiny
p1760
aVfrom
p1761
aVroot
p1762
aVto
p1763
aVtip
p1764
ag65
aVnor
p1765
ag691
aVtheir
p1766
aVcombine
p1767
aVstrength
p1768
aVapply
p1769
aVto
p1770
aVthe
p1771
aVtrunk
p1772
aVserve
p1773
aVto
p1774
aVstill
p1775
aVit
p1776
ag87
asg88
(lp1777
g90
ag90
ag90
ag90
ag90
ag90
ag90
ag90
ag90
ag90
ag90
ag90
ag90
ag90
ag90
ag90
ag90
ag90
ag90
ag90
ag90
ag90
ag90
ag90
ag90
ag90
ag90
ag90
aVPERSON
p1778
ag90
ag90
ag90
ag90
ag90
ag90
ag90
ag90
ag90
ag90
ag90
ag90
ag90
ag90
ag90
ag90
ag90
ag90
ag90
ag90
ag90
ag90
ag90
ag90
ag90
ag90
ag90
ag90
ag90
ag90
ag90
ag90
ag90
ag90
ag90
ag90
ag90
ag90
asg95
(lp1779
g100
ag101
ag102
ag104
ag97
ag157
ag100
ag101
ag102
ag104
ag108
ag97
ag98
ag99
ag1505
ag99
ag333
ag157
ag109
ag104
ag155
ag108
ag157
ag97
ag100
ag102
ag97
ag100
ag103
ag102
ag104
ag156
ag157
ag100
ag101
ag102
ag108
ag334
ag100
ag102
ag108
ag157
ag109
ag97
ag97
ag100
aS'JJS'
p1780
ag102
ag97
ag102
ag106
ag158
ag104
ag156
ag108
ag264
ag109
ag102
ag108
ag106
ag100
ag102
ag102
ag106
ag157
ag155
ag110
asg111
VThe next evening, at about the same hour, accompanied by two others whose names are not recalled, they were again on the porch of the Harding house, and again the mysterious phenomenon occurred: the vine was violently agitated while under the closest scrutiny from root to tip, nor did their combined strength applied to the trunk serve to still it.
p1781
sba(i__main__
Sentence
p1782
(dp1783
g17
I33
sg18
(lp1784
S'After'
p1785
aS'an'
p1786
aS'hour'
p1787
aS"'s"
p1788
aS'observation'
p1789
aS'they'
p1790
aS'retreated'
p1791
aS','
p1792
aS'no'
p1793
aS'less'
p1794
aS'wise'
p1795
aS','
p1796
aS'it'
p1797
aS'is'
p1798
aS'thought'
p1799
aS','
p1800
aS'than'
p1801
aS'when'
p1802
aS'they'
p1803
aS'had'
p1804
aS'come'
p1805
aS'.'
p1806
asg54
(lp1807
VAfter
p1808
aVan
p1809
aVhour
p1810
aV's
p1811
aVobservation
p1812
aVthey
p1813
aVretreat
p1814
ag65
aVno
p1815
aVless
p1816
aVwise
p1817
ag65
aVit
p1818
ag145
aVthink
p1819
ag65
aVthan
p1820
aVwhen
p1821
aVthey
p1822
ag789
aVcome
p1823
ag87
asg88
(lp1824
g90
ag90
ag90
ag90
ag90
ag90
ag90
ag90
ag90
ag90
ag90
ag90
ag90
ag90
ag90
ag90
ag90
ag90
ag90
ag90
ag90
ag90
asg95
(lp1825
g97
ag100
ag102
ag1451
ag102
ag155
ag108
ag104
ag100
aS'JJR'
p1826
ag102
ag104
ag155
ag107
ag109
ag104
ag97
ag1648
ag155
ag108
ag109
ag110
asg111
VAfter an hour's observation they retreated, no less wise, it is thought, than when they had come.
p1827
sba(i__main__
Sentence
p1828
(dp1829
g17
I34
sg18
(lp1830
S'No'
p1831
aS'great'
p1832
aS'time'
p1833
aS'was'
p1834
aS'required'
p1835
aS'for'
p1836
aS'these'
p1837
aS'singular'
p1838
aS'facts'
p1839
aS'to'
p1840
aS'rouse'
p1841
aS'the'
p1842
aS'curiosity'
p1843
aS'of'
p1844
aS'the'
p1845
aS'entire'
p1846
aS'neighborhood'
p1847
aS'.'
p1848
asg54
(lp1849
VNo
p1850
aVgreat
p1851
aVtime
p1852
ag79
aVrequire
p1853
aVfor
p1854
aVthese
p1855
aVsingular
p1856
aVfact
p1857
aVto
p1858
aVrouse
p1859
aVthe
p1860
aVcuriosity
p1861
aVof
p1862
aVthe
p1863
aVentire
p1864
aVneighborhood
p1865
ag87
asg88
(lp1866
g90
ag90
ag90
ag90
ag90
ag90
ag90
ag90
ag90
ag90
ag90
ag90
ag90
ag90
ag90
ag90
ag90
ag90
asg95
(lp1867
g100
ag101
ag102
ag108
ag109
ag97
ag100
ag101
ag99
ag106
ag158
ag100
ag102
ag97
ag100
ag101
ag102
ag110
asg111
VNo great time was required for these singular facts to rouse the curiosity of the entire neighborhood.
p1868
sba(i__main__
Sentence
p1869
(dp1870
g17
I35
sg18
(lp1871
S'By'
p1872
aS'day'
p1873
aS'and'
p1874
aS'by'
p1875
aS'night'
p1876
aS'crowds'
p1877
aS'of'
p1878
aS'persons'
p1879
aS'assembled'
p1880
aS'at'
p1881
aS'the'
p1882
aS'Harding'
p1883
aS'house'
p1884
aS'``'
p1885
aS'seeking'
p1886
aS'a'
p1887
aS'sign'
p1888
aS'.'
p1889
aS"''"
p1890
asg54
(lp1891
VBy
p1892
aVday
p1893
aVand
p1894
aVby
p1895
aVnight
p1896
aVcrowd
p1897
aVof
p1898
aVperson
p1899
aVassemble
p1900
aVat
p1901
aVthe
p1902
aVHarding
p1903
aVhouse
p1904
aV``
p1905
aVseek
p1906
ag83
aVsign
p1907
ag87
aV''
p1908
asg88
(lp1909
g90
ag90
ag90
ag90
ag90
ag90
ag90
ag90
ag90
ag90
ag90
aVPERSON
p1910
ag90
ag90
ag90
ag90
ag90
ag90
ag90
asg95
(lp1911
g97
ag102
ag156
ag97
ag102
ag99
ag97
ag99
ag109
ag97
ag100
ag103
ag102
ag266
ag105
ag100
ag102
ag110
ag267
asg111
VBy day and by night crowds of persons assembled at the Harding house "seeking a sign."
p1912
sba(i__main__
Sentence
p1913
(dp1914
g17
I36
sg18
(lp1915
S'It'
p1916
aS'does'
p1917
aS'not'
p1918
aS'appear'
p1919
aS'that'
p1920
aS'any'
p1921
aS'found'
p1922
aS'it'
p1923
aS','
p1924
aS'yet'
p1925
aS'so'
p1926
aS'credible'
p1927
aS'were'
p1928
aS'the'
p1929
aS'witnesses'
p1930
aS'mentioned'
p1931
aS'that'
p1932
aS'none'
p1933
aS'doubted'
p1934
aS'the'
p1935
aS'reality'
p1936
aS'of'
p1937
aS'the'
p1938
aS'``'
p1939
aS'manifestations'
p1940
aS"''"
p1941
aS'to'
p1942
aS'which'
p1943
aS'they'
p1944
aS'testified'
p1945
aS'.'
p1946
asg54
(lp1947
VIt
p1948
aVdo
p1949
aVnot
p1950
aVappear
p1951
aVthat
p1952
aVany
p1953
aVfound
p1954
aVit
p1955
ag65
aVyet
p1956
aVso
p1957
aVcredible
p1958
ag664
aVthe
p1959
aVwitness
p1960
aVmention
p1961
aVthat
p1962
aVnone
p1963
aVdoubt
p1964
aVthe
p1965
aVreality
p1966
aVof
p1967
aVthe
p1968
aV``
p1969
aVmanifestation
p1970
aV''
p1971
aVto
p1972
aVwhich
p1973
aVthey
p1974
aVtestify
p1975
ag87
asg88
(lp1976
g90
ag90
ag90
ag90
ag90
ag90
ag90
ag90
ag90
ag90
ag90
ag90
ag90
ag90
ag90
ag90
ag90
ag90
ag90
ag90
ag90
ag90
ag90
ag90
ag90
ag90
ag90
ag90
ag90
ag90
ag90
asg95
(lp1977
g155
ag107
ag157
ag158
ag97
ag100
ag102
ag155
ag104
ag157
ag157
ag101
ag108
ag100
ag99
ag108
ag97
ag102
ag108
ag100
ag102
ag97
ag100
ag266
ag99
ag267
ag106
ag450
ag155
ag108
ag110
asg111
VIt does not appear that any found it, yet so credible were the witnesses mentioned that none doubted the reality of the "manifestations" to which they testified.
p1978
sba(i__main__
Sentence
p1979
(dp1980
g17
I37
sg18
(lp1981
S'By'
p1982
aS'either'
p1983
aS'a'
p1984
aS'happy'
p1985
aS'inspiration'
p1986
aS'or'
p1987
aS'some'
p1988
aS'destructive'
p1989
aS'design'
p1990
aS','
p1991
aS'it'
p1992
aS'was'
p1993
aS'one'
p1994
aS'day'
p1995
aS'proposed'
p1996
aS'--'
p1997
aS'nobody'
p1998
aS'appeared'
p1999
aS'to'
p2000
aS'know'
p2001
aS'from'
p2002
aS'whom'
p2003
aS'the'
p2004
aS'suggestion'
p2005
aS'came-'
p2006
aS'-to'
p2007
aS'dig'
p2008
aS'up'
p2009
aS'the'
p2010
aS'vine'
p2011
aS','
p2012
aS'and'
p2013
aS'after'
p2014
aS'a'
p2015
aS'good'
p2016
aS'deal'
p2017
aS'of'
p2018
aS'debate'
p2019
aS'this'
p2020
aS'was'
p2021
aS'done'
p2022
aS'.'
p2023
asg54
(lp2024
VBy
p2025
aVeither
p2026
ag83
aVhappy
p2027
aVinspiration
p2028
aVor
p2029
aVsome
p2030
aVdestructive
p2031
aVdesign
p2032
ag65
aVit
p2033
ag79
aVone
p2034
aVday
p2035
aVpropose
p2036
aV--
p2037
aVnobody
p2038
aVappear
p2039
aVto
p2040
aVknow
p2041
aVfrom
p2042
aVwhom
p2043
aVthe
p2044
aVsuggestion
p2045
aVcame-
p2046
aV-to
p2047
aVdig
p2048
aVup
p2049
aVthe
p2050
aVvine
p2051
ag65
aVand
p2052
aVafter
p2053
ag83
aVgood
p2054
aVdeal
p2055
aVof
p2056
aVdebate
p2057
aVthis
p2058
ag79
aVdo
p2059
ag87
asg88
(lp2060
g90
ag90
ag90
ag90
ag90
ag90
ag90
ag90
ag90
ag90
ag90
ag90
ag90
ag90
ag90
ag90
ag90
ag90
ag90
ag90
ag90
ag90
ag90
ag90
ag90
ag90
ag90
ag90
ag90
ag90
ag90
ag90
ag90
ag90
ag90
ag90
ag90
ag90
ag90
ag90
ag90
ag90
asg95
(lp2061
g97
ag100
ag100
ag102
ag102
ag156
ag100
ag101
ag102
ag104
ag155
ag108
ag98
ag102
ag108
ag334
ag102
ag108
ag106
ag158
ag97
ag510
ag100
ag102
ag102
aS'-NONE-'
p2062
ag101
aS'RP'
p2063
ag100
ag102
ag104
ag156
ag97
ag100
ag101
ag102
ag97
ag102
ag100
ag108
ag109
ag110
asg111
VBy either a happy inspiration or some destructive design, it was one day proposed--nobody appeared to know from whom the suggestion came- -to dig up the vine, and after a good deal of debate this was done.
p2064
sba(i__main__
Sentence
p2065
(dp2066
g17
I38
sg18
(lp2067
S'Nothing'
p2068
aS'was'
p2069
aS'found'
p2070
aS'but'
p2071
aS'the'
p2072
aS'root'
p2073
aS','
p2074
aS'yet'
p2075
aS'nothing'
p2076
aS'could'
p2077
aS'have'
p2078
aS'been'
p2079
aS'more'
p2080
aS'strange'
p2081
aS'!'
p2082
asg54
(lp2083
VNothing
p2084
ag79
aVfind
p2085
aVbut
p2086
aVthe
p2087
aVroot
p2088
ag65
aVyet
p2089
aVnothing
p2090
aVcould
p2091
aVhave
p2092
ag433
aVmore
p2093
aVstrange
p2094
aV!
p2095
asg88
(lp2096
g90
ag90
ag90
ag90
ag90
ag90
ag90
ag90
ag90
ag90
ag90
ag90
ag90
ag90
ag90
asg95
(lp2097
g102
ag108
ag109
ag156
ag100
ag102
ag104
ag156
ag102
ag265
ag158
ag109
ag946
ag101
ag110
asg111
VNothing was found but the root, yet nothing could have been more strange!
p2098
sba(i__main__
Sentence
p2099
(dp2100
g17
I39
sg18
(lp2101
S'For'
p2102
aS'five'
p2103
aS'or'
p2104
aS'six'
p2105
aS'feet'
p2106
aS'from'
p2107
aS'the'
p2108
aS'trunk'
p2109
aS','
p2110
aS'which'
p2111
aS'had'
p2112
aS'at'
p2113
aS'the'
p2114
aS'surface'
p2115
aS'of'
p2116
aS'the'
p2117
aS'ground'
p2118
aS'a'
p2119
aS'diameter'
p2120
aS'of'
p2121
aS'several'
p2122
aS'inches'
p2123
aS','
p2124
aS'it'
p2125
aS'ran'
p2126
aS'downward'
p2127
aS','
p2128
aS'single'
p2129
aS'and'
p2130
aS'straight'
p2131
aS','
p2132
aS'into'
p2133
aS'a'
p2134
aS'loose'
p2135
aS','
p2136
aS'friable'
p2137
aS'earth'
p2138
aS';'
p2139
aS'then'
p2140
aS'it'
p2141
aS'divided'
p2142
aS'and'
p2143
aS'subdivided'
p2144
aS'into'
p2145
aS'rootlets'
p2146
aS','
p2147
aS'fibers'
p2148
aS'and'
p2149
aS'filaments'
p2150
aS','
p2151
aS'most'
p2152
aS'curiously'
p2153
aS'interwoven'
p2154
aS'.'
p2155
asg54
(lp2156
VFor
p2157
aVfive
p2158
aVor
p2159
aVsix
p2160
aVfoot
p2161
aVfrom
p2162
aVthe
p2163
aVtrunk
p2164
ag65
aVwhich
p2165
ag789
aVat
p2166
aVthe
p2167
aVsurface
p2168
aVof
p2169
aVthe
p2170
aVground
p2171
ag83
aVdiameter
p2172
aVof
p2173
aVseveral
p2174
aVinch
p2175
ag65
aVit
p2176
aVrun
p2177
aVdownward
p2178
ag65
aVsingle
p2179
aVand
p2180
aVstraight
p2181
ag65
aVinto
p2182
ag83
aVloose
p2183
ag65
aVfriable
p2184
aVearth
p2185
ag314
aVthen
p2186
aVit
p2187
aVdivide
p2188
aVand
p2189
aVsubdivide
p2190
aVinto
p2191
aVrootlet
p2192
ag65
aVfiber
p2193
aVand
p2194
aVfilament
p2195
ag65
aVmost
p2196
aVcuriously
p2197
aVinterwoven
p2198
ag87
asg88
(lp2199
g90
ag90
ag90
ag90
ag90
ag90
ag90
ag90
ag90
ag90
ag90
ag90
ag90
ag90
ag90
ag90
ag90
ag90
ag90
ag90
ag90
ag90
ag90
ag90
ag90
ag90
ag90
ag90
ag90
ag90
ag90
ag90
ag90
ag90
ag90
ag90
ag90
ag90
ag90
ag90
ag90
ag90
ag90
ag90
ag90
ag90
ag90
ag90
ag90
ag90
ag90
ag90
ag90
ag90
asg95
(lp2200
g97
ag98
ag156
ag98
ag99
ag97
ag100
ag102
ag104
ag450
ag108
ag97
ag100
ag102
ag97
ag100
ag102
ag100
ag102
ag97
ag101
ag99
ag104
ag155
ag108
ag157
ag104
ag101
ag156
ag101
ag104
ag97
ag100
ag101
ag104
ag101
ag102
ag334
ag157
ag155
ag108
ag156
ag109
ag97
ag99
ag104
ag99
ag156
ag99
ag104
ag1780
ag157
ag157
ag110
asg111
VFor five or six feet from the trunk, which had at the surface of the ground a diameter of several inches, it ran downward, single and straight, into a loose, friable earth; then it divided and subdivided into rootlets, fibers and filaments, most curiously interwoven.
p2201
sba(i__main__
Sentence
p2202
(dp2203
g17
I40
sg18
(lp2204
S'When'
p2205
aS'carefully'
p2206
aS'freed'
p2207
aS'from'
p2208
aS'soil'
p2209
aS'they'
p2210
aS'showed'
p2211
aS'a'
p2212
aS'singular'
p2213
aS'formation'
p2214
aS'.'
p2215
asg54
(lp2216
VWhen
p2217
aVcarefully
p2218
aVfree
p2219
aVfrom
p2220
aVsoil
p2221
aVthey
p2222
aVshow
p2223
ag83
aVsingular
p2224
aVformation
p2225
ag87
asg88
(lp2226
g90
ag90
ag90
ag90
ag90
ag90
ag90
ag90
ag90
ag90
ag90
asg95
(lp2227
g1648
ag157
ag109
ag97
ag102
ag155
ag108
ag100
ag101
ag102
ag110
asg111
VWhen carefully freed from soil they showed a singular formation.
p2228
sba(i__main__
Sentence
p2229
(dp2230
g17
I41
sg18
(lp2231
S'In'
p2232
aS'their'
p2233
aS'ramifications'
p2234
aS'and'
p2235
aS'doublings'
p2236
aS'back'
p2237
aS'upon'
p2238
aS'themselves'
p2239
aS'they'
p2240
aS'made'
p2241
aS'a'
p2242
aS'compact'
p2243
aS'network'
p2244
aS','
p2245
aS'having'
p2246
aS'in'
p2247
aS'size'
p2248
aS'and'
p2249
aS'shape'
p2250
aS'an'
p2251
aS'amazing'
p2252
aS'resemblance'
p2253
aS'to'
p2254
aS'the'
p2255
aS'human'
p2256
aS'figure'
p2257
aS'.'
p2258
asg54
(lp2259
VIn
p2260
aVtheir
p2261
aVramification
p2262
aVand
p2263
aVdoubling
p2264
aVback
p2265
aVupon
p2266
aVthemselves
p2267
aVthey
p2268
ag544
ag83
aVcompact
p2269
aVnetwork
p2270
ag65
aVhave
p2271
aVin
p2272
aVsize
p2273
aVand
p2274
aVshape
p2275
aVan
p2276
aVamazing
p2277
aVresemblance
p2278
aVto
p2279
aVthe
p2280
aVhuman
p2281
aVfigure
p2282
ag87
asg88
(lp2283
g90
ag90
ag90
ag90
ag90
ag90
ag90
ag90
ag90
ag90
ag90
ag90
ag90
ag90
ag90
ag90
ag90
ag90
ag90
ag90
ag90
ag90
ag90
ag90
ag90
ag90
ag90
asg95
(lp2284
g97
ag264
ag99
ag156
ag99
ag157
ag97
ag155
ag155
ag108
ag100
ag102
ag102
ag104
ag105
ag97
ag102
ag156
ag102
ag100
ag102
ag102
ag106
ag100
ag101
ag102
ag110
asg111
VIn their ramifications and doublings back upon themselves they made a compact network, having in size and shape an amazing resemblance to the human figure.
p2285
sba(i__main__
Sentence
p2286
(dp2287
g17
I42
sg18
(lp2288
S'Head'
p2289
aS','
p2290
aS'trunk'
p2291
aS'and'
p2292
aS'limbs'
p2293
aS'were'
p2294
aS'there'
p2295
aS';'
p2296
aS'even'
p2297
aS'the'
p2298
aS'fingers'
p2299
aS'and'
p2300
aS'toes'
p2301
aS'were'
p2302
aS'distinctly'
p2303
aS'defined'
p2304
aS';'
p2305
aS'and'
p2306
aS'many'
p2307
aS'professed'
p2308
aS'to'
p2309
aS'see'
p2310
aS'in'
p2311
aS'the'
p2312
aS'distribution'
p2313
aS'and'
p2314
aS'arrangement'
p2315
aS'of'
p2316
aS'the'
p2317
aS'fibers'
p2318
aS'in'
p2319
aS'the'
p2320
aS'globular'
p2321
aS'mass'
p2322
aS'representing'
p2323
aS'the'
p2324
aS'head'
p2325
aS'a'
p2326
aS'grotesque'
p2327
aS'suggestion'
p2328
aS'of'
p2329
aS'a'
p2330
aS'face'
p2331
aS'.'
p2332
asg54
(lp2333
VHead
p2334
ag65
aVtrunk
p2335
aVand
p2336
aVlimb
p2337
ag664
aVthere
p2338
ag314
aVeven
p2339
aVthe
p2340
aVfinger
p2341
aVand
p2342
aVtoe
p2343
ag664
aVdistinctly
p2344
aVdefine
p2345
ag314
aVand
p2346
aVmany
p2347
aVprofess
p2348
aVto
p2349
aVsee
p2350
aVin
p2351
aVthe
p2352
aVdistribution
p2353
aVand
p2354
aVarrangement
p2355
aVof
p2356
aVthe
p2357
aVfiber
p2358
aVin
p2359
aVthe
p2360
aVglobular
p2361
aVmass
p2362
aVrepresent
p2363
aVthe
p2364
aVhead
p2365
ag83
aVgrotesque
p2366
aVsuggestion
p2367
aVof
p2368
ag83
aVface
p2369
ag87
asg88
(lp2370
g90
ag90
ag90
ag90
ag90
ag90
ag90
ag90
ag90
ag90
ag90
ag90
ag90
ag90
ag90
ag90
ag90
ag90
ag90
ag90
ag90
ag90
ag90
ag90
ag90
ag90
ag90
ag90
ag90
ag90
ag90
ag90
ag90
ag90
ag90
ag90
ag90
ag90
ag90
ag90
ag90
ag90
ag90
ag90
asg95
(lp2371
g103
ag104
ag102
ag156
ag99
ag108
ag157
ag334
ag157
ag100
ag99
ag156
ag107
ag108
ag157
ag109
ag334
ag156
ag101
ag108
ag106
ag158
ag97
ag100
ag102
ag156
ag102
ag97
ag100
ag99
ag97
ag100
ag101
ag102
ag105
ag100
ag102
ag100
ag102
ag102
ag97
ag100
ag102
ag110
asg111
VHead, trunk and limbs were there; even the fingers and toes were distinctly defined; and many professed to see in the distribution and arrangement of the fibers in the globular mass representing the head a grotesque suggestion of a face.
p2372
sba(i__main__
Sentence
p2373
(dp2374
g17
I43
sg18
(lp2375
S'The'
p2376
aS'figure'
p2377
aS'was'
p2378
aS'horizontal'
p2379
aS';'
p2380
aS'the'
p2381
aS'smaller'
p2382
aS'roots'
p2383
aS'had'
p2384
aS'begun'
p2385
aS'to'
p2386
aS'unite'
p2387
aS'at'
p2388
aS'the'
p2389
aS'breast'
p2390
aS'.'
p2391
asg54
(lp2392
VThe
p2393
aVfigure
p2394
ag79
aVhorizontal
p2395
ag314
aVthe
p2396
aVsmall
p2397
aVroot
p2398
ag789
aVbegin
p2399
aVto
p2400
aVunite
p2401
aVat
p2402
aVthe
p2403
aVbreast
p2404
ag87
asg88
(lp2405
g90
ag90
ag90
ag90
ag90
ag90
ag90
ag90
ag90
ag90
ag90
ag90
ag90
ag90
ag90
ag90
asg95
(lp2406
g100
ag102
ag108
ag101
ag334
ag100
ag1826
ag99
ag108
ag109
ag106
ag158
ag97
ag100
ag102
ag110
asg111
VThe figure was horizontal; the smaller roots had begun to unite at the breast.
p2407
sba(i__main__
Sentence
p2408
(dp2409
g17
I44
sg18
(lp2410
S'In'
p2411
aS'point'
p2412
aS'of'
p2413
aS'resemblance'
p2414
aS'to'
p2415
aS'the'
p2416
aS'human'
p2417
aS'form'
p2418
aS'this'
p2419
aS'image'
p2420
aS'was'
p2421
aS'imperfect'
p2422
aS'.'
p2423
asg54
(lp2424
VIn
p2425
aVpoint
p2426
aVof
p2427
aVresemblance
p2428
aVto
p2429
aVthe
p2430
aVhuman
p2431
aVform
p2432
aVthis
p2433
aVimage
p2434
ag79
aVimperfect
p2435
ag87
asg88
(lp2436
g90
ag90
ag90
ag90
ag90
ag90
ag90
ag90
ag90
ag90
ag90
ag90
ag90
asg95
(lp2437
g97
ag102
ag97
ag102
ag106
ag100
ag101
ag102
ag100
ag102
ag108
ag101
ag110
asg111
VIn point of resemblance to the human form this image was imperfect.
p2438
sba(i__main__
Sentence
p2439
(dp2440
g17
I45
sg18
(lp2441
S'At'
p2442
aS'about'
p2443
aS'ten'
p2444
aS'inches'
p2445
aS'from'
p2446
aS'one'
p2447
aS'of'
p2448
aS'the'
p2449
aS'knees'
p2450
aS','
p2451
aS'the'
p2452
aS'cilia'
p2453
aS'forming'
p2454
aS'that'
p2455
aS'leg'
p2456
aS'had'
p2457
aS'abruptly'
p2458
aS'doubled'
p2459
aS'backward'
p2460
aS'and'
p2461
aS'inward'
p2462
aS'upon'
p2463
aS'their'
p2464
aS'course'
p2465
aS'of'
p2466
aS'growth'
p2467
aS'.'
p2468
asg54
(lp2469
VAt
p2470
aVabout
p2471
aVten
p2472
aVinch
p2473
aVfrom
p2474
aVone
p2475
aVof
p2476
aVthe
p2477
aVknee
p2478
ag65
aVthe
p2479
aVcilium
p2480
aVform
p2481
aVthat
p2482
aVleg
p2483
ag789
aVabruptly
p2484
aVdouble
p2485
aVbackward
p2486
aVand
p2487
aVinward
p2488
aVupon
p2489
aVtheir
p2490
aVcourse
p2491
aVof
p2492
aVgrowth
p2493
ag87
asg88
(lp2494
g90
ag90
ag90
ag90
ag90
ag90
ag90
ag90
ag90
ag90
ag90
ag90
ag90
ag90
ag90
ag90
ag90
ag90
ag90
ag90
ag90
ag90
ag90
ag90
ag90
ag90
ag90
asg95
(lp2495
g97
ag97
ag98
ag99
ag97
ag98
ag97
ag100
ag99
ag104
ag100
ag102
ag105
ag97
ag102
ag108
ag157
ag109
ag102
ag156
ag102
ag97
ag264
ag102
ag97
ag102
ag110
asg111
VAt about ten inches from one of the knees, the cilia forming that leg had abruptly doubled backward and inward upon their course of growth.
p2496
sba(i__main__
Sentence
p2497
(dp2498
g17
I46
sg18
(lp2499
S'The'
p2500
aS'figure'
p2501
aS'lacked'
p2502
aS'the'
p2503
aS'left'
p2504
aS'foot'
p2505
aS'.'
p2506
asg54
(lp2507
VThe
p2508
aVfigure
p2509
aVlack
p2510
aVthe
p2511
aVleft
p2512
aVfoot
p2513
ag87
asg88
(lp2514
g90
ag90
ag90
ag90
ag90
ag90
ag90
asg95
(lp2515
g100
ag102
ag108
ag100
ag102
ag102
ag110
asg111
VThe figure lacked the left foot.
p2516
sba(i__main__
Sentence
p2517
(dp2518
g17
I47
sg18
(lp2519
S'There'
p2520
aS'was'
p2521
aS'but'
p2522
aS'one'
p2523
aS'inference'
p2524
aS'--'
p2525
aS'the'
p2526
aS'obvious'
p2527
aS'one'
p2528
aS';'
p2529
aS'but'
p2530
aS'in'
p2531
aS'the'
p2532
aS'ensuing'
p2533
aS'excitement'
p2534
aS'as'
p2535
aS'many'
p2536
aS'courses'
p2537
aS'of'
p2538
aS'action'
p2539
aS'were'
p2540
aS'proposed'
p2541
aS'as'
p2542
aS'there'
p2543
aS'were'
p2544
aS'incapable'
p2545
aS'counselors'
p2546
aS'.'
p2547
asg54
(lp2548
VThere
p2549
ag79
aVbut
p2550
aVone
p2551
aVinference
p2552
aV--
p2553
aVthe
p2554
aVobvious
p2555
aVone
p2556
ag314
aVbut
p2557
aVin
p2558
aVthe
p2559
aVensuing
p2560
aVexcitement
p2561
ag83
aVmany
p2562
aVcourse
p2563
aVof
p2564
aVaction
p2565
ag664
aVpropose
p2566
ag83
aVthere
p2567
ag664
aVincapable
p2568
aVcounselor
p2569
ag87
asg88
(lp2570
g90
ag90
ag90
ag90
ag90
ag90
ag90
ag90
ag90
ag90
ag90
ag90
ag90
ag90
ag90
ag90
ag90
ag90
ag90
ag90
ag90
ag90
ag90
ag90
ag90
ag90
ag90
ag90
asg95
(lp2571
g335
ag108
ag156
ag98
ag102
ag334
ag100
ag101
ag98
ag334
ag156
ag97
ag100
ag102
ag102
ag97
ag101
ag99
ag97
ag102
ag108
ag109
ag97
ag335
ag108
ag101
ag99
ag110
asg111
VThere was but one inference--the obvious one; but in the ensuing excitement as many courses of action were proposed as there were incapable counselors.
p2572
sba(i__main__
Sentence
p2573
(dp2574
g17
I48
sg18
(lp2575
S'The'
p2576
aS'matter'
p2577
aS'was'
p2578
aS'settled'
p2579
aS'by'
p2580
aS'the'
p2581
aS'sheriff'
p2582
aS'of'
p2583
aS'the'
p2584
aS'county'
p2585
aS','
p2586
aS'who'
p2587
aS'as'
p2588
aS'the'
p2589
aS'lawful'
p2590
aS'custodian'
p2591
aS'of'
p2592
aS'the'
p2593
aS'abandoned'
p2594
aS'estate'
p2595
aS'ordered'
p2596
aS'the'
p2597
aS'root'
p2598
aS'replaced'
p2599
aS'and'
p2600
aS'the'
p2601
aS'excavation'
p2602
aS'filled'
p2603
aS'with'
p2604
aS'the'
p2605
aS'earth'
p2606
aS'that'
p2607
aS'had'
p2608
aS'been'
p2609
aS'removed'
p2610
aS'.'
p2611
asg54
(lp2612
VThe
p2613
aVmatter
p2614
ag79
aVsettle
p2615
aVby
p2616
aVthe
p2617
aVsheriff
p2618
aVof
p2619
aVthe
p2620
aVcounty
p2621
ag65
aVwho
p2622
ag83
aVthe
p2623
aVlawful
p2624
aVcustodian
p2625
aVof
p2626
aVthe
p2627
aVabandon
p2628
aVestate
p2629
aVorder
p2630
aVthe
p2631
aVroot
p2632
aVreplace
p2633
aVand
p2634
aVthe
p2635
aVexcavation
p2636
aVfill
p2637
aVwith
p2638
aVthe
p2639
aVearth
p2640
aVthat
p2641
ag789
ag433
aVremove
p2642
ag87
asg88
(lp2643
g90
ag90
ag90
ag90
ag90
ag90
ag90
ag90
ag90
ag90
ag90
ag90
ag90
ag90
ag90
ag90
ag90
ag90
ag90
ag90
ag90
ag90
ag90
ag90
ag90
ag90
ag90
ag90
ag90
ag90
ag90
ag90
ag90
ag90
ag90
ag90
asg95
(lp2644
g100
ag102
ag108
ag109
ag97
ag100
ag102
ag97
ag100
ag102
ag104
ag510
ag97
ag100
ag101
ag102
ag97
ag100
ag109
ag102
ag109
ag100
ag102
ag108
ag156
ag100
ag102
ag108
ag97
ag100
ag101
ag97
ag108
ag109
ag109
ag110
asg111
VThe matter was settled by the sheriff of the county, who as the lawful custodian of the abandoned estate ordered the root replaced and the excavation filled with the earth that had been removed.
p2645
sba(i__main__
Sentence
p2646
(dp2647
g17
I49
sg18
(lp2648
S'Later'
p2649
aS'inquiry'
p2650
aS'brought'
p2651
aS'out'
p2652
aS'only'
p2653
aS'one'
p2654
aS'fact'
p2655
aS'of'
p2656
aS'relevancy'
p2657
aS'and'
p2658
aS'significance'
p2659
aS':'
p2660
aS'Mrs.'
p2661
aS'Harding'
p2662
aS'had'
p2663
aS'never'
p2664
aS'visited'
p2665
aS'her'
p2666
aS'relatives'
p2667
aS'in'
p2668
aS'Iowa'
p2669
aS','
p2670
aS'nor'
p2671
aS'did'
p2672
aS'they'
p2673
aS'know'
p2674
aS'that'
p2675
aS'she'
p2676
aS'was'
p2677
aS'supposed'
p2678
aS'to'
p2679
aS'have'
p2680
aS'done'
p2681
aS'so'
p2682
aS'.'
p2683
asg54
(lp2684
VLater
p2685
aVinquiry
p2686
aVbrought
p2687
aVout
p2688
aVonly
p2689
aVone
p2690
aVfact
p2691
aVof
p2692
aVrelevancy
p2693
aVand
p2694
aVsignificance
p2695
ag1310
aVMrs.
p2696
aVHarding
p2697
ag789
aVnever
p2698
aVvisit
p2699
aVher
p2700
aVrelative
p2701
aVin
p2702
aVIowa
p2703
ag65
aVnor
p2704
ag691
aVthey
p2705
aVknow
p2706
aVthat
p2707
aVshe
p2708
ag79
aVsuppose
p2709
aVto
p2710
aVhave
p2711
ag2059
aVso
p2712
ag87
asg88
(lp2713
g90
ag90
ag90
ag90
ag90
ag90
ag90
ag90
ag90
ag90
ag90
ag90
ag90
aVPERSON
p2714
ag90
ag90
ag90
ag90
ag90
ag90
aVLOCATION
p2715
ag90
ag90
ag90
ag90
ag90
ag90
ag90
ag90
ag90
ag90
ag90
ag90
ag90
ag90
asg95
(lp2716
g101
ag102
ag102
ag97
ag157
ag98
ag102
ag97
ag102
ag156
ag102
ag334
ag103
ag103
ag108
ag157
ag109
ag264
ag99
ag97
ag103
ag104
ag156
ag108
ag155
ag333
ag97
ag155
ag108
ag109
ag106
ag158
ag109
ag157
ag110
asg111
VLater inquiry brought out only one fact of relevancy and significance: Mrs. Harding had never visited her relatives in Iowa, nor did they know that she was supposed to have done so.
p2717
sba(i__main__
Sentence
p2718
(dp2719
g17
I50
sg18
(lp2720
S'Of'
p2721
aS'Robert'
p2722
aS'Harding'
p2723
aS'and'
p2724
aS'the'
p2725
aS'rest'
p2726
aS'of'
p2727
aS'his'
p2728
aS'family'
p2729
aS'nothing'
p2730
aS'is'
p2731
aS'known'
p2732
aS'.'
p2733
asg54
(lp2734
VOf
p2735
aVRobert
p2736
aVHarding
p2737
aVand
p2738
aVthe
p2739
aVrest
p2740
aVof
p2741
aVhis
p2742
aVfamily
p2743
aVnothing
p2744
ag145
ag786
ag87
asg88
(lp2745
g90
aVPERSON
p2746
aVPERSON
p2747
ag90
ag90
ag90
ag90
ag90
ag90
ag90
ag90
ag90
ag90
asg95
(lp2748
g97
ag103
ag103
ag156
ag100
ag102
ag97
ag264
ag102
ag102
ag107
ag109
ag110
asg111
VOf Robert Harding and the rest of his family nothing is known.
p2749
sba(i__main__
Sentence
p2750
(dp2751
g17
I51
sg18
(lp2752
S'The'
p2753
aS'house'
p2754
aS'retains'
p2755
aS'its'
p2756
aS'evil'
p2757
aS'reputation'
p2758
aS','
p2759
aS'but'
p2760
aS'the'
p2761
aS'replanted'
p2762
aS'vine'
p2763
aS'is'
p2764
aS'as'
p2765
aS'orderly'
p2766
aS'and'
p2767
aS'well-behaved'
p2768
aS'a'
p2769
aS'vegetable'
p2770
aS'as'
p2771
aS'a'
p2772
aS'nervous'
p2773
aS'person'
p2774
aS'could'
p2775
aS'wish'
p2776
aS'to'
p2777
aS'sit'
p2778
aS'under'
p2779
aS'of'
p2780
aS'a'
p2781
aS'pleasant'
p2782
aS'night'
p2783
aS','
p2784
aS'when'
p2785
aS'the'
p2786
aS'katydids'
p2787
aS'grate'
p2788
aS'out'
p2789
aS'their'
p2790
aS'immemorial'
p2791
aS'revelation'
p2792
aS'and'
p2793
aS'the'
p2794
aS'distant'
p2795
aS'whippoorwill'
p2796
aS'signifies'
p2797
aS'his'
p2798
aS'notion'
p2799
aS'of'
p2800
aS'what'
p2801
aS'ought'
p2802
aS'to'
p2803
aS'be'
p2804
aS'done'
p2805
aS'about'
p2806
aS'it'
p2807
aS'.'
p2808
asg54
(lp2809
VThe
p2810
aVhouse
p2811
aVretain
p2812
aVit
p2813
aVevil
p2814
aVreputation
p2815
ag65
aVbut
p2816
aVthe
p2817
aVreplant
p2818
aVvine
p2819
ag145
ag83
aVorderly
p2820
aVand
p2821
aVwell-behaved
p2822
ag83
aVvegetable
p2823
ag83
ag83
aVnervous
p2824
aVperson
p2825
aVcould
p2826
aVwish
p2827
aVto
p2828
aVsit
p2829
aVunder
p2830
aVof
p2831
ag83
aVpleasant
p2832
aVnight
p2833
ag65
aVwhen
p2834
aVthe
p2835
aVkatydid
p2836
aVgrate
p2837
aVout
p2838
aVtheir
p2839
aVimmemorial
p2840
aVrevelation
p2841
aVand
p2842
aVthe
p2843
aVdistant
p2844
aVwhippoorwill
p2845
aVsignifies
p2846
aVhis
p2847
aVnotion
p2848
aVof
p2849
aVwhat
p2850
aVought
p2851
aVto
p2852
aVbe
p2853
ag2059
aVabout
p2854
aVit
p2855
ag87
asg88
(lp2856
g90
ag90
ag90
ag90
ag90
ag90
ag90
ag90
ag90
ag90
ag90
ag90
ag90
ag90
ag90
ag90
ag90
ag90
ag90
ag90
ag90
ag90
ag90
ag90
ag90
ag90
ag90
ag90
ag90
ag90
ag90
ag90
ag90
ag90
ag90
ag90
ag90
ag90
ag90
ag90
ag90
ag90
ag90
ag90
ag90
ag90
ag90
ag90
ag90
ag90
ag90
ag90
ag90
ag90
ag90
ag90
asg95
(lp2857
g100
ag102
ag107
ag264
ag101
ag102
ag104
ag156
ag100
ag109
ag102
ag107
ag97
ag157
ag156
ag101
ag100
ag101
ag97
ag100
ag101
ag102
ag265
ag158
ag106
ag158
ag97
ag97
ag100
ag101
ag102
ag104
ag1648
ag100
ag99
ag333
ag2063
ag264
ag101
ag102
ag156
ag100
ag101
ag102
ag99
ag264
ag102
ag97
ag510
ag265
ag106
ag158
ag109
ag97
ag155
ag110
asg111
VThe house retains its evil reputation, but the replanted vine is as orderly and well-behaved a vegetable as a nervous person could wish to sit under of a pleasant night, when the katydids grate out their immemorial revelation and the distant whippoorwill signifies his notion of what ought to be done about it.
p2858
sbasbsS'summary'
p2859
g0
(g7
g2
Ntp2860
Rp2861
(dp2862
g11
S'As the idea of the Gothic develops through different generations, the reader has to consider the possibility that maybe Gothic cannot be directly defined. In order to understand this, the reader must discover the reoccurring themes within Gothic stories and notice how they change; just as the reader should recognize that the themes are developing based on new societal norms and advances. This analysis will use Ambrose Bierces A Vine on a House to help discover what Gothic is by finding and discussing the traditional elements of the Gothic in the short story. Though only a few pages long, A Vine on a House is able to create an all-encompassing representation of what Gothic is, and can be with a singular element. The concepts and definition of the Gothic in Literature are heavily prevalent in Ambrose Bierces A Vine on a House by following the setting, characters and storyline to find and the discover the main themes of oppression and the supernatural through multiple interpretations of who and what the vine is.\n\n\n\nThe literary classification of Gothic is an all-encompassing atmosphere of darkness and oppression. Though it is suggested that it might be best thought of as a symbolic realm rather than as a clear definable entity, (Rintoul 703). Whether it be literal, or metaphorical, these concepts help to create the essentials of Gothic storylines and transport the reader into a world of ridiculousness, barbarianism, dramatics, and death. Because we remember pain and the menace of death more vividly than pleasureuncertainty and danger are always closely allied, (Lovecraft). In other words, Gothic plays on human fears and experience thus amplifying the readers natural ability to associate danger with uncertainty and project this onto different scenarios. The idea of Gothic functions to create a mindset for the audience in order to help them prepare for the story that is to be told. When reading a story, novel, or poem, or watching a movie or play that is presented as Gothic, a readers mind will typically go to a dark place where they anticipate ulterior motives, the supernatural, and other common gothic tropes. This thought process, is one reason that the literary use of the word Gothic has never developed as being a positive term (Baldick xiii). Calling a piece of literature Gothic, allows the reader to interpret, from the beginning, that the story will be challenging the norm of the society that it was written for.\n\n\n\nGothic, in reference to literature in particular, repeatedly presents the theme of escaping oppression. The oppression or oppressor could take many forms, as could the methods of escaping. The characters always find themselves in situations and settings that involve darkness, and decay; these setting are usually punctuated by storms and the presence of the supernatural. Ultimately, the idea of Gothic falls back onto H.P. Lovecrafts idea that the oldest and strongest emotion of mankind is fear, and the oldest and strongest kind of fear is fear of the unknown. The premise of Gothic literature is to play on the fears of its readers; this is done by using the idea of creating a tyrant, damsel, and hero for a story in order to help represent the wrongs of society that the author is attempting to bring to the forefront of a readers mind. So, for every tyrant, there is a damsel in distress. And for every damsel, there is a hero; however, the hero could be entirely unsuccessful despite their noble intentions, or could in fact be the damsel themselves. The reader of Gothic Literature must remember that while there are many ideas, themes, theories, and reoccurrences as to what Gothic is, it is ultimately ever-changing because of its need to go against the norms of its current society.'
p2863
sg13
(lp2864
(i__main__
Sentence
p2865
(dp2866
g17
I0
sg18
(lp2867
S'As'
p2868
aS'the'
p2869
aS'idea'
p2870
aS'of'
p2871
aS'the'
p2872
aS'Gothic'
p2873
aS'develops'
p2874
aS'through'
p2875
aS'different'
p2876
aS'generations'
p2877
aS','
p2878
aS'the'
p2879
aS'reader'
p2880
aS'has'
p2881
aS'to'
p2882
aS'consider'
p2883
aS'the'
p2884
aS'possibility'
p2885
aS'that'
p2886
aS'maybe'
p2887
aS'Gothic'
p2888
aS'can'
p2889
aS'not'
p2890
aS'be'
p2891
aS'directly'
p2892
aS'defined'
p2893
aS'.'
p2894
asg54
(lp2895
VAs
p2896
aVthe
p2897
aVidea
p2898
aVof
p2899
aVthe
p2900
aVGothic
p2901
aVdevelop
p2902
aVthrough
p2903
aVdifferent
p2904
aVgeneration
p2905
ag65
aVthe
p2906
aVreader
p2907
ag140
aVto
p2908
aVconsider
p2909
aVthe
p2910
aVpossibility
p2911
aVthat
p2912
aVmaybe
p2913
aVGothic
p2914
aVcan
p2915
aVnot
p2916
aVbe
p2917
aVdirectly
p2918
aVdefine
p2919
ag87
asg88
(lp2920
g90
ag90
ag90
ag90
ag90
ag90
ag90
ag90
ag90
ag90
ag90
ag90
ag90
ag90
ag90
ag90
ag90
ag90
ag90
ag90
ag90
ag90
ag90
ag90
ag90
ag90
ag90
asg95
(lp2921
g97
ag100
ag102
ag97
ag100
ag103
ag107
ag97
ag101
ag99
ag104
ag100
ag102
ag107
ag106
ag158
ag100
ag102
ag97
ag102
ag103
ag265
ag157
ag158
ag157
ag109
ag110
asg111
VAs the idea of the Gothic develops through different generations, the reader has to consider the possibility that maybe Gothic cannot be directly defined.
p2922
sba(i__main__
Sentence
p2923
(dp2924
g17
I1
sg18
(lp2925
S'In'
p2926
aS'order'
p2927
aS'to'
p2928
aS'understand'
p2929
aS'this'
p2930
aS','
p2931
aS'the'
p2932
aS'reader'
p2933
aS'must'
p2934
aS'discover'
p2935
aS'the'
p2936
aS'reoccurring'
p2937
aS'themes'
p2938
aS'within'
p2939
aS'Gothic'
p2940
aS'stories'
p2941
aS'and'
p2942
aS'notice'
p2943
aS'how'
p2944
aS'they'
p2945
aS'change'
p2946
aS';'
p2947
aS'just'
p2948
aS'as'
p2949
aS'the'
p2950
aS'reader'
p2951
aS'should'
p2952
aS'recognize'
p2953
aS'that'
p2954
aS'the'
p2955
aS'themes'
p2956
aS'are'
p2957
aS'developing'
p2958
aS'based'
p2959
aS'on'
p2960
aS'new'
p2961
aS'societal'
p2962
aS'norms'
p2963
aS'and'
p2964
aS'advances'
p2965
aS'.'
p2966
asg54
(lp2967
VIn
p2968
aVorder
p2969
aVto
p2970
aVunderstand
p2971
aVthis
p2972
ag65
aVthe
p2973
aVreader
p2974
aVmust
p2975
aVdiscover
p2976
aVthe
p2977
aVreoccurring
p2978
aVtheme
p2979
aVwithin
p2980
aVGothic
p2981
aVstory
p2982
aVand
p2983
aVnotice
p2984
aVhow
p2985
aVthey
p2986
aVchange
p2987
ag314
aVjust
p2988
ag83
aVthe
p2989
aVreader
p2990
aVshould
p2991
aVrecognize
p2992
aVthat
p2993
aVthe
p2994
aVtheme
p2995
ag307
aVdevelop
p2996
aVbase
p2997
aVon
p2998
aVnew
p2999
aVsocietal
p3000
aVnorm
p3001
aVand
p3002
aVadvance
p3003
ag87
asg88
(lp3004
g90
ag90
ag90
ag90
ag90
ag90
ag90
ag90
ag90
ag90
ag90
ag90
ag90
ag90
ag90
ag90
ag90
ag90
ag90
ag90
ag90
ag90
ag90
ag90
ag90
ag90
ag90
ag90
ag90
ag90
ag90
ag90
ag90
ag90
ag90
ag90
ag90
ag90
ag90
ag90
ag90
asg95
(lp3005
g97
ag102
ag106
ag158
ag100
ag104
ag100
ag102
ag265
ag158
ag100
ag102
ag107
ag97
ag103
ag99
ag156
ag102
ag1648
ag155
ag333
ag334
ag157
ag97
ag100
ag102
ag265
ag158
ag97
ag100
ag99
ag333
ag105
ag109
ag97
ag101
ag101
ag99
ag156
ag99
ag110
asg111
VIn order to understand this, the reader must discover the reoccurring themes within Gothic stories and notice how they change; just as the reader should recognize that the themes are developing based on new societal norms and advances.
p3006
sba(i__main__
Sentence
p3007
(dp3008
g17
I2
sg18
(lp3009
S'This'
p3010
aS'analysis'
p3011
aS'will'
p3012
aS'use'
p3013
aS'Ambrose'
p3014
aS'Bierces'
p3015
aS'A'
p3016
aS'Vine'
p3017
aS'on'
p3018
aS'a'
p3019
aS'House'
p3020
aS'to'
p3021
aS'help'
p3022
aS'discover'
p3023
aS'what'
p3024
aS'Gothic'
p3025
aS'is'
p3026
aS'by'
p3027
aS'finding'
p3028
aS'and'
p3029
aS'discussing'
p3030
aS'the'
p3031
aS'traditional'
p3032
aS'elements'
p3033
aS'of'
p3034
aS'the'
p3035
aS'Gothic'
p3036
aS'in'
p3037
aS'the'
p3038
aS'short'
p3039
aS'story'
p3040
aS'.'
p3041
asg54
(lp3042
VThis
p3043
aVanalysis
p3044
aVwill
p3045
aVuse
p3046
aVAmbrose
p3047
aVBierces
p3048
aVA
p3049
aVVine
p3050
aVon
p3051
ag83
aVHouse
p3052
aVto
p3053
aVhelp
p3054
aVdiscover
p3055
aVwhat
p3056
aVGothic
p3057
ag145
aVby
p3058
aVfinding
p3059
aVand
p3060
aVdiscuss
p3061
aVthe
p3062
aVtraditional
p3063
aVelement
p3064
aVof
p3065
aVthe
p3066
aVGothic
p3067
aVin
p3068
aVthe
p3069
aVshort
p3070
aVstory
p3071
ag87
asg88
(lp3072
g90
ag90
ag90
ag90
ag90
ag90
ag90
ag90
ag90
ag90
aVORGANIZATION
p3073
ag90
ag90
ag90
ag90
ag90
ag90
ag90
ag90
ag90
ag90
ag90
ag90
ag90
ag90
ag90
ag90
ag90
ag90
ag90
ag90
ag90
asg95
(lp3074
g100
ag102
ag265
ag158
ag103
aS'NNPS'
p3075
ag100
ag103
ag97
ag100
ag103
ag106
ag158
ag157
ag510
ag103
ag107
ag97
ag102
ag156
ag105
ag100
ag101
ag99
ag97
ag100
ag103
ag97
ag100
ag101
ag102
ag110
asg111
VThis analysis will use Ambrose Bierces A Vine on a House to help discover what Gothic is by finding and discussing the traditional elements of the Gothic in the short story.
p3076
sba(i__main__
Sentence
p3077
(dp3078
g17
I3
sg18
(lp3079
S'Though'
p3080
aS'only'
p3081
aS'a'
p3082
aS'few'
p3083
aS'pages'
p3084
aS'long'
p3085
aS','
p3086
aS'A'
p3087
aS'Vine'
p3088
aS'on'
p3089
aS'a'
p3090
aS'House'
p3091
aS'is'
p3092
aS'able'
p3093
aS'to'
p3094
aS'create'
p3095
aS'an'
p3096
aS'all-encompassing'
p3097
aS'representation'
p3098
aS'of'
p3099
aS'what'
p3100
aS'Gothic'
p3101
aS'is'
p3102
aS','
p3103
aS'and'
p3104
aS'can'
p3105
aS'be'
p3106
aS'with'
p3107
aS'a'
p3108
aS'singular'
p3109
aS'element'
p3110
aS'.'
p3111
asg54
(lp3112
VThough
p3113
aVonly
p3114
ag83
aVfew
p3115
aVpage
p3116
aVlong
p3117
ag65
ag3049
aVVine
p3118
aVon
p3119
ag83
aVHouse
p3120
ag145
aVable
p3121
aVto
p3122
aVcreate
p3123
aVan
p3124
aVall-encompassing
p3125
aVrepresentation
p3126
aVof
p3127
aVwhat
p3128
aVGothic
p3129
ag145
ag65
aVand
p3130
aVcan
p3131
aVbe
p3132
aVwith
p3133
ag83
aVsingular
p3134
aVelement
p3135
ag87
asg88
(lp3136
g90
ag90
ag90
ag90
ag90
ag90
ag90
ag90
ag90
ag90
ag90
aVORGANIZATION
p3137
ag90
ag90
ag90
ag90
ag90
ag90
ag90
ag90
ag90
ag90
ag90
ag90
ag90
ag90
ag90
ag90
ag90
ag90
ag90
ag90
asg95
(lp3138
g97
ag157
ag100
ag101
ag99
ag157
ag104
ag100
ag103
ag97
ag100
ag103
ag107
ag101
ag106
ag158
ag100
ag101
ag102
ag97
ag510
ag103
ag107
ag104
ag156
ag265
ag158
ag97
ag100
ag101
ag102
ag110
asg111
VThough only a few pages long, A Vine on a House is able to create an all-encompassing representation of what Gothic is, and can be with a singular element.
p3139
sba(i__main__
Sentence
p3140
(dp3141
g17
I4
sg18
(lp3142
S'The'
p3143
aS'concepts'
p3144
aS'and'
p3145
aS'definition'
p3146
aS'of'
p3147
aS'the'
p3148
aS'Gothic'
p3149
aS'in'
p3150
aS'Literature'
p3151
aS'are'
p3152
aS'heavily'
p3153
aS'prevalent'
p3154
aS'in'
p3155
aS'Ambrose'
p3156
aS'Bierces'
p3157
aS'A'
p3158
aS'Vine'
p3159
aS'on'
p3160
aS'a'
p3161
aS'House'
p3162
aS'by'
p3163
aS'following'
p3164
aS'the'
p3165
aS'setting'
p3166
aS','
p3167
aS'characters'
p3168
aS'and'
p3169
aS'storyline'
p3170
aS'to'
p3171
aS'find'
p3172
aS'and'
p3173
aS'the'
p3174
aS'discover'
p3175
aS'the'
p3176
aS'main'
p3177
aS'themes'
p3178
aS'of'
p3179
aS'oppression'
p3180
aS'and'
p3181
aS'the'
p3182
aS'supernatural'
p3183
aS'through'
p3184
aS'multiple'
p3185
aS'interpretations'
p3186
aS'of'
p3187
aS'who'
p3188
aS'and'
p3189
aS'what'
p3190
aS'the'
p3191
aS'vine'
p3192
aS'is'
p3193
aS'.'
p3194
asg54
(lp3195
VThe
p3196
aVconcept
p3197
aVand
p3198
aVdefinition
p3199
aVof
p3200
aVthe
p3201
aVGothic
p3202
aVin
p3203
aVLiterature
p3204
ag307
aVheavily
p3205
aVprevalent
p3206
aVin
p3207
aVAmbrose
p3208
aVBierces
p3209
ag3049
aVVine
p3210
aVon
p3211
ag83
aVHouse
p3212
aVby
p3213
aVfollow
p3214
aVthe
p3215
aVsetting
p3216
ag65
aVcharacter
p3217
aVand
p3218
aVstoryline
p3219
aVto
p3220
aVfind
p3221
aVand
p3222
aVthe
p3223
aVdiscover
p3224
aVthe
p3225
aVmain
p3226
aVtheme
p3227
aVof
p3228
aVoppression
p3229
aVand
p3230
aVthe
p3231
aVsupernatural
p3232
aVthrough
p3233
aVmultiple
p3234
aVinterpretation
p3235
aVof
p3236
aVwho
p3237
aVand
p3238
aVwhat
p3239
aVthe
p3240
aVvine
p3241
ag145
ag87
asg88
(lp3242
g90
ag90
ag90
ag90
ag90
ag90
ag90
ag90
ag90
ag90
ag90
ag90
ag90
ag90
ag90
ag90
ag90
ag90
ag90
aVORGANIZATION
p3243
ag90
ag90
ag90
ag90
ag90
ag90
ag90
ag90
ag90
ag90
ag90
ag90
ag90
ag90
ag90
ag90
ag90
ag90
ag90
ag90
ag90
ag90
ag90
ag90
ag90
ag90
ag90
ag90
ag90
ag90
ag90
ag90
asg95
(lp3244
g100
ag99
ag156
ag102
ag97
ag100
ag103
ag97
ag103
ag333
ag157
ag101
ag97
ag103
ag3075
ag100
ag103
ag97
ag100
ag103
ag97
ag105
ag100
ag102
ag104
ag99
ag156
ag102
ag106
ag158
ag156
ag100
ag102
ag100
ag101
ag99
ag97
ag102
ag156
ag100
ag101
ag97
ag101
ag99
ag97
ag510
ag156
ag510
ag100
ag102
ag107
ag110
asg111
VThe concepts and definition of the Gothic in Literature are heavily prevalent in Ambrose Bierces A Vine on a House by following the setting, characters and storyline to find and the discover the main themes of oppression and the supernatural through multiple interpretations of who and what the vine is.
p3245
sba(i__main__
Sentence
p3246
(dp3247
g17
I5
sg18
(lp3248
S'The'
p3249
aS'literary'
p3250
aS'classification'
p3251
aS'of'
p3252
aS'Gothic'
p3253
aS'is'
p3254
aS'an'
p3255
aS'all-encompassing'
p3256
aS'atmosphere'
p3257
aS'of'
p3258
aS'darkness'
p3259
aS'and'
p3260
aS'oppression'
p3261
aS'.'
p3262
asg54
(lp3263
VThe
p3264
aVliterary
p3265
aVclassification
p3266
aVof
p3267
aVGothic
p3268
ag145
aVan
p3269
aVall-encompassing
p3270
aVatmosphere
p3271
aVof
p3272
aVdarkness
p3273
aVand
p3274
aVoppression
p3275
ag87
asg88
(lp3276
g90
ag90
ag90
ag90
ag90
ag90
ag90
ag90
ag90
ag90
ag90
ag90
ag90
ag90
asg95
(lp3277
g100
ag101
ag102
ag97
ag103
ag107
ag100
ag101
ag102
ag97
ag102
ag156
ag102
ag110
asg111
VThe literary classification of Gothic is an all-encompassing atmosphere of darkness and oppression.
p3278
sba(i__main__
Sentence
p3279
(dp3280
g17
I6
sg18
(lp3281
S'Though'
p3282
aS'it'
p3283
aS'is'
p3284
aS'suggested'
p3285
aS'that'
p3286
aS'it'
p3287
aS'might'
p3288
aS'be'
p3289
aS'best'
p3290
aS'thought'
p3291
aS'of'
p3292
aS'as'
p3293
aS'a'
p3294
aS'symbolic'
p3295
aS'realm'
p3296
aS'rather'
p3297
aS'than'
p3298
aS'as'
p3299
aS'a'
p3300
aS'clear'
p3301
aS'definable'
p3302
aS'entity'
p3303
aS','
p3304
aS'('
p3305
aS'Rintoul'
p3306
aS'703'
p3307
aS')'
p3308
aS'.'
p3309
asg54
(lp3310
VThough
p3311
aVit
p3312
ag145
aVsuggest
p3313
aVthat
p3314
aVit
p3315
aVmight
p3316
aVbe
p3317
aVbest
p3318
aVthought
p3319
aVof
p3320
aVas
p3321
ag83
aVsymbolic
p3322
aVrealm
p3323
aVrather
p3324
aVthan
p3325
ag83
ag83
aVclear
p3326
aVdefinable
p3327
aVentity
p3328
ag65
aV(
p3329
aVRintoul
p3330
aV703
p3331
aV)
p3332
ag87
asg88
(lp3333
g90
ag90
ag90
ag90
ag90
ag90
ag90
ag90
ag90
ag90
ag90
ag90
ag90
ag90
ag90
ag90
ag90
ag90
ag90
ag90
ag90
ag90
ag90
ag90
aVPERSON
p3334
ag90
ag90
ag90
asg95
(lp3335
g97
ag155
ag107
ag109
ag97
ag155
ag265
ag158
ag1780
ag102
ag97
ag157
ag100
ag101
ag102
ag157
ag97
ag97
ag100
ag101
ag101
ag102
ag104
ag334
ag103
ag98
ag98
ag110
asg111
VThough it is suggested that it might be best thought of as a symbolic realm rather than as a clear definable entity, (Rintoul 703).
p3336
sba(i__main__
Sentence
p3337
(dp3338
g17
I7
sg18
(lp3339
S'Whether'
p3340
aS'it'
p3341
aS'be'
p3342
aS'literal'
p3343
aS','
p3344
aS'or'
p3345
aS'metaphorical'
p3346
aS','
p3347
aS'these'
p3348
aS'concepts'
p3349
aS'help'
p3350
aS'to'
p3351
aS'create'
p3352
aS'the'
p3353
aS'essentials'
p3354
aS'of'
p3355
aS'Gothic'
p3356
aS'storylines'
p3357
aS'and'
p3358
aS'transport'
p3359
aS'the'
p3360
aS'reader'
p3361
aS'into'
p3362
aS'a'
p3363
aS'world'
p3364
aS'of'
p3365
aS'ridiculousness'
p3366
aS','
p3367
aS'barbarianism'
p3368
aS','
p3369
aS'dramatics'
p3370
aS','
p3371
aS'and'
p3372
aS'death'
p3373
aS'.'
p3374
asg54
(lp3375
VWhether
p3376
aVit
p3377
aVbe
p3378
aVliteral
p3379
ag65
aVor
p3380
aVmetaphorical
p3381
ag65
aVthese
p3382
aVconcept
p3383
aVhelp
p3384
aVto
p3385
aVcreate
p3386
aVthe
p3387
aVessential
p3388
aVof
p3389
aVGothic
p3390
aVstoryline
p3391
aVand
p3392
aVtransport
p3393
aVthe
p3394
aVreader
p3395
aVinto
p3396
ag83
aVworld
p3397
aVof
p3398
aVridiculousness
p3399
ag65
aVbarbarianism
p3400
ag65
aVdramatics
p3401
ag65
aVand
p3402
aVdeath
p3403
ag87
asg88
(lp3404
g90
ag90
ag90
ag90
ag90
ag90
ag90
ag90
ag90
ag90
ag90
ag90
ag90
ag90
ag90
ag90
ag90
ag90
ag90
ag90
ag90
ag90
ag90
ag90
ag90
ag90
ag90
ag90
ag90
ag90
ag90
ag90
ag90
ag90
ag90
asg95
(lp3405
g97
ag155
ag158
ag101
ag104
ag156
ag101
ag104
ag100
ag99
ag333
ag106
ag158
ag100
ag99
ag97
ag103
ag99
ag156
ag102
ag100
ag102
ag97
ag100
ag102
ag97
ag102
ag104
ag102
ag104
ag99
ag104
ag156
ag102
ag110
asg111
VWhether it be literal, or metaphorical, these concepts help to create the essentials of Gothic storylines and transport the reader into a world of ridiculousness, barbarianism, dramatics, and death.
p3406
sba(i__main__
Sentence
p3407
(dp3408
g17
I8
sg18
(lp3409
S'Because'
p3410
aS'we'
p3411
aS'remember'
p3412
aS'pain'
p3413
aS'and'
p3414
aS'the'
p3415
aS'menace'
p3416
aS'of'
p3417
aS'death'
p3418
aS'more'
p3419
aS'vividly'
p3420
aS'than'
p3421
aS'pleasureuncertainty'
p3422
aS'and'
p3423
aS'danger'
p3424
aS'are'
p3425
aS'always'
p3426
aS'closely'
p3427
aS'allied'
p3428
aS','
p3429
aS'('
p3430
aS'Lovecraft'
p3431
aS')'
p3432
aS'.'
p3433
asg54
(lp3434
VBecause
p3435
aVwe
p3436
aVremember
p3437
aVpain
p3438
aVand
p3439
aVthe
p3440
aVmenace
p3441
aVof
p3442
aVdeath
p3443
aVmore
p3444
aVvividly
p3445
aVthan
p3446
aVpleasureuncertainty
p3447
aVand
p3448
aVdanger
p3449
ag307
aValways
p3450
aVclosely
p3451
aVally
p3452
ag65
ag3329
aVLovecraft
p3453
ag3332
ag87
asg88
(lp3454
g90
ag90
ag90
ag90
ag90
ag90
ag90
ag90
ag90
ag90
ag90
ag90
ag90
ag90
ag90
ag90
ag90
ag90
ag90
ag90
ag90
ag90
ag90
ag90
asg95
(lp3455
g97
ag155
ag333
ag102
ag156
ag100
ag102
ag97
ag102
ag1826
ag157
ag97
ag102
ag156
ag102
ag333
ag157
ag157
ag109
ag104
ag103
ag103
ag103
ag110
asg111
VBecause we remember pain and the menace of death more vividly than pleasureuncertainty and danger are always closely allied, (Lovecraft).
p3456
sba(i__main__
Sentence
p3457
(dp3458
g17
I9
sg18
(lp3459
S'In'
p3460
aS'other'
p3461
aS'words'
p3462
aS','
p3463
aS'Gothic'
p3464
aS'plays'
p3465
aS'on'
p3466
aS'human'
p3467
aS'fears'
p3468
aS'and'
p3469
aS'experience'
p3470
aS'thus'
p3471
aS'amplifying'
p3472
aS'the'
p3473
aS'readers'
p3474
aS'natural'
p3475
aS'ability'
p3476
aS'to'
p3477
aS'associate'
p3478
aS'danger'
p3479
aS'with'
p3480
aS'uncertainty'
p3481
aS'and'
p3482
aS'project'
p3483
aS'this'
p3484
aS'onto'
p3485
aS'different'
p3486
aS'scenarios'
p3487
aS'.'
p3488
asg54
(lp3489
VIn
p3490
aVother
p3491
aVword
p3492
ag65
aVGothic
p3493
aVplay
p3494
aVon
p3495
aVhuman
p3496
aVfear
p3497
aVand
p3498
aVexperience
p3499
aVthus
p3500
aVamplify
p3501
aVthe
p3502
aVreader
p3503
aVnatural
p3504
aVability
p3505
aVto
p3506
aVassociate
p3507
aVdanger
p3508
aVwith
p3509
aVuncertainty
p3510
aVand
p3511
aVproject
p3512
aVthis
p3513
aVonto
p3514
aVdifferent
p3515
aVscenario
p3516
ag87
asg88
(lp3517
g90
ag90
ag90
ag90
ag90
ag90
ag90
ag90
ag90
ag90
ag90
ag90
ag90
ag90
ag90
ag90
ag90
ag90
ag90
ag90
ag90
ag90
ag90
ag90
ag90
ag90
ag90
ag90
ag90
asg95
(lp3518
g97
ag101
ag99
ag104
ag103
ag107
ag97
ag101
ag99
ag156
ag102
ag157
ag105
ag100
ag99
ag101
ag102
ag106
ag158
ag102
ag97
ag102
ag156
ag102
ag100
ag102
ag102
ag99
ag110
asg111
VIn other words, Gothic plays on human fears and experience thus amplifying the readers natural ability to associate danger with uncertainty and project this onto different scenarios.
p3519
sba(i__main__
Sentence
p3520
(dp3521
g17
I10
sg18
(lp3522
S'The'
p3523
aS'idea'
p3524
aS'of'
p3525
aS'Gothic'
p3526
aS'functions'
p3527
aS'to'
p3528
aS'create'
p3529
aS'a'
p3530
aS'mindset'
p3531
aS'for'
p3532
aS'the'
p3533
aS'audience'
p3534
aS'in'
p3535
aS'order'
p3536
aS'to'
p3537
aS'help'
p3538
aS'them'
p3539
aS'prepare'
p3540
aS'for'
p3541
aS'the'
p3542
aS'story'
p3543
aS'that'
p3544
aS'is'
p3545
aS'to'
p3546
aS'be'
p3547
aS'told'
p3548
aS'.'
p3549
asg54
(lp3550
VThe
p3551
aVidea
p3552
aVof
p3553
aVGothic
p3554
aVfunction
p3555
aVto
p3556
aVcreate
p3557
ag83
aVmindset
p3558
aVfor
p3559
aVthe
p3560
aVaudience
p3561
aVin
p3562
aVorder
p3563
aVto
p3564
aVhelp
p3565
aVthem
p3566
aVprepare
p3567
aVfor
p3568
aVthe
p3569
aVstory
p3570
aVthat
p3571
ag145
aVto
p3572
aVbe
p3573
aVtell
p3574
ag87
asg88
(lp3575
g90
ag90
ag90
ag90
ag90
ag90
ag90
ag90
ag90
ag90
ag90
ag90
ag90
ag90
ag90
ag90
ag90
ag90
ag90
ag90
ag90
ag90
ag90
ag90
ag90
ag90
ag90
asg95
(lp3576
g100
ag102
ag97
ag103
ag99
ag106
ag158
ag100
ag102
ag97
ag100
ag102
ag97
ag102
ag106
ag158
ag155
ag158
ag97
ag100
ag102
ag97
ag107
ag106
ag158
ag109
ag110
asg111
VThe idea of Gothic functions to create a mindset for the audience in order to help them prepare for the story that is to be told.
p3577
sba(i__main__
Sentence
p3578
(dp3579
g17
I11
sg18
(lp3580
S'When'
p3581
aS'reading'
p3582
aS'a'
p3583
aS'story'
p3584
aS','
p3585
aS'novel'
p3586
aS','
p3587
aS'or'
p3588
aS'poem'
p3589
aS','
p3590
aS'or'
p3591
aS'watching'
p3592
aS'a'
p3593
aS'movie'
p3594
aS'or'
p3595
aS'play'
p3596
aS'that'
p3597
aS'is'
p3598
aS'presented'
p3599
aS'as'
p3600
aS'Gothic'
p3601
aS','
p3602
aS'a'
p3603
aS'readers'
p3604
aS'mind'
p3605
aS'will'
p3606
aS'typically'
p3607
aS'go'
p3608
aS'to'
p3609
aS'a'
p3610
aS'dark'
p3611
aS'place'
p3612
aS'where'
p3613
aS'they'
p3614
aS'anticipate'
p3615
aS'ulterior'
p3616
aS'motives'
p3617
aS','
p3618
aS'the'
p3619
aS'supernatural'
p3620
aS','
p3621
aS'and'
p3622
aS'other'
p3623
aS'common'
p3624
aS'gothic'
p3625
aS'tropes'
p3626
aS'.'
p3627
asg54
(lp3628
VWhen
p3629
aVreading
p3630
ag83
aVstory
p3631
ag65
aVnovel
p3632
ag65
aVor
p3633
aVpoem
p3634
ag65
aVor
p3635
aVwatch
p3636
ag83
aVmovie
p3637
aVor
p3638
aVplay
p3639
aVthat
p3640
ag145
aVpresent
p3641
aVas
p3642
aVGothic
p3643
ag65
ag83
aVreader
p3644
aVmind
p3645
aVwill
p3646
aVtypically
p3647
aVgo
p3648
aVto
p3649
ag83
aVdark
p3650
aVplace
p3651
aVwhere
p3652
aVthey
p3653
aVanticipate
p3654
aVulterior
p3655
aVmotif
p3656
ag65
aVthe
p3657
aVsupernatural
p3658
ag65
aVand
p3659
aVother
p3660
aVcommon
p3661
aVgothic
p3662
aVtrope
p3663
ag87
asg88
(lp3664
g90
ag90
ag90
ag90
ag90
ag90
ag90
ag90
ag90
ag90
ag90
ag90
ag90
ag90
ag90
ag90
ag90
ag90
ag90
ag90
ag90
ag90
ag90
ag90
ag90
ag90
ag90
ag90
ag90
ag90
ag90
ag90
ag90
ag90
ag90
ag90
ag90
ag90
ag90
ag90
ag90
ag90
ag90
ag90
ag90
ag90
ag90
asg95
(lp3665
g1648
ag102
ag100
ag102
ag104
ag102
ag104
ag156
ag158
ag104
ag156
ag105
ag100
ag102
ag156
ag158
ag97
ag107
ag109
ag157
ag103
ag104
ag100
ag99
ag333
ag265
ag157
ag158
ag106
ag100
ag102
ag102
ag1648
ag155
ag333
ag101
ag99
ag104
ag100
ag101
ag104
ag156
ag101
ag101
ag101
ag99
ag110
asg111
VWhen reading a story, novel, or poem, or watching a movie or play that is presented as Gothic, a readers mind will typically go to a dark place where they anticipate ulterior motives, the supernatural, and other common gothic tropes.
p3666
sba(i__main__
Sentence
p3667
(dp3668
g17
I12
sg18
(lp3669
S'This'
p3670
aS'thought'
p3671
aS'process'
p3672
aS','
p3673
aS'is'
p3674
aS'one'
p3675
aS'reason'
p3676
aS'that'
p3677
aS'the'
p3678
aS'literary'
p3679
aS'use'
p3680
aS'of'
p3681
aS'the'
p3682
aS'word'
p3683
aS'Gothic'
p3684
aS'has'
p3685
aS'never'
p3686
aS'developed'
p3687
aS'as'
p3688
aS'being'
p3689
aS'a'
p3690
aS'positive'
p3691
aS'term'
p3692
aS'('
p3693
aS'Baldick'
p3694
aS'xiii'
p3695
aS')'
p3696
aS'.'
p3697
asg54
(lp3698
VThis
p3699
ag1819
aVprocess
p3700
ag65
ag145
aVone
p3701
aVreason
p3702
aVthat
p3703
aVthe
p3704
aVliterary
p3705
aVuse
p3706
aVof
p3707
aVthe
p3708
aVword
p3709
aVGothic
p3710
ag140
aVnever
p3711
aVdevelop
p3712
ag83
aVbe
p3713
ag83
aVpositive
p3714
aVterm
p3715
ag3329
aVBaldick
p3716
aVxiii
p3717
ag3332
ag87
asg88
(lp3718
g90
ag90
ag90
ag90
ag90
ag90
ag90
ag90
ag90
ag90
ag90
ag90
ag90
ag90
ag90
ag90
ag90
ag90
ag90
ag90
ag90
ag90
ag90
ag90
aVPERSON
p3719
ag90
ag90
ag90
asg95
(lp3720
g100
ag108
ag102
ag104
ag107
ag98
ag102
ag450
ag100
ag101
ag102
ag97
ag100
ag102
ag103
ag107
ag157
ag109
ag97
ag105
ag100
ag101
ag102
ag334
ag103
ag102
ag334
ag110
asg111
VThis thought process, is one reason that the literary use of the word Gothic has never developed as being a positive term (Baldick xiii).
p3721
sba(i__main__
Sentence
p3722
(dp3723
g17
I13
sg18
(lp3724
S'Calling'
p3725
aS'a'
p3726
aS'piece'
p3727
aS'of'
p3728
aS'literature'
p3729
aS'Gothic'
p3730
aS','
p3731
aS'allows'
p3732
aS'the'
p3733
aS'reader'
p3734
aS'to'
p3735
aS'interpret'
p3736
aS','
p3737
aS'from'
p3738
aS'the'
p3739
aS'beginning'
p3740
aS','
p3741
aS'that'
p3742
aS'the'
p3743
aS'story'
p3744
aS'will'
p3745
aS'be'
p3746
aS'challenging'
p3747
aS'the'
p3748
aS'norm'
p3749
aS'of'
p3750
aS'the'
p3751
aS'society'
p3752
aS'that'
p3753
aS'it'
p3754
aS'was'
p3755
aS'written'
p3756
aS'for'
p3757
aS'.'
p3758
asg54
(lp3759
VCalling
p3760
ag83
aVpiece
p3761
aVof
p3762
aVliterature
p3763
aVGothic
p3764
ag65
aVallow
p3765
aVthe
p3766
aVreader
p3767
aVto
p3768
aVinterpret
p3769
ag65
aVfrom
p3770
aVthe
p3771
aVbeginning
p3772
ag65
aVthat
p3773
aVthe
p3774
aVstory
p3775
aVwill
p3776
aVbe
p3777
aVchallenge
p3778
aVthe
p3779
aVnorm
p3780
aVof
p3781
aVthe
p3782
aVsociety
p3783
aVthat
p3784
aVit
p3785
ag79
aVwrite
p3786
aVfor
p3787
ag87
asg88
(lp3788
g90
ag90
ag90
ag90
ag90
ag90
ag90
ag90
ag90
ag90
ag90
ag90
ag90
ag90
ag90
ag90
ag90
ag90
ag90
ag90
ag90
ag90
ag90
ag90
ag90
ag90
ag90
ag90
ag90
ag90
ag90
ag90
ag90
ag90
asg95
(lp3789
g105
ag100
ag102
ag97
ag102
ag103
ag104
ag107
ag100
ag102
ag106
ag158
ag104
ag97
ag100
ag102
ag104
ag97
ag100
ag102
ag265
ag158
ag105
ag100
ag102
ag97
ag100
ag102
ag97
ag155
ag108
ag109
ag97
ag110
asg111
VCalling a piece of literature Gothic, allows the reader to interpret, from the beginning, that the story will be challenging the norm of the society that it was written for.
p3790
sba(i__main__
Sentence
p3791
(dp3792
g17
I14
sg18
(lp3793
S'Gothic'
p3794
aS','
p3795
aS'in'
p3796
aS'reference'
p3797
aS'to'
p3798
aS'literature'
p3799
aS'in'
p3800
aS'particular'
p3801
aS','
p3802
aS'repeatedly'
p3803
aS'presents'
p3804
aS'the'
p3805
aS'theme'
p3806
aS'of'
p3807
aS'escaping'
p3808
aS'oppression'
p3809
aS'.'
p3810
asg54
(lp3811
VGothic
p3812
ag65
aVin
p3813
aVreference
p3814
aVto
p3815
aVliterature
p3816
aVin
p3817
aVparticular
p3818
ag65
aVrepeatedly
p3819
aVpresent
p3820
aVthe
p3821
aVtheme
p3822
aVof
p3823
aVescape
p3824
aVoppression
p3825
ag87
asg88
(lp3826
g90
ag90
ag90
ag90
ag90
ag90
ag90
ag90
ag90
ag90
ag90
ag90
ag90
ag90
ag90
ag90
ag90
asg95
(lp3827
g103
ag104
ag97
ag102
ag106
ag158
ag97
ag101
ag104
ag157
ag107
ag100
ag102
ag97
ag105
ag102
ag110
asg111
VGothic, in reference to literature in particular, repeatedly presents the theme of escaping oppression.
p3828
sba(i__main__
Sentence
p3829
(dp3830
g17
I15
sg18
(lp3831
S'The'
p3832
aS'oppression'
p3833
aS'or'
p3834
aS'oppressor'
p3835
aS'could'
p3836
aS'take'
p3837
aS'many'
p3838
aS'forms'
p3839
aS','
p3840
aS'as'
p3841
aS'could'
p3842
aS'the'
p3843
aS'methods'
p3844
aS'of'
p3845
aS'escaping'
p3846
aS'.'
p3847
asg54
(lp3848
VThe
p3849
aVoppression
p3850
aVor
p3851
aVoppressor
p3852
aVcould
p3853
aVtake
p3854
aVmany
p3855
aVform
p3856
ag65
ag83
aVcould
p3857
aVthe
p3858
aVmethod
p3859
aVof
p3860
aVescape
p3861
ag87
asg88
(lp3862
g90
ag90
ag90
ag90
ag90
ag90
ag90
ag90
ag90
ag90
ag90
ag90
ag90
ag90
ag90
ag90
asg95
(lp3863
g100
ag102
ag156
ag102
ag265
ag158
ag101
ag99
ag104
ag97
ag265
ag100
ag99
ag97
ag105
ag110
asg111
VThe oppression or oppressor could take many forms, as could the methods of escaping.
p3864
sba(i__main__
Sentence
p3865
(dp3866
g17
I16
sg18
(lp3867
S'The'
p3868
aS'characters'
p3869
aS'always'
p3870
aS'find'
p3871
aS'themselves'
p3872
aS'in'
p3873
aS'situations'
p3874
aS'and'
p3875
aS'settings'
p3876
aS'that'
p3877
aS'involve'
p3878
aS'darkness'
p3879
aS','
p3880
aS'and'
p3881
aS'decay'
p3882
aS';'
p3883
aS'these'
p3884
aS'setting'
p3885
aS'are'
p3886
aS'usually'
p3887
aS'punctuated'
p3888
aS'by'
p3889
aS'storms'
p3890
aS'and'
p3891
aS'the'
p3892
aS'presence'
p3893
aS'of'
p3894
aS'the'
p3895
aS'supernatural'
p3896
aS'.'
p3897
asg54
(lp3898
VThe
p3899
aVcharacter
p3900
aValways
p3901
aVfind
p3902
aVthemselves
p3903
aVin
p3904
aVsituation
p3905
aVand
p3906
aVsetting
p3907
aVthat
p3908
aVinvolve
p3909
aVdarkness
p3910
ag65
aVand
p3911
aVdecay
p3912
ag314
aVthese
p3913
aVsetting
p3914
ag307
aVusually
p3915
aVpunctuate
p3916
aVby
p3917
aVstorm
p3918
aVand
p3919
aVthe
p3920
aVpresence
p3921
aVof
p3922
aVthe
p3923
aVsupernatural
p3924
ag87
asg88
(lp3925
g90
ag90
ag90
ag90
ag90
ag90
ag90
ag90
ag90
ag90
ag90
ag90
ag90
ag90
ag90
ag90
ag90
ag90
ag90
ag90
ag90
ag90
ag90
ag90
ag90
ag90
ag90
ag90
ag90
ag90
asg95
(lp3926
g100
ag99
ag157
ag333
ag155
ag97
ag99
ag156
ag99
ag450
ag158
ag102
ag104
ag156
ag102
ag334
ag100
ag102
ag333
ag157
ag109
ag97
ag99
ag156
ag100
ag102
ag97
ag100
ag101
ag110
asg111
VThe characters always find themselves in situations and settings that involve darkness, and decay; these setting are usually punctuated by storms and the presence of the supernatural.
p3927
sba(i__main__
Sentence
p3928
(dp3929
g17
I17
sg18
(lp3930
S'Ultimately'
p3931
aS','
p3932
aS'the'
p3933
aS'idea'
p3934
aS'of'
p3935
aS'Gothic'
p3936
aS'falls'
p3937
aS'back'
p3938
aS'onto'
p3939
aS'H.P'
p3940
aS'.'
p3941
asg54
(lp3942
VUltimately
p3943
ag65
aVthe
p3944
aVidea
p3945
aVof
p3946
aVGothic
p3947
aVfall
p3948
aVback
p3949
aVonto
p3950
aVH.P
p3951
ag87
asg88
(lp3952
g90
ag90
ag90
ag90
ag90
ag90
ag90
ag90
ag90
ag90
ag90
asg95
(lp3953
g157
ag104
ag100
ag102
ag97
ag103
ag99
ag333
ag97
ag101
ag110
asg111
VUltimately, the idea of Gothic falls back onto H.P.
p3954
sba(i__main__
Sentence
p3955
(dp3956
g17
I18
sg18
(lp3957
S'Lovecrafts'
p3958
aS'idea'
p3959
aS'that'
p3960
aS'the'
p3961
aS'oldest'
p3962
aS'and'
p3963
aS'strongest'
p3964
aS'emotion'
p3965
aS'of'
p3966
aS'mankind'
p3967
aS'is'
p3968
aS'fear'
p3969
aS','
p3970
aS'and'
p3971
aS'the'
p3972
aS'oldest'
p3973
aS'and'
p3974
aS'strongest'
p3975
aS'kind'
p3976
aS'of'
p3977
aS'fear'
p3978
aS'is'
p3979
aS'fear'
p3980
aS'of'
p3981
aS'the'
p3982
aS'unknown'
p3983
aS'.'
p3984
asg54
(lp3985
VLovecrafts
p3986
aVidea
p3987
aVthat
p3988
aVthe
p3989
aVold
p3990
aVand
p3991
aVstrong
p3992
aVemotion
p3993
aVof
p3994
aVmankind
p3995
ag145
aVfear
p3996
ag65
aVand
p3997
aVthe
p3998
aVold
p3999
aVand
p4000
ag3992
aVkind
p4001
aVof
p4002
aVfear
p4003
ag145
aVfear
p4004
aVof
p4005
aVthe
p4006
aVunknown
p4007
ag87
asg88
(lp4008
g90
ag90
ag90
ag90
ag90
ag90
ag90
ag90
ag90
ag90
ag90
ag90
ag90
ag90
ag90
ag90
ag90
ag90
ag90
ag90
ag90
ag90
ag90
ag90
ag90
ag90
ag90
asg95
(lp4009
g99
ag333
ag97
ag100
ag1780
ag156
ag1780
ag102
ag97
ag102
ag107
ag101
ag104
ag156
ag100
ag1780
ag156
ag1780
ag102
ag97
ag102
ag107
ag101
ag97
ag100
ag102
ag110
asg111
VLovecrafts idea that the oldest and strongest emotion of mankind is fear, and the oldest and strongest kind of fear is fear of the unknown.
p4010
sba(i__main__
Sentence
p4011
(dp4012
g17
I19
sg18
(lp4013
S'The'
p4014
aS'premise'
p4015
aS'of'
p4016
aS'Gothic'
p4017
aS'literature'
p4018
aS'is'
p4019
aS'to'
p4020
aS'play'
p4021
aS'on'
p4022
aS'the'
p4023
aS'fears'
p4024
aS'of'
p4025
aS'its'
p4026
aS'readers'
p4027
aS';'
p4028
aS'this'
p4029
aS'is'
p4030
aS'done'
p4031
aS'by'
p4032
aS'using'
p4033
aS'the'
p4034
aS'idea'
p4035
aS'of'
p4036
aS'creating'
p4037
aS'a'
p4038
aS'tyrant'
p4039
aS','
p4040
aS'damsel'
p4041
aS','
p4042
aS'and'
p4043
aS'hero'
p4044
aS'for'
p4045
aS'a'
p4046
aS'story'
p4047
aS'in'
p4048
aS'order'
p4049
aS'to'
p4050
aS'help'
p4051
aS'represent'
p4052
aS'the'
p4053
aS'wrongs'
p4054
aS'of'
p4055
aS'society'
p4056
aS'that'
p4057
aS'the'
p4058
aS'author'
p4059
aS'is'
p4060
aS'attempting'
p4061
aS'to'
p4062
aS'bring'
p4063
aS'to'
p4064
aS'the'
p4065
aS'forefront'
p4066
aS'of'
p4067
aS'a'
p4068
aS'readers'
p4069
aS'mind'
p4070
aS'.'
p4071
asg54
(lp4072
VThe
p4073
aVpremise
p4074
aVof
p4075
aVGothic
p4076
aVliterature
p4077
ag145
aVto
p4078
aVplay
p4079
aVon
p4080
aVthe
p4081
aVfear
p4082
aVof
p4083
aVit
p4084
aVreader
p4085
ag314
aVthis
p4086
ag145
ag2059
aVby
p4087
aVusing
p4088
aVthe
p4089
aVidea
p4090
aVof
p4091
aVcreate
p4092
ag83
aVtyrant
p4093
ag65
aVdamsel
p4094
ag65
aVand
p4095
aVhero
p4096
aVfor
p4097
ag83
aVstory
p4098
aVin
p4099
aVorder
p4100
aVto
p4101
aVhelp
p4102
aVrepresent
p4103
aVthe
p4104
aVwrong
p4105
aVof
p4106
aVsociety
p4107
aVthat
p4108
aVthe
p4109
aVauthor
p4110
ag145
aVattempt
p4111
aVto
p4112
aVbring
p4113
aVto
p4114
aVthe
p4115
aVforefront
p4116
aVof
p4117
ag83
aVreader
p4118
aVmind
p4119
ag87
asg88
(lp4120
g90
ag90
ag90
ag90
ag90
ag90
ag90
ag90
ag90
ag90
ag90
ag90
ag90
ag90
ag90
ag90
ag90
ag90
ag90
ag90
ag90
ag90
ag90
ag90
ag90
ag90
ag90
ag90
ag90
ag90
ag90
ag90
ag90
ag90
ag90
ag90
ag90
ag90
ag90
ag90
ag90
ag90
ag90
ag90
ag90
ag90
ag90
ag90
ag90
ag90
ag90
ag90
ag90
ag90
ag90
ag90
ag90
ag90
asg95
(lp4121
g100
ag102
ag97
ag103
ag102
ag107
ag106
ag158
ag97
ag100
ag99
ag97
ag264
ag99
ag334
ag100
ag107
ag109
ag97
ag102
ag100
ag102
ag97
ag105
ag100
ag101
ag104
ag102
ag104
ag156
ag102
ag97
ag100
ag102
ag97
ag102
ag106
ag158
ag102
ag100
ag99
ag97
ag102
ag97
ag100
ag102
ag107
ag105
ag106
ag158
ag106
ag100
ag102
ag97
ag100
ag99
ag333
ag110
asg111
VThe premise of Gothic literature is to play on the fears of its readers; this is done by using the idea of creating a tyrant, damsel, and hero for a story in order to help represent the wrongs of society that the author is attempting to bring to the forefront of a readers mind.
p4122
sba(i__main__
Sentence
p4123
(dp4124
g17
I20
sg18
(lp4125
S'So'
p4126
aS','
p4127
aS'for'
p4128
aS'every'
p4129
aS'tyrant'
p4130
aS','
p4131
aS'there'
p4132
aS'is'
p4133
aS'a'
p4134
aS'damsel'
p4135
aS'in'
p4136
aS'distress'
p4137
aS'.'
p4138
asg54
(lp4139
VSo
p4140
ag65
aVfor
p4141
aVevery
p4142
aVtyrant
p4143
ag65
aVthere
p4144
ag145
ag83
aVdamsel
p4145
aVin
p4146
aVdistress
p4147
ag87
asg88
(lp4148
g90
ag90
ag90
ag90
ag90
ag90
ag90
ag90
ag90
ag90
ag90
ag90
ag90
asg95
(lp4149
g97
ag104
ag97
ag100
ag102
ag104
ag335
ag107
ag100
ag102
ag97
ag102
ag110
asg111
VSo, for every tyrant, there is a damsel in distress.
p4150
sba(i__main__
Sentence
p4151
(dp4152
g17
I21
sg18
(lp4153
S'And'
p4154
aS'for'
p4155
aS'every'
p4156
aS'damsel'
p4157
aS','
p4158
aS'there'
p4159
aS'is'
p4160
aS'a'
p4161
aS'hero'
p4162
aS';'
p4163
aS'however'
p4164
aS','
p4165
aS'the'
p4166
aS'hero'
p4167
aS'could'
p4168
aS'be'
p4169
aS'entirely'
p4170
aS'unsuccessful'
p4171
aS'despite'
p4172
aS'their'
p4173
aS'noble'
p4174
aS'intentions'
p4175
aS','
p4176
aS'or'
p4177
aS'could'
p4178
aS'in'
p4179
aS'fact'
p4180
aS'be'
p4181
aS'the'
p4182
aS'damsel'
p4183
aS'themselves'
p4184
aS'.'
p4185
asg54
(lp4186
VAnd
p4187
aVfor
p4188
aVevery
p4189
aVdamsel
p4190
ag65
aVthere
p4191
ag145
ag83
aVhero
p4192
ag314
aVhowever
p4193
ag65
aVthe
p4194
aVhero
p4195
aVcould
p4196
aVbe
p4197
aVentirely
p4198
aVunsuccessful
p4199
aVdespite
p4200
aVtheir
p4201
aVnoble
p4202
aVintention
p4203
ag65
aVor
p4204
aVcould
p4205
aVin
p4206
aVfact
p4207
aVbe
p4208
aVthe
p4209
aVdamsel
p4210
aVthemselves
p4211
ag87
asg88
(lp4212
g90
ag90
ag90
ag90
ag90
ag90
ag90
ag90
ag90
ag90
ag90
ag90
ag90
ag90
ag90
ag90
ag90
ag90
ag90
ag90
ag90
ag90
ag90
ag90
ag90
ag90
ag90
ag90
ag90
ag90
ag90
ag90
asg95
(lp4213
g156
ag97
ag100
ag102
ag104
ag335
ag107
ag100
ag102
ag334
ag157
ag104
ag100
ag102
ag265
ag158
ag157
ag101
ag97
ag264
ag101
ag99
ag104
ag156
ag265
ag97
ag102
ag158
ag100
ag102
ag155
ag110
asg111
VAnd for every damsel, there is a hero; however, the hero could be entirely unsuccessful despite their noble intentions, or could in fact be the damsel themselves.
p4214
sba(i__main__
Sentence
p4215
(dp4216
g17
I22
sg18
(lp4217
S'The'
p4218
aS'reader'
p4219
aS'of'
p4220
aS'Gothic'
p4221
aS'Literature'
p4222
aS'must'
p4223
aS'remember'
p4224
aS'that'
p4225
aS'while'
p4226
aS'there'
p4227
aS'are'
p4228
aS'many'
p4229
aS'ideas'
p4230
aS','
p4231
aS'themes'
p4232
aS','
p4233
aS'theories'
p4234
aS','
p4235
aS'and'
p4236
aS'reoccurrences'
p4237
aS'as'
p4238
aS'to'
p4239
aS'what'
p4240
aS'Gothic'
p4241
aS'is'
p4242
aS','
p4243
aS'it'
p4244
aS'is'
p4245
aS'ultimately'
p4246
aS'ever-changing'
p4247
aS'because'
p4248
aS'of'
p4249
aS'its'
p4250
aS'need'
p4251
aS'to'
p4252
aS'go'
p4253
aS'against'
p4254
aS'the'
p4255
aS'norms'
p4256
aS'of'
p4257
aS'its'
p4258
aS'current'
p4259
aS'society'
p4260
aS'.'
p4261
asg54
(lp4262
VThe
p4263
aVreader
p4264
aVof
p4265
aVGothic
p4266
aVLiterature
p4267
aVmust
p4268
aVremember
p4269
aVthat
p4270
aVwhile
p4271
aVthere
p4272
ag307
aVmany
p4273
aVidea
p4274
ag65
aVtheme
p4275
ag65
aVtheory
p4276
ag65
aVand
p4277
aVreoccurrences
p4278
ag83
aVto
p4279
aVwhat
p4280
aVGothic
p4281
ag145
ag65
aVit
p4282
ag145
aVultimately
p4283
aVever-changing
p4284
aVbecause
p4285
aVof
p4286
aVit
p4287
aVneed
p4288
aVto
p4289
aVgo
p4290
aVagainst
p4291
aVthe
p4292
aVnorm
p4293
aVof
p4294
aVit
p4295
aVcurrent
p4296
aVsociety
p4297
ag87
asg88
(lp4298
g90
ag90
ag90
ag90
ag90
ag90
ag90
ag90
ag90
ag90
ag90
ag90
ag90
ag90
ag90
ag90
ag90
ag90
ag90
ag90
ag90
ag90
ag90
ag90
ag90
ag90
ag90
ag90
ag90
ag90
ag90
ag90
ag90
ag90
ag90
ag90
ag90
ag90
ag90
ag90
ag90
ag90
ag90
ag90
asg95
(lp4299
g100
ag102
ag97
ag103
ag103
ag265
ag158
ag97
ag97
ag335
ag333
ag101
ag99
ag104
ag107
ag104
ag99
ag104
ag156
ag99
ag97
ag106
ag510
ag103
ag107
ag104
ag155
ag107
ag157
ag101
ag97
ag97
ag264
ag102
ag106
ag158
ag97
ag100
ag99
ag97
ag264
ag101
ag102
ag110
asg111
VThe reader of Gothic Literature must remember that while there are many ideas, themes, theories, and reoccurrences as to what Gothic is, it is ultimately ever-changing because of its need to go against the norms of its current society.
p4300
sbasbsS'name'
p4301
S'A Vine on a House'
p4302
sS'summaries'
p4303
(lp4304
g2861
asb.