ccopy_reg
_reconstructor
p0
(c__main__
Story
p1
c__builtin__
object
p2
Ntp3
Rp4
(dp5
S'text'
p6
g0
(c__main__
Document
p7
g2
Ntp8
Rp9
(dp10
S'_Document__initialContent'
p11
S'There was once a poor woman who had two children.  The youngest\nhad to go every day into the forest to fetch wood.  Once when\nshe had gone a long way to seek it, a little child, who\nwas quite strong, came and helped her industriously to pick up\nthe wood and carry it home, and then before a moment had passed\nthe strange child disappeared.  The child told her mother this,\nbut at first she would not believe it.  At length she brought\na rose home, and told her mother that the beautiful child had\ngiven her this\nrose, and had told her that when it was in full bloom, he would\nreturn.  The mother put the rose in water.  One morning her\nchild could not get out of bed.  The mother went to the bed and\nfound her dead, but she lay looking very happy.  On the same\nmorning, the rose was in full bloom.\n'
p12
sS'sentences'
p13
(lp14
(i__main__
Sentence
p15
(dp16
S'index'
p17
I0
sS'words'
p18
(lp19
S'There'
p20
aS'was'
p21
aS'once'
p22
aS'a'
p23
aS'poor'
p24
aS'woman'
p25
aS'who'
p26
aS'had'
p27
aS'two'
p28
aS'children'
p29
aS'.'
p30
asS'lemmas'
p31
(lp32
VThere
p33
aVbe
p34
aVonce
p35
aVa
p36
aVpoor
p37
aVwoman
p38
aVwho
p39
aVhave
p40
aVtwo
p41
aVchild
p42
aV.
p43
asS'nerTags'
p44
(lp45
VO
p46
ag46
ag46
ag46
ag46
ag46
ag46
ag46
ag46
ag46
ag46
asS'posTags'
p47
(lp48
S'EX'
p49
aS'VBD'
p50
aS'RB'
p51
aS'DT'
p52
aS'JJ'
p53
aS'NN'
p54
aS'WP'
p55
ag50
aS'CD'
p56
aS'NNS'
p57
aS'.'
p58
asS'_Sentence__initialContent'
p59
VThere was once a poor woman who had two children.
p60
sba(i__main__
Sentence
p61
(dp62
g17
I1
sg18
(lp63
S'The'
p64
aS'youngest'
p65
aS'had'
p66
aS'to'
p67
aS'go'
p68
aS'every'
p69
aS'day'
p70
aS'into'
p71
aS'the'
p72
aS'forest'
p73
aS'to'
p74
aS'fetch'
p75
aS'wood'
p76
aS'.'
p77
asg31
(lp78
VThe
p79
aVyoung
p80
ag40
aVto
p81
aVgo
p82
aVevery
p83
aVday
p84
aVinto
p85
aVthe
p86
aVforest
p87
aVto
p88
aVfetch
p89
aVwood
p90
ag43
asg44
(lp91
g46
ag46
ag46
ag46
ag46
ag46
ag46
ag46
ag46
ag46
ag46
ag46
ag46
ag46
asg47
(lp92
g52
aS'JJS'
p93
ag50
aS'TO'
p94
aS'VB'
p95
ag52
ag54
aS'IN'
p96
ag52
ag93
ag94
ag95
ag54
ag58
asg59
VThe youngest had to go every day into the forest to fetch wood.
p97
sba(i__main__
Sentence
p98
(dp99
g17
I2
sg18
(lp100
S'Once'
p101
aS'when'
p102
aS'she'
p103
aS'had'
p104
aS'gone'
p105
aS'a'
p106
aS'long'
p107
aS'way'
p108
aS'to'
p109
aS'seek'
p110
aS'it'
p111
aS','
p112
aS'a'
p113
aS'little'
p114
aS'child'
p115
aS','
p116
aS'who'
p117
aS'was'
p118
aS'quite'
p119
aS'strong'
p120
aS','
p121
aS'came'
p122
aS'and'
p123
aS'helped'
p124
aS'her'
p125
aS'industriously'
p126
aS'to'
p127
aS'pick'
p128
aS'up'
p129
aS'the'
p130
aS'wood'
p131
aS'and'
p132
aS'carry'
p133
aS'it'
p134
aS'home'
p135
aS','
p136
aS'and'
p137
aS'then'
p138
aS'before'
p139
aS'a'
p140
aS'moment'
p141
aS'had'
p142
aS'passed'
p143
aS'the'
p144
aS'strange'
p145
aS'child'
p146
aS'disappeared'
p147
aS'.'
p148
asg31
(lp149
VOnce
p150
aVwhen
p151
aVshe
p152
ag40
aVgo
p153
ag36
aVlong
p154
aVway
p155
aVto
p156
aVseek
p157
aVit
p158
aV,
p159
ag36
aVlittle
p160
aVchild
p161
ag159
aVwho
p162
ag34
aVquite
p163
aVstrong
p164
ag159
aVcome
p165
aVand
p166
aVhelp
p167
aVher
p168
aVindustriously
p169
aVto
p170
aVpick
p171
aVup
p172
aVthe
p173
aVwood
p174
aVand
p175
aVcarry
p176
aVit
p177
aVhome
p178
ag159
aVand
p179
aVthen
p180
aVbefore
p181
ag36
aVmoment
p182
ag40
aVpass
p183
aVthe
p184
aVstrange
p185
aVchild
p186
aVdisappear
p187
ag43
asg44
(lp188
g46
ag46
ag46
ag46
ag46
ag46
ag46
ag46
ag46
ag46
ag46
ag46
ag46
ag46
ag46
ag46
ag46
ag46
ag46
ag46
ag46
ag46
ag46
ag46
ag46
ag46
ag46
ag46
ag46
ag46
ag46
ag46
ag46
ag46
ag46
ag46
ag46
ag46
ag46
ag46
ag46
ag46
ag46
ag46
ag46
ag46
ag46
ag46
asg47
(lp189
g51
aS'WRB'
p190
aS'PRP'
p191
ag50
aS'VBN'
p192
ag52
ag53
ag54
ag94
ag95
ag191
aS','
p193
ag52
ag51
ag192
ag193
ag55
ag50
ag51
ag53
ag193
ag50
aS'CC'
p194
ag192
aS'PRP$'
p195
ag51
ag94
ag95
aS'RP'
p196
ag52
ag54
ag194
ag95
ag191
ag95
ag193
ag194
ag51
ag96
ag52
ag54
ag50
ag192
ag52
ag54
ag54
ag50
ag58
asg59
VOnce when she had gone a long way to seek it, a little child, who was quite strong, came and helped her industriously to pick up the wood and carry it home, and then before a moment had passed the strange child disappeared.
p197
sba(i__main__
Sentence
p198
(dp199
g17
I3
sg18
(lp200
S'The'
p201
aS'child'
p202
aS'told'
p203
aS'her'
p204
aS'mother'
p205
aS'this'
p206
aS','
p207
aS'but'
p208
aS'at'
p209
aS'first'
p210
aS'she'
p211
aS'would'
p212
aS'not'
p213
aS'believe'
p214
aS'it'
p215
aS'.'
p216
asg31
(lp217
VThe
p218
aVchild
p219
aVtell
p220
aVher
p221
aVmother
p222
aVthis
p223
ag159
aVbut
p224
aVat
p225
aVfirst
p226
aVshe
p227
aVwould
p228
aVnot
p229
aVbelieve
p230
aVit
p231
ag43
asg44
(lp232
g46
ag46
ag46
ag46
ag46
ag46
ag46
ag46
ag46
ag46
ag46
ag46
ag46
ag46
ag46
ag46
asg47
(lp233
g52
ag54
ag50
ag191
ag51
ag52
ag193
ag194
ag96
ag53
ag191
aS'MD'
p234
ag51
ag95
ag191
ag58
asg59
VThe child told her mother this, but at first she would not believe it.
p235
sba(i__main__
Sentence
p236
(dp237
g17
I4
sg18
(lp238
S'At'
p239
aS'length'
p240
aS'she'
p241
aS'brought'
p242
aS'a'
p243
aS'rose'
p244
aS'home'
p245
aS','
p246
aS'and'
p247
aS'told'
p248
aS'her'
p249
aS'mother'
p250
aS'that'
p251
aS'the'
p252
aS'beautiful'
p253
aS'child'
p254
aS'had'
p255
aS'given'
p256
aS'her'
p257
aS'this'
p258
aS'rose'
p259
aS','
p260
aS'and'
p261
aS'had'
p262
aS'told'
p263
aS'her'
p264
aS'that'
p265
aS'when'
p266
aS'it'
p267
aS'was'
p268
aS'in'
p269
aS'full'
p270
aS'bloom'
p271
aS','
p272
aS'he'
p273
aS'would'
p274
aS'return'
p275
aS'.'
p276
asg31
(lp277
VAt
p278
aVlength
p279
aVshe
p280
aVbring
p281
ag36
aVrose
p282
aVhome
p283
ag159
aVand
p284
ag220
aVher
p285
aVmother
p286
aVthat
p287
aVthe
p288
aVbeautiful
p289
aVchild
p290
ag40
aVgive
p291
aVher
p292
aVthis
p293
aVrose
p294
ag159
aVand
p295
ag40
ag220
aVher
p296
aVthat
p297
aVwhen
p298
aVit
p299
ag34
aVin
p300
aVfull
p301
aVbloom
p302
ag159
aVhe
p303
aVwould
p304
aVreturn
p305
ag43
asg44
(lp306
g46
ag46
ag46
ag46
ag46
ag46
ag46
ag46
ag46
ag46
ag46
ag46
ag46
ag46
ag46
ag46
ag46
ag46
ag46
ag46
ag46
ag46
ag46
ag46
ag46
ag46
ag46
ag46
ag46
ag46
ag46
ag46
ag46
ag46
ag46
ag46
ag46
ag46
asg47
(lp307
g96
ag54
ag191
ag50
ag52
ag54
ag54
ag193
ag194
ag50
ag191
ag51
ag96
ag52
ag53
ag54
ag50
ag192
ag195
ag52
ag54
ag193
ag194
ag50
ag192
ag195
ag96
ag190
ag191
ag50
ag96
ag53
ag54
ag193
ag191
ag234
ag95
ag58
asg59
VAt length she brought a rose home, and told her mother that the beautiful child had given her this rose, and had told her that when it was in full bloom, he would return.
p308
sba(i__main__
Sentence
p309
(dp310
g17
I5
sg18
(lp311
S'The'
p312
aS'mother'
p313
aS'put'
p314
aS'the'
p315
aS'rose'
p316
aS'in'
p317
aS'water'
p318
aS'.'
p319
asg31
(lp320
VThe
p321
aVmother
p322
aVput
p323
aVthe
p324
aVrose
p325
aVin
p326
aVwater
p327
ag43
asg44
(lp328
g46
ag46
ag46
ag46
ag46
ag46
ag46
ag46
asg47
(lp329
g52
ag54
ag50
ag52
ag54
ag96
ag54
ag58
asg59
VThe mother put the rose in water.
p330
sba(i__main__
Sentence
p331
(dp332
g17
I6
sg18
(lp333
S'One'
p334
aS'morning'
p335
aS'her'
p336
aS'child'
p337
aS'could'
p338
aS'not'
p339
aS'get'
p340
aS'out'
p341
aS'of'
p342
aS'bed'
p343
aS'.'
p344
asg31
(lp345
VOne
p346
aVmorning
p347
aVher
p348
aVchild
p349
aVcould
p350
aVnot
p351
aVget
p352
aVout
p353
aVof
p354
aVbed
p355
ag43
asg44
(lp356
g46
ag46
ag46
ag46
ag46
ag46
ag46
ag46
ag46
ag46
ag46
asg47
(lp357
g56
ag54
ag195
ag54
ag234
ag51
ag95
ag96
ag96
ag192
ag58
asg59
VOne morning her child could not get out of bed.
p358
sba(i__main__
Sentence
p359
(dp360
g17
I7
sg18
(lp361
S'The'
p362
aS'mother'
p363
aS'went'
p364
aS'to'
p365
aS'the'
p366
aS'bed'
p367
aS'and'
p368
aS'found'
p369
aS'her'
p370
aS'dead'
p371
aS','
p372
aS'but'
p373
aS'she'
p374
aS'lay'
p375
aS'looking'
p376
aS'very'
p377
aS'happy'
p378
aS'.'
p379
asg31
(lp380
VThe
p381
aVmother
p382
aVgo
p383
aVto
p384
aVthe
p385
aVbed
p386
aVand
p387
aVfind
p388
aVher
p389
aVdead
p390
ag159
aVbut
p391
aVshe
p392
aVlay
p393
aVlook
p394
aVvery
p395
aVhappy
p396
ag43
asg44
(lp397
g46
ag46
ag46
ag46
ag46
ag46
ag46
ag46
ag46
ag46
ag46
ag46
ag46
ag46
ag46
ag46
ag46
ag46
asg47
(lp398
g52
ag54
ag50
ag94
ag52
ag192
ag194
ag192
ag195
ag54
ag193
ag194
ag191
ag50
aS'VBG'
p399
ag51
ag53
ag58
asg59
VThe mother went to the bed and found her dead, but she lay looking very happy.
p400
sba(i__main__
Sentence
p401
(dp402
g17
I8
sg18
(lp403
S'On'
p404
aS'the'
p405
aS'same'
p406
aS'morning'
p407
aS','
p408
aS'the'
p409
aS'rose'
p410
aS'was'
p411
aS'in'
p412
aS'full'
p413
aS'bloom'
p414
aS'.'
p415
asg31
(lp416
VOn
p417
aVthe
p418
aVsame
p419
aVmorning
p420
ag159
aVthe
p421
aVrose
p422
ag34
aVin
p423
aVfull
p424
aVbloom
p425
ag43
asg44
(lp426
g46
ag46
ag46
ag46
ag46
ag46
ag46
ag46
ag46
ag46
ag46
ag46
asg47
(lp427
g96
ag52
ag53
ag54
ag193
ag52
ag54
ag50
ag96
ag53
ag54
ag58
asg59
VOn the same morning, the rose was in full bloom. 
p428
sbasbsS'summary'
p429
g0
(g7
g2
Ntp430
Rp431
(dp432
g11
S'A girl goes to the forest to pick up wood and is assisted by a strange child. This child gives her a rose and tells her that when the rose is fully bloomed, he will come back. One day the mother finds the child in her bed, dead. At this point the rose is in full bloom.'
p433
sg13
(lp434
(i__main__
Sentence
p435
(dp436
g17
I0
sg18
(lp437
S'A'
p438
aS'girl'
p439
aS'goes'
p440
aS'to'
p441
aS'the'
p442
aS'forest'
p443
aS'to'
p444
aS'pick'
p445
aS'up'
p446
aS'wood'
p447
aS'and'
p448
aS'is'
p449
aS'assisted'
p450
aS'by'
p451
aS'a'
p452
aS'strange'
p453
aS'child'
p454
aS'.'
p455
asg31
(lp456
VA
p457
aVgirl
p458
aVgo
p459
aVto
p460
aVthe
p461
aVforest
p462
aVto
p463
aVpick
p464
aVup
p465
aVwood
p466
aVand
p467
aVbe
p468
aVassist
p469
aVby
p470
ag36
aVstrange
p471
aVchild
p472
ag43
asg44
(lp473
g46
ag46
ag46
ag46
ag46
ag46
ag46
ag46
ag46
ag46
ag46
ag46
ag46
ag46
ag46
ag46
ag46
ag46
asg47
(lp474
g52
ag54
aS'VBZ'
p475
ag94
ag52
ag93
ag94
ag95
ag196
ag54
ag194
ag475
ag192
ag96
ag52
ag54
ag54
ag58
asg59
VA girl goes to the forest to pick up wood and is assisted by a strange child.
p476
sba(i__main__
Sentence
p477
(dp478
g17
I1
sg18
(lp479
S'This'
p480
aS'child'
p481
aS'gives'
p482
aS'her'
p483
aS'a'
p484
aS'rose'
p485
aS'and'
p486
aS'tells'
p487
aS'her'
p488
aS'that'
p489
aS'when'
p490
aS'the'
p491
aS'rose'
p492
aS'is'
p493
aS'fully'
p494
aS'bloomed'
p495
aS','
p496
aS'he'
p497
aS'will'
p498
aS'come'
p499
aS'back'
p500
aS'.'
p501
asg31
(lp502
VThis
p503
aVchild
p504
aVgive
p505
aVher
p506
ag36
aVrose
p507
aVand
p508
aVtell
p509
aVher
p510
aVthat
p511
aVwhen
p512
aVthe
p513
aVrose
p514
ag468
aVfully
p515
aVbloom
p516
ag159
aVhe
p517
aVwill
p518
aVcome
p519
aVback
p520
ag43
asg44
(lp521
g46
ag46
ag46
ag46
ag46
ag46
ag46
ag46
ag46
ag46
ag46
ag46
ag46
ag46
ag46
ag46
ag46
ag46
ag46
ag46
ag46
ag46
asg47
(lp522
g52
ag54
ag475
ag195
ag52
ag54
ag194
ag57
ag195
ag96
ag190
ag52
ag54
ag475
ag51
ag192
ag193
ag191
ag234
ag95
ag51
ag58
asg59
VThis child gives her a rose and tells her that when the rose is fully bloomed, he will come back.
p523
sba(i__main__
Sentence
p524
(dp525
g17
I2
sg18
(lp526
S'One'
p527
aS'day'
p528
aS'the'
p529
aS'mother'
p530
aS'finds'
p531
aS'the'
p532
aS'child'
p533
aS'in'
p534
aS'her'
p535
aS'bed'
p536
aS','
p537
aS'dead'
p538
aS'.'
p539
asg31
(lp540
VOne
p541
aVday
p542
aVthe
p543
aVmother
p544
aVfind
p545
aVthe
p546
aVchild
p547
aVin
p548
aVher
p549
aVbed
p550
ag159
aVdead
p551
ag43
asg44
(lp552
g46
ag46
ag46
ag46
ag46
ag46
ag46
ag46
ag46
ag46
ag46
ag46
ag46
asg47
(lp553
g56
ag54
ag52
ag54
ag57
ag52
ag54
ag96
ag195
ag192
ag193
ag53
ag58
asg59
VOne day the mother finds the child in her bed, dead.
p554
sba(i__main__
Sentence
p555
(dp556
g17
I3
sg18
(lp557
S'At'
p558
aS'this'
p559
aS'point'
p560
aS'the'
p561
aS'rose'
p562
aS'is'
p563
aS'in'
p564
aS'full'
p565
aS'bloom'
p566
aS'.'
p567
asg31
(lp568
VAt
p569
aVthis
p570
aVpoint
p571
aVthe
p572
aVrose
p573
ag468
aVin
p574
aVfull
p575
aVbloom
p576
ag43
asg44
(lp577
g46
ag46
ag46
ag46
ag46
ag46
ag46
ag46
ag46
ag46
asg47
(lp578
g96
ag52
ag54
ag52
ag54
ag475
ag96
ag53
ag54
ag58
asg59
VAt this point the rose is in full bloom.
p579
sbasbsS'name'
p580
S'The Rose'
p581
sS'summaries'
p582
(lp583
g431
asb.