ccopy_reg
_reconstructor
p0
(c__main__
Story
p1
c__builtin__
object
p2
Ntp3
Rp4
(dp5
S'text'
p6
g0
(c__main__
Document
p7
g2
Ntp8
Rp9
(dp10
S'_Document__initialContent'
p11
S'What he liked about his first wife was her gift of mimicry; after a party, theirs or another couple\'s, she would vivify for him what they had seen, the faces, the voices, twisting her pretty mouth into small contortions that brought back, for a dazzling instant, the presence of an absent acquaintance. "Well, if I reawyhow does Gwen talk?if I re-awwy cared about conserwation" And he, the husband, would laugh and laugh, even though Gwen was secretly his mistress and would become his second wife. What he liked about her was her liveliness in bed, and what he disliked about his first wife was the way she would ask to have her back rubbed and then, under his laboring hands, night after night, fall asleep.\n\n\n\nFor the first years of the new marriage, after he and Gwen had returned from a party he would wait, unconsciously, for the imitations, the recapitulation, to begin. He would even prompt: "What did you make of our hostess\'s brother?"\n\n\n\n"Oh," Gwen would simply say, "he seemed very pleasant." Sensing with feminine intuition that he expected more, she might add, "Harmless. Maybe a little stuffy." Her eyes flashed as she heard in his expectant silence an unvoiced demand, and with that touching, childlike impediment of hers she blurted out, "What are you reawy after?"\n\n\n\n"Oh, nothing. Nothing. It\'s justMarguerite met him once a few years ago and she was struck by what a pompous nitwit he was. That way he has of sucking his pipestem and ending every statement with \'Do you follow me?\'"\n\n\n\n"I thought he was perfectly pleasant," Gwen said frostily, and turned her back to remove her silvery, snug party dress. As she wriggled it down over her hips she turned her head and defiantly added, "He had a lot to say about tax shelters."\n\n\n\n"I bet he did," Pygmalion scoffed feebly, numbed by the sight of his wife frontally advancing, nude, toward him and their marital bed. "It\'s awfully late," he warned her.\n\n\n\n"Oh, come on," she said, the lights out.\n\n\n\nThe first imitation Gwen did was of Marguerite\'s second husband, Ed; they had all unexpectedly met at a Save the Whales benefit ball, to which invitations had been sent out indiscriminately. "Oh-ho-ho," she boomed in the privacy of their bedroom afterward, "so you\'re my noble predecessor!" In aside she added, "Noble, my ass. He hates you so much you turned him on."\n\n\n\n"I did?" he said. "I thought he was perfectly pleasant, in what could have been an awkward encounter."\n\n\n\n"Yes, indeedy," she agreed, imitating hearty Ed, and for a dazzling second allowing the man\'s slightly glassy and slack expression of forced benignity to invade her own usually petite and rounded features. "Nothing awkward about us, ho ho," she went on, encouraged. "And tell me, old chap, why is it your child-support check is never on time anymore?"\n\n\n\nHe laughed and laughed, entranced to see his bride arrive at what he conceived to be proper womanlinessa plastic, alert sensitivity to the human environment, a susceptible responsiveness tugged this way and that by the currents of Nature herself. He could not know the world, was his fear, unless a woman translated it for him. Now, when they returned from a gathering, and he asked what she had made of so-and-so, Gwen would stand in her underwear and consider, as if onstage. "We-hell, my dear," she would announce in sudden, fluting parody, "if it wasn\'t for Portugal there rally wouldn\'t be a country left in Europe!"\n\n\n\n"Oh, come on," he would protest, delighted to see her pretty features distort themselves into an uncanny, snobbish horsiness.\n\n\n\n"How did she do it?" Gwen would ask, as if professionally intent. "Something with the chin, sort of rolling it from side to side without unclenching the teeth."\n\n\n\n"You\'ve got it!" he applauded.\n\n\n\n"Of course you knoaow," she went on in the assumed voice, "there used to be Greece, but now all these dreadful Arabs..."\n\n\n\n"Oh, yes, yes," he said, his face smarting from laughing so hard, so proudly. She had become perfect for him.\n\n\n\nIn bed she pointed out, "It\'s awfully late."\n\n\n\n"Want a back rub?"\n\n\n\n"Mmmm. That would be reawy nice." As his left hand labored on the smooth, warm, pliable surface, his wifethat small something in her that was all her ownsank out of reach; night after night, she fell asleep.'
p12
sS'sentences'
p13
(lp14
(i__main__
Sentence
p15
(dp16
S'index'
p17
I0
sS'words'
p18
(lp19
S'What'
p20
aS'he'
p21
aS'liked'
p22
aS'about'
p23
aS'his'
p24
aS'first'
p25
aS'wife'
p26
aS'was'
p27
aS'her'
p28
aS'gift'
p29
aS'of'
p30
aS'mimicry'
p31
aS';'
p32
aS'after'
p33
aS'a'
p34
aS'party'
p35
aS','
p36
aS'theirs'
p37
aS'or'
p38
aS'another'
p39
aS'couple'
p40
aS"'s"
p41
aS','
p42
aS'she'
p43
aS'would'
p44
aS'vivify'
p45
aS'for'
p46
aS'him'
p47
aS'what'
p48
aS'they'
p49
aS'had'
p50
aS'seen'
p51
aS','
p52
aS'the'
p53
aS'faces'
p54
aS','
p55
aS'the'
p56
aS'voices'
p57
aS','
p58
aS'twisting'
p59
aS'her'
p60
aS'pretty'
p61
aS'mouth'
p62
aS'into'
p63
aS'small'
p64
aS'contortions'
p65
aS'that'
p66
aS'brought'
p67
aS'back'
p68
aS','
p69
aS'for'
p70
aS'a'
p71
aS'dazzling'
p72
aS'instant'
p73
aS','
p74
aS'the'
p75
aS'presence'
p76
aS'of'
p77
aS'an'
p78
aS'absent'
p79
aS'acquaintance'
p80
aS'.'
p81
asS'lemmas'
p82
(lp83
VWhat
p84
aVhe
p85
aVlike
p86
aVabout
p87
aVhis
p88
aVfirst
p89
aVwife
p90
aVbe
p91
aVher
p92
aVgift
p93
aVof
p94
aVmimicry
p95
aV;
p96
aVafter
p97
aVa
p98
aVparty
p99
aV,
p100
aVtheirs
p101
aVor
p102
aVanother
p103
aVcouple
p104
aV's
p105
ag100
aVshe
p106
aVwould
p107
aVvivify
p108
aVfor
p109
aVhim
p110
aVwhat
p111
aVthey
p112
aVhave
p113
aVsee
p114
ag100
aVthe
p115
aVface
p116
ag100
aVthe
p117
aVvoice
p118
ag100
aVtwist
p119
aVher
p120
aVpretty
p121
aVmouth
p122
aVinto
p123
aVsmall
p124
aVcontortion
p125
aVthat
p126
aVbring
p127
aVback
p128
ag100
aVfor
p129
ag98
aVdazzling
p130
aVinstant
p131
ag100
aVthe
p132
aVpresence
p133
aVof
p134
aVan
p135
aVabsent
p136
aVacquaintance
p137
aV.
p138
asS'nerTags'
p139
(lp140
VO
p141
ag141
ag141
ag141
ag141
ag141
ag141
ag141
ag141
ag141
ag141
ag141
ag141
ag141
ag141
ag141
ag141
ag141
ag141
ag141
ag141
ag141
ag141
ag141
ag141
ag141
ag141
ag141
ag141
ag141
ag141
ag141
ag141
ag141
ag141
ag141
ag141
ag141
ag141
ag141
ag141
ag141
ag141
ag141
ag141
ag141
ag141
ag141
ag141
ag141
ag141
ag141
ag141
ag141
ag141
ag141
ag141
ag141
ag141
ag141
ag141
ag141
asS'posTags'
p142
(lp143
S'WP'
p144
aS'PRP'
p145
aS'VBD'
p146
aS'IN'
p147
aS'PRP$'
p148
aS'JJ'
p149
aS'NN'
p150
ag146
ag148
ag150
ag147
ag150
aS':'
p151
ag147
aS'DT'
p152
ag150
aS','
p153
aS'NNS'
p154
aS'CC'
p155
ag152
ag150
aS'POS'
p156
ag153
ag145
aS'MD'
p157
aS'VB'
p158
ag147
ag145
ag144
ag145
ag146
aS'VBN'
p159
ag153
ag152
ag154
ag153
ag152
ag154
ag153
aS'VBG'
p160
ag145
aS'RB'
p161
ag149
ag147
ag149
ag154
aS'WDT'
p162
ag146
aS'RP'
p163
ag153
ag147
ag152
ag150
ag150
ag153
ag152
ag150
ag147
ag152
ag150
ag150
aS'.'
p164
asS'_Sentence__initialContent'
p165
VWhat he liked about his first wife was her gift of mimicry; after a party, theirs or another couple's, she would vivify for him what they had seen, the faces, the voices, twisting her pretty mouth into small contortions that brought back, for a dazzling instant, the presence of an absent acquaintance.
p166
sba(i__main__
Sentence
p167
(dp168
g17
I1
sg18
(lp169
S'``'
p170
aS'Well'
p171
aS','
p172
aS'if'
p173
aS'I'
p174
aS'reawyhow'
p175
aS'does'
p176
aS'Gwen'
p177
aS'talk'
p178
aS'?'
p179
aS'if'
p180
aS'I'
p181
aS're-awwy'
p182
aS'cared'
p183
aS'about'
p184
aS'conserwation'
p185
aS"''"
p186
aS'And'
p187
aS'he'
p188
aS','
p189
aS'the'
p190
aS'husband'
p191
aS','
p192
aS'would'
p193
aS'laugh'
p194
aS'and'
p195
aS'laugh'
p196
aS','
p197
aS'even'
p198
aS'though'
p199
aS'Gwen'
p200
aS'was'
p201
aS'secretly'
p202
aS'his'
p203
aS'mistress'
p204
aS'and'
p205
aS'would'
p206
aS'become'
p207
aS'his'
p208
aS'second'
p209
aS'wife'
p210
aS'.'
p211
asg82
(lp212
V``
p213
aVWell
p214
ag100
aVif
p215
aVI
p216
aVreawyhow
p217
aVdo
p218
aVGwen
p219
aVtalk
p220
aV?
p221
aVif
p222
ag216
aVre-awwy
p223
aVcare
p224
aVabout
p225
aVconserwation
p226
aV''
p227
aVAnd
p228
aVhe
p229
ag100
aVthe
p230
aVhusband
p231
ag100
aVwould
p232
aVlaugh
p233
aVand
p234
aVlaugh
p235
ag100
aVeven
p236
aVthough
p237
aVGwen
p238
ag91
aVsecretly
p239
aVhis
p240
aVmistress
p241
aVand
p242
aVwould
p243
aVbecome
p244
aVhis
p245
aVsecond
p246
aVwife
p247
ag138
asg139
(lp248
g141
ag141
ag141
ag141
ag141
ag141
ag141
aVPERSON
p249
ag141
ag141
ag141
ag141
ag141
ag141
ag141
ag141
ag141
ag141
ag141
ag141
ag141
ag141
ag141
ag141
ag141
ag141
ag141
ag141
ag141
ag141
aVPERSON
p250
ag141
ag141
ag141
ag141
ag141
ag141
ag141
ag141
ag141
ag141
ag141
asg142
(lp251
S'``'
p252
aS'NNP'
p253
ag153
ag147
ag145
aS'VBP'
p254
aS'VBZ'
p255
ag253
ag150
ag164
ag147
ag145
ag254
ag159
ag147
ag150
aS"''"
p256
ag155
ag145
ag153
ag152
ag150
ag153
ag157
ag158
ag155
ag147
ag153
ag161
ag147
ag253
ag146
ag161
ag148
ag150
ag155
ag157
ag158
ag148
ag149
ag150
ag164
asg165
V"Well, if I reawyhow does Gwen talk?if I re-awwy cared about conserwation" And he, the husband, would laugh and laugh, even though Gwen was secretly his mistress and would become his second wife.
p257
sba(i__main__
Sentence
p258
(dp259
g17
I2
sg18
(lp260
S'What'
p261
aS'he'
p262
aS'liked'
p263
aS'about'
p264
aS'her'
p265
aS'was'
p266
aS'her'
p267
aS'liveliness'
p268
aS'in'
p269
aS'bed'
p270
aS','
p271
aS'and'
p272
aS'what'
p273
aS'he'
p274
aS'disliked'
p275
aS'about'
p276
aS'his'
p277
aS'first'
p278
aS'wife'
p279
aS'was'
p280
aS'the'
p281
aS'way'
p282
aS'she'
p283
aS'would'
p284
aS'ask'
p285
aS'to'
p286
aS'have'
p287
aS'her'
p288
aS'back'
p289
aS'rubbed'
p290
aS'and'
p291
aS'then'
p292
aS','
p293
aS'under'
p294
aS'his'
p295
aS'laboring'
p296
aS'hands'
p297
aS','
p298
aS'night'
p299
aS'after'
p300
aS'night'
p301
aS','
p302
aS'fall'
p303
aS'asleep'
p304
aS'.'
p305
asg82
(lp306
VWhat
p307
aVhe
p308
aVlike
p309
aVabout
p310
aVher
p311
ag91
aVher
p312
aVliveliness
p313
aVin
p314
aVbed
p315
ag100
aVand
p316
aVwhat
p317
aVhe
p318
aVdislike
p319
aVabout
p320
aVhis
p321
aVfirst
p322
aVwife
p323
ag91
aVthe
p324
aVway
p325
aVshe
p326
aVwould
p327
aVask
p328
aVto
p329
aVhave
p330
aVher
p331
aVback
p332
aVrub
p333
aVand
p334
aVthen
p335
ag100
aVunder
p336
aVhis
p337
aVlaboring
p338
aVhand
p339
ag100
aVnight
p340
aVafter
p341
aVnight
p342
ag100
aVfall
p343
aVasleep
p344
ag138
asg139
(lp345
g141
ag141
ag141
ag141
ag141
ag141
ag141
ag141
ag141
ag141
ag141
ag141
ag141
ag141
ag141
ag141
ag141
ag141
ag141
ag141
ag141
ag141
ag141
ag141
ag141
ag141
ag141
ag141
ag141
ag141
ag141
ag141
ag141
ag141
ag141
ag141
ag141
ag141
ag141
ag141
ag141
ag141
ag141
ag141
ag141
asg142
(lp346
g144
ag145
ag146
ag147
ag148
ag146
ag148
ag150
ag147
ag159
ag153
ag155
ag144
ag145
ag146
ag147
ag148
ag149
ag150
ag146
ag152
ag150
ag145
ag157
ag158
aS'TO'
p347
ag158
ag148
ag150
ag159
ag155
ag161
ag153
ag147
ag148
ag150
ag154
ag153
ag150
ag147
ag150
ag153
ag150
ag158
ag164
asg165
VWhat he liked about her was her liveliness in bed, and what he disliked about his first wife was the way she would ask to have her back rubbed and then, under his laboring hands, night after night, fall asleep.
p348
sba(i__main__
Sentence
p349
(dp350
g17
I3
sg18
(lp351
S'For'
p352
aS'the'
p353
aS'first'
p354
aS'years'
p355
aS'of'
p356
aS'the'
p357
aS'new'
p358
aS'marriage'
p359
aS','
p360
aS'after'
p361
aS'he'
p362
aS'and'
p363
aS'Gwen'
p364
aS'had'
p365
aS'returned'
p366
aS'from'
p367
aS'a'
p368
aS'party'
p369
aS'he'
p370
aS'would'
p371
aS'wait'
p372
aS','
p373
aS'unconsciously'
p374
aS','
p375
aS'for'
p376
aS'the'
p377
aS'imitations'
p378
aS','
p379
aS'the'
p380
aS'recapitulation'
p381
aS','
p382
aS'to'
p383
aS'begin'
p384
aS'.'
p385
asg82
(lp386
VFor
p387
aVthe
p388
aVfirst
p389
aVyear
p390
aVof
p391
aVthe
p392
aVnew
p393
aVmarriage
p394
ag100
aVafter
p395
aVhe
p396
aVand
p397
aVGwen
p398
ag113
aVreturn
p399
aVfrom
p400
ag98
aVparty
p401
aVhe
p402
aVwould
p403
aVwait
p404
ag100
aVunconsciously
p405
ag100
aVfor
p406
aVthe
p407
aVimitation
p408
ag100
aVthe
p409
aVrecapitulation
p410
ag100
aVto
p411
aVbegin
p412
ag138
asg139
(lp413
g141
ag141
ag141
ag141
ag141
ag141
ag141
ag141
ag141
ag141
ag141
ag141
aVPERSON
p414
ag141
ag141
ag141
ag141
ag141
ag141
ag141
ag141
ag141
ag141
ag141
ag141
ag141
ag141
ag141
ag141
ag141
ag141
ag141
ag141
ag141
asg142
(lp415
g147
ag152
ag149
ag154
ag147
ag152
ag149
ag150
ag153
ag147
ag145
ag155
ag253
ag146
ag159
ag147
ag152
ag150
ag145
ag157
ag158
ag153
ag161
ag153
ag147
ag152
ag154
ag153
ag152
ag150
ag153
ag347
ag158
ag164
asg165
VFor the first years of the new marriage, after he and Gwen had returned from a party he would wait, unconsciously, for the imitations, the recapitulation, to begin.
p416
sba(i__main__
Sentence
p417
(dp418
g17
I4
sg18
(lp419
S'He'
p420
aS'would'
p421
aS'even'
p422
aS'prompt'
p423
aS':'
p424
aS'``'
p425
aS'What'
p426
aS'did'
p427
aS'you'
p428
aS'make'
p429
aS'of'
p430
aS'our'
p431
aS'hostess'
p432
aS"'s"
p433
aS'brother'
p434
aS'?'
p435
aS"''"
p436
asg82
(lp437
VHe
p438
aVwould
p439
aVeven
p440
aVprompt
p441
aV:
p442
aV``
p443
aVWhat
p444
aVdo
p445
aVyou
p446
aVmake
p447
aVof
p448
aVour
p449
aVhostess
p450
aV's
p451
aVbrother
p452
ag221
aV''
p453
asg139
(lp454
g141
ag141
ag141
ag141
ag141
ag141
ag141
ag141
ag141
ag141
ag141
ag141
ag141
ag141
ag141
ag141
ag141
asg142
(lp455
g145
ag157
ag161
ag158
ag151
ag252
ag144
ag146
ag145
ag158
ag147
ag148
ag150
ag156
ag150
ag164
ag256
asg165
VHe would even prompt: "What did you make of our hostess's brother?"
p456
sba(i__main__
Sentence
p457
(dp458
g17
I5
sg18
(lp459
S'``'
p460
aS'Oh'
p461
aS','
p462
aS"''"
p463
aS'Gwen'
p464
aS'would'
p465
aS'simply'
p466
aS'say'
p467
aS','
p468
aS'``'
p469
aS'he'
p470
aS'seemed'
p471
aS'very'
p472
aS'pleasant'
p473
aS'.'
p474
aS"''"
p475
asg82
(lp476
V``
p477
aVOh
p478
ag100
aV''
p479
aVGwen
p480
aVwould
p481
aVsimply
p482
aVsay
p483
ag100
aV``
p484
aVhe
p485
aVseem
p486
aVvery
p487
aVpleasant
p488
ag138
aV''
p489
asg139
(lp490
g141
ag141
ag141
ag141
aVPERSON
p491
ag141
ag141
ag141
ag141
ag141
ag141
ag141
ag141
ag141
ag141
ag141
asg142
(lp492
g252
aS'UH'
p493
ag153
ag256
ag253
ag157
ag161
ag158
ag153
ag252
ag145
ag146
ag161
ag149
ag164
ag256
asg165
V"Oh," Gwen would simply say, "he seemed very pleasant."
p494
sba(i__main__
Sentence
p495
(dp496
g17
I6
sg18
(lp497
S'Sensing'
p498
aS'with'
p499
aS'feminine'
p500
aS'intuition'
p501
aS'that'
p502
aS'he'
p503
aS'expected'
p504
aS'more'
p505
aS','
p506
aS'she'
p507
aS'might'
p508
aS'add'
p509
aS','
p510
aS'``'
p511
aS'Harmless'
p512
aS'.'
p513
asg82
(lp514
VSensing
p515
aVwith
p516
aVfeminine
p517
aVintuition
p518
aVthat
p519
aVhe
p520
aVexpect
p521
aVmore
p522
ag100
aVshe
p523
aVmight
p524
aVadd
p525
ag100
aV``
p526
aVHarmless
p527
ag138
asg139
(lp528
g141
ag141
ag141
ag141
ag141
ag141
ag141
ag141
ag141
ag141
ag141
ag141
ag141
ag141
ag141
ag141
asg142
(lp529
g160
ag147
ag150
ag150
ag162
ag145
ag146
aS'JJR'
p530
ag153
ag145
ag157
ag158
ag153
ag252
ag253
ag164
asg165
VSensing with feminine intuition that he expected more, she might add, "Harmless.
p531
sba(i__main__
Sentence
p532
(dp533
g17
I7
sg18
(lp534
S'Maybe'
p535
aS'a'
p536
aS'little'
p537
aS'stuffy'
p538
aS'.'
p539
aS"''"
p540
asg82
(lp541
VMaybe
p542
ag98
aVlittle
p543
aVstuffy
p544
ag138
aV''
p545
asg139
(lp546
g141
ag141
ag141
ag141
ag141
ag141
asg142
(lp547
g161
ag152
ag161
ag149
ag164
ag256
asg165
VMaybe a little stuffy."
p548
sba(i__main__
Sentence
p549
(dp550
g17
I8
sg18
(lp551
S'Her'
p552
aS'eyes'
p553
aS'flashed'
p554
aS'as'
p555
aS'she'
p556
aS'heard'
p557
aS'in'
p558
aS'his'
p559
aS'expectant'
p560
aS'silence'
p561
aS'an'
p562
aS'unvoiced'
p563
aS'demand'
p564
aS','
p565
aS'and'
p566
aS'with'
p567
aS'that'
p568
aS'touching'
p569
aS','
p570
aS'childlike'
p571
aS'impediment'
p572
aS'of'
p573
aS'hers'
p574
aS'she'
p575
aS'blurted'
p576
aS'out'
p577
aS','
p578
aS'``'
p579
aS'What'
p580
aS'are'
p581
aS'you'
p582
aS'reawy'
p583
aS'after'
p584
aS'?'
p585
aS"''"
p586
asg82
(lp587
VHer
p588
aVeye
p589
aVflash
p590
ag98
aVshe
p591
aVhear
p592
aVin
p593
aVhis
p594
aVexpectant
p595
aVsilence
p596
aVan
p597
aVunvoiced
p598
aVdemand
p599
ag100
aVand
p600
aVwith
p601
aVthat
p602
aVtouch
p603
ag100
aVchildlike
p604
aVimpediment
p605
aVof
p606
aVhers
p607
aVshe
p608
aVblurt
p609
aVout
p610
ag100
aV``
p611
aVWhat
p612
aVbe
p613
aVyou
p614
aVreawy
p615
aVafter
p616
ag221
aV''
p617
asg139
(lp618
g141
ag141
ag141
ag141
ag141
ag141
ag141
ag141
ag141
ag141
ag141
ag141
ag141
ag141
ag141
ag141
ag141
ag141
ag141
ag141
ag141
ag141
ag141
ag141
ag141
ag141
ag141
ag141
ag141
ag141
ag141
ag141
ag141
ag141
ag141
asg142
(lp619
g148
ag154
ag146
ag147
ag145
ag146
ag147
ag148
ag150
ag150
ag152
ag159
ag150
ag153
ag155
ag147
ag152
ag160
ag153
ag147
ag150
ag147
ag154
ag145
ag146
ag163
ag153
ag252
ag144
ag254
ag145
ag161
ag147
ag164
ag256
asg165
VHer eyes flashed as she heard in his expectant silence an unvoiced demand, and with that touching, childlike impediment of hers she blurted out, "What are you reawy after?"
p620
sba(i__main__
Sentence
p621
(dp622
g17
I9
sg18
(lp623
S'``'
p624
aS'Oh'
p625
aS','
p626
aS'nothing'
p627
aS'.'
p628
asg82
(lp629
V``
p630
aVOh
p631
ag100
aVnothing
p632
ag138
asg139
(lp633
g141
ag141
ag141
ag141
ag141
asg142
(lp634
g252
ag493
ag153
ag150
ag164
asg165
V"Oh, nothing.
p635
sba(i__main__
Sentence
p636
(dp637
g17
I10
sg18
(lp638
S'Nothing'
p639
aS'.'
p640
asg82
(lp641
VNothing
p642
ag138
asg139
(lp643
g141
ag141
asg142
(lp644
g150
ag164
asg165
VNothing.
p645
sba(i__main__
Sentence
p646
(dp647
g17
I11
sg18
(lp648
S'It'
p649
aS"'s"
p650
aS'justMarguerite'
p651
aS'met'
p652
aS'him'
p653
aS'once'
p654
aS'a'
p655
aS'few'
p656
aS'years'
p657
aS'ago'
p658
aS'and'
p659
aS'she'
p660
aS'was'
p661
aS'struck'
p662
aS'by'
p663
aS'what'
p664
aS'a'
p665
aS'pompous'
p666
aS'nitwit'
p667
aS'he'
p668
aS'was'
p669
aS'.'
p670
asg82
(lp671
VIt
p672
aV's
p673
aVjustMarguerite
p674
aVmet
p675
aVhim
p676
aVonce
p677
ag98
aVfew
p678
aVyear
p679
aVago
p680
aVand
p681
aVshe
p682
ag91
aVstruck
p683
aVby
p684
aVwhat
p685
ag98
aVpompous
p686
aVnitwit
p687
aVhe
p688
ag91
ag138
asg139
(lp689
g141
ag141
ag141
ag141
ag141
ag141
ag141
ag141
ag141
ag141
ag141
ag141
ag141
ag141
ag141
ag141
ag141
ag141
ag141
ag141
ag141
ag141
asg142
(lp690
g145
ag255
ag253
ag150
ag145
ag161
ag152
ag149
ag154
ag161
ag155
ag145
ag146
ag149
ag147
ag144
ag152
ag149
ag150
ag145
ag146
ag164
asg165
VIt's justMarguerite met him once a few years ago and she was struck by what a pompous nitwit he was.
p691
sba(i__main__
Sentence
p692
(dp693
g17
I12
sg18
(lp694
S'That'
p695
aS'way'
p696
aS'he'
p697
aS'has'
p698
aS'of'
p699
aS'sucking'
p700
aS'his'
p701
aS'pipestem'
p702
aS'and'
p703
aS'ending'
p704
aS'every'
p705
aS'statement'
p706
aS'with'
p707
aS"'Do"
p708
aS'you'
p709
aS'follow'
p710
aS'me'
p711
aS'?'
p712
aS"'"
p713
aS"''"
p714
asg82
(lp715
VThat
p716
aVway
p717
aVhe
p718
aVhave
p719
aVof
p720
aVsuck
p721
aVhis
p722
aVpipestem
p723
aVand
p724
aVend
p725
aVevery
p726
aVstatement
p727
aVwith
p728
aV'Do
p729
aVyou
p730
aVfollow
p731
aVme
p732
ag221
aV'
p733
aV''
p734
asg139
(lp735
g141
ag141
ag141
ag141
ag141
ag141
ag141
ag141
ag141
ag141
ag141
ag141
ag141
ag141
ag141
ag141
ag141
ag141
ag141
ag141
asg142
(lp736
g152
ag150
ag145
ag255
ag147
ag160
ag148
ag150
ag155
ag160
ag152
ag150
ag147
ag149
ag145
ag254
ag145
ag164
ag256
ag256
asg165
VThat way he has of sucking his pipestem and ending every statement with 'Do you follow me?'"
p737
sba(i__main__
Sentence
p738
(dp739
g17
I13
sg18
(lp740
S'``'
p741
aS'I'
p742
aS'thought'
p743
aS'he'
p744
aS'was'
p745
aS'perfectly'
p746
aS'pleasant'
p747
aS','
p748
aS"''"
p749
aS'Gwen'
p750
aS'said'
p751
aS'frostily'
p752
aS','
p753
aS'and'
p754
aS'turned'
p755
aS'her'
p756
aS'back'
p757
aS'to'
p758
aS'remove'
p759
aS'her'
p760
aS'silvery'
p761
aS','
p762
aS'snug'
p763
aS'party'
p764
aS'dress'
p765
aS'.'
p766
asg82
(lp767
V``
p768
ag216
aVthink
p769
aVhe
p770
ag91
aVperfectly
p771
aVpleasant
p772
ag100
aV''
p773
aVGwen
p774
aVsay
p775
aVfrostily
p776
ag100
aVand
p777
aVturn
p778
aVher
p779
aVback
p780
aVto
p781
aVremove
p782
aVher
p783
aVsilvery
p784
ag100
aVsnug
p785
aVparty
p786
aVdress
p787
ag138
asg139
(lp788
g141
ag141
ag141
ag141
ag141
ag141
ag141
ag141
ag141
aVPERSON
p789
ag141
ag141
ag141
ag141
ag141
ag141
ag141
ag141
ag141
ag141
ag141
ag141
ag141
ag141
ag141
ag141
asg142
(lp790
g252
ag145
ag146
ag145
ag146
ag161
ag149
ag153
ag256
ag253
ag146
ag161
ag153
ag155
ag146
ag145
ag161
ag347
ag158
ag148
ag150
ag153
ag150
ag150
ag150
ag164
asg165
V"I thought he was perfectly pleasant," Gwen said frostily, and turned her back to remove her silvery, snug party dress.
p791
sba(i__main__
Sentence
p792
(dp793
g17
I14
sg18
(lp794
S'As'
p795
aS'she'
p796
aS'wriggled'
p797
aS'it'
p798
aS'down'
p799
aS'over'
p800
aS'her'
p801
aS'hips'
p802
aS'she'
p803
aS'turned'
p804
aS'her'
p805
aS'head'
p806
aS'and'
p807
aS'defiantly'
p808
aS'added'
p809
aS','
p810
aS'``'
p811
aS'He'
p812
aS'had'
p813
aS'a'
p814
aS'lot'
p815
aS'to'
p816
aS'say'
p817
aS'about'
p818
aS'tax'
p819
aS'shelters'
p820
aS'.'
p821
aS"''"
p822
asg82
(lp823
VAs
p824
aVshe
p825
aVwriggle
p826
aVit
p827
aVdown
p828
aVover
p829
aVher
p830
aVhip
p831
aVshe
p832
aVturn
p833
aVher
p834
aVhead
p835
aVand
p836
aVdefiantly
p837
aVadd
p838
ag100
aV``
p839
aVHe
p840
ag113
ag98
aVlot
p841
aVto
p842
aVsay
p843
aVabout
p844
aVtax
p845
aVshelter
p846
ag138
aV''
p847
asg139
(lp848
g141
ag141
ag141
ag141
ag141
ag141
ag141
ag141
ag141
ag141
ag141
ag141
ag141
ag141
ag141
ag141
ag141
ag141
ag141
ag141
ag141
ag141
ag141
ag141
ag141
ag141
ag141
ag141
asg142
(lp849
g147
ag145
ag146
ag145
ag147
ag147
ag148
ag154
ag145
ag146
ag148
ag150
ag155
ag161
ag146
ag153
ag252
ag145
ag146
ag152
ag150
ag347
ag158
ag147
ag150
ag154
ag164
ag256
asg165
VAs she wriggled it down over her hips she turned her head and defiantly added, "He had a lot to say about tax shelters."
p850
sba(i__main__
Sentence
p851
(dp852
g17
I15
sg18
(lp853
S'``'
p854
aS'I'
p855
aS'bet'
p856
aS'he'
p857
aS'did'
p858
aS','
p859
aS"''"
p860
aS'Pygmalion'
p861
aS'scoffed'
p862
aS'feebly'
p863
aS','
p864
aS'numbed'
p865
aS'by'
p866
aS'the'
p867
aS'sight'
p868
aS'of'
p869
aS'his'
p870
aS'wife'
p871
aS'frontally'
p872
aS'advancing'
p873
aS','
p874
aS'nude'
p875
aS','
p876
aS'toward'
p877
aS'him'
p878
aS'and'
p879
aS'their'
p880
aS'marital'
p881
aS'bed'
p882
aS'.'
p883
asg82
(lp884
V``
p885
ag216
aVbet
p886
aVhe
p887
ag445
ag100
aV''
p888
aVPygmalion
p889
aVscoff
p890
aVfeebly
p891
ag100
aVnumb
p892
aVby
p893
aVthe
p894
aVsight
p895
aVof
p896
aVhis
p897
aVwife
p898
aVfrontally
p899
aVadvance
p900
ag100
aVnude
p901
ag100
aVtoward
p902
aVhim
p903
aVand
p904
aVtheir
p905
aVmarital
p906
aVbed
p907
ag138
asg139
(lp908
g141
ag141
ag141
ag141
ag141
ag141
ag141
ag141
ag141
ag141
ag141
ag141
ag141
ag141
ag141
ag141
ag141
ag141
ag141
ag141
ag141
ag141
ag141
ag141
ag141
ag141
ag141
ag141
ag141
ag141
asg142
(lp909
g252
ag145
ag254
ag145
ag146
ag153
ag256
ag253
ag146
ag161
ag153
ag159
ag147
ag152
ag150
ag147
ag148
ag150
ag161
ag160
ag153
ag150
ag153
ag147
ag145
ag155
ag148
ag149
ag159
ag164
asg165
V"I bet he did," Pygmalion scoffed feebly, numbed by the sight of his wife frontally advancing, nude, toward him and their marital bed.
p910
sba(i__main__
Sentence
p911
(dp912
g17
I16
sg18
(lp913
S'``'
p914
aS'It'
p915
aS"'s"
p916
aS'awfully'
p917
aS'late'
p918
aS','
p919
aS"''"
p920
aS'he'
p921
aS'warned'
p922
aS'her'
p923
aS'.'
p924
asg82
(lp925
V``
p926
aVIt
p927
aV's
p928
aVawfully
p929
aVlate
p930
ag100
aV''
p931
aVhe
p932
aVwarn
p933
aVher
p934
ag138
asg139
(lp935
g141
ag141
ag141
ag141
ag141
ag141
ag141
ag141
ag141
ag141
ag141
asg142
(lp936
g252
ag145
ag255
ag161
ag149
ag153
ag256
ag145
ag146
ag145
ag164
asg165
V"It's awfully late," he warned her.
p937
sba(i__main__
Sentence
p938
(dp939
g17
I17
sg18
(lp940
S'``'
p941
aS'Oh'
p942
aS','
p943
aS'come'
p944
aS'on'
p945
aS','
p946
aS"''"
p947
aS'she'
p948
aS'said'
p949
aS','
p950
aS'the'
p951
aS'lights'
p952
aS'out'
p953
aS'.'
p954
asg82
(lp955
V``
p956
aVOh
p957
ag100
aVcome
p958
aVon
p959
ag100
aV''
p960
aVshe
p961
ag775
ag100
aVthe
p962
aVlight
p963
aVout
p964
ag138
asg139
(lp965
g141
ag141
ag141
ag141
ag141
ag141
ag141
ag141
ag141
ag141
ag141
ag141
ag141
ag141
asg142
(lp966
g252
ag493
ag153
ag254
ag147
ag153
ag256
ag145
ag146
ag153
ag152
ag154
ag147
ag164
asg165
V"Oh, come on," she said, the lights out.
p967
sba(i__main__
Sentence
p968
(dp969
g17
I18
sg18
(lp970
S'The'
p971
aS'first'
p972
aS'imitation'
p973
aS'Gwen'
p974
aS'did'
p975
aS'was'
p976
aS'of'
p977
aS'Marguerite'
p978
aS"'s"
p979
aS'second'
p980
aS'husband'
p981
aS','
p982
aS'Ed'
p983
aS';'
p984
aS'they'
p985
aS'had'
p986
aS'all'
p987
aS'unexpectedly'
p988
aS'met'
p989
aS'at'
p990
aS'a'
p991
aS'Save'
p992
aS'the'
p993
aS'Whales'
p994
aS'benefit'
p995
aS'ball'
p996
aS','
p997
aS'to'
p998
aS'which'
p999
aS'invitations'
p1000
aS'had'
p1001
aS'been'
p1002
aS'sent'
p1003
aS'out'
p1004
aS'indiscriminately'
p1005
aS'.'
p1006
asg82
(lp1007
VThe
p1008
aVfirst
p1009
aVimitation
p1010
aVGwen
p1011
ag445
ag91
aVof
p1012
aVMarguerite
p1013
aV's
p1014
aVsecond
p1015
aVhusband
p1016
ag100
aVEd
p1017
ag96
aVthey
p1018
ag113
aVall
p1019
aVunexpectedly
p1020
aVmeet
p1021
aVat
p1022
ag98
aVSave
p1023
aVthe
p1024
aVWhales
p1025
aVbenefit
p1026
aVball
p1027
ag100
aVto
p1028
aVwhich
p1029
aVinvitation
p1030
ag113
aVbe
p1031
aVsend
p1032
aVout
p1033
aVindiscriminately
p1034
ag138
asg139
(lp1035
g141
ag141
ag141
aVPERSON
p1036
ag141
ag141
ag141
aVPERSON
p1037
ag141
ag141
ag141
ag141
aVPERSON
p1038
ag141
ag141
ag141
ag141
ag141
ag141
ag141
ag141
aVORGANIZATION
p1039
aVORGANIZATION
p1040
aVORGANIZATION
p1041
ag141
ag141
ag141
ag141
ag141
ag141
ag141
ag141
ag141
ag141
ag141
ag141
asg142
(lp1042
g152
ag149
ag150
ag253
ag146
ag146
ag147
ag253
ag156
ag149
ag150
ag153
ag253
ag151
ag145
ag146
aS'PDT'
p1043
ag161
ag159
ag147
ag152
ag253
ag152
ag253
ag150
ag150
ag153
ag347
ag162
ag154
ag146
ag159
ag159
ag163
ag161
ag164
asg165
VThe first imitation Gwen did was of Marguerite's second husband, Ed; they had all unexpectedly met at a Save the Whales benefit ball, to which invitations had been sent out indiscriminately.
p1044
sba(i__main__
Sentence
p1045
(dp1046
g17
I19
sg18
(lp1047
S'``'
p1048
aS'Oh-ho-ho'
p1049
aS','
p1050
aS"''"
p1051
aS'she'
p1052
aS'boomed'
p1053
aS'in'
p1054
aS'the'
p1055
aS'privacy'
p1056
aS'of'
p1057
aS'their'
p1058
aS'bedroom'
p1059
aS'afterward'
p1060
aS','
p1061
aS'``'
p1062
aS'so'
p1063
aS'you'
p1064
aS"'re"
p1065
aS'my'
p1066
aS'noble'
p1067
aS'predecessor'
p1068
aS'!'
p1069
aS"''"
p1070
asg82
(lp1071
V``
p1072
aVOh-ho-ho
p1073
ag100
aV''
p1074
aVshe
p1075
aVboom
p1076
aVin
p1077
aVthe
p1078
aVprivacy
p1079
aVof
p1080
aVtheir
p1081
aVbedroom
p1082
aVafterward
p1083
ag100
aV``
p1084
aVso
p1085
aVyou
p1086
aV're
p1087
aVmy
p1088
aVnoble
p1089
aVpredecessor
p1090
aV!
p1091
aV''
p1092
asg139
(lp1093
g141
ag141
ag141
ag141
ag141
ag141
ag141
ag141
ag141
ag141
ag141
ag141
ag141
ag141
ag141
ag141
ag141
ag141
ag141
ag141
ag141
ag141
ag141
asg142
(lp1094
g252
ag149
ag153
ag256
ag145
ag146
ag147
ag152
ag150
ag147
ag148
ag150
ag150
ag153
ag252
ag147
ag145
ag254
ag148
ag149
ag150
ag164
ag256
asg165
V"Oh-ho-ho," she boomed in the privacy of their bedroom afterward, "so you're my noble predecessor!"
p1095
sba(i__main__
Sentence
p1096
(dp1097
g17
I20
sg18
(lp1098
S'In'
p1099
aS'aside'
p1100
aS'she'
p1101
aS'added'
p1102
aS','
p1103
aS'``'
p1104
aS'Noble'
p1105
aS','
p1106
aS'my'
p1107
aS'ass'
p1108
aS'.'
p1109
asg82
(lp1110
VIn
p1111
aVaside
p1112
aVshe
p1113
aVadd
p1114
ag100
aV``
p1115
aVNoble
p1116
ag100
aVmy
p1117
aVas
p1118
ag138
asg139
(lp1119
g141
ag141
ag141
ag141
ag141
ag141
aVPERSON
p1120
ag141
ag141
ag141
ag141
asg142
(lp1121
g147
ag150
ag145
ag146
ag153
ag252
ag149
ag153
ag148
ag150
ag164
asg165
VIn aside she added, "Noble, my ass.
p1122
sba(i__main__
Sentence
p1123
(dp1124
g17
I21
sg18
(lp1125
S'He'
p1126
aS'hates'
p1127
aS'you'
p1128
aS'so'
p1129
aS'much'
p1130
aS'you'
p1131
aS'turned'
p1132
aS'him'
p1133
aS'on'
p1134
aS'.'
p1135
aS"''"
p1136
asg82
(lp1137
VHe
p1138
aVhat
p1139
aVyou
p1140
aVso
p1141
aVmuch
p1142
aVyou
p1143
aVturn
p1144
aVhim
p1145
aVon
p1146
ag138
aV''
p1147
asg139
(lp1148
g141
ag141
ag141
ag141
ag141
ag141
ag141
ag141
ag141
ag141
ag141
asg142
(lp1149
g145
ag255
ag145
ag161
ag161
ag145
ag146
ag145
ag147
ag164
ag256
asg165
VHe hates you so much you turned him on."
p1150
sba(i__main__
Sentence
p1151
(dp1152
g17
I22
sg18
(lp1153
S'``'
p1154
aS'I'
p1155
aS'did'
p1156
aS'?'
p1157
aS"''"
p1158
asg82
(lp1159
V``
p1160
ag216
ag445
ag221
aV''
p1161
asg139
(lp1162
g141
ag141
ag141
ag141
ag141
asg142
(lp1163
g252
ag145
ag146
ag164
ag256
asg165
V"I did?"
p1164
sba(i__main__
Sentence
p1165
(dp1166
g17
I23
sg18
(lp1167
S'he'
p1168
aS'said'
p1169
aS'.'
p1170
asg82
(lp1171
Vhe
p1172
ag775
ag138
asg139
(lp1173
g141
ag141
ag141
asg142
(lp1174
g145
ag146
ag164
asg165
Vhe said.
p1175
sba(i__main__
Sentence
p1176
(dp1177
g17
I24
sg18
(lp1178
S'``'
p1179
aS'I'
p1180
aS'thought'
p1181
aS'he'
p1182
aS'was'
p1183
aS'perfectly'
p1184
aS'pleasant'
p1185
aS','
p1186
aS'in'
p1187
aS'what'
p1188
aS'could'
p1189
aS'have'
p1190
aS'been'
p1191
aS'an'
p1192
aS'awkward'
p1193
aS'encounter'
p1194
aS'.'
p1195
aS"''"
p1196
asg82
(lp1197
V``
p1198
ag216
ag769
aVhe
p1199
ag91
aVperfectly
p1200
aVpleasant
p1201
ag100
aVin
p1202
aVwhat
p1203
aVcould
p1204
aVhave
p1205
ag1031
aVan
p1206
aVawkward
p1207
aVencounter
p1208
ag138
aV''
p1209
asg139
(lp1210
g141
ag141
ag141
ag141
ag141
ag141
ag141
ag141
ag141
ag141
ag141
ag141
ag141
ag141
ag141
ag141
ag141
ag141
asg142
(lp1211
g252
ag145
ag146
ag145
ag146
ag161
ag149
ag153
ag147
ag144
ag157
ag158
ag159
ag152
ag150
ag150
ag164
ag256
asg165
V"I thought he was perfectly pleasant, in what could have been an awkward encounter."
p1212
sba(i__main__
Sentence
p1213
(dp1214
g17
I25
sg18
(lp1215
S'``'
p1216
aS'Yes'
p1217
aS','
p1218
aS'indeedy'
p1219
aS','
p1220
aS"''"
p1221
aS'she'
p1222
aS'agreed'
p1223
aS','
p1224
aS'imitating'
p1225
aS'hearty'
p1226
aS'Ed'
p1227
aS','
p1228
aS'and'
p1229
aS'for'
p1230
aS'a'
p1231
aS'dazzling'
p1232
aS'second'
p1233
aS'allowing'
p1234
aS'the'
p1235
aS'man'
p1236
aS"'s"
p1237
aS'slightly'
p1238
aS'glassy'
p1239
aS'and'
p1240
aS'slack'
p1241
aS'expression'
p1242
aS'of'
p1243
aS'forced'
p1244
aS'benignity'
p1245
aS'to'
p1246
aS'invade'
p1247
aS'her'
p1248
aS'own'
p1249
aS'usually'
p1250
aS'petite'
p1251
aS'and'
p1252
aS'rounded'
p1253
aS'features'
p1254
aS'.'
p1255
asg82
(lp1256
V``
p1257
aVYes
p1258
ag100
aVindeedy
p1259
ag100
aV''
p1260
aVshe
p1261
aVagree
p1262
ag100
aVimitating
p1263
aVhearty
p1264
aVEd
p1265
ag100
aVand
p1266
aVfor
p1267
ag98
aVdazzling
p1268
aVsecond
p1269
aVallowing
p1270
aVthe
p1271
aVman
p1272
aV's
p1273
aVslightly
p1274
aVglassy
p1275
aVand
p1276
aVslack
p1277
aVexpression
p1278
aVof
p1279
aVforce
p1280
aVbenignity
p1281
aVto
p1282
aVinvade
p1283
aVher
p1284
aVown
p1285
aVusually
p1286
aVpetite
p1287
aVand
p1288
aVround
p1289
aVfeature
p1290
ag138
asg139
(lp1291
g141
ag141
ag141
ag141
ag141
ag141
ag141
ag141
ag141
ag141
ag141
aVPERSON
p1292
ag141
ag141
ag141
ag141
ag141
ag141
ag141
ag141
ag141
ag141
ag141
ag141
ag141
ag141
ag141
ag141
ag141
ag141
ag141
ag141
ag141
ag141
ag141
ag141
ag141
ag141
ag141
ag141
asg142
(lp1293
g252
ag255
ag153
ag149
ag153
ag256
ag145
ag146
ag153
ag150
ag150
ag253
ag153
ag155
ag147
ag152
ag150
ag149
ag150
ag152
ag150
ag156
ag161
ag149
ag155
ag150
ag150
ag147
ag159
ag150
ag347
ag158
ag148
ag149
ag161
ag149
ag155
ag146
ag154
ag164
asg165
V"Yes, indeedy," she agreed, imitating hearty Ed, and for a dazzling second allowing the man's slightly glassy and slack expression of forced benignity to invade her own usually petite and rounded features.
p1294
sba(i__main__
Sentence
p1295
(dp1296
g17
I26
sg18
(lp1297
S'``'
p1298
aS'Nothing'
p1299
aS'awkward'
p1300
aS'about'
p1301
aS'us'
p1302
aS','
p1303
aS'ho'
p1304
aS'ho'
p1305
aS','
p1306
aS"''"
p1307
aS'she'
p1308
aS'went'
p1309
aS'on'
p1310
aS','
p1311
aS'encouraged'
p1312
aS'.'
p1313
asg82
(lp1314
V``
p1315
aVNothing
p1316
aVawkward
p1317
aVabout
p1318
aVu
p1319
ag100
aVho
p1320
aVho
p1321
ag100
aV''
p1322
aVshe
p1323
aVgo
p1324
aVon
p1325
ag100
aVencouraged
p1326
ag138
asg139
(lp1327
g141
ag141
ag141
ag141
ag141
ag141
ag141
ag141
ag141
ag141
ag141
ag141
ag141
ag141
ag141
ag141
asg142
(lp1328
g252
ag150
ag150
ag147
ag145
ag153
ag144
ag161
ag153
ag256
ag145
ag146
ag147
ag153
ag149
ag164
asg165
V"Nothing awkward about us, ho ho," she went on, encouraged.
p1329
sba(i__main__
Sentence
p1330
(dp1331
g17
I27
sg18
(lp1332
S'``'
p1333
aS'And'
p1334
aS'tell'
p1335
aS'me'
p1336
aS','
p1337
aS'old'
p1338
aS'chap'
p1339
aS','
p1340
aS'why'
p1341
aS'is'
p1342
aS'it'
p1343
aS'your'
p1344
aS'child-support'
p1345
aS'check'
p1346
aS'is'
p1347
aS'never'
p1348
aS'on'
p1349
aS'time'
p1350
aS'anymore'
p1351
aS'?'
p1352
aS"''"
p1353
asg82
(lp1354
V``
p1355
aVAnd
p1356
aVtell
p1357
aVme
p1358
ag100
aVold
p1359
aVchap
p1360
ag100
aVwhy
p1361
aVbe
p1362
aVit
p1363
aVyour
p1364
aVchild-support
p1365
aVcheck
p1366
ag1362
aVnever
p1367
aVon
p1368
aVtime
p1369
aVanymore
p1370
ag221
aV''
p1371
asg139
(lp1372
g141
ag141
ag141
ag141
ag141
ag141
ag141
ag141
ag141
ag141
ag141
ag141
ag141
ag141
ag141
ag141
ag141
ag141
ag141
ag141
ag141
asg142
(lp1373
g252
ag155
ag150
ag145
ag153
ag149
ag150
ag153
aS'WRB'
p1374
ag255
ag145
ag148
ag150
ag150
ag255
ag161
ag147
ag150
ag150
ag164
ag256
asg165
V"And tell me, old chap, why is it your child-support check is never on time anymore?"
p1375
sba(i__main__
Sentence
p1376
(dp1377
g17
I28
sg18
(lp1378
S'He'
p1379
aS'laughed'
p1380
aS'and'
p1381
aS'laughed'
p1382
aS','
p1383
aS'entranced'
p1384
aS'to'
p1385
aS'see'
p1386
aS'his'
p1387
aS'bride'
p1388
aS'arrive'
p1389
aS'at'
p1390
aS'what'
p1391
aS'he'
p1392
aS'conceived'
p1393
aS'to'
p1394
aS'be'
p1395
aS'proper'
p1396
aS'womanlinessa'
p1397
aS'plastic'
p1398
aS','
p1399
aS'alert'
p1400
aS'sensitivity'
p1401
aS'to'
p1402
aS'the'
p1403
aS'human'
p1404
aS'environment'
p1405
aS','
p1406
aS'a'
p1407
aS'susceptible'
p1408
aS'responsiveness'
p1409
aS'tugged'
p1410
aS'this'
p1411
aS'way'
p1412
aS'and'
p1413
aS'that'
p1414
aS'by'
p1415
aS'the'
p1416
aS'currents'
p1417
aS'of'
p1418
aS'Nature'
p1419
aS'herself'
p1420
aS'.'
p1421
asg82
(lp1422
VHe
p1423
aVlaugh
p1424
aVand
p1425
aVlaugh
p1426
ag100
aVentrance
p1427
aVto
p1428
aVsee
p1429
aVhis
p1430
aVbride
p1431
aVarrive
p1432
aVat
p1433
aVwhat
p1434
aVhe
p1435
aVconceive
p1436
aVto
p1437
aVbe
p1438
aVproper
p1439
aVwomanlinessa
p1440
aVplastic
p1441
ag100
aValert
p1442
aVsensitivity
p1443
aVto
p1444
aVthe
p1445
aVhuman
p1446
aVenvironment
p1447
ag100
ag98
aVsusceptible
p1448
aVresponsiveness
p1449
aVtug
p1450
aVthis
p1451
aVway
p1452
aVand
p1453
aVthat
p1454
aVby
p1455
aVthe
p1456
aVcurrent
p1457
aVof
p1458
aVNature
p1459
aVherself
p1460
ag138
asg139
(lp1461
g141
ag141
ag141
ag141
ag141
ag141
ag141
ag141
ag141
ag141
ag141
ag141
ag141
ag141
ag141
ag141
ag141
ag141
ag141
ag141
ag141
ag141
ag141
ag141
ag141
ag141
ag141
ag141
ag141
ag141
ag141
ag141
ag141
ag141
ag141
ag141
ag141
ag141
ag141
ag141
ag141
ag141
ag141
asg142
(lp1462
g145
ag146
ag155
ag159
ag153
ag159
ag347
ag158
ag148
ag150
ag150
ag147
ag144
ag145
ag146
ag347
ag158
ag149
ag150
ag149
ag153
ag150
ag150
ag347
ag152
ag149
ag150
ag153
ag152
ag149
ag150
ag146
ag152
ag150
ag155
ag147
ag147
ag152
ag154
ag147
ag253
ag150
ag164
asg165
VHe laughed and laughed, entranced to see his bride arrive at what he conceived to be proper womanlinessa plastic, alert sensitivity to the human environment, a susceptible responsiveness tugged this way and that by the currents of Nature herself.
p1463
sba(i__main__
Sentence
p1464
(dp1465
g17
I29
sg18
(lp1466
S'He'
p1467
aS'could'
p1468
aS'not'
p1469
aS'know'
p1470
aS'the'
p1471
aS'world'
p1472
aS','
p1473
aS'was'
p1474
aS'his'
p1475
aS'fear'
p1476
aS','
p1477
aS'unless'
p1478
aS'a'
p1479
aS'woman'
p1480
aS'translated'
p1481
aS'it'
p1482
aS'for'
p1483
aS'him'
p1484
aS'.'
p1485
asg82
(lp1486
VHe
p1487
aVcould
p1488
aVnot
p1489
aVknow
p1490
aVthe
p1491
aVworld
p1492
ag100
ag91
aVhis
p1493
aVfear
p1494
ag100
aVunless
p1495
ag98
aVwoman
p1496
aVtranslate
p1497
aVit
p1498
aVfor
p1499
aVhim
p1500
ag138
asg139
(lp1501
g141
ag141
ag141
ag141
ag141
ag141
ag141
ag141
ag141
ag141
ag141
ag141
ag141
ag141
ag141
ag141
ag141
ag141
ag141
asg142
(lp1502
g145
ag157
ag161
ag158
ag152
ag150
ag153
ag146
ag148
ag150
ag153
ag147
ag152
ag150
ag159
ag145
ag147
ag145
ag164
asg165
VHe could not know the world, was his fear, unless a woman translated it for him.
p1503
sba(i__main__
Sentence
p1504
(dp1505
g17
I30
sg18
(lp1506
S'Now'
p1507
aS','
p1508
aS'when'
p1509
aS'they'
p1510
aS'returned'
p1511
aS'from'
p1512
aS'a'
p1513
aS'gathering'
p1514
aS','
p1515
aS'and'
p1516
aS'he'
p1517
aS'asked'
p1518
aS'what'
p1519
aS'she'
p1520
aS'had'
p1521
aS'made'
p1522
aS'of'
p1523
aS'so-and-so'
p1524
aS','
p1525
aS'Gwen'
p1526
aS'would'
p1527
aS'stand'
p1528
aS'in'
p1529
aS'her'
p1530
aS'underwear'
p1531
aS'and'
p1532
aS'consider'
p1533
aS','
p1534
aS'as'
p1535
aS'if'
p1536
aS'onstage'
p1537
aS'.'
p1538
asg82
(lp1539
VNow
p1540
ag100
aVwhen
p1541
aVthey
p1542
aVreturn
p1543
aVfrom
p1544
ag98
aVgathering
p1545
ag100
aVand
p1546
aVhe
p1547
aVask
p1548
aVwhat
p1549
aVshe
p1550
ag113
aVmake
p1551
aVof
p1552
aVso-and-so
p1553
ag100
aVGwen
p1554
aVwould
p1555
aVstand
p1556
aVin
p1557
aVher
p1558
aVunderwear
p1559
aVand
p1560
aVconsider
p1561
ag100
ag98
aVif
p1562
aVonstage
p1563
ag138
asg139
(lp1564
g141
ag141
ag141
ag141
ag141
ag141
ag141
ag141
ag141
ag141
ag141
ag141
ag141
ag141
ag141
ag141
ag141
ag141
ag141
aVPERSON
p1565
ag141
ag141
ag141
ag141
ag141
ag141
ag141
ag141
ag141
ag141
ag141
ag141
asg142
(lp1566
g161
ag153
ag1374
ag145
ag146
ag147
ag152
ag150
ag153
ag155
ag145
ag146
ag144
ag145
ag146
ag159
ag147
ag149
ag153
ag253
ag157
ag158
ag147
ag148
ag150
ag155
ag150
ag153
ag147
ag147
ag150
ag164
asg165
VNow, when they returned from a gathering, and he asked what she had made of so-and-so, Gwen would stand in her underwear and consider, as if onstage.
p1567
sba(i__main__
Sentence
p1568
(dp1569
g17
I31
sg18
(lp1570
S'``'
p1571
aS'We-hell'
p1572
aS','
p1573
aS'my'
p1574
aS'dear'
p1575
aS','
p1576
aS"''"
p1577
aS'she'
p1578
aS'would'
p1579
aS'announce'
p1580
aS'in'
p1581
aS'sudden'
p1582
aS','
p1583
aS'fluting'
p1584
aS'parody'
p1585
aS','
p1586
aS'``'
p1587
aS'if'
p1588
aS'it'
p1589
aS'was'
p1590
aS"n't"
p1591
aS'for'
p1592
aS'Portugal'
p1593
aS'there'
p1594
aS'rally'
p1595
aS'would'
p1596
aS"n't"
p1597
aS'be'
p1598
aS'a'
p1599
aS'country'
p1600
aS'left'
p1601
aS'in'
p1602
aS'Europe'
p1603
aS'!'
p1604
aS"''"
p1605
asg82
(lp1606
V``
p1607
aVWe-hell
p1608
ag100
aVmy
p1609
aVdear
p1610
ag100
aV''
p1611
aVshe
p1612
aVwould
p1613
aVannounce
p1614
aVin
p1615
aVsudden
p1616
ag100
aVflute
p1617
aVparody
p1618
ag100
aV``
p1619
aVif
p1620
aVit
p1621
ag91
aVn't
p1622
aVfor
p1623
aVPortugal
p1624
aVthere
p1625
aVrally
p1626
aVwould
p1627
aVn't
p1628
aVbe
p1629
ag98
aVcountry
p1630
aVleave
p1631
aVin
p1632
aVEurope
p1633
ag1091
aV''
p1634
asg139
(lp1635
g141
ag141
ag141
ag141
ag141
ag141
ag141
ag141
ag141
ag141
ag141
ag141
ag141
ag141
ag141
ag141
ag141
ag141
ag141
ag141
ag141
ag141
aVLOCATION
p1636
ag141
ag141
ag141
ag141
ag141
ag141
ag141
ag141
ag141
aVLOCATION
p1637
ag141
ag141
asg142
(lp1638
g252
ag149
ag153
ag148
ag150
ag153
ag256
ag145
ag157
ag158
ag147
ag149
ag153
ag160
ag150
ag153
ag252
ag147
ag145
ag146
ag161
ag147
ag253
aS'EX'
p1639
ag161
ag157
ag161
ag158
ag152
ag150
ag159
ag147
ag253
ag164
ag256
asg165
V"We-hell, my dear," she would announce in sudden, fluting parody, "if it wasn't for Portugal there rally wouldn't be a country left in Europe!"
p1640
sba(i__main__
Sentence
p1641
(dp1642
g17
I32
sg18
(lp1643
S'``'
p1644
aS'Oh'
p1645
aS','
p1646
aS'come'
p1647
aS'on'
p1648
aS','
p1649
aS"''"
p1650
aS'he'
p1651
aS'would'
p1652
aS'protest'
p1653
aS','
p1654
aS'delighted'
p1655
aS'to'
p1656
aS'see'
p1657
aS'her'
p1658
aS'pretty'
p1659
aS'features'
p1660
aS'distort'
p1661
aS'themselves'
p1662
aS'into'
p1663
aS'an'
p1664
aS'uncanny'
p1665
aS','
p1666
aS'snobbish'
p1667
aS'horsiness'
p1668
aS'.'
p1669
asg82
(lp1670
V``
p1671
aVOh
p1672
ag100
aVcome
p1673
aVon
p1674
ag100
aV''
p1675
aVhe
p1676
aVwould
p1677
aVprotest
p1678
ag100
aVdelight
p1679
aVto
p1680
aVsee
p1681
aVher
p1682
aVpretty
p1683
aVfeature
p1684
aVdistort
p1685
aVthemselves
p1686
aVinto
p1687
aVan
p1688
aVuncanny
p1689
ag100
aVsnobbish
p1690
aVhorsiness
p1691
ag138
asg139
(lp1692
g141
ag141
ag141
ag141
ag141
ag141
ag141
ag141
ag141
ag141
ag141
ag141
ag141
ag141
ag141
ag141
ag141
ag141
ag141
ag141
ag141
ag141
ag141
ag141
ag141
ag141
asg142
(lp1693
g252
ag493
ag153
ag254
ag147
ag153
ag256
ag145
ag157
ag158
ag153
ag159
ag347
ag158
ag145
ag161
ag255
ag150
ag154
ag147
ag152
ag149
ag153
ag149
ag150
ag164
asg165
V"Oh, come on," he would protest, delighted to see her pretty features distort themselves into an uncanny, snobbish horsiness.
p1694
sba(i__main__
Sentence
p1695
(dp1696
g17
I33
sg18
(lp1697
S'``'
p1698
aS'How'
p1699
aS'did'
p1700
aS'she'
p1701
aS'do'
p1702
aS'it'
p1703
aS'?'
p1704
aS"''"
p1705
asg82
(lp1706
V``
p1707
aVHow
p1708
ag445
aVshe
p1709
aVdo
p1710
aVit
p1711
ag221
aV''
p1712
asg139
(lp1713
g141
ag141
ag141
ag141
ag141
ag141
ag141
ag141
asg142
(lp1714
g252
ag1374
ag146
ag145
ag254
ag145
ag164
ag256
asg165
V"How did she do it?"
p1715
sba(i__main__
Sentence
p1716
(dp1717
g17
I34
sg18
(lp1718
S'Gwen'
p1719
aS'would'
p1720
aS'ask'
p1721
aS','
p1722
aS'as'
p1723
aS'if'
p1724
aS'professionally'
p1725
aS'intent'
p1726
aS'.'
p1727
asg82
(lp1728
VGwen
p1729
aVwould
p1730
aVask
p1731
ag100
ag98
aVif
p1732
aVprofessionally
p1733
aVintent
p1734
ag138
asg139
(lp1735
VPERSON
p1736
ag141
ag141
ag141
ag141
ag141
ag141
ag141
ag141
asg142
(lp1737
g253
ag157
ag158
ag153
ag147
ag147
ag161
ag149
ag164
asg165
VGwen would ask, as if professionally intent.
p1738
sba(i__main__
Sentence
p1739
(dp1740
g17
I35
sg18
(lp1741
S'``'
p1742
aS'Something'
p1743
aS'with'
p1744
aS'the'
p1745
aS'chin'
p1746
aS','
p1747
aS'sort'
p1748
aS'of'
p1749
aS'rolling'
p1750
aS'it'
p1751
aS'from'
p1752
aS'side'
p1753
aS'to'
p1754
aS'side'
p1755
aS'without'
p1756
aS'unclenching'
p1757
aS'the'
p1758
aS'teeth'
p1759
aS'.'
p1760
aS"''"
p1761
asg82
(lp1762
V``
p1763
aVSomething
p1764
aVwith
p1765
aVthe
p1766
aVchin
p1767
ag100
aVsort
p1768
aVof
p1769
aVroll
p1770
aVit
p1771
aVfrom
p1772
aVside
p1773
aVto
p1774
aVside
p1775
aVwithout
p1776
aVunclenching
p1777
aVthe
p1778
aVteeth
p1779
ag138
aV''
p1780
asg139
(lp1781
g141
ag141
ag141
ag141
ag141
ag141
ag141
ag141
ag141
ag141
ag141
ag141
ag141
ag141
ag141
ag141
ag141
ag141
ag141
ag141
asg142
(lp1782
g252
ag150
ag147
ag152
ag150
ag153
ag150
ag147
ag160
ag145
ag147
ag150
ag347
ag158
ag147
ag150
ag152
ag150
ag164
ag256
asg165
V"Something with the chin, sort of rolling it from side to side without unclenching the teeth."
p1783
sba(i__main__
Sentence
p1784
(dp1785
g17
I36
sg18
(lp1786
S'``'
p1787
aS'You'
p1788
aS"'ve"
p1789
aS'got'
p1790
aS'it'
p1791
aS'!'
p1792
aS"''"
p1793
asg82
(lp1794
V``
p1795
aVYou
p1796
aV've
p1797
aVget
p1798
aVit
p1799
ag1091
aV''
p1800
asg139
(lp1801
g141
ag141
ag141
ag141
ag141
ag141
ag141
asg142
(lp1802
g252
ag145
ag254
ag159
ag145
ag164
ag256
asg165
V"You've got it!"
p1803
sba(i__main__
Sentence
p1804
(dp1805
g17
I37
sg18
(lp1806
S'he'
p1807
aS'applauded'
p1808
aS'.'
p1809
asg82
(lp1810
Vhe
p1811
aVapplaud
p1812
ag138
asg139
(lp1813
g141
ag141
ag141
asg142
(lp1814
g145
ag146
ag164
asg165
Vhe applauded.
p1815
sba(i__main__
Sentence
p1816
(dp1817
g17
I38
sg18
(lp1818
S'``'
p1819
aS'Of'
p1820
aS'course'
p1821
aS'you'
p1822
aS'knoaow'
p1823
aS','
p1824
aS"''"
p1825
aS'she'
p1826
aS'went'
p1827
aS'on'
p1828
aS'in'
p1829
aS'the'
p1830
aS'assumed'
p1831
aS'voice'
p1832
aS','
p1833
aS'``'
p1834
aS'there'
p1835
aS'used'
p1836
aS'to'
p1837
aS'be'
p1838
aS'Greece'
p1839
aS','
p1840
aS'but'
p1841
aS'now'
p1842
aS'all'
p1843
aS'these'
p1844
aS'dreadful'
p1845
aS'Arabs'
p1846
aS'...'
p1847
aS"''"
p1848
aS'``'
p1849
aS'Oh'
p1850
aS','
p1851
aS'yes'
p1852
aS','
p1853
aS'yes'
p1854
aS','
p1855
aS"''"
p1856
aS'he'
p1857
aS'said'
p1858
aS','
p1859
aS'his'
p1860
aS'face'
p1861
aS'smarting'
p1862
aS'from'
p1863
aS'laughing'
p1864
aS'so'
p1865
aS'hard'
p1866
aS','
p1867
aS'so'
p1868
aS'proudly'
p1869
aS'.'
p1870
asg82
(lp1871
V``
p1872
aVOf
p1873
aVcourse
p1874
aVyou
p1875
aVknoaow
p1876
ag100
aV''
p1877
aVshe
p1878
ag1324
aVon
p1879
aVin
p1880
aVthe
p1881
aVassume
p1882
aVvoice
p1883
ag100
aV``
p1884
aVthere
p1885
aVuse
p1886
aVto
p1887
aVbe
p1888
aVGreece
p1889
ag100
aVbut
p1890
aVnow
p1891
aVall
p1892
aVthese
p1893
aVdreadful
p1894
aVArabs
p1895
aV...
p1896
aV''
p1897
aV``
p1898
aVOh
p1899
ag100
aVyes
p1900
ag100
aVyes
p1901
ag100
aV''
p1902
aVhe
p1903
ag775
ag100
aVhis
p1904
aVface
p1905
aVsmart
p1906
aVfrom
p1907
aVlaugh
p1908
aVso
p1909
aVhard
p1910
ag100
aVso
p1911
aVproudly
p1912
ag138
asg139
(lp1913
g141
ag141
ag141
ag141
ag141
ag141
ag141
ag141
ag141
ag141
ag141
ag141
ag141
ag141
ag141
ag141
ag141
ag141
ag141
ag141
aVLOCATION
p1914
ag141
ag141
ag141
ag141
ag141
ag141
ag141
ag141
ag141
ag141
ag141
ag141
ag141
ag141
ag141
ag141
ag141
ag141
ag141
ag141
ag141
ag141
ag141
ag141
ag141
ag141
ag141
ag141
ag141
ag141
ag141
asg142
(lp1915
g252
ag147
ag150
ag145
ag254
ag153
ag256
ag145
ag146
ag147
ag147
ag152
ag159
ag150
ag153
ag252
ag1639
ag159
ag347
ag158
ag253
ag153
ag155
ag161
ag152
ag152
ag149
ag253
ag151
ag256
ag252
ag253
ag153
ag255
ag153
ag154
ag153
ag256
ag145
ag146
ag153
ag148
ag150
ag160
ag147
ag160
ag161
ag161
ag153
ag161
ag161
ag164
asg165
V"Of course you knoaow," she went on in the assumed voice, "there used to be Greece, but now all these dreadful Arabs..."    "Oh, yes, yes," he said, his face smarting from laughing so hard, so proudly.
p1916
sba(i__main__
Sentence
p1917
(dp1918
g17
I39
sg18
(lp1919
S'She'
p1920
aS'had'
p1921
aS'become'
p1922
aS'perfect'
p1923
aS'for'
p1924
aS'him'
p1925
aS'.'
p1926
asg82
(lp1927
VShe
p1928
ag113
aVbecome
p1929
aVperfect
p1930
aVfor
p1931
aVhim
p1932
ag138
asg139
(lp1933
g141
ag141
ag141
ag141
ag141
ag141
ag141
asg142
(lp1934
g145
ag146
ag159
ag149
ag147
ag145
ag164
asg165
VShe had become perfect for him.
p1935
sba(i__main__
Sentence
p1936
(dp1937
g17
I40
sg18
(lp1938
S'In'
p1939
aS'bed'
p1940
aS'she'
p1941
aS'pointed'
p1942
aS'out'
p1943
aS','
p1944
aS'``'
p1945
aS'It'
p1946
aS"'s"
p1947
aS'awfully'
p1948
aS'late'
p1949
aS'.'
p1950
aS"''"
p1951
asg82
(lp1952
VIn
p1953
aVbed
p1954
aVshe
p1955
aVpoint
p1956
aVout
p1957
ag100
aV``
p1958
aVIt
p1959
aV's
p1960
aVawfully
p1961
aVlate
p1962
ag138
aV''
p1963
asg139
(lp1964
g141
ag141
ag141
ag141
ag141
ag141
ag141
ag141
ag141
ag141
ag141
ag141
ag141
asg142
(lp1965
g147
ag159
ag145
ag146
ag163
ag153
ag252
ag145
ag255
ag161
ag149
ag164
ag256
asg165
VIn bed she pointed out, "It's awfully late."
p1966
sba(i__main__
Sentence
p1967
(dp1968
g17
I41
sg18
(lp1969
S'``'
p1970
aS'Want'
p1971
aS'a'
p1972
aS'back'
p1973
aS'rub'
p1974
aS'?'
p1975
aS"''"
p1976
asg82
(lp1977
V``
p1978
aVWant
p1979
ag98
aVback
p1980
aVrub
p1981
ag221
aV''
p1982
asg139
(lp1983
g141
ag141
ag141
ag141
ag141
ag141
ag141
asg142
(lp1984
g252
ag149
ag152
ag150
ag150
ag164
ag256
asg165
V"Want a back rub?"
p1985
sba(i__main__
Sentence
p1986
(dp1987
g17
I42
sg18
(lp1988
S'``'
p1989
aS'Mmmm'
p1990
aS'.'
p1991
asg82
(lp1992
V``
p1993
aVMmmm
p1994
ag138
asg139
(lp1995
g141
ag141
ag141
asg142
(lp1996
g252
ag253
ag164
asg165
V"Mmmm.
p1997
sba(i__main__
Sentence
p1998
(dp1999
g17
I43
sg18
(lp2000
S'That'
p2001
aS'would'
p2002
aS'be'
p2003
aS'reawy'
p2004
aS'nice'
p2005
aS'.'
p2006
aS"''"
p2007
asg82
(lp2008
VThat
p2009
aVwould
p2010
aVbe
p2011
aVreawy
p2012
aVnice
p2013
ag138
aV''
p2014
asg139
(lp2015
g141
ag141
ag141
ag141
ag141
ag141
ag141
asg142
(lp2016
g152
ag157
ag158
ag161
ag149
ag164
ag256
asg165
VThat would be reawy nice."
p2017
sba(i__main__
Sentence
p2018
(dp2019
g17
I44
sg18
(lp2020
S'As'
p2021
aS'his'
p2022
aS'left'
p2023
aS'hand'
p2024
aS'labored'
p2025
aS'on'
p2026
aS'the'
p2027
aS'smooth'
p2028
aS','
p2029
aS'warm'
p2030
aS','
p2031
aS'pliable'
p2032
aS'surface'
p2033
aS','
p2034
aS'his'
p2035
aS'wifethat'
p2036
aS'small'
p2037
aS'something'
p2038
aS'in'
p2039
aS'her'
p2040
aS'that'
p2041
aS'was'
p2042
aS'all'
p2043
aS'her'
p2044
aS'ownsank'
p2045
aS'out'
p2046
aS'of'
p2047
aS'reach'
p2048
aS';'
p2049
aS'night'
p2050
aS'after'
p2051
aS'night'
p2052
aS','
p2053
aS'she'
p2054
aS'fell'
p2055
aS'asleep'
p2056
aS'.'
p2057
asg82
(lp2058
VAs
p2059
aVhis
p2060
aVleft
p2061
aVhand
p2062
aVlabor
p2063
aVon
p2064
aVthe
p2065
aVsmooth
p2066
ag100
aVwarm
p2067
ag100
aVpliable
p2068
aVsurface
p2069
ag100
aVhis
p2070
aVwifethat
p2071
aVsmall
p2072
aVsomething
p2073
aVin
p2074
aVher
p2075
aVthat
p2076
ag91
aVall
p2077
aVher
p2078
aVownsank
p2079
aVout
p2080
aVof
p2081
aVreach
p2082
ag96
aVnight
p2083
aVafter
p2084
aVnight
p2085
ag100
aVshe
p2086
aVfell
p2087
aVasleep
p2088
ag138
asg139
(lp2089
g141
ag141
ag141
ag141
ag141
ag141
ag141
ag141
ag141
ag141
ag141
ag141
ag141
ag141
ag141
ag141
ag141
ag141
ag141
ag141
ag141
ag141
ag141
ag141
ag141
ag141
ag141
ag141
ag141
ag141
ag141
ag141
ag141
ag141
ag141
ag141
ag141
asg142
(lp2090
g147
ag148
ag150
ag150
ag146
ag147
ag152
ag150
ag153
ag150
ag153
ag149
ag150
ag153
ag148
ag150
ag149
ag150
ag147
ag148
ag152
ag146
ag152
ag148
ag150
ag163
ag147
ag150
ag151
ag150
ag147
ag150
ag153
ag145
ag146
ag158
ag164
asg165
VAs his left hand labored on the smooth, warm, pliable surface, his wifethat small something in her that was all her ownsank out of reach; night after night, she fell asleep.
p2091
sbasbsS'summary'
p2092
g0
(g7
g2
Ntp2093
Rp2094
(dp2095
g11
S'The husband likes the impersonations that his first wife did of other people they encountered.  He even appreciated the impersonation of Gwen, his current mistress by his wife.  He is fond of Gwen because she was quite lively in bed.  His first wife  typically would asked to have her back rubbed and promptly fall asleep.  Soon, the husband divorces the first wife and moves onto Gwen.  Initially, the husband has trouble eliciting responses from Gwen about people they encounter that are anything but pleasant. He tries to encourage a stream of thought that includes criticizing these people but Gwen is more interested in having sex at the end of evening, even though the husband warns that it is light.  However, Gwen begins to impersonate more after they meet the new husband of the ex-wife.  She continues to do this and he enjoys it more and more, until their nightly routine becomes her impersonations followed by him giving her backrubs and falling asleep. '
p2096
sg13
(lp2097
(i__main__
Sentence
p2098
(dp2099
g17
I0
sg18
(lp2100
S'The'
p2101
aS'husband'
p2102
aS'likes'
p2103
aS'the'
p2104
aS'impersonations'
p2105
aS'that'
p2106
aS'his'
p2107
aS'first'
p2108
aS'wife'
p2109
aS'did'
p2110
aS'of'
p2111
aS'other'
p2112
aS'people'
p2113
aS'they'
p2114
aS'encountered'
p2115
aS'.'
p2116
asg82
(lp2117
VThe
p2118
aVhusband
p2119
aVlike
p2120
aVthe
p2121
aVimpersonation
p2122
aVthat
p2123
aVhis
p2124
aVfirst
p2125
aVwife
p2126
ag445
aVof
p2127
aVother
p2128
aVpeople
p2129
aVthey
p2130
aVencounter
p2131
ag138
asg139
(lp2132
g141
ag141
ag141
ag141
ag141
ag141
ag141
ag141
ag141
ag141
ag141
ag141
ag141
ag141
ag141
ag141
asg142
(lp2133
g152
ag150
ag255
ag152
ag154
ag162
ag148
ag149
ag150
ag146
ag147
ag149
ag154
ag145
ag146
ag164
asg165
VThe husband likes the impersonations that his first wife did of other people they encountered.
p2134
sba(i__main__
Sentence
p2135
(dp2136
g17
I1
sg18
(lp2137
S'He'
p2138
aS'even'
p2139
aS'appreciated'
p2140
aS'the'
p2141
aS'impersonation'
p2142
aS'of'
p2143
aS'Gwen'
p2144
aS','
p2145
aS'his'
p2146
aS'current'
p2147
aS'mistress'
p2148
aS'by'
p2149
aS'his'
p2150
aS'wife'
p2151
aS'.'
p2152
asg82
(lp2153
VHe
p2154
aVeven
p2155
aVappreciate
p2156
aVthe
p2157
aVimpersonation
p2158
aVof
p2159
aVGwen
p2160
ag100
aVhis
p2161
aVcurrent
p2162
aVmistress
p2163
aVby
p2164
aVhis
p2165
aVwife
p2166
ag138
asg139
(lp2167
g141
ag141
ag141
ag141
ag141
ag141
aVPERSON
p2168
ag141
ag141
ag141
ag141
ag141
ag141
ag141
ag141
asg142
(lp2169
g145
ag161
ag146
ag152
ag150
ag147
ag253
ag153
ag148
ag149
ag150
ag147
ag148
ag150
ag164
asg165
VHe even appreciated the impersonation of Gwen, his current mistress by his wife.
p2170
sba(i__main__
Sentence
p2171
(dp2172
g17
I2
sg18
(lp2173
S'He'
p2174
aS'is'
p2175
aS'fond'
p2176
aS'of'
p2177
aS'Gwen'
p2178
aS'because'
p2179
aS'she'
p2180
aS'was'
p2181
aS'quite'
p2182
aS'lively'
p2183
aS'in'
p2184
aS'bed'
p2185
aS'.'
p2186
asg82
(lp2187
VHe
p2188
ag1362
aVfond
p2189
aVof
p2190
aVGwen
p2191
aVbecause
p2192
aVshe
p2193
ag91
aVquite
p2194
aVlively
p2195
aVin
p2196
aVbed
p2197
ag138
asg139
(lp2198
g141
ag141
ag141
ag141
aVPERSON
p2199
ag141
ag141
ag141
ag141
ag141
ag141
ag141
ag141
asg142
(lp2200
g145
ag255
ag149
ag147
ag253
ag147
ag145
ag146
ag161
ag161
ag147
ag159
ag164
asg165
VHe is fond of Gwen because she was quite lively in bed.
p2201
sba(i__main__
Sentence
p2202
(dp2203
g17
I3
sg18
(lp2204
S'His'
p2205
aS'first'
p2206
aS'wife'
p2207
aS'typically'
p2208
aS'would'
p2209
aS'asked'
p2210
aS'to'
p2211
aS'have'
p2212
aS'her'
p2213
aS'back'
p2214
aS'rubbed'
p2215
aS'and'
p2216
aS'promptly'
p2217
aS'fall'
p2218
aS'asleep'
p2219
aS'.'
p2220
asg82
(lp2221
VHis
p2222
aVfirst
p2223
aVwife
p2224
aVtypically
p2225
aVwould
p2226
aVask
p2227
aVto
p2228
aVhave
p2229
aVher
p2230
aVback
p2231
ag333
aVand
p2232
aVpromptly
p2233
aVfall
p2234
aVasleep
p2235
ag138
asg139
(lp2236
g141
ag141
ag141
ag141
ag141
ag141
ag141
ag141
ag141
ag141
ag141
ag141
ag141
ag141
ag141
ag141
asg142
(lp2237
g148
ag149
ag150
ag161
ag157
ag158
ag347
ag158
ag148
ag150
ag159
ag155
ag161
ag254
ag158
ag164
asg165
VHis first wife  typically would asked to have her back rubbed and promptly fall asleep.
p2238
sba(i__main__
Sentence
p2239
(dp2240
g17
I4
sg18
(lp2241
S'Soon'
p2242
aS','
p2243
aS'the'
p2244
aS'husband'
p2245
aS'divorces'
p2246
aS'the'
p2247
aS'first'
p2248
aS'wife'
p2249
aS'and'
p2250
aS'moves'
p2251
aS'onto'
p2252
aS'Gwen'
p2253
aS'.'
p2254
asg82
(lp2255
VSoon
p2256
ag100
aVthe
p2257
aVhusband
p2258
aVdivorce
p2259
aVthe
p2260
aVfirst
p2261
aVwife
p2262
aVand
p2263
aVmove
p2264
aVonto
p2265
aVGwen
p2266
ag138
asg139
(lp2267
g141
ag141
ag141
ag141
ag141
ag141
ag141
ag141
ag141
ag141
ag141
aVPERSON
p2268
ag141
asg142
(lp2269
g161
ag153
ag152
ag150
ag154
ag152
ag149
ag150
ag155
ag154
ag147
ag253
ag164
asg165
VSoon, the husband divorces the first wife and moves onto Gwen.
p2270
sba(i__main__
Sentence
p2271
(dp2272
g17
I5
sg18
(lp2273
S'Initially'
p2274
aS','
p2275
aS'the'
p2276
aS'husband'
p2277
aS'has'
p2278
aS'trouble'
p2279
aS'eliciting'
p2280
aS'responses'
p2281
aS'from'
p2282
aS'Gwen'
p2283
aS'about'
p2284
aS'people'
p2285
aS'they'
p2286
aS'encounter'
p2287
aS'that'
p2288
aS'are'
p2289
aS'anything'
p2290
aS'but'
p2291
aS'pleasant'
p2292
aS'.'
p2293
asg82
(lp2294
VInitially
p2295
ag100
aVthe
p2296
aVhusband
p2297
ag719
aVtrouble
p2298
aVeliciting
p2299
aVresponse
p2300
aVfrom
p2301
aVGwen
p2302
aVabout
p2303
aVpeople
p2304
aVthey
p2305
aVencounter
p2306
aVthat
p2307
ag613
aVanything
p2308
aVbut
p2309
aVpleasant
p2310
ag138
asg139
(lp2311
g141
ag141
ag141
ag141
ag141
ag141
ag141
ag141
ag141
aVPERSON
p2312
ag141
ag141
ag141
ag141
ag141
ag141
ag141
ag141
ag141
ag141
asg142
(lp2313
g161
ag153
ag152
ag150
ag255
ag149
ag150
ag154
ag147
ag253
ag147
ag154
ag145
ag254
ag147
ag254
ag160
ag155
ag149
ag164
asg165
VInitially, the husband has trouble eliciting responses from Gwen about people they encounter that are anything but pleasant.
p2314
sba(i__main__
Sentence
p2315
(dp2316
g17
I6
sg18
(lp2317
S'He'
p2318
aS'tries'
p2319
aS'to'
p2320
aS'encourage'
p2321
aS'a'
p2322
aS'stream'
p2323
aS'of'
p2324
aS'thought'
p2325
aS'that'
p2326
aS'includes'
p2327
aS'criticizing'
p2328
aS'these'
p2329
aS'people'
p2330
aS'but'
p2331
aS'Gwen'
p2332
aS'is'
p2333
aS'more'
p2334
aS'interested'
p2335
aS'in'
p2336
aS'having'
p2337
aS'sex'
p2338
aS'at'
p2339
aS'the'
p2340
aS'end'
p2341
aS'of'
p2342
aS'evening'
p2343
aS','
p2344
aS'even'
p2345
aS'though'
p2346
aS'the'
p2347
aS'husband'
p2348
aS'warns'
p2349
aS'that'
p2350
aS'it'
p2351
aS'is'
p2352
aS'light'
p2353
aS'.'
p2354
asg82
(lp2355
VHe
p2356
aVtry
p2357
aVto
p2358
aVencourage
p2359
ag98
aVstream
p2360
aVof
p2361
aVthought
p2362
aVthat
p2363
aVinclude
p2364
aVcriticize
p2365
aVthese
p2366
aVpeople
p2367
aVbut
p2368
aVGwen
p2369
ag1362
aVmore
p2370
aVinterested
p2371
aVin
p2372
aVhaving
p2373
aVsex
p2374
aVat
p2375
aVthe
p2376
aVend
p2377
aVof
p2378
aVevening
p2379
ag100
aVeven
p2380
aVthough
p2381
aVthe
p2382
aVhusband
p2383
aVwarn
p2384
aVthat
p2385
aVit
p2386
ag1362
aVlight
p2387
ag138
asg139
(lp2388
g141
ag141
ag141
ag141
ag141
ag141
ag141
ag141
ag141
ag141
ag141
ag141
ag141
ag141
aVPERSON
p2389
ag141
ag141
ag141
ag141
ag141
ag141
ag141
ag141
ag141
ag141
ag141
ag141
ag141
ag141
ag141
ag141
ag141
ag141
ag141
ag141
ag141
ag141
asg142
(lp2390
g145
ag255
ag347
ag150
ag152
ag150
ag147
ag150
ag147
ag255
ag160
ag152
ag154
ag155
ag253
ag255
ag530
ag149
ag147
ag150
ag150
ag147
ag152
ag150
ag147
ag150
ag153
ag161
ag147
ag152
ag150
ag255
ag147
ag145
ag255
ag149
ag164
asg165
VHe tries to encourage a stream of thought that includes criticizing these people but Gwen is more interested in having sex at the end of evening, even though the husband warns that it is light.
p2391
sba(i__main__
Sentence
p2392
(dp2393
g17
I7
sg18
(lp2394
S'However'
p2395
aS','
p2396
aS'Gwen'
p2397
aS'begins'
p2398
aS'to'
p2399
aS'impersonate'
p2400
aS'more'
p2401
aS'after'
p2402
aS'they'
p2403
aS'meet'
p2404
aS'the'
p2405
aS'new'
p2406
aS'husband'
p2407
aS'of'
p2408
aS'the'
p2409
aS'ex-wife'
p2410
aS'.'
p2411
asg82
(lp2412
VHowever
p2413
ag100
aVGwen
p2414
aVbegin
p2415
aVto
p2416
aVimpersonate
p2417
aVmore
p2418
aVafter
p2419
aVthey
p2420
aVmeet
p2421
aVthe
p2422
aVnew
p2423
aVhusband
p2424
aVof
p2425
aVthe
p2426
aVex-wife
p2427
ag138
asg139
(lp2428
g141
ag141
aVPERSON
p2429
ag141
ag141
ag141
ag141
ag141
ag141
ag141
ag141
ag141
ag141
ag141
ag141
ag141
ag141
asg142
(lp2430
g161
ag153
ag253
ag255
ag347
ag158
ag530
ag147
ag145
ag254
ag152
ag149
ag150
ag147
ag152
ag149
ag164
asg165
VHowever, Gwen begins to impersonate more after they meet the new husband of the ex-wife.
p2431
sba(i__main__
Sentence
p2432
(dp2433
g17
I8
sg18
(lp2434
S'She'
p2435
aS'continues'
p2436
aS'to'
p2437
aS'do'
p2438
aS'this'
p2439
aS'and'
p2440
aS'he'
p2441
aS'enjoys'
p2442
aS'it'
p2443
aS'more'
p2444
aS'and'
p2445
aS'more'
p2446
aS','
p2447
aS'until'
p2448
aS'their'
p2449
aS'nightly'
p2450
aS'routine'
p2451
aS'becomes'
p2452
aS'her'
p2453
aS'impersonations'
p2454
aS'followed'
p2455
aS'by'
p2456
aS'him'
p2457
aS'giving'
p2458
aS'her'
p2459
aS'backrubs'
p2460
aS'and'
p2461
aS'falling'
p2462
aS'asleep'
p2463
aS'.'
p2464
asg82
(lp2465
VShe
p2466
aVcontinue
p2467
aVto
p2468
aVdo
p2469
aVthis
p2470
aVand
p2471
aVhe
p2472
aVenjoy
p2473
aVit
p2474
aVmore
p2475
aVand
p2476
aVmore
p2477
ag100
aVuntil
p2478
aVtheir
p2479
aVnightly
p2480
aVroutine
p2481
aVbecomes
p2482
aVher
p2483
aVimpersonation
p2484
aVfollow
p2485
aVby
p2486
aVhim
p2487
aVgive
p2488
aVher
p2489
aVbackrubs
p2490
aVand
p2491
aVfall
p2492
aVasleep
p2493
ag138
asg139
(lp2494
g141
ag141
ag141
ag141
ag141
ag141
ag141
ag141
ag141
ag141
ag141
ag141
ag141
ag141
ag141
ag141
ag141
ag141
ag141
ag141
ag141
ag141
ag141
ag141
ag141
ag141
ag141
ag141
ag141
ag141
asg142
(lp2495
g145
ag255
ag347
ag158
ag152
ag155
ag145
ag255
ag145
ag530
ag155
ag530
ag153
ag147
ag148
ag161
ag149
ag154
ag145
ag154
ag146
ag147
ag145
ag160
ag145
ag255
ag155
ag160
ag150
ag164
asg165
VShe continues to do this and he enjoys it more and more, until their nightly routine becomes her impersonations followed by him giving her backrubs and falling asleep. 
p2496
sbasbsS'name'
p2497
S'Pygmalion '
p2498
sS'summaries'
p2499
(lp2500
g2094
asb.