ccopy_reg
_reconstructor
p0
(c__main__
Story
p1
c__builtin__
object
p2
Ntp3
Rp4
(dp5
S'text'
p6
g0
(c__main__
Document
p7
g2
Ntp8
Rp9
(dp10
S'_Document__initialContent'
p11
S'Mrs. Baroda was a little provoked to learn that her husband expected his friend, Gouvernail, up to spend a week or two on the plantation.\n\n\n\nThey had entertained a good deal during the winter; much of the time had also been passed in New Orleans in various forms of mild dissipation. She was looking forward to a period of unbroken rest, now, and undisturbed tete-a-tete with her husband, when he informed her that Gouvernail was coming up to stay a week or two.\n\n\n\nThis was a man she had heard much of but never seen. He had been her husband\'s college friend; was now a journalist, and in no sense a society man or "a man about town," which were, perhaps, some of the reasons she had never met him. But she had unconsciously formed an image of him in her mind. She pictured him tall, slim, cynical; with eye-glasses, and his hands in his pockets; and she did not like him. Gouvernail was slim enough, but he wasn\'t very tall nor very cynical; neither did he wear eyeglasses nor carry his hands in his pockets. And she rather liked him when he first presented himself.\n\n\n\nBut why she liked him she could not explain satisfactorily to herself when she partly attempted to do so. She could discover in him none of those brilliant and promising traits which Gaston, her husband, had often assured her that he possessed. On the contrary, he sat rather mute and receptive before her chatty eagerness to make him feel at home and in face of Gaston\'s frank and wordy hospitality. His manner was as courteous toward her as the most exacting woman could require; but he made no direct appeal to her approval or even esteem.\n\n\n\nOnce settled at the plantation he seemed to like to sit upon the wide portico in the shade of one of the big Corinthian pillars, smoking his cigar lazily and listening attentively to Gaston\'s experience as a sugar planter.\n\n\n\n"This is what I call living," he would utter with deep satisfaction, as the air that swept across the sugar field caressed him with its warm and scented velvety touch. It pleased him also to get on familiar terms with the big dogs that came about him, rubbing themselves sociably against his legs. He did not care to fish, and displayed no eagerness to go out and kill grosbecs when Gaston proposed doing so.\n\n\n\nGouvernail\'s personality puzzled Mrs. Baroda, but she liked him. Indeed, he was a lovable, inoffensive fellow. After a few days, when she could understand him no better than at first, she gave over being puzzled and remained piqued. In this mood she left her husband and her guest, for the most part, alone together. Then finding that Gouvernail took no manner of exception to her action, she imposed her society upon him, accompanying him in his idle strolls to the mill and walks along the batture. She persistently sought to penetrate the reserve in which he had unconsciously enveloped himself.\n\n\n\n"When is he going--your friend?" she one day asked her husband. "For my part, he tires me frightfully."\n\n\n\n"Not for a week yet, dear. I can\'t understand; he gives you no trouble."\n\n\n\n"No. I should like him better if he did; if he were more like others, and I had to plan somewhat for his comfort and enjoyment."\n\n\n\nGaston took his wife\'s pretty face between his hands and looked tenderly and laughingly into her troubled eyes.\n\n\n\nThey were making a bit of toilet sociably together in Mrs. Baroda\'s dressing-room.\n\n\n\n"You are full of surprises, ma belle," he said to her. "Even I can never count upon how you are going to act under given conditions." He kissed her and turned to fasten his cravat before the mirror.\n\n\n\n"Here you are," he went on, "taking poor Gouvernail seriously and making a commotion over him, the last thing he would desire or expect."\n\n\n\n"Commotion!" she hotly resented. "Nonsense! How can you say such a thing? Commotion, indeed! But, you know, you said he was clever."\n\n\n\n"So he is. But the poor fellow is run down by overwork now. That\'s why I asked him here to take a rest."\n\n\n\n"You used to say he was a man of ideas," she retorted, unconciliated. "I expected him to be interesting, at least. I\'m going to the city in the morning to have my spring gowns fitted. Let me know when Mr. Gouvernail is gone; I shall be at my Aunt Octavie\'s."\n\n\n\nThat night she went and sat alone upon a bench that stood beneath a live oak tree at the edge of the gravel walk.\n\n\n\nShe had never known her thoughts or her intentions to be so confused. She could gather nothing from them but the feeling of a distinct necessity to quit her home in the morning.\n\n\n\nMrs. Baroda heard footsteps crunching the gravel; but could discern in the darkness only the approaching red point of a lighted cigar. She knew it was Gouvernail, for her husband did not smoke. She hoped to remain unnoticed, but her white gown revealed her to him. He threw away his cigar and seated himself upon the bench beside her; without a suspicion that she might object to his presence.\n\n\n\n"Your husband told me to bring this to you, Mrs. Baroda," he said, handing her a filmy, white scarf with which she sometimes enveloped her head and shoulders. She accepted the scarf from him with a murmur of thanks, and let it lie in her lap.\n\n\n\nHe made some commonplace observation upon the baneful effect of the night air at the season. Then as his gaze reached out into the darkness, he murmured, half to himself:\n\n\n\n"`Night of south winds--night of the large few stars!\n\n\n\nStill nodding night--\'"\n\n\n\nShe made no reply to this apostrophe to the night, which, indeed, was not addressed to her.\n\n\n\nGouvernail was in no sense a diffident man, for he was not a self-conscious one. His periods of reserve were not constitutional, but the result of moods. Sitting there beside Mrs. Baroda, his silence melted for the time.\n\n\n\nHe talked freely and intimately in a low, hesitating drawl that was not unpleasant to hear. He talked of the old college days when he and Gaston had been a good deal to each other; of the days of keen and blind ambitions and large intentions. Now there was left with him, at least, a philosophic acquiescence to the existing order--only a desire to be permitted to exist, with now and then a little whiff of genuine life, such as he was breathing now.\n\n\n\nHer mind only vaguely grasped what he was saying. Her physical being was for the moment predominant. She was not thinking of his words, only drinking in the tones of his voice. She wanted to reach out her hand in the darkness and touch him with the sensitive tips of her fingers upon the face or the lips. She wanted to draw close to him and whisper against his cheek--she did not care what--as she might have done if she had not been a respectable woman.\n\n\n\nThe stronger the impulse grew to bring herself near him, the further, in fact, did she draw away from him. As soon as she could do so without an appearance of too great rudeness, she rose and left him there alone.\n\n\n\nBefore she reached the house, Gouvernail had lighted a fresh cigar and ended his apostrophe to the night.\n\n\n\nMrs. Baroda was greatly tempted that night to tell her husband--who was also her friend--of this folly that had seized her. But she did not yield to the temptation. Beside being a respectable woman she was a very sensible one; and she knew there are some battles in life which a human being must fight alone.\n\n\n\nWhen Gaston arose in the morning, his wife had already departed. She had taken an early morning train to the city. She did not return till Gouvernail was gone from under her roof.\n\n\n\nThere was some talk of having him back during the summer that followed. That is, Gaston greatly desired it; but this desire yielded to his wife\'s strenuous opposition.\n\n\n\nHowever, before the year ended, she proposed, wholly from herself, to have Gouvernail visit them again. Her husband was surprised and delighted with the suggestion coming from her.\n\n\n\n"I am glad, chere amie, to know that you have finally overcome your dislike for him; truly he did not deserve it."\n\n\n\n"Oh," she told him, laughingly, after pressing a long, tender kiss upon his lips, "I have overcome everything! you will see. This time I shall be very nice to him."'
p12
sS'sentences'
p13
(lp14
(i__main__
Sentence
p15
(dp16
S'index'
p17
I0
sS'words'
p18
(lp19
S'Mrs.'
p20
aS'Baroda'
p21
aS'was'
p22
aS'a'
p23
aS'little'
p24
aS'provoked'
p25
aS'to'
p26
aS'learn'
p27
aS'that'
p28
aS'her'
p29
aS'husband'
p30
aS'expected'
p31
aS'his'
p32
aS'friend'
p33
aS','
p34
aS'Gouvernail'
p35
aS','
p36
aS'up'
p37
aS'to'
p38
aS'spend'
p39
aS'a'
p40
aS'week'
p41
aS'or'
p42
aS'two'
p43
aS'on'
p44
aS'the'
p45
aS'plantation'
p46
aS'.'
p47
asS'lemmas'
p48
(lp49
VMrs.
p50
aVBaroda
p51
aVbe
p52
aVa
p53
aVlittle
p54
aVprovoke
p55
aVto
p56
aVlearn
p57
aVthat
p58
aVher
p59
aVhusband
p60
aVexpect
p61
aVhis
p62
aVfriend
p63
aV,
p64
aVGouvernail
p65
ag64
aVup
p66
aVto
p67
aVspend
p68
ag53
aVweek
p69
aVor
p70
aVtwo
p71
aVon
p72
aVthe
p73
aVplantation
p74
aV.
p75
asS'nerTags'
p76
(lp77
VO
p78
aVPERSON
p79
ag78
ag78
ag78
ag78
ag78
ag78
ag78
ag78
ag78
ag78
ag78
ag78
ag78
aVPERSON
p80
ag78
ag78
ag78
ag78
ag78
ag78
ag78
ag78
ag78
ag78
ag78
ag78
asS'posTags'
p81
(lp82
S'NNP'
p83
ag83
aS'VBD'
p84
aS'DT'
p85
aS'RB'
p86
aS'VBN'
p87
aS'TO'
p88
aS'VB'
p89
aS'IN'
p90
aS'PRP$'
p91
aS'NN'
p92
ag87
ag91
ag92
aS','
p93
ag83
ag93
ag86
ag88
ag89
ag85
ag92
aS'CC'
p94
aS'CD'
p95
ag90
ag85
ag92
aS'.'
p96
asS'_Sentence__initialContent'
p97
VMrs. Baroda was a little provoked to learn that her husband expected his friend, Gouvernail, up to spend a week or two on the plantation.
p98
sba(i__main__
Sentence
p99
(dp100
g17
I1
sg18
(lp101
S'They'
p102
aS'had'
p103
aS'entertained'
p104
aS'a'
p105
aS'good'
p106
aS'deal'
p107
aS'during'
p108
aS'the'
p109
aS'winter'
p110
aS';'
p111
aS'much'
p112
aS'of'
p113
aS'the'
p114
aS'time'
p115
aS'had'
p116
aS'also'
p117
aS'been'
p118
aS'passed'
p119
aS'in'
p120
aS'New'
p121
aS'Orleans'
p122
aS'in'
p123
aS'various'
p124
aS'forms'
p125
aS'of'
p126
aS'mild'
p127
aS'dissipation'
p128
aS'.'
p129
asg48
(lp130
VThey
p131
aVhave
p132
aVentertain
p133
ag53
aVgood
p134
aVdeal
p135
aVduring
p136
aVthe
p137
aVwinter
p138
aV;
p139
aVmuch
p140
aVof
p141
aVthe
p142
aVtime
p143
ag132
aValso
p144
aVbe
p145
aVpass
p146
aVin
p147
aVNew
p148
aVOrleans
p149
aVin
p150
aVvarious
p151
aVform
p152
aVof
p153
aVmild
p154
aVdissipation
p155
ag75
asg76
(lp156
g78
ag78
ag78
ag78
ag78
ag78
ag78
ag78
ag78
ag78
ag78
ag78
ag78
ag78
ag78
ag78
ag78
ag78
ag78
aVLOCATION
p157
aVLOCATION
p158
ag78
ag78
ag78
ag78
ag78
ag78
ag78
asg81
(lp159
S'PRP'
p160
ag84
ag87
ag85
aS'JJ'
p161
ag92
ag90
ag85
ag92
aS':'
p162
ag86
ag90
ag85
ag92
ag84
ag86
ag87
ag87
ag90
ag83
ag83
ag90
ag161
aS'NNS'
p163
ag90
ag92
ag92
ag96
asg97
VThey had entertained a good deal during the winter; much of the time had also been passed in New Orleans in various forms of mild dissipation.
p164
sba(i__main__
Sentence
p165
(dp166
g17
I2
sg18
(lp167
S'She'
p168
aS'was'
p169
aS'looking'
p170
aS'forward'
p171
aS'to'
p172
aS'a'
p173
aS'period'
p174
aS'of'
p175
aS'unbroken'
p176
aS'rest'
p177
aS','
p178
aS'now'
p179
aS','
p180
aS'and'
p181
aS'undisturbed'
p182
aS'tete-a-tete'
p183
aS'with'
p184
aS'her'
p185
aS'husband'
p186
aS','
p187
aS'when'
p188
aS'he'
p189
aS'informed'
p190
aS'her'
p191
aS'that'
p192
aS'Gouvernail'
p193
aS'was'
p194
aS'coming'
p195
aS'up'
p196
aS'to'
p197
aS'stay'
p198
aS'a'
p199
aS'week'
p200
aS'or'
p201
aS'two'
p202
aS'.'
p203
asg48
(lp204
VShe
p205
ag52
aVlook
p206
aVforward
p207
aVto
p208
ag53
aVperiod
p209
aVof
p210
aVunbroken
p211
aVrest
p212
ag64
aVnow
p213
ag64
aVand
p214
aVundisturbed
p215
aVtete-a-tete
p216
aVwith
p217
aVher
p218
aVhusband
p219
ag64
aVwhen
p220
aVhe
p221
aVinform
p222
aVher
p223
aVthat
p224
aVGouvernail
p225
ag52
aVcome
p226
aVup
p227
aVto
p228
aVstay
p229
ag53
aVweek
p230
aVor
p231
aVtwo
p232
ag75
asg76
(lp233
g78
ag78
ag78
ag78
ag78
ag78
ag78
ag78
ag78
ag78
ag78
ag78
ag78
ag78
ag78
ag78
ag78
ag78
ag78
ag78
ag78
ag78
ag78
ag78
ag78
aVPERSON
p234
ag78
ag78
ag78
ag78
ag78
ag78
ag78
ag78
ag78
ag78
asg81
(lp235
g160
ag84
aS'VBG'
p236
ag86
ag88
ag85
ag92
ag90
ag92
ag92
ag93
ag86
ag93
ag94
ag84
ag161
ag90
ag91
ag92
ag93
aS'WRB'
p237
ag160
ag84
ag160
ag90
ag83
ag84
ag236
aS'RP'
p238
ag88
ag89
ag85
ag92
ag94
ag95
ag96
asg97
VShe was looking forward to a period of unbroken rest, now, and undisturbed tete-a-tete with her husband, when he informed her that Gouvernail was coming up to stay a week or two.
p239
sba(i__main__
Sentence
p240
(dp241
g17
I3
sg18
(lp242
S'This'
p243
aS'was'
p244
aS'a'
p245
aS'man'
p246
aS'she'
p247
aS'had'
p248
aS'heard'
p249
aS'much'
p250
aS'of'
p251
aS'but'
p252
aS'never'
p253
aS'seen'
p254
aS'.'
p255
asg48
(lp256
VThis
p257
ag52
ag53
aVman
p258
aVshe
p259
ag132
aVhear
p260
aVmuch
p261
aVof
p262
aVbut
p263
aVnever
p264
aVsee
p265
ag75
asg76
(lp266
g78
ag78
ag78
ag78
ag78
ag78
ag78
ag78
ag78
ag78
ag78
ag78
ag78
asg81
(lp267
g85
ag84
ag85
ag92
ag160
ag84
ag87
ag86
ag90
ag94
ag86
ag87
ag96
asg97
VThis was a man she had heard much of but never seen.
p268
sba(i__main__
Sentence
p269
(dp270
g17
I4
sg18
(lp271
S'He'
p272
aS'had'
p273
aS'been'
p274
aS'her'
p275
aS'husband'
p276
aS"'s"
p277
aS'college'
p278
aS'friend'
p279
aS';'
p280
aS'was'
p281
aS'now'
p282
aS'a'
p283
aS'journalist'
p284
aS','
p285
aS'and'
p286
aS'in'
p287
aS'no'
p288
aS'sense'
p289
aS'a'
p290
aS'society'
p291
aS'man'
p292
aS'or'
p293
aS'``'
p294
aS'a'
p295
aS'man'
p296
aS'about'
p297
aS'town'
p298
aS','
p299
aS"''"
p300
aS'which'
p301
aS'were'
p302
aS','
p303
aS'perhaps'
p304
aS','
p305
aS'some'
p306
aS'of'
p307
aS'the'
p308
aS'reasons'
p309
aS'she'
p310
aS'had'
p311
aS'never'
p312
aS'met'
p313
aS'him'
p314
aS'.'
p315
asg48
(lp316
VHe
p317
ag132
ag145
aVher
p318
aVhusband
p319
aV's
p320
aVcollege
p321
aVfriend
p322
ag139
ag52
aVnow
p323
ag53
aVjournalist
p324
ag64
aVand
p325
aVin
p326
aVno
p327
aVsense
p328
ag53
aVsociety
p329
aVman
p330
aVor
p331
aV``
p332
ag53
aVman
p333
aVabout
p334
aVtown
p335
ag64
aV''
p336
aVwhich
p337
aVbe
p338
ag64
aVperhaps
p339
ag64
aVsome
p340
aVof
p341
aVthe
p342
aVreason
p343
aVshe
p344
ag132
aVnever
p345
aVmeet
p346
aVhim
p347
ag75
asg76
(lp348
g78
ag78
ag78
ag78
ag78
ag78
ag78
ag78
ag78
ag78
ag78
ag78
ag78
ag78
ag78
ag78
ag78
ag78
ag78
ag78
ag78
ag78
ag78
ag78
ag78
ag78
ag78
ag78
ag78
ag78
ag78
ag78
ag78
ag78
ag78
ag78
ag78
ag78
ag78
ag78
ag78
ag78
ag78
ag78
asg81
(lp349
g160
ag84
ag87
ag91
ag92
aS'POS'
p350
ag92
ag92
ag162
ag84
ag86
ag85
ag92
ag93
ag94
ag90
ag85
ag92
ag85
ag92
ag92
ag94
aS'``'
p351
ag85
ag92
ag90
ag92
ag93
aS"''"
p352
aS'WDT'
p353
ag84
ag93
ag86
ag93
ag85
ag90
ag85
ag163
ag160
ag84
ag86
ag87
ag160
ag96
asg97
VHe had been her husband's college friend; was now a journalist, and in no sense a society man or "a man about town," which were, perhaps, some of the reasons she had never met him.
p354
sba(i__main__
Sentence
p355
(dp356
g17
I5
sg18
(lp357
S'But'
p358
aS'she'
p359
aS'had'
p360
aS'unconsciously'
p361
aS'formed'
p362
aS'an'
p363
aS'image'
p364
aS'of'
p365
aS'him'
p366
aS'in'
p367
aS'her'
p368
aS'mind'
p369
aS'.'
p370
asg48
(lp371
VBut
p372
aVshe
p373
ag132
aVunconsciously
p374
aVform
p375
aVan
p376
aVimage
p377
aVof
p378
aVhim
p379
aVin
p380
aVher
p381
aVmind
p382
ag75
asg76
(lp383
g78
ag78
ag78
ag78
ag78
ag78
ag78
ag78
ag78
ag78
ag78
ag78
ag78
asg81
(lp384
g94
ag160
ag84
ag86
ag87
ag85
ag92
ag90
ag160
ag90
ag91
ag92
ag96
asg97
VBut she had unconsciously formed an image of him in her mind.
p385
sba(i__main__
Sentence
p386
(dp387
g17
I6
sg18
(lp388
S'She'
p389
aS'pictured'
p390
aS'him'
p391
aS'tall'
p392
aS','
p393
aS'slim'
p394
aS','
p395
aS'cynical'
p396
aS';'
p397
aS'with'
p398
aS'eye-glasses'
p399
aS','
p400
aS'and'
p401
aS'his'
p402
aS'hands'
p403
aS'in'
p404
aS'his'
p405
aS'pockets'
p406
aS';'
p407
aS'and'
p408
aS'she'
p409
aS'did'
p410
aS'not'
p411
aS'like'
p412
aS'him'
p413
aS'.'
p414
asg48
(lp415
VShe
p416
aVpicture
p417
aVhim
p418
aVtall
p419
ag64
aVslim
p420
ag64
aVcynical
p421
ag139
aVwith
p422
aVeye-glasses
p423
ag64
aVand
p424
aVhis
p425
aVhand
p426
aVin
p427
aVhis
p428
aVpocket
p429
ag139
aVand
p430
aVshe
p431
aVdo
p432
aVnot
p433
aVlike
p434
aVhim
p435
ag75
asg76
(lp436
g78
ag78
ag78
ag78
ag78
ag78
ag78
ag78
ag78
ag78
ag78
ag78
ag78
ag78
ag78
ag78
ag78
ag78
ag78
ag78
ag78
ag78
ag78
ag78
ag78
ag78
asg81
(lp437
g160
ag84
ag160
aS'MD'
p438
ag93
ag89
ag93
ag161
ag162
ag90
ag163
ag93
ag94
ag91
ag163
ag90
ag91
ag163
ag162
ag94
ag160
ag84
ag86
ag90
ag160
ag96
asg97
VShe pictured him tall, slim, cynical; with eye-glasses, and his hands in his pockets; and she did not like him.
p439
sba(i__main__
Sentence
p440
(dp441
g17
I7
sg18
(lp442
S'Gouvernail'
p443
aS'was'
p444
aS'slim'
p445
aS'enough'
p446
aS','
p447
aS'but'
p448
aS'he'
p449
aS'was'
p450
aS"n't"
p451
aS'very'
p452
aS'tall'
p453
aS'nor'
p454
aS'very'
p455
aS'cynical'
p456
aS';'
p457
aS'neither'
p458
aS'did'
p459
aS'he'
p460
aS'wear'
p461
aS'eyeglasses'
p462
aS'nor'
p463
aS'carry'
p464
aS'his'
p465
aS'hands'
p466
aS'in'
p467
aS'his'
p468
aS'pockets'
p469
aS'.'
p470
asg48
(lp471
VGouvernail
p472
ag52
aVslim
p473
aVenough
p474
ag64
aVbut
p475
aVhe
p476
ag52
aVn't
p477
aVvery
p478
aVtall
p479
aVnor
p480
aVvery
p481
aVcynical
p482
ag139
aVneither
p483
ag432
aVhe
p484
aVwear
p485
aVeyeglass
p486
aVnor
p487
aVcarry
p488
aVhis
p489
aVhand
p490
aVin
p491
aVhis
p492
aVpocket
p493
ag75
asg76
(lp494
VPERSON
p495
ag78
ag78
ag78
ag78
ag78
ag78
ag78
ag78
ag78
ag78
ag78
ag78
ag78
ag78
ag78
ag78
ag78
ag78
ag78
ag78
ag78
ag78
ag78
ag78
ag78
ag78
ag78
asg81
(lp496
g83
ag84
ag160
ag86
ag93
ag94
ag160
ag84
ag86
ag86
ag161
ag94
ag86
ag161
ag162
ag85
ag84
ag160
ag89
ag163
ag94
aS'VBP'
p497
ag91
ag163
ag90
ag91
ag163
ag96
asg97
VGouvernail was slim enough, but he wasn't very tall nor very cynical; neither did he wear eyeglasses nor carry his hands in his pockets.
p498
sba(i__main__
Sentence
p499
(dp500
g17
I8
sg18
(lp501
S'And'
p502
aS'she'
p503
aS'rather'
p504
aS'liked'
p505
aS'him'
p506
aS'when'
p507
aS'he'
p508
aS'first'
p509
aS'presented'
p510
aS'himself'
p511
aS'.'
p512
asg48
(lp513
VAnd
p514
aVshe
p515
aVrather
p516
aVlike
p517
aVhim
p518
aVwhen
p519
aVhe
p520
aVfirst
p521
aVpresent
p522
aVhimself
p523
ag75
asg76
(lp524
g78
ag78
ag78
ag78
ag78
ag78
ag78
ag78
ag78
ag78
ag78
asg81
(lp525
g94
ag160
ag86
ag84
ag160
ag237
ag160
ag86
ag84
ag160
ag96
asg97
VAnd she rather liked him when he first presented himself.
p526
sba(i__main__
Sentence
p527
(dp528
g17
I9
sg18
(lp529
S'But'
p530
aS'why'
p531
aS'she'
p532
aS'liked'
p533
aS'him'
p534
aS'she'
p535
aS'could'
p536
aS'not'
p537
aS'explain'
p538
aS'satisfactorily'
p539
aS'to'
p540
aS'herself'
p541
aS'when'
p542
aS'she'
p543
aS'partly'
p544
aS'attempted'
p545
aS'to'
p546
aS'do'
p547
aS'so'
p548
aS'.'
p549
asg48
(lp550
VBut
p551
aVwhy
p552
aVshe
p553
aVlike
p554
aVhim
p555
aVshe
p556
aVcould
p557
aVnot
p558
aVexplain
p559
aVsatisfactorily
p560
aVto
p561
aVherself
p562
aVwhen
p563
aVshe
p564
aVpartly
p565
aVattempt
p566
aVto
p567
aVdo
p568
aVso
p569
ag75
asg76
(lp570
g78
ag78
ag78
ag78
ag78
ag78
ag78
ag78
ag78
ag78
ag78
ag78
ag78
ag78
ag78
ag78
ag78
ag78
ag78
ag78
asg81
(lp571
g94
ag237
ag160
ag84
ag160
ag160
ag438
ag86
ag89
ag86
ag88
ag160
ag237
ag160
ag86
ag84
ag88
ag89
ag86
ag96
asg97
VBut why she liked him she could not explain satisfactorily to herself when she partly attempted to do so.
p572
sba(i__main__
Sentence
p573
(dp574
g17
I10
sg18
(lp575
S'She'
p576
aS'could'
p577
aS'discover'
p578
aS'in'
p579
aS'him'
p580
aS'none'
p581
aS'of'
p582
aS'those'
p583
aS'brilliant'
p584
aS'and'
p585
aS'promising'
p586
aS'traits'
p587
aS'which'
p588
aS'Gaston'
p589
aS','
p590
aS'her'
p591
aS'husband'
p592
aS','
p593
aS'had'
p594
aS'often'
p595
aS'assured'
p596
aS'her'
p597
aS'that'
p598
aS'he'
p599
aS'possessed'
p600
aS'.'
p601
asg48
(lp602
VShe
p603
aVcould
p604
aVdiscover
p605
aVin
p606
aVhim
p607
aVnone
p608
aVof
p609
aVthose
p610
aVbrilliant
p611
aVand
p612
aVpromising
p613
aVtrait
p614
aVwhich
p615
aVGaston
p616
ag64
aVher
p617
aVhusband
p618
ag64
ag132
aVoften
p619
aVassure
p620
aVher
p621
aVthat
p622
aVhe
p623
aVpossess
p624
ag75
asg76
(lp625
g78
ag78
ag78
ag78
ag78
ag78
ag78
ag78
ag78
ag78
ag78
ag78
ag78
aVPERSON
p626
ag78
ag78
ag78
ag78
ag78
ag78
ag78
ag78
ag78
ag78
ag78
ag78
asg81
(lp627
g160
ag438
ag89
ag90
ag160
ag92
ag90
ag85
ag161
ag94
ag161
ag163
ag353
ag83
ag93
ag91
ag92
ag93
ag84
ag86
ag87
ag91
ag90
ag160
ag84
ag96
asg97
VShe could discover in him none of those brilliant and promising traits which Gaston, her husband, had often assured her that he possessed.
p628
sba(i__main__
Sentence
p629
(dp630
g17
I11
sg18
(lp631
S'On'
p632
aS'the'
p633
aS'contrary'
p634
aS','
p635
aS'he'
p636
aS'sat'
p637
aS'rather'
p638
aS'mute'
p639
aS'and'
p640
aS'receptive'
p641
aS'before'
p642
aS'her'
p643
aS'chatty'
p644
aS'eagerness'
p645
aS'to'
p646
aS'make'
p647
aS'him'
p648
aS'feel'
p649
aS'at'
p650
aS'home'
p651
aS'and'
p652
aS'in'
p653
aS'face'
p654
aS'of'
p655
aS'Gaston'
p656
aS"'s"
p657
aS'frank'
p658
aS'and'
p659
aS'wordy'
p660
aS'hospitality'
p661
aS'.'
p662
asg48
(lp663
VOn
p664
aVthe
p665
aVcontrary
p666
ag64
aVhe
p667
aVsit
p668
aVrather
p669
aVmute
p670
aVand
p671
aVreceptive
p672
aVbefore
p673
aVher
p674
aVchatty
p675
aVeagerness
p676
aVto
p677
aVmake
p678
aVhim
p679
aVfeel
p680
aVat
p681
aVhome
p682
aVand
p683
aVin
p684
aVface
p685
aVof
p686
aVGaston
p687
aV's
p688
aVfrank
p689
aVand
p690
aVwordy
p691
aVhospitality
p692
ag75
asg76
(lp693
g78
ag78
ag78
ag78
ag78
ag78
ag78
ag78
ag78
ag78
ag78
ag78
ag78
ag78
ag78
ag78
ag78
ag78
ag78
ag78
ag78
ag78
ag78
ag78
aVPERSON
p694
ag78
ag78
ag78
ag78
ag78
ag78
asg81
(lp695
g90
ag85
ag92
ag93
ag160
ag84
ag86
ag161
ag94
ag161
ag90
ag91
ag92
ag92
ag88
ag89
ag160
ag89
ag90
ag92
ag94
ag90
ag92
ag90
ag83
ag350
ag92
ag94
ag92
ag92
ag96
asg97
VOn the contrary, he sat rather mute and receptive before her chatty eagerness to make him feel at home and in face of Gaston's frank and wordy hospitality.
p696
sba(i__main__
Sentence
p697
(dp698
g17
I12
sg18
(lp699
S'His'
p700
aS'manner'
p701
aS'was'
p702
aS'as'
p703
aS'courteous'
p704
aS'toward'
p705
aS'her'
p706
aS'as'
p707
aS'the'
p708
aS'most'
p709
aS'exacting'
p710
aS'woman'
p711
aS'could'
p712
aS'require'
p713
aS';'
p714
aS'but'
p715
aS'he'
p716
aS'made'
p717
aS'no'
p718
aS'direct'
p719
aS'appeal'
p720
aS'to'
p721
aS'her'
p722
aS'approval'
p723
aS'or'
p724
aS'even'
p725
aS'esteem'
p726
aS'.'
p727
asg48
(lp728
VHis
p729
aVmanner
p730
ag52
ag53
aVcourteous
p731
aVtoward
p732
aVher
p733
ag53
aVthe
p734
aVmost
p735
aVexact
p736
aVwoman
p737
aVcould
p738
aVrequire
p739
ag139
aVbut
p740
aVhe
p741
aVmake
p742
aVno
p743
aVdirect
p744
aVappeal
p745
aVto
p746
aVher
p747
aVapproval
p748
aVor
p749
aVeven
p750
aVesteem
p751
ag75
asg76
(lp752
g78
ag78
ag78
ag78
ag78
ag78
ag78
ag78
ag78
ag78
ag78
ag78
ag78
ag78
ag78
ag78
ag78
ag78
ag78
ag78
ag78
ag78
ag78
ag78
ag78
ag78
ag78
ag78
asg81
(lp753
g91
ag92
ag84
ag90
ag161
ag92
ag160
ag90
ag85
aS'RBS'
p754
ag236
ag92
ag438
ag89
ag162
ag94
ag160
ag84
ag85
ag161
ag92
ag88
ag91
ag92
ag94
ag86
ag497
ag96
asg97
VHis manner was as courteous toward her as the most exacting woman could require; but he made no direct appeal to her approval or even esteem.
p755
sba(i__main__
Sentence
p756
(dp757
g17
I13
sg18
(lp758
S'Once'
p759
aS'settled'
p760
aS'at'
p761
aS'the'
p762
aS'plantation'
p763
aS'he'
p764
aS'seemed'
p765
aS'to'
p766
aS'like'
p767
aS'to'
p768
aS'sit'
p769
aS'upon'
p770
aS'the'
p771
aS'wide'
p772
aS'portico'
p773
aS'in'
p774
aS'the'
p775
aS'shade'
p776
aS'of'
p777
aS'one'
p778
aS'of'
p779
aS'the'
p780
aS'big'
p781
aS'Corinthian'
p782
aS'pillars'
p783
aS','
p784
aS'smoking'
p785
aS'his'
p786
aS'cigar'
p787
aS'lazily'
p788
aS'and'
p789
aS'listening'
p790
aS'attentively'
p791
aS'to'
p792
aS'Gaston'
p793
aS"'s"
p794
aS'experience'
p795
aS'as'
p796
aS'a'
p797
aS'sugar'
p798
aS'planter'
p799
aS'.'
p800
asg48
(lp801
VOnce
p802
aVsettle
p803
aVat
p804
aVthe
p805
aVplantation
p806
aVhe
p807
aVseem
p808
aVto
p809
aVlike
p810
aVto
p811
aVsit
p812
aVupon
p813
aVthe
p814
aVwide
p815
aVportico
p816
aVin
p817
aVthe
p818
aVshade
p819
aVof
p820
aVone
p821
aVof
p822
aVthe
p823
aVbig
p824
aVCorinthian
p825
aVpillar
p826
ag64
aVsmoke
p827
aVhis
p828
aVcigar
p829
aVlazily
p830
aVand
p831
aVlisten
p832
aVattentively
p833
aVto
p834
aVGaston
p835
aV's
p836
aVexperience
p837
ag53
ag53
aVsugar
p838
aVplanter
p839
ag75
asg76
(lp840
g78
ag78
ag78
ag78
ag78
ag78
ag78
ag78
ag78
ag78
ag78
ag78
ag78
ag78
ag78
ag78
ag78
ag78
ag78
ag78
ag78
ag78
ag78
ag78
ag78
ag78
ag78
ag78
ag78
ag78
ag78
ag78
ag78
ag78
aVPERSON
p841
ag78
ag78
ag78
ag78
ag78
ag78
ag78
asg81
(lp842
g86
ag84
ag90
ag85
ag92
ag160
ag84
ag88
ag89
ag88
ag89
ag90
ag85
ag161
ag92
ag90
ag85
ag92
ag90
ag95
ag90
ag85
ag161
ag161
ag163
ag93
ag236
ag91
ag92
ag86
ag94
ag236
ag86
ag88
ag83
ag350
ag92
ag90
ag85
ag92
ag92
ag96
asg97
VOnce settled at the plantation he seemed to like to sit upon the wide portico in the shade of one of the big Corinthian pillars, smoking his cigar lazily and listening attentively to Gaston's experience as a sugar planter.
p843
sba(i__main__
Sentence
p844
(dp845
g17
I14
sg18
(lp846
S'``'
p847
aS'This'
p848
aS'is'
p849
aS'what'
p850
aS'I'
p851
aS'call'
p852
aS'living'
p853
aS','
p854
aS"''"
p855
aS'he'
p856
aS'would'
p857
aS'utter'
p858
aS'with'
p859
aS'deep'
p860
aS'satisfaction'
p861
aS','
p862
aS'as'
p863
aS'the'
p864
aS'air'
p865
aS'that'
p866
aS'swept'
p867
aS'across'
p868
aS'the'
p869
aS'sugar'
p870
aS'field'
p871
aS'caressed'
p872
aS'him'
p873
aS'with'
p874
aS'its'
p875
aS'warm'
p876
aS'and'
p877
aS'scented'
p878
aS'velvety'
p879
aS'touch'
p880
aS'.'
p881
asg48
(lp882
V``
p883
aVThis
p884
aVbe
p885
aVwhat
p886
aVI
p887
aVcall
p888
aVlive
p889
ag64
aV''
p890
aVhe
p891
aVwould
p892
aVutter
p893
aVwith
p894
aVdeep
p895
aVsatisfaction
p896
ag64
ag53
aVthe
p897
aVair
p898
aVthat
p899
aVswept
p900
aVacross
p901
aVthe
p902
aVsugar
p903
aVfield
p904
aVcaress
p905
aVhim
p906
aVwith
p907
aVit
p908
aVwarm
p909
aVand
p910
aVscent
p911
aVvelvety
p912
aVtouch
p913
ag75
asg76
(lp914
g78
ag78
ag78
ag78
ag78
ag78
ag78
ag78
ag78
ag78
ag78
ag78
ag78
ag78
ag78
ag78
ag78
ag78
ag78
ag78
ag78
ag78
ag78
ag78
ag78
ag78
ag78
ag78
ag78
ag78
ag78
ag78
ag78
ag78
ag78
asg81
(lp915
g351
ag85
aS'VBZ'
p916
aS'WP'
p917
ag160
ag497
ag236
ag93
ag352
ag160
ag438
ag89
ag90
ag92
ag92
ag93
ag90
ag85
ag92
ag90
ag92
ag90
ag85
ag92
ag92
ag84
ag160
ag90
ag91
ag92
ag94
ag84
ag92
ag92
ag96
asg97
V"This is what I call living," he would utter with deep satisfaction, as the air that swept across the sugar field caressed him with its warm and scented velvety touch.
p918
sba(i__main__
Sentence
p919
(dp920
g17
I15
sg18
(lp921
S'It'
p922
aS'pleased'
p923
aS'him'
p924
aS'also'
p925
aS'to'
p926
aS'get'
p927
aS'on'
p928
aS'familiar'
p929
aS'terms'
p930
aS'with'
p931
aS'the'
p932
aS'big'
p933
aS'dogs'
p934
aS'that'
p935
aS'came'
p936
aS'about'
p937
aS'him'
p938
aS','
p939
aS'rubbing'
p940
aS'themselves'
p941
aS'sociably'
p942
aS'against'
p943
aS'his'
p944
aS'legs'
p945
aS'.'
p946
asg48
(lp947
VIt
p948
aVplease
p949
aVhim
p950
aValso
p951
aVto
p952
aVget
p953
aVon
p954
aVfamiliar
p955
aVterm
p956
aVwith
p957
aVthe
p958
aVbig
p959
aVdog
p960
aVthat
p961
aVcome
p962
aVabout
p963
aVhim
p964
ag64
aVrub
p965
aVthemselves
p966
aVsociably
p967
aVagainst
p968
aVhis
p969
aVleg
p970
ag75
asg76
(lp971
g78
ag78
ag78
ag78
ag78
ag78
ag78
ag78
ag78
ag78
ag78
ag78
ag78
ag78
ag78
ag78
ag78
ag78
ag78
ag78
ag78
ag78
ag78
ag78
ag78
asg81
(lp972
g160
ag84
ag160
ag86
ag88
ag89
ag90
ag161
ag163
ag90
ag85
ag161
ag163
ag353
ag84
ag86
ag160
ag93
ag236
ag160
ag86
ag90
ag91
ag163
ag96
asg97
VIt pleased him also to get on familiar terms with the big dogs that came about him, rubbing themselves sociably against his legs.
p973
sba(i__main__
Sentence
p974
(dp975
g17
I16
sg18
(lp976
S'He'
p977
aS'did'
p978
aS'not'
p979
aS'care'
p980
aS'to'
p981
aS'fish'
p982
aS','
p983
aS'and'
p984
aS'displayed'
p985
aS'no'
p986
aS'eagerness'
p987
aS'to'
p988
aS'go'
p989
aS'out'
p990
aS'and'
p991
aS'kill'
p992
aS'grosbecs'
p993
aS'when'
p994
aS'Gaston'
p995
aS'proposed'
p996
aS'doing'
p997
aS'so'
p998
aS'.'
p999
asg48
(lp1000
VHe
p1001
ag432
aVnot
p1002
aVcare
p1003
aVto
p1004
aVfish
p1005
ag64
aVand
p1006
aVdisplay
p1007
aVno
p1008
aVeagerness
p1009
aVto
p1010
aVgo
p1011
aVout
p1012
aVand
p1013
aVkill
p1014
aVgrosbecs
p1015
aVwhen
p1016
aVGaston
p1017
aVpropose
p1018
aVdo
p1019
aVso
p1020
ag75
asg76
(lp1021
g78
ag78
ag78
ag78
ag78
ag78
ag78
ag78
ag78
ag78
ag78
ag78
ag78
ag78
ag78
ag78
ag78
ag78
aVPERSON
p1022
ag78
ag78
ag78
ag78
asg81
(lp1023
g160
ag84
ag86
ag89
ag88
ag89
ag93
ag94
ag84
ag85
ag92
ag88
ag89
ag238
ag94
ag86
ag163
ag237
ag83
ag84
ag236
ag86
ag96
asg97
VHe did not care to fish, and displayed no eagerness to go out and kill grosbecs when Gaston proposed doing so.
p1024
sba(i__main__
Sentence
p1025
(dp1026
g17
I17
sg18
(lp1027
S'Gouvernail'
p1028
aS"'s"
p1029
aS'personality'
p1030
aS'puzzled'
p1031
aS'Mrs.'
p1032
aS'Baroda'
p1033
aS','
p1034
aS'but'
p1035
aS'she'
p1036
aS'liked'
p1037
aS'him'
p1038
aS'.'
p1039
asg48
(lp1040
VGouvernail
p1041
aV's
p1042
aVpersonality
p1043
aVpuzzle
p1044
aVMrs.
p1045
aVBaroda
p1046
ag64
aVbut
p1047
aVshe
p1048
aVlike
p1049
aVhim
p1050
ag75
asg76
(lp1051
VPERSON
p1052
ag78
ag78
ag78
ag78
aVPERSON
p1053
ag78
ag78
ag78
ag78
ag78
ag78
asg81
(lp1054
g83
ag350
ag92
ag84
ag83
ag83
ag93
ag94
ag160
ag84
ag160
ag96
asg97
VGouvernail's personality puzzled Mrs. Baroda, but she liked him.
p1055
sba(i__main__
Sentence
p1056
(dp1057
g17
I18
sg18
(lp1058
S'Indeed'
p1059
aS','
p1060
aS'he'
p1061
aS'was'
p1062
aS'a'
p1063
aS'lovable'
p1064
aS','
p1065
aS'inoffensive'
p1066
aS'fellow'
p1067
aS'.'
p1068
asg48
(lp1069
VIndeed
p1070
ag64
aVhe
p1071
ag52
ag53
aVlovable
p1072
ag64
aVinoffensive
p1073
aVfellow
p1074
ag75
asg76
(lp1075
g78
ag78
ag78
ag78
ag78
ag78
ag78
ag78
ag78
ag78
asg81
(lp1076
g86
ag93
ag160
ag84
ag85
ag161
ag93
ag161
ag92
ag96
asg97
VIndeed, he was a lovable, inoffensive fellow.
p1077
sba(i__main__
Sentence
p1078
(dp1079
g17
I19
sg18
(lp1080
S'After'
p1081
aS'a'
p1082
aS'few'
p1083
aS'days'
p1084
aS','
p1085
aS'when'
p1086
aS'she'
p1087
aS'could'
p1088
aS'understand'
p1089
aS'him'
p1090
aS'no'
p1091
aS'better'
p1092
aS'than'
p1093
aS'at'
p1094
aS'first'
p1095
aS','
p1096
aS'she'
p1097
aS'gave'
p1098
aS'over'
p1099
aS'being'
p1100
aS'puzzled'
p1101
aS'and'
p1102
aS'remained'
p1103
aS'piqued'
p1104
aS'.'
p1105
asg48
(lp1106
VAfter
p1107
ag53
aVfew
p1108
aVday
p1109
ag64
aVwhen
p1110
aVshe
p1111
aVcould
p1112
aVunderstand
p1113
aVhim
p1114
aVno
p1115
aVgood
p1116
aVthan
p1117
aVat
p1118
aVfirst
p1119
ag64
aVshe
p1120
aVgive
p1121
aVover
p1122
aVbe
p1123
aVpuzzle
p1124
aVand
p1125
aVremain
p1126
aVpique
p1127
ag75
asg76
(lp1128
g78
ag78
ag78
ag78
ag78
ag78
ag78
ag78
ag78
ag78
ag78
ag78
ag78
ag78
ag78
ag78
ag78
ag78
ag78
ag78
ag78
ag78
ag78
ag78
ag78
asg81
(lp1129
g90
ag85
ag161
ag163
ag93
ag237
ag160
ag438
ag89
ag160
ag85
aS'JJR'
p1130
ag90
ag90
ag161
ag93
ag160
ag84
ag238
ag236
ag87
ag94
ag84
ag87
ag96
asg97
VAfter a few days, when she could understand him no better than at first, she gave over being puzzled and remained piqued.
p1131
sba(i__main__
Sentence
p1132
(dp1133
g17
I20
sg18
(lp1134
S'In'
p1135
aS'this'
p1136
aS'mood'
p1137
aS'she'
p1138
aS'left'
p1139
aS'her'
p1140
aS'husband'
p1141
aS'and'
p1142
aS'her'
p1143
aS'guest'
p1144
aS','
p1145
aS'for'
p1146
aS'the'
p1147
aS'most'
p1148
aS'part'
p1149
aS','
p1150
aS'alone'
p1151
aS'together'
p1152
aS'.'
p1153
asg48
(lp1154
VIn
p1155
aVthis
p1156
aVmood
p1157
aVshe
p1158
aVleave
p1159
aVher
p1160
aVhusband
p1161
aVand
p1162
aVher
p1163
aVguest
p1164
ag64
aVfor
p1165
aVthe
p1166
aVmost
p1167
aVpart
p1168
ag64
aValone
p1169
aVtogether
p1170
ag75
asg76
(lp1171
g78
ag78
ag78
ag78
ag78
ag78
ag78
ag78
ag78
ag78
ag78
ag78
ag78
ag78
ag78
ag78
ag78
ag78
ag78
asg81
(lp1172
g90
ag85
ag92
ag160
ag84
ag91
ag92
ag94
ag91
ag92
ag93
ag90
ag85
aS'JJS'
p1173
ag92
ag93
ag86
ag86
ag96
asg97
VIn this mood she left her husband and her guest, for the most part, alone together.
p1174
sba(i__main__
Sentence
p1175
(dp1176
g17
I21
sg18
(lp1177
S'Then'
p1178
aS'finding'
p1179
aS'that'
p1180
aS'Gouvernail'
p1181
aS'took'
p1182
aS'no'
p1183
aS'manner'
p1184
aS'of'
p1185
aS'exception'
p1186
aS'to'
p1187
aS'her'
p1188
aS'action'
p1189
aS','
p1190
aS'she'
p1191
aS'imposed'
p1192
aS'her'
p1193
aS'society'
p1194
aS'upon'
p1195
aS'him'
p1196
aS','
p1197
aS'accompanying'
p1198
aS'him'
p1199
aS'in'
p1200
aS'his'
p1201
aS'idle'
p1202
aS'strolls'
p1203
aS'to'
p1204
aS'the'
p1205
aS'mill'
p1206
aS'and'
p1207
aS'walks'
p1208
aS'along'
p1209
aS'the'
p1210
aS'batture'
p1211
aS'.'
p1212
asg48
(lp1213
VThen
p1214
aVfind
p1215
aVthat
p1216
aVGouvernail
p1217
aVtake
p1218
aVno
p1219
aVmanner
p1220
aVof
p1221
aVexception
p1222
aVto
p1223
aVher
p1224
aVaction
p1225
ag64
aVshe
p1226
aVimpose
p1227
aVher
p1228
aVsociety
p1229
aVupon
p1230
aVhim
p1231
ag64
aVaccompany
p1232
aVhim
p1233
aVin
p1234
aVhis
p1235
aVidle
p1236
aVstroll
p1237
aVto
p1238
aVthe
p1239
aVmill
p1240
aVand
p1241
aVwalk
p1242
aValong
p1243
aVthe
p1244
aVbatture
p1245
ag75
asg76
(lp1246
g78
ag78
ag78
aVPERSON
p1247
ag78
ag78
ag78
ag78
ag78
ag78
ag78
ag78
ag78
ag78
ag78
ag78
ag78
ag78
ag78
ag78
ag78
ag78
ag78
ag78
ag78
ag78
ag78
ag78
ag78
ag78
ag78
ag78
ag78
ag78
ag78
asg81
(lp1248
g86
ag236
ag90
ag83
ag84
ag85
ag92
ag90
ag92
ag88
ag91
ag92
ag93
ag160
ag84
ag91
ag92
ag90
ag160
ag93
ag236
ag160
ag90
ag91
ag92
ag163
ag88
ag85
ag92
ag94
ag163
ag90
ag85
ag92
ag96
asg97
VThen finding that Gouvernail took no manner of exception to her action, she imposed her society upon him, accompanying him in his idle strolls to the mill and walks along the batture.
p1249
sba(i__main__
Sentence
p1250
(dp1251
g17
I22
sg18
(lp1252
S'She'
p1253
aS'persistently'
p1254
aS'sought'
p1255
aS'to'
p1256
aS'penetrate'
p1257
aS'the'
p1258
aS'reserve'
p1259
aS'in'
p1260
aS'which'
p1261
aS'he'
p1262
aS'had'
p1263
aS'unconsciously'
p1264
aS'enveloped'
p1265
aS'himself'
p1266
aS'.'
p1267
asg48
(lp1268
VShe
p1269
aVpersistently
p1270
aVseek
p1271
aVto
p1272
aVpenetrate
p1273
aVthe
p1274
aVreserve
p1275
aVin
p1276
aVwhich
p1277
aVhe
p1278
ag132
aVunconsciously
p1279
aVenvelop
p1280
aVhimself
p1281
ag75
asg76
(lp1282
g78
ag78
ag78
ag78
ag78
ag78
ag78
ag78
ag78
ag78
ag78
ag78
ag78
ag78
ag78
asg81
(lp1283
g160
ag86
ag84
ag88
ag89
ag85
ag92
ag90
ag353
ag160
ag84
ag86
ag87
ag160
ag96
asg97
VShe persistently sought to penetrate the reserve in which he had unconsciously enveloped himself.
p1284
sba(i__main__
Sentence
p1285
(dp1286
g17
I23
sg18
(lp1287
S'``'
p1288
aS'When'
p1289
aS'is'
p1290
aS'he'
p1291
aS'going'
p1292
aS'--'
p1293
aS'your'
p1294
aS'friend'
p1295
aS'?'
p1296
aS"''"
p1297
asg48
(lp1298
V``
p1299
aVWhen
p1300
ag885
aVhe
p1301
aVgo
p1302
aV--
p1303
aVyour
p1304
aVfriend
p1305
aV?
p1306
aV''
p1307
asg76
(lp1308
g78
ag78
ag78
ag78
ag78
ag78
ag78
ag78
ag78
ag78
asg81
(lp1309
g351
ag237
ag916
ag160
ag236
ag162
ag91
ag92
ag96
ag352
asg97
V"When is he going--your friend?"
p1310
sba(i__main__
Sentence
p1311
(dp1312
g17
I24
sg18
(lp1313
S'she'
p1314
aS'one'
p1315
aS'day'
p1316
aS'asked'
p1317
aS'her'
p1318
aS'husband'
p1319
aS'.'
p1320
asg48
(lp1321
Vshe
p1322
aVone
p1323
aVday
p1324
aVask
p1325
aVher
p1326
aVhusband
p1327
ag75
asg76
(lp1328
g78
ag78
ag78
ag78
ag78
ag78
ag78
asg81
(lp1329
g160
ag95
ag92
ag84
ag160
ag497
ag96
asg97
Vshe one day asked her husband.
p1330
sba(i__main__
Sentence
p1331
(dp1332
g17
I25
sg18
(lp1333
S'``'
p1334
aS'For'
p1335
aS'my'
p1336
aS'part'
p1337
aS','
p1338
aS'he'
p1339
aS'tires'
p1340
aS'me'
p1341
aS'frightfully'
p1342
aS'.'
p1343
aS"''"
p1344
asg48
(lp1345
V``
p1346
aVFor
p1347
aVmy
p1348
aVpart
p1349
ag64
aVhe
p1350
aVtire
p1351
aVme
p1352
aVfrightfully
p1353
ag75
aV''
p1354
asg76
(lp1355
g78
ag78
ag78
ag78
ag78
ag78
ag78
ag78
ag78
ag78
ag78
asg81
(lp1356
g351
ag90
ag91
ag92
ag93
ag160
ag916
ag160
ag86
ag96
ag352
asg97
V"For my part, he tires me frightfully."
p1357
sba(i__main__
Sentence
p1358
(dp1359
g17
I26
sg18
(lp1360
S'``'
p1361
aS'Not'
p1362
aS'for'
p1363
aS'a'
p1364
aS'week'
p1365
aS'yet'
p1366
aS','
p1367
aS'dear'
p1368
aS'.'
p1369
asg48
(lp1370
V``
p1371
aVNot
p1372
aVfor
p1373
ag53
aVweek
p1374
aVyet
p1375
ag64
aVdear
p1376
ag75
asg76
(lp1377
g78
ag78
ag78
ag78
ag78
ag78
ag78
ag78
ag78
asg81
(lp1378
g351
ag86
ag90
ag85
ag92
ag86
ag93
ag161
ag96
asg97
V"Not for a week yet, dear.
p1379
sba(i__main__
Sentence
p1380
(dp1381
g17
I27
sg18
(lp1382
S'I'
p1383
aS'ca'
p1384
aS"n't"
p1385
aS'understand'
p1386
aS';'
p1387
aS'he'
p1388
aS'gives'
p1389
aS'you'
p1390
aS'no'
p1391
aS'trouble'
p1392
aS'.'
p1393
aS"''"
p1394
asg48
(lp1395
g887
aVca
p1396
aVn't
p1397
aVunderstand
p1398
ag139
aVhe
p1399
aVgive
p1400
aVyou
p1401
aVno
p1402
aVtrouble
p1403
ag75
aV''
p1404
asg76
(lp1405
g78
ag78
ag78
ag78
ag78
ag78
ag78
ag78
ag78
ag78
ag78
ag78
asg81
(lp1406
g160
ag438
ag86
ag89
ag162
ag160
ag916
ag160
ag85
ag92
ag96
ag352
asg97
VI can't understand; he gives you no trouble."
p1407
sba(i__main__
Sentence
p1408
(dp1409
g17
I28
sg18
(lp1410
S'``'
p1411
aS'No'
p1412
aS'.'
p1413
asg48
(lp1414
V``
p1415
aVNo
p1416
ag75
asg76
(lp1417
g78
ag78
ag78
asg81
(lp1418
g351
ag85
ag96
asg97
V"No.
p1419
sba(i__main__
Sentence
p1420
(dp1421
g17
I29
sg18
(lp1422
S'I'
p1423
aS'should'
p1424
aS'like'
p1425
aS'him'
p1426
aS'better'
p1427
aS'if'
p1428
aS'he'
p1429
aS'did'
p1430
aS';'
p1431
aS'if'
p1432
aS'he'
p1433
aS'were'
p1434
aS'more'
p1435
aS'like'
p1436
aS'others'
p1437
aS','
p1438
aS'and'
p1439
aS'I'
p1440
aS'had'
p1441
aS'to'
p1442
aS'plan'
p1443
aS'somewhat'
p1444
aS'for'
p1445
aS'his'
p1446
aS'comfort'
p1447
aS'and'
p1448
aS'enjoyment'
p1449
aS'.'
p1450
aS"''"
p1451
asg48
(lp1452
g887
aVshould
p1453
aVlike
p1454
aVhim
p1455
ag1116
aVif
p1456
aVhe
p1457
ag432
ag139
aVif
p1458
aVhe
p1459
ag338
aVmore
p1460
aVlike
p1461
aVothers
p1462
ag64
aVand
p1463
ag887
ag132
aVto
p1464
aVplan
p1465
aVsomewhat
p1466
aVfor
p1467
aVhis
p1468
aVcomfort
p1469
aVand
p1470
aVenjoyment
p1471
ag75
aV''
p1472
asg76
(lp1473
g78
ag78
ag78
ag78
ag78
ag78
ag78
ag78
ag78
ag78
ag78
ag78
ag78
ag78
ag78
ag78
ag78
ag78
ag78
ag78
ag78
ag78
ag78
ag78
ag78
ag78
ag78
ag78
ag78
asg81
(lp1474
g160
ag438
ag89
ag160
ag1130
ag90
ag160
ag84
ag162
ag90
ag160
ag84
ag1130
ag90
ag163
ag93
ag94
ag160
ag84
ag88
ag92
ag86
ag90
ag91
ag92
ag94
ag92
ag96
ag352
asg97
VI should like him better if he did; if he were more like others, and I had to plan somewhat for his comfort and enjoyment."
p1475
sba(i__main__
Sentence
p1476
(dp1477
g17
I30
sg18
(lp1478
S'Gaston'
p1479
aS'took'
p1480
aS'his'
p1481
aS'wife'
p1482
aS"'s"
p1483
aS'pretty'
p1484
aS'face'
p1485
aS'between'
p1486
aS'his'
p1487
aS'hands'
p1488
aS'and'
p1489
aS'looked'
p1490
aS'tenderly'
p1491
aS'and'
p1492
aS'laughingly'
p1493
aS'into'
p1494
aS'her'
p1495
aS'troubled'
p1496
aS'eyes'
p1497
aS'.'
p1498
asg48
(lp1499
VGaston
p1500
ag1218
aVhis
p1501
aVwife
p1502
aV's
p1503
aVpretty
p1504
aVface
p1505
aVbetween
p1506
aVhis
p1507
aVhand
p1508
aVand
p1509
aVlook
p1510
aVtenderly
p1511
aVand
p1512
aVlaughingly
p1513
aVinto
p1514
aVher
p1515
aVtroubled
p1516
aVeye
p1517
ag75
asg76
(lp1518
VPERSON
p1519
ag78
ag78
ag78
ag78
ag78
ag78
ag78
ag78
ag78
ag78
ag78
ag78
ag78
ag78
ag78
ag78
ag78
ag78
ag78
asg81
(lp1520
g83
ag84
ag91
ag92
ag350
ag86
ag92
ag90
ag91
ag163
ag94
ag84
ag86
ag94
ag86
ag90
ag91
ag161
ag163
ag96
asg97
VGaston took his wife's pretty face between his hands and looked tenderly and laughingly into her troubled eyes.
p1521
sba(i__main__
Sentence
p1522
(dp1523
g17
I31
sg18
(lp1524
S'They'
p1525
aS'were'
p1526
aS'making'
p1527
aS'a'
p1528
aS'bit'
p1529
aS'of'
p1530
aS'toilet'
p1531
aS'sociably'
p1532
aS'together'
p1533
aS'in'
p1534
aS'Mrs.'
p1535
aS'Baroda'
p1536
aS"'s"
p1537
aS'dressing-room'
p1538
aS'.'
p1539
asg48
(lp1540
VThey
p1541
ag338
aVmake
p1542
ag53
aVbit
p1543
aVof
p1544
aVtoilet
p1545
aVsociably
p1546
aVtogether
p1547
aVin
p1548
aVMrs.
p1549
aVBaroda
p1550
aV's
p1551
aVdressing-room
p1552
ag75
asg76
(lp1553
g78
ag78
ag78
ag78
ag78
ag78
ag78
ag78
ag78
ag78
ag78
aVPERSON
p1554
ag78
ag78
ag78
asg81
(lp1555
g160
ag84
ag236
ag85
ag92
ag90
ag92
ag86
ag86
ag90
ag83
ag83
ag350
ag161
ag96
asg97
VThey were making a bit of toilet sociably together in Mrs. Baroda's dressing-room.
p1556
sba(i__main__
Sentence
p1557
(dp1558
g17
I32
sg18
(lp1559
S'``'
p1560
aS'You'
p1561
aS'are'
p1562
aS'full'
p1563
aS'of'
p1564
aS'surprises'
p1565
aS','
p1566
aS'ma'
p1567
aS'belle'
p1568
aS','
p1569
aS"''"
p1570
aS'he'
p1571
aS'said'
p1572
aS'to'
p1573
aS'her'
p1574
aS'.'
p1575
asg48
(lp1576
V``
p1577
aVYou
p1578
aVbe
p1579
aVfull
p1580
aVof
p1581
aVsurprise
p1582
ag64
aVma
p1583
aVbelle
p1584
ag64
aV''
p1585
aVhe
p1586
aVsay
p1587
aVto
p1588
aVher
p1589
ag75
asg76
(lp1590
g78
ag78
ag78
ag78
ag78
ag78
ag78
ag78
ag78
ag78
ag78
ag78
ag78
ag78
ag78
ag78
asg81
(lp1591
g351
ag160
ag497
ag161
ag90
ag163
ag93
ag92
ag92
ag93
ag352
ag160
ag84
ag88
ag91
ag96
asg97
V"You are full of surprises, ma belle," he said to her.
p1592
sba(i__main__
Sentence
p1593
(dp1594
g17
I33
sg18
(lp1595
S'``'
p1596
aS'Even'
p1597
aS'I'
p1598
aS'can'
p1599
aS'never'
p1600
aS'count'
p1601
aS'upon'
p1602
aS'how'
p1603
aS'you'
p1604
aS'are'
p1605
aS'going'
p1606
aS'to'
p1607
aS'act'
p1608
aS'under'
p1609
aS'given'
p1610
aS'conditions'
p1611
aS'.'
p1612
aS"''"
p1613
asg48
(lp1614
V``
p1615
aVEven
p1616
ag887
aVcan
p1617
aVnever
p1618
aVcount
p1619
aVupon
p1620
aVhow
p1621
aVyou
p1622
ag1579
aVgo
p1623
aVto
p1624
aVact
p1625
aVunder
p1626
aVgive
p1627
aVcondition
p1628
ag75
aV''
p1629
asg76
(lp1630
g78
ag78
ag78
ag78
ag78
ag78
ag78
ag78
ag78
ag78
ag78
ag78
ag78
ag78
ag78
ag78
ag78
ag78
asg81
(lp1631
g351
ag86
ag160
ag438
ag86
ag89
ag90
ag237
ag160
ag497
ag236
ag88
ag89
ag90
ag87
ag163
ag96
ag352
asg97
V"Even I can never count upon how you are going to act under given conditions."
p1632
sba(i__main__
Sentence
p1633
(dp1634
g17
I34
sg18
(lp1635
S'He'
p1636
aS'kissed'
p1637
aS'her'
p1638
aS'and'
p1639
aS'turned'
p1640
aS'to'
p1641
aS'fasten'
p1642
aS'his'
p1643
aS'cravat'
p1644
aS'before'
p1645
aS'the'
p1646
aS'mirror'
p1647
aS'.'
p1648
asg48
(lp1649
VHe
p1650
aVkiss
p1651
aVher
p1652
aVand
p1653
aVturn
p1654
aVto
p1655
aVfasten
p1656
aVhis
p1657
aVcravat
p1658
aVbefore
p1659
aVthe
p1660
aVmirror
p1661
ag75
asg76
(lp1662
g78
ag78
ag78
ag78
ag78
ag78
ag78
ag78
ag78
ag78
ag78
ag78
ag78
asg81
(lp1663
g160
ag84
ag160
ag94
ag84
ag88
ag89
ag91
ag92
ag90
ag85
ag92
ag96
asg97
VHe kissed her and turned to fasten his cravat before the mirror.
p1664
sba(i__main__
Sentence
p1665
(dp1666
g17
I35
sg18
(lp1667
S'``'
p1668
aS'Here'
p1669
aS'you'
p1670
aS'are'
p1671
aS','
p1672
aS"''"
p1673
aS'he'
p1674
aS'went'
p1675
aS'on'
p1676
aS','
p1677
aS'``'
p1678
aS'taking'
p1679
aS'poor'
p1680
aS'Gouvernail'
p1681
aS'seriously'
p1682
aS'and'
p1683
aS'making'
p1684
aS'a'
p1685
aS'commotion'
p1686
aS'over'
p1687
aS'him'
p1688
aS','
p1689
aS'the'
p1690
aS'last'
p1691
aS'thing'
p1692
aS'he'
p1693
aS'would'
p1694
aS'desire'
p1695
aS'or'
p1696
aS'expect'
p1697
aS'.'
p1698
aS"''"
p1699
asg48
(lp1700
V``
p1701
aVHere
p1702
aVyou
p1703
ag1579
ag64
aV''
p1704
aVhe
p1705
aVgo
p1706
aVon
p1707
ag64
aV``
p1708
aVtake
p1709
aVpoor
p1710
aVGouvernail
p1711
aVseriously
p1712
aVand
p1713
aVmake
p1714
ag53
aVcommotion
p1715
aVover
p1716
aVhim
p1717
ag64
aVthe
p1718
aVlast
p1719
aVthing
p1720
aVhe
p1721
aVwould
p1722
aVdesire
p1723
aVor
p1724
aVexpect
p1725
ag75
aV''
p1726
asg76
(lp1727
g78
ag78
ag78
ag78
ag78
ag78
ag78
ag78
ag78
ag78
ag78
ag78
ag78
aVPERSON
p1728
ag78
ag78
ag78
ag78
ag78
ag78
ag78
ag78
ag78
ag78
ag78
ag78
ag78
ag78
ag78
ag78
ag78
ag78
asg81
(lp1729
g351
ag86
ag160
ag497
ag93
ag352
ag160
ag84
ag90
ag93
ag351
ag236
ag161
ag83
ag86
ag94
ag236
ag85
ag92
ag90
ag160
ag93
ag85
ag161
ag92
ag160
ag438
ag89
ag94
ag89
ag96
ag352
asg97
V"Here you are," he went on, "taking poor Gouvernail seriously and making a commotion over him, the last thing he would desire or expect."
p1730
sba(i__main__
Sentence
p1731
(dp1732
g17
I36
sg18
(lp1733
S'``'
p1734
aS'Commotion'
p1735
aS'!'
p1736
aS"''"
p1737
asg48
(lp1738
V``
p1739
aVCommotion
p1740
aV!
p1741
aV''
p1742
asg76
(lp1743
g78
ag78
ag78
ag78
asg81
(lp1744
g351
ag92
ag96
ag352
asg97
V"Commotion!"
p1745
sba(i__main__
Sentence
p1746
(dp1747
g17
I37
sg18
(lp1748
S'she'
p1749
aS'hotly'
p1750
aS'resented'
p1751
aS'.'
p1752
asg48
(lp1753
Vshe
p1754
aVhotly
p1755
aVresent
p1756
ag75
asg76
(lp1757
g78
ag78
ag78
ag78
asg81
(lp1758
g160
ag86
ag84
ag96
asg97
Vshe hotly resented.
p1759
sba(i__main__
Sentence
p1760
(dp1761
g17
I38
sg18
(lp1762
S'``'
p1763
aS'Nonsense'
p1764
aS'!'
p1765
asg48
(lp1766
V``
p1767
aVNonsense
p1768
ag1741
asg76
(lp1769
g78
ag78
ag78
asg81
(lp1770
g351
ag92
ag96
asg97
V"Nonsense!
p1771
sba(i__main__
Sentence
p1772
(dp1773
g17
I39
sg18
(lp1774
S'How'
p1775
aS'can'
p1776
aS'you'
p1777
aS'say'
p1778
aS'such'
p1779
aS'a'
p1780
aS'thing'
p1781
aS'?'
p1782
asg48
(lp1783
VHow
p1784
aVcan
p1785
aVyou
p1786
aVsay
p1787
aVsuch
p1788
ag53
aVthing
p1789
ag1306
asg76
(lp1790
g78
ag78
ag78
ag78
ag78
ag78
ag78
ag78
asg81
(lp1791
g237
ag438
ag160
ag89
ag161
ag85
ag92
ag96
asg97
VHow can you say such a thing?
p1792
sba(i__main__
Sentence
p1793
(dp1794
g17
I40
sg18
(lp1795
S'Commotion'
p1796
aS','
p1797
aS'indeed'
p1798
aS'!'
p1799
asg48
(lp1800
VCommotion
p1801
ag64
aVindeed
p1802
ag1741
asg76
(lp1803
g78
ag78
ag78
ag78
asg81
(lp1804
g92
ag93
ag86
ag96
asg97
VCommotion, indeed!
p1805
sba(i__main__
Sentence
p1806
(dp1807
g17
I41
sg18
(lp1808
S'But'
p1809
aS','
p1810
aS'you'
p1811
aS'know'
p1812
aS','
p1813
aS'you'
p1814
aS'said'
p1815
aS'he'
p1816
aS'was'
p1817
aS'clever'
p1818
aS'.'
p1819
aS"''"
p1820
asg48
(lp1821
VBut
p1822
ag64
aVyou
p1823
aVknow
p1824
ag64
aVyou
p1825
ag1587
aVhe
p1826
ag52
aVclever
p1827
ag75
aV''
p1828
asg76
(lp1829
g78
ag78
ag78
ag78
ag78
ag78
ag78
ag78
ag78
ag78
ag78
ag78
asg81
(lp1830
g94
ag93
ag160
ag497
ag93
ag160
ag84
ag160
ag84
ag86
ag96
ag352
asg97
VBut, you know, you said he was clever."
p1831
sba(i__main__
Sentence
p1832
(dp1833
g17
I42
sg18
(lp1834
S'``'
p1835
aS'So'
p1836
aS'he'
p1837
aS'is'
p1838
aS'.'
p1839
asg48
(lp1840
V``
p1841
aVSo
p1842
aVhe
p1843
ag885
ag75
asg76
(lp1844
g78
ag78
ag78
ag78
ag78
asg81
(lp1845
g351
ag86
ag160
ag916
ag96
asg97
V"So he is.
p1846
sba(i__main__
Sentence
p1847
(dp1848
g17
I43
sg18
(lp1849
S'But'
p1850
aS'the'
p1851
aS'poor'
p1852
aS'fellow'
p1853
aS'is'
p1854
aS'run'
p1855
aS'down'
p1856
aS'by'
p1857
aS'overwork'
p1858
aS'now'
p1859
aS'.'
p1860
asg48
(lp1861
VBut
p1862
aVthe
p1863
aVpoor
p1864
aVfellow
p1865
ag885
aVrun
p1866
aVdown
p1867
aVby
p1868
aVoverwork
p1869
aVnow
p1870
ag75
asg76
(lp1871
g78
ag78
ag78
ag78
ag78
ag78
ag78
ag78
ag78
ag78
ag78
asg81
(lp1872
g94
ag85
ag161
ag92
ag916
ag87
ag238
ag90
ag92
ag86
ag96
asg97
VBut the poor fellow is run down by overwork now.
p1873
sba(i__main__
Sentence
p1874
(dp1875
g17
I44
sg18
(lp1876
S'That'
p1877
aS"'s"
p1878
aS'why'
p1879
aS'I'
p1880
aS'asked'
p1881
aS'him'
p1882
aS'here'
p1883
aS'to'
p1884
aS'take'
p1885
aS'a'
p1886
aS'rest'
p1887
aS'.'
p1888
aS"''"
p1889
asg48
(lp1890
VThat
p1891
aV's
p1892
aVwhy
p1893
ag887
aVask
p1894
aVhim
p1895
aVhere
p1896
aVto
p1897
aVtake
p1898
ag53
aVrest
p1899
ag75
aV''
p1900
asg76
(lp1901
g78
ag78
ag78
ag78
ag78
ag78
ag78
ag78
ag78
ag78
ag78
ag78
ag78
asg81
(lp1902
g85
ag916
ag237
ag160
ag84
ag160
ag86
ag88
ag89
ag85
ag92
ag96
ag352
asg97
VThat's why I asked him here to take a rest."
p1903
sba(i__main__
Sentence
p1904
(dp1905
g17
I45
sg18
(lp1906
S'``'
p1907
aS'You'
p1908
aS'used'
p1909
aS'to'
p1910
aS'say'
p1911
aS'he'
p1912
aS'was'
p1913
aS'a'
p1914
aS'man'
p1915
aS'of'
p1916
aS'ideas'
p1917
aS','
p1918
aS"''"
p1919
aS'she'
p1920
aS'retorted'
p1921
aS','
p1922
aS'unconciliated'
p1923
aS'.'
p1924
asg48
(lp1925
V``
p1926
aVYou
p1927
aVuse
p1928
aVto
p1929
aVsay
p1930
aVhe
p1931
ag52
ag53
aVman
p1932
aVof
p1933
aVidea
p1934
ag64
aV''
p1935
aVshe
p1936
aVretort
p1937
ag64
aVunconciliated
p1938
ag75
asg76
(lp1939
g78
ag78
ag78
ag78
ag78
ag78
ag78
ag78
ag78
ag78
ag78
ag78
ag78
ag78
ag78
ag78
ag78
ag78
asg81
(lp1940
g351
ag160
ag84
ag88
ag89
ag160
ag84
ag85
ag92
ag90
ag163
ag93
ag352
ag160
ag84
ag93
ag87
ag96
asg97
V"You used to say he was a man of ideas," she retorted, unconciliated.
p1941
sba(i__main__
Sentence
p1942
(dp1943
g17
I46
sg18
(lp1944
S'``'
p1945
aS'I'
p1946
aS'expected'
p1947
aS'him'
p1948
aS'to'
p1949
aS'be'
p1950
aS'interesting'
p1951
aS','
p1952
aS'at'
p1953
aS'least'
p1954
aS'.'
p1955
asg48
(lp1956
V``
p1957
ag887
aVexpect
p1958
aVhim
p1959
aVto
p1960
aVbe
p1961
aVinteresting
p1962
ag64
aVat
p1963
aVleast
p1964
ag75
asg76
(lp1965
g78
ag78
ag78
ag78
ag78
ag78
ag78
ag78
ag78
ag78
ag78
asg81
(lp1966
g351
ag160
ag84
ag160
ag88
ag89
ag161
ag93
ag90
ag1173
ag96
asg97
V"I expected him to be interesting, at least.
p1967
sba(i__main__
Sentence
p1968
(dp1969
g17
I47
sg18
(lp1970
S'I'
p1971
aS"'m"
p1972
aS'going'
p1973
aS'to'
p1974
aS'the'
p1975
aS'city'
p1976
aS'in'
p1977
aS'the'
p1978
aS'morning'
p1979
aS'to'
p1980
aS'have'
p1981
aS'my'
p1982
aS'spring'
p1983
aS'gowns'
p1984
aS'fitted'
p1985
aS'.'
p1986
asg48
(lp1987
g887
aV'm
p1988
aVgo
p1989
aVto
p1990
aVthe
p1991
aVcity
p1992
aVin
p1993
aVthe
p1994
aVmorning
p1995
aVto
p1996
aVhave
p1997
aVmy
p1998
aVspring
p1999
aVgown
p2000
aVfit
p2001
ag75
asg76
(lp2002
g78
ag78
ag78
ag78
ag78
ag78
ag78
ag78
ag78
ag78
ag78
ag78
ag78
ag78
ag78
ag78
asg81
(lp2003
g160
ag497
ag236
ag88
ag85
ag92
ag90
ag85
ag92
ag88
ag89
ag91
ag92
ag163
ag84
ag96
asg97
VI'm going to the city in the morning to have my spring gowns fitted.
p2004
sba(i__main__
Sentence
p2005
(dp2006
g17
I48
sg18
(lp2007
S'Let'
p2008
aS'me'
p2009
aS'know'
p2010
aS'when'
p2011
aS'Mr.'
p2012
aS'Gouvernail'
p2013
aS'is'
p2014
aS'gone'
p2015
aS';'
p2016
aS'I'
p2017
aS'shall'
p2018
aS'be'
p2019
aS'at'
p2020
aS'my'
p2021
aS'Aunt'
p2022
aS'Octavie'
p2023
aS"'s"
p2024
aS'.'
p2025
aS"''"
p2026
asg48
(lp2027
VLet
p2028
aVme
p2029
aVknow
p2030
aVwhen
p2031
aVMr.
p2032
aVGouvernail
p2033
ag885
aVgo
p2034
ag139
ag887
aVshall
p2035
aVbe
p2036
aVat
p2037
aVmy
p2038
aVAunt
p2039
aVOctavie
p2040
aV's
p2041
ag75
aV''
p2042
asg76
(lp2043
g78
ag78
ag78
ag78
ag78
aVPERSON
p2044
ag78
ag78
ag78
ag78
ag78
ag78
ag78
ag78
ag78
ag78
ag78
ag78
ag78
asg81
(lp2045
g83
ag160
ag497
ag237
ag83
ag83
ag916
ag87
ag162
ag160
ag438
ag89
ag90
ag91
ag83
ag83
ag350
ag96
ag352
asg97
VLet me know when Mr. Gouvernail is gone; I shall be at my Aunt Octavie's."
p2046
sba(i__main__
Sentence
p2047
(dp2048
g17
I49
sg18
(lp2049
S'That'
p2050
aS'night'
p2051
aS'she'
p2052
aS'went'
p2053
aS'and'
p2054
aS'sat'
p2055
aS'alone'
p2056
aS'upon'
p2057
aS'a'
p2058
aS'bench'
p2059
aS'that'
p2060
aS'stood'
p2061
aS'beneath'
p2062
aS'a'
p2063
aS'live'
p2064
aS'oak'
p2065
aS'tree'
p2066
aS'at'
p2067
aS'the'
p2068
aS'edge'
p2069
aS'of'
p2070
aS'the'
p2071
aS'gravel'
p2072
aS'walk'
p2073
aS'.'
p2074
asg48
(lp2075
VThat
p2076
aVnight
p2077
aVshe
p2078
ag1706
aVand
p2079
aVsat
p2080
aValone
p2081
aVupon
p2082
ag53
aVbench
p2083
aVthat
p2084
aVstood
p2085
aVbeneath
p2086
ag53
aVlive
p2087
aVoak
p2088
aVtree
p2089
aVat
p2090
aVthe
p2091
aVedge
p2092
aVof
p2093
aVthe
p2094
aVgravel
p2095
aVwalk
p2096
ag75
asg76
(lp2097
g78
ag78
ag78
ag78
ag78
ag78
ag78
ag78
ag78
ag78
ag78
ag78
ag78
ag78
ag78
ag78
ag78
ag78
ag78
ag78
ag78
ag78
ag78
ag78
ag78
asg81
(lp2098
g85
ag92
ag160
ag84
ag94
ag92
ag86
ag90
ag85
ag92
ag353
ag92
ag92
ag85
ag161
ag92
ag92
ag90
ag85
ag92
ag90
ag85
ag92
ag92
ag96
asg97
VThat night she went and sat alone upon a bench that stood beneath a live oak tree at the edge of the gravel walk.
p2099
sba(i__main__
Sentence
p2100
(dp2101
g17
I50
sg18
(lp2102
S'She'
p2103
aS'had'
p2104
aS'never'
p2105
aS'known'
p2106
aS'her'
p2107
aS'thoughts'
p2108
aS'or'
p2109
aS'her'
p2110
aS'intentions'
p2111
aS'to'
p2112
aS'be'
p2113
aS'so'
p2114
aS'confused'
p2115
aS'.'
p2116
asg48
(lp2117
VShe
p2118
ag132
aVnever
p2119
aVknow
p2120
aVher
p2121
aVthought
p2122
aVor
p2123
aVher
p2124
aVintention
p2125
aVto
p2126
aVbe
p2127
aVso
p2128
aVconfuse
p2129
ag75
asg76
(lp2130
g78
ag78
ag78
ag78
ag78
ag78
ag78
ag78
ag78
ag78
ag78
ag78
ag78
ag78
asg81
(lp2131
g160
ag84
ag86
ag87
ag91
ag163
ag94
ag160
ag163
ag88
ag89
ag86
ag87
ag96
asg97
VShe had never known her thoughts or her intentions to be so confused.
p2132
sba(i__main__
Sentence
p2133
(dp2134
g17
I51
sg18
(lp2135
S'She'
p2136
aS'could'
p2137
aS'gather'
p2138
aS'nothing'
p2139
aS'from'
p2140
aS'them'
p2141
aS'but'
p2142
aS'the'
p2143
aS'feeling'
p2144
aS'of'
p2145
aS'a'
p2146
aS'distinct'
p2147
aS'necessity'
p2148
aS'to'
p2149
aS'quit'
p2150
aS'her'
p2151
aS'home'
p2152
aS'in'
p2153
aS'the'
p2154
aS'morning'
p2155
aS'.'
p2156
asg48
(lp2157
VShe
p2158
aVcould
p2159
aVgather
p2160
aVnothing
p2161
aVfrom
p2162
aVthem
p2163
aVbut
p2164
aVthe
p2165
aVfeeling
p2166
aVof
p2167
ag53
aVdistinct
p2168
aVnecessity
p2169
aVto
p2170
aVquit
p2171
aVher
p2172
aVhome
p2173
aVin
p2174
aVthe
p2175
aVmorning
p2176
ag75
asg76
(lp2177
g78
ag78
ag78
ag78
ag78
ag78
ag78
ag78
ag78
ag78
ag78
ag78
ag78
ag78
ag78
ag78
ag78
ag78
ag78
ag78
ag78
asg81
(lp2178
g160
ag438
ag89
ag92
ag90
ag160
ag94
ag85
ag92
ag90
ag85
ag161
ag92
ag88
ag89
ag91
ag92
ag90
ag85
ag92
ag96
asg97
VShe could gather nothing from them but the feeling of a distinct necessity to quit her home in the morning.
p2179
sba(i__main__
Sentence
p2180
(dp2181
g17
I52
sg18
(lp2182
S'Mrs.'
p2183
aS'Baroda'
p2184
aS'heard'
p2185
aS'footsteps'
p2186
aS'crunching'
p2187
aS'the'
p2188
aS'gravel'
p2189
aS';'
p2190
aS'but'
p2191
aS'could'
p2192
aS'discern'
p2193
aS'in'
p2194
aS'the'
p2195
aS'darkness'
p2196
aS'only'
p2197
aS'the'
p2198
aS'approaching'
p2199
aS'red'
p2200
aS'point'
p2201
aS'of'
p2202
aS'a'
p2203
aS'lighted'
p2204
aS'cigar'
p2205
aS'.'
p2206
asg48
(lp2207
VMrs.
p2208
aVBaroda
p2209
aVheard
p2210
aVfootsteps
p2211
aVcrunch
p2212
aVthe
p2213
aVgravel
p2214
ag139
aVbut
p2215
aVcould
p2216
aVdiscern
p2217
aVin
p2218
aVthe
p2219
aVdarkness
p2220
aVonly
p2221
aVthe
p2222
aVapproaching
p2223
aVred
p2224
aVpoint
p2225
aVof
p2226
ag53
aVlight
p2227
aVcigar
p2228
ag75
asg76
(lp2229
g78
aVPERSON
p2230
ag78
ag78
ag78
ag78
ag78
ag78
ag78
ag78
ag78
ag78
ag78
ag78
ag78
ag78
ag78
ag78
ag78
ag78
ag78
ag78
ag78
ag78
asg81
(lp2231
g83
ag83
ag92
ag916
ag236
ag85
ag92
ag162
ag94
ag438
ag89
ag90
ag85
ag92
ag86
ag85
ag92
ag84
ag92
ag90
ag85
ag87
ag92
ag96
asg97
VMrs. Baroda heard footsteps crunching the gravel; but could discern in the darkness only the approaching red point of a lighted cigar.
p2232
sba(i__main__
Sentence
p2233
(dp2234
g17
I53
sg18
(lp2235
S'She'
p2236
aS'knew'
p2237
aS'it'
p2238
aS'was'
p2239
aS'Gouvernail'
p2240
aS','
p2241
aS'for'
p2242
aS'her'
p2243
aS'husband'
p2244
aS'did'
p2245
aS'not'
p2246
aS'smoke'
p2247
aS'.'
p2248
asg48
(lp2249
VShe
p2250
aVknow
p2251
aVit
p2252
ag52
aVGouvernail
p2253
ag64
aVfor
p2254
aVher
p2255
aVhusband
p2256
ag432
aVnot
p2257
aVsmoke
p2258
ag75
asg76
(lp2259
g78
ag78
ag78
ag78
aVPERSON
p2260
ag78
ag78
ag78
ag78
ag78
ag78
ag78
ag78
asg81
(lp2261
g160
ag84
ag160
ag84
ag83
ag93
ag90
ag91
ag92
ag84
ag86
ag89
ag96
asg97
VShe knew it was Gouvernail, for her husband did not smoke.
p2262
sba(i__main__
Sentence
p2263
(dp2264
g17
I54
sg18
(lp2265
S'She'
p2266
aS'hoped'
p2267
aS'to'
p2268
aS'remain'
p2269
aS'unnoticed'
p2270
aS','
p2271
aS'but'
p2272
aS'her'
p2273
aS'white'
p2274
aS'gown'
p2275
aS'revealed'
p2276
aS'her'
p2277
aS'to'
p2278
aS'him'
p2279
aS'.'
p2280
asg48
(lp2281
VShe
p2282
aVhop
p2283
aVto
p2284
aVremain
p2285
aVunnoticed
p2286
ag64
aVbut
p2287
aVher
p2288
aVwhite
p2289
aVgown
p2290
aVreveal
p2291
aVher
p2292
aVto
p2293
aVhim
p2294
ag75
asg76
(lp2295
g78
ag78
ag78
ag78
ag78
ag78
ag78
ag78
ag78
ag78
ag78
ag78
ag78
ag78
ag78
asg81
(lp2296
g160
ag84
ag88
ag89
ag87
ag93
ag94
ag91
ag161
ag92
ag84
ag160
ag88
ag160
ag96
asg97
VShe hoped to remain unnoticed, but her white gown revealed her to him.
p2297
sba(i__main__
Sentence
p2298
(dp2299
g17
I55
sg18
(lp2300
S'He'
p2301
aS'threw'
p2302
aS'away'
p2303
aS'his'
p2304
aS'cigar'
p2305
aS'and'
p2306
aS'seated'
p2307
aS'himself'
p2308
aS'upon'
p2309
aS'the'
p2310
aS'bench'
p2311
aS'beside'
p2312
aS'her'
p2313
aS';'
p2314
aS'without'
p2315
aS'a'
p2316
aS'suspicion'
p2317
aS'that'
p2318
aS'she'
p2319
aS'might'
p2320
aS'object'
p2321
aS'to'
p2322
aS'his'
p2323
aS'presence'
p2324
aS'.'
p2325
asg48
(lp2326
VHe
p2327
aVthrow
p2328
aVaway
p2329
aVhis
p2330
aVcigar
p2331
aVand
p2332
aVseat
p2333
aVhimself
p2334
aVupon
p2335
aVthe
p2336
aVbench
p2337
aVbeside
p2338
aVher
p2339
ag139
aVwithout
p2340
ag53
aVsuspicion
p2341
aVthat
p2342
aVshe
p2343
aVmight
p2344
aVobject
p2345
aVto
p2346
aVhis
p2347
aVpresence
p2348
ag75
asg76
(lp2349
g78
ag78
ag78
ag78
ag78
ag78
ag78
ag78
ag78
ag78
ag78
ag78
ag78
ag78
ag78
ag78
ag78
ag78
ag78
ag78
ag78
ag78
ag78
ag78
ag78
asg81
(lp2350
g160
ag84
ag86
ag91
ag92
ag94
ag84
ag160
ag90
ag85
ag92
ag92
ag91
ag162
ag90
ag85
ag92
ag353
ag160
ag438
ag89
ag88
ag91
ag92
ag96
asg97
VHe threw away his cigar and seated himself upon the bench beside her; without a suspicion that she might object to his presence.
p2351
sba(i__main__
Sentence
p2352
(dp2353
g17
I56
sg18
(lp2354
S'``'
p2355
aS'Your'
p2356
aS'husband'
p2357
aS'told'
p2358
aS'me'
p2359
aS'to'
p2360
aS'bring'
p2361
aS'this'
p2362
aS'to'
p2363
aS'you'
p2364
aS','
p2365
aS'Mrs.'
p2366
aS'Baroda'
p2367
aS','
p2368
aS"''"
p2369
aS'he'
p2370
aS'said'
p2371
aS','
p2372
aS'handing'
p2373
aS'her'
p2374
aS'a'
p2375
aS'filmy'
p2376
aS','
p2377
aS'white'
p2378
aS'scarf'
p2379
aS'with'
p2380
aS'which'
p2381
aS'she'
p2382
aS'sometimes'
p2383
aS'enveloped'
p2384
aS'her'
p2385
aS'head'
p2386
aS'and'
p2387
aS'shoulders'
p2388
aS'.'
p2389
asg48
(lp2390
V``
p2391
aVYour
p2392
aVhusband
p2393
aVtell
p2394
aVme
p2395
aVto
p2396
aVbring
p2397
aVthis
p2398
aVto
p2399
aVyou
p2400
ag64
aVMrs.
p2401
aVBaroda
p2402
ag64
aV''
p2403
aVhe
p2404
ag1587
ag64
aVhanding
p2405
aVher
p2406
ag53
aVfilmy
p2407
ag64
aVwhite
p2408
aVscarf
p2409
aVwith
p2410
aVwhich
p2411
aVshe
p2412
aVsometimes
p2413
aVenvelop
p2414
aVher
p2415
aVhead
p2416
aVand
p2417
aVshoulder
p2418
ag75
asg76
(lp2419
g78
ag78
ag78
ag78
ag78
ag78
ag78
ag78
ag78
ag78
ag78
ag78
aVPERSON
p2420
ag78
ag78
ag78
ag78
ag78
ag78
ag78
ag78
ag78
ag78
ag78
ag78
ag78
ag78
ag78
ag78
ag78
ag78
ag78
ag78
ag78
ag78
asg81
(lp2421
g351
ag91
ag92
ag84
ag160
ag88
ag89
ag85
ag88
ag160
ag93
ag83
ag83
ag93
ag352
ag160
ag84
ag93
ag92
ag91
ag85
ag92
ag93
ag161
ag92
ag90
ag353
ag160
ag916
ag87
ag91
ag92
ag94
ag163
ag96
asg97
V"Your husband told me to bring this to you, Mrs. Baroda," he said, handing her a filmy, white scarf with which she sometimes enveloped her head and shoulders.
p2422
sba(i__main__
Sentence
p2423
(dp2424
g17
I57
sg18
(lp2425
S'She'
p2426
aS'accepted'
p2427
aS'the'
p2428
aS'scarf'
p2429
aS'from'
p2430
aS'him'
p2431
aS'with'
p2432
aS'a'
p2433
aS'murmur'
p2434
aS'of'
p2435
aS'thanks'
p2436
aS','
p2437
aS'and'
p2438
aS'let'
p2439
aS'it'
p2440
aS'lie'
p2441
aS'in'
p2442
aS'her'
p2443
aS'lap'
p2444
aS'.'
p2445
asg48
(lp2446
VShe
p2447
aVaccept
p2448
aVthe
p2449
aVscarf
p2450
aVfrom
p2451
aVhim
p2452
aVwith
p2453
ag53
aVmurmur
p2454
aVof
p2455
aVthanks
p2456
ag64
aVand
p2457
aVlet
p2458
aVit
p2459
aVlie
p2460
aVin
p2461
aVher
p2462
aVlap
p2463
ag75
asg76
(lp2464
g78
ag78
ag78
ag78
ag78
ag78
ag78
ag78
ag78
ag78
ag78
ag78
ag78
ag78
ag78
ag78
ag78
ag78
ag78
ag78
asg81
(lp2465
g160
ag84
ag85
ag92
ag90
ag160
ag90
ag85
ag92
ag90
ag163
ag93
ag94
ag89
ag160
ag89
ag90
ag91
ag92
ag96
asg97
VShe accepted the scarf from him with a murmur of thanks, and let it lie in her lap.
p2466
sba(i__main__
Sentence
p2467
(dp2468
g17
I58
sg18
(lp2469
S'He'
p2470
aS'made'
p2471
aS'some'
p2472
aS'commonplace'
p2473
aS'observation'
p2474
aS'upon'
p2475
aS'the'
p2476
aS'baneful'
p2477
aS'effect'
p2478
aS'of'
p2479
aS'the'
p2480
aS'night'
p2481
aS'air'
p2482
aS'at'
p2483
aS'the'
p2484
aS'season'
p2485
aS'.'
p2486
asg48
(lp2487
VHe
p2488
ag742
aVsome
p2489
aVcommonplace
p2490
aVobservation
p2491
aVupon
p2492
aVthe
p2493
aVbaneful
p2494
aVeffect
p2495
aVof
p2496
aVthe
p2497
aVnight
p2498
aVair
p2499
aVat
p2500
aVthe
p2501
aVseason
p2502
ag75
asg76
(lp2503
g78
ag78
ag78
ag78
ag78
ag78
ag78
ag78
ag78
ag78
ag78
ag78
ag78
ag78
ag78
ag78
ag78
asg81
(lp2504
g160
ag84
ag85
ag92
ag92
ag90
ag85
ag161
ag92
ag90
ag85
ag92
ag92
ag90
ag85
ag92
ag96
asg97
VHe made some commonplace observation upon the baneful effect of the night air at the season.
p2505
sba(i__main__
Sentence
p2506
(dp2507
g17
I59
sg18
(lp2508
S'Then'
p2509
aS'as'
p2510
aS'his'
p2511
aS'gaze'
p2512
aS'reached'
p2513
aS'out'
p2514
aS'into'
p2515
aS'the'
p2516
aS'darkness'
p2517
aS','
p2518
aS'he'
p2519
aS'murmured'
p2520
aS','
p2521
aS'half'
p2522
aS'to'
p2523
aS'himself'
p2524
aS':'
p2525
aS'``'
p2526
aS'`Night'
p2527
aS'of'
p2528
aS'south'
p2529
aS'winds'
p2530
aS'--'
p2531
aS'night'
p2532
aS'of'
p2533
aS'the'
p2534
aS'large'
p2535
aS'few'
p2536
aS'stars'
p2537
aS'!'
p2538
asg48
(lp2539
VThen
p2540
ag53
aVhis
p2541
aVgaze
p2542
aVreach
p2543
aVout
p2544
aVinto
p2545
aVthe
p2546
aVdarkness
p2547
ag64
aVhe
p2548
aVmurmur
p2549
ag64
aVhalf
p2550
aVto
p2551
aVhimself
p2552
aV:
p2553
aV``
p2554
aV`Night
p2555
aVof
p2556
aVsouth
p2557
aVwind
p2558
aV--
p2559
aVnight
p2560
aVof
p2561
aVthe
p2562
aVlarge
p2563
aVfew
p2564
aVstar
p2565
ag1741
asg76
(lp2566
g78
ag78
ag78
ag78
ag78
ag78
ag78
ag78
ag78
ag78
ag78
ag78
ag78
ag78
ag78
ag78
ag78
ag78
ag78
ag78
ag78
ag78
ag78
ag78
ag78
ag78
ag78
ag78
ag78
ag78
asg81
(lp2567
g86
ag90
ag91
ag92
ag84
ag238
ag90
ag85
ag92
ag93
ag160
ag84
ag93
ag85
ag88
ag160
ag162
ag351
ag161
ag90
ag92
ag163
ag162
ag92
ag90
ag85
ag161
ag161
ag163
ag96
asg97
VThen as his gaze reached out into the darkness, he murmured, half to himself:    "`Night of south winds--night of the large few stars!
p2568
sba(i__main__
Sentence
p2569
(dp2570
g17
I60
sg18
(lp2571
S'Still'
p2572
aS'nodding'
p2573
aS'night'
p2574
aS'--'
p2575
aS"'"
p2576
aS"''"
p2577
aS'She'
p2578
aS'made'
p2579
aS'no'
p2580
aS'reply'
p2581
aS'to'
p2582
aS'this'
p2583
aS'apostrophe'
p2584
aS'to'
p2585
aS'the'
p2586
aS'night'
p2587
aS','
p2588
aS'which'
p2589
aS','
p2590
aS'indeed'
p2591
aS','
p2592
aS'was'
p2593
aS'not'
p2594
aS'addressed'
p2595
aS'to'
p2596
aS'her'
p2597
aS'.'
p2598
asg48
(lp2599
VStill
p2600
aVnod
p2601
aVnight
p2602
aV--
p2603
aV'
p2604
aV''
p2605
aVShe
p2606
ag742
aVno
p2607
aVreply
p2608
aVto
p2609
aVthis
p2610
aVapostrophe
p2611
aVto
p2612
aVthe
p2613
aVnight
p2614
ag64
aVwhich
p2615
ag64
aVindeed
p2616
ag64
ag52
aVnot
p2617
aVaddress
p2618
aVto
p2619
aVher
p2620
ag75
asg76
(lp2621
g78
ag78
ag78
ag78
ag78
ag78
ag78
ag78
ag78
ag78
ag78
ag78
ag78
ag78
ag78
ag78
ag78
ag78
ag78
ag78
ag78
ag78
ag78
ag78
ag78
ag78
ag78
asg81
(lp2622
g86
ag236
ag92
ag162
ag352
ag352
ag160
ag84
ag85
ag92
ag88
ag85
ag92
ag88
ag85
ag92
ag93
ag353
ag93
ag86
ag93
ag84
ag86
ag87
ag88
ag91
ag96
asg97
VStill nodding night--'"    She made no reply to this apostrophe to the night, which, indeed, was not addressed to her.
p2623
sba(i__main__
Sentence
p2624
(dp2625
g17
I61
sg18
(lp2626
S'Gouvernail'
p2627
aS'was'
p2628
aS'in'
p2629
aS'no'
p2630
aS'sense'
p2631
aS'a'
p2632
aS'diffident'
p2633
aS'man'
p2634
aS','
p2635
aS'for'
p2636
aS'he'
p2637
aS'was'
p2638
aS'not'
p2639
aS'a'
p2640
aS'self-conscious'
p2641
aS'one'
p2642
aS'.'
p2643
asg48
(lp2644
VGouvernail
p2645
ag52
aVin
p2646
aVno
p2647
aVsense
p2648
ag53
aVdiffident
p2649
aVman
p2650
ag64
aVfor
p2651
aVhe
p2652
ag52
aVnot
p2653
ag53
aVself-conscious
p2654
aVone
p2655
ag75
asg76
(lp2656
VPERSON
p2657
ag78
ag78
ag78
ag78
ag78
ag78
ag78
ag78
ag78
ag78
ag78
ag78
ag78
ag78
ag78
ag78
asg81
(lp2658
g83
ag84
ag90
ag85
ag92
ag85
ag92
ag92
ag93
ag90
ag160
ag84
ag86
ag85
ag161
ag95
ag96
asg97
VGouvernail was in no sense a diffident man, for he was not a self-conscious one.
p2659
sba(i__main__
Sentence
p2660
(dp2661
g17
I62
sg18
(lp2662
S'His'
p2663
aS'periods'
p2664
aS'of'
p2665
aS'reserve'
p2666
aS'were'
p2667
aS'not'
p2668
aS'constitutional'
p2669
aS','
p2670
aS'but'
p2671
aS'the'
p2672
aS'result'
p2673
aS'of'
p2674
aS'moods'
p2675
aS'.'
p2676
asg48
(lp2677
VHis
p2678
aVperiod
p2679
aVof
p2680
aVreserve
p2681
ag338
aVnot
p2682
aVconstitutional
p2683
ag64
aVbut
p2684
aVthe
p2685
aVresult
p2686
aVof
p2687
aVmood
p2688
ag75
asg76
(lp2689
g78
ag78
ag78
ag78
ag78
ag78
ag78
ag78
ag78
ag78
ag78
ag78
ag78
ag78
asg81
(lp2690
g91
ag163
ag90
ag92
ag84
ag86
ag161
ag93
ag94
ag85
ag92
ag90
ag163
ag96
asg97
VHis periods of reserve were not constitutional, but the result of moods.
p2691
sba(i__main__
Sentence
p2692
(dp2693
g17
I63
sg18
(lp2694
S'Sitting'
p2695
aS'there'
p2696
aS'beside'
p2697
aS'Mrs.'
p2698
aS'Baroda'
p2699
aS','
p2700
aS'his'
p2701
aS'silence'
p2702
aS'melted'
p2703
aS'for'
p2704
aS'the'
p2705
aS'time'
p2706
aS'.'
p2707
asg48
(lp2708
VSitting
p2709
aVthere
p2710
aVbeside
p2711
aVMrs.
p2712
aVBaroda
p2713
ag64
aVhis
p2714
aVsilence
p2715
aVmelt
p2716
aVfor
p2717
aVthe
p2718
aVtime
p2719
ag75
asg76
(lp2720
g78
ag78
ag78
ag78
aVPERSON
p2721
ag78
ag78
ag78
ag78
ag78
ag78
ag78
ag78
asg81
(lp2722
g236
aS'EX'
p2723
ag92
ag83
ag83
ag93
ag91
ag92
ag84
ag90
ag85
ag92
ag96
asg97
VSitting there beside Mrs. Baroda, his silence melted for the time.
p2724
sba(i__main__
Sentence
p2725
(dp2726
g17
I64
sg18
(lp2727
S'He'
p2728
aS'talked'
p2729
aS'freely'
p2730
aS'and'
p2731
aS'intimately'
p2732
aS'in'
p2733
aS'a'
p2734
aS'low'
p2735
aS','
p2736
aS'hesitating'
p2737
aS'drawl'
p2738
aS'that'
p2739
aS'was'
p2740
aS'not'
p2741
aS'unpleasant'
p2742
aS'to'
p2743
aS'hear'
p2744
aS'.'
p2745
asg48
(lp2746
VHe
p2747
aVtalk
p2748
aVfreely
p2749
aVand
p2750
aVintimately
p2751
aVin
p2752
ag53
aVlow
p2753
ag64
aVhesitate
p2754
aVdrawl
p2755
aVthat
p2756
ag52
aVnot
p2757
aVunpleasant
p2758
aVto
p2759
aVhear
p2760
ag75
asg76
(lp2761
g78
ag78
ag78
ag78
ag78
ag78
ag78
ag78
ag78
ag78
ag78
ag78
ag78
ag78
ag78
ag78
ag78
ag78
asg81
(lp2762
g160
ag84
ag86
ag94
ag86
ag90
ag85
ag161
ag93
ag236
ag92
ag90
ag84
ag86
ag161
ag88
ag89
ag96
asg97
VHe talked freely and intimately in a low, hesitating drawl that was not unpleasant to hear.
p2763
sba(i__main__
Sentence
p2764
(dp2765
g17
I65
sg18
(lp2766
S'He'
p2767
aS'talked'
p2768
aS'of'
p2769
aS'the'
p2770
aS'old'
p2771
aS'college'
p2772
aS'days'
p2773
aS'when'
p2774
aS'he'
p2775
aS'and'
p2776
aS'Gaston'
p2777
aS'had'
p2778
aS'been'
p2779
aS'a'
p2780
aS'good'
p2781
aS'deal'
p2782
aS'to'
p2783
aS'each'
p2784
aS'other'
p2785
aS';'
p2786
aS'of'
p2787
aS'the'
p2788
aS'days'
p2789
aS'of'
p2790
aS'keen'
p2791
aS'and'
p2792
aS'blind'
p2793
aS'ambitions'
p2794
aS'and'
p2795
aS'large'
p2796
aS'intentions'
p2797
aS'.'
p2798
asg48
(lp2799
VHe
p2800
aVtalk
p2801
aVof
p2802
aVthe
p2803
aVold
p2804
aVcollege
p2805
aVday
p2806
aVwhen
p2807
aVhe
p2808
aVand
p2809
aVGaston
p2810
ag132
ag145
ag53
aVgood
p2811
aVdeal
p2812
aVto
p2813
aVeach
p2814
aVother
p2815
ag139
aVof
p2816
aVthe
p2817
aVday
p2818
aVof
p2819
aVkeen
p2820
aVand
p2821
aVblind
p2822
aVambition
p2823
aVand
p2824
aVlarge
p2825
aVintention
p2826
ag75
asg76
(lp2827
g78
ag78
ag78
ag78
ag78
ag78
ag78
ag78
ag78
ag78
aVPERSON
p2828
ag78
ag78
ag78
ag78
ag78
ag78
ag78
ag78
ag78
ag78
ag78
ag78
ag78
ag78
ag78
ag78
ag78
ag78
ag78
ag78
ag78
asg81
(lp2829
g160
ag84
ag90
ag85
ag161
ag92
ag163
ag237
ag160
ag94
ag83
ag84
ag87
ag85
ag161
ag92
ag88
ag85
ag161
ag162
ag90
ag85
ag163
ag90
ag92
ag94
ag161
ag163
ag94
ag161
ag163
ag96
asg97
VHe talked of the old college days when he and Gaston had been a good deal to each other; of the days of keen and blind ambitions and large intentions.
p2830
sba(i__main__
Sentence
p2831
(dp2832
g17
I66
sg18
(lp2833
S'Now'
p2834
aS'there'
p2835
aS'was'
p2836
aS'left'
p2837
aS'with'
p2838
aS'him'
p2839
aS','
p2840
aS'at'
p2841
aS'least'
p2842
aS','
p2843
aS'a'
p2844
aS'philosophic'
p2845
aS'acquiescence'
p2846
aS'to'
p2847
aS'the'
p2848
aS'existing'
p2849
aS'order'
p2850
aS'--'
p2851
aS'only'
p2852
aS'a'
p2853
aS'desire'
p2854
aS'to'
p2855
aS'be'
p2856
aS'permitted'
p2857
aS'to'
p2858
aS'exist'
p2859
aS','
p2860
aS'with'
p2861
aS'now'
p2862
aS'and'
p2863
aS'then'
p2864
aS'a'
p2865
aS'little'
p2866
aS'whiff'
p2867
aS'of'
p2868
aS'genuine'
p2869
aS'life'
p2870
aS','
p2871
aS'such'
p2872
aS'as'
p2873
aS'he'
p2874
aS'was'
p2875
aS'breathing'
p2876
aS'now'
p2877
aS'.'
p2878
asg48
(lp2879
VNow
p2880
aVthere
p2881
ag52
ag1159
aVwith
p2882
aVhim
p2883
ag64
aVat
p2884
aVleast
p2885
ag64
ag53
aVphilosophic
p2886
aVacquiescence
p2887
aVto
p2888
aVthe
p2889
aVexist
p2890
aVorder
p2891
aV--
p2892
aVonly
p2893
ag53
aVdesire
p2894
aVto
p2895
aVbe
p2896
aVpermit
p2897
aVto
p2898
aVexist
p2899
ag64
aVwith
p2900
aVnow
p2901
aVand
p2902
aVthen
p2903
ag53
aVlittle
p2904
aVwhiff
p2905
aVof
p2906
aVgenuine
p2907
aVlife
p2908
ag64
aVsuch
p2909
ag53
aVhe
p2910
ag52
aVbreathe
p2911
aVnow
p2912
ag75
asg76
(lp2913
g78
ag78
ag78
ag78
ag78
ag78
ag78
ag78
ag78
ag78
ag78
ag78
ag78
ag78
ag78
ag78
ag78
ag78
ag78
ag78
ag78
ag78
ag78
ag78
ag78
ag78
ag78
ag78
ag78
ag78
ag78
ag78
ag78
ag78
ag78
ag78
ag78
ag78
ag78
ag78
ag78
ag78
ag78
ag78
ag78
asg81
(lp2914
g86
ag2723
ag84
ag87
ag90
ag160
ag93
ag90
ag1173
ag93
ag85
ag161
ag92
ag88
ag85
ag236
ag92
ag162
ag86
ag85
ag92
ag88
ag89
ag87
ag88
ag89
ag93
ag90
ag86
ag94
ag86
ag85
ag86
ag161
ag90
ag92
ag92
ag93
ag161
ag90
ag160
ag84
ag236
ag86
ag96
asg97
VNow there was left with him, at least, a philosophic acquiescence to the existing order--only a desire to be permitted to exist, with now and then a little whiff of genuine life, such as he was breathing now.
p2915
sba(i__main__
Sentence
p2916
(dp2917
g17
I67
sg18
(lp2918
S'Her'
p2919
aS'mind'
p2920
aS'only'
p2921
aS'vaguely'
p2922
aS'grasped'
p2923
aS'what'
p2924
aS'he'
p2925
aS'was'
p2926
aS'saying'
p2927
aS'.'
p2928
asg48
(lp2929
VHer
p2930
aVmind
p2931
aVonly
p2932
aVvaguely
p2933
aVgrasp
p2934
aVwhat
p2935
aVhe
p2936
ag52
aVsay
p2937
ag75
asg76
(lp2938
g78
ag78
ag78
ag78
ag78
ag78
ag78
ag78
ag78
ag78
asg81
(lp2939
g91
ag92
ag86
ag86
ag87
ag917
ag160
ag84
ag236
ag96
asg97
VHer mind only vaguely grasped what he was saying.
p2940
sba(i__main__
Sentence
p2941
(dp2942
g17
I68
sg18
(lp2943
S'Her'
p2944
aS'physical'
p2945
aS'being'
p2946
aS'was'
p2947
aS'for'
p2948
aS'the'
p2949
aS'moment'
p2950
aS'predominant'
p2951
aS'.'
p2952
asg48
(lp2953
VHer
p2954
aVphysical
p2955
aVbe
p2956
ag52
aVfor
p2957
aVthe
p2958
aVmoment
p2959
aVpredominant
p2960
ag75
asg76
(lp2961
g78
ag78
ag78
ag78
ag78
ag78
ag78
ag78
ag78
asg81
(lp2962
g91
ag161
ag236
ag84
ag90
ag85
ag92
ag92
ag96
asg97
VHer physical being was for the moment predominant.
p2963
sba(i__main__
Sentence
p2964
(dp2965
g17
I69
sg18
(lp2966
S'She'
p2967
aS'was'
p2968
aS'not'
p2969
aS'thinking'
p2970
aS'of'
p2971
aS'his'
p2972
aS'words'
p2973
aS','
p2974
aS'only'
p2975
aS'drinking'
p2976
aS'in'
p2977
aS'the'
p2978
aS'tones'
p2979
aS'of'
p2980
aS'his'
p2981
aS'voice'
p2982
aS'.'
p2983
asg48
(lp2984
VShe
p2985
ag52
aVnot
p2986
aVthink
p2987
aVof
p2988
aVhis
p2989
aVword
p2990
ag64
aVonly
p2991
aVdrink
p2992
aVin
p2993
aVthe
p2994
aVtone
p2995
aVof
p2996
aVhis
p2997
aVvoice
p2998
ag75
asg76
(lp2999
g78
ag78
ag78
ag78
ag78
ag78
ag78
ag78
ag78
ag78
ag78
ag78
ag78
ag78
ag78
ag78
ag78
asg81
(lp3000
g160
ag84
ag86
ag236
ag90
ag91
ag163
ag93
ag86
ag236
ag90
ag85
ag163
ag90
ag91
ag92
ag96
asg97
VShe was not thinking of his words, only drinking in the tones of his voice.
p3001
sba(i__main__
Sentence
p3002
(dp3003
g17
I70
sg18
(lp3004
S'She'
p3005
aS'wanted'
p3006
aS'to'
p3007
aS'reach'
p3008
aS'out'
p3009
aS'her'
p3010
aS'hand'
p3011
aS'in'
p3012
aS'the'
p3013
aS'darkness'
p3014
aS'and'
p3015
aS'touch'
p3016
aS'him'
p3017
aS'with'
p3018
aS'the'
p3019
aS'sensitive'
p3020
aS'tips'
p3021
aS'of'
p3022
aS'her'
p3023
aS'fingers'
p3024
aS'upon'
p3025
aS'the'
p3026
aS'face'
p3027
aS'or'
p3028
aS'the'
p3029
aS'lips'
p3030
aS'.'
p3031
asg48
(lp3032
VShe
p3033
aVwant
p3034
aVto
p3035
aVreach
p3036
aVout
p3037
aVher
p3038
aVhand
p3039
aVin
p3040
aVthe
p3041
aVdarkness
p3042
aVand
p3043
aVtouch
p3044
aVhim
p3045
aVwith
p3046
aVthe
p3047
aVsensitive
p3048
aVtip
p3049
aVof
p3050
aVher
p3051
aVfinger
p3052
aVupon
p3053
aVthe
p3054
aVface
p3055
aVor
p3056
aVthe
p3057
aVlip
p3058
ag75
asg76
(lp3059
g78
ag78
ag78
ag78
ag78
ag78
ag78
ag78
ag78
ag78
ag78
ag78
ag78
ag78
ag78
ag78
ag78
ag78
ag78
ag78
ag78
ag78
ag78
ag78
ag78
ag78
ag78
asg81
(lp3060
g160
ag84
ag88
ag89
ag238
ag91
ag92
ag90
ag85
ag92
ag94
ag161
ag92
ag90
ag85
ag161
ag163
ag90
ag91
ag163
ag90
ag85
ag92
ag94
ag85
ag163
ag96
asg97
VShe wanted to reach out her hand in the darkness and touch him with the sensitive tips of her fingers upon the face or the lips.
p3061
sba(i__main__
Sentence
p3062
(dp3063
g17
I71
sg18
(lp3064
S'She'
p3065
aS'wanted'
p3066
aS'to'
p3067
aS'draw'
p3068
aS'close'
p3069
aS'to'
p3070
aS'him'
p3071
aS'and'
p3072
aS'whisper'
p3073
aS'against'
p3074
aS'his'
p3075
aS'cheek'
p3076
aS'--'
p3077
aS'she'
p3078
aS'did'
p3079
aS'not'
p3080
aS'care'
p3081
aS'what'
p3082
aS'--'
p3083
aS'as'
p3084
aS'she'
p3085
aS'might'
p3086
aS'have'
p3087
aS'done'
p3088
aS'if'
p3089
aS'she'
p3090
aS'had'
p3091
aS'not'
p3092
aS'been'
p3093
aS'a'
p3094
aS'respectable'
p3095
aS'woman'
p3096
aS'.'
p3097
asg48
(lp3098
VShe
p3099
aVwant
p3100
aVto
p3101
aVdraw
p3102
aVclose
p3103
aVto
p3104
aVhim
p3105
aVand
p3106
aVwhisper
p3107
aVagainst
p3108
aVhis
p3109
aVcheek
p3110
aV--
p3111
aVshe
p3112
ag432
aVnot
p3113
aVcare
p3114
aVwhat
p3115
aV--
p3116
ag53
aVshe
p3117
aVmight
p3118
aVhave
p3119
aVdo
p3120
aVif
p3121
aVshe
p3122
ag132
aVnot
p3123
ag145
ag53
aVrespectable
p3124
aVwoman
p3125
ag75
asg76
(lp3126
g78
ag78
ag78
ag78
ag78
ag78
ag78
ag78
ag78
ag78
ag78
ag78
ag78
ag78
ag78
ag78
ag78
ag78
ag78
ag78
ag78
ag78
ag78
ag78
ag78
ag78
ag78
ag78
ag78
ag78
ag78
ag78
ag78
asg81
(lp3127
g160
ag84
ag88
ag89
ag161
ag88
ag160
ag94
ag92
ag90
ag91
ag92
ag162
ag160
ag84
ag86
ag89
ag917
ag162
ag90
ag160
ag438
ag89
ag87
ag90
ag160
ag84
ag86
ag87
ag85
ag161
ag92
ag96
asg97
VShe wanted to draw close to him and whisper against his cheek--she did not care what--as she might have done if she had not been a respectable woman.
p3128
sba(i__main__
Sentence
p3129
(dp3130
g17
I72
sg18
(lp3131
S'The'
p3132
aS'stronger'
p3133
aS'the'
p3134
aS'impulse'
p3135
aS'grew'
p3136
aS'to'
p3137
aS'bring'
p3138
aS'herself'
p3139
aS'near'
p3140
aS'him'
p3141
aS','
p3142
aS'the'
p3143
aS'further'
p3144
aS','
p3145
aS'in'
p3146
aS'fact'
p3147
aS','
p3148
aS'did'
p3149
aS'she'
p3150
aS'draw'
p3151
aS'away'
p3152
aS'from'
p3153
aS'him'
p3154
aS'.'
p3155
asg48
(lp3156
VThe
p3157
aVstrong
p3158
aVthe
p3159
aVimpulse
p3160
aVgrow
p3161
aVto
p3162
aVbring
p3163
aVherself
p3164
aVnear
p3165
aVhim
p3166
ag64
aVthe
p3167
aVfurther
p3168
ag64
aVin
p3169
aVfact
p3170
ag64
ag432
aVshe
p3171
aVdraw
p3172
aVaway
p3173
aVfrom
p3174
aVhim
p3175
ag75
asg76
(lp3176
g78
ag78
ag78
ag78
ag78
ag78
ag78
ag78
ag78
ag78
ag78
ag78
ag78
ag78
ag78
ag78
ag78
ag78
ag78
ag78
ag78
ag78
ag78
ag78
asg81
(lp3177
g85
ag1130
ag85
ag92
ag84
ag88
ag89
ag160
ag90
ag160
ag93
ag85
ag161
ag93
ag90
ag92
ag93
ag84
ag160
ag84
ag86
ag90
ag160
ag96
asg97
VThe stronger the impulse grew to bring herself near him, the further, in fact, did she draw away from him.
p3178
sba(i__main__
Sentence
p3179
(dp3180
g17
I73
sg18
(lp3181
S'As'
p3182
aS'soon'
p3183
aS'as'
p3184
aS'she'
p3185
aS'could'
p3186
aS'do'
p3187
aS'so'
p3188
aS'without'
p3189
aS'an'
p3190
aS'appearance'
p3191
aS'of'
p3192
aS'too'
p3193
aS'great'
p3194
aS'rudeness'
p3195
aS','
p3196
aS'she'
p3197
aS'rose'
p3198
aS'and'
p3199
aS'left'
p3200
aS'him'
p3201
aS'there'
p3202
aS'alone'
p3203
aS'.'
p3204
asg48
(lp3205
VAs
p3206
aVsoon
p3207
ag53
aVshe
p3208
aVcould
p3209
aVdo
p3210
aVso
p3211
aVwithout
p3212
aVan
p3213
aVappearance
p3214
aVof
p3215
aVtoo
p3216
aVgreat
p3217
aVrudeness
p3218
ag64
aVshe
p3219
aVrise
p3220
aVand
p3221
ag1159
aVhim
p3222
aVthere
p3223
aValone
p3224
ag75
asg76
(lp3225
g78
ag78
ag78
ag78
ag78
ag78
ag78
ag78
ag78
ag78
ag78
ag78
ag78
ag78
ag78
ag78
ag78
ag78
ag78
ag78
ag78
ag78
ag78
asg81
(lp3226
g90
ag86
ag90
ag160
ag438
ag89
ag86
ag90
ag85
ag92
ag90
ag86
ag161
ag92
ag93
ag160
ag84
ag94
ag87
ag160
ag86
ag86
ag96
asg97
VAs soon as she could do so without an appearance of too great rudeness, she rose and left him there alone.
p3227
sba(i__main__
Sentence
p3228
(dp3229
g17
I74
sg18
(lp3230
S'Before'
p3231
aS'she'
p3232
aS'reached'
p3233
aS'the'
p3234
aS'house'
p3235
aS','
p3236
aS'Gouvernail'
p3237
aS'had'
p3238
aS'lighted'
p3239
aS'a'
p3240
aS'fresh'
p3241
aS'cigar'
p3242
aS'and'
p3243
aS'ended'
p3244
aS'his'
p3245
aS'apostrophe'
p3246
aS'to'
p3247
aS'the'
p3248
aS'night'
p3249
aS'.'
p3250
asg48
(lp3251
VBefore
p3252
aVshe
p3253
aVreach
p3254
aVthe
p3255
aVhouse
p3256
ag64
aVGouvernail
p3257
ag132
aVlight
p3258
ag53
aVfresh
p3259
aVcigar
p3260
aVand
p3261
aVend
p3262
aVhis
p3263
aVapostrophe
p3264
aVto
p3265
aVthe
p3266
aVnight
p3267
ag75
asg76
(lp3268
g78
ag78
ag78
ag78
ag78
ag78
aVPERSON
p3269
ag78
ag78
ag78
ag78
ag78
ag78
ag78
ag78
ag78
ag78
ag78
ag78
ag78
asg81
(lp3270
g90
ag160
ag84
ag85
ag92
ag93
ag83
ag84
ag87
ag85
ag161
ag92
ag94
ag84
ag91
ag92
ag88
ag85
ag92
ag96
asg97
VBefore she reached the house, Gouvernail had lighted a fresh cigar and ended his apostrophe to the night.
p3271
sba(i__main__
Sentence
p3272
(dp3273
g17
I75
sg18
(lp3274
S'Mrs.'
p3275
aS'Baroda'
p3276
aS'was'
p3277
aS'greatly'
p3278
aS'tempted'
p3279
aS'that'
p3280
aS'night'
p3281
aS'to'
p3282
aS'tell'
p3283
aS'her'
p3284
aS'husband'
p3285
aS'--'
p3286
aS'who'
p3287
aS'was'
p3288
aS'also'
p3289
aS'her'
p3290
aS'friend'
p3291
aS'--'
p3292
aS'of'
p3293
aS'this'
p3294
aS'folly'
p3295
aS'that'
p3296
aS'had'
p3297
aS'seized'
p3298
aS'her'
p3299
aS'.'
p3300
asg48
(lp3301
VMrs.
p3302
aVBaroda
p3303
ag52
aVgreatly
p3304
aVtempt
p3305
aVthat
p3306
aVnight
p3307
aVto
p3308
aVtell
p3309
aVher
p3310
aVhusband
p3311
aV--
p3312
aVwho
p3313
ag52
aValso
p3314
aVher
p3315
aVfriend
p3316
aV--
p3317
aVof
p3318
aVthis
p3319
aVfolly
p3320
aVthat
p3321
ag132
aVseize
p3322
aVher
p3323
ag75
asg76
(lp3324
g78
aVPERSON
p3325
ag78
ag78
ag78
ag78
ag78
ag78
ag78
ag78
ag78
ag78
ag78
ag78
ag78
ag78
ag78
ag78
ag78
ag78
ag78
ag78
ag78
ag78
ag78
ag78
asg81
(lp3326
g83
ag83
ag84
ag86
ag87
ag90
ag92
ag88
ag89
ag91
ag92
ag162
ag917
ag84
ag86
ag91
ag92
ag162
ag90
ag85
ag86
ag90
ag84
ag87
ag91
ag96
asg97
VMrs. Baroda was greatly tempted that night to tell her husband--who was also her friend--of this folly that had seized her.
p3327
sba(i__main__
Sentence
p3328
(dp3329
g17
I76
sg18
(lp3330
S'But'
p3331
aS'she'
p3332
aS'did'
p3333
aS'not'
p3334
aS'yield'
p3335
aS'to'
p3336
aS'the'
p3337
aS'temptation'
p3338
aS'.'
p3339
asg48
(lp3340
VBut
p3341
aVshe
p3342
ag432
aVnot
p3343
aVyield
p3344
aVto
p3345
aVthe
p3346
aVtemptation
p3347
ag75
asg76
(lp3348
g78
ag78
ag78
ag78
ag78
ag78
ag78
ag78
ag78
asg81
(lp3349
g94
ag160
ag84
ag86
ag87
ag88
ag85
ag92
ag96
asg97
VBut she did not yield to the temptation.
p3350
sba(i__main__
Sentence
p3351
(dp3352
g17
I77
sg18
(lp3353
S'Beside'
p3354
aS'being'
p3355
aS'a'
p3356
aS'respectable'
p3357
aS'woman'
p3358
aS'she'
p3359
aS'was'
p3360
aS'a'
p3361
aS'very'
p3362
aS'sensible'
p3363
aS'one'
p3364
aS';'
p3365
aS'and'
p3366
aS'she'
p3367
aS'knew'
p3368
aS'there'
p3369
aS'are'
p3370
aS'some'
p3371
aS'battles'
p3372
aS'in'
p3373
aS'life'
p3374
aS'which'
p3375
aS'a'
p3376
aS'human'
p3377
aS'being'
p3378
aS'must'
p3379
aS'fight'
p3380
aS'alone'
p3381
aS'.'
p3382
asg48
(lp3383
VBeside
p3384
aVbe
p3385
ag53
aVrespectable
p3386
aVwoman
p3387
aVshe
p3388
ag52
ag53
aVvery
p3389
aVsensible
p3390
aVone
p3391
ag139
aVand
p3392
aVshe
p3393
ag2251
aVthere
p3394
ag1579
aVsome
p3395
aVbattle
p3396
aVin
p3397
aVlife
p3398
aVwhich
p3399
ag53
aVhuman
p3400
aVbe
p3401
aVmust
p3402
aVfight
p3403
aValone
p3404
ag75
asg76
(lp3405
g78
ag78
ag78
ag78
ag78
ag78
ag78
ag78
ag78
ag78
ag78
ag78
ag78
ag78
ag78
ag78
ag78
ag78
ag78
ag78
ag78
ag78
ag78
ag78
ag78
ag78
ag78
ag78
ag78
asg81
(lp3406
g83
ag236
ag85
ag161
ag92
ag160
ag84
ag85
ag86
ag161
ag95
ag162
ag94
ag160
ag84
ag86
ag497
ag85
ag163
ag90
ag92
ag353
ag85
ag92
ag236
ag438
ag89
ag86
ag96
asg97
VBeside being a respectable woman she was a very sensible one; and she knew there are some battles in life which a human being must fight alone.
p3407
sba(i__main__
Sentence
p3408
(dp3409
g17
I78
sg18
(lp3410
S'When'
p3411
aS'Gaston'
p3412
aS'arose'
p3413
aS'in'
p3414
aS'the'
p3415
aS'morning'
p3416
aS','
p3417
aS'his'
p3418
aS'wife'
p3419
aS'had'
p3420
aS'already'
p3421
aS'departed'
p3422
aS'.'
p3423
asg48
(lp3424
VWhen
p3425
aVGaston
p3426
aVarose
p3427
aVin
p3428
aVthe
p3429
aVmorning
p3430
ag64
aVhis
p3431
aVwife
p3432
ag132
aValready
p3433
aVdepart
p3434
ag75
asg76
(lp3435
g78
aVPERSON
p3436
ag78
ag78
ag78
ag78
ag78
ag78
ag78
ag78
ag78
ag78
ag78
asg81
(lp3437
g237
ag83
ag92
ag90
ag85
ag92
ag93
ag91
ag92
ag84
ag86
ag87
ag96
asg97
VWhen Gaston arose in the morning, his wife had already departed.
p3438
sba(i__main__
Sentence
p3439
(dp3440
g17
I79
sg18
(lp3441
S'She'
p3442
aS'had'
p3443
aS'taken'
p3444
aS'an'
p3445
aS'early'
p3446
aS'morning'
p3447
aS'train'
p3448
aS'to'
p3449
aS'the'
p3450
aS'city'
p3451
aS'.'
p3452
asg48
(lp3453
VShe
p3454
ag132
aVtake
p3455
aVan
p3456
aVearly
p3457
aVmorning
p3458
aVtrain
p3459
aVto
p3460
aVthe
p3461
aVcity
p3462
ag75
asg76
(lp3463
g78
ag78
ag78
ag78
ag78
ag78
ag78
ag78
ag78
ag78
ag78
asg81
(lp3464
g160
ag84
ag87
ag85
ag161
ag92
ag92
ag88
ag85
ag92
ag96
asg97
VShe had taken an early morning train to the city.
p3465
sba(i__main__
Sentence
p3466
(dp3467
g17
I80
sg18
(lp3468
S'She'
p3469
aS'did'
p3470
aS'not'
p3471
aS'return'
p3472
aS'till'
p3473
aS'Gouvernail'
p3474
aS'was'
p3475
aS'gone'
p3476
aS'from'
p3477
aS'under'
p3478
aS'her'
p3479
aS'roof'
p3480
aS'.'
p3481
asg48
(lp3482
VShe
p3483
ag432
aVnot
p3484
aVreturn
p3485
aVtill
p3486
aVGouvernail
p3487
ag52
ag2034
aVfrom
p3488
aVunder
p3489
aVher
p3490
aVroof
p3491
ag75
asg76
(lp3492
g78
ag78
ag78
ag78
ag78
aVPERSON
p3493
ag78
ag78
ag78
ag78
ag78
ag78
ag78
asg81
(lp3494
g160
ag84
ag86
ag89
ag86
ag83
ag84
ag87
ag90
ag90
ag91
ag92
ag96
asg97
VShe did not return till Gouvernail was gone from under her roof.
p3495
sba(i__main__
Sentence
p3496
(dp3497
g17
I81
sg18
(lp3498
S'There'
p3499
aS'was'
p3500
aS'some'
p3501
aS'talk'
p3502
aS'of'
p3503
aS'having'
p3504
aS'him'
p3505
aS'back'
p3506
aS'during'
p3507
aS'the'
p3508
aS'summer'
p3509
aS'that'
p3510
aS'followed'
p3511
aS'.'
p3512
asg48
(lp3513
VThere
p3514
ag52
aVsome
p3515
aVtalk
p3516
aVof
p3517
aVhave
p3518
aVhim
p3519
aVback
p3520
aVduring
p3521
aVthe
p3522
aVsummer
p3523
aVthat
p3524
aVfollow
p3525
ag75
asg76
(lp3526
g78
ag78
ag78
ag78
ag78
ag78
ag78
ag78
ag78
ag78
ag78
ag78
ag78
ag78
asg81
(lp3527
g2723
ag84
ag85
ag92
ag90
ag236
ag160
ag86
ag90
ag85
ag92
ag90
ag87
ag96
asg97
VThere was some talk of having him back during the summer that followed.
p3528
sba(i__main__
Sentence
p3529
(dp3530
g17
I82
sg18
(lp3531
S'That'
p3532
aS'is'
p3533
aS','
p3534
aS'Gaston'
p3535
aS'greatly'
p3536
aS'desired'
p3537
aS'it'
p3538
aS';'
p3539
aS'but'
p3540
aS'this'
p3541
aS'desire'
p3542
aS'yielded'
p3543
aS'to'
p3544
aS'his'
p3545
aS'wife'
p3546
aS"'s"
p3547
aS'strenuous'
p3548
aS'opposition'
p3549
aS'.'
p3550
asg48
(lp3551
VThat
p3552
ag885
ag64
aVGaston
p3553
aVgreatly
p3554
aVdesire
p3555
aVit
p3556
ag139
aVbut
p3557
aVthis
p3558
aVdesire
p3559
aVyield
p3560
aVto
p3561
aVhis
p3562
aVwife
p3563
aV's
p3564
aVstrenuous
p3565
aVopposition
p3566
ag75
asg76
(lp3567
g78
ag78
ag78
aVPERSON
p3568
ag78
ag78
ag78
ag78
ag78
ag78
ag78
ag78
ag78
ag78
ag78
ag78
ag78
ag78
ag78
asg81
(lp3569
g85
ag916
ag93
ag83
ag86
ag84
ag160
ag162
ag94
ag85
ag92
ag84
ag88
ag91
ag92
ag350
ag161
ag92
ag96
asg97
VThat is, Gaston greatly desired it; but this desire yielded to his wife's strenuous opposition.
p3570
sba(i__main__
Sentence
p3571
(dp3572
g17
I83
sg18
(lp3573
S'However'
p3574
aS','
p3575
aS'before'
p3576
aS'the'
p3577
aS'year'
p3578
aS'ended'
p3579
aS','
p3580
aS'she'
p3581
aS'proposed'
p3582
aS','
p3583
aS'wholly'
p3584
aS'from'
p3585
aS'herself'
p3586
aS','
p3587
aS'to'
p3588
aS'have'
p3589
aS'Gouvernail'
p3590
aS'visit'
p3591
aS'them'
p3592
aS'again'
p3593
aS'.'
p3594
asg48
(lp3595
VHowever
p3596
ag64
aVbefore
p3597
aVthe
p3598
aVyear
p3599
aVend
p3600
ag64
aVshe
p3601
aVpropose
p3602
ag64
aVwholly
p3603
aVfrom
p3604
aVherself
p3605
ag64
aVto
p3606
aVhave
p3607
aVGouvernail
p3608
aVvisit
p3609
aVthem
p3610
aVagain
p3611
ag75
asg76
(lp3612
g78
ag78
ag78
ag78
ag78
ag78
ag78
ag78
ag78
ag78
ag78
ag78
ag78
ag78
ag78
ag78
aVPERSON
p3613
ag78
ag78
ag78
ag78
asg81
(lp3614
g86
ag93
ag90
ag85
ag92
ag84
ag93
ag160
ag84
ag93
ag86
ag90
ag160
ag93
ag88
ag89
ag83
ag92
ag160
ag86
ag96
asg97
VHowever, before the year ended, she proposed, wholly from herself, to have Gouvernail visit them again.
p3615
sba(i__main__
Sentence
p3616
(dp3617
g17
I84
sg18
(lp3618
S'Her'
p3619
aS'husband'
p3620
aS'was'
p3621
aS'surprised'
p3622
aS'and'
p3623
aS'delighted'
p3624
aS'with'
p3625
aS'the'
p3626
aS'suggestion'
p3627
aS'coming'
p3628
aS'from'
p3629
aS'her'
p3630
aS'.'
p3631
asg48
(lp3632
VHer
p3633
aVhusband
p3634
ag52
aVsurprise
p3635
aVand
p3636
aVdelight
p3637
aVwith
p3638
aVthe
p3639
aVsuggestion
p3640
aVcome
p3641
aVfrom
p3642
aVher
p3643
ag75
asg76
(lp3644
g78
ag78
ag78
ag78
ag78
ag78
ag78
ag78
ag78
ag78
ag78
ag78
ag78
asg81
(lp3645
g91
ag92
ag84
ag87
ag94
ag87
ag90
ag85
ag92
ag236
ag90
ag91
ag96
asg97
VHer husband was surprised and delighted with the suggestion coming from her.
p3646
sba(i__main__
Sentence
p3647
(dp3648
g17
I85
sg18
(lp3649
S'``'
p3650
aS'I'
p3651
aS'am'
p3652
aS'glad'
p3653
aS','
p3654
aS'chere'
p3655
aS'amie'
p3656
aS','
p3657
aS'to'
p3658
aS'know'
p3659
aS'that'
p3660
aS'you'
p3661
aS'have'
p3662
aS'finally'
p3663
aS'overcome'
p3664
aS'your'
p3665
aS'dislike'
p3666
aS'for'
p3667
aS'him'
p3668
aS';'
p3669
aS'truly'
p3670
aS'he'
p3671
aS'did'
p3672
aS'not'
p3673
aS'deserve'
p3674
aS'it'
p3675
aS'.'
p3676
aS"''"
p3677
asg48
(lp3678
V``
p3679
ag887
aVbe
p3680
aVglad
p3681
ag64
aVchere
p3682
aVamie
p3683
ag64
aVto
p3684
aVknow
p3685
aVthat
p3686
aVyou
p3687
aVhave
p3688
aVfinally
p3689
aVovercome
p3690
aVyour
p3691
aVdislike
p3692
aVfor
p3693
aVhim
p3694
ag139
aVtruly
p3695
aVhe
p3696
ag432
aVnot
p3697
aVdeserve
p3698
aVit
p3699
ag75
aV''
p3700
asg76
(lp3701
g78
ag78
ag78
ag78
ag78
ag78
ag78
ag78
ag78
ag78
ag78
ag78
ag78
ag78
ag78
ag78
ag78
ag78
ag78
ag78
ag78
ag78
ag78
ag78
ag78
ag78
ag78
ag78
asg81
(lp3702
g351
ag160
ag497
ag161
ag93
ag86
ag89
ag93
ag88
ag89
ag90
ag160
ag497
ag86
ag87
ag91
ag92
ag90
ag160
ag162
ag86
ag160
ag84
ag86
ag89
ag160
ag96
ag352
asg97
V"I am glad, chere amie, to know that you have finally overcome your dislike for him; truly he did not deserve it."
p3703
sba(i__main__
Sentence
p3704
(dp3705
g17
I86
sg18
(lp3706
S'``'
p3707
aS'Oh'
p3708
aS','
p3709
aS"''"
p3710
aS'she'
p3711
aS'told'
p3712
aS'him'
p3713
aS','
p3714
aS'laughingly'
p3715
aS','
p3716
aS'after'
p3717
aS'pressing'
p3718
aS'a'
p3719
aS'long'
p3720
aS','
p3721
aS'tender'
p3722
aS'kiss'
p3723
aS'upon'
p3724
aS'his'
p3725
aS'lips'
p3726
aS','
p3727
aS'``'
p3728
aS'I'
p3729
aS'have'
p3730
aS'overcome'
p3731
aS'everything'
p3732
aS'!'
p3733
asg48
(lp3734
V``
p3735
aVOh
p3736
ag64
aV''
p3737
aVshe
p3738
ag2394
aVhim
p3739
ag64
aVlaughingly
p3740
ag64
aVafter
p3741
aVpress
p3742
ag53
aVlong
p3743
ag64
aVtender
p3744
aVkiss
p3745
aVupon
p3746
aVhis
p3747
aVlip
p3748
ag64
aV``
p3749
ag887
aVhave
p3750
aVovercome
p3751
aVeverything
p3752
ag1741
asg76
(lp3753
g78
ag78
ag78
ag78
ag78
ag78
ag78
ag78
ag78
ag78
ag78
ag78
ag78
ag78
ag78
ag78
ag78
ag78
ag78
ag78
ag78
ag78
ag78
ag78
ag78
ag78
ag78
asg81
(lp3754
g351
aS'UH'
p3755
ag93
ag352
ag160
ag84
ag160
ag93
ag86
ag93
ag90
ag236
ag85
ag161
ag93
ag92
ag92
ag90
ag91
ag163
ag93
ag351
ag160
ag497
ag87
ag236
ag96
asg97
V"Oh," she told him, laughingly, after pressing a long, tender kiss upon his lips, "I have overcome everything!
p3756
sba(i__main__
Sentence
p3757
(dp3758
g17
I87
sg18
(lp3759
S'you'
p3760
aS'will'
p3761
aS'see'
p3762
aS'.'
p3763
asg48
(lp3764
Vyou
p3765
aVwill
p3766
aVsee
p3767
ag75
asg76
(lp3768
g78
ag78
ag78
ag78
asg81
(lp3769
g160
ag438
ag89
ag96
asg97
Vyou will see.
p3770
sba(i__main__
Sentence
p3771
(dp3772
g17
I88
sg18
(lp3773
S'This'
p3774
aS'time'
p3775
aS'I'
p3776
aS'shall'
p3777
aS'be'
p3778
aS'very'
p3779
aS'nice'
p3780
aS'to'
p3781
aS'him'
p3782
aS'.'
p3783
aS"''"
p3784
asg48
(lp3785
VThis
p3786
aVtime
p3787
ag887
aVshall
p3788
aVbe
p3789
aVvery
p3790
aVnice
p3791
aVto
p3792
aVhim
p3793
ag75
aV''
p3794
asg76
(lp3795
g78
ag78
ag78
ag78
ag78
ag78
ag78
ag78
ag78
ag78
ag78
asg81
(lp3796
g85
ag92
ag160
ag438
ag89
ag86
ag161
ag88
ag160
ag96
ag352
asg97
VThis time I shall be very nice to him."
p3797
sbasbsS'summary'
p3798
g0
(g7
g2
Ntp3799
Rp3800
(dp3801
g11
S'Mrs. Baroda is somewhat disappointed to learn that her husband\'s friend Gouvernail is planning to spend a week or two at their plantation, since they had been busy all winter, and she had planned a period of rest and conversation with her husband Gaston Baroda. She has never met Gouvernail, although she knows that he and her husband had been friends in college and that he is now a journalist. She pictures him as a tall, slim, cynical man and did not like the mental image, but when she meets the slim but neither tall nor cynical Gouvernail, she finds that she actually likes him.\n\n\n\nMrs. Baroda cannot discern why she likes Gouvernail, since she does not see all of the positive traits described by Gaston. He does not seem brilliant, but he does seem quiet and courteous in response to her eagerness to welcome him and her husband\'s hospitality. He makes no particular attempt to impress her otherwise, and he enjoys sitting on the portico and listening to Gaston describe sugar planting, although he does not like to fish or hunt.\n\n\n\nAlthough Gouvernail puzzles Mrs. Baroda, he is lovable and inoffensive. She leaves him alone with her husband at first but soon begins to accompany him on walks as she attempts to overcome his reticence. Her husband tells her that he will stay for another week and asks why she does not wish him to stay. She responds that she would prefer him to be more demanding, which amuses Gaston.\n\n\n\nGaston tells Mrs. Baroda that Gouvernail does not expect a commotion over his presence and that he simply wishes for a break from his busy life, although she declares that she expected him to be more interesting. Later that night, she sits by herself on a bench, feeling confused and wanting to leave the plantation for a while, having told her husband that she might go to the city in the morning and stay with her aunt. While she sits, Gouvernail sees her and sits next to her, not knowing her displeasure at his presence.\n\n\n\nGouvernail hands her a scarf on Gaston\'s behalf and murmurs about the night, and his silence disappears as he becomes talkative for the first time. He speaks to her of the old days and of his desire for a peaceful existence. She does not listen to his words so much as his voice, and she thinks of drawing him closer, although she resists because she is "a respectable woman." Eventually, she leaves, and Gouvernail remains behind, finishing his address to the night.\n\n\n\nMrs. Baroda wants to tell Gaston of her strange folly, but she realizes sensibly that she must handle this feeling by herself. The next morning, she leaves for the city and does not return until Gouvernail departs. Gaston wants Gouvernail to return the next summer, but she refuses. She later changes her mind, delighting her husband, who tells her that Gouvernail did not deserve her dislike. She kisses her husband and tells him that she has "overcome everything" and that she will now treat him more nicely.'
p3802
sg13
(lp3803
(i__main__
Sentence
p3804
(dp3805
g17
I0
sg18
(lp3806
S'Mrs.'
p3807
aS'Baroda'
p3808
aS'is'
p3809
aS'somewhat'
p3810
aS'disappointed'
p3811
aS'to'
p3812
aS'learn'
p3813
aS'that'
p3814
aS'her'
p3815
aS'husband'
p3816
aS"'s"
p3817
aS'friend'
p3818
aS'Gouvernail'
p3819
aS'is'
p3820
aS'planning'
p3821
aS'to'
p3822
aS'spend'
p3823
aS'a'
p3824
aS'week'
p3825
aS'or'
p3826
aS'two'
p3827
aS'at'
p3828
aS'their'
p3829
aS'plantation'
p3830
aS','
p3831
aS'since'
p3832
aS'they'
p3833
aS'had'
p3834
aS'been'
p3835
aS'busy'
p3836
aS'all'
p3837
aS'winter'
p3838
aS','
p3839
aS'and'
p3840
aS'she'
p3841
aS'had'
p3842
aS'planned'
p3843
aS'a'
p3844
aS'period'
p3845
aS'of'
p3846
aS'rest'
p3847
aS'and'
p3848
aS'conversation'
p3849
aS'with'
p3850
aS'her'
p3851
aS'husband'
p3852
aS'Gaston'
p3853
aS'Baroda'
p3854
aS'.'
p3855
asg48
(lp3856
VMrs.
p3857
aVBaroda
p3858
ag885
aVsomewhat
p3859
aVdisappoint
p3860
aVto
p3861
aVlearn
p3862
aVthat
p3863
aVher
p3864
aVhusband
p3865
aV's
p3866
aVfriend
p3867
aVGouvernail
p3868
ag885
aVplan
p3869
aVto
p3870
aVspend
p3871
ag53
aVweek
p3872
aVor
p3873
aVtwo
p3874
aVat
p3875
aVtheir
p3876
aVplantation
p3877
ag64
aVsince
p3878
aVthey
p3879
ag132
ag145
aVbusy
p3880
aVall
p3881
aVwinter
p3882
ag64
aVand
p3883
aVshe
p3884
ag132
aVplan
p3885
ag53
aVperiod
p3886
aVof
p3887
aVrest
p3888
aVand
p3889
aVconversation
p3890
aVwith
p3891
aVher
p3892
aVhusband
p3893
aVGaston
p3894
aVBaroda
p3895
ag75
asg76
(lp3896
g78
aVPERSON
p3897
ag78
ag78
ag78
ag78
ag78
ag78
ag78
ag78
ag78
ag78
aVPERSON
p3898
ag78
ag78
ag78
ag78
ag78
ag78
ag78
ag78
ag78
ag78
ag78
ag78
ag78
ag78
ag78
ag78
ag78
ag78
ag78
ag78
ag78
ag78
ag78
ag78
ag78
ag78
ag78
ag78
ag78
ag78
ag78
ag78
ag78
aVPERSON
p3899
aVPERSON
p3900
ag78
asg81
(lp3901
g83
ag83
ag916
ag86
ag87
ag88
ag89
ag90
ag91
ag92
ag350
ag92
ag83
ag916
ag236
ag88
ag89
ag85
ag92
ag94
ag95
ag90
ag91
ag92
ag93
ag90
ag160
ag84
ag87
ag161
ag85
ag92
ag93
ag94
ag160
ag84
ag87
ag85
ag92
ag90
ag92
ag94
ag92
ag90
ag91
ag92
ag83
ag83
ag96
asg97
VMrs. Baroda is somewhat disappointed to learn that her husband's friend Gouvernail is planning to spend a week or two at their plantation, since they had been busy all winter, and she had planned a period of rest and conversation with her husband Gaston Baroda.
p3902
sba(i__main__
Sentence
p3903
(dp3904
g17
I1
sg18
(lp3905
S'She'
p3906
aS'has'
p3907
aS'never'
p3908
aS'met'
p3909
aS'Gouvernail'
p3910
aS','
p3911
aS'although'
p3912
aS'she'
p3913
aS'knows'
p3914
aS'that'
p3915
aS'he'
p3916
aS'and'
p3917
aS'her'
p3918
aS'husband'
p3919
aS'had'
p3920
aS'been'
p3921
aS'friends'
p3922
aS'in'
p3923
aS'college'
p3924
aS'and'
p3925
aS'that'
p3926
aS'he'
p3927
aS'is'
p3928
aS'now'
p3929
aS'a'
p3930
aS'journalist'
p3931
aS'.'
p3932
asg48
(lp3933
VShe
p3934
aVhave
p3935
aVnever
p3936
ag346
aVGouvernail
p3937
ag64
aValthough
p3938
aVshe
p3939
aVknow
p3940
aVthat
p3941
aVhe
p3942
aVand
p3943
aVher
p3944
aVhusband
p3945
ag132
ag145
aVfriend
p3946
aVin
p3947
aVcollege
p3948
aVand
p3949
aVthat
p3950
aVhe
p3951
ag885
aVnow
p3952
ag53
aVjournalist
p3953
ag75
asg76
(lp3954
g78
ag78
ag78
ag78
aVPERSON
p3955
ag78
ag78
ag78
ag78
ag78
ag78
ag78
ag78
ag78
ag78
ag78
ag78
ag78
ag78
ag78
ag78
ag78
ag78
ag78
ag78
ag78
ag78
asg81
(lp3956
g160
ag916
ag86
ag87
ag83
ag93
ag90
ag160
ag916
ag90
ag160
ag94
ag91
ag92
ag84
ag87
ag163
ag90
ag92
ag94
ag90
ag160
ag916
ag86
ag85
ag92
ag96
asg97
VShe has never met Gouvernail, although she knows that he and her husband had been friends in college and that he is now a journalist.
p3957
sba(i__main__
Sentence
p3958
(dp3959
g17
I2
sg18
(lp3960
S'She'
p3961
aS'pictures'
p3962
aS'him'
p3963
aS'as'
p3964
aS'a'
p3965
aS'tall'
p3966
aS','
p3967
aS'slim'
p3968
aS','
p3969
aS'cynical'
p3970
aS'man'
p3971
aS'and'
p3972
aS'did'
p3973
aS'not'
p3974
aS'like'
p3975
aS'the'
p3976
aS'mental'
p3977
aS'image'
p3978
aS','
p3979
aS'but'
p3980
aS'when'
p3981
aS'she'
p3982
aS'meets'
p3983
aS'the'
p3984
aS'slim'
p3985
aS'but'
p3986
aS'neither'
p3987
aS'tall'
p3988
aS'nor'
p3989
aS'cynical'
p3990
aS'Gouvernail'
p3991
aS','
p3992
aS'she'
p3993
aS'finds'
p3994
aS'that'
p3995
aS'she'
p3996
aS'actually'
p3997
aS'likes'
p3998
aS'him'
p3999
aS'.'
p4000
asg48
(lp4001
VShe
p4002
aVpicture
p4003
aVhim
p4004
ag53
ag53
aVtall
p4005
ag64
aVslim
p4006
ag64
aVcynical
p4007
aVman
p4008
aVand
p4009
ag432
aVnot
p4010
aVlike
p4011
aVthe
p4012
aVmental
p4013
aVimage
p4014
ag64
aVbut
p4015
aVwhen
p4016
aVshe
p4017
aVmeet
p4018
aVthe
p4019
aVslim
p4020
aVbut
p4021
aVneither
p4022
aVtall
p4023
aVnor
p4024
aVcynical
p4025
aVGouvernail
p4026
ag64
aVshe
p4027
aVfind
p4028
aVthat
p4029
aVshe
p4030
aVactually
p4031
aVlike
p4032
aVhim
p4033
ag75
asg76
(lp4034
g78
ag78
ag78
ag78
ag78
ag78
ag78
ag78
ag78
ag78
ag78
ag78
ag78
ag78
ag78
ag78
ag78
ag78
ag78
ag78
ag78
ag78
ag78
ag78
ag78
ag78
ag78
ag78
ag78
ag78
aVLOCATION
p4035
ag78
ag78
ag78
ag78
ag78
ag78
ag78
ag78
ag78
asg81
(lp4036
g160
ag916
ag160
ag90
ag85
ag161
ag93
ag92
ag93
ag161
ag92
ag94
ag84
ag86
ag90
ag85
ag161
ag92
ag93
ag94
ag237
ag160
ag916
ag85
ag92
ag94
ag85
ag161
ag94
ag161
ag83
ag93
ag160
ag916
ag90
ag160
ag86
ag916
ag160
ag96
asg97
VShe pictures him as a tall, slim, cynical man and did not like the mental image, but when she meets the slim but neither tall nor cynical Gouvernail, she finds that she actually likes him.
p4037
sba(i__main__
Sentence
p4038
(dp4039
g17
I3
sg18
(lp4040
S'Mrs.'
p4041
aS'Baroda'
p4042
aS'can'
p4043
aS'not'
p4044
aS'discern'
p4045
aS'why'
p4046
aS'she'
p4047
aS'likes'
p4048
aS'Gouvernail'
p4049
aS','
p4050
aS'since'
p4051
aS'she'
p4052
aS'does'
p4053
aS'not'
p4054
aS'see'
p4055
aS'all'
p4056
aS'of'
p4057
aS'the'
p4058
aS'positive'
p4059
aS'traits'
p4060
aS'described'
p4061
aS'by'
p4062
aS'Gaston'
p4063
aS'.'
p4064
asg48
(lp4065
VMrs.
p4066
aVBaroda
p4067
aVcan
p4068
aVnot
p4069
aVdiscern
p4070
aVwhy
p4071
aVshe
p4072
aVlike
p4073
aVGouvernail
p4074
ag64
aVsince
p4075
aVshe
p4076
aVdo
p4077
aVnot
p4078
aVsee
p4079
aVall
p4080
aVof
p4081
aVthe
p4082
aVpositive
p4083
aVtrait
p4084
aVdescribe
p4085
aVby
p4086
aVGaston
p4087
ag75
asg76
(lp4088
g78
aVPERSON
p4089
ag78
ag78
ag78
ag78
ag78
ag78
aVPERSON
p4090
ag78
ag78
ag78
ag78
ag78
ag78
ag78
ag78
ag78
ag78
ag78
ag78
ag78
aVPERSON
p4091
ag78
asg81
(lp4092
g83
ag83
ag438
ag86
ag89
ag237
ag160
ag916
ag83
ag93
ag90
ag160
ag916
ag86
ag89
ag85
ag90
ag85
ag161
ag163
ag84
ag90
ag83
ag96
asg97
VMrs. Baroda cannot discern why she likes Gouvernail, since she does not see all of the positive traits described by Gaston.
p4093
sba(i__main__
Sentence
p4094
(dp4095
g17
I4
sg18
(lp4096
S'He'
p4097
aS'does'
p4098
aS'not'
p4099
aS'seem'
p4100
aS'brilliant'
p4101
aS','
p4102
aS'but'
p4103
aS'he'
p4104
aS'does'
p4105
aS'seem'
p4106
aS'quiet'
p4107
aS'and'
p4108
aS'courteous'
p4109
aS'in'
p4110
aS'response'
p4111
aS'to'
p4112
aS'her'
p4113
aS'eagerness'
p4114
aS'to'
p4115
aS'welcome'
p4116
aS'him'
p4117
aS'and'
p4118
aS'her'
p4119
aS'husband'
p4120
aS"'s"
p4121
aS'hospitality'
p4122
aS'.'
p4123
asg48
(lp4124
VHe
p4125
aVdo
p4126
aVnot
p4127
aVseem
p4128
aVbrilliant
p4129
ag64
aVbut
p4130
aVhe
p4131
aVdo
p4132
aVseem
p4133
aVquiet
p4134
aVand
p4135
aVcourteous
p4136
aVin
p4137
aVresponse
p4138
aVto
p4139
aVher
p4140
aVeagerness
p4141
aVto
p4142
aVwelcome
p4143
aVhim
p4144
aVand
p4145
aVher
p4146
aVhusband
p4147
aV's
p4148
aVhospitality
p4149
ag75
asg76
(lp4150
g78
ag78
ag78
ag78
ag78
ag78
ag78
ag78
ag78
ag78
ag78
ag78
ag78
ag78
ag78
ag78
ag78
ag78
ag78
ag78
ag78
ag78
ag78
ag78
ag78
ag78
ag78
asg81
(lp4151
g160
ag916
ag86
ag89
ag161
ag93
ag94
ag160
ag916
ag89
ag161
ag94
ag161
ag90
ag92
ag88
ag91
ag92
ag88
ag89
ag160
ag94
ag91
ag92
ag350
ag92
ag96
asg97
VHe does not seem brilliant, but he does seem quiet and courteous in response to her eagerness to welcome him and her husband's hospitality.
p4152
sba(i__main__
Sentence
p4153
(dp4154
g17
I5
sg18
(lp4155
S'He'
p4156
aS'makes'
p4157
aS'no'
p4158
aS'particular'
p4159
aS'attempt'
p4160
aS'to'
p4161
aS'impress'
p4162
aS'her'
p4163
aS'otherwise'
p4164
aS','
p4165
aS'and'
p4166
aS'he'
p4167
aS'enjoys'
p4168
aS'sitting'
p4169
aS'on'
p4170
aS'the'
p4171
aS'portico'
p4172
aS'and'
p4173
aS'listening'
p4174
aS'to'
p4175
aS'Gaston'
p4176
aS'describe'
p4177
aS'sugar'
p4178
aS'planting'
p4179
aS','
p4180
aS'although'
p4181
aS'he'
p4182
aS'does'
p4183
aS'not'
p4184
aS'like'
p4185
aS'to'
p4186
aS'fish'
p4187
aS'or'
p4188
aS'hunt'
p4189
aS'.'
p4190
asg48
(lp4191
VHe
p4192
aVmake
p4193
aVno
p4194
aVparticular
p4195
aVattempt
p4196
aVto
p4197
aVimpress
p4198
aVher
p4199
aVotherwise
p4200
ag64
aVand
p4201
aVhe
p4202
aVenjoy
p4203
aVsit
p4204
aVon
p4205
aVthe
p4206
aVportico
p4207
aVand
p4208
aVlisten
p4209
aVto
p4210
aVGaston
p4211
aVdescribe
p4212
aVsugar
p4213
aVplanting
p4214
ag64
aValthough
p4215
aVhe
p4216
aVdo
p4217
aVnot
p4218
aVlike
p4219
aVto
p4220
aVfish
p4221
aVor
p4222
aVhunt
p4223
ag75
asg76
(lp4224
g78
ag78
ag78
ag78
ag78
ag78
ag78
ag78
ag78
ag78
ag78
ag78
ag78
ag78
ag78
ag78
ag78
ag78
ag78
ag78
aVPERSON
p4225
ag78
ag78
ag78
ag78
ag78
ag78
ag78
ag78
ag78
ag78
ag78
ag78
ag78
ag78
asg81
(lp4226
g160
ag916
ag85
ag161
ag92
ag88
ag92
ag91
ag92
ag93
ag94
ag160
ag916
ag236
ag90
ag85
ag92
ag94
ag236
ag88
ag83
ag92
ag92
ag92
ag93
ag90
ag160
ag916
ag86
ag90
ag88
ag89
ag94
ag92
ag96
asg97
VHe makes no particular attempt to impress her otherwise, and he enjoys sitting on the portico and listening to Gaston describe sugar planting, although he does not like to fish or hunt.
p4227
sba(i__main__
Sentence
p4228
(dp4229
g17
I6
sg18
(lp4230
S'Although'
p4231
aS'Gouvernail'
p4232
aS'puzzles'
p4233
aS'Mrs.'
p4234
aS'Baroda'
p4235
aS','
p4236
aS'he'
p4237
aS'is'
p4238
aS'lovable'
p4239
aS'and'
p4240
aS'inoffensive'
p4241
aS'.'
p4242
asg48
(lp4243
VAlthough
p4244
aVGouvernail
p4245
aVpuzzle
p4246
aVMrs.
p4247
aVBaroda
p4248
ag64
aVhe
p4249
ag885
aVlovable
p4250
aVand
p4251
aVinoffensive
p4252
ag75
asg76
(lp4253
g78
ag78
ag78
ag78
aVPERSON
p4254
ag78
ag78
ag78
ag78
ag78
ag78
ag78
asg81
(lp4255
g90
ag83
ag163
ag83
ag83
ag93
ag160
ag916
ag161
ag94
ag161
ag96
asg97
VAlthough Gouvernail puzzles Mrs. Baroda, he is lovable and inoffensive.
p4256
sba(i__main__
Sentence
p4257
(dp4258
g17
I7
sg18
(lp4259
S'She'
p4260
aS'leaves'
p4261
aS'him'
p4262
aS'alone'
p4263
aS'with'
p4264
aS'her'
p4265
aS'husband'
p4266
aS'at'
p4267
aS'first'
p4268
aS'but'
p4269
aS'soon'
p4270
aS'begins'
p4271
aS'to'
p4272
aS'accompany'
p4273
aS'him'
p4274
aS'on'
p4275
aS'walks'
p4276
aS'as'
p4277
aS'she'
p4278
aS'attempts'
p4279
aS'to'
p4280
aS'overcome'
p4281
aS'his'
p4282
aS'reticence'
p4283
aS'.'
p4284
asg48
(lp4285
VShe
p4286
aVleave
p4287
aVhim
p4288
aValone
p4289
aVwith
p4290
aVher
p4291
aVhusband
p4292
aVat
p4293
aVfirst
p4294
aVbut
p4295
aVsoon
p4296
aVbegin
p4297
aVto
p4298
aVaccompany
p4299
aVhim
p4300
aVon
p4301
aVwalk
p4302
ag53
aVshe
p4303
aVattempt
p4304
aVto
p4305
aVovercome
p4306
aVhis
p4307
aVreticence
p4308
ag75
asg76
(lp4309
g78
ag78
ag78
ag78
ag78
ag78
ag78
ag78
ag78
ag78
ag78
ag78
ag78
ag78
ag78
ag78
ag78
ag78
ag78
ag78
ag78
ag78
ag78
ag78
ag78
asg81
(lp4310
g160
ag916
ag160
ag86
ag90
ag91
ag92
ag90
ag161
ag94
ag86
ag916
ag88
ag85
ag160
ag90
ag163
ag90
ag160
ag916
ag88
ag89
ag91
ag92
ag96
asg97
VShe leaves him alone with her husband at first but soon begins to accompany him on walks as she attempts to overcome his reticence.
p4311
sba(i__main__
Sentence
p4312
(dp4313
g17
I8
sg18
(lp4314
S'Her'
p4315
aS'husband'
p4316
aS'tells'
p4317
aS'her'
p4318
aS'that'
p4319
aS'he'
p4320
aS'will'
p4321
aS'stay'
p4322
aS'for'
p4323
aS'another'
p4324
aS'week'
p4325
aS'and'
p4326
aS'asks'
p4327
aS'why'
p4328
aS'she'
p4329
aS'does'
p4330
aS'not'
p4331
aS'wish'
p4332
aS'him'
p4333
aS'to'
p4334
aS'stay'
p4335
aS'.'
p4336
asg48
(lp4337
VHer
p4338
aVhusband
p4339
aVtell
p4340
aVher
p4341
aVthat
p4342
aVhe
p4343
aVwill
p4344
aVstay
p4345
aVfor
p4346
aVanother
p4347
aVweek
p4348
aVand
p4349
aVask
p4350
aVwhy
p4351
aVshe
p4352
aVdo
p4353
aVnot
p4354
aVwish
p4355
aVhim
p4356
aVto
p4357
aVstay
p4358
ag75
asg76
(lp4359
g78
ag78
ag78
ag78
ag78
ag78
ag78
ag78
ag78
ag78
ag78
ag78
ag78
ag78
ag78
ag78
ag78
ag78
ag78
ag78
ag78
ag78
asg81
(lp4360
g91
ag92
ag163
ag91
ag90
ag160
ag438
ag89
ag90
ag85
ag92
ag94
ag916
ag237
ag160
ag916
ag86
ag89
ag160
ag88
ag89
ag96
asg97
VHer husband tells her that he will stay for another week and asks why she does not wish him to stay.
p4361
sba(i__main__
Sentence
p4362
(dp4363
g17
I9
sg18
(lp4364
S'She'
p4365
aS'responds'
p4366
aS'that'
p4367
aS'she'
p4368
aS'would'
p4369
aS'prefer'
p4370
aS'him'
p4371
aS'to'
p4372
aS'be'
p4373
aS'more'
p4374
aS'demanding'
p4375
aS','
p4376
aS'which'
p4377
aS'amuses'
p4378
aS'Gaston'
p4379
aS'.'
p4380
asg48
(lp4381
VShe
p4382
aVrespond
p4383
aVthat
p4384
aVshe
p4385
aVwould
p4386
aVprefer
p4387
aVhim
p4388
aVto
p4389
aVbe
p4390
aVmore
p4391
aVdemand
p4392
ag64
aVwhich
p4393
aVamuses
p4394
aVGaston
p4395
ag75
asg76
(lp4396
g78
ag78
ag78
ag78
ag78
ag78
ag78
ag78
ag78
ag78
ag78
ag78
ag78
ag78
aVPERSON
p4397
ag78
asg81
(lp4398
g160
ag916
ag90
ag160
ag438
ag89
ag160
ag88
ag89
ag1130
ag236
ag93
ag353
ag163
ag83
ag96
asg97
VShe responds that she would prefer him to be more demanding, which amuses Gaston.
p4399
sba(i__main__
Sentence
p4400
(dp4401
g17
I10
sg18
(lp4402
S'Gaston'
p4403
aS'tells'
p4404
aS'Mrs.'
p4405
aS'Baroda'
p4406
aS'that'
p4407
aS'Gouvernail'
p4408
aS'does'
p4409
aS'not'
p4410
aS'expect'
p4411
aS'a'
p4412
aS'commotion'
p4413
aS'over'
p4414
aS'his'
p4415
aS'presence'
p4416
aS'and'
p4417
aS'that'
p4418
aS'he'
p4419
aS'simply'
p4420
aS'wishes'
p4421
aS'for'
p4422
aS'a'
p4423
aS'break'
p4424
aS'from'
p4425
aS'his'
p4426
aS'busy'
p4427
aS'life'
p4428
aS','
p4429
aS'although'
p4430
aS'she'
p4431
aS'declares'
p4432
aS'that'
p4433
aS'she'
p4434
aS'expected'
p4435
aS'him'
p4436
aS'to'
p4437
aS'be'
p4438
aS'more'
p4439
aS'interesting'
p4440
aS'.'
p4441
asg48
(lp4442
VGaston
p4443
aVtell
p4444
aVMrs.
p4445
aVBaroda
p4446
aVthat
p4447
aVGouvernail
p4448
aVdo
p4449
aVnot
p4450
aVexpect
p4451
ag53
aVcommotion
p4452
aVover
p4453
aVhis
p4454
aVpresence
p4455
aVand
p4456
aVthat
p4457
aVhe
p4458
aVsimply
p4459
aVwish
p4460
aVfor
p4461
ag53
aVbreak
p4462
aVfrom
p4463
aVhis
p4464
aVbusy
p4465
aVlife
p4466
ag64
aValthough
p4467
aVshe
p4468
aVdeclare
p4469
aVthat
p4470
aVshe
p4471
aVexpect
p4472
aVhim
p4473
aVto
p4474
aVbe
p4475
aVmore
p4476
aVinteresting
p4477
ag75
asg76
(lp4478
VPERSON
p4479
ag78
ag78
aVPERSON
p4480
ag78
aVPERSON
p4481
ag78
ag78
ag78
ag78
ag78
ag78
ag78
ag78
ag78
ag78
ag78
ag78
ag78
ag78
ag78
ag78
ag78
ag78
ag78
ag78
ag78
ag78
ag78
ag78
ag78
ag78
ag78
ag78
ag78
ag78
ag78
ag78
ag78
asg81
(lp4482
g83
ag916
ag83
ag83
ag90
ag83
ag916
ag86
ag89
ag85
ag92
ag90
ag91
ag92
ag94
ag90
ag160
ag86
ag916
ag90
ag85
ag92
ag90
ag91
ag92
ag92
ag93
ag90
ag160
ag916
ag90
ag160
ag84
ag160
ag88
ag89
ag1130
ag161
ag96
asg97
VGaston tells Mrs. Baroda that Gouvernail does not expect a commotion over his presence and that he simply wishes for a break from his busy life, although she declares that she expected him to be more interesting.
p4483
sba(i__main__
Sentence
p4484
(dp4485
g17
I11
sg18
(lp4486
S'Later'
p4487
aS'that'
p4488
aS'night'
p4489
aS','
p4490
aS'she'
p4491
aS'sits'
p4492
aS'by'
p4493
aS'herself'
p4494
aS'on'
p4495
aS'a'
p4496
aS'bench'
p4497
aS','
p4498
aS'feeling'
p4499
aS'confused'
p4500
aS'and'
p4501
aS'wanting'
p4502
aS'to'
p4503
aS'leave'
p4504
aS'the'
p4505
aS'plantation'
p4506
aS'for'
p4507
aS'a'
p4508
aS'while'
p4509
aS','
p4510
aS'having'
p4511
aS'told'
p4512
aS'her'
p4513
aS'husband'
p4514
aS'that'
p4515
aS'she'
p4516
aS'might'
p4517
aS'go'
p4518
aS'to'
p4519
aS'the'
p4520
aS'city'
p4521
aS'in'
p4522
aS'the'
p4523
aS'morning'
p4524
aS'and'
p4525
aS'stay'
p4526
aS'with'
p4527
aS'her'
p4528
aS'aunt'
p4529
aS'.'
p4530
asg48
(lp4531
VLater
p4532
aVthat
p4533
aVnight
p4534
ag64
aVshe
p4535
aVsit
p4536
aVby
p4537
aVherself
p4538
aVon
p4539
ag53
aVbench
p4540
ag64
aVfeel
p4541
aVconfuse
p4542
aVand
p4543
aVwant
p4544
aVto
p4545
aVleave
p4546
aVthe
p4547
aVplantation
p4548
aVfor
p4549
ag53
aVwhile
p4550
ag64
aVhave
p4551
aVtold
p4552
aVher
p4553
aVhusband
p4554
aVthat
p4555
aVshe
p4556
aVmight
p4557
aVgo
p4558
aVto
p4559
aVthe
p4560
aVcity
p4561
aVin
p4562
aVthe
p4563
aVmorning
p4564
aVand
p4565
aVstay
p4566
aVwith
p4567
aVher
p4568
aVaunt
p4569
ag75
asg76
(lp4570
g78
ag78
ag78
ag78
ag78
ag78
ag78
ag78
ag78
ag78
ag78
ag78
ag78
ag78
ag78
ag78
ag78
ag78
ag78
ag78
ag78
ag78
ag78
ag78
ag78
ag78
ag78
ag78
ag78
ag78
ag78
ag78
ag78
ag78
ag78
ag78
ag78
ag78
ag78
ag78
ag78
ag78
ag78
ag78
asg81
(lp4571
g161
ag90
ag92
ag93
ag160
ag916
ag90
ag160
ag90
ag85
ag92
ag93
ag236
ag87
ag94
ag236
ag88
ag89
ag85
ag92
ag90
ag85
ag92
ag93
ag236
ag92
ag91
ag92
ag353
ag160
ag438
ag89
ag88
ag85
ag92
ag90
ag85
ag92
ag94
ag92
ag90
ag91
ag92
ag96
asg97
VLater that night, she sits by herself on a bench, feeling confused and wanting to leave the plantation for a while, having told her husband that she might go to the city in the morning and stay with her aunt.
p4572
sba(i__main__
Sentence
p4573
(dp4574
g17
I12
sg18
(lp4575
S'While'
p4576
aS'she'
p4577
aS'sits'
p4578
aS','
p4579
aS'Gouvernail'
p4580
aS'sees'
p4581
aS'her'
p4582
aS'and'
p4583
aS'sits'
p4584
aS'next'
p4585
aS'to'
p4586
aS'her'
p4587
aS','
p4588
aS'not'
p4589
aS'knowing'
p4590
aS'her'
p4591
aS'displeasure'
p4592
aS'at'
p4593
aS'his'
p4594
aS'presence'
p4595
aS'.'
p4596
asg48
(lp4597
VWhile
p4598
aVshe
p4599
aVsit
p4600
ag64
aVGouvernail
p4601
aVsee
p4602
aVher
p4603
aVand
p4604
aVsits
p4605
aVnext
p4606
aVto
p4607
aVher
p4608
ag64
aVnot
p4609
aVknow
p4610
aVher
p4611
aVdispleasure
p4612
aVat
p4613
aVhis
p4614
aVpresence
p4615
ag75
asg76
(lp4616
g78
ag78
ag78
ag78
aVPERSON
p4617
ag78
ag78
ag78
ag78
ag78
ag78
ag78
ag78
ag78
ag78
ag78
ag78
ag78
ag78
ag78
ag78
asg81
(lp4618
g90
ag160
ag916
ag93
ag83
ag163
ag91
ag94
ag163
ag90
ag88
ag91
ag93
ag86
ag236
ag160
ag92
ag90
ag91
ag92
ag96
asg97
VWhile she sits, Gouvernail sees her and sits next to her, not knowing her displeasure at his presence.
p4619
sba(i__main__
Sentence
p4620
(dp4621
g17
I13
sg18
(lp4622
S'Gouvernail'
p4623
aS'hands'
p4624
aS'her'
p4625
aS'a'
p4626
aS'scarf'
p4627
aS'on'
p4628
aS'Gaston'
p4629
aS"'s"
p4630
aS'behalf'
p4631
aS'and'
p4632
aS'murmurs'
p4633
aS'about'
p4634
aS'the'
p4635
aS'night'
p4636
aS','
p4637
aS'and'
p4638
aS'his'
p4639
aS'silence'
p4640
aS'disappears'
p4641
aS'as'
p4642
aS'he'
p4643
aS'becomes'
p4644
aS'talkative'
p4645
aS'for'
p4646
aS'the'
p4647
aS'first'
p4648
aS'time'
p4649
aS'.'
p4650
asg48
(lp4651
VGouvernail
p4652
aVhand
p4653
aVher
p4654
ag53
aVscarf
p4655
aVon
p4656
aVGaston
p4657
aV's
p4658
aVbehalf
p4659
aVand
p4660
aVmurmur
p4661
aVabout
p4662
aVthe
p4663
aVnight
p4664
ag64
aVand
p4665
aVhis
p4666
aVsilence
p4667
aVdisappears
p4668
ag53
aVhe
p4669
aVbecome
p4670
aVtalkative
p4671
aVfor
p4672
aVthe
p4673
aVfirst
p4674
aVtime
p4675
ag75
asg76
(lp4676
VPERSON
p4677
ag78
ag78
ag78
ag78
ag78
aVPERSON
p4678
ag78
ag78
ag78
ag78
ag78
ag78
ag78
ag78
ag78
ag78
ag78
ag78
ag78
ag78
ag78
ag78
ag78
ag78
ag78
ag78
ag78
asg81
(lp4679
g83
ag163
ag91
ag85
ag92
ag90
ag83
ag350
ag92
ag94
ag163
ag90
ag85
ag92
ag93
ag94
ag91
ag92
ag163
ag90
ag160
ag916
ag161
ag90
ag85
ag161
ag92
ag96
asg97
VGouvernail hands her a scarf on Gaston's behalf and murmurs about the night, and his silence disappears as he becomes talkative for the first time.
p4680
sba(i__main__
Sentence
p4681
(dp4682
g17
I14
sg18
(lp4683
S'He'
p4684
aS'speaks'
p4685
aS'to'
p4686
aS'her'
p4687
aS'of'
p4688
aS'the'
p4689
aS'old'
p4690
aS'days'
p4691
aS'and'
p4692
aS'of'
p4693
aS'his'
p4694
aS'desire'
p4695
aS'for'
p4696
aS'a'
p4697
aS'peaceful'
p4698
aS'existence'
p4699
aS'.'
p4700
asg48
(lp4701
VHe
p4702
aVspeak
p4703
aVto
p4704
aVher
p4705
aVof
p4706
aVthe
p4707
aVold
p4708
aVday
p4709
aVand
p4710
aVof
p4711
aVhis
p4712
aVdesire
p4713
aVfor
p4714
ag53
aVpeaceful
p4715
aVexistence
p4716
ag75
asg76
(lp4717
g78
ag78
ag78
ag78
ag78
ag78
ag78
ag78
ag78
ag78
ag78
ag78
ag78
ag78
ag78
ag78
ag78
asg81
(lp4718
g160
ag916
ag88
ag91
ag90
ag85
ag161
ag163
ag94
ag90
ag91
ag92
ag90
ag85
ag161
ag92
ag96
asg97
VHe speaks to her of the old days and of his desire for a peaceful existence.
p4719
sba(i__main__
Sentence
p4720
(dp4721
g17
I15
sg18
(lp4722
S'She'
p4723
aS'does'
p4724
aS'not'
p4725
aS'listen'
p4726
aS'to'
p4727
aS'his'
p4728
aS'words'
p4729
aS'so'
p4730
aS'much'
p4731
aS'as'
p4732
aS'his'
p4733
aS'voice'
p4734
aS','
p4735
aS'and'
p4736
aS'she'
p4737
aS'thinks'
p4738
aS'of'
p4739
aS'drawing'
p4740
aS'him'
p4741
aS'closer'
p4742
aS','
p4743
aS'although'
p4744
aS'she'
p4745
aS'resists'
p4746
aS'because'
p4747
aS'she'
p4748
aS'is'
p4749
aS'``'
p4750
aS'a'
p4751
aS'respectable'
p4752
aS'woman'
p4753
aS'.'
p4754
aS"''"
p4755
asg48
(lp4756
VShe
p4757
aVdo
p4758
aVnot
p4759
aVlisten
p4760
aVto
p4761
aVhis
p4762
aVword
p4763
aVso
p4764
aVmuch
p4765
ag53
aVhis
p4766
aVvoice
p4767
ag64
aVand
p4768
aVshe
p4769
aVthink
p4770
aVof
p4771
aVdraw
p4772
aVhim
p4773
aVclose
p4774
ag64
aValthough
p4775
aVshe
p4776
aVresist
p4777
aVbecause
p4778
aVshe
p4779
ag885
aV``
p4780
ag53
aVrespectable
p4781
aVwoman
p4782
ag75
aV''
p4783
asg76
(lp4784
g78
ag78
ag78
ag78
ag78
ag78
ag78
ag78
ag78
ag78
ag78
ag78
ag78
ag78
ag78
ag78
ag78
ag78
ag78
ag78
ag78
ag78
ag78
ag78
ag78
ag78
ag78
ag78
ag78
ag78
ag78
ag78
ag78
asg81
(lp4785
g160
ag916
ag86
ag87
ag88
ag91
ag163
ag86
ag86
ag90
ag91
ag92
ag93
ag94
ag160
ag916
ag90
ag236
ag160
ag1130
ag93
ag90
ag160
ag916
ag90
ag160
ag916
ag351
ag85
ag161
ag92
ag96
ag352
asg97
VShe does not listen to his words so much as his voice, and she thinks of drawing him closer, although she resists because she is "a respectable woman."
p4786
sba(i__main__
Sentence
p4787
(dp4788
g17
I16
sg18
(lp4789
S'Eventually'
p4790
aS','
p4791
aS'she'
p4792
aS'leaves'
p4793
aS','
p4794
aS'and'
p4795
aS'Gouvernail'
p4796
aS'remains'
p4797
aS'behind'
p4798
aS','
p4799
aS'finishing'
p4800
aS'his'
p4801
aS'address'
p4802
aS'to'
p4803
aS'the'
p4804
aS'night'
p4805
aS'.'
p4806
asg48
(lp4807
VEventually
p4808
ag64
aVshe
p4809
aVleave
p4810
ag64
aVand
p4811
aVGouvernail
p4812
aVremain
p4813
aVbehind
p4814
ag64
aVfinish
p4815
aVhis
p4816
aVaddress
p4817
aVto
p4818
aVthe
p4819
aVnight
p4820
ag75
asg76
(lp4821
g78
ag78
ag78
ag78
ag78
ag78
aVPERSON
p4822
ag78
ag78
ag78
ag78
ag78
ag78
ag78
ag78
ag78
ag78
asg81
(lp4823
g86
ag93
ag160
ag916
ag93
ag94
ag83
ag916
ag90
ag93
ag236
ag91
ag92
ag88
ag85
ag92
ag96
asg97
VEventually, she leaves, and Gouvernail remains behind, finishing his address to the night.
p4824
sba(i__main__
Sentence
p4825
(dp4826
g17
I17
sg18
(lp4827
S'Mrs.'
p4828
aS'Baroda'
p4829
aS'wants'
p4830
aS'to'
p4831
aS'tell'
p4832
aS'Gaston'
p4833
aS'of'
p4834
aS'her'
p4835
aS'strange'
p4836
aS'folly'
p4837
aS','
p4838
aS'but'
p4839
aS'she'
p4840
aS'realizes'
p4841
aS'sensibly'
p4842
aS'that'
p4843
aS'she'
p4844
aS'must'
p4845
aS'handle'
p4846
aS'this'
p4847
aS'feeling'
p4848
aS'by'
p4849
aS'herself'
p4850
aS'.'
p4851
asg48
(lp4852
VMrs.
p4853
aVBaroda
p4854
aVwant
p4855
aVto
p4856
aVtell
p4857
aVGaston
p4858
aVof
p4859
aVher
p4860
aVstrange
p4861
aVfolly
p4862
ag64
aVbut
p4863
aVshe
p4864
aVrealize
p4865
aVsensibly
p4866
aVthat
p4867
aVshe
p4868
aVmust
p4869
aVhandle
p4870
aVthis
p4871
aVfeeling
p4872
aVby
p4873
aVherself
p4874
ag75
asg76
(lp4875
g78
aVPERSON
p4876
ag78
ag78
ag78
aVPERSON
p4877
ag78
ag78
ag78
ag78
ag78
ag78
ag78
ag78
ag78
ag78
ag78
ag78
ag78
ag78
ag78
ag78
ag78
ag78
asg81
(lp4878
g83
ag83
ag916
ag88
ag89
ag83
ag90
ag91
ag92
ag86
ag93
ag94
ag160
ag916
ag86
ag90
ag160
ag438
ag89
ag85
ag92
ag90
ag160
ag96
asg97
VMrs. Baroda wants to tell Gaston of her strange folly, but she realizes sensibly that she must handle this feeling by herself.
p4879
sba(i__main__
Sentence
p4880
(dp4881
g17
I18
sg18
(lp4882
S'The'
p4883
aS'next'
p4884
aS'morning'
p4885
aS','
p4886
aS'she'
p4887
aS'leaves'
p4888
aS'for'
p4889
aS'the'
p4890
aS'city'
p4891
aS'and'
p4892
aS'does'
p4893
aS'not'
p4894
aS'return'
p4895
aS'until'
p4896
aS'Gouvernail'
p4897
aS'departs'
p4898
aS'.'
p4899
asg48
(lp4900
VThe
p4901
aVnext
p4902
aVmorning
p4903
ag64
aVshe
p4904
aVleave
p4905
aVfor
p4906
aVthe
p4907
aVcity
p4908
aVand
p4909
aVdo
p4910
aVnot
p4911
aVreturn
p4912
aVuntil
p4913
aVGouvernail
p4914
aVdeparts
p4915
ag75
asg76
(lp4916
g78
ag78
ag78
ag78
ag78
ag78
ag78
ag78
ag78
ag78
ag78
ag78
ag78
ag78
aVPERSON
p4917
ag78
ag78
asg81
(lp4918
g85
ag161
ag92
ag93
ag160
ag916
ag90
ag85
ag92
ag94
ag916
ag86
ag89
ag90
ag83
ag163
ag96
asg97
VThe next morning, she leaves for the city and does not return until Gouvernail departs.
p4919
sba(i__main__
Sentence
p4920
(dp4921
g17
I19
sg18
(lp4922
S'Gaston'
p4923
aS'wants'
p4924
aS'Gouvernail'
p4925
aS'to'
p4926
aS'return'
p4927
aS'the'
p4928
aS'next'
p4929
aS'summer'
p4930
aS','
p4931
aS'but'
p4932
aS'she'
p4933
aS'refuses'
p4934
aS'.'
p4935
asg48
(lp4936
VGaston
p4937
aVwant
p4938
aVGouvernail
p4939
aVto
p4940
aVreturn
p4941
aVthe
p4942
aVnext
p4943
aVsummer
p4944
ag64
aVbut
p4945
aVshe
p4946
aVrefuse
p4947
ag75
asg76
(lp4948
VPERSON
p4949
ag78
aVPERSON
p4950
ag78
ag78
ag78
ag78
ag78
ag78
ag78
ag78
ag78
ag78
asg81
(lp4951
g83
ag916
ag83
ag88
ag89
ag85
ag161
ag92
ag93
ag94
ag160
ag916
ag96
asg97
VGaston wants Gouvernail to return the next summer, but she refuses.
p4952
sba(i__main__
Sentence
p4953
(dp4954
g17
I20
sg18
(lp4955
S'She'
p4956
aS'later'
p4957
aS'changes'
p4958
aS'her'
p4959
aS'mind'
p4960
aS','
p4961
aS'delighting'
p4962
aS'her'
p4963
aS'husband'
p4964
aS','
p4965
aS'who'
p4966
aS'tells'
p4967
aS'her'
p4968
aS'that'
p4969
aS'Gouvernail'
p4970
aS'did'
p4971
aS'not'
p4972
aS'deserve'
p4973
aS'her'
p4974
aS'dislike'
p4975
aS'.'
p4976
asg48
(lp4977
VShe
p4978
aVlate
p4979
aVchange
p4980
aVher
p4981
aVmind
p4982
ag64
aVdelight
p4983
aVher
p4984
aVhusband
p4985
ag64
aVwho
p4986
aVtell
p4987
aVher
p4988
aVthat
p4989
aVGouvernail
p4990
ag432
aVnot
p4991
aVdeserve
p4992
aVher
p4993
aVdislike
p4994
ag75
asg76
(lp4995
g78
ag78
ag78
ag78
ag78
ag78
ag78
ag78
ag78
ag78
ag78
ag78
ag78
ag78
aVPERSON
p4996
ag78
ag78
ag78
ag78
ag78
ag78
asg81
(lp4997
g160
ag161
ag163
ag160
ag497
ag93
ag236
ag160
ag92
ag93
ag917
ag163
ag497
ag90
ag83
ag84
ag86
ag89
ag91
ag92
ag96
asg97
VShe later changes her mind, delighting her husband, who tells her that Gouvernail did not deserve her dislike.
p4998
sba(i__main__
Sentence
p4999
(dp5000
g17
I21
sg18
(lp5001
S'She'
p5002
aS'kisses'
p5003
aS'her'
p5004
aS'husband'
p5005
aS'and'
p5006
aS'tells'
p5007
aS'him'
p5008
aS'that'
p5009
aS'she'
p5010
aS'has'
p5011
aS'``'
p5012
aS'overcome'
p5013
aS'everything'
p5014
aS"''"
p5015
aS'and'
p5016
aS'that'
p5017
aS'she'
p5018
aS'will'
p5019
aS'now'
p5020
aS'treat'
p5021
aS'him'
p5022
aS'more'
p5023
aS'nicely'
p5024
aS'.'
p5025
asg48
(lp5026
VShe
p5027
aVkiss
p5028
aVher
p5029
aVhusband
p5030
aVand
p5031
aVtell
p5032
aVhim
p5033
aVthat
p5034
aVshe
p5035
ag3935
aV``
p5036
aVovercome
p5037
aVeverything
p5038
aV''
p5039
aVand
p5040
aVthat
p5041
aVshe
p5042
aVwill
p5043
aVnow
p5044
aVtreat
p5045
aVhim
p5046
aVmore
p5047
aVnicely
p5048
ag75
asg76
(lp5049
g78
ag78
ag78
ag78
ag78
ag78
ag78
ag78
ag78
ag78
ag78
ag78
ag78
ag78
ag78
ag78
ag78
ag78
ag78
ag78
ag78
ag78
ag78
ag78
asg81
(lp5050
g160
ag916
ag91
ag92
ag94
ag163
ag160
ag90
ag160
ag916
ag351
ag92
ag92
ag352
ag94
ag90
ag160
ag438
ag86
ag89
ag160
ag1130
ag86
ag96
asg97
VShe kisses her husband and tells him that she has "overcome everything" and that she will now treat him more nicely.
p5051
sbasbsS'name'
p5052
S'A Respectable Woman'
p5053
sS'summaries'
p5054
(lp5055
g3800
asb.