ccopy_reg
_reconstructor
p0
(c__main__
Story
p1
c__builtin__
object
p2
Ntp3
Rp4
(dp5
S'text'
p6
g0
(c__main__
Document
p7
g2
Ntp8
Rp9
(dp10
S'_Document__initialContent'
p11
S"There was once a man who understood all kinds of arts.  He served in\nwar, and behaved well and bravely, but when the war was over he\nreceived his dismissal, and three farthings for his expenses on the\nway.  Wait, said he, I shall not be content with this. If I can only\nmeet with the right people, the king will yet have to give me all the\ntreasure of the country.\n\nThen full of anger he went into the forest, and saw a man standing\ntherein who had plucked up six trees as if they were blades of corn.\nHe said to him, will you be my servant and go with me.  Yes, he\nanswered, but, first, I will take this little bundle of sticks home\nto my mother, and he took one of the trees, and wrapped it round the\nfive others, lifted the bundle on his back, and carried it away. Then\nhe returned and went with his master, who said, we two ought to be\nable to get through the world very well, and when they had walked on\nfor a short while they found a huntsman who was kneeling, had\nshouldered his gun, and was about to fire.  The master said to him,\nhuntsman, what are you going to shoot.  He answered, two miles from\nhere a fly is sitting on the branch of an oak-tree, and I want to\nshoot its left eye out.\n\nOh, come with me, said the man, if we three are together, we\ncertainly ought to be able to get on in the world.  The huntsman was\nready, and went with him, and they came to seven windmills whose\nsails were turning round with great speed, and yet no wind was\nblowing either on the right or the left, and no leaf was stirring.\nThen said the man, I know not what is driving the windmills, not a\nbreath of air is stirring, and he went onwards with his servants, and\nwhen they had walked two miles they saw a man sitting on a tree who\nwas shutting one nostril, and blowing out of the other.  Good\ngracious.  What are you doing up there.\n\nHe answered, two miles from here are seven windmills.  Look, I am\nblowing them till they turn round.  Oh, come with me, said the man.\nIf we four are together, we shall carry the whole world before us.\nThen the blower came down and went with him, and after a while they\nsaw a man who was standing on one leg and had taken off the other,\nand laid it beside him.  Then the master said, you have arranged\nthings very comfortably to have a rest.\n\nI am a runner, he replied, and to stop myself running far too fast, I\nhave taken off one of my legs, for if I run with both, I go quicker\nthan any bird can fly.  Oh, go with me.  If we five are together, we\nshall carry the whole world before us.\n\nSo he went with them, and it was not long before they met a man who\nwore a cap, but wore it entirely over one ear.  Then the master said\nto him, gracefully, gracefully, don't stick your cap on one ear, you\nlook just like a tom-fool.  I must not wear it otherwise, said he,\nfor if I set my hat straight, a terrible frost comes on, and all the\nbirds in the air are frozen, and drop dead on the ground.  Oh, come\nwith me, said the master. If we six are together, we can carry the\nwhole world before us.\n\nNow the six came to a town where the king had proclaimed that\nwhosoever ran a race with his daughter and won the victory, should be\nher husband, but whosoever lost it, must lose his head.  Then the man\npresented himself and said, I will, however, let my servant run for\nme.  The king replied, then his life also must be staked, so that his\nhead and yours are both set on the victory.  When that was settled\nand made secure, the man buckled the other leg on the runner, and\nsaid to him, now be nimble, and help us to win.  It was fixed that\nthe one who was first to bring some water from a far distant well was\nto be the victor.  The runner received a pitcher, and the king's\ndaughter one too, and they began to run at the same time, but in an\ninstant, when the king's daughter had got a very little way, the\npeople who were looking on could see no more of the runner, and it\nwas just as if the wind had whistled by.  In a short time he reached\nthe well, filled his pitcher with water, and turned back.  Half-way\nhome, however, he was overcome with fatigue, and set his pitcher\ndown, lay down himself, and fell asleep.  But he had made a pillow of\na horse's skull which was lying on the ground, in order that he might\nlie uncomfortably, and soon wake up again.  In the meantime the\nking's daughter, who could also run very well - quite as well as any\nordinary mortal can - had reached the well, and was hurrying back\nwith her pitcher full of water, and when she saw the runner lying\nthere asleep, she was glad and said, my enemy is delivered over into\nmy hands, emptied his pitcher, and ran on.  And now all would have\nbeen lost if by good luck the huntsman had not been standing at the\ntop of the castle, and had not seen everything with his sharp eyes.\n\nThen said he, the king's daughter shall still not prevail against us.\nAnd he loaded his gun, and shot so cleverly, that he shot the horse's\nskull away from under the runner's head without hurting him.  Then\nthe runner awoke, leapt up, and saw that his pitcher was empty, and\nthat the king's daughter was already far in advance.  He did not lose\nheart, however, but ran back to the well with his pitcher, again drew\nsome water, and was at home again even ten minutes before the king's\ndaughter.  Behold, said he, only now have I begun to use my legs.\nWhat I did before did not deserve to be called running.\n\nBut it pained the king, and still more his daughter, that she should\nbe carried off by a common discharged soldier like that. So they took\ncounsel with each other how to get rid of him and his companions.\nThen said the king to her, I have thought of a way.  Don't be afraid,\nthey shall not come back again.  And he said to them, you shall now\nmake merry together, and eat and drink, and he conducted them to a\nroom which had a floor of iron, and the doors also were of iron, and\nthe windows were guarded with iron bars.  There was a table in the\nroom covered with delicious food, and the king said to them, go in,\nand enjoy yourselves.  And when they were inside, he ordered the\ndoors to be shut and bolted.  Then he sent for the cook, and\ncommanded him to make a fire under the room until the iron became\nred-hot.\n\nThis the cook did, and the six who were sitting at table began to\nfeel quite warm, and they thought the heat was caused by the food.\nBut as it became still greater, and they wanted to get out, and found\nthat the doors and windows were bolted, they became aware that the\nking must have an evil intention, and wanted to suffocate them.  He\nshall not succeed, however, said the one with the cap.  I will cause\na frost to come, before which the fire shall be ashamed, and creep\naway.\n\nThen he put his cap on straight, and immediately there came such a\nfrost that all heat disappeared, and the food on the dishes began to\nfreeze.  When an hour or two had passed by, and the king believed\nthat they had perished in the heat, he had the doors opened to behold\nthem himself.  But when the doors were opened, all six were standing\nthere, alive and well, and said that they should very much like to\nget out to warm themselves, for the very food was fast frozen to the\ndishes with the cold.  Then, full of anger, the king went down to the\ncook, scolded him, and asked why he had not done what he had been\nordered to do.  But the cook replied, there is heat enough there,\njust look yourself. Then the king saw that a fierce fire was burning\nunder the iron room, and perceived that there was no getting the\nbetter of the six in this way.\n\nAgain the king considered how to get rid of his unpleasant guests,\nand caused their chief to be brought and said, if you will take gold\nand renounce my daughter, you shall have as much as you will.\n\nOh, yes, lord king, he answered, give me as much as my servant can\ncarry, and I will not ask for your daughter.\n\nOn this the king was satisfied, and the other continued, in fourteen\ndays, I will come and fetch it.  Thereupon he summoned together all\nthe tailors in the whole kingdom, and they were to sit for fourteen\ndays and sew a sack.  And when it was ready, the strong one who could\ntear up trees had to take it on his back, and go with it to the king.\nThen said the king, who can that strong fellow be who is carrying a\nbundle of linen on his back that is as big as a house.  And he was\nalarmed and said, what a lot of gold he can carry away.  Then he\ncommanded a ton of gold to be brought, which took sixteen of his\nstrongest men to carry, but the strong one snatched it up in one\nhand, put it in his sack, and said, why don't you bring more at the\nsame time.  That hardly covers the bottom.  Then, little by little,\nthe king caused all his treasure to be brought thither, and the\nstrong one pushed it into the sack, and still the sack was not half\nfull with it.  Bring more, cried he, these few crumbs don't fill it.\n\nThen seven thousand carts with gold had to be gathered together in\nthe whole kingdom, and the strong one thrust them and the oxen\nharnessed to them into his sack.  I will examine it no longer, said\nhe, but will just take what comes, so long as the sack is but full.\nWhen all that was inside, there was still room for a great deal more.\nThen he said, I will just make an end of the thing.  People do\nsometimes tie up a sack even when it is not full.  So he took it on\nhis back, and went away with his comrades.  When the king now saw how\none single man was carrying away the entire wealth of the country, he\nbecame enraged, and bade his horsemen mount and pursue the six, and\nordered them to take the sack away from the strong one.  Two\nregiments speedily overtook the six, and called out, you are\nprisoners, put down the sack with the gold, or you will be cut to\npieces.  What say you, cried the blower, that we are prisoners.\n\nRather than that should happen, all of you shall dance about in the\nair.  And he closed one nostril, and with the other blew on the two\nregiments.  Then they were driven away from each other, and carried\ninto the blue sky over all the mountains, one here, the other there.\nOne sergeant cried for mercy.  He had nine wounds, and was a brave\nfellow who did not deserve ill treatment.\n\nThe blower stopped a little so that he came down without injury, and\nthen the blower said to him.  Now go home to your king, and tell him\nhe had better send some more horsemen, and I will blow them all into\nthe air.  When the king was informed of this he said, let the rascals\ngo.  There is magic in them.  Then the six conveyed the riches home,\ndivided it amongst them, and lived in content until their death.\n"
p12
sS'sentences'
p13
(lp14
(i__main__
Sentence
p15
(dp16
S'index'
p17
I0
sS'words'
p18
(lp19
S'There'
p20
aS'was'
p21
aS'once'
p22
aS'a'
p23
aS'man'
p24
aS'who'
p25
aS'understood'
p26
aS'all'
p27
aS'kinds'
p28
aS'of'
p29
aS'arts'
p30
aS'.'
p31
asS'lemmas'
p32
(lp33
VThere
p34
aVbe
p35
aVonce
p36
aVa
p37
aVman
p38
aVwho
p39
aVunderstood
p40
aVall
p41
aVkind
p42
aVof
p43
aVart
p44
aV.
p45
asS'nerTags'
p46
(lp47
VO
p48
ag48
ag48
ag48
ag48
ag48
ag48
ag48
ag48
ag48
ag48
ag48
asS'posTags'
p49
(lp50
S'EX'
p51
aS'VBD'
p52
aS'RB'
p53
aS'DT'
p54
aS'NN'
p55
aS'WP'
p56
ag55
ag54
aS'NNS'
p57
aS'IN'
p58
ag57
aS'.'
p59
asS'_Sentence__initialContent'
p60
VThere was once a man who understood all kinds of arts.
p61
sba(i__main__
Sentence
p62
(dp63
g17
I1
sg18
(lp64
S'He'
p65
aS'served'
p66
aS'in'
p67
aS'war'
p68
aS','
p69
aS'and'
p70
aS'behaved'
p71
aS'well'
p72
aS'and'
p73
aS'bravely'
p74
aS','
p75
aS'but'
p76
aS'when'
p77
aS'the'
p78
aS'war'
p79
aS'was'
p80
aS'over'
p81
aS'he'
p82
aS'received'
p83
aS'his'
p84
aS'dismissal'
p85
aS','
p86
aS'and'
p87
aS'three'
p88
aS'farthings'
p89
aS'for'
p90
aS'his'
p91
aS'expenses'
p92
aS'on'
p93
aS'the'
p94
aS'way'
p95
aS'.'
p96
asg32
(lp97
VHe
p98
aVserve
p99
aVin
p100
aVwar
p101
aV,
p102
aVand
p103
aVbehave
p104
aVwell
p105
aVand
p106
aVbravely
p107
ag102
aVbut
p108
aVwhen
p109
aVthe
p110
aVwar
p111
ag35
aVover
p112
aVhe
p113
aVreceive
p114
aVhis
p115
aVdismissal
p116
ag102
aVand
p117
aVthree
p118
aVfarthing
p119
aVfor
p120
aVhis
p121
aVexpense
p122
aVon
p123
aVthe
p124
aVway
p125
ag45
asg46
(lp126
g48
ag48
ag48
ag48
ag48
ag48
ag48
ag48
ag48
ag48
ag48
ag48
ag48
ag48
ag48
ag48
ag48
ag48
ag48
ag48
ag48
ag48
ag48
ag48
ag48
ag48
ag48
ag48
ag48
ag48
ag48
ag48
asg49
(lp127
S'PRP'
p128
ag52
ag58
ag55
aS','
p129
aS'CC'
p130
ag52
ag53
ag130
ag53
ag129
ag130
aS'WRB'
p131
ag54
ag55
ag52
ag58
ag128
ag52
aS'PRP$'
p132
ag55
ag129
ag130
aS'CD'
p133
ag57
ag58
ag132
ag57
ag58
ag54
ag55
ag59
asg60
VHe served in war, and behaved well and bravely, but when the war was over he received his dismissal, and three farthings for his expenses on the way.
p134
sba(i__main__
Sentence
p135
(dp136
g17
I2
sg18
(lp137
S'Wait'
p138
aS','
p139
aS'said'
p140
aS'he'
p141
aS','
p142
aS'I'
p143
aS'shall'
p144
aS'not'
p145
aS'be'
p146
aS'content'
p147
aS'with'
p148
aS'this'
p149
aS'.'
p150
asg32
(lp151
VWait
p152
ag102
aVsay
p153
aVhe
p154
ag102
aVI
p155
aVshall
p156
aVnot
p157
aVbe
p158
aVcontent
p159
aVwith
p160
aVthis
p161
ag45
asg46
(lp162
g48
ag48
ag48
ag48
ag48
ag48
ag48
ag48
ag48
ag48
ag48
ag48
ag48
asg49
(lp163
g55
ag129
ag52
ag128
ag129
ag128
aS'MD'
p164
ag53
aS'VB'
p165
aS'VBN'
p166
ag58
ag54
ag59
asg60
VWait, said he, I shall not be content with this.
p167
sba(i__main__
Sentence
p168
(dp169
g17
I3
sg18
(lp170
S'If'
p171
aS'I'
p172
aS'can'
p173
aS'only'
p174
aS'meet'
p175
aS'with'
p176
aS'the'
p177
aS'right'
p178
aS'people'
p179
aS','
p180
aS'the'
p181
aS'king'
p182
aS'will'
p183
aS'yet'
p184
aS'have'
p185
aS'to'
p186
aS'give'
p187
aS'me'
p188
aS'all'
p189
aS'the'
p190
aS'treasure'
p191
aS'of'
p192
aS'the'
p193
aS'country'
p194
aS'.'
p195
asg32
(lp196
VIf
p197
ag155
aVcan
p198
aVonly
p199
aVmeet
p200
aVwith
p201
aVthe
p202
aVright
p203
aVpeople
p204
ag102
aVthe
p205
aVking
p206
aVwill
p207
aVyet
p208
aVhave
p209
aVto
p210
aVgive
p211
aVme
p212
aVall
p213
aVthe
p214
aVtreasure
p215
aVof
p216
aVthe
p217
aVcountry
p218
ag45
asg46
(lp219
g48
ag48
ag48
ag48
ag48
ag48
ag48
ag48
ag48
ag48
ag48
ag48
ag48
ag48
ag48
ag48
ag48
ag48
ag48
ag48
ag48
ag48
ag48
ag48
ag48
asg49
(lp220
g58
ag128
ag164
ag53
ag165
ag58
ag54
ag55
ag57
ag129
ag54
ag55
ag164
ag165
ag165
aS'TO'
p221
ag165
ag128
ag54
ag54
ag55
ag58
ag54
ag55
ag59
asg60
VIf I can only meet with the right people, the king will yet have to give me all the treasure of the country.
p222
sba(i__main__
Sentence
p223
(dp224
g17
I4
sg18
(lp225
S'Then'
p226
aS'full'
p227
aS'of'
p228
aS'anger'
p229
aS'he'
p230
aS'went'
p231
aS'into'
p232
aS'the'
p233
aS'forest'
p234
aS','
p235
aS'and'
p236
aS'saw'
p237
aS'a'
p238
aS'man'
p239
aS'standing'
p240
aS'therein'
p241
aS'who'
p242
aS'had'
p243
aS'plucked'
p244
aS'up'
p245
aS'six'
p246
aS'trees'
p247
aS'as'
p248
aS'if'
p249
aS'they'
p250
aS'were'
p251
aS'blades'
p252
aS'of'
p253
aS'corn'
p254
aS'.'
p255
asg32
(lp256
VThen
p257
aVfull
p258
aVof
p259
aVanger
p260
aVhe
p261
aVgo
p262
aVinto
p263
aVthe
p264
aVforest
p265
ag102
aVand
p266
aVsaw
p267
ag37
aVman
p268
aVstanding
p269
aVtherein
p270
aVwho
p271
aVhave
p272
aVpluck
p273
aVup
p274
aVsix
p275
aVtree
p276
ag37
aVif
p277
aVthey
p278
aVbe
p279
aVblade
p280
aVof
p281
aVcorn
p282
ag45
asg46
(lp283
g48
ag48
ag48
ag48
ag48
ag48
ag48
ag48
ag48
ag48
ag48
ag48
ag48
ag48
ag48
ag48
ag48
ag48
ag48
ag48
ag48
ag48
ag48
ag48
ag48
ag48
ag48
ag48
ag48
ag48
asg49
(lp284
g53
aS'JJ'
p285
ag58
ag55
ag128
ag52
ag58
ag54
aS'JJS'
p286
ag129
ag130
ag52
ag54
ag55
ag55
ag55
ag56
ag52
ag166
aS'RP'
p287
ag133
ag57
ag58
ag58
ag128
ag52
ag57
ag58
ag55
ag59
asg60
VThen full of anger he went into the forest, and saw a man standing therein who had plucked up six trees as if they were blades of corn.
p288
sba(i__main__
Sentence
p289
(dp290
g17
I5
sg18
(lp291
S'He'
p292
aS'said'
p293
aS'to'
p294
aS'him'
p295
aS','
p296
aS'will'
p297
aS'you'
p298
aS'be'
p299
aS'my'
p300
aS'servant'
p301
aS'and'
p302
aS'go'
p303
aS'with'
p304
aS'me'
p305
aS'.'
p306
asg32
(lp307
VHe
p308
ag153
aVto
p309
aVhim
p310
ag102
aVwill
p311
aVyou
p312
aVbe
p313
aVmy
p314
aVservant
p315
aVand
p316
aVgo
p317
aVwith
p318
aVme
p319
ag45
asg46
(lp320
g48
ag48
ag48
ag48
ag48
ag48
ag48
ag48
ag48
ag48
ag48
ag48
ag48
ag48
ag48
asg49
(lp321
g128
ag52
ag221
ag128
ag129
ag164
ag128
ag165
ag132
ag55
ag130
ag165
ag58
ag128
ag59
asg60
VHe said to him, will you be my servant and go with me.
p322
sba(i__main__
Sentence
p323
(dp324
g17
I6
sg18
(lp325
S'Yes'
p326
aS','
p327
aS'he'
p328
aS'answered'
p329
aS','
p330
aS'but'
p331
aS','
p332
aS'first'
p333
aS','
p334
aS'I'
p335
aS'will'
p336
aS'take'
p337
aS'this'
p338
aS'little'
p339
aS'bundle'
p340
aS'of'
p341
aS'sticks'
p342
aS'home'
p343
aS'to'
p344
aS'my'
p345
aS'mother'
p346
aS','
p347
aS'and'
p348
aS'he'
p349
aS'took'
p350
aS'one'
p351
aS'of'
p352
aS'the'
p353
aS'trees'
p354
aS','
p355
aS'and'
p356
aS'wrapped'
p357
aS'it'
p358
aS'round'
p359
aS'the'
p360
aS'five'
p361
aS'others'
p362
aS','
p363
aS'lifted'
p364
aS'the'
p365
aS'bundle'
p366
aS'on'
p367
aS'his'
p368
aS'back'
p369
aS','
p370
aS'and'
p371
aS'carried'
p372
aS'it'
p373
aS'away'
p374
aS'.'
p375
asg32
(lp376
VYes
p377
ag102
aVhe
p378
aVanswer
p379
ag102
aVbut
p380
ag102
aVfirst
p381
ag102
ag155
aVwill
p382
aVtake
p383
aVthis
p384
aVlittle
p385
aVbundle
p386
aVof
p387
aVstick
p388
aVhome
p389
aVto
p390
aVmy
p391
aVmother
p392
ag102
aVand
p393
aVhe
p394
aVtake
p395
aVone
p396
aVof
p397
aVthe
p398
aVtree
p399
ag102
aVand
p400
aVwrap
p401
aVit
p402
aVround
p403
aVthe
p404
aVfive
p405
aVothers
p406
ag102
aVlift
p407
aVthe
p408
aVbundle
p409
aVon
p410
aVhis
p411
aVback
p412
ag102
aVand
p413
aVcarry
p414
aVit
p415
aVaway
p416
ag45
asg46
(lp417
g48
ag48
ag48
ag48
ag48
ag48
ag48
ag48
ag48
ag48
ag48
ag48
ag48
ag48
ag48
ag48
ag48
ag48
ag48
ag48
ag48
ag48
ag48
ag48
ag48
ag48
ag48
ag48
ag48
ag48
ag48
ag48
ag48
ag48
ag48
ag48
ag48
ag48
ag48
ag48
ag48
ag48
ag48
ag48
ag48
ag48
ag48
ag48
ag48
ag48
asg49
(lp418
g57
ag129
ag128
ag52
ag129
ag130
ag129
ag285
ag129
ag128
ag164
ag165
ag54
ag285
ag55
ag58
ag57
ag55
ag221
ag132
ag55
ag129
ag130
ag128
ag52
ag133
ag58
ag54
ag57
ag129
ag130
ag52
ag128
ag52
ag54
ag133
ag57
ag129
ag52
ag54
ag55
ag58
ag132
ag55
ag129
ag130
ag52
ag128
ag53
ag59
asg60
VYes, he answered, but, first, I will take this little bundle of sticks home to my mother, and he took one of the trees, and wrapped it round the five others, lifted the bundle on his back, and carried it away.
p419
sba(i__main__
Sentence
p420
(dp421
g17
I7
sg18
(lp422
S'Then'
p423
aS'he'
p424
aS'returned'
p425
aS'and'
p426
aS'went'
p427
aS'with'
p428
aS'his'
p429
aS'master'
p430
aS','
p431
aS'who'
p432
aS'said'
p433
aS','
p434
aS'we'
p435
aS'two'
p436
aS'ought'
p437
aS'to'
p438
aS'be'
p439
aS'able'
p440
aS'to'
p441
aS'get'
p442
aS'through'
p443
aS'the'
p444
aS'world'
p445
aS'very'
p446
aS'well'
p447
aS','
p448
aS'and'
p449
aS'when'
p450
aS'they'
p451
aS'had'
p452
aS'walked'
p453
aS'on'
p454
aS'for'
p455
aS'a'
p456
aS'short'
p457
aS'while'
p458
aS'they'
p459
aS'found'
p460
aS'a'
p461
aS'huntsman'
p462
aS'who'
p463
aS'was'
p464
aS'kneeling'
p465
aS','
p466
aS'had'
p467
aS'shouldered'
p468
aS'his'
p469
aS'gun'
p470
aS','
p471
aS'and'
p472
aS'was'
p473
aS'about'
p474
aS'to'
p475
aS'fire'
p476
aS'.'
p477
asg32
(lp478
VThen
p479
aVhe
p480
aVreturn
p481
aVand
p482
ag262
aVwith
p483
aVhis
p484
aVmaster
p485
ag102
aVwho
p486
ag153
ag102
aVwe
p487
aVtwo
p488
aVought
p489
aVto
p490
aVbe
p491
aVable
p492
aVto
p493
aVget
p494
aVthrough
p495
aVthe
p496
aVworld
p497
aVvery
p498
aVwell
p499
ag102
aVand
p500
aVwhen
p501
aVthey
p502
ag272
aVwalk
p503
aVon
p504
aVfor
p505
ag37
aVshort
p506
aVwhile
p507
aVthey
p508
aVfind
p509
ag37
aVhuntsman
p510
aVwho
p511
ag35
aVkneel
p512
ag102
ag272
aVshoulder
p513
aVhis
p514
aVgun
p515
ag102
aVand
p516
ag35
aVabout
p517
aVto
p518
aVfire
p519
ag45
asg46
(lp520
g48
ag48
ag48
ag48
ag48
ag48
ag48
ag48
ag48
ag48
ag48
ag48
ag48
ag48
ag48
ag48
ag48
ag48
ag48
ag48
ag48
ag48
ag48
ag48
ag48
ag48
ag48
ag48
ag48
ag48
ag48
ag48
ag48
ag48
ag48
ag48
ag48
ag48
ag48
ag48
ag48
ag48
ag48
ag48
ag48
ag48
ag48
ag48
ag48
ag48
ag48
ag48
ag48
ag48
ag48
asg49
(lp521
g53
ag128
ag52
ag130
ag52
ag58
ag132
ag55
ag129
ag56
ag52
ag129
ag128
ag133
ag164
ag221
ag165
ag285
ag221
ag165
ag58
ag54
ag55
ag53
ag53
ag129
ag130
ag131
ag128
ag52
ag166
ag58
ag58
ag54
ag285
ag55
ag128
ag52
ag54
ag55
ag56
ag52
aS'VBG'
p522
ag129
ag52
ag166
ag132
ag55
ag129
ag130
ag52
ag58
ag221
ag165
ag59
asg60
VThen he returned and went with his master, who said, we two ought to be able to get through the world very well, and when they had walked on for a short while they found a huntsman who was kneeling, had shouldered his gun, and was about to fire.
p523
sba(i__main__
Sentence
p524
(dp525
g17
I8
sg18
(lp526
S'The'
p527
aS'master'
p528
aS'said'
p529
aS'to'
p530
aS'him'
p531
aS','
p532
aS'huntsman'
p533
aS','
p534
aS'what'
p535
aS'are'
p536
aS'you'
p537
aS'going'
p538
aS'to'
p539
aS'shoot'
p540
aS'.'
p541
asg32
(lp542
VThe
p543
aVmaster
p544
ag153
aVto
p545
aVhim
p546
ag102
aVhuntsman
p547
ag102
aVwhat
p548
aVbe
p549
aVyou
p550
aVgo
p551
aVto
p552
aVshoot
p553
ag45
asg46
(lp554
g48
ag48
ag48
ag48
ag48
ag48
ag48
ag48
ag48
ag48
ag48
ag48
ag48
ag48
ag48
asg49
(lp555
g54
ag55
ag52
ag221
ag128
ag129
ag55
ag129
ag56
aS'VBP'
p556
ag128
ag522
ag221
ag165
ag59
asg60
VThe master said to him, huntsman, what are you going to shoot.
p557
sba(i__main__
Sentence
p558
(dp559
g17
I9
sg18
(lp560
S'He'
p561
aS'answered'
p562
aS','
p563
aS'two'
p564
aS'miles'
p565
aS'from'
p566
aS'here'
p567
aS'a'
p568
aS'fly'
p569
aS'is'
p570
aS'sitting'
p571
aS'on'
p572
aS'the'
p573
aS'branch'
p574
aS'of'
p575
aS'an'
p576
aS'oak-tree'
p577
aS','
p578
aS'and'
p579
aS'I'
p580
aS'want'
p581
aS'to'
p582
aS'shoot'
p583
aS'its'
p584
aS'left'
p585
aS'eye'
p586
aS'out'
p587
aS'.'
p588
asg32
(lp589
VHe
p590
aVanswer
p591
ag102
aVtwo
p592
aVmile
p593
aVfrom
p594
aVhere
p595
ag37
aVfly
p596
aVbe
p597
aVsit
p598
aVon
p599
aVthe
p600
aVbranch
p601
aVof
p602
aVan
p603
aVoak-tree
p604
ag102
aVand
p605
ag155
aVwant
p606
aVto
p607
aVshoot
p608
aVit
p609
aVleave
p610
aVeye
p611
aVout
p612
ag45
asg46
(lp613
g48
ag48
ag48
ag48
ag48
ag48
ag48
ag48
ag48
ag48
ag48
ag48
ag48
ag48
ag48
ag48
ag48
ag48
ag48
ag48
ag48
ag48
ag48
ag48
ag48
ag48
ag48
ag48
asg49
(lp614
g128
ag52
ag129
ag133
ag57
ag58
ag53
ag54
ag53
aS'VBZ'
p615
ag522
ag58
ag54
ag55
ag58
ag54
ag285
ag129
ag130
ag128
ag556
ag221
ag165
ag132
ag166
ag55
ag58
ag59
asg60
VHe answered, two miles from here a fly is sitting on the branch of an oak-tree, and I want to shoot its left eye out.
p616
sba(i__main__
Sentence
p617
(dp618
g17
I10
sg18
(lp619
S'Oh'
p620
aS','
p621
aS'come'
p622
aS'with'
p623
aS'me'
p624
aS','
p625
aS'said'
p626
aS'the'
p627
aS'man'
p628
aS','
p629
aS'if'
p630
aS'we'
p631
aS'three'
p632
aS'are'
p633
aS'together'
p634
aS','
p635
aS'we'
p636
aS'certainly'
p637
aS'ought'
p638
aS'to'
p639
aS'be'
p640
aS'able'
p641
aS'to'
p642
aS'get'
p643
aS'on'
p644
aS'in'
p645
aS'the'
p646
aS'world'
p647
aS'.'
p648
asg32
(lp649
VOh
p650
ag102
aVcome
p651
aVwith
p652
aVme
p653
ag102
ag153
aVthe
p654
aVman
p655
ag102
aVif
p656
aVwe
p657
aVthree
p658
ag549
aVtogether
p659
ag102
aVwe
p660
aVcertainly
p661
aVought
p662
aVto
p663
aVbe
p664
aVable
p665
aVto
p666
aVget
p667
aVon
p668
aVin
p669
aVthe
p670
aVworld
p671
ag45
asg46
(lp672
g48
ag48
ag48
ag48
ag48
ag48
ag48
ag48
ag48
ag48
ag48
ag48
ag48
ag48
ag48
ag48
ag48
ag48
ag48
ag48
ag48
ag48
ag48
ag48
ag48
ag48
ag48
ag48
ag48
asg49
(lp673
S'UH'
p674
ag129
ag556
ag58
ag128
ag129
ag52
ag54
ag55
ag129
ag58
ag128
ag133
ag556
ag53
ag129
ag128
ag53
ag164
ag221
ag165
ag285
ag221
ag165
ag58
ag58
ag54
ag55
ag59
asg60
VOh, come with me, said the man, if we three are together, we certainly ought to be able to get on in the world.
p675
sba(i__main__
Sentence
p676
(dp677
g17
I11
sg18
(lp678
S'The'
p679
aS'huntsman'
p680
aS'was'
p681
aS'ready'
p682
aS','
p683
aS'and'
p684
aS'went'
p685
aS'with'
p686
aS'him'
p687
aS','
p688
aS'and'
p689
aS'they'
p690
aS'came'
p691
aS'to'
p692
aS'seven'
p693
aS'windmills'
p694
aS'whose'
p695
aS'sails'
p696
aS'were'
p697
aS'turning'
p698
aS'round'
p699
aS'with'
p700
aS'great'
p701
aS'speed'
p702
aS','
p703
aS'and'
p704
aS'yet'
p705
aS'no'
p706
aS'wind'
p707
aS'was'
p708
aS'blowing'
p709
aS'either'
p710
aS'on'
p711
aS'the'
p712
aS'right'
p713
aS'or'
p714
aS'the'
p715
aS'left'
p716
aS','
p717
aS'and'
p718
aS'no'
p719
aS'leaf'
p720
aS'was'
p721
aS'stirring'
p722
aS'.'
p723
asg32
(lp724
VThe
p725
aVhuntsman
p726
ag35
aVready
p727
ag102
aVand
p728
ag262
aVwith
p729
aVhim
p730
ag102
aVand
p731
aVthey
p732
aVcome
p733
aVto
p734
aVseven
p735
aVwindmill
p736
aVwhose
p737
aVsail
p738
ag279
aVturn
p739
aVround
p740
aVwith
p741
aVgreat
p742
aVspeed
p743
ag102
aVand
p744
aVyet
p745
aVno
p746
aVwind
p747
ag35
aVblow
p748
aVeither
p749
aVon
p750
aVthe
p751
aVright
p752
aVor
p753
aVthe
p754
aVleft
p755
ag102
aVand
p756
aVno
p757
aVleaf
p758
ag35
aVstir
p759
ag45
asg46
(lp760
g48
ag48
ag48
ag48
ag48
ag48
ag48
ag48
ag48
ag48
ag48
ag48
ag48
ag48
ag48
ag48
ag48
ag48
ag48
ag48
ag48
ag48
ag48
ag48
ag48
ag48
ag48
ag48
ag48
ag48
ag48
ag48
ag48
ag48
ag48
ag48
ag48
ag48
ag48
ag48
ag48
ag48
ag48
ag48
ag48
asg49
(lp761
g54
ag55
ag52
ag285
ag129
ag130
ag52
ag58
ag128
ag129
ag130
ag128
ag52
ag221
ag133
ag57
aS'WP$'
p762
ag57
ag52
ag522
ag55
ag58
ag285
ag55
ag129
ag130
ag53
ag54
ag55
ag52
ag522
ag54
ag58
ag54
ag55
ag130
ag54
ag55
ag129
ag130
ag54
ag55
ag52
ag522
ag59
asg60
VThe huntsman was ready, and went with him, and they came to seven windmills whose sails were turning round with great speed, and yet no wind was blowing either on the right or the left, and no leaf was stirring.
p763
sba(i__main__
Sentence
p764
(dp765
g17
I12
sg18
(lp766
S'Then'
p767
aS'said'
p768
aS'the'
p769
aS'man'
p770
aS','
p771
aS'I'
p772
aS'know'
p773
aS'not'
p774
aS'what'
p775
aS'is'
p776
aS'driving'
p777
aS'the'
p778
aS'windmills'
p779
aS','
p780
aS'not'
p781
aS'a'
p782
aS'breath'
p783
aS'of'
p784
aS'air'
p785
aS'is'
p786
aS'stirring'
p787
aS','
p788
aS'and'
p789
aS'he'
p790
aS'went'
p791
aS'onwards'
p792
aS'with'
p793
aS'his'
p794
aS'servants'
p795
aS','
p796
aS'and'
p797
aS'when'
p798
aS'they'
p799
aS'had'
p800
aS'walked'
p801
aS'two'
p802
aS'miles'
p803
aS'they'
p804
aS'saw'
p805
aS'a'
p806
aS'man'
p807
aS'sitting'
p808
aS'on'
p809
aS'a'
p810
aS'tree'
p811
aS'who'
p812
aS'was'
p813
aS'shutting'
p814
aS'one'
p815
aS'nostril'
p816
aS','
p817
aS'and'
p818
aS'blowing'
p819
aS'out'
p820
aS'of'
p821
aS'the'
p822
aS'other'
p823
aS'.'
p824
asg32
(lp825
VThen
p826
ag153
aVthe
p827
aVman
p828
ag102
ag155
aVknow
p829
aVnot
p830
aVwhat
p831
ag597
aVdrive
p832
aVthe
p833
aVwindmill
p834
ag102
aVnot
p835
ag37
aVbreath
p836
aVof
p837
aVair
p838
ag597
ag759
ag102
aVand
p839
aVhe
p840
ag262
aVonwards
p841
aVwith
p842
aVhis
p843
aVservant
p844
ag102
aVand
p845
aVwhen
p846
aVthey
p847
ag272
aVwalk
p848
aVtwo
p849
aVmile
p850
aVthey
p851
aVsaw
p852
ag37
aVman
p853
ag598
aVon
p854
ag37
aVtree
p855
aVwho
p856
ag35
aVshut
p857
aVone
p858
aVnostril
p859
ag102
aVand
p860
aVblow
p861
aVout
p862
aVof
p863
aVthe
p864
aVother
p865
ag45
asg46
(lp866
g48
ag48
ag48
ag48
ag48
ag48
ag48
ag48
ag48
ag48
ag48
ag48
ag48
ag48
ag48
ag48
ag48
ag48
ag48
ag48
ag48
ag48
ag48
ag48
ag48
ag48
ag48
ag48
ag48
ag48
ag48
ag48
ag48
ag48
ag48
ag48
ag48
ag48
ag48
ag48
ag48
ag48
ag48
ag48
ag48
ag48
ag48
ag48
ag48
ag48
ag48
ag48
ag48
ag48
ag48
ag48
ag48
ag48
asg49
(lp867
g53
ag52
ag54
ag55
ag129
ag128
ag556
ag53
ag56
ag615
ag522
ag54
ag57
ag129
ag53
ag54
ag55
ag58
ag55
ag615
ag522
ag129
ag130
ag128
ag52
ag57
ag58
ag132
ag57
ag129
ag130
ag131
ag128
ag52
ag166
ag133
ag57
ag128
ag52
ag54
ag55
ag522
ag58
ag54
ag55
ag56
ag52
ag522
ag133
ag55
ag129
ag130
ag522
ag287
ag58
ag54
ag285
ag59
asg60
VThen said the man, I know not what is driving the windmills, not a breath of air is stirring, and he went onwards with his servants, and when they had walked two miles they saw a man sitting on a tree who was shutting one nostril, and blowing out of the other.
p868
sba(i__main__
Sentence
p869
(dp870
g17
I13
sg18
(lp871
S'Good'
p872
aS'gracious'
p873
aS'.'
p874
asg32
(lp875
VGood
p876
aVgracious
p877
ag45
asg46
(lp878
g48
ag48
ag48
asg49
(lp879
S'NNP'
p880
ag285
ag59
asg60
VGood gracious.
p881
sba(i__main__
Sentence
p882
(dp883
g17
I14
sg18
(lp884
S'What'
p885
aS'are'
p886
aS'you'
p887
aS'doing'
p888
aS'up'
p889
aS'there'
p890
aS'.'
p891
asg32
(lp892
VWhat
p893
ag549
aVyou
p894
aVdo
p895
aVup
p896
aVthere
p897
ag45
asg46
(lp898
g48
ag48
ag48
ag48
ag48
ag48
ag48
asg49
(lp899
g56
ag556
ag128
ag522
ag287
ag53
ag59
asg60
VWhat are you doing up there.
p900
sba(i__main__
Sentence
p901
(dp902
g17
I15
sg18
(lp903
S'He'
p904
aS'answered'
p905
aS','
p906
aS'two'
p907
aS'miles'
p908
aS'from'
p909
aS'here'
p910
aS'are'
p911
aS'seven'
p912
aS'windmills'
p913
aS'.'
p914
asg32
(lp915
VHe
p916
aVanswer
p917
ag102
aVtwo
p918
aVmile
p919
aVfrom
p920
aVhere
p921
ag549
aVseven
p922
aVwindmill
p923
ag45
asg46
(lp924
g48
ag48
ag48
ag48
ag48
ag48
ag48
ag48
ag48
ag48
ag48
asg49
(lp925
g128
ag52
ag129
ag133
ag57
ag58
ag53
ag556
ag166
ag57
ag59
asg60
VHe answered, two miles from here are seven windmills.
p926
sba(i__main__
Sentence
p927
(dp928
g17
I16
sg18
(lp929
S'Look'
p930
aS','
p931
aS'I'
p932
aS'am'
p933
aS'blowing'
p934
aS'them'
p935
aS'till'
p936
aS'they'
p937
aS'turn'
p938
aS'round'
p939
aS'.'
p940
asg32
(lp941
VLook
p942
ag102
ag155
aVbe
p943
aVblow
p944
aVthem
p945
aVtill
p946
aVthey
p947
aVturn
p948
aVround
p949
ag45
asg46
(lp950
g48
ag48
ag48
ag48
ag48
ag48
ag48
ag48
ag48
ag48
ag48
asg49
(lp951
g880
ag129
ag128
ag556
ag522
ag128
ag164
ag128
ag165
ag55
ag59
asg60
VLook, I am blowing them till they turn round.
p952
sba(i__main__
Sentence
p953
(dp954
g17
I17
sg18
(lp955
S'Oh'
p956
aS','
p957
aS'come'
p958
aS'with'
p959
aS'me'
p960
aS','
p961
aS'said'
p962
aS'the'
p963
aS'man'
p964
aS'.'
p965
asg32
(lp966
VOh
p967
ag102
aVcome
p968
aVwith
p969
aVme
p970
ag102
ag153
aVthe
p971
aVman
p972
ag45
asg46
(lp973
g48
ag48
ag48
ag48
ag48
ag48
ag48
ag48
ag48
ag48
asg49
(lp974
g674
ag129
ag556
ag58
ag128
ag129
ag52
ag54
ag55
ag59
asg60
VOh, come with me, said the man.
p975
sba(i__main__
Sentence
p976
(dp977
g17
I18
sg18
(lp978
S'If'
p979
aS'we'
p980
aS'four'
p981
aS'are'
p982
aS'together'
p983
aS','
p984
aS'we'
p985
aS'shall'
p986
aS'carry'
p987
aS'the'
p988
aS'whole'
p989
aS'world'
p990
aS'before'
p991
aS'us'
p992
aS'.'
p993
asg32
(lp994
VIf
p995
aVwe
p996
aVfour
p997
ag549
aVtogether
p998
ag102
aVwe
p999
aVshall
p1000
aVcarry
p1001
aVthe
p1002
aVwhole
p1003
aVworld
p1004
aVbefore
p1005
aVu
p1006
ag45
asg46
(lp1007
g48
ag48
ag48
ag48
ag48
ag48
ag48
ag48
ag48
ag48
ag48
ag48
ag48
ag48
ag48
asg49
(lp1008
g58
ag128
ag133
ag556
ag53
ag129
ag128
ag164
ag165
ag54
ag285
ag55
ag58
ag128
ag59
asg60
VIf we four are together, we shall carry the whole world before us.
p1009
sba(i__main__
Sentence
p1010
(dp1011
g17
I19
sg18
(lp1012
S'Then'
p1013
aS'the'
p1014
aS'blower'
p1015
aS'came'
p1016
aS'down'
p1017
aS'and'
p1018
aS'went'
p1019
aS'with'
p1020
aS'him'
p1021
aS','
p1022
aS'and'
p1023
aS'after'
p1024
aS'a'
p1025
aS'while'
p1026
aS'they'
p1027
aS'saw'
p1028
aS'a'
p1029
aS'man'
p1030
aS'who'
p1031
aS'was'
p1032
aS'standing'
p1033
aS'on'
p1034
aS'one'
p1035
aS'leg'
p1036
aS'and'
p1037
aS'had'
p1038
aS'taken'
p1039
aS'off'
p1040
aS'the'
p1041
aS'other'
p1042
aS','
p1043
aS'and'
p1044
aS'laid'
p1045
aS'it'
p1046
aS'beside'
p1047
aS'him'
p1048
aS'.'
p1049
asg32
(lp1050
VThen
p1051
aVthe
p1052
aVblower
p1053
ag733
aVdown
p1054
aVand
p1055
ag262
aVwith
p1056
aVhim
p1057
ag102
aVand
p1058
aVafter
p1059
ag37
aVwhile
p1060
aVthey
p1061
aVsaw
p1062
ag37
aVman
p1063
aVwho
p1064
ag35
aVstand
p1065
aVon
p1066
aVone
p1067
aVleg
p1068
aVand
p1069
ag272
aVtake
p1070
aVoff
p1071
aVthe
p1072
aVother
p1073
ag102
aVand
p1074
aVlay
p1075
aVit
p1076
aVbeside
p1077
aVhim
p1078
ag45
asg46
(lp1079
g48
ag48
ag48
ag48
ag48
ag48
ag48
ag48
ag48
ag48
ag48
ag48
ag48
ag48
ag48
ag48
ag48
ag48
ag48
ag48
ag48
ag48
ag48
ag48
ag48
ag48
ag48
ag48
ag48
ag48
ag48
ag48
ag48
ag48
ag48
ag48
ag48
asg49
(lp1080
g53
ag54
ag55
ag52
ag58
ag130
ag52
ag58
ag128
ag129
ag130
ag58
ag54
ag55
ag128
ag52
ag54
ag55
ag56
ag52
ag522
ag58
ag133
ag55
ag130
ag52
ag166
ag287
ag54
ag285
ag129
ag130
ag52
ag128
ag556
ag128
ag59
asg60
VThen the blower came down and went with him, and after a while they saw a man who was standing on one leg and had taken off the other, and laid it beside him.
p1081
sba(i__main__
Sentence
p1082
(dp1083
g17
I20
sg18
(lp1084
S'Then'
p1085
aS'the'
p1086
aS'master'
p1087
aS'said'
p1088
aS','
p1089
aS'you'
p1090
aS'have'
p1091
aS'arranged'
p1092
aS'things'
p1093
aS'very'
p1094
aS'comfortably'
p1095
aS'to'
p1096
aS'have'
p1097
aS'a'
p1098
aS'rest'
p1099
aS'.'
p1100
asg32
(lp1101
VThen
p1102
aVthe
p1103
aVmaster
p1104
ag153
ag102
aVyou
p1105
aVhave
p1106
aVarrange
p1107
aVthing
p1108
aVvery
p1109
aVcomfortably
p1110
aVto
p1111
aVhave
p1112
ag37
aVrest
p1113
ag45
asg46
(lp1114
g48
ag48
ag48
ag48
ag48
ag48
ag48
ag48
ag48
ag48
ag48
ag48
ag48
ag48
ag48
ag48
asg49
(lp1115
g53
ag54
ag55
ag52
ag129
ag128
ag556
ag166
ag57
ag53
ag53
ag221
ag165
ag54
ag55
ag59
asg60
VThen the master said, you have arranged things very comfortably to have a rest.
p1116
sba(i__main__
Sentence
p1117
(dp1118
g17
I21
sg18
(lp1119
S'I'
p1120
aS'am'
p1121
aS'a'
p1122
aS'runner'
p1123
aS','
p1124
aS'he'
p1125
aS'replied'
p1126
aS','
p1127
aS'and'
p1128
aS'to'
p1129
aS'stop'
p1130
aS'myself'
p1131
aS'running'
p1132
aS'far'
p1133
aS'too'
p1134
aS'fast'
p1135
aS','
p1136
aS'I'
p1137
aS'have'
p1138
aS'taken'
p1139
aS'off'
p1140
aS'one'
p1141
aS'of'
p1142
aS'my'
p1143
aS'legs'
p1144
aS','
p1145
aS'for'
p1146
aS'if'
p1147
aS'I'
p1148
aS'run'
p1149
aS'with'
p1150
aS'both'
p1151
aS','
p1152
aS'I'
p1153
aS'go'
p1154
aS'quicker'
p1155
aS'than'
p1156
aS'any'
p1157
aS'bird'
p1158
aS'can'
p1159
aS'fly'
p1160
aS'.'
p1161
asg32
(lp1162
g155
ag943
ag37
aVrunner
p1163
ag102
aVhe
p1164
aVreply
p1165
ag102
aVand
p1166
aVto
p1167
aVstop
p1168
aVmyself
p1169
aVrun
p1170
aVfar
p1171
aVtoo
p1172
aVfast
p1173
ag102
ag155
aVhave
p1174
ag1070
aVoff
p1175
aVone
p1176
aVof
p1177
aVmy
p1178
aVleg
p1179
ag102
aVfor
p1180
aVif
p1181
ag155
aVrun
p1182
aVwith
p1183
aVboth
p1184
ag102
ag155
aVgo
p1185
aVquicker
p1186
aVthan
p1187
aVany
p1188
aVbird
p1189
aVcan
p1190
aVfly
p1191
ag45
asg46
(lp1192
g48
ag48
ag48
ag48
ag48
ag48
ag48
ag48
ag48
ag48
ag48
ag48
ag48
ag48
ag48
ag48
ag48
ag48
ag48
ag48
ag48
ag48
ag48
ag48
ag48
ag48
ag48
ag48
ag48
ag48
ag48
ag48
ag48
ag48
ag48
ag48
ag48
ag48
ag48
ag48
ag48
ag48
asg49
(lp1193
g128
ag556
ag54
ag55
ag129
ag128
ag52
ag129
ag130
ag221
ag165
ag128
ag522
ag53
ag53
ag53
ag129
ag128
ag556
ag166
ag287
ag133
ag58
ag132
ag57
ag129
ag58
ag58
ag128
ag556
ag58
ag54
ag129
ag128
ag556
ag55
ag58
ag54
ag55
ag164
ag53
ag59
asg60
VI am a runner, he replied, and to stop myself running far too fast, I have taken off one of my legs, for if I run with both, I go quicker than any bird can fly.
p1194
sba(i__main__
Sentence
p1195
(dp1196
g17
I22
sg18
(lp1197
S'Oh'
p1198
aS','
p1199
aS'go'
p1200
aS'with'
p1201
aS'me'
p1202
aS'.'
p1203
asg32
(lp1204
VOh
p1205
ag102
aVgo
p1206
aVwith
p1207
aVme
p1208
ag45
asg46
(lp1209
g48
ag48
ag48
ag48
ag48
ag48
asg49
(lp1210
g674
ag129
ag556
ag58
ag128
ag59
asg60
VOh, go with me.
p1211
sba(i__main__
Sentence
p1212
(dp1213
g17
I23
sg18
(lp1214
S'If'
p1215
aS'we'
p1216
aS'five'
p1217
aS'are'
p1218
aS'together'
p1219
aS','
p1220
aS'we'
p1221
aS'shall'
p1222
aS'carry'
p1223
aS'the'
p1224
aS'whole'
p1225
aS'world'
p1226
aS'before'
p1227
aS'us'
p1228
aS'.'
p1229
asg32
(lp1230
VIf
p1231
aVwe
p1232
aVfive
p1233
ag549
aVtogether
p1234
ag102
aVwe
p1235
aVshall
p1236
aVcarry
p1237
aVthe
p1238
aVwhole
p1239
aVworld
p1240
aVbefore
p1241
ag1006
ag45
asg46
(lp1242
g48
ag48
ag48
ag48
ag48
ag48
ag48
ag48
ag48
ag48
ag48
ag48
ag48
ag48
ag48
asg49
(lp1243
g58
ag128
ag133
ag556
ag53
ag129
ag128
ag164
ag165
ag54
ag285
ag55
ag58
ag128
ag59
asg60
VIf we five are together, we shall carry the whole world before us.
p1244
sba(i__main__
Sentence
p1245
(dp1246
g17
I24
sg18
(lp1247
S'So'
p1248
aS'he'
p1249
aS'went'
p1250
aS'with'
p1251
aS'them'
p1252
aS','
p1253
aS'and'
p1254
aS'it'
p1255
aS'was'
p1256
aS'not'
p1257
aS'long'
p1258
aS'before'
p1259
aS'they'
p1260
aS'met'
p1261
aS'a'
p1262
aS'man'
p1263
aS'who'
p1264
aS'wore'
p1265
aS'a'
p1266
aS'cap'
p1267
aS','
p1268
aS'but'
p1269
aS'wore'
p1270
aS'it'
p1271
aS'entirely'
p1272
aS'over'
p1273
aS'one'
p1274
aS'ear'
p1275
aS'.'
p1276
asg32
(lp1277
VSo
p1278
aVhe
p1279
ag262
aVwith
p1280
aVthem
p1281
ag102
aVand
p1282
aVit
p1283
ag35
aVnot
p1284
aVlong
p1285
aVbefore
p1286
aVthey
p1287
aVmeet
p1288
ag37
aVman
p1289
aVwho
p1290
aVwore
p1291
ag37
aVcap
p1292
ag102
aVbut
p1293
aVwore
p1294
aVit
p1295
aVentirely
p1296
aVover
p1297
aVone
p1298
aVear
p1299
ag45
asg46
(lp1300
g48
ag48
ag48
ag48
ag48
ag48
ag48
ag48
ag48
ag48
ag48
ag48
ag48
ag48
ag48
ag48
ag48
ag48
ag48
ag48
ag48
ag48
ag48
ag48
ag48
ag48
ag48
ag48
ag48
asg49
(lp1301
g58
ag128
ag52
ag58
ag128
ag129
ag130
ag128
ag52
ag53
ag53
ag58
ag128
ag556
ag54
ag55
ag56
ag53
ag54
ag55
ag129
ag130
ag53
ag128
ag53
ag58
ag133
ag55
ag59
asg60
VSo he went with them, and it was not long before they met a man who wore a cap, but wore it entirely over one ear.
p1302
sba(i__main__
Sentence
p1303
(dp1304
g17
I25
sg18
(lp1305
S'Then'
p1306
aS'the'
p1307
aS'master'
p1308
aS'said'
p1309
aS'to'
p1310
aS'him'
p1311
aS','
p1312
aS'gracefully'
p1313
aS','
p1314
aS'gracefully'
p1315
aS','
p1316
aS'do'
p1317
aS"n't"
p1318
aS'stick'
p1319
aS'your'
p1320
aS'cap'
p1321
aS'on'
p1322
aS'one'
p1323
aS'ear'
p1324
aS','
p1325
aS'you'
p1326
aS'look'
p1327
aS'just'
p1328
aS'like'
p1329
aS'a'
p1330
aS'tom-fool'
p1331
aS'.'
p1332
asg32
(lp1333
VThen
p1334
aVthe
p1335
aVmaster
p1336
ag153
aVto
p1337
aVhim
p1338
ag102
aVgracefully
p1339
ag102
aVgracefully
p1340
ag102
aVdo
p1341
aVn't
p1342
aVstick
p1343
aVyour
p1344
aVcap
p1345
aVon
p1346
aVone
p1347
aVear
p1348
ag102
aVyou
p1349
aVlook
p1350
aVjust
p1351
aVlike
p1352
ag37
aVtom-fool
p1353
ag45
asg46
(lp1354
g48
ag48
ag48
ag48
ag48
ag48
ag48
ag48
ag48
ag48
ag48
ag48
ag48
ag48
ag48
ag48
ag48
ag48
ag48
ag48
ag48
ag48
ag48
ag48
ag48
ag48
ag48
asg49
(lp1355
g53
ag54
ag55
ag52
ag221
ag128
ag129
ag53
ag129
ag53
ag129
ag556
ag53
ag165
ag132
ag55
ag58
ag133
ag285
ag129
ag128
ag556
ag53
ag58
ag54
ag285
ag59
asg60
VThen the master said to him, gracefully, gracefully, don't stick your cap on one ear, you look just like a tom-fool.
p1356
sba(i__main__
Sentence
p1357
(dp1358
g17
I26
sg18
(lp1359
S'I'
p1360
aS'must'
p1361
aS'not'
p1362
aS'wear'
p1363
aS'it'
p1364
aS'otherwise'
p1365
aS','
p1366
aS'said'
p1367
aS'he'
p1368
aS','
p1369
aS'for'
p1370
aS'if'
p1371
aS'I'
p1372
aS'set'
p1373
aS'my'
p1374
aS'hat'
p1375
aS'straight'
p1376
aS','
p1377
aS'a'
p1378
aS'terrible'
p1379
aS'frost'
p1380
aS'comes'
p1381
aS'on'
p1382
aS','
p1383
aS'and'
p1384
aS'all'
p1385
aS'the'
p1386
aS'birds'
p1387
aS'in'
p1388
aS'the'
p1389
aS'air'
p1390
aS'are'
p1391
aS'frozen'
p1392
aS','
p1393
aS'and'
p1394
aS'drop'
p1395
aS'dead'
p1396
aS'on'
p1397
aS'the'
p1398
aS'ground'
p1399
aS'.'
p1400
asg32
(lp1401
g155
aVmust
p1402
aVnot
p1403
aVwear
p1404
aVit
p1405
aVotherwise
p1406
ag102
ag153
aVhe
p1407
ag102
aVfor
p1408
aVif
p1409
ag155
aVset
p1410
aVmy
p1411
aVhat
p1412
aVstraight
p1413
ag102
ag37
aVterrible
p1414
aVfrost
p1415
aVcome
p1416
aVon
p1417
ag102
aVand
p1418
aVall
p1419
aVthe
p1420
aVbird
p1421
aVin
p1422
aVthe
p1423
aVair
p1424
ag549
aVfreeze
p1425
ag102
aVand
p1426
aVdrop
p1427
aVdead
p1428
aVon
p1429
aVthe
p1430
aVground
p1431
ag45
asg46
(lp1432
g48
ag48
ag48
ag48
ag48
ag48
ag48
ag48
ag48
ag48
ag48
ag48
ag48
ag48
ag48
ag48
ag48
ag48
ag48
ag48
ag48
ag48
ag48
ag48
ag48
ag48
ag48
ag48
ag48
ag48
ag48
ag48
ag48
ag48
ag48
ag48
ag48
ag48
ag48
ag48
ag48
asg49
(lp1433
g128
ag164
ag53
ag165
ag128
ag165
ag129
ag52
ag128
ag129
ag58
ag58
ag128
ag556
ag132
ag55
ag55
ag129
ag54
ag285
ag55
ag615
ag58
ag129
ag130
ag54
ag54
ag57
ag58
ag54
ag55
ag556
ag166
ag129
ag130
ag55
ag55
ag58
ag54
ag55
ag59
asg60
VI must not wear it otherwise, said he, for if I set my hat straight, a terrible frost comes on, and all the birds in the air are frozen, and drop dead on the ground.
p1434
sba(i__main__
Sentence
p1435
(dp1436
g17
I27
sg18
(lp1437
S'Oh'
p1438
aS','
p1439
aS'come'
p1440
aS'with'
p1441
aS'me'
p1442
aS','
p1443
aS'said'
p1444
aS'the'
p1445
aS'master'
p1446
aS'.'
p1447
asg32
(lp1448
VOh
p1449
ag102
aVcome
p1450
aVwith
p1451
aVme
p1452
ag102
ag153
aVthe
p1453
aVmaster
p1454
ag45
asg46
(lp1455
g48
ag48
ag48
ag48
ag48
ag48
ag48
ag48
ag48
ag48
asg49
(lp1456
g674
ag129
ag556
ag58
ag128
ag129
ag52
ag54
ag55
ag59
asg60
VOh, come with me, said the master.
p1457
sba(i__main__
Sentence
p1458
(dp1459
g17
I28
sg18
(lp1460
S'If'
p1461
aS'we'
p1462
aS'six'
p1463
aS'are'
p1464
aS'together'
p1465
aS','
p1466
aS'we'
p1467
aS'can'
p1468
aS'carry'
p1469
aS'the'
p1470
aS'whole'
p1471
aS'world'
p1472
aS'before'
p1473
aS'us'
p1474
aS'.'
p1475
asg32
(lp1476
VIf
p1477
aVwe
p1478
aVsix
p1479
ag549
aVtogether
p1480
ag102
aVwe
p1481
aVcan
p1482
aVcarry
p1483
aVthe
p1484
aVwhole
p1485
aVworld
p1486
aVbefore
p1487
ag1006
ag45
asg46
(lp1488
g48
ag48
ag48
ag48
ag48
ag48
ag48
ag48
ag48
ag48
ag48
ag48
ag48
ag48
ag48
asg49
(lp1489
g58
ag128
ag133
ag556
ag53
ag129
ag128
ag164
ag165
ag54
ag285
ag55
ag58
ag128
ag59
asg60
VIf we six are together, we can carry the whole world before us.
p1490
sba(i__main__
Sentence
p1491
(dp1492
g17
I29
sg18
(lp1493
S'Now'
p1494
aS'the'
p1495
aS'six'
p1496
aS'came'
p1497
aS'to'
p1498
aS'a'
p1499
aS'town'
p1500
aS'where'
p1501
aS'the'
p1502
aS'king'
p1503
aS'had'
p1504
aS'proclaimed'
p1505
aS'that'
p1506
aS'whosoever'
p1507
aS'ran'
p1508
aS'a'
p1509
aS'race'
p1510
aS'with'
p1511
aS'his'
p1512
aS'daughter'
p1513
aS'and'
p1514
aS'won'
p1515
aS'the'
p1516
aS'victory'
p1517
aS','
p1518
aS'should'
p1519
aS'be'
p1520
aS'her'
p1521
aS'husband'
p1522
aS','
p1523
aS'but'
p1524
aS'whosoever'
p1525
aS'lost'
p1526
aS'it'
p1527
aS','
p1528
aS'must'
p1529
aS'lose'
p1530
aS'his'
p1531
aS'head'
p1532
aS'.'
p1533
asg32
(lp1534
VNow
p1535
aVthe
p1536
aVsix
p1537
ag733
aVto
p1538
ag37
aVtown
p1539
aVwhere
p1540
aVthe
p1541
aVking
p1542
ag272
aVproclaim
p1543
aVthat
p1544
aVwhosoever
p1545
aVrun
p1546
ag37
aVrace
p1547
aVwith
p1548
aVhis
p1549
aVdaughter
p1550
aVand
p1551
aVwin
p1552
aVthe
p1553
aVvictory
p1554
ag102
aVshould
p1555
aVbe
p1556
aVher
p1557
aVhusband
p1558
ag102
aVbut
p1559
aVwhosoever
p1560
aVlose
p1561
aVit
p1562
ag102
aVmust
p1563
aVlose
p1564
aVhis
p1565
aVhead
p1566
ag45
asg46
(lp1567
g48
ag48
ag48
ag48
ag48
ag48
ag48
ag48
ag48
ag48
ag48
ag48
ag48
ag48
ag48
ag48
ag48
ag48
ag48
ag48
ag48
ag48
ag48
ag48
ag48
ag48
ag48
ag48
ag48
ag48
ag48
ag48
ag48
ag48
ag48
ag48
ag48
ag48
ag48
ag48
asg49
(lp1568
g53
ag54
ag133
ag52
ag221
ag54
ag55
ag131
ag54
ag55
ag52
ag166
ag58
ag55
ag52
ag54
ag55
ag58
ag132
ag55
ag130
ag52
ag54
ag55
ag129
ag164
ag165
ag128
ag165
ag129
ag130
ag53
ag52
ag128
ag129
ag164
ag165
ag132
ag55
ag59
asg60
VNow the six came to a town where the king had proclaimed that whosoever ran a race with his daughter and won the victory, should be her husband, but whosoever lost it, must lose his head.
p1569
sba(i__main__
Sentence
p1570
(dp1571
g17
I30
sg18
(lp1572
S'Then'
p1573
aS'the'
p1574
aS'man'
p1575
aS'presented'
p1576
aS'himself'
p1577
aS'and'
p1578
aS'said'
p1579
aS','
p1580
aS'I'
p1581
aS'will'
p1582
aS','
p1583
aS'however'
p1584
aS','
p1585
aS'let'
p1586
aS'my'
p1587
aS'servant'
p1588
aS'run'
p1589
aS'for'
p1590
aS'me'
p1591
aS'.'
p1592
asg32
(lp1593
VThen
p1594
aVthe
p1595
aVman
p1596
aVpresent
p1597
aVhimself
p1598
aVand
p1599
ag153
ag102
ag155
aVwill
p1600
ag102
aVhowever
p1601
ag102
aVlet
p1602
aVmy
p1603
aVservant
p1604
aVrun
p1605
aVfor
p1606
aVme
p1607
ag45
asg46
(lp1608
g48
ag48
ag48
ag48
ag48
ag48
ag48
ag48
ag48
ag48
ag48
ag48
ag48
ag48
ag48
ag48
ag48
ag48
ag48
ag48
asg49
(lp1609
g53
ag54
ag55
ag52
ag128
ag130
ag52
ag129
ag128
ag164
ag129
ag53
ag129
ag165
ag132
ag55
ag166
ag58
ag128
ag59
asg60
VThen the man presented himself and said, I will, however, let my servant run for me.
p1610
sba(i__main__
Sentence
p1611
(dp1612
g17
I31
sg18
(lp1613
S'The'
p1614
aS'king'
p1615
aS'replied'
p1616
aS','
p1617
aS'then'
p1618
aS'his'
p1619
aS'life'
p1620
aS'also'
p1621
aS'must'
p1622
aS'be'
p1623
aS'staked'
p1624
aS','
p1625
aS'so'
p1626
aS'that'
p1627
aS'his'
p1628
aS'head'
p1629
aS'and'
p1630
aS'yours'
p1631
aS'are'
p1632
aS'both'
p1633
aS'set'
p1634
aS'on'
p1635
aS'the'
p1636
aS'victory'
p1637
aS'.'
p1638
asg32
(lp1639
VThe
p1640
aVking
p1641
ag1165
ag102
aVthen
p1642
aVhis
p1643
aVlife
p1644
aValso
p1645
aVmust
p1646
aVbe
p1647
aVstake
p1648
ag102
aVso
p1649
aVthat
p1650
aVhis
p1651
aVhead
p1652
aVand
p1653
aVyours
p1654
ag549
aVboth
p1655
aVset
p1656
aVon
p1657
aVthe
p1658
aVvictory
p1659
ag45
asg46
(lp1660
g48
ag48
ag48
ag48
ag48
ag48
ag48
ag48
ag48
ag48
ag48
ag48
ag48
ag48
ag48
ag48
ag48
ag48
ag48
ag48
ag48
ag48
ag48
ag48
ag48
asg49
(lp1661
g54
ag55
ag52
ag129
ag53
ag132
ag55
ag53
ag164
ag165
ag166
ag129
ag53
ag58
ag132
ag55
ag130
ag57
ag556
ag54
ag55
ag58
ag54
ag55
ag59
asg60
VThe king replied, then his life also must be staked, so that his head and yours are both set on the victory.
p1662
sba(i__main__
Sentence
p1663
(dp1664
g17
I32
sg18
(lp1665
S'When'
p1666
aS'that'
p1667
aS'was'
p1668
aS'settled'
p1669
aS'and'
p1670
aS'made'
p1671
aS'secure'
p1672
aS','
p1673
aS'the'
p1674
aS'man'
p1675
aS'buckled'
p1676
aS'the'
p1677
aS'other'
p1678
aS'leg'
p1679
aS'on'
p1680
aS'the'
p1681
aS'runner'
p1682
aS','
p1683
aS'and'
p1684
aS'said'
p1685
aS'to'
p1686
aS'him'
p1687
aS','
p1688
aS'now'
p1689
aS'be'
p1690
aS'nimble'
p1691
aS','
p1692
aS'and'
p1693
aS'help'
p1694
aS'us'
p1695
aS'to'
p1696
aS'win'
p1697
aS'.'
p1698
asg32
(lp1699
VWhen
p1700
aVthat
p1701
ag35
aVsettle
p1702
aVand
p1703
aVmake
p1704
aVsecure
p1705
ag102
aVthe
p1706
aVman
p1707
aVbuckle
p1708
aVthe
p1709
aVother
p1710
aVleg
p1711
aVon
p1712
aVthe
p1713
aVrunner
p1714
ag102
aVand
p1715
ag153
aVto
p1716
aVhim
p1717
ag102
aVnow
p1718
aVbe
p1719
aVnimble
p1720
ag102
aVand
p1721
aVhelp
p1722
ag1006
aVto
p1723
aVwin
p1724
ag45
asg46
(lp1725
g48
ag48
ag48
ag48
ag48
ag48
ag48
ag48
ag48
ag48
ag48
ag48
ag48
ag48
ag48
ag48
ag48
ag48
ag48
ag48
ag48
ag48
ag48
ag48
ag48
ag48
ag48
ag48
ag48
ag48
ag48
ag48
ag48
asg49
(lp1726
g131
ag54
ag52
ag166
ag130
ag52
ag55
ag129
ag54
ag55
ag52
ag54
ag285
ag55
ag58
ag54
ag55
ag129
ag130
ag52
ag221
ag128
ag129
ag53
ag165
ag285
ag129
ag130
ag165
ag128
ag221
ag165
ag59
asg60
VWhen that was settled and made secure, the man buckled the other leg on the runner, and said to him, now be nimble, and help us to win.
p1727
sba(i__main__
Sentence
p1728
(dp1729
g17
I33
sg18
(lp1730
S'It'
p1731
aS'was'
p1732
aS'fixed'
p1733
aS'that'
p1734
aS'the'
p1735
aS'one'
p1736
aS'who'
p1737
aS'was'
p1738
aS'first'
p1739
aS'to'
p1740
aS'bring'
p1741
aS'some'
p1742
aS'water'
p1743
aS'from'
p1744
aS'a'
p1745
aS'far'
p1746
aS'distant'
p1747
aS'well'
p1748
aS'was'
p1749
aS'to'
p1750
aS'be'
p1751
aS'the'
p1752
aS'victor'
p1753
aS'.'
p1754
asg32
(lp1755
VIt
p1756
ag35
aVfix
p1757
aVthat
p1758
aVthe
p1759
aVone
p1760
aVwho
p1761
ag35
aVfirst
p1762
aVto
p1763
aVbring
p1764
aVsome
p1765
aVwater
p1766
aVfrom
p1767
ag37
aVfar
p1768
aVdistant
p1769
aVwell
p1770
ag35
aVto
p1771
aVbe
p1772
aVthe
p1773
aVvictor
p1774
ag45
asg46
(lp1775
g48
ag48
ag48
ag48
ag48
ag48
ag48
ag48
ag48
ag48
ag48
ag48
ag48
ag48
ag48
ag48
ag48
ag48
ag48
ag48
ag48
ag48
ag48
ag48
asg49
(lp1776
g128
ag52
ag166
ag58
ag54
ag133
ag56
ag52
ag285
ag221
ag165
ag54
ag55
ag58
ag54
ag55
ag55
ag53
ag52
ag221
ag165
ag54
ag55
ag59
asg60
VIt was fixed that the one who was first to bring some water from a far distant well was to be the victor.
p1777
sba(i__main__
Sentence
p1778
(dp1779
g17
I34
sg18
(lp1780
S'The'
p1781
aS'runner'
p1782
aS'received'
p1783
aS'a'
p1784
aS'pitcher'
p1785
aS','
p1786
aS'and'
p1787
aS'the'
p1788
aS'king'
p1789
aS"'s"
p1790
aS'daughter'
p1791
aS'one'
p1792
aS'too'
p1793
aS','
p1794
aS'and'
p1795
aS'they'
p1796
aS'began'
p1797
aS'to'
p1798
aS'run'
p1799
aS'at'
p1800
aS'the'
p1801
aS'same'
p1802
aS'time'
p1803
aS','
p1804
aS'but'
p1805
aS'in'
p1806
aS'an'
p1807
aS'instant'
p1808
aS','
p1809
aS'when'
p1810
aS'the'
p1811
aS'king'
p1812
aS"'s"
p1813
aS'daughter'
p1814
aS'had'
p1815
aS'got'
p1816
aS'a'
p1817
aS'very'
p1818
aS'little'
p1819
aS'way'
p1820
aS','
p1821
aS'the'
p1822
aS'people'
p1823
aS'who'
p1824
aS'were'
p1825
aS'looking'
p1826
aS'on'
p1827
aS'could'
p1828
aS'see'
p1829
aS'no'
p1830
aS'more'
p1831
aS'of'
p1832
aS'the'
p1833
aS'runner'
p1834
aS','
p1835
aS'and'
p1836
aS'it'
p1837
aS'was'
p1838
aS'just'
p1839
aS'as'
p1840
aS'if'
p1841
aS'the'
p1842
aS'wind'
p1843
aS'had'
p1844
aS'whistled'
p1845
aS'by'
p1846
aS'.'
p1847
asg32
(lp1848
VThe
p1849
aVrunner
p1850
aVreceive
p1851
ag37
aVpitcher
p1852
ag102
aVand
p1853
aVthe
p1854
aVking
p1855
aV's
p1856
aVdaughter
p1857
aVone
p1858
aVtoo
p1859
ag102
aVand
p1860
aVthey
p1861
aVbegin
p1862
aVto
p1863
aVrun
p1864
aVat
p1865
aVthe
p1866
aVsame
p1867
aVtime
p1868
ag102
aVbut
p1869
aVin
p1870
aVan
p1871
aVinstant
p1872
ag102
aVwhen
p1873
aVthe
p1874
aVking
p1875
aV's
p1876
aVdaughter
p1877
ag272
aVget
p1878
ag37
aVvery
p1879
aVlittle
p1880
aVway
p1881
ag102
aVthe
p1882
aVpeople
p1883
aVwho
p1884
ag279
aVlook
p1885
aVon
p1886
aVcould
p1887
aVsee
p1888
aVno
p1889
aVmore
p1890
aVof
p1891
aVthe
p1892
aVrunner
p1893
ag102
aVand
p1894
aVit
p1895
ag35
aVjust
p1896
ag37
aVif
p1897
aVthe
p1898
aVwind
p1899
ag272
aVwhistle
p1900
aVby
p1901
ag45
asg46
(lp1902
g48
ag48
ag48
ag48
ag48
ag48
ag48
ag48
ag48
ag48
ag48
ag48
ag48
ag48
ag48
ag48
ag48
ag48
ag48
ag48
ag48
ag48
ag48
ag48
ag48
ag48
ag48
ag48
ag48
ag48
ag48
ag48
ag48
ag48
ag48
ag48
ag48
ag48
ag48
ag48
ag48
ag48
ag48
ag48
ag48
ag48
ag48
ag48
ag48
ag48
ag48
ag48
ag48
ag48
ag48
ag48
ag48
ag48
ag48
ag48
ag48
ag48
ag48
ag48
ag48
ag48
ag48
asg49
(lp1903
g54
ag55
ag52
ag54
ag55
ag129
ag130
ag54
ag55
aS'POS'
p1904
ag55
ag133
ag53
ag129
ag130
ag128
ag52
ag221
ag165
ag58
ag54
ag285
ag55
ag129
ag130
ag58
ag54
ag285
ag129
ag131
ag54
ag55
ag1904
ag55
ag52
ag166
ag54
ag53
ag285
ag55
ag129
ag54
ag57
ag56
ag52
ag522
ag58
ag164
ag165
ag54
aS'RBR'
p1905
ag58
ag54
ag55
ag129
ag130
ag128
ag52
ag53
ag58
ag58
ag54
ag55
ag52
ag166
ag58
ag59
asg60
VThe runner received a pitcher, and the king's daughter one too, and they began to run at the same time, but in an instant, when the king's daughter had got a very little way, the people who were looking on could see no more of the runner, and it was just as if the wind had whistled by.
p1906
sba(i__main__
Sentence
p1907
(dp1908
g17
I35
sg18
(lp1909
S'In'
p1910
aS'a'
p1911
aS'short'
p1912
aS'time'
p1913
aS'he'
p1914
aS'reached'
p1915
aS'the'
p1916
aS'well'
p1917
aS','
p1918
aS'filled'
p1919
aS'his'
p1920
aS'pitcher'
p1921
aS'with'
p1922
aS'water'
p1923
aS','
p1924
aS'and'
p1925
aS'turned'
p1926
aS'back'
p1927
aS'.'
p1928
asg32
(lp1929
VIn
p1930
ag37
aVshort
p1931
aVtime
p1932
aVhe
p1933
aVreach
p1934
aVthe
p1935
aVwell
p1936
ag102
aVfill
p1937
aVhis
p1938
aVpitcher
p1939
aVwith
p1940
aVwater
p1941
ag102
aVand
p1942
aVturn
p1943
aVback
p1944
ag45
asg46
(lp1945
g48
ag48
ag48
ag48
ag48
ag48
ag48
ag48
ag48
ag48
ag48
ag48
ag48
ag48
ag48
ag48
ag48
ag48
ag48
asg49
(lp1946
g58
ag54
ag285
ag55
ag128
ag52
ag54
ag55
ag129
ag52
ag132
ag55
ag58
ag55
ag129
ag130
ag52
ag287
ag59
asg60
VIn a short time he reached the well, filled his pitcher with water, and turned back.
p1947
sba(i__main__
Sentence
p1948
(dp1949
g17
I36
sg18
(lp1950
S'Half-way'
p1951
aS'home'
p1952
aS','
p1953
aS'however'
p1954
aS','
p1955
aS'he'
p1956
aS'was'
p1957
aS'overcome'
p1958
aS'with'
p1959
aS'fatigue'
p1960
aS','
p1961
aS'and'
p1962
aS'set'
p1963
aS'his'
p1964
aS'pitcher'
p1965
aS'down'
p1966
aS','
p1967
aS'lay'
p1968
aS'down'
p1969
aS'himself'
p1970
aS','
p1971
aS'and'
p1972
aS'fell'
p1973
aS'asleep'
p1974
aS'.'
p1975
asg32
(lp1976
VHalf-way
p1977
aVhome
p1978
ag102
aVhowever
p1979
ag102
aVhe
p1980
ag35
aVovercome
p1981
aVwith
p1982
aVfatigue
p1983
ag102
aVand
p1984
aVset
p1985
aVhis
p1986
aVpitcher
p1987
aVdown
p1988
ag102
aVlay
p1989
aVdown
p1990
aVhimself
p1991
ag102
aVand
p1992
aVfell
p1993
aVasleep
p1994
ag45
asg46
(lp1995
g48
ag48
ag48
ag48
ag48
ag48
ag48
ag48
ag48
ag48
ag48
ag48
ag48
ag48
ag48
ag48
ag48
ag48
ag48
ag48
ag48
ag48
ag48
ag48
ag48
asg49
(lp1996
g55
ag55
ag129
ag53
ag129
ag128
ag52
ag166
ag58
ag285
ag129
ag130
ag52
ag132
ag55
ag58
ag129
ag55
ag58
ag128
ag129
ag130
ag52
ag165
ag59
asg60
VHalf-way home, however, he was overcome with fatigue, and set his pitcher down, lay down himself, and fell asleep.
p1997
sba(i__main__
Sentence
p1998
(dp1999
g17
I37
sg18
(lp2000
S'But'
p2001
aS'he'
p2002
aS'had'
p2003
aS'made'
p2004
aS'a'
p2005
aS'pillow'
p2006
aS'of'
p2007
aS'a'
p2008
aS'horse'
p2009
aS"'s"
p2010
aS'skull'
p2011
aS'which'
p2012
aS'was'
p2013
aS'lying'
p2014
aS'on'
p2015
aS'the'
p2016
aS'ground'
p2017
aS','
p2018
aS'in'
p2019
aS'order'
p2020
aS'that'
p2021
aS'he'
p2022
aS'might'
p2023
aS'lie'
p2024
aS'uncomfortably'
p2025
aS','
p2026
aS'and'
p2027
aS'soon'
p2028
aS'wake'
p2029
aS'up'
p2030
aS'again'
p2031
aS'.'
p2032
asg32
(lp2033
VBut
p2034
aVhe
p2035
ag272
ag1704
ag37
aVpillow
p2036
aVof
p2037
ag37
aVhorse
p2038
aV's
p2039
aVskull
p2040
aVwhich
p2041
ag35
aVlie
p2042
aVon
p2043
aVthe
p2044
aVground
p2045
ag102
aVin
p2046
aVorder
p2047
aVthat
p2048
aVhe
p2049
aVmight
p2050
aVlie
p2051
aVuncomfortably
p2052
ag102
aVand
p2053
aVsoon
p2054
aVwake
p2055
aVup
p2056
aVagain
p2057
ag45
asg46
(lp2058
g48
ag48
ag48
ag48
ag48
ag48
ag48
ag48
ag48
ag48
ag48
ag48
ag48
ag48
ag48
ag48
ag48
ag48
ag48
ag48
ag48
ag48
ag48
ag48
ag48
ag48
ag48
ag48
ag48
ag48
ag48
ag48
asg49
(lp2059
g130
ag128
ag52
ag166
ag54
ag55
ag58
ag54
ag55
ag1904
ag55
aS'WDT'
p2060
ag52
ag522
ag58
ag54
ag55
ag129
ag58
ag55
ag58
ag128
ag164
ag165
ag53
ag129
ag130
ag53
ag165
ag287
ag53
ag59
asg60
VBut he had made a pillow of a horse's skull which was lying on the ground, in order that he might lie uncomfortably, and soon wake up again.
p2061
sba(i__main__
Sentence
p2062
(dp2063
g17
I38
sg18
(lp2064
S'In'
p2065
aS'the'
p2066
aS'meantime'
p2067
aS'the'
p2068
aS'king'
p2069
aS"'s"
p2070
aS'daughter'
p2071
aS','
p2072
aS'who'
p2073
aS'could'
p2074
aS'also'
p2075
aS'run'
p2076
aS'very'
p2077
aS'well'
p2078
aS'-'
p2079
aS'quite'
p2080
aS'as'
p2081
aS'well'
p2082
aS'as'
p2083
aS'any'
p2084
aS'ordinary'
p2085
aS'mortal'
p2086
aS'can'
p2087
aS'-'
p2088
aS'had'
p2089
aS'reached'
p2090
aS'the'
p2091
aS'well'
p2092
aS','
p2093
aS'and'
p2094
aS'was'
p2095
aS'hurrying'
p2096
aS'back'
p2097
aS'with'
p2098
aS'her'
p2099
aS'pitcher'
p2100
aS'full'
p2101
aS'of'
p2102
aS'water'
p2103
aS','
p2104
aS'and'
p2105
aS'when'
p2106
aS'she'
p2107
aS'saw'
p2108
aS'the'
p2109
aS'runner'
p2110
aS'lying'
p2111
aS'there'
p2112
aS'asleep'
p2113
aS','
p2114
aS'she'
p2115
aS'was'
p2116
aS'glad'
p2117
aS'and'
p2118
aS'said'
p2119
aS','
p2120
aS'my'
p2121
aS'enemy'
p2122
aS'is'
p2123
aS'delivered'
p2124
aS'over'
p2125
aS'into'
p2126
aS'my'
p2127
aS'hands'
p2128
aS','
p2129
aS'emptied'
p2130
aS'his'
p2131
aS'pitcher'
p2132
aS','
p2133
aS'and'
p2134
aS'ran'
p2135
aS'on'
p2136
aS'.'
p2137
asg32
(lp2138
VIn
p2139
aVthe
p2140
aVmeantime
p2141
aVthe
p2142
aVking
p2143
aV's
p2144
aVdaughter
p2145
ag102
aVwho
p2146
aVcould
p2147
aValso
p2148
aVrun
p2149
aVvery
p2150
aVwell
p2151
aV-
p2152
aVquite
p2153
ag37
aVwell
p2154
ag37
aVany
p2155
aVordinary
p2156
aVmortal
p2157
aVcan
p2158
ag2152
ag272
aVreach
p2159
aVthe
p2160
aVwell
p2161
ag102
aVand
p2162
ag35
aVhurry
p2163
aVback
p2164
aVwith
p2165
aVher
p2166
aVpitcher
p2167
aVfull
p2168
aVof
p2169
aVwater
p2170
ag102
aVand
p2171
aVwhen
p2172
aVshe
p2173
aVsaw
p2174
aVthe
p2175
aVrunner
p2176
ag2042
aVthere
p2177
aVasleep
p2178
ag102
aVshe
p2179
ag35
aVglad
p2180
aVand
p2181
ag153
ag102
aVmy
p2182
aVenemy
p2183
ag597
aVdeliver
p2184
aVover
p2185
aVinto
p2186
aVmy
p2187
aVhand
p2188
ag102
aVempty
p2189
aVhis
p2190
aVpitcher
p2191
ag102
aVand
p2192
ag1546
aVon
p2193
ag45
asg46
(lp2194
g48
ag48
ag48
ag48
ag48
ag48
ag48
ag48
ag48
ag48
ag48
ag48
ag48
ag48
ag48
ag48
ag48
ag48
ag48
ag48
ag48
ag48
ag48
ag48
ag48
ag48
ag48
ag48
ag48
ag48
ag48
ag48
ag48
ag48
ag48
ag48
ag48
ag48
ag48
ag48
ag48
ag48
ag48
ag48
ag48
ag48
ag48
ag48
ag48
ag48
ag48
ag48
ag48
ag48
ag48
ag48
ag48
ag48
ag48
ag48
ag48
ag48
ag48
ag48
ag48
ag48
ag48
ag48
ag48
ag48
ag48
ag48
ag48
asg49
(lp2195
g58
ag54
ag55
ag54
ag55
ag1904
ag55
ag129
ag56
ag164
ag53
ag165
ag53
ag53
aS':'
p2196
ag53
ag58
ag53
ag58
ag54
ag285
ag55
ag164
ag2196
ag52
ag166
ag54
ag53
ag129
ag130
ag52
ag522
ag53
ag58
ag132
ag55
ag285
ag58
ag55
ag129
ag130
ag131
ag128
ag52
ag54
ag55
ag522
ag51
ag55
ag129
ag128
ag52
ag285
ag130
ag52
ag129
ag132
ag55
ag615
ag166
ag58
ag58
ag132
ag57
ag129
ag52
ag132
ag55
ag129
ag130
ag52
ag58
ag59
asg60
VIn the meantime the king's daughter, who could also run very well - quite as well as any ordinary mortal can - had reached the well, and was hurrying back with her pitcher full of water, and when she saw the runner lying there asleep, she was glad and said, my enemy is delivered over into my hands, emptied his pitcher, and ran on.
p2197
sba(i__main__
Sentence
p2198
(dp2199
g17
I39
sg18
(lp2200
S'And'
p2201
aS'now'
p2202
aS'all'
p2203
aS'would'
p2204
aS'have'
p2205
aS'been'
p2206
aS'lost'
p2207
aS'if'
p2208
aS'by'
p2209
aS'good'
p2210
aS'luck'
p2211
aS'the'
p2212
aS'huntsman'
p2213
aS'had'
p2214
aS'not'
p2215
aS'been'
p2216
aS'standing'
p2217
aS'at'
p2218
aS'the'
p2219
aS'top'
p2220
aS'of'
p2221
aS'the'
p2222
aS'castle'
p2223
aS','
p2224
aS'and'
p2225
aS'had'
p2226
aS'not'
p2227
aS'seen'
p2228
aS'everything'
p2229
aS'with'
p2230
aS'his'
p2231
aS'sharp'
p2232
aS'eyes'
p2233
aS'.'
p2234
asg32
(lp2235
VAnd
p2236
aVnow
p2237
aVall
p2238
aVwould
p2239
aVhave
p2240
aVbe
p2241
ag1561
aVif
p2242
aVby
p2243
aVgood
p2244
aVluck
p2245
aVthe
p2246
aVhuntsman
p2247
ag272
aVnot
p2248
ag2241
aVstand
p2249
aVat
p2250
aVthe
p2251
aVtop
p2252
aVof
p2253
aVthe
p2254
aVcastle
p2255
ag102
aVand
p2256
ag272
aVnot
p2257
aVsee
p2258
aVeverything
p2259
aVwith
p2260
aVhis
p2261
aVsharp
p2262
aVeye
p2263
ag45
asg46
(lp2264
g48
ag48
ag48
ag48
ag48
ag48
ag48
ag48
ag48
ag48
ag48
ag48
ag48
ag48
ag48
ag48
ag48
ag48
ag48
ag48
ag48
ag48
ag48
ag48
ag48
ag48
ag48
ag48
ag48
ag48
ag48
ag48
ag48
ag48
asg49
(lp2265
g130
ag53
ag54
ag164
ag165
ag166
ag166
ag58
ag58
ag55
ag55
ag54
ag55
ag52
ag53
ag166
ag522
ag58
ag54
ag285
ag58
ag54
ag55
ag129
ag130
ag52
ag53
ag166
ag55
ag58
ag132
ag285
ag57
ag59
asg60
VAnd now all would have been lost if by good luck the huntsman had not been standing at the top of the castle, and had not seen everything with his sharp eyes.
p2266
sba(i__main__
Sentence
p2267
(dp2268
g17
I40
sg18
(lp2269
S'Then'
p2270
aS'said'
p2271
aS'he'
p2272
aS','
p2273
aS'the'
p2274
aS'king'
p2275
aS"'s"
p2276
aS'daughter'
p2277
aS'shall'
p2278
aS'still'
p2279
aS'not'
p2280
aS'prevail'
p2281
aS'against'
p2282
aS'us'
p2283
aS'.'
p2284
asg32
(lp2285
VThen
p2286
ag153
aVhe
p2287
ag102
aVthe
p2288
aVking
p2289
aV's
p2290
aVdaughter
p2291
aVshall
p2292
aVstill
p2293
aVnot
p2294
aVprevail
p2295
aVagainst
p2296
ag1006
ag45
asg46
(lp2297
g48
ag48
ag48
ag48
ag48
ag48
ag48
ag48
ag48
ag48
ag48
ag48
ag48
ag48
ag48
asg49
(lp2298
g53
ag52
ag128
ag129
ag54
ag55
ag1904
ag55
ag164
ag53
ag53
ag165
ag58
ag128
ag59
asg60
VThen said he, the king's daughter shall still not prevail against us.
p2299
sba(i__main__
Sentence
p2300
(dp2301
g17
I41
sg18
(lp2302
S'And'
p2303
aS'he'
p2304
aS'loaded'
p2305
aS'his'
p2306
aS'gun'
p2307
aS','
p2308
aS'and'
p2309
aS'shot'
p2310
aS'so'
p2311
aS'cleverly'
p2312
aS','
p2313
aS'that'
p2314
aS'he'
p2315
aS'shot'
p2316
aS'the'
p2317
aS'horse'
p2318
aS"'s"
p2319
aS'skull'
p2320
aS'away'
p2321
aS'from'
p2322
aS'under'
p2323
aS'the'
p2324
aS'runner'
p2325
aS"'s"
p2326
aS'head'
p2327
aS'without'
p2328
aS'hurting'
p2329
aS'him'
p2330
aS'.'
p2331
asg32
(lp2332
VAnd
p2333
aVhe
p2334
aVload
p2335
aVhis
p2336
aVgun
p2337
ag102
aVand
p2338
aVshoot
p2339
aVso
p2340
aVcleverly
p2341
ag102
aVthat
p2342
aVhe
p2343
ag2339
aVthe
p2344
aVhorse
p2345
aV's
p2346
aVskull
p2347
aVaway
p2348
aVfrom
p2349
aVunder
p2350
aVthe
p2351
aVrunner
p2352
aV's
p2353
aVhead
p2354
aVwithout
p2355
aVhurt
p2356
aVhim
p2357
ag45
asg46
(lp2358
g48
ag48
ag48
ag48
ag48
ag48
ag48
ag48
ag48
ag48
ag48
ag48
ag48
ag48
ag48
ag48
ag48
ag48
ag48
ag48
ag48
ag48
ag48
ag48
ag48
ag48
ag48
ag48
ag48
asg49
(lp2359
g130
ag128
ag52
ag132
ag55
ag129
ag130
ag52
ag53
ag53
ag129
ag58
ag128
ag52
ag54
ag55
ag1904
ag55
ag53
ag58
ag58
ag54
ag55
ag1904
ag55
ag58
ag522
ag128
ag59
asg60
VAnd he loaded his gun, and shot so cleverly, that he shot the horse's skull away from under the runner's head without hurting him.
p2360
sba(i__main__
Sentence
p2361
(dp2362
g17
I42
sg18
(lp2363
S'Then'
p2364
aS'the'
p2365
aS'runner'
p2366
aS'awoke'
p2367
aS','
p2368
aS'leapt'
p2369
aS'up'
p2370
aS','
p2371
aS'and'
p2372
aS'saw'
p2373
aS'that'
p2374
aS'his'
p2375
aS'pitcher'
p2376
aS'was'
p2377
aS'empty'
p2378
aS','
p2379
aS'and'
p2380
aS'that'
p2381
aS'the'
p2382
aS'king'
p2383
aS"'s"
p2384
aS'daughter'
p2385
aS'was'
p2386
aS'already'
p2387
aS'far'
p2388
aS'in'
p2389
aS'advance'
p2390
aS'.'
p2391
asg32
(lp2392
VThen
p2393
aVthe
p2394
aVrunner
p2395
aVawoke
p2396
ag102
aVleap
p2397
aVup
p2398
ag102
aVand
p2399
aVsaw
p2400
aVthat
p2401
aVhis
p2402
aVpitcher
p2403
ag35
aVempty
p2404
ag102
aVand
p2405
aVthat
p2406
aVthe
p2407
aVking
p2408
aV's
p2409
aVdaughter
p2410
ag35
aValready
p2411
aVfar
p2412
aVin
p2413
aVadvance
p2414
ag45
asg46
(lp2415
g48
ag48
ag48
ag48
ag48
ag48
ag48
ag48
ag48
ag48
ag48
ag48
ag48
ag48
ag48
ag48
ag48
ag48
ag48
ag48
ag48
ag48
ag48
ag48
ag48
ag48
ag48
ag48
asg49
(lp2416
g53
ag54
ag55
ag55
ag129
ag52
ag287
ag129
ag130
ag52
ag58
ag132
ag55
ag52
ag285
ag129
ag130
ag58
ag54
ag55
ag1904
ag55
ag52
ag53
ag53
ag58
ag55
ag59
asg60
VThen the runner awoke, leapt up, and saw that his pitcher was empty, and that the king's daughter was already far in advance.
p2417
sba(i__main__
Sentence
p2418
(dp2419
g17
I43
sg18
(lp2420
S'He'
p2421
aS'did'
p2422
aS'not'
p2423
aS'lose'
p2424
aS'heart'
p2425
aS','
p2426
aS'however'
p2427
aS','
p2428
aS'but'
p2429
aS'ran'
p2430
aS'back'
p2431
aS'to'
p2432
aS'the'
p2433
aS'well'
p2434
aS'with'
p2435
aS'his'
p2436
aS'pitcher'
p2437
aS','
p2438
aS'again'
p2439
aS'drew'
p2440
aS'some'
p2441
aS'water'
p2442
aS','
p2443
aS'and'
p2444
aS'was'
p2445
aS'at'
p2446
aS'home'
p2447
aS'again'
p2448
aS'even'
p2449
aS'ten'
p2450
aS'minutes'
p2451
aS'before'
p2452
aS'the'
p2453
aS'king'
p2454
aS"'s"
p2455
aS'daughter'
p2456
aS'.'
p2457
asg32
(lp2458
VHe
p2459
aVdo
p2460
aVnot
p2461
aVlose
p2462
aVheart
p2463
ag102
aVhowever
p2464
ag102
aVbut
p2465
ag1546
aVback
p2466
aVto
p2467
aVthe
p2468
aVwell
p2469
aVwith
p2470
aVhis
p2471
aVpitcher
p2472
ag102
aVagain
p2473
aVdraw
p2474
aVsome
p2475
aVwater
p2476
ag102
aVand
p2477
ag35
aVat
p2478
aVhome
p2479
aVagain
p2480
aVeven
p2481
aVten
p2482
aVminute
p2483
aVbefore
p2484
aVthe
p2485
aVking
p2486
aV's
p2487
aVdaughter
p2488
ag45
asg46
(lp2489
g48
ag48
ag48
ag48
ag48
ag48
ag48
ag48
ag48
ag48
ag48
ag48
ag48
ag48
ag48
ag48
ag48
ag48
ag48
ag48
ag48
ag48
ag48
ag48
ag48
ag48
ag48
ag48
ag48
ag48
ag48
ag48
ag48
ag48
ag48
ag48
ag48
asg49
(lp2490
g128
ag52
ag53
ag165
ag55
ag129
ag53
ag129
ag130
ag52
ag287
ag221
ag54
ag53
ag58
ag132
ag55
ag129
ag53
ag52
ag54
ag55
ag129
ag130
ag52
ag58
ag55
ag53
ag53
ag166
ag57
ag58
ag54
ag55
ag1904
ag55
ag59
asg60
VHe did not lose heart, however, but ran back to the well with his pitcher, again drew some water, and was at home again even ten minutes before the king's daughter.
p2491
sba(i__main__
Sentence
p2492
(dp2493
g17
I44
sg18
(lp2494
S'Behold'
p2495
aS','
p2496
aS'said'
p2497
aS'he'
p2498
aS','
p2499
aS'only'
p2500
aS'now'
p2501
aS'have'
p2502
aS'I'
p2503
aS'begun'
p2504
aS'to'
p2505
aS'use'
p2506
aS'my'
p2507
aS'legs'
p2508
aS'.'
p2509
asg32
(lp2510
VBehold
p2511
ag102
ag153
aVhe
p2512
ag102
aVonly
p2513
aVnow
p2514
aVhave
p2515
ag155
aVbegin
p2516
aVto
p2517
aVuse
p2518
aVmy
p2519
aVleg
p2520
ag45
asg46
(lp2521
g48
ag48
ag48
ag48
ag48
ag48
ag48
ag48
ag48
ag48
ag48
ag48
ag48
ag48
ag48
asg49
(lp2522
g880
ag129
ag52
ag128
ag129
ag53
ag53
ag556
ag128
ag556
ag221
ag165
ag132
ag57
ag59
asg60
VBehold, said he, only now have I begun to use my legs.
p2523
sba(i__main__
Sentence
p2524
(dp2525
g17
I45
sg18
(lp2526
S'What'
p2527
aS'I'
p2528
aS'did'
p2529
aS'before'
p2530
aS'did'
p2531
aS'not'
p2532
aS'deserve'
p2533
aS'to'
p2534
aS'be'
p2535
aS'called'
p2536
aS'running'
p2537
aS'.'
p2538
asg32
(lp2539
VWhat
p2540
ag155
ag2460
aVbefore
p2541
ag2460
aVnot
p2542
aVdeserve
p2543
aVto
p2544
aVbe
p2545
aVcall
p2546
ag1170
ag45
asg46
(lp2547
g48
ag48
ag48
ag48
ag48
ag48
ag48
ag48
ag48
ag48
ag48
ag48
asg49
(lp2548
g56
ag128
ag52
ag58
ag52
ag53
ag165
ag221
ag165
ag166
ag522
ag59
asg60
VWhat I did before did not deserve to be called running.
p2549
sba(i__main__
Sentence
p2550
(dp2551
g17
I46
sg18
(lp2552
S'But'
p2553
aS'it'
p2554
aS'pained'
p2555
aS'the'
p2556
aS'king'
p2557
aS','
p2558
aS'and'
p2559
aS'still'
p2560
aS'more'
p2561
aS'his'
p2562
aS'daughter'
p2563
aS','
p2564
aS'that'
p2565
aS'she'
p2566
aS'should'
p2567
aS'be'
p2568
aS'carried'
p2569
aS'off'
p2570
aS'by'
p2571
aS'a'
p2572
aS'common'
p2573
aS'discharged'
p2574
aS'soldier'
p2575
aS'like'
p2576
aS'that'
p2577
aS'.'
p2578
asg32
(lp2579
VBut
p2580
aVit
p2581
aVpain
p2582
aVthe
p2583
aVking
p2584
ag102
aVand
p2585
aVstill
p2586
aVmore
p2587
aVhis
p2588
aVdaughter
p2589
ag102
aVthat
p2590
aVshe
p2591
aVshould
p2592
aVbe
p2593
ag414
aVoff
p2594
aVby
p2595
ag37
aVcommon
p2596
aVdischarged
p2597
aVsoldier
p2598
aVlike
p2599
aVthat
p2600
ag45
asg46
(lp2601
g48
ag48
ag48
ag48
ag48
ag48
ag48
ag48
ag48
ag48
ag48
ag48
ag48
ag48
ag48
ag48
ag48
ag48
ag48
ag48
ag48
ag48
ag48
ag48
ag48
ag48
asg49
(lp2602
g130
ag128
ag52
ag54
ag55
ag129
ag130
ag53
ag1905
ag132
ag55
ag129
ag58
ag128
ag164
ag165
ag166
ag287
ag58
ag54
ag285
ag285
ag55
ag58
ag54
ag59
asg60
VBut it pained the king, and still more his daughter, that she should be carried off by a common discharged soldier like that.
p2603
sba(i__main__
Sentence
p2604
(dp2605
g17
I47
sg18
(lp2606
S'So'
p2607
aS'they'
p2608
aS'took'
p2609
aS'counsel'
p2610
aS'with'
p2611
aS'each'
p2612
aS'other'
p2613
aS'how'
p2614
aS'to'
p2615
aS'get'
p2616
aS'rid'
p2617
aS'of'
p2618
aS'him'
p2619
aS'and'
p2620
aS'his'
p2621
aS'companions'
p2622
aS'.'
p2623
asg32
(lp2624
VSo
p2625
aVthey
p2626
ag395
aVcounsel
p2627
aVwith
p2628
aVeach
p2629
aVother
p2630
aVhow
p2631
aVto
p2632
aVget
p2633
aVrid
p2634
aVof
p2635
aVhim
p2636
aVand
p2637
aVhis
p2638
aVcompanion
p2639
ag45
asg46
(lp2640
g48
ag48
ag48
ag48
ag48
ag48
ag48
ag48
ag48
ag48
ag48
ag48
ag48
ag48
ag48
ag48
ag48
asg49
(lp2641
g58
ag128
ag52
ag55
ag58
ag54
ag285
ag131
ag221
ag165
ag285
ag58
ag128
ag130
ag132
ag57
ag59
asg60
VSo they took counsel with each other how to get rid of him and his companions.
p2642
sba(i__main__
Sentence
p2643
(dp2644
g17
I48
sg18
(lp2645
S'Then'
p2646
aS'said'
p2647
aS'the'
p2648
aS'king'
p2649
aS'to'
p2650
aS'her'
p2651
aS','
p2652
aS'I'
p2653
aS'have'
p2654
aS'thought'
p2655
aS'of'
p2656
aS'a'
p2657
aS'way'
p2658
aS'.'
p2659
asg32
(lp2660
VThen
p2661
ag153
aVthe
p2662
aVking
p2663
aVto
p2664
aVher
p2665
ag102
ag155
aVhave
p2666
aVthink
p2667
aVof
p2668
ag37
aVway
p2669
ag45
asg46
(lp2670
g48
ag48
ag48
ag48
ag48
ag48
ag48
ag48
ag48
ag48
ag48
ag48
ag48
ag48
asg49
(lp2671
g53
ag52
ag54
ag55
ag221
ag132
ag129
ag128
ag556
ag166
ag58
ag54
ag55
ag59
asg60
VThen said the king to her, I have thought of a way.
p2672
sba(i__main__
Sentence
p2673
(dp2674
g17
I49
sg18
(lp2675
S'Do'
p2676
aS"n't"
p2677
aS'be'
p2678
aS'afraid'
p2679
aS','
p2680
aS'they'
p2681
aS'shall'
p2682
aS'not'
p2683
aS'come'
p2684
aS'back'
p2685
aS'again'
p2686
aS'.'
p2687
asg32
(lp2688
VDo
p2689
aVn't
p2690
aVbe
p2691
aVafraid
p2692
ag102
aVthey
p2693
aVshall
p2694
aVnot
p2695
aVcome
p2696
aVback
p2697
aVagain
p2698
ag45
asg46
(lp2699
g48
ag48
ag48
ag48
ag48
ag48
ag48
ag48
ag48
ag48
ag48
ag48
asg49
(lp2700
g880
ag53
ag165
ag166
ag129
ag128
ag164
ag53
ag165
ag53
ag53
ag59
asg60
VDon't be afraid, they shall not come back again.
p2701
sba(i__main__
Sentence
p2702
(dp2703
g17
I50
sg18
(lp2704
S'And'
p2705
aS'he'
p2706
aS'said'
p2707
aS'to'
p2708
aS'them'
p2709
aS','
p2710
aS'you'
p2711
aS'shall'
p2712
aS'now'
p2713
aS'make'
p2714
aS'merry'
p2715
aS'together'
p2716
aS','
p2717
aS'and'
p2718
aS'eat'
p2719
aS'and'
p2720
aS'drink'
p2721
aS','
p2722
aS'and'
p2723
aS'he'
p2724
aS'conducted'
p2725
aS'them'
p2726
aS'to'
p2727
aS'a'
p2728
aS'room'
p2729
aS'which'
p2730
aS'had'
p2731
aS'a'
p2732
aS'floor'
p2733
aS'of'
p2734
aS'iron'
p2735
aS','
p2736
aS'and'
p2737
aS'the'
p2738
aS'doors'
p2739
aS'also'
p2740
aS'were'
p2741
aS'of'
p2742
aS'iron'
p2743
aS','
p2744
aS'and'
p2745
aS'the'
p2746
aS'windows'
p2747
aS'were'
p2748
aS'guarded'
p2749
aS'with'
p2750
aS'iron'
p2751
aS'bars'
p2752
aS'.'
p2753
asg32
(lp2754
VAnd
p2755
aVhe
p2756
ag153
aVto
p2757
aVthem
p2758
ag102
aVyou
p2759
aVshall
p2760
aVnow
p2761
aVmake
p2762
aVmerry
p2763
aVtogether
p2764
ag102
aVand
p2765
aVeat
p2766
aVand
p2767
aVdrink
p2768
ag102
aVand
p2769
aVhe
p2770
aVconduct
p2771
aVthem
p2772
aVto
p2773
ag37
aVroom
p2774
aVwhich
p2775
ag272
ag37
aVfloor
p2776
aVof
p2777
aViron
p2778
ag102
aVand
p2779
aVthe
p2780
aVdoor
p2781
aValso
p2782
ag279
aVof
p2783
aViron
p2784
ag102
aVand
p2785
aVthe
p2786
aVwindow
p2787
ag279
aVguard
p2788
aVwith
p2789
aViron
p2790
aVbar
p2791
ag45
asg46
(lp2792
g48
ag48
ag48
ag48
ag48
ag48
ag48
ag48
ag48
ag48
ag48
ag48
ag48
ag48
ag48
ag48
ag48
ag48
ag48
ag48
ag48
ag48
ag48
ag48
ag48
ag48
ag48
ag48
ag48
ag48
ag48
ag48
ag48
ag48
ag48
ag48
ag48
ag48
ag48
ag48
ag48
ag48
ag48
ag48
ag48
ag48
ag48
ag48
ag48
asg49
(lp2793
g130
ag128
ag52
ag221
ag128
ag129
ag128
ag164
ag53
ag165
ag285
ag55
ag129
ag130
ag165
ag130
ag165
ag129
ag130
ag128
ag52
ag128
ag221
ag54
ag55
ag2060
ag52
ag54
ag55
ag58
ag55
ag129
ag130
ag54
ag57
ag53
ag52
ag58
ag55
ag129
ag130
ag54
ag57
ag52
ag166
ag58
ag55
ag57
ag59
asg60
VAnd he said to them, you shall now make merry together, and eat and drink, and he conducted them to a room which had a floor of iron, and the doors also were of iron, and the windows were guarded with iron bars.
p2794
sba(i__main__
Sentence
p2795
(dp2796
g17
I51
sg18
(lp2797
S'There'
p2798
aS'was'
p2799
aS'a'
p2800
aS'table'
p2801
aS'in'
p2802
aS'the'
p2803
aS'room'
p2804
aS'covered'
p2805
aS'with'
p2806
aS'delicious'
p2807
aS'food'
p2808
aS','
p2809
aS'and'
p2810
aS'the'
p2811
aS'king'
p2812
aS'said'
p2813
aS'to'
p2814
aS'them'
p2815
aS','
p2816
aS'go'
p2817
aS'in'
p2818
aS','
p2819
aS'and'
p2820
aS'enjoy'
p2821
aS'yourselves'
p2822
aS'.'
p2823
asg32
(lp2824
VThere
p2825
ag35
ag37
aVtable
p2826
aVin
p2827
aVthe
p2828
aVroom
p2829
aVcover
p2830
aVwith
p2831
aVdelicious
p2832
aVfood
p2833
ag102
aVand
p2834
aVthe
p2835
aVking
p2836
ag153
aVto
p2837
aVthem
p2838
ag102
aVgo
p2839
aVin
p2840
ag102
aVand
p2841
aVenjoy
p2842
aVyourselves
p2843
ag45
asg46
(lp2844
g48
ag48
ag48
ag48
ag48
ag48
ag48
ag48
ag48
ag48
ag48
ag48
ag48
ag48
ag48
ag48
ag48
ag48
ag48
ag48
ag48
ag48
ag48
ag48
ag48
ag48
asg49
(lp2845
g51
ag52
ag54
ag285
ag58
ag54
ag55
ag52
ag58
ag285
ag55
ag129
ag130
ag54
ag55
ag52
ag221
ag128
ag129
ag556
ag58
ag129
ag130
ag55
ag57
ag59
asg60
VThere was a table in the room covered with delicious food, and the king said to them, go in, and enjoy yourselves.
p2846
sba(i__main__
Sentence
p2847
(dp2848
g17
I52
sg18
(lp2849
S'And'
p2850
aS'when'
p2851
aS'they'
p2852
aS'were'
p2853
aS'inside'
p2854
aS','
p2855
aS'he'
p2856
aS'ordered'
p2857
aS'the'
p2858
aS'doors'
p2859
aS'to'
p2860
aS'be'
p2861
aS'shut'
p2862
aS'and'
p2863
aS'bolted'
p2864
aS'.'
p2865
asg32
(lp2866
VAnd
p2867
aVwhen
p2868
aVthey
p2869
ag279
aVinside
p2870
ag102
aVhe
p2871
aVorder
p2872
aVthe
p2873
aVdoor
p2874
aVto
p2875
aVbe
p2876
aVshut
p2877
aVand
p2878
aVbolt
p2879
ag45
asg46
(lp2880
g48
ag48
ag48
ag48
ag48
ag48
ag48
ag48
ag48
ag48
ag48
ag48
ag48
ag48
ag48
ag48
asg49
(lp2881
g130
ag131
ag128
ag52
ag53
ag129
ag128
ag52
ag54
ag57
ag221
ag165
ag166
ag130
ag166
ag59
asg60
VAnd when they were inside, he ordered the doors to be shut and bolted.
p2882
sba(i__main__
Sentence
p2883
(dp2884
g17
I53
sg18
(lp2885
S'Then'
p2886
aS'he'
p2887
aS'sent'
p2888
aS'for'
p2889
aS'the'
p2890
aS'cook'
p2891
aS','
p2892
aS'and'
p2893
aS'commanded'
p2894
aS'him'
p2895
aS'to'
p2896
aS'make'
p2897
aS'a'
p2898
aS'fire'
p2899
aS'under'
p2900
aS'the'
p2901
aS'room'
p2902
aS'until'
p2903
aS'the'
p2904
aS'iron'
p2905
aS'became'
p2906
aS'red-hot'
p2907
aS'.'
p2908
asg32
(lp2909
VThen
p2910
aVhe
p2911
aVsend
p2912
aVfor
p2913
aVthe
p2914
aVcook
p2915
ag102
aVand
p2916
aVcommand
p2917
aVhim
p2918
aVto
p2919
aVmake
p2920
ag37
aVfire
p2921
aVunder
p2922
aVthe
p2923
aVroom
p2924
aVuntil
p2925
aVthe
p2926
aViron
p2927
aVbecome
p2928
aVred-hot
p2929
ag45
asg46
(lp2930
g48
ag48
ag48
ag48
ag48
ag48
ag48
ag48
ag48
ag48
ag48
ag48
ag48
ag48
ag48
ag48
ag48
ag48
ag48
ag48
ag48
ag48
ag48
asg49
(lp2931
g53
ag128
ag52
ag58
ag54
ag55
ag129
ag130
ag52
ag128
ag221
ag165
ag54
ag55
ag58
ag54
ag55
ag58
ag54
ag55
ag52
ag285
ag59
asg60
VThen he sent for the cook, and commanded him to make a fire under the room until the iron became red-hot.
p2932
sba(i__main__
Sentence
p2933
(dp2934
g17
I54
sg18
(lp2935
S'This'
p2936
aS'the'
p2937
aS'cook'
p2938
aS'did'
p2939
aS','
p2940
aS'and'
p2941
aS'the'
p2942
aS'six'
p2943
aS'who'
p2944
aS'were'
p2945
aS'sitting'
p2946
aS'at'
p2947
aS'table'
p2948
aS'began'
p2949
aS'to'
p2950
aS'feel'
p2951
aS'quite'
p2952
aS'warm'
p2953
aS','
p2954
aS'and'
p2955
aS'they'
p2956
aS'thought'
p2957
aS'the'
p2958
aS'heat'
p2959
aS'was'
p2960
aS'caused'
p2961
aS'by'
p2962
aS'the'
p2963
aS'food'
p2964
aS'.'
p2965
asg32
(lp2966
VThis
p2967
aVthe
p2968
aVcook
p2969
ag2460
ag102
aVand
p2970
aVthe
p2971
aVsix
p2972
aVwho
p2973
ag279
ag598
aVat
p2974
aVtable
p2975
aVbegan
p2976
aVto
p2977
aVfeel
p2978
aVquite
p2979
aVwarm
p2980
ag102
aVand
p2981
aVthey
p2982
ag2667
aVthe
p2983
aVheat
p2984
ag35
aVcause
p2985
aVby
p2986
aVthe
p2987
aVfood
p2988
ag45
asg46
(lp2989
g48
ag48
ag48
ag48
ag48
ag48
ag48
ag48
ag48
ag48
ag48
ag48
ag48
ag48
ag48
ag48
ag48
ag48
ag48
ag48
ag48
ag48
ag48
ag48
ag48
ag48
ag48
ag48
ag48
ag48
asg49
(lp2990
g54
ag54
ag55
ag52
ag129
ag130
ag54
ag133
ag56
ag52
ag522
ag58
ag285
ag55
ag221
ag165
ag53
ag55
ag129
ag130
ag128
ag52
ag54
ag55
ag52
ag166
ag58
ag54
ag55
ag59
asg60
VThis the cook did, and the six who were sitting at table began to feel quite warm, and they thought the heat was caused by the food.
p2991
sba(i__main__
Sentence
p2992
(dp2993
g17
I55
sg18
(lp2994
S'But'
p2995
aS'as'
p2996
aS'it'
p2997
aS'became'
p2998
aS'still'
p2999
aS'greater'
p3000
aS','
p3001
aS'and'
p3002
aS'they'
p3003
aS'wanted'
p3004
aS'to'
p3005
aS'get'
p3006
aS'out'
p3007
aS','
p3008
aS'and'
p3009
aS'found'
p3010
aS'that'
p3011
aS'the'
p3012
aS'doors'
p3013
aS'and'
p3014
aS'windows'
p3015
aS'were'
p3016
aS'bolted'
p3017
aS','
p3018
aS'they'
p3019
aS'became'
p3020
aS'aware'
p3021
aS'that'
p3022
aS'the'
p3023
aS'king'
p3024
aS'must'
p3025
aS'have'
p3026
aS'an'
p3027
aS'evil'
p3028
aS'intention'
p3029
aS','
p3030
aS'and'
p3031
aS'wanted'
p3032
aS'to'
p3033
aS'suffocate'
p3034
aS'them'
p3035
aS'.'
p3036
asg32
(lp3037
VBut
p3038
ag37
aVit
p3039
ag2928
aVstill
p3040
aVgreat
p3041
ag102
aVand
p3042
aVthey
p3043
aVwant
p3044
aVto
p3045
aVget
p3046
aVout
p3047
ag102
aVand
p3048
ag509
aVthat
p3049
aVthe
p3050
aVdoor
p3051
aVand
p3052
aVwindows
p3053
ag279
aVbolt
p3054
ag102
aVthey
p3055
ag2928
aVaware
p3056
aVthat
p3057
aVthe
p3058
aVking
p3059
aVmust
p3060
aVhave
p3061
aVan
p3062
aVevil
p3063
aVintention
p3064
ag102
aVand
p3065
aVwant
p3066
aVto
p3067
aVsuffocate
p3068
aVthem
p3069
ag45
asg46
(lp3070
g48
ag48
ag48
ag48
ag48
ag48
ag48
ag48
ag48
ag48
ag48
ag48
ag48
ag48
ag48
ag48
ag48
ag48
ag48
ag48
ag48
ag48
ag48
ag48
ag48
ag48
ag48
ag48
ag48
ag48
ag48
ag48
ag48
ag48
ag48
ag48
ag48
ag48
ag48
ag48
ag48
ag48
asg49
(lp3071
g130
ag58
ag128
ag52
ag53
aS'JJR'
p3072
ag129
ag130
ag128
ag52
ag221
ag165
ag58
ag129
ag130
ag166
ag58
ag54
ag57
ag130
ag615
ag52
ag166
ag129
ag128
ag52
ag285
ag58
ag54
ag55
ag164
ag165
ag54
ag285
ag55
ag129
ag130
ag52
ag221
ag165
ag128
ag59
asg60
VBut as it became still greater, and they wanted to get out, and found that the doors and windows were bolted, they became aware that the king must have an evil intention, and wanted to suffocate them.
p3073
sba(i__main__
Sentence
p3074
(dp3075
g17
I56
sg18
(lp3076
S'He'
p3077
aS'shall'
p3078
aS'not'
p3079
aS'succeed'
p3080
aS','
p3081
aS'however'
p3082
aS','
p3083
aS'said'
p3084
aS'the'
p3085
aS'one'
p3086
aS'with'
p3087
aS'the'
p3088
aS'cap'
p3089
aS'.'
p3090
asg32
(lp3091
VHe
p3092
aVshall
p3093
aVnot
p3094
aVsucceed
p3095
ag102
aVhowever
p3096
ag102
ag153
aVthe
p3097
aVone
p3098
aVwith
p3099
aVthe
p3100
aVcap
p3101
ag45
asg46
(lp3102
g48
ag48
ag48
ag48
ag48
ag48
ag48
ag48
ag48
ag48
ag48
ag48
ag48
ag48
asg49
(lp3103
g128
ag164
ag53
ag165
ag129
ag53
ag129
ag52
ag54
ag133
ag58
ag54
ag55
ag59
asg60
VHe shall not succeed, however, said the one with the cap.
p3104
sba(i__main__
Sentence
p3105
(dp3106
g17
I57
sg18
(lp3107
S'I'
p3108
aS'will'
p3109
aS'cause'
p3110
aS'a'
p3111
aS'frost'
p3112
aS'to'
p3113
aS'come'
p3114
aS','
p3115
aS'before'
p3116
aS'which'
p3117
aS'the'
p3118
aS'fire'
p3119
aS'shall'
p3120
aS'be'
p3121
aS'ashamed'
p3122
aS','
p3123
aS'and'
p3124
aS'creep'
p3125
aS'away'
p3126
aS'.'
p3127
asg32
(lp3128
g155
aVwill
p3129
aVcause
p3130
ag37
aVfrost
p3131
aVto
p3132
aVcome
p3133
ag102
aVbefore
p3134
aVwhich
p3135
aVthe
p3136
aVfire
p3137
aVshall
p3138
aVbe
p3139
aVashamed
p3140
ag102
aVand
p3141
aVcreep
p3142
aVaway
p3143
ag45
asg46
(lp3144
g48
ag48
ag48
ag48
ag48
ag48
ag48
ag48
ag48
ag48
ag48
ag48
ag48
ag48
ag48
ag48
ag48
ag48
ag48
ag48
asg49
(lp3145
g128
ag164
ag165
ag54
ag55
ag221
ag165
ag129
ag58
ag2060
ag54
ag55
ag164
ag165
ag166
ag129
ag130
ag165
ag287
ag59
asg60
VI will cause a frost to come, before which the fire shall be ashamed, and creep away.
p3146
sba(i__main__
Sentence
p3147
(dp3148
g17
I58
sg18
(lp3149
S'Then'
p3150
aS'he'
p3151
aS'put'
p3152
aS'his'
p3153
aS'cap'
p3154
aS'on'
p3155
aS'straight'
p3156
aS','
p3157
aS'and'
p3158
aS'immediately'
p3159
aS'there'
p3160
aS'came'
p3161
aS'such'
p3162
aS'a'
p3163
aS'frost'
p3164
aS'that'
p3165
aS'all'
p3166
aS'heat'
p3167
aS'disappeared'
p3168
aS','
p3169
aS'and'
p3170
aS'the'
p3171
aS'food'
p3172
aS'on'
p3173
aS'the'
p3174
aS'dishes'
p3175
aS'began'
p3176
aS'to'
p3177
aS'freeze'
p3178
aS'.'
p3179
asg32
(lp3180
VThen
p3181
aVhe
p3182
aVput
p3183
aVhis
p3184
aVcap
p3185
aVon
p3186
aVstraight
p3187
ag102
aVand
p3188
aVimmediately
p3189
aVthere
p3190
ag733
aVsuch
p3191
ag37
aVfrost
p3192
aVthat
p3193
aVall
p3194
aVheat
p3195
aVdisappear
p3196
ag102
aVand
p3197
aVthe
p3198
aVfood
p3199
aVon
p3200
aVthe
p3201
aVdish
p3202
ag1862
aVto
p3203
aVfreeze
p3204
ag45
asg46
(lp3205
g48
ag48
ag48
ag48
ag48
ag48
ag48
ag48
ag48
ag48
ag48
ag48
ag48
ag48
ag48
ag48
ag48
ag48
ag48
ag48
ag48
ag48
ag48
ag48
ag48
ag48
ag48
ag48
ag48
ag48
asg49
(lp3206
g53
ag128
ag52
ag132
ag55
ag58
ag285
ag129
ag130
ag53
ag53
ag52
ag285
ag54
ag55
ag2060
ag54
ag55
ag52
ag129
ag130
ag54
ag55
ag58
ag54
ag57
ag52
ag221
ag165
ag59
asg60
VThen he put his cap on straight, and immediately there came such a frost that all heat disappeared, and the food on the dishes began to freeze.
p3207
sba(i__main__
Sentence
p3208
(dp3209
g17
I59
sg18
(lp3210
S'When'
p3211
aS'an'
p3212
aS'hour'
p3213
aS'or'
p3214
aS'two'
p3215
aS'had'
p3216
aS'passed'
p3217
aS'by'
p3218
aS','
p3219
aS'and'
p3220
aS'the'
p3221
aS'king'
p3222
aS'believed'
p3223
aS'that'
p3224
aS'they'
p3225
aS'had'
p3226
aS'perished'
p3227
aS'in'
p3228
aS'the'
p3229
aS'heat'
p3230
aS','
p3231
aS'he'
p3232
aS'had'
p3233
aS'the'
p3234
aS'doors'
p3235
aS'opened'
p3236
aS'to'
p3237
aS'behold'
p3238
aS'them'
p3239
aS'himself'
p3240
aS'.'
p3241
asg32
(lp3242
VWhen
p3243
aVan
p3244
aVhour
p3245
aVor
p3246
aVtwo
p3247
ag272
aVpass
p3248
aVby
p3249
ag102
aVand
p3250
aVthe
p3251
aVking
p3252
aVbelieve
p3253
aVthat
p3254
aVthey
p3255
ag272
aVperish
p3256
aVin
p3257
aVthe
p3258
aVheat
p3259
ag102
aVhe
p3260
ag272
aVthe
p3261
aVdoor
p3262
aVopen
p3263
aVto
p3264
aVbehold
p3265
aVthem
p3266
aVhimself
p3267
ag45
asg46
(lp3268
g48
ag48
ag48
ag48
ag48
ag48
ag48
ag48
ag48
ag48
ag48
ag48
ag48
ag48
ag48
ag48
ag48
ag48
ag48
ag48
ag48
ag48
ag48
ag48
ag48
ag48
ag48
ag48
ag48
ag48
ag48
asg49
(lp3269
g131
ag54
ag55
ag130
ag133
ag52
ag166
ag58
ag129
ag130
ag54
ag55
ag52
ag58
ag128
ag52
ag166
ag58
ag54
ag55
ag129
ag128
ag52
ag54
ag57
ag52
ag221
ag165
ag128
ag128
ag59
asg60
VWhen an hour or two had passed by, and the king believed that they had perished in the heat, he had the doors opened to behold them himself.
p3270
sba(i__main__
Sentence
p3271
(dp3272
g17
I60
sg18
(lp3273
S'But'
p3274
aS'when'
p3275
aS'the'
p3276
aS'doors'
p3277
aS'were'
p3278
aS'opened'
p3279
aS','
p3280
aS'all'
p3281
aS'six'
p3282
aS'were'
p3283
aS'standing'
p3284
aS'there'
p3285
aS','
p3286
aS'alive'
p3287
aS'and'
p3288
aS'well'
p3289
aS','
p3290
aS'and'
p3291
aS'said'
p3292
aS'that'
p3293
aS'they'
p3294
aS'should'
p3295
aS'very'
p3296
aS'much'
p3297
aS'like'
p3298
aS'to'
p3299
aS'get'
p3300
aS'out'
p3301
aS'to'
p3302
aS'warm'
p3303
aS'themselves'
p3304
aS','
p3305
aS'for'
p3306
aS'the'
p3307
aS'very'
p3308
aS'food'
p3309
aS'was'
p3310
aS'fast'
p3311
aS'frozen'
p3312
aS'to'
p3313
aS'the'
p3314
aS'dishes'
p3315
aS'with'
p3316
aS'the'
p3317
aS'cold'
p3318
aS'.'
p3319
asg32
(lp3320
VBut
p3321
aVwhen
p3322
aVthe
p3323
aVdoor
p3324
ag279
aVopen
p3325
ag102
aVall
p3326
aVsix
p3327
ag279
aVstanding
p3328
aVthere
p3329
ag102
aValive
p3330
aVand
p3331
aVwell
p3332
ag102
aVand
p3333
ag153
aVthat
p3334
aVthey
p3335
aVshould
p3336
aVvery
p3337
aVmuch
p3338
aVlike
p3339
aVto
p3340
aVget
p3341
aVout
p3342
aVto
p3343
aVwarm
p3344
aVthemselves
p3345
ag102
aVfor
p3346
aVthe
p3347
aVvery
p3348
aVfood
p3349
ag35
aVfast
p3350
ag1425
aVto
p3351
aVthe
p3352
aVdish
p3353
aVwith
p3354
aVthe
p3355
aVcold
p3356
ag45
asg46
(lp3357
g48
ag48
ag48
ag48
ag48
ag48
ag48
ag48
ag48
ag48
ag48
ag48
ag48
ag48
ag48
ag48
ag48
ag48
ag48
ag48
ag48
ag48
ag48
ag48
ag48
ag48
ag48
ag48
ag48
ag48
ag48
ag48
ag48
ag48
ag48
ag48
ag48
ag48
ag48
ag48
ag48
ag48
ag48
ag48
ag48
ag48
asg49
(lp3358
g130
ag131
ag54
ag57
ag52
ag166
ag129
ag54
ag133
ag52
ag55
ag53
ag129
ag285
ag130
ag53
ag129
ag130
ag52
ag58
ag128
ag164
ag53
ag53
ag58
ag221
ag165
ag58
ag221
ag55
ag128
ag129
ag58
ag54
ag285
ag55
ag52
ag53
ag166
ag221
ag54
ag57
ag58
ag54
ag55
ag59
asg60
VBut when the doors were opened, all six were standing there, alive and well, and said that they should very much like to get out to warm themselves, for the very food was fast frozen to the dishes with the cold.
p3359
sba(i__main__
Sentence
p3360
(dp3361
g17
I61
sg18
(lp3362
S'Then'
p3363
aS','
p3364
aS'full'
p3365
aS'of'
p3366
aS'anger'
p3367
aS','
p3368
aS'the'
p3369
aS'king'
p3370
aS'went'
p3371
aS'down'
p3372
aS'to'
p3373
aS'the'
p3374
aS'cook'
p3375
aS','
p3376
aS'scolded'
p3377
aS'him'
p3378
aS','
p3379
aS'and'
p3380
aS'asked'
p3381
aS'why'
p3382
aS'he'
p3383
aS'had'
p3384
aS'not'
p3385
aS'done'
p3386
aS'what'
p3387
aS'he'
p3388
aS'had'
p3389
aS'been'
p3390
aS'ordered'
p3391
aS'to'
p3392
aS'do'
p3393
aS'.'
p3394
asg32
(lp3395
VThen
p3396
ag102
aVfull
p3397
aVof
p3398
aVanger
p3399
ag102
aVthe
p3400
aVking
p3401
ag262
aVdown
p3402
aVto
p3403
aVthe
p3404
aVcook
p3405
ag102
aVscold
p3406
aVhim
p3407
ag102
aVand
p3408
aVask
p3409
aVwhy
p3410
aVhe
p3411
ag272
aVnot
p3412
aVdo
p3413
aVwhat
p3414
aVhe
p3415
ag272
ag2241
aVorder
p3416
aVto
p3417
aVdo
p3418
ag45
asg46
(lp3419
g48
ag48
ag48
ag48
ag48
ag48
ag48
ag48
ag48
ag48
ag48
ag48
ag48
ag48
ag48
ag48
ag48
ag48
ag48
ag48
ag48
ag48
ag48
ag48
ag48
ag48
ag48
ag48
ag48
ag48
ag48
ag48
asg49
(lp3420
g53
ag129
ag285
ag58
ag55
ag129
ag54
ag55
ag52
ag58
ag221
ag54
ag55
ag129
ag52
ag128
ag129
ag130
ag52
ag131
ag128
ag52
ag53
ag166
ag56
ag128
ag52
ag166
ag166
ag221
ag165
ag59
asg60
VThen, full of anger, the king went down to the cook, scolded him, and asked why he had not done what he had been ordered to do.
p3421
sba(i__main__
Sentence
p3422
(dp3423
g17
I62
sg18
(lp3424
S'But'
p3425
aS'the'
p3426
aS'cook'
p3427
aS'replied'
p3428
aS','
p3429
aS'there'
p3430
aS'is'
p3431
aS'heat'
p3432
aS'enough'
p3433
aS'there'
p3434
aS','
p3435
aS'just'
p3436
aS'look'
p3437
aS'yourself'
p3438
aS'.'
p3439
asg32
(lp3440
VBut
p3441
aVthe
p3442
aVcook
p3443
ag1165
ag102
aVthere
p3444
ag597
aVheat
p3445
aVenough
p3446
aVthere
p3447
ag102
aVjust
p3448
aVlook
p3449
aVyourself
p3450
ag45
asg46
(lp3451
g48
ag48
ag48
ag48
ag48
ag48
ag48
ag48
ag48
ag48
ag48
ag48
ag48
ag48
ag48
asg49
(lp3452
g130
ag54
ag55
ag52
ag129
ag51
ag615
ag55
ag53
ag51
ag129
ag53
ag556
ag128
ag59
asg60
VBut the cook replied, there is heat enough there, just look yourself.
p3453
sba(i__main__
Sentence
p3454
(dp3455
g17
I63
sg18
(lp3456
S'Then'
p3457
aS'the'
p3458
aS'king'
p3459
aS'saw'
p3460
aS'that'
p3461
aS'a'
p3462
aS'fierce'
p3463
aS'fire'
p3464
aS'was'
p3465
aS'burning'
p3466
aS'under'
p3467
aS'the'
p3468
aS'iron'
p3469
aS'room'
p3470
aS','
p3471
aS'and'
p3472
aS'perceived'
p3473
aS'that'
p3474
aS'there'
p3475
aS'was'
p3476
aS'no'
p3477
aS'getting'
p3478
aS'the'
p3479
aS'better'
p3480
aS'of'
p3481
aS'the'
p3482
aS'six'
p3483
aS'in'
p3484
aS'this'
p3485
aS'way'
p3486
aS'.'
p3487
asg32
(lp3488
VThen
p3489
aVthe
p3490
aVking
p3491
aVsaw
p3492
aVthat
p3493
ag37
aVfierce
p3494
aVfire
p3495
ag35
aVburn
p3496
aVunder
p3497
aVthe
p3498
aViron
p3499
aVroom
p3500
ag102
aVand
p3501
aVperceive
p3502
aVthat
p3503
aVthere
p3504
ag35
aVno
p3505
aVgetting
p3506
aVthe
p3507
aVgood
p3508
aVof
p3509
aVthe
p3510
aVsix
p3511
aVin
p3512
aVthis
p3513
aVway
p3514
ag45
asg46
(lp3515
g48
ag48
ag48
ag48
ag48
ag48
ag48
ag48
ag48
ag48
ag48
ag48
ag48
ag48
ag48
ag48
ag48
ag48
ag48
ag48
ag48
ag48
ag48
ag48
ag48
ag48
ag48
ag48
ag48
ag48
ag48
asg49
(lp3516
g53
ag54
ag55
ag52
ag58
ag54
ag55
ag55
ag52
ag522
ag58
ag54
ag55
ag55
ag129
ag130
ag52
ag58
ag51
ag52
ag54
ag55
ag54
ag3072
ag58
ag54
ag133
ag58
ag54
ag55
ag59
asg60
VThen the king saw that a fierce fire was burning under the iron room, and perceived that there was no getting the better of the six in this way.
p3517
sba(i__main__
Sentence
p3518
(dp3519
g17
I64
sg18
(lp3520
S'Again'
p3521
aS'the'
p3522
aS'king'
p3523
aS'considered'
p3524
aS'how'
p3525
aS'to'
p3526
aS'get'
p3527
aS'rid'
p3528
aS'of'
p3529
aS'his'
p3530
aS'unpleasant'
p3531
aS'guests'
p3532
aS','
p3533
aS'and'
p3534
aS'caused'
p3535
aS'their'
p3536
aS'chief'
p3537
aS'to'
p3538
aS'be'
p3539
aS'brought'
p3540
aS'and'
p3541
aS'said'
p3542
aS','
p3543
aS'if'
p3544
aS'you'
p3545
aS'will'
p3546
aS'take'
p3547
aS'gold'
p3548
aS'and'
p3549
aS'renounce'
p3550
aS'my'
p3551
aS'daughter'
p3552
aS','
p3553
aS'you'
p3554
aS'shall'
p3555
aS'have'
p3556
aS'as'
p3557
aS'much'
p3558
aS'as'
p3559
aS'you'
p3560
aS'will'
p3561
aS'.'
p3562
asg32
(lp3563
VAgain
p3564
aVthe
p3565
aVking
p3566
aVconsider
p3567
aVhow
p3568
aVto
p3569
aVget
p3570
aVrid
p3571
aVof
p3572
aVhis
p3573
aVunpleasant
p3574
aVguest
p3575
ag102
aVand
p3576
aVcause
p3577
aVtheir
p3578
aVchief
p3579
aVto
p3580
aVbe
p3581
aVbring
p3582
aVand
p3583
ag153
ag102
aVif
p3584
aVyou
p3585
aVwill
p3586
aVtake
p3587
aVgold
p3588
aVand
p3589
aVrenounce
p3590
aVmy
p3591
aVdaughter
p3592
ag102
aVyou
p3593
aVshall
p3594
aVhave
p3595
aVas
p3596
aVmuch
p3597
ag37
aVyou
p3598
aVwill
p3599
ag45
asg46
(lp3600
g48
ag48
ag48
ag48
ag48
ag48
ag48
ag48
ag48
ag48
ag48
ag48
ag48
ag48
ag48
ag48
ag48
ag48
ag48
ag48
ag48
ag48
ag48
ag48
ag48
ag48
ag48
ag48
ag48
ag48
ag48
ag48
ag48
ag48
ag48
ag48
ag48
ag48
ag48
ag48
ag48
ag48
asg49
(lp3601
g53
ag54
ag55
ag52
ag131
ag221
ag165
ag285
ag58
ag132
ag285
ag57
ag129
ag130
ag52
ag132
ag55
ag221
ag165
ag166
ag130
ag52
ag129
ag58
ag128
ag164
ag165
ag55
ag130
ag55
ag132
ag55
ag129
ag128
ag164
ag165
ag53
ag285
ag58
ag128
ag164
ag59
asg60
VAgain the king considered how to get rid of his unpleasant guests, and caused their chief to be brought and said, if you will take gold and renounce my daughter, you shall have as much as you will.
p3602
sba(i__main__
Sentence
p3603
(dp3604
g17
I65
sg18
(lp3605
S'Oh'
p3606
aS','
p3607
aS'yes'
p3608
aS','
p3609
aS'lord'
p3610
aS'king'
p3611
aS','
p3612
aS'he'
p3613
aS'answered'
p3614
aS','
p3615
aS'give'
p3616
aS'me'
p3617
aS'as'
p3618
aS'much'
p3619
aS'as'
p3620
aS'my'
p3621
aS'servant'
p3622
aS'can'
p3623
aS'carry'
p3624
aS','
p3625
aS'and'
p3626
aS'I'
p3627
aS'will'
p3628
aS'not'
p3629
aS'ask'
p3630
aS'for'
p3631
aS'your'
p3632
aS'daughter'
p3633
aS'.'
p3634
asg32
(lp3635
VOh
p3636
ag102
aVyes
p3637
ag102
aVlord
p3638
aVking
p3639
ag102
aVhe
p3640
aVanswer
p3641
ag102
aVgive
p3642
aVme
p3643
ag37
aVmuch
p3644
ag37
aVmy
p3645
aVservant
p3646
aVcan
p3647
aVcarry
p3648
ag102
aVand
p3649
ag155
aVwill
p3650
aVnot
p3651
aVask
p3652
aVfor
p3653
aVyour
p3654
aVdaughter
p3655
ag45
asg46
(lp3656
g48
ag48
ag48
ag48
ag48
ag48
ag48
ag48
ag48
ag48
ag48
ag48
ag48
ag48
ag48
ag48
ag48
ag48
ag48
ag48
ag48
ag48
ag48
ag48
ag48
ag48
ag48
ag48
ag48
asg49
(lp3657
g674
ag129
ag57
ag129
ag55
ag522
ag129
ag128
ag52
ag129
ag285
ag128
ag58
ag285
ag58
ag132
ag55
ag164
ag165
ag129
ag130
ag128
ag164
ag53
ag165
ag58
ag132
ag55
ag59
asg60
VOh, yes, lord king, he answered, give me as much as my servant can carry, and I will not ask for your daughter.
p3658
sba(i__main__
Sentence
p3659
(dp3660
g17
I66
sg18
(lp3661
S'On'
p3662
aS'this'
p3663
aS'the'
p3664
aS'king'
p3665
aS'was'
p3666
aS'satisfied'
p3667
aS','
p3668
aS'and'
p3669
aS'the'
p3670
aS'other'
p3671
aS'continued'
p3672
aS','
p3673
aS'in'
p3674
aS'fourteen'
p3675
aS'days'
p3676
aS','
p3677
aS'I'
p3678
aS'will'
p3679
aS'come'
p3680
aS'and'
p3681
aS'fetch'
p3682
aS'it'
p3683
aS'.'
p3684
asg32
(lp3685
VOn
p3686
aVthis
p3687
aVthe
p3688
aVking
p3689
ag35
aVsatisfy
p3690
ag102
aVand
p3691
aVthe
p3692
aVother
p3693
aVcontinue
p3694
ag102
aVin
p3695
aVfourteen
p3696
aVday
p3697
ag102
ag155
aVwill
p3698
aVcome
p3699
aVand
p3700
aVfetch
p3701
aVit
p3702
ag45
asg46
(lp3703
g48
ag48
ag48
ag48
ag48
ag48
ag48
ag48
ag48
ag48
ag48
ag48
ag48
ag48
ag48
ag48
ag48
ag48
ag48
ag48
ag48
ag48
ag48
asg49
(lp3704
g58
ag54
ag54
ag55
ag52
ag166
ag129
ag130
ag54
ag285
ag166
ag129
ag58
ag55
ag57
ag129
ag128
ag164
ag165
ag130
ag165
ag128
ag59
asg60
VOn this the king was satisfied, and the other continued, in fourteen days, I will come and fetch it.
p3705
sba(i__main__
Sentence
p3706
(dp3707
g17
I67
sg18
(lp3708
S'Thereupon'
p3709
aS'he'
p3710
aS'summoned'
p3711
aS'together'
p3712
aS'all'
p3713
aS'the'
p3714
aS'tailors'
p3715
aS'in'
p3716
aS'the'
p3717
aS'whole'
p3718
aS'kingdom'
p3719
aS','
p3720
aS'and'
p3721
aS'they'
p3722
aS'were'
p3723
aS'to'
p3724
aS'sit'
p3725
aS'for'
p3726
aS'fourteen'
p3727
aS'days'
p3728
aS'and'
p3729
aS'sew'
p3730
aS'a'
p3731
aS'sack'
p3732
aS'.'
p3733
asg32
(lp3734
VThereupon
p3735
aVhe
p3736
aVsummon
p3737
aVtogether
p3738
aVall
p3739
aVthe
p3740
aVtailor
p3741
aVin
p3742
aVthe
p3743
aVwhole
p3744
aVkingdom
p3745
ag102
aVand
p3746
aVthey
p3747
ag279
aVto
p3748
aVsit
p3749
aVfor
p3750
aVfourteen
p3751
aVday
p3752
aVand
p3753
aVsew
p3754
ag37
aVsack
p3755
ag45
asg46
(lp3756
g48
ag48
ag48
ag48
ag48
ag48
ag48
ag48
ag48
ag48
ag48
ag48
ag48
ag48
ag48
ag48
ag48
ag48
ag48
ag48
ag48
ag48
ag48
ag48
ag48
asg49
(lp3757
g880
ag128
ag52
ag53
ag54
ag54
ag57
ag58
ag54
ag285
ag55
ag129
ag130
ag128
ag52
ag221
ag165
ag58
ag133
ag57
ag130
ag165
ag54
ag55
ag59
asg60
VThereupon he summoned together all the tailors in the whole kingdom, and they were to sit for fourteen days and sew a sack.
p3758
sba(i__main__
Sentence
p3759
(dp3760
g17
I68
sg18
(lp3761
S'And'
p3762
aS'when'
p3763
aS'it'
p3764
aS'was'
p3765
aS'ready'
p3766
aS','
p3767
aS'the'
p3768
aS'strong'
p3769
aS'one'
p3770
aS'who'
p3771
aS'could'
p3772
aS'tear'
p3773
aS'up'
p3774
aS'trees'
p3775
aS'had'
p3776
aS'to'
p3777
aS'take'
p3778
aS'it'
p3779
aS'on'
p3780
aS'his'
p3781
aS'back'
p3782
aS','
p3783
aS'and'
p3784
aS'go'
p3785
aS'with'
p3786
aS'it'
p3787
aS'to'
p3788
aS'the'
p3789
aS'king'
p3790
aS'.'
p3791
asg32
(lp3792
VAnd
p3793
aVwhen
p3794
aVit
p3795
ag35
aVready
p3796
ag102
aVthe
p3797
aVstrong
p3798
aVone
p3799
aVwho
p3800
aVcould
p3801
aVtear
p3802
aVup
p3803
aVtree
p3804
ag272
aVto
p3805
aVtake
p3806
aVit
p3807
aVon
p3808
aVhis
p3809
aVback
p3810
ag102
aVand
p3811
aVgo
p3812
aVwith
p3813
aVit
p3814
aVto
p3815
aVthe
p3816
aVking
p3817
ag45
asg46
(lp3818
g48
ag48
ag48
ag48
ag48
ag48
ag48
ag48
ag48
ag48
ag48
ag48
ag48
ag48
ag48
ag48
ag48
ag48
ag48
ag48
ag48
ag48
ag48
ag48
ag48
ag48
ag48
ag48
ag48
ag48
asg49
(lp3819
g130
ag131
ag128
ag52
ag53
ag129
ag54
ag285
ag133
ag56
ag164
ag165
ag287
ag57
ag52
ag221
ag165
ag128
ag58
ag132
ag55
ag129
ag130
ag165
ag58
ag128
ag221
ag54
ag55
ag59
asg60
VAnd when it was ready, the strong one who could tear up trees had to take it on his back, and go with it to the king.
p3820
sba(i__main__
Sentence
p3821
(dp3822
g17
I69
sg18
(lp3823
S'Then'
p3824
aS'said'
p3825
aS'the'
p3826
aS'king'
p3827
aS','
p3828
aS'who'
p3829
aS'can'
p3830
aS'that'
p3831
aS'strong'
p3832
aS'fellow'
p3833
aS'be'
p3834
aS'who'
p3835
aS'is'
p3836
aS'carrying'
p3837
aS'a'
p3838
aS'bundle'
p3839
aS'of'
p3840
aS'linen'
p3841
aS'on'
p3842
aS'his'
p3843
aS'back'
p3844
aS'that'
p3845
aS'is'
p3846
aS'as'
p3847
aS'big'
p3848
aS'as'
p3849
aS'a'
p3850
aS'house'
p3851
aS'.'
p3852
asg32
(lp3853
VThen
p3854
ag153
aVthe
p3855
aVking
p3856
ag102
aVwho
p3857
aVcan
p3858
aVthat
p3859
aVstrong
p3860
aVfellow
p3861
aVbe
p3862
aVwho
p3863
ag597
aVcarry
p3864
ag37
aVbundle
p3865
aVof
p3866
aVlinen
p3867
aVon
p3868
aVhis
p3869
aVback
p3870
aVthat
p3871
ag597
ag37
aVbig
p3872
ag37
ag37
aVhouse
p3873
ag45
asg46
(lp3874
g48
ag48
ag48
ag48
ag48
ag48
ag48
ag48
ag48
ag48
ag48
ag48
ag48
ag48
ag48
ag48
ag48
ag48
ag48
ag48
ag48
ag48
ag48
ag48
ag48
ag48
ag48
ag48
ag48
asg49
(lp3875
g53
ag52
ag54
ag55
ag129
ag56
ag164
ag58
ag285
ag285
ag55
ag56
ag615
ag522
ag54
ag55
ag58
ag55
ag58
ag132
ag55
ag58
ag615
ag58
ag285
ag58
ag54
ag55
ag59
asg60
VThen said the king, who can that strong fellow be who is carrying a bundle of linen on his back that is as big as a house.
p3876
sba(i__main__
Sentence
p3877
(dp3878
g17
I70
sg18
(lp3879
S'And'
p3880
aS'he'
p3881
aS'was'
p3882
aS'alarmed'
p3883
aS'and'
p3884
aS'said'
p3885
aS','
p3886
aS'what'
p3887
aS'a'
p3888
aS'lot'
p3889
aS'of'
p3890
aS'gold'
p3891
aS'he'
p3892
aS'can'
p3893
aS'carry'
p3894
aS'away'
p3895
aS'.'
p3896
asg32
(lp3897
VAnd
p3898
aVhe
p3899
ag35
aValarm
p3900
aVand
p3901
ag153
ag102
aVwhat
p3902
ag37
aVlot
p3903
aVof
p3904
aVgold
p3905
aVhe
p3906
aVcan
p3907
aVcarry
p3908
aVaway
p3909
ag45
asg46
(lp3910
g48
ag48
ag48
ag48
ag48
ag48
ag48
ag48
ag48
ag48
ag48
ag48
ag48
ag48
ag48
ag48
ag48
asg49
(lp3911
g130
ag128
ag52
ag166
ag130
ag52
ag129
ag56
ag54
ag55
ag58
ag55
ag128
ag164
ag165
ag287
ag59
asg60
VAnd he was alarmed and said, what a lot of gold he can carry away.
p3912
sba(i__main__
Sentence
p3913
(dp3914
g17
I71
sg18
(lp3915
S'Then'
p3916
aS'he'
p3917
aS'commanded'
p3918
aS'a'
p3919
aS'ton'
p3920
aS'of'
p3921
aS'gold'
p3922
aS'to'
p3923
aS'be'
p3924
aS'brought'
p3925
aS','
p3926
aS'which'
p3927
aS'took'
p3928
aS'sixteen'
p3929
aS'of'
p3930
aS'his'
p3931
aS'strongest'
p3932
aS'men'
p3933
aS'to'
p3934
aS'carry'
p3935
aS','
p3936
aS'but'
p3937
aS'the'
p3938
aS'strong'
p3939
aS'one'
p3940
aS'snatched'
p3941
aS'it'
p3942
aS'up'
p3943
aS'in'
p3944
aS'one'
p3945
aS'hand'
p3946
aS','
p3947
aS'put'
p3948
aS'it'
p3949
aS'in'
p3950
aS'his'
p3951
aS'sack'
p3952
aS','
p3953
aS'and'
p3954
aS'said'
p3955
aS','
p3956
aS'why'
p3957
aS'do'
p3958
aS"n't"
p3959
aS'you'
p3960
aS'bring'
p3961
aS'more'
p3962
aS'at'
p3963
aS'the'
p3964
aS'same'
p3965
aS'time'
p3966
aS'.'
p3967
asg32
(lp3968
VThen
p3969
aVhe
p3970
aVcommand
p3971
ag37
aVton
p3972
aVof
p3973
aVgold
p3974
aVto
p3975
aVbe
p3976
ag3582
ag102
aVwhich
p3977
ag395
aVsixteen
p3978
aVof
p3979
aVhis
p3980
aVstrong
p3981
aVmen
p3982
aVto
p3983
aVcarry
p3984
ag102
aVbut
p3985
aVthe
p3986
aVstrong
p3987
aVone
p3988
aVsnatched
p3989
aVit
p3990
aVup
p3991
aVin
p3992
aVone
p3993
aVhand
p3994
ag102
aVput
p3995
aVit
p3996
aVin
p3997
aVhis
p3998
aVsack
p3999
ag102
aVand
p4000
ag153
ag102
aVwhy
p4001
aVdo
p4002
aVn't
p4003
aVyou
p4004
aVbring
p4005
aVmore
p4006
aVat
p4007
aVthe
p4008
aVsame
p4009
aVtime
p4010
ag45
asg46
(lp4011
g48
ag48
ag48
ag48
ag48
ag48
ag48
ag48
ag48
ag48
ag48
ag48
ag48
ag48
ag48
ag48
ag48
ag48
ag48
ag48
ag48
ag48
ag48
ag48
ag48
ag48
ag48
ag48
ag48
ag48
ag48
ag48
ag48
ag48
ag48
ag48
ag48
ag48
ag48
ag48
ag48
ag48
ag48
ag48
ag48
ag48
ag48
ag48
ag48
ag48
ag48
ag48
asg49
(lp4012
g53
ag128
ag52
ag54
ag55
ag58
ag55
ag221
ag165
ag166
ag129
ag2060
ag52
ag166
ag58
ag132
ag286
ag57
ag221
ag165
ag129
ag130
ag54
ag285
ag133
ag285
ag128
ag58
ag58
ag133
ag55
ag129
ag52
ag128
ag58
ag132
ag55
ag129
ag130
ag52
ag129
ag131
ag556
ag53
ag128
ag522
ag3072
ag58
ag54
ag285
ag55
ag59
asg60
VThen he commanded a ton of gold to be brought, which took sixteen of his strongest men to carry, but the strong one snatched it up in one hand, put it in his sack, and said, why don't you bring more at the same time.
p4013
sba(i__main__
Sentence
p4014
(dp4015
g17
I72
sg18
(lp4016
S'That'
p4017
aS'hardly'
p4018
aS'covers'
p4019
aS'the'
p4020
aS'bottom'
p4021
aS'.'
p4022
asg32
(lp4023
VThat
p4024
aVhardly
p4025
aVcover
p4026
aVthe
p4027
aVbottom
p4028
ag45
asg46
(lp4029
g48
ag48
ag48
ag48
ag48
ag48
asg49
(lp4030
g54
ag53
ag615
ag54
ag55
ag59
asg60
VThat hardly covers the bottom.
p4031
sba(i__main__
Sentence
p4032
(dp4033
g17
I73
sg18
(lp4034
S'Then'
p4035
aS','
p4036
aS'little'
p4037
aS'by'
p4038
aS'little'
p4039
aS','
p4040
aS'the'
p4041
aS'king'
p4042
aS'caused'
p4043
aS'all'
p4044
aS'his'
p4045
aS'treasure'
p4046
aS'to'
p4047
aS'be'
p4048
aS'brought'
p4049
aS'thither'
p4050
aS','
p4051
aS'and'
p4052
aS'the'
p4053
aS'strong'
p4054
aS'one'
p4055
aS'pushed'
p4056
aS'it'
p4057
aS'into'
p4058
aS'the'
p4059
aS'sack'
p4060
aS','
p4061
aS'and'
p4062
aS'still'
p4063
aS'the'
p4064
aS'sack'
p4065
aS'was'
p4066
aS'not'
p4067
aS'half'
p4068
aS'full'
p4069
aS'with'
p4070
aS'it'
p4071
aS'.'
p4072
asg32
(lp4073
VThen
p4074
ag102
aVlittle
p4075
aVby
p4076
aVlittle
p4077
ag102
aVthe
p4078
aVking
p4079
aVcause
p4080
aVall
p4081
aVhis
p4082
aVtreasure
p4083
aVto
p4084
aVbe
p4085
ag3582
aVthither
p4086
ag102
aVand
p4087
aVthe
p4088
aVstrong
p4089
aVone
p4090
aVpushed
p4091
aVit
p4092
aVinto
p4093
aVthe
p4094
aVsack
p4095
ag102
aVand
p4096
aVstill
p4097
aVthe
p4098
aVsack
p4099
ag35
aVnot
p4100
aVhalf
p4101
aVfull
p4102
aVwith
p4103
aVit
p4104
ag45
asg46
(lp4105
g48
ag48
ag48
ag48
ag48
ag48
ag48
ag48
ag48
ag48
ag48
ag48
ag48
ag48
ag48
ag48
ag48
ag48
ag48
ag48
ag48
ag48
ag48
ag48
ag48
ag48
ag48
ag48
ag48
ag48
ag48
ag48
ag48
ag48
ag48
ag48
ag48
ag48
asg49
(lp4106
g53
ag129
ag53
ag58
ag53
ag129
ag54
ag55
ag52
ag54
ag132
ag55
ag221
ag165
ag166
ag287
ag129
ag130
ag54
ag285
ag133
ag285
ag128
ag58
ag54
ag55
ag129
ag130
ag53
ag54
ag55
ag52
ag53
ag55
ag285
ag58
ag128
ag59
asg60
VThen, little by little, the king caused all his treasure to be brought thither, and the strong one pushed it into the sack, and still the sack was not half full with it.
p4107
sba(i__main__
Sentence
p4108
(dp4109
g17
I74
sg18
(lp4110
S'Bring'
p4111
aS'more'
p4112
aS','
p4113
aS'cried'
p4114
aS'he'
p4115
aS','
p4116
aS'these'
p4117
aS'few'
p4118
aS'crumbs'
p4119
aS'do'
p4120
aS"n't"
p4121
aS'fill'
p4122
aS'it'
p4123
aS'.'
p4124
asg32
(lp4125
VBring
p4126
aVmore
p4127
ag102
aVcry
p4128
aVhe
p4129
ag102
aVthese
p4130
aVfew
p4131
aVcrumb
p4132
aVdo
p4133
aVn't
p4134
aVfill
p4135
aVit
p4136
ag45
asg46
(lp4137
g48
ag48
ag48
ag48
ag48
ag48
ag48
ag48
ag48
ag48
ag48
ag48
ag48
ag48
asg49
(lp4138
g522
ag3072
ag129
ag52
ag128
ag129
ag54
ag285
ag57
ag556
ag53
ag165
ag128
ag59
asg60
VBring more, cried he, these few crumbs don't fill it.
p4139
sba(i__main__
Sentence
p4140
(dp4141
g17
I75
sg18
(lp4142
S'Then'
p4143
aS'seven'
p4144
aS'thousand'
p4145
aS'carts'
p4146
aS'with'
p4147
aS'gold'
p4148
aS'had'
p4149
aS'to'
p4150
aS'be'
p4151
aS'gathered'
p4152
aS'together'
p4153
aS'in'
p4154
aS'the'
p4155
aS'whole'
p4156
aS'kingdom'
p4157
aS','
p4158
aS'and'
p4159
aS'the'
p4160
aS'strong'
p4161
aS'one'
p4162
aS'thrust'
p4163
aS'them'
p4164
aS'and'
p4165
aS'the'
p4166
aS'oxen'
p4167
aS'harnessed'
p4168
aS'to'
p4169
aS'them'
p4170
aS'into'
p4171
aS'his'
p4172
aS'sack'
p4173
aS'.'
p4174
asg32
(lp4175
VThen
p4176
aVseven
p4177
aVthousand
p4178
aVcart
p4179
aVwith
p4180
aVgold
p4181
ag272
aVto
p4182
aVbe
p4183
aVgather
p4184
aVtogether
p4185
aVin
p4186
aVthe
p4187
aVwhole
p4188
aVkingdom
p4189
ag102
aVand
p4190
aVthe
p4191
aVstrong
p4192
aVone
p4193
aVthrust
p4194
aVthem
p4195
aVand
p4196
aVthe
p4197
aVox
p4198
aVharness
p4199
aVto
p4200
aVthem
p4201
aVinto
p4202
aVhis
p4203
aVsack
p4204
ag45
asg46
(lp4205
g48
ag48
ag48
ag48
ag48
ag48
ag48
ag48
ag48
ag48
ag48
ag48
ag48
ag48
ag48
ag48
ag48
ag48
ag48
ag48
ag48
ag48
ag48
ag48
ag48
ag48
ag48
ag48
ag48
ag48
ag48
ag48
asg49
(lp4206
g53
ag166
ag55
ag57
ag58
ag55
ag52
ag221
ag165
ag166
ag287
ag58
ag54
ag285
ag55
ag129
ag130
ag54
ag285
ag133
ag285
ag128
ag130
ag54
ag55
ag52
ag221
ag128
ag58
ag132
ag55
ag59
asg60
VThen seven thousand carts with gold had to be gathered together in the whole kingdom, and the strong one thrust them and the oxen harnessed to them into his sack.
p4207
sba(i__main__
Sentence
p4208
(dp4209
g17
I76
sg18
(lp4210
S'I'
p4211
aS'will'
p4212
aS'examine'
p4213
aS'it'
p4214
aS'no'
p4215
aS'longer'
p4216
aS','
p4217
aS'said'
p4218
aS'he'
p4219
aS','
p4220
aS'but'
p4221
aS'will'
p4222
aS'just'
p4223
aS'take'
p4224
aS'what'
p4225
aS'comes'
p4226
aS','
p4227
aS'so'
p4228
aS'long'
p4229
aS'as'
p4230
aS'the'
p4231
aS'sack'
p4232
aS'is'
p4233
aS'but'
p4234
aS'full'
p4235
aS'.'
p4236
asg32
(lp4237
g155
aVwill
p4238
aVexamine
p4239
aVit
p4240
aVno
p4241
aVlonger
p4242
ag102
ag153
aVhe
p4243
ag102
aVbut
p4244
aVwill
p4245
aVjust
p4246
aVtake
p4247
aVwhat
p4248
aVcome
p4249
ag102
aVso
p4250
aVlong
p4251
ag37
aVthe
p4252
aVsack
p4253
ag597
aVbut
p4254
aVfull
p4255
ag45
asg46
(lp4256
g48
ag48
ag48
ag48
ag48
ag48
ag48
ag48
ag48
ag48
ag48
ag48
ag48
ag48
ag48
ag48
ag48
ag48
ag48
ag48
ag48
ag48
ag48
ag48
ag48
ag48
asg49
(lp4257
g128
ag164
ag165
ag128
ag54
ag55
ag129
ag52
ag128
ag129
ag130
ag164
ag53
ag165
ag56
ag57
ag129
ag53
ag53
ag58
ag54
ag55
ag615
ag130
ag285
ag59
asg60
VI will examine it no longer, said he, but will just take what comes, so long as the sack is but full.
p4258
sba(i__main__
Sentence
p4259
(dp4260
g17
I77
sg18
(lp4261
S'When'
p4262
aS'all'
p4263
aS'that'
p4264
aS'was'
p4265
aS'inside'
p4266
aS','
p4267
aS'there'
p4268
aS'was'
p4269
aS'still'
p4270
aS'room'
p4271
aS'for'
p4272
aS'a'
p4273
aS'great'
p4274
aS'deal'
p4275
aS'more'
p4276
aS'.'
p4277
asg32
(lp4278
VWhen
p4279
aVall
p4280
aVthat
p4281
ag35
aVinside
p4282
ag102
aVthere
p4283
ag35
aVstill
p4284
aVroom
p4285
aVfor
p4286
ag37
aVgreat
p4287
aVdeal
p4288
aVmore
p4289
ag45
asg46
(lp4290
g48
ag48
ag48
ag48
ag48
ag48
ag48
ag48
ag48
ag48
ag48
ag48
ag48
ag48
ag48
ag48
asg49
(lp4291
g131
ag54
ag54
ag52
ag285
ag129
ag51
ag52
ag53
ag55
ag58
ag54
ag285
ag55
ag1905
ag59
asg60
VWhen all that was inside, there was still room for a great deal more.
p4292
sba(i__main__
Sentence
p4293
(dp4294
g17
I78
sg18
(lp4295
S'Then'
p4296
aS'he'
p4297
aS'said'
p4298
aS','
p4299
aS'I'
p4300
aS'will'
p4301
aS'just'
p4302
aS'make'
p4303
aS'an'
p4304
aS'end'
p4305
aS'of'
p4306
aS'the'
p4307
aS'thing'
p4308
aS'.'
p4309
asg32
(lp4310
VThen
p4311
aVhe
p4312
ag153
ag102
ag155
aVwill
p4313
aVjust
p4314
aVmake
p4315
aVan
p4316
aVend
p4317
aVof
p4318
aVthe
p4319
aVthing
p4320
ag45
asg46
(lp4321
g48
ag48
ag48
ag48
ag48
ag48
ag48
ag48
ag48
ag48
ag48
ag48
ag48
ag48
asg49
(lp4322
g53
ag128
ag52
ag129
ag128
ag164
ag53
ag165
ag54
ag55
ag58
ag54
ag55
ag59
asg60
VThen he said, I will just make an end of the thing.
p4323
sba(i__main__
Sentence
p4324
(dp4325
g17
I79
sg18
(lp4326
S'People'
p4327
aS'do'
p4328
aS'sometimes'
p4329
aS'tie'
p4330
aS'up'
p4331
aS'a'
p4332
aS'sack'
p4333
aS'even'
p4334
aS'when'
p4335
aS'it'
p4336
aS'is'
p4337
aS'not'
p4338
aS'full'
p4339
aS'.'
p4340
asg32
(lp4341
VPeople
p4342
aVdo
p4343
aVsometimes
p4344
aVtie
p4345
aVup
p4346
ag37
aVsack
p4347
aVeven
p4348
aVwhen
p4349
aVit
p4350
ag597
aVnot
p4351
aVfull
p4352
ag45
asg46
(lp4353
g48
ag48
ag48
ag48
ag48
ag48
ag48
ag48
ag48
ag48
ag48
ag48
ag48
ag48
asg49
(lp4354
g57
ag556
ag53
ag165
ag287
ag54
ag55
ag53
ag131
ag128
ag615
ag53
ag285
ag59
asg60
VPeople do sometimes tie up a sack even when it is not full.
p4355
sba(i__main__
Sentence
p4356
(dp4357
g17
I80
sg18
(lp4358
S'So'
p4359
aS'he'
p4360
aS'took'
p4361
aS'it'
p4362
aS'on'
p4363
aS'his'
p4364
aS'back'
p4365
aS','
p4366
aS'and'
p4367
aS'went'
p4368
aS'away'
p4369
aS'with'
p4370
aS'his'
p4371
aS'comrades'
p4372
aS'.'
p4373
asg32
(lp4374
VSo
p4375
aVhe
p4376
ag395
aVit
p4377
aVon
p4378
aVhis
p4379
aVback
p4380
ag102
aVand
p4381
ag262
aVaway
p4382
aVwith
p4383
aVhis
p4384
aVcomrade
p4385
ag45
asg46
(lp4386
g48
ag48
ag48
ag48
ag48
ag48
ag48
ag48
ag48
ag48
ag48
ag48
ag48
ag48
ag48
asg49
(lp4387
g58
ag128
ag52
ag128
ag58
ag132
ag55
ag129
ag130
ag52
ag53
ag58
ag132
ag57
ag59
asg60
VSo he took it on his back, and went away with his comrades.
p4388
sba(i__main__
Sentence
p4389
(dp4390
g17
I81
sg18
(lp4391
S'When'
p4392
aS'the'
p4393
aS'king'
p4394
aS'now'
p4395
aS'saw'
p4396
aS'how'
p4397
aS'one'
p4398
aS'single'
p4399
aS'man'
p4400
aS'was'
p4401
aS'carrying'
p4402
aS'away'
p4403
aS'the'
p4404
aS'entire'
p4405
aS'wealth'
p4406
aS'of'
p4407
aS'the'
p4408
aS'country'
p4409
aS','
p4410
aS'he'
p4411
aS'became'
p4412
aS'enraged'
p4413
aS','
p4414
aS'and'
p4415
aS'bade'
p4416
aS'his'
p4417
aS'horsemen'
p4418
aS'mount'
p4419
aS'and'
p4420
aS'pursue'
p4421
aS'the'
p4422
aS'six'
p4423
aS','
p4424
aS'and'
p4425
aS'ordered'
p4426
aS'them'
p4427
aS'to'
p4428
aS'take'
p4429
aS'the'
p4430
aS'sack'
p4431
aS'away'
p4432
aS'from'
p4433
aS'the'
p4434
aS'strong'
p4435
aS'one'
p4436
aS'.'
p4437
asg32
(lp4438
VWhen
p4439
aVthe
p4440
aVking
p4441
aVnow
p4442
aVsaw
p4443
aVhow
p4444
aVone
p4445
aVsingle
p4446
aVman
p4447
ag35
aVcarry
p4448
aVaway
p4449
aVthe
p4450
aVentire
p4451
aVwealth
p4452
aVof
p4453
aVthe
p4454
aVcountry
p4455
ag102
aVhe
p4456
ag2928
aVenrage
p4457
ag102
aVand
p4458
aVbid
p4459
aVhis
p4460
aVhorseman
p4461
aVmount
p4462
aVand
p4463
aVpursue
p4464
aVthe
p4465
aVsix
p4466
ag102
aVand
p4467
aVorder
p4468
aVthem
p4469
aVto
p4470
aVtake
p4471
aVthe
p4472
aVsack
p4473
aVaway
p4474
aVfrom
p4475
aVthe
p4476
aVstrong
p4477
aVone
p4478
ag45
asg46
(lp4479
g48
ag48
ag48
ag48
ag48
ag48
ag48
ag48
ag48
ag48
ag48
ag48
ag48
ag48
ag48
ag48
ag48
ag48
ag48
ag48
ag48
ag48
ag48
ag48
ag48
ag48
ag48
ag48
ag48
ag48
ag48
ag48
ag48
ag48
ag48
ag48
ag48
ag48
ag48
ag48
ag48
ag48
ag48
ag48
ag48
ag48
asg49
(lp4480
g131
ag54
ag55
ag53
ag52
ag131
ag133
ag285
ag55
ag52
ag522
ag53
ag54
ag285
ag55
ag58
ag54
ag55
ag129
ag128
ag52
ag166
ag129
ag130
ag165
ag132
ag57
ag556
ag130
ag55
ag54
ag133
ag129
ag130
ag52
ag128
ag221
ag165
ag54
ag55
ag53
ag58
ag54
ag285
ag133
ag59
asg60
VWhen the king now saw how one single man was carrying away the entire wealth of the country, he became enraged, and bade his horsemen mount and pursue the six, and ordered them to take the sack away from the strong one.
p4481
sba(i__main__
Sentence
p4482
(dp4483
g17
I82
sg18
(lp4484
S'Two'
p4485
aS'regiments'
p4486
aS'speedily'
p4487
aS'overtook'
p4488
aS'the'
p4489
aS'six'
p4490
aS','
p4491
aS'and'
p4492
aS'called'
p4493
aS'out'
p4494
aS','
p4495
aS'you'
p4496
aS'are'
p4497
aS'prisoners'
p4498
aS','
p4499
aS'put'
p4500
aS'down'
p4501
aS'the'
p4502
aS'sack'
p4503
aS'with'
p4504
aS'the'
p4505
aS'gold'
p4506
aS','
p4507
aS'or'
p4508
aS'you'
p4509
aS'will'
p4510
aS'be'
p4511
aS'cut'
p4512
aS'to'
p4513
aS'pieces'
p4514
aS'.'
p4515
asg32
(lp4516
VTwo
p4517
aVregiment
p4518
aVspeedily
p4519
aVovertake
p4520
aVthe
p4521
aVsix
p4522
ag102
aVand
p4523
aVcall
p4524
aVout
p4525
ag102
aVyou
p4526
ag549
aVprisoner
p4527
ag102
aVput
p4528
aVdown
p4529
aVthe
p4530
aVsack
p4531
aVwith
p4532
aVthe
p4533
aVgold
p4534
ag102
aVor
p4535
aVyou
p4536
aVwill
p4537
aVbe
p4538
aVcut
p4539
aVto
p4540
aVpiece
p4541
ag45
asg46
(lp4542
g48
ag48
ag48
ag48
ag48
ag48
ag48
ag48
ag48
ag48
ag48
ag48
ag48
ag48
ag48
ag48
ag48
ag48
ag48
ag48
ag48
ag48
ag48
ag48
ag48
ag48
ag48
ag48
ag48
ag48
ag48
asg49
(lp4543
g133
ag57
ag53
ag556
ag54
ag133
ag129
ag130
ag166
ag287
ag129
ag128
ag556
ag57
ag129
ag52
ag287
ag54
ag55
ag58
ag54
ag55
ag129
ag130
ag128
ag164
ag165
ag166
ag221
ag57
ag59
asg60
VTwo regiments speedily overtook the six, and called out, you are prisoners, put down the sack with the gold, or you will be cut to pieces.
p4544
sba(i__main__
Sentence
p4545
(dp4546
g17
I83
sg18
(lp4547
S'What'
p4548
aS'say'
p4549
aS'you'
p4550
aS','
p4551
aS'cried'
p4552
aS'the'
p4553
aS'blower'
p4554
aS','
p4555
aS'that'
p4556
aS'we'
p4557
aS'are'
p4558
aS'prisoners'
p4559
aS'.'
p4560
asg32
(lp4561
VWhat
p4562
aVsay
p4563
aVyou
p4564
ag102
ag4128
aVthe
p4565
aVblower
p4566
ag102
aVthat
p4567
aVwe
p4568
ag549
aVprisoner
p4569
ag45
asg46
(lp4570
g48
ag48
ag48
ag48
ag48
ag48
ag48
ag48
ag48
ag48
ag48
ag48
ag48
asg49
(lp4571
g56
ag556
ag128
ag129
ag52
ag54
ag55
ag129
ag58
ag128
ag556
ag57
ag59
asg60
VWhat say you, cried the blower, that we are prisoners.
p4572
sba(i__main__
Sentence
p4573
(dp4574
g17
I84
sg18
(lp4575
S'Rather'
p4576
aS'than'
p4577
aS'that'
p4578
aS'should'
p4579
aS'happen'
p4580
aS','
p4581
aS'all'
p4582
aS'of'
p4583
aS'you'
p4584
aS'shall'
p4585
aS'dance'
p4586
aS'about'
p4587
aS'in'
p4588
aS'the'
p4589
aS'air'
p4590
aS'.'
p4591
asg32
(lp4592
VRather
p4593
aVthan
p4594
aVthat
p4595
aVshould
p4596
aVhappen
p4597
ag102
aVall
p4598
aVof
p4599
aVyou
p4600
aVshall
p4601
aVdance
p4602
aVabout
p4603
aVin
p4604
aVthe
p4605
aVair
p4606
ag45
asg46
(lp4607
g48
ag48
ag48
ag48
ag48
ag48
ag48
ag48
ag48
ag48
ag48
ag48
ag48
ag48
ag48
ag48
asg49
(lp4608
g53
ag58
ag54
ag164
ag165
ag129
ag54
ag58
ag128
ag164
ag165
ag58
ag58
ag54
ag55
ag59
asg60
VRather than that should happen, all of you shall dance about in the air.
p4609
sba(i__main__
Sentence
p4610
(dp4611
g17
I85
sg18
(lp4612
S'And'
p4613
aS'he'
p4614
aS'closed'
p4615
aS'one'
p4616
aS'nostril'
p4617
aS','
p4618
aS'and'
p4619
aS'with'
p4620
aS'the'
p4621
aS'other'
p4622
aS'blew'
p4623
aS'on'
p4624
aS'the'
p4625
aS'two'
p4626
aS'regiments'
p4627
aS'.'
p4628
asg32
(lp4629
VAnd
p4630
aVhe
p4631
aVclose
p4632
aVone
p4633
aVnostril
p4634
ag102
aVand
p4635
aVwith
p4636
aVthe
p4637
aVother
p4638
aVblew
p4639
aVon
p4640
aVthe
p4641
aVtwo
p4642
aVregiment
p4643
ag45
asg46
(lp4644
g48
ag48
ag48
ag48
ag48
ag48
ag48
ag48
ag48
ag48
ag48
ag48
ag48
ag48
ag48
ag48
asg49
(lp4645
g130
ag128
ag52
ag133
ag55
ag129
ag130
ag58
ag54
ag285
ag55
ag58
ag54
ag133
ag57
ag59
asg60
VAnd he closed one nostril, and with the other blew on the two regiments.
p4646
sba(i__main__
Sentence
p4647
(dp4648
g17
I86
sg18
(lp4649
S'Then'
p4650
aS'they'
p4651
aS'were'
p4652
aS'driven'
p4653
aS'away'
p4654
aS'from'
p4655
aS'each'
p4656
aS'other'
p4657
aS','
p4658
aS'and'
p4659
aS'carried'
p4660
aS'into'
p4661
aS'the'
p4662
aS'blue'
p4663
aS'sky'
p4664
aS'over'
p4665
aS'all'
p4666
aS'the'
p4667
aS'mountains'
p4668
aS','
p4669
aS'one'
p4670
aS'here'
p4671
aS','
p4672
aS'the'
p4673
aS'other'
p4674
aS'there'
p4675
aS'.'
p4676
asg32
(lp4677
VThen
p4678
aVthey
p4679
ag279
aVdrive
p4680
aVaway
p4681
aVfrom
p4682
aVeach
p4683
aVother
p4684
ag102
aVand
p4685
ag414
aVinto
p4686
aVthe
p4687
aVblue
p4688
aVsky
p4689
aVover
p4690
aVall
p4691
aVthe
p4692
aVmountain
p4693
ag102
aVone
p4694
aVhere
p4695
ag102
aVthe
p4696
aVother
p4697
aVthere
p4698
ag45
asg46
(lp4699
g48
ag48
ag48
ag48
ag48
ag48
ag48
ag48
ag48
ag48
ag48
ag48
ag48
ag48
ag48
ag48
ag48
ag48
ag48
ag48
ag48
ag48
ag48
ag48
ag48
ag48
ag48
asg49
(lp4700
g53
ag128
ag52
ag166
ag53
ag58
ag54
ag285
ag129
ag130
ag52
ag58
ag54
ag285
ag55
ag58
ag54
ag54
ag57
ag129
ag133
ag53
ag129
ag54
ag285
ag51
ag59
asg60
VThen they were driven away from each other, and carried into the blue sky over all the mountains, one here, the other there.
p4701
sba(i__main__
Sentence
p4702
(dp4703
g17
I87
sg18
(lp4704
S'One'
p4705
aS'sergeant'
p4706
aS'cried'
p4707
aS'for'
p4708
aS'mercy'
p4709
aS'.'
p4710
asg32
(lp4711
VOne
p4712
aVsergeant
p4713
aVcried
p4714
aVfor
p4715
aVmercy
p4716
ag45
asg46
(lp4717
g48
ag48
ag48
ag48
ag48
ag48
asg49
(lp4718
g133
ag285
ag285
ag58
ag55
ag59
asg60
VOne sergeant cried for mercy.
p4719
sba(i__main__
Sentence
p4720
(dp4721
g17
I88
sg18
(lp4722
S'He'
p4723
aS'had'
p4724
aS'nine'
p4725
aS'wounds'
p4726
aS','
p4727
aS'and'
p4728
aS'was'
p4729
aS'a'
p4730
aS'brave'
p4731
aS'fellow'
p4732
aS'who'
p4733
aS'did'
p4734
aS'not'
p4735
aS'deserve'
p4736
aS'ill'
p4737
aS'treatment'
p4738
aS'.'
p4739
asg32
(lp4740
VHe
p4741
ag272
aVnine
p4742
aVwound
p4743
ag102
aVand
p4744
ag35
ag37
aVbrave
p4745
aVfellow
p4746
aVwho
p4747
ag2460
aVnot
p4748
aVdeserve
p4749
aVill
p4750
aVtreatment
p4751
ag45
asg46
(lp4752
g48
ag48
ag48
ag48
ag48
ag48
ag48
ag48
ag48
ag48
ag48
ag48
ag48
ag48
ag48
ag48
ag48
asg49
(lp4753
g128
ag52
ag133
ag57
ag129
ag130
ag52
ag54
ag55
ag55
ag56
ag52
ag53
ag165
ag53
ag55
ag59
asg60
VHe had nine wounds, and was a brave fellow who did not deserve ill treatment.
p4754
sba(i__main__
Sentence
p4755
(dp4756
g17
I89
sg18
(lp4757
S'The'
p4758
aS'blower'
p4759
aS'stopped'
p4760
aS'a'
p4761
aS'little'
p4762
aS'so'
p4763
aS'that'
p4764
aS'he'
p4765
aS'came'
p4766
aS'down'
p4767
aS'without'
p4768
aS'injury'
p4769
aS','
p4770
aS'and'
p4771
aS'then'
p4772
aS'the'
p4773
aS'blower'
p4774
aS'said'
p4775
aS'to'
p4776
aS'him'
p4777
aS'.'
p4778
asg32
(lp4779
VThe
p4780
aVblower
p4781
aVstop
p4782
ag37
aVlittle
p4783
aVso
p4784
aVthat
p4785
aVhe
p4786
ag733
aVdown
p4787
aVwithout
p4788
aVinjury
p4789
ag102
aVand
p4790
aVthen
p4791
aVthe
p4792
aVblower
p4793
ag153
aVto
p4794
aVhim
p4795
ag45
asg46
(lp4796
g48
ag48
ag48
ag48
ag48
ag48
ag48
ag48
ag48
ag48
ag48
ag48
ag48
ag48
ag48
ag48
ag48
ag48
ag48
ag48
ag48
asg49
(lp4797
g54
ag55
ag52
ag54
ag53
ag53
ag58
ag128
ag52
ag287
ag58
ag55
ag129
ag130
ag53
ag54
ag55
ag52
ag221
ag128
ag59
asg60
VThe blower stopped a little so that he came down without injury, and then the blower said to him.
p4798
sba(i__main__
Sentence
p4799
(dp4800
g17
I90
sg18
(lp4801
S'Now'
p4802
aS'go'
p4803
aS'home'
p4804
aS'to'
p4805
aS'your'
p4806
aS'king'
p4807
aS','
p4808
aS'and'
p4809
aS'tell'
p4810
aS'him'
p4811
aS'he'
p4812
aS'had'
p4813
aS'better'
p4814
aS'send'
p4815
aS'some'
p4816
aS'more'
p4817
aS'horsemen'
p4818
aS','
p4819
aS'and'
p4820
aS'I'
p4821
aS'will'
p4822
aS'blow'
p4823
aS'them'
p4824
aS'all'
p4825
aS'into'
p4826
aS'the'
p4827
aS'air'
p4828
aS'.'
p4829
asg32
(lp4830
VNow
p4831
aVgo
p4832
aVhome
p4833
aVto
p4834
aVyour
p4835
aVking
p4836
ag102
aVand
p4837
aVtell
p4838
aVhim
p4839
aVhe
p4840
ag272
aVwell
p4841
aVsend
p4842
aVsome
p4843
aVmore
p4844
aVhorseman
p4845
ag102
aVand
p4846
ag155
aVwill
p4847
aVblow
p4848
aVthem
p4849
aVall
p4850
aVinto
p4851
aVthe
p4852
aVair
p4853
ag45
asg46
(lp4854
g48
ag48
ag48
ag48
ag48
ag48
ag48
ag48
ag48
ag48
ag48
ag48
ag48
ag48
ag48
ag48
ag48
ag48
ag48
ag48
ag48
ag48
ag48
ag48
ag48
ag48
ag48
ag48
asg49
(lp4855
g53
ag556
ag55
ag221
ag132
ag55
ag129
ag130
ag55
ag128
ag128
ag52
ag1905
ag55
ag54
ag1905
ag57
ag129
ag130
ag128
ag164
ag165
ag128
ag54
ag58
ag54
ag55
ag59
asg60
VNow go home to your king, and tell him he had better send some more horsemen, and I will blow them all into the air.
p4856
sba(i__main__
Sentence
p4857
(dp4858
g17
I91
sg18
(lp4859
S'When'
p4860
aS'the'
p4861
aS'king'
p4862
aS'was'
p4863
aS'informed'
p4864
aS'of'
p4865
aS'this'
p4866
aS'he'
p4867
aS'said'
p4868
aS','
p4869
aS'let'
p4870
aS'the'
p4871
aS'rascals'
p4872
aS'go'
p4873
aS'.'
p4874
asg32
(lp4875
VWhen
p4876
aVthe
p4877
aVking
p4878
ag35
aVinform
p4879
aVof
p4880
aVthis
p4881
aVhe
p4882
ag153
ag102
aVlet
p4883
aVthe
p4884
aVrascal
p4885
aVgo
p4886
ag45
asg46
(lp4887
g48
ag48
ag48
ag48
ag48
ag48
ag48
ag48
ag48
ag48
ag48
ag48
ag48
ag48
ag48
asg49
(lp4888
g131
ag54
ag55
ag52
ag166
ag58
ag54
ag128
ag52
ag129
ag165
ag54
ag57
ag556
ag59
asg60
VWhen the king was informed of this he said, let the rascals go.
p4889
sba(i__main__
Sentence
p4890
(dp4891
g17
I92
sg18
(lp4892
S'There'
p4893
aS'is'
p4894
aS'magic'
p4895
aS'in'
p4896
aS'them'
p4897
aS'.'
p4898
asg32
(lp4899
VThere
p4900
ag597
aVmagic
p4901
aVin
p4902
aVthem
p4903
ag45
asg46
(lp4904
g48
ag48
ag48
ag48
ag48
ag48
asg49
(lp4905
g51
ag615
ag285
ag58
ag128
ag59
asg60
VThere is magic in them.
p4906
sba(i__main__
Sentence
p4907
(dp4908
g17
I93
sg18
(lp4909
S'Then'
p4910
aS'the'
p4911
aS'six'
p4912
aS'conveyed'
p4913
aS'the'
p4914
aS'riches'
p4915
aS'home'
p4916
aS','
p4917
aS'divided'
p4918
aS'it'
p4919
aS'amongst'
p4920
aS'them'
p4921
aS','
p4922
aS'and'
p4923
aS'lived'
p4924
aS'in'
p4925
aS'content'
p4926
aS'until'
p4927
aS'their'
p4928
aS'death'
p4929
aS'.'
p4930
asg32
(lp4931
VThen
p4932
aVthe
p4933
aVsix
p4934
aVconvey
p4935
aVthe
p4936
aVrich
p4937
aVhome
p4938
ag102
aVdivide
p4939
aVit
p4940
aVamongst
p4941
aVthem
p4942
ag102
aVand
p4943
aVlive
p4944
aVin
p4945
aVcontent
p4946
aVuntil
p4947
aVtheir
p4948
aVdeath
p4949
ag45
asg46
(lp4950
g48
ag48
ag48
ag48
ag48
ag48
ag48
ag48
ag48
ag48
ag48
ag48
ag48
ag48
ag48
ag48
ag48
ag48
ag48
ag48
ag48
asg49
(lp4951
g53
ag54
ag133
ag166
ag54
ag57
ag55
ag129
ag52
ag128
ag53
ag128
ag129
ag130
ag52
ag58
ag55
ag58
ag132
ag55
ag59
asg60
VThen the six conveyed the riches home, divided it amongst them, and lived in content until their death. 
p4952
sbasbsS'summary'
p4953
g0
(g7
g2
Ntp4954
Rp4955
(dp4956
g11
S"A man is discharged from the king's army and is disappointed with the three farthings he gets for pay. He decides to get together a group of men who will help him get all of the treasure of the country. His five companions all have special talents that help the man win all of the wealth of the kingdom. This wealth is split among the six companions."
p4957
sg13
(lp4958
(i__main__
Sentence
p4959
(dp4960
g17
I0
sg18
(lp4961
S'A'
p4962
aS'man'
p4963
aS'is'
p4964
aS'discharged'
p4965
aS'from'
p4966
aS'the'
p4967
aS'king'
p4968
aS"'s"
p4969
aS'army'
p4970
aS'and'
p4971
aS'is'
p4972
aS'disappointed'
p4973
aS'with'
p4974
aS'the'
p4975
aS'three'
p4976
aS'farthings'
p4977
aS'he'
p4978
aS'gets'
p4979
aS'for'
p4980
aS'pay'
p4981
aS'.'
p4982
asg32
(lp4983
VA
p4984
aVman
p4985
ag597
aVdischarge
p4986
aVfrom
p4987
aVthe
p4988
aVking
p4989
aV's
p4990
aVarmy
p4991
aVand
p4992
ag597
aVdisappoint
p4993
aVwith
p4994
aVthe
p4995
aVthree
p4996
aVfarthing
p4997
aVhe
p4998
aVget
p4999
aVfor
p5000
aVpay
p5001
ag45
asg46
(lp5002
g48
ag48
ag48
ag48
ag48
ag48
ag48
ag48
ag48
ag48
ag48
ag48
ag48
ag48
ag48
ag48
ag48
ag48
ag48
ag48
ag48
asg49
(lp5003
g54
ag55
ag615
ag166
ag58
ag54
ag55
ag1904
ag55
ag130
ag615
ag166
ag58
ag54
ag133
ag57
ag128
ag615
ag58
ag55
ag59
asg60
VA man is discharged from the king's army and is disappointed with the three farthings he gets for pay.
p5004
sba(i__main__
Sentence
p5005
(dp5006
g17
I1
sg18
(lp5007
S'He'
p5008
aS'decides'
p5009
aS'to'
p5010
aS'get'
p5011
aS'together'
p5012
aS'a'
p5013
aS'group'
p5014
aS'of'
p5015
aS'men'
p5016
aS'who'
p5017
aS'will'
p5018
aS'help'
p5019
aS'him'
p5020
aS'get'
p5021
aS'all'
p5022
aS'of'
p5023
aS'the'
p5024
aS'treasure'
p5025
aS'of'
p5026
aS'the'
p5027
aS'country'
p5028
aS'.'
p5029
asg32
(lp5030
VHe
p5031
aVdecide
p5032
aVto
p5033
aVget
p5034
aVtogether
p5035
ag37
aVgroup
p5036
aVof
p5037
aVmen
p5038
aVwho
p5039
aVwill
p5040
aVhelp
p5041
aVhim
p5042
aVget
p5043
aVall
p5044
aVof
p5045
aVthe
p5046
aVtreasure
p5047
aVof
p5048
aVthe
p5049
aVcountry
p5050
ag45
asg46
(lp5051
g48
ag48
ag48
ag48
ag48
ag48
ag48
ag48
ag48
ag48
ag48
ag48
ag48
ag48
ag48
ag48
ag48
ag48
ag48
ag48
ag48
ag48
asg49
(lp5052
g128
ag615
ag221
ag165
ag287
ag54
ag55
ag58
ag57
ag56
ag164
ag165
ag128
ag165
aS'PDT'
p5053
ag58
ag54
ag55
ag58
ag54
ag55
ag59
asg60
VHe decides to get together a group of men who will help him get all of the treasure of the country.
p5054
sba(i__main__
Sentence
p5055
(dp5056
g17
I2
sg18
(lp5057
S'His'
p5058
aS'five'
p5059
aS'companions'
p5060
aS'all'
p5061
aS'have'
p5062
aS'special'
p5063
aS'talents'
p5064
aS'that'
p5065
aS'help'
p5066
aS'the'
p5067
aS'man'
p5068
aS'win'
p5069
aS'all'
p5070
aS'of'
p5071
aS'the'
p5072
aS'wealth'
p5073
aS'of'
p5074
aS'the'
p5075
aS'kingdom'
p5076
aS'.'
p5077
asg32
(lp5078
VHis
p5079
aVfive
p5080
aVcompanion
p5081
aVall
p5082
aVhave
p5083
aVspecial
p5084
aVtalent
p5085
aVthat
p5086
aVhelp
p5087
aVthe
p5088
aVman
p5089
aVwin
p5090
aVall
p5091
aVof
p5092
aVthe
p5093
aVwealth
p5094
aVof
p5095
aVthe
p5096
aVkingdom
p5097
ag45
asg46
(lp5098
g48
ag48
ag48
ag48
ag48
ag48
ag48
ag48
ag48
ag48
ag48
ag48
ag48
ag48
ag48
ag48
ag48
ag48
ag48
ag48
asg49
(lp5099
g132
ag133
ag57
ag54
ag556
ag285
ag57
ag2060
ag55
ag54
ag55
ag55
ag54
ag58
ag54
ag55
ag58
ag54
ag55
ag59
asg60
VHis five companions all have special talents that help the man win all of the wealth of the kingdom.
p5100
sba(i__main__
Sentence
p5101
(dp5102
g17
I3
sg18
(lp5103
S'This'
p5104
aS'wealth'
p5105
aS'is'
p5106
aS'split'
p5107
aS'among'
p5108
aS'the'
p5109
aS'six'
p5110
aS'companions'
p5111
aS'.'
p5112
asg32
(lp5113
VThis
p5114
aVwealth
p5115
ag597
aVsplit
p5116
aVamong
p5117
aVthe
p5118
aVsix
p5119
aVcompanion
p5120
ag45
asg46
(lp5121
g48
ag48
ag48
ag48
ag48
ag48
ag48
ag48
ag48
asg49
(lp5122
g54
ag55
ag615
ag166
ag58
ag54
ag133
ag57
ag59
asg60
VThis wealth is split among the six companions.
p5123
sbasbsS'name'
p5124
S'How Six Men Got On in the World'
p5125
sS'summaries'
p5126
(lp5127
g4955
asb.