ccopy_reg
_reconstructor
p0
(c__main__
Story
p1
c__builtin__
object
p2
Ntp3
Rp4
(dp5
S'text'
p6
g0
(c__main__
Document
p7
g2
Ntp8
Rp9
(dp10
S'_Document__initialContent'
p11
S"There were once a little brother and a little sister, who loved\neach other with all their hearts.  Their own mother, however, was\ndead, and they had a step-mother who was not kind to them, and\nsecretly did everything she could to hurt them.  It so happened\nthat the two were playing with other children in a meadow before\nthe house, and there was a pond in the meadow which came up\nto one side of the house.  The children ran about it, and caught\neach other, and played at counting out.\n          Eneke beneke, let me live,\n          and I to you my bird will give.\n          The little bird, it straw shall seek,\n          the straw I'll give to the cow to eat.\n          The pretty cow shall give me milk,\n          the milk I'll to the baker take.\n          The baker he shall bake a cake,\n          the cake I'll give unto the cat.\n          The cat shall catch some mice for that,\n          the mice I'll hang up in the smoke,\n          and then you'll see the snow.\nThey stood in a circle while they played this, and the one to\nwhom the word snow fell, had to run away and all the others ran\nafter him and caught him.  As they were running about so merrily\nthe step-mother watched them from the window, and grew angry.\nAnd as she understood arts of witchcraft she bewitched them both,\nand changed the little brother into a fish, and the little sister\ninto a lamb.  Then the fish swam here and there about the pond and\nwas very sad, and the lambkin walked up and down the meadow,\nand was miserable, and could not eat or touch one blade of grass.\nThus\npassed a long time, and then strangers came as visitors to the\ncastle.  The false step-mother thought, this is a good opportunity,\nand called the cook and said to him, go and fetch the lamb from\nthe meadow and kill it, we have nothing else for the visitors.\nThen the cook went away and got the lamb, and took it into the\nkitchen and tied its feet, and all this it bore patiently.  When\nhe had drawn out his knife and was whetting it on the door-step\nto kill the lamb, he noticed a little fish swimming backwards\nand forwards in the water, in front of the gutter-stone and\nlooking up at him.  This, however, was the brother, for when the\nfish saw the cook take the lamb away, it followed them and swam\nalong the pond to the house, then the lamb cried down to it,\n          ah, brother, in the pond so deep,\n          how sad is my poor heart.\n          The cook he whets his knife\n          to take away my life.\nThe little fish answered,\n          ah, little sister, up on high\n          how sad is my poor heart\n          while in this pond I lie.\nWhen the cook heard that the lambkin could speak and said such\nsad words to the fish down below, he was terrified and thought\nthis could be no common lamb, but must be bewitched by the wicked\nwoman in the house.  Then said he, be easy, I will not kill you,\nand took another sheep and made it ready for the guests, and\nconveyed the lambkin to a good peasant woman, to whom he related\nall that he had seen and heard.\nThe peasant, however, was the very woman who had been foster-mother\nto the little sister, and she suspected at once who the\nlamb was, and went with it to a wise woman.  Then the wise woman\npronounced a blessing over the lambkin and the little fish, by\nmeans of which they regained their human forms, and after this\nshe took them both into a little hut in a great forest, where\nthey lived alone, but were contented and happy.\n"
p12
sS'sentences'
p13
(lp14
(i__main__
Sentence
p15
(dp16
S'index'
p17
I0
sS'words'
p18
(lp19
S'There'
p20
aS'were'
p21
aS'once'
p22
aS'a'
p23
aS'little'
p24
aS'brother'
p25
aS'and'
p26
aS'a'
p27
aS'little'
p28
aS'sister'
p29
aS','
p30
aS'who'
p31
aS'loved'
p32
aS'each'
p33
aS'other'
p34
aS'with'
p35
aS'all'
p36
aS'their'
p37
aS'hearts'
p38
aS'.'
p39
asS'lemmas'
p40
(lp41
VThere
p42
aVbe
p43
aVonce
p44
aVa
p45
aVlittle
p46
aVbrother
p47
aVand
p48
ag45
aVlittle
p49
aVsister
p50
aV,
p51
aVwho
p52
aVlove
p53
aVeach
p54
aVother
p55
aVwith
p56
aVall
p57
aVtheir
p58
aVheart
p59
aV.
p60
asS'nerTags'
p61
(lp62
VO
p63
ag63
ag63
ag63
ag63
ag63
ag63
ag63
ag63
ag63
ag63
ag63
ag63
ag63
ag63
ag63
ag63
ag63
ag63
ag63
asS'posTags'
p64
(lp65
S'EX'
p66
aS'VBD'
p67
aS'RB'
p68
aS'DT'
p69
ag68
aS'RBR'
p70
aS'CC'
p71
ag69
ag68
aS'NN'
p72
aS','
p73
aS'WP'
p74
aS'VBN'
p75
ag69
aS'JJ'
p76
aS'IN'
p77
ag69
aS'PRP$'
p78
aS'NNS'
p79
aS'.'
p80
asS'_Sentence__initialContent'
p81
VThere were once a little brother and a little sister, who loved each other with all their hearts.
p82
sba(i__main__
Sentence
p83
(dp84
g17
I1
sg18
(lp85
S'Their'
p86
aS'own'
p87
aS'mother'
p88
aS','
p89
aS'however'
p90
aS','
p91
aS'was'
p92
aS'dead'
p93
aS','
p94
aS'and'
p95
aS'they'
p96
aS'had'
p97
aS'a'
p98
aS'step-mother'
p99
aS'who'
p100
aS'was'
p101
aS'not'
p102
aS'kind'
p103
aS'to'
p104
aS'them'
p105
aS','
p106
aS'and'
p107
aS'secretly'
p108
aS'did'
p109
aS'everything'
p110
aS'she'
p111
aS'could'
p112
aS'to'
p113
aS'hurt'
p114
aS'them'
p115
aS'.'
p116
asg40
(lp117
VTheir
p118
aVown
p119
aVmother
p120
ag51
aVhowever
p121
ag51
aVbe
p122
aVdead
p123
ag51
aVand
p124
aVthey
p125
aVhave
p126
ag45
aVstep-mother
p127
aVwho
p128
ag122
aVnot
p129
aVkind
p130
aVto
p131
aVthem
p132
ag51
aVand
p133
aVsecretly
p134
aVdo
p135
aVeverything
p136
aVshe
p137
aVcould
p138
aVto
p139
aVhurt
p140
aVthem
p141
ag60
asg61
(lp142
g63
ag63
ag63
ag63
ag63
ag63
ag63
ag63
ag63
ag63
ag63
ag63
ag63
ag63
ag63
ag63
ag63
ag63
ag63
ag63
ag63
ag63
ag63
ag63
ag63
ag63
ag63
ag63
ag63
ag63
ag63
asg64
(lp143
g78
ag76
ag72
ag73
ag68
ag73
ag67
ag76
ag73
ag71
aS'PRP'
p144
ag67
ag69
ag76
ag74
ag67
ag68
ag76
aS'TO'
p145
ag144
ag73
ag71
ag68
ag67
ag72
ag144
aS'MD'
p146
ag145
aS'VB'
p147
ag144
ag80
asg81
VTheir own mother, however, was dead, and they had a step-mother who was not kind to them, and secretly did everything she could to hurt them.
p148
sba(i__main__
Sentence
p149
(dp150
g17
I2
sg18
(lp151
S'It'
p152
aS'so'
p153
aS'happened'
p154
aS'that'
p155
aS'the'
p156
aS'two'
p157
aS'were'
p158
aS'playing'
p159
aS'with'
p160
aS'other'
p161
aS'children'
p162
aS'in'
p163
aS'a'
p164
aS'meadow'
p165
aS'before'
p166
aS'the'
p167
aS'house'
p168
aS','
p169
aS'and'
p170
aS'there'
p171
aS'was'
p172
aS'a'
p173
aS'pond'
p174
aS'in'
p175
aS'the'
p176
aS'meadow'
p177
aS'which'
p178
aS'came'
p179
aS'up'
p180
aS'to'
p181
aS'one'
p182
aS'side'
p183
aS'of'
p184
aS'the'
p185
aS'house'
p186
aS'.'
p187
asg40
(lp188
VIt
p189
aVso
p190
aVhappen
p191
aVthat
p192
aVthe
p193
aVtwo
p194
ag43
aVplay
p195
aVwith
p196
aVother
p197
aVchild
p198
aVin
p199
ag45
aVmeadow
p200
aVbefore
p201
aVthe
p202
aVhouse
p203
ag51
aVand
p204
aVthere
p205
ag122
ag45
aVpond
p206
aVin
p207
aVthe
p208
aVmeadow
p209
aVwhich
p210
aVcome
p211
aVup
p212
aVto
p213
aVone
p214
aVside
p215
aVof
p216
aVthe
p217
aVhouse
p218
ag60
asg61
(lp219
g63
ag63
ag63
ag63
ag63
ag63
ag63
ag63
ag63
ag63
ag63
ag63
ag63
ag63
ag63
ag63
ag63
ag63
ag63
ag63
ag63
ag63
ag63
ag63
ag63
ag63
ag63
ag63
ag63
ag63
ag63
ag63
ag63
ag63
ag63
ag63
asg64
(lp220
g144
ag68
ag67
ag77
ag69
aS'CD'
p221
ag67
aS'VBG'
p222
ag77
ag76
ag79
ag77
ag69
ag72
ag77
ag69
ag72
ag73
ag71
ag66
ag67
ag69
ag72
ag77
ag69
ag72
aS'WDT'
p223
ag67
aS'RP'
p224
ag145
ag221
ag72
ag77
ag69
ag72
ag80
asg81
VIt so happened that the two were playing with other children in a meadow before the house, and there was a pond in the meadow which came up to one side of the house.
p225
sba(i__main__
Sentence
p226
(dp227
g17
I3
sg18
(lp228
S'The'
p229
aS'children'
p230
aS'ran'
p231
aS'about'
p232
aS'it'
p233
aS','
p234
aS'and'
p235
aS'caught'
p236
aS'each'
p237
aS'other'
p238
aS','
p239
aS'and'
p240
aS'played'
p241
aS'at'
p242
aS'counting'
p243
aS'out'
p244
aS'.'
p245
asg40
(lp246
VThe
p247
ag198
aVrun
p248
aVabout
p249
aVit
p250
ag51
aVand
p251
aVcatch
p252
aVeach
p253
aVother
p254
ag51
aVand
p255
aVplay
p256
aVat
p257
aVcounting
p258
aVout
p259
ag60
asg61
(lp260
g63
ag63
ag63
ag63
ag63
ag63
ag63
ag63
ag63
ag63
ag63
ag63
ag63
ag63
ag63
ag63
ag63
asg64
(lp261
g69
ag79
ag67
ag77
ag144
ag73
ag71
ag67
ag69
ag76
ag73
ag71
ag75
ag77
ag72
ag77
ag80
asg81
VThe children ran about it, and caught each other, and played at counting out.
p262
sba(i__main__
Sentence
p263
(dp264
g17
I4
sg18
(lp265
S'Eneke'
p266
aS'beneke'
p267
aS','
p268
aS'let'
p269
aS'me'
p270
aS'live'
p271
aS','
p272
aS'and'
p273
aS'I'
p274
aS'to'
p275
aS'you'
p276
aS'my'
p277
aS'bird'
p278
aS'will'
p279
aS'give'
p280
aS'.'
p281
asg40
(lp282
VEneke
p283
aVbeneke
p284
ag51
aVlet
p285
aVme
p286
aVlive
p287
ag51
aVand
p288
aVI
p289
aVto
p290
aVyou
p291
aVmy
p292
aVbird
p293
aVwill
p294
aVgive
p295
ag60
asg61
(lp296
g63
ag63
ag63
ag63
ag63
ag63
ag63
ag63
ag63
ag63
ag63
ag63
ag63
ag63
ag63
ag63
asg64
(lp297
S'NNP'
p298
aS'VBP'
p299
ag73
ag147
ag144
ag147
ag73
ag71
ag144
ag145
ag144
ag78
ag72
ag146
ag147
ag80
asg81
VEneke beneke, let me live,           and I to you my bird will give.
p300
sba(i__main__
Sentence
p301
(dp302
g17
I5
sg18
(lp303
S'The'
p304
aS'little'
p305
aS'bird'
p306
aS','
p307
aS'it'
p308
aS'straw'
p309
aS'shall'
p310
aS'seek'
p311
aS','
p312
aS'the'
p313
aS'straw'
p314
aS'I'
p315
aS"'ll"
p316
aS'give'
p317
aS'to'
p318
aS'the'
p319
aS'cow'
p320
aS'to'
p321
aS'eat'
p322
aS'.'
p323
asg40
(lp324
VThe
p325
aVlittle
p326
aVbird
p327
ag51
aVit
p328
aVstraw
p329
aVshall
p330
aVseek
p331
ag51
aVthe
p332
aVstraw
p333
ag289
aV'll
p334
aVgive
p335
aVto
p336
aVthe
p337
aVcow
p338
aVto
p339
aVeat
p340
ag60
asg61
(lp341
g63
ag63
ag63
ag63
ag63
ag63
ag63
ag63
ag63
ag63
ag63
ag63
ag63
ag63
ag63
ag63
ag63
ag63
ag63
ag63
asg64
(lp342
g69
ag76
ag72
ag73
ag144
ag67
ag146
ag147
ag73
ag69
ag72
ag144
ag146
ag147
ag145
ag69
ag72
ag145
ag147
ag80
asg81
VThe little bird, it straw shall seek,           the straw I'll give to the cow to eat.
p343
sba(i__main__
Sentence
p344
(dp345
g17
I6
sg18
(lp346
S'The'
p347
aS'pretty'
p348
aS'cow'
p349
aS'shall'
p350
aS'give'
p351
aS'me'
p352
aS'milk'
p353
aS','
p354
aS'the'
p355
aS'milk'
p356
aS'I'
p357
aS"'ll"
p358
aS'to'
p359
aS'the'
p360
aS'baker'
p361
aS'take'
p362
aS'.'
p363
asg40
(lp364
VThe
p365
aVpretty
p366
aVcow
p367
aVshall
p368
aVgive
p369
aVme
p370
aVmilk
p371
ag51
aVthe
p372
aVmilk
p373
ag289
aV'll
p374
aVto
p375
aVthe
p376
aVbaker
p377
aVtake
p378
ag60
asg61
(lp379
g63
ag63
ag63
ag63
ag63
ag63
ag63
ag63
ag63
ag63
ag63
ag63
ag63
ag63
ag63
ag63
ag63
asg64
(lp380
g69
ag72
ag72
ag146
ag147
ag144
ag147
ag73
ag69
ag72
ag144
ag146
ag145
ag69
ag72
ag72
ag80
asg81
VThe pretty cow shall give me milk,           the milk I'll to the baker take.
p381
sba(i__main__
Sentence
p382
(dp383
g17
I7
sg18
(lp384
S'The'
p385
aS'baker'
p386
aS'he'
p387
aS'shall'
p388
aS'bake'
p389
aS'a'
p390
aS'cake'
p391
aS','
p392
aS'the'
p393
aS'cake'
p394
aS'I'
p395
aS"'ll"
p396
aS'give'
p397
aS'unto'
p398
aS'the'
p399
aS'cat'
p400
aS'.'
p401
asg40
(lp402
VThe
p403
aVbaker
p404
aVhe
p405
aVshall
p406
aVbake
p407
ag45
aVcake
p408
ag51
aVthe
p409
aVcake
p410
ag289
aV'll
p411
aVgive
p412
aVunto
p413
aVthe
p414
aVcat
p415
ag60
asg61
(lp416
g63
ag63
ag63
ag63
ag63
ag63
ag63
ag63
ag63
ag63
ag63
ag63
ag63
ag63
ag63
ag63
ag63
asg64
(lp417
g69
ag72
ag144
ag146
ag147
ag69
ag72
ag73
ag69
ag72
ag144
ag146
ag147
ag77
ag69
ag72
ag80
asg81
VThe baker he shall bake a cake,           the cake I'll give unto the cat.
p418
sba(i__main__
Sentence
p419
(dp420
g17
I8
sg18
(lp421
S'The'
p422
aS'cat'
p423
aS'shall'
p424
aS'catch'
p425
aS'some'
p426
aS'mice'
p427
aS'for'
p428
aS'that'
p429
aS','
p430
aS'the'
p431
aS'mice'
p432
aS'I'
p433
aS"'ll"
p434
aS'hang'
p435
aS'up'
p436
aS'in'
p437
aS'the'
p438
aS'smoke'
p439
aS','
p440
aS'and'
p441
aS'then'
p442
aS'you'
p443
aS"'ll"
p444
aS'see'
p445
aS'the'
p446
aS'snow'
p447
aS'.'
p448
asg40
(lp449
VThe
p450
aVcat
p451
aVshall
p452
aVcatch
p453
aVsome
p454
aVmouse
p455
aVfor
p456
aVthat
p457
ag51
aVthe
p458
ag455
ag289
aV'll
p459
aVhang
p460
aVup
p461
aVin
p462
aVthe
p463
aVsmoke
p464
ag51
aVand
p465
aVthen
p466
aVyou
p467
aV'll
p468
aVsee
p469
aVthe
p470
aVsnow
p471
ag60
asg61
(lp472
g63
ag63
ag63
ag63
ag63
ag63
ag63
ag63
ag63
ag63
ag63
ag63
ag63
ag63
ag63
ag63
ag63
ag63
ag63
ag63
ag63
ag63
ag63
ag63
ag63
ag63
ag63
asg64
(lp473
g69
ag72
ag146
ag147
ag69
ag72
ag77
ag69
ag73
ag69
ag72
ag144
ag146
ag147
ag224
ag77
ag69
ag72
ag73
ag71
ag68
ag144
ag146
ag147
ag69
ag72
ag80
asg81
VThe cat shall catch some mice for that,           the mice I'll hang up in the smoke,           and then you'll see the snow.
p474
sba(i__main__
Sentence
p475
(dp476
g17
I9
sg18
(lp477
S'They'
p478
aS'stood'
p479
aS'in'
p480
aS'a'
p481
aS'circle'
p482
aS'while'
p483
aS'they'
p484
aS'played'
p485
aS'this'
p486
aS','
p487
aS'and'
p488
aS'the'
p489
aS'one'
p490
aS'to'
p491
aS'whom'
p492
aS'the'
p493
aS'word'
p494
aS'snow'
p495
aS'fell'
p496
aS','
p497
aS'had'
p498
aS'to'
p499
aS'run'
p500
aS'away'
p501
aS'and'
p502
aS'all'
p503
aS'the'
p504
aS'others'
p505
aS'ran'
p506
aS'after'
p507
aS'him'
p508
aS'and'
p509
aS'caught'
p510
aS'him'
p511
aS'.'
p512
asg40
(lp513
VThey
p514
aVstand
p515
aVin
p516
ag45
aVcircle
p517
aVwhile
p518
aVthey
p519
aVplay
p520
aVthis
p521
ag51
aVand
p522
aVthe
p523
aVone
p524
aVto
p525
aVwhom
p526
aVthe
p527
aVword
p528
aVsnow
p529
aVfell
p530
ag51
ag126
aVto
p531
aVrun
p532
aVaway
p533
aVand
p534
aVall
p535
aVthe
p536
aVothers
p537
ag248
aVafter
p538
aVhim
p539
aVand
p540
ag252
aVhim
p541
ag60
asg61
(lp542
g63
ag63
ag63
ag63
ag63
ag63
ag63
ag63
ag63
ag63
ag63
ag63
ag63
ag63
ag63
ag63
ag63
ag63
ag63
ag63
ag63
ag63
ag63
ag63
ag63
ag63
ag63
ag63
ag63
ag63
ag63
ag63
ag63
ag63
ag63
asg64
(lp543
g144
ag67
ag77
ag69
ag72
ag77
ag144
ag67
ag69
ag73
ag71
ag69
ag221
ag145
ag147
ag69
ag72
ag72
ag67
ag73
ag67
ag145
ag75
ag68
ag71
ag69
ag69
ag79
ag67
ag77
ag144
ag71
ag67
ag144
ag80
asg81
VThey stood in a circle while they played this, and the one to whom the word snow fell, had to run away and all the others ran after him and caught him.
p544
sba(i__main__
Sentence
p545
(dp546
g17
I10
sg18
(lp547
S'As'
p548
aS'they'
p549
aS'were'
p550
aS'running'
p551
aS'about'
p552
aS'so'
p553
aS'merrily'
p554
aS'the'
p555
aS'step-mother'
p556
aS'watched'
p557
aS'them'
p558
aS'from'
p559
aS'the'
p560
aS'window'
p561
aS','
p562
aS'and'
p563
aS'grew'
p564
aS'angry'
p565
aS'.'
p566
asg40
(lp567
VAs
p568
aVthey
p569
ag43
aVrun
p570
aVabout
p571
aVso
p572
aVmerrily
p573
aVthe
p574
aVstep-mother
p575
aVwatched
p576
aVthem
p577
aVfrom
p578
aVthe
p579
aVwindow
p580
ag51
aVand
p581
aVgrow
p582
aVangry
p583
ag60
asg61
(lp584
g63
ag63
ag63
ag63
ag63
ag63
ag63
ag63
ag63
ag63
ag63
ag63
ag63
ag63
ag63
ag63
ag63
ag63
ag63
asg64
(lp585
g77
ag144
ag67
ag222
ag77
ag68
ag68
ag69
ag76
ag76
ag144
ag77
ag69
ag72
ag73
ag71
ag67
ag76
ag80
asg81
VAs they were running about so merrily the step-mother watched them from the window, and grew angry.
p586
sba(i__main__
Sentence
p587
(dp588
g17
I11
sg18
(lp589
S'And'
p590
aS'as'
p591
aS'she'
p592
aS'understood'
p593
aS'arts'
p594
aS'of'
p595
aS'witchcraft'
p596
aS'she'
p597
aS'bewitched'
p598
aS'them'
p599
aS'both'
p600
aS','
p601
aS'and'
p602
aS'changed'
p603
aS'the'
p604
aS'little'
p605
aS'brother'
p606
aS'into'
p607
aS'a'
p608
aS'fish'
p609
aS','
p610
aS'and'
p611
aS'the'
p612
aS'little'
p613
aS'sister'
p614
aS'into'
p615
aS'a'
p616
aS'lamb'
p617
aS'.'
p618
asg40
(lp619
VAnd
p620
ag45
aVshe
p621
aVunderstand
p622
aVart
p623
aVof
p624
aVwitchcraft
p625
aVshe
p626
aVbewitch
p627
aVthem
p628
aVboth
p629
ag51
aVand
p630
aVchange
p631
aVthe
p632
aVlittle
p633
aVbrother
p634
aVinto
p635
ag45
aVfish
p636
ag51
aVand
p637
aVthe
p638
aVlittle
p639
aVsister
p640
aVinto
p641
ag45
aVlamb
p642
ag60
asg61
(lp643
g63
ag63
ag63
ag63
ag63
ag63
ag63
ag63
ag63
ag63
ag63
ag63
ag63
ag63
ag63
ag63
ag63
ag63
ag63
ag63
ag63
ag63
ag63
ag63
ag63
ag63
ag63
ag63
ag63
asg64
(lp644
g71
ag77
ag144
ag67
ag79
ag77
ag72
ag144
ag67
ag144
ag69
ag73
ag71
ag67
ag69
ag76
ag72
ag77
ag69
ag76
ag73
ag71
ag69
ag76
ag72
ag77
ag69
ag72
ag80
asg81
VAnd as she understood arts of witchcraft she bewitched them both, and changed the little brother into a fish, and the little sister into a lamb.
p645
sba(i__main__
Sentence
p646
(dp647
g17
I12
sg18
(lp648
S'Then'
p649
aS'the'
p650
aS'fish'
p651
aS'swam'
p652
aS'here'
p653
aS'and'
p654
aS'there'
p655
aS'about'
p656
aS'the'
p657
aS'pond'
p658
aS'and'
p659
aS'was'
p660
aS'very'
p661
aS'sad'
p662
aS','
p663
aS'and'
p664
aS'the'
p665
aS'lambkin'
p666
aS'walked'
p667
aS'up'
p668
aS'and'
p669
aS'down'
p670
aS'the'
p671
aS'meadow'
p672
aS','
p673
aS'and'
p674
aS'was'
p675
aS'miserable'
p676
aS','
p677
aS'and'
p678
aS'could'
p679
aS'not'
p680
aS'eat'
p681
aS'or'
p682
aS'touch'
p683
aS'one'
p684
aS'blade'
p685
aS'of'
p686
aS'grass'
p687
aS'.'
p688
asg40
(lp689
VThen
p690
aVthe
p691
aVfish
p692
aVswam
p693
aVhere
p694
aVand
p695
aVthere
p696
aVabout
p697
aVthe
p698
aVpond
p699
aVand
p700
ag122
aVvery
p701
aVsad
p702
ag51
aVand
p703
aVthe
p704
aVlambkin
p705
aVwalk
p706
aVup
p707
aVand
p708
aVdown
p709
aVthe
p710
aVmeadow
p711
ag51
aVand
p712
ag122
aVmiserable
p713
ag51
aVand
p714
aVcould
p715
aVnot
p716
aVeat
p717
aVor
p718
aVtouch
p719
aVone
p720
aVblade
p721
aVof
p722
aVgrass
p723
ag60
asg61
(lp724
g63
ag63
ag63
ag63
ag63
ag63
ag63
ag63
ag63
ag63
ag63
ag63
ag63
ag63
ag63
ag63
ag63
ag63
ag63
ag63
ag63
ag63
ag63
ag63
ag63
ag63
ag63
ag63
ag63
ag63
ag63
ag63
ag63
ag63
ag63
ag63
ag63
ag63
ag63
ag63
asg64
(lp725
g68
ag69
ag72
ag72
ag68
ag71
ag66
ag77
ag69
ag72
ag71
ag67
ag68
ag76
ag73
ag71
ag69
ag72
ag67
ag224
ag71
ag77
ag69
ag72
ag73
ag71
ag67
ag76
ag73
ag71
ag146
ag68
ag147
ag71
ag76
ag221
ag72
ag77
ag72
ag80
asg81
VThen the fish swam here and there about the pond and was very sad, and the lambkin walked up and down the meadow, and was miserable, and could not eat or touch one blade of grass.
p726
sba(i__main__
Sentence
p727
(dp728
g17
I13
sg18
(lp729
S'Thus'
p730
aS'passed'
p731
aS'a'
p732
aS'long'
p733
aS'time'
p734
aS','
p735
aS'and'
p736
aS'then'
p737
aS'strangers'
p738
aS'came'
p739
aS'as'
p740
aS'visitors'
p741
aS'to'
p742
aS'the'
p743
aS'castle'
p744
aS'.'
p745
asg40
(lp746
VThus
p747
aVpass
p748
ag45
aVlong
p749
aVtime
p750
ag51
aVand
p751
aVthen
p752
aVstranger
p753
ag211
ag45
aVvisitor
p754
aVto
p755
aVthe
p756
aVcastle
p757
ag60
asg61
(lp758
g63
ag63
ag63
ag63
ag63
ag63
ag63
ag63
ag63
ag63
ag63
ag63
ag63
ag63
ag63
ag63
asg64
(lp759
g68
ag67
ag69
ag76
ag72
ag73
ag71
ag68
ag79
ag67
ag77
ag79
ag145
ag69
ag72
ag80
asg81
VThus passed a long time, and then strangers came as visitors to the castle.
p760
sba(i__main__
Sentence
p761
(dp762
g17
I14
sg18
(lp763
S'The'
p764
aS'false'
p765
aS'step-mother'
p766
aS'thought'
p767
aS','
p768
aS'this'
p769
aS'is'
p770
aS'a'
p771
aS'good'
p772
aS'opportunity'
p773
aS','
p774
aS'and'
p775
aS'called'
p776
aS'the'
p777
aS'cook'
p778
aS'and'
p779
aS'said'
p780
aS'to'
p781
aS'him'
p782
aS','
p783
aS'go'
p784
aS'and'
p785
aS'fetch'
p786
aS'the'
p787
aS'lamb'
p788
aS'from'
p789
aS'the'
p790
aS'meadow'
p791
aS'and'
p792
aS'kill'
p793
aS'it'
p794
aS','
p795
aS'we'
p796
aS'have'
p797
aS'nothing'
p798
aS'else'
p799
aS'for'
p800
aS'the'
p801
aS'visitors'
p802
aS'.'
p803
asg40
(lp804
VThe
p805
aVfalse
p806
aVstep-mother
p807
aVthink
p808
ag51
aVthis
p809
aVbe
p810
ag45
aVgood
p811
aVopportunity
p812
ag51
aVand
p813
aVcall
p814
aVthe
p815
aVcook
p816
aVand
p817
aVsay
p818
aVto
p819
aVhim
p820
ag51
aVgo
p821
aVand
p822
aVfetch
p823
aVthe
p824
aVlamb
p825
aVfrom
p826
aVthe
p827
aVmeadow
p828
aVand
p829
aVkill
p830
aVit
p831
ag51
aVwe
p832
aVhave
p833
aVnothing
p834
aVelse
p835
aVfor
p836
aVthe
p837
aVvisitor
p838
ag60
asg61
(lp839
g63
ag63
ag63
ag63
ag63
ag63
ag63
ag63
ag63
ag63
ag63
ag63
ag63
ag63
ag63
ag63
ag63
ag63
ag63
ag63
ag63
ag63
ag63
ag63
ag63
ag63
ag63
ag63
ag63
ag63
ag63
ag63
ag63
ag63
ag63
ag63
ag63
ag63
ag63
ag63
asg64
(lp840
g69
ag72
ag72
ag67
ag73
ag69
aS'VBZ'
p841
ag69
ag76
ag72
ag73
ag71
ag75
ag69
ag72
ag71
ag67
ag145
ag144
ag73
ag299
ag71
ag72
ag69
ag72
ag77
ag69
ag72
ag71
ag72
ag144
ag73
ag144
ag299
ag72
ag68
ag77
ag69
ag79
ag80
asg81
VThe false step-mother thought, this is a good opportunity, and called the cook and said to him, go and fetch the lamb from the meadow and kill it, we have nothing else for the visitors.
p842
sba(i__main__
Sentence
p843
(dp844
g17
I15
sg18
(lp845
S'Then'
p846
aS'the'
p847
aS'cook'
p848
aS'went'
p849
aS'away'
p850
aS'and'
p851
aS'got'
p852
aS'the'
p853
aS'lamb'
p854
aS','
p855
aS'and'
p856
aS'took'
p857
aS'it'
p858
aS'into'
p859
aS'the'
p860
aS'kitchen'
p861
aS'and'
p862
aS'tied'
p863
aS'its'
p864
aS'feet'
p865
aS','
p866
aS'and'
p867
aS'all'
p868
aS'this'
p869
aS'it'
p870
aS'bore'
p871
aS'patiently'
p872
aS'.'
p873
asg40
(lp874
VThen
p875
aVthe
p876
aVcook
p877
aVgo
p878
aVaway
p879
aVand
p880
aVget
p881
aVthe
p882
aVlamb
p883
ag51
aVand
p884
aVtake
p885
aVit
p886
aVinto
p887
aVthe
p888
aVkitchen
p889
aVand
p890
aVtie
p891
aVit
p892
aVfoot
p893
ag51
aVand
p894
aVall
p895
aVthis
p896
aVit
p897
aVbore
p898
aVpatiently
p899
ag60
asg61
(lp900
g63
ag63
ag63
ag63
ag63
ag63
ag63
ag63
ag63
ag63
ag63
ag63
ag63
ag63
ag63
ag63
ag63
ag63
ag63
ag63
ag63
ag63
ag63
ag63
ag63
ag63
ag63
ag63
asg64
(lp901
g68
ag69
ag72
ag67
ag68
ag71
ag67
ag69
ag72
ag73
ag71
ag67
ag144
ag77
ag69
ag76
ag71
ag75
ag78
ag72
ag73
ag71
ag69
ag69
ag144
ag299
ag68
ag80
asg81
VThen the cook went away and got the lamb, and took it into the kitchen and tied its feet, and all this it bore patiently.
p902
sba(i__main__
Sentence
p903
(dp904
g17
I16
sg18
(lp905
S'When'
p906
aS'he'
p907
aS'had'
p908
aS'drawn'
p909
aS'out'
p910
aS'his'
p911
aS'knife'
p912
aS'and'
p913
aS'was'
p914
aS'whetting'
p915
aS'it'
p916
aS'on'
p917
aS'the'
p918
aS'door-step'
p919
aS'to'
p920
aS'kill'
p921
aS'the'
p922
aS'lamb'
p923
aS','
p924
aS'he'
p925
aS'noticed'
p926
aS'a'
p927
aS'little'
p928
aS'fish'
p929
aS'swimming'
p930
aS'backwards'
p931
aS'and'
p932
aS'forwards'
p933
aS'in'
p934
aS'the'
p935
aS'water'
p936
aS','
p937
aS'in'
p938
aS'front'
p939
aS'of'
p940
aS'the'
p941
aS'gutter-stone'
p942
aS'and'
p943
aS'looking'
p944
aS'up'
p945
aS'at'
p946
aS'him'
p947
aS'.'
p948
asg40
(lp949
VWhen
p950
aVhe
p951
ag126
aVdraw
p952
aVout
p953
aVhis
p954
aVknife
p955
aVand
p956
ag122
aVwhet
p957
aVit
p958
aVon
p959
aVthe
p960
aVdoor-step
p961
aVto
p962
aVkill
p963
aVthe
p964
aVlamb
p965
ag51
aVhe
p966
aVnotice
p967
ag45
aVlittle
p968
aVfish
p969
aVswimming
p970
aVbackwards
p971
aVand
p972
aVforward
p973
aVin
p974
aVthe
p975
aVwater
p976
ag51
aVin
p977
aVfront
p978
aVof
p979
aVthe
p980
aVgutter-stone
p981
aVand
p982
aVlook
p983
aVup
p984
aVat
p985
aVhim
p986
ag60
asg61
(lp987
g63
ag63
ag63
ag63
ag63
ag63
ag63
ag63
ag63
ag63
ag63
ag63
ag63
ag63
ag63
ag63
ag63
ag63
ag63
ag63
ag63
ag63
ag63
ag63
ag63
ag63
ag63
ag63
ag63
ag63
ag63
ag63
ag63
ag63
ag63
ag63
ag63
ag63
ag63
ag63
ag63
ag63
ag63
asg64
(lp988
S'WRB'
p989
ag144
ag67
ag75
ag224
ag78
ag72
ag71
ag67
ag222
ag144
ag77
ag69
ag76
ag145
ag147
ag69
ag72
ag73
ag144
ag67
ag69
ag68
ag76
ag72
ag79
ag71
ag79
ag77
ag69
ag72
ag73
ag77
ag72
ag77
ag69
ag72
ag71
ag222
ag224
ag77
ag144
ag80
asg81
VWhen he had drawn out his knife and was whetting it on the door-step to kill the lamb, he noticed a little fish swimming backwards and forwards in the water, in front of the gutter-stone and looking up at him.
p990
sba(i__main__
Sentence
p991
(dp992
g17
I17
sg18
(lp993
S'This'
p994
aS','
p995
aS'however'
p996
aS','
p997
aS'was'
p998
aS'the'
p999
aS'brother'
p1000
aS','
p1001
aS'for'
p1002
aS'when'
p1003
aS'the'
p1004
aS'fish'
p1005
aS'saw'
p1006
aS'the'
p1007
aS'cook'
p1008
aS'take'
p1009
aS'the'
p1010
aS'lamb'
p1011
aS'away'
p1012
aS','
p1013
aS'it'
p1014
aS'followed'
p1015
aS'them'
p1016
aS'and'
p1017
aS'swam'
p1018
aS'along'
p1019
aS'the'
p1020
aS'pond'
p1021
aS'to'
p1022
aS'the'
p1023
aS'house'
p1024
aS','
p1025
aS'then'
p1026
aS'the'
p1027
aS'lamb'
p1028
aS'cried'
p1029
aS'down'
p1030
aS'to'
p1031
aS'it'
p1032
aS','
p1033
aS'ah'
p1034
aS','
p1035
aS'brother'
p1036
aS','
p1037
aS'in'
p1038
aS'the'
p1039
aS'pond'
p1040
aS'so'
p1041
aS'deep'
p1042
aS','
p1043
aS'how'
p1044
aS'sad'
p1045
aS'is'
p1046
aS'my'
p1047
aS'poor'
p1048
aS'heart'
p1049
aS'.'
p1050
asg40
(lp1051
VThis
p1052
ag51
aVhowever
p1053
ag51
ag122
aVthe
p1054
aVbrother
p1055
ag51
aVfor
p1056
aVwhen
p1057
aVthe
p1058
aVfish
p1059
aVsaw
p1060
aVthe
p1061
aVcook
p1062
aVtake
p1063
aVthe
p1064
aVlamb
p1065
aVaway
p1066
ag51
aVit
p1067
aVfollow
p1068
aVthem
p1069
aVand
p1070
aVswam
p1071
aValong
p1072
aVthe
p1073
aVpond
p1074
aVto
p1075
aVthe
p1076
aVhouse
p1077
ag51
aVthen
p1078
aVthe
p1079
aVlamb
p1080
aVcry
p1081
aVdown
p1082
aVto
p1083
aVit
p1084
ag51
aVah
p1085
ag51
aVbrother
p1086
ag51
aVin
p1087
aVthe
p1088
aVpond
p1089
aVso
p1090
aVdeep
p1091
ag51
aVhow
p1092
aVsad
p1093
ag810
aVmy
p1094
aVpoor
p1095
aVheart
p1096
ag60
asg61
(lp1097
g63
ag63
ag63
ag63
ag63
ag63
ag63
ag63
ag63
ag63
ag63
ag63
ag63
ag63
ag63
ag63
ag63
ag63
ag63
ag63
ag63
ag63
ag63
ag63
ag63
ag63
ag63
ag63
ag63
ag63
ag63
ag63
ag63
ag63
ag63
ag63
ag63
ag63
ag63
ag63
ag63
ag63
ag63
ag63
ag63
ag63
ag63
ag63
ag63
ag63
ag63
ag63
ag63
ag63
ag63
ag63
ag63
asg64
(lp1098
g69
ag73
ag68
ag73
ag67
ag69
ag72
ag73
ag77
ag989
ag69
ag76
ag72
ag69
ag72
ag72
ag69
ag72
ag68
ag73
ag144
ag67
ag144
ag71
ag72
ag77
ag69
ag72
ag145
ag69
ag72
ag73
ag68
ag69
ag72
ag67
ag77
ag145
ag144
ag73
ag299
ag73
ag68
ag73
ag77
ag69
ag72
ag68
ag147
ag73
ag989
ag76
ag841
ag78
ag72
ag72
ag80
asg81
VThis, however, was the brother, for when the fish saw the cook take the lamb away, it followed them and swam along the pond to the house, then the lamb cried down to it,           ah, brother, in the pond so deep,           how sad is my poor heart.
p1099
sba(i__main__
Sentence
p1100
(dp1101
g17
I18
sg18
(lp1102
S'The'
p1103
aS'cook'
p1104
aS'he'
p1105
aS'whets'
p1106
aS'his'
p1107
aS'knife'
p1108
aS'to'
p1109
aS'take'
p1110
aS'away'
p1111
aS'my'
p1112
aS'life'
p1113
aS'.'
p1114
asg40
(lp1115
VThe
p1116
aVcook
p1117
aVhe
p1118
aVwhet
p1119
aVhis
p1120
aVknife
p1121
aVto
p1122
aVtake
p1123
aVaway
p1124
aVmy
p1125
aVlife
p1126
ag60
asg61
(lp1127
g63
ag63
ag63
ag63
ag63
ag63
ag63
ag63
ag63
ag63
ag63
ag63
asg64
(lp1128
g69
ag72
ag144
ag841
ag78
ag72
ag145
ag147
ag224
ag78
ag72
ag80
asg81
VThe cook he whets his knife           to take away my life.
p1129
sba(i__main__
Sentence
p1130
(dp1131
g17
I19
sg18
(lp1132
S'The'
p1133
aS'little'
p1134
aS'fish'
p1135
aS'answered'
p1136
aS','
p1137
aS'ah'
p1138
aS','
p1139
aS'little'
p1140
aS'sister'
p1141
aS','
p1142
aS'up'
p1143
aS'on'
p1144
aS'high'
p1145
aS'how'
p1146
aS'sad'
p1147
aS'is'
p1148
aS'my'
p1149
aS'poor'
p1150
aS'heart'
p1151
aS'while'
p1152
aS'in'
p1153
aS'this'
p1154
aS'pond'
p1155
aS'I'
p1156
aS'lie'
p1157
aS'.'
p1158
asg40
(lp1159
VThe
p1160
aVlittle
p1161
aVfish
p1162
aVanswer
p1163
ag51
aVah
p1164
ag51
aVlittle
p1165
aVsister
p1166
ag51
aVup
p1167
aVon
p1168
aVhigh
p1169
aVhow
p1170
aVsad
p1171
ag810
aVmy
p1172
aVpoor
p1173
aVheart
p1174
aVwhile
p1175
aVin
p1176
aVthis
p1177
aVpond
p1178
ag289
aVlie
p1179
ag60
asg61
(lp1180
g63
ag63
ag63
ag63
ag63
ag63
ag63
ag63
ag63
ag63
ag63
ag63
ag63
ag63
ag63
ag63
ag63
ag63
ag63
ag63
ag63
ag63
ag63
ag63
ag63
ag63
asg64
(lp1181
g69
ag76
ag72
ag67
ag73
ag72
ag73
ag76
ag72
ag73
ag68
ag77
ag76
ag989
ag76
ag841
ag78
ag72
ag72
ag77
ag77
ag69
ag72
ag144
ag299
ag80
asg81
VThe little fish answered,           ah, little sister, up on high           how sad is my poor heart           while in this pond I lie.
p1182
sba(i__main__
Sentence
p1183
(dp1184
g17
I20
sg18
(lp1185
S'When'
p1186
aS'the'
p1187
aS'cook'
p1188
aS'heard'
p1189
aS'that'
p1190
aS'the'
p1191
aS'lambkin'
p1192
aS'could'
p1193
aS'speak'
p1194
aS'and'
p1195
aS'said'
p1196
aS'such'
p1197
aS'sad'
p1198
aS'words'
p1199
aS'to'
p1200
aS'the'
p1201
aS'fish'
p1202
aS'down'
p1203
aS'below'
p1204
aS','
p1205
aS'he'
p1206
aS'was'
p1207
aS'terrified'
p1208
aS'and'
p1209
aS'thought'
p1210
aS'this'
p1211
aS'could'
p1212
aS'be'
p1213
aS'no'
p1214
aS'common'
p1215
aS'lamb'
p1216
aS','
p1217
aS'but'
p1218
aS'must'
p1219
aS'be'
p1220
aS'bewitched'
p1221
aS'by'
p1222
aS'the'
p1223
aS'wicked'
p1224
aS'woman'
p1225
aS'in'
p1226
aS'the'
p1227
aS'house'
p1228
aS'.'
p1229
asg40
(lp1230
VWhen
p1231
aVthe
p1232
aVcook
p1233
aVheard
p1234
aVthat
p1235
aVthe
p1236
aVlambkin
p1237
aVcould
p1238
aVspeak
p1239
aVand
p1240
ag818
aVsuch
p1241
aVsad
p1242
aVword
p1243
aVto
p1244
aVthe
p1245
aVfish
p1246
aVdown
p1247
aVbelow
p1248
ag51
aVhe
p1249
ag122
aVterrify
p1250
aVand
p1251
ag808
aVthis
p1252
aVcould
p1253
aVbe
p1254
aVno
p1255
aVcommon
p1256
aVlamb
p1257
ag51
aVbut
p1258
aVmust
p1259
aVbe
p1260
aVbewitch
p1261
aVby
p1262
aVthe
p1263
aVwicked
p1264
aVwoman
p1265
aVin
p1266
aVthe
p1267
aVhouse
p1268
ag60
asg61
(lp1269
g63
ag63
ag63
ag63
ag63
ag63
ag63
ag63
ag63
ag63
ag63
ag63
ag63
ag63
ag63
ag63
ag63
ag63
ag63
ag63
ag63
ag63
ag63
ag63
ag63
ag63
ag63
ag63
ag63
ag63
ag63
ag63
ag63
ag63
ag63
ag63
ag63
ag63
ag63
ag63
ag63
ag63
ag63
ag63
asg64
(lp1270
g989
ag69
ag72
ag72
ag223
ag69
ag72
ag146
ag147
ag71
ag67
ag76
ag76
ag79
ag145
ag69
ag76
ag77
ag77
ag73
ag144
ag67
ag75
ag71
ag67
ag69
ag146
ag147
ag68
ag76
ag72
ag73
ag71
ag146
ag147
ag75
ag77
ag69
ag75
ag72
ag77
ag69
ag72
ag80
asg81
VWhen the cook heard that the lambkin could speak and said such sad words to the fish down below, he was terrified and thought this could be no common lamb, but must be bewitched by the wicked woman in the house.
p1271
sba(i__main__
Sentence
p1272
(dp1273
g17
I21
sg18
(lp1274
S'Then'
p1275
aS'said'
p1276
aS'he'
p1277
aS','
p1278
aS'be'
p1279
aS'easy'
p1280
aS','
p1281
aS'I'
p1282
aS'will'
p1283
aS'not'
p1284
aS'kill'
p1285
aS'you'
p1286
aS','
p1287
aS'and'
p1288
aS'took'
p1289
aS'another'
p1290
aS'sheep'
p1291
aS'and'
p1292
aS'made'
p1293
aS'it'
p1294
aS'ready'
p1295
aS'for'
p1296
aS'the'
p1297
aS'guests'
p1298
aS','
p1299
aS'and'
p1300
aS'conveyed'
p1301
aS'the'
p1302
aS'lambkin'
p1303
aS'to'
p1304
aS'a'
p1305
aS'good'
p1306
aS'peasant'
p1307
aS'woman'
p1308
aS','
p1309
aS'to'
p1310
aS'whom'
p1311
aS'he'
p1312
aS'related'
p1313
aS'all'
p1314
aS'that'
p1315
aS'he'
p1316
aS'had'
p1317
aS'seen'
p1318
aS'and'
p1319
aS'heard'
p1320
aS'.'
p1321
asg40
(lp1322
VThen
p1323
ag818
aVhe
p1324
ag51
aVbe
p1325
aVeasy
p1326
ag51
ag289
aVwill
p1327
aVnot
p1328
aVkill
p1329
aVyou
p1330
ag51
aVand
p1331
ag885
aVanother
p1332
aVsheep
p1333
aVand
p1334
aVmake
p1335
aVit
p1336
aVready
p1337
aVfor
p1338
aVthe
p1339
aVguest
p1340
ag51
aVand
p1341
aVconvey
p1342
aVthe
p1343
aVlambkin
p1344
aVto
p1345
ag45
aVgood
p1346
aVpeasant
p1347
aVwoman
p1348
ag51
aVto
p1349
aVwhom
p1350
aVhe
p1351
aVrelate
p1352
aVall
p1353
aVthat
p1354
aVhe
p1355
ag126
aVsee
p1356
aVand
p1357
aVheard
p1358
ag60
asg61
(lp1359
g63
ag63
ag63
ag63
ag63
ag63
ag63
ag63
ag63
ag63
ag63
ag63
ag63
ag63
ag63
ag63
ag63
ag63
ag63
ag63
ag63
ag63
ag63
ag63
ag63
ag63
ag63
ag63
ag63
ag63
ag63
ag63
ag63
ag63
ag63
ag63
ag63
ag63
ag63
ag63
ag63
ag63
ag63
ag63
ag63
ag63
ag63
asg64
(lp1360
g68
ag67
ag144
ag73
ag147
ag76
ag73
ag144
ag146
ag68
ag147
ag144
ag73
ag71
ag67
ag69
ag72
ag71
ag67
ag144
ag68
ag77
ag69
ag79
ag73
ag71
ag67
ag69
ag72
ag145
ag69
ag76
ag72
ag72
ag73
ag145
ag147
ag144
ag67
aS'PDT'
p1361
ag69
ag144
ag67
ag75
ag71
ag72
ag80
asg81
VThen said he, be easy, I will not kill you, and took another sheep and made it ready for the guests, and conveyed the lambkin to a good peasant woman, to whom he related all that he had seen and heard.
p1362
sba(i__main__
Sentence
p1363
(dp1364
g17
I22
sg18
(lp1365
S'The'
p1366
aS'peasant'
p1367
aS','
p1368
aS'however'
p1369
aS','
p1370
aS'was'
p1371
aS'the'
p1372
aS'very'
p1373
aS'woman'
p1374
aS'who'
p1375
aS'had'
p1376
aS'been'
p1377
aS'foster-mother'
p1378
aS'to'
p1379
aS'the'
p1380
aS'little'
p1381
aS'sister'
p1382
aS','
p1383
aS'and'
p1384
aS'she'
p1385
aS'suspected'
p1386
aS'at'
p1387
aS'once'
p1388
aS'who'
p1389
aS'the'
p1390
aS'lamb'
p1391
aS'was'
p1392
aS','
p1393
aS'and'
p1394
aS'went'
p1395
aS'with'
p1396
aS'it'
p1397
aS'to'
p1398
aS'a'
p1399
aS'wise'
p1400
aS'woman'
p1401
aS'.'
p1402
asg40
(lp1403
VThe
p1404
aVpeasant
p1405
ag51
aVhowever
p1406
ag51
ag122
aVthe
p1407
aVvery
p1408
aVwoman
p1409
aVwho
p1410
ag126
aVbe
p1411
aVfoster-mother
p1412
aVto
p1413
aVthe
p1414
aVlittle
p1415
aVsister
p1416
ag51
aVand
p1417
aVshe
p1418
aVsuspect
p1419
aVat
p1420
aVonce
p1421
aVwho
p1422
aVthe
p1423
aVlamb
p1424
ag122
ag51
aVand
p1425
ag878
aVwith
p1426
aVit
p1427
aVto
p1428
ag45
aVwise
p1429
aVwoman
p1430
ag60
asg61
(lp1431
g63
ag63
ag63
ag63
ag63
ag63
ag63
ag63
ag63
ag63
ag63
ag63
ag63
ag63
ag63
ag63
ag63
ag63
ag63
ag63
ag63
ag63
ag63
ag63
ag63
ag63
ag63
ag63
ag63
ag63
ag63
ag63
ag63
ag63
ag63
ag63
ag63
asg64
(lp1432
g69
ag72
ag73
ag68
ag73
ag67
ag69
ag76
ag72
ag74
ag67
ag75
ag76
ag145
ag69
ag76
ag72
ag73
ag71
ag144
ag67
ag77
ag68
ag74
ag69
ag72
ag67
ag73
ag71
ag67
ag77
ag144
ag145
ag69
ag72
ag72
ag80
asg81
VThe peasant, however, was the very woman who had been foster-mother to the little sister, and she suspected at once who the lamb was, and went with it to a wise woman.
p1433
sba(i__main__
Sentence
p1434
(dp1435
g17
I23
sg18
(lp1436
S'Then'
p1437
aS'the'
p1438
aS'wise'
p1439
aS'woman'
p1440
aS'pronounced'
p1441
aS'a'
p1442
aS'blessing'
p1443
aS'over'
p1444
aS'the'
p1445
aS'lambkin'
p1446
aS'and'
p1447
aS'the'
p1448
aS'little'
p1449
aS'fish'
p1450
aS','
p1451
aS'by'
p1452
aS'means'
p1453
aS'of'
p1454
aS'which'
p1455
aS'they'
p1456
aS'regained'
p1457
aS'their'
p1458
aS'human'
p1459
aS'forms'
p1460
aS','
p1461
aS'and'
p1462
aS'after'
p1463
aS'this'
p1464
aS'she'
p1465
aS'took'
p1466
aS'them'
p1467
aS'both'
p1468
aS'into'
p1469
aS'a'
p1470
aS'little'
p1471
aS'hut'
p1472
aS'in'
p1473
aS'a'
p1474
aS'great'
p1475
aS'forest'
p1476
aS','
p1477
aS'where'
p1478
aS'they'
p1479
aS'lived'
p1480
aS'alone'
p1481
aS','
p1482
aS'but'
p1483
aS'were'
p1484
aS'contented'
p1485
aS'and'
p1486
aS'happy'
p1487
aS'.'
p1488
asg40
(lp1489
VThen
p1490
aVthe
p1491
aVwise
p1492
aVwoman
p1493
aVpronounce
p1494
ag45
aVblessing
p1495
aVover
p1496
aVthe
p1497
aVlambkin
p1498
aVand
p1499
aVthe
p1500
aVlittle
p1501
aVfish
p1502
ag51
aVby
p1503
aVmean
p1504
aVof
p1505
aVwhich
p1506
aVthey
p1507
aVregain
p1508
aVtheir
p1509
aVhuman
p1510
aVform
p1511
ag51
aVand
p1512
aVafter
p1513
aVthis
p1514
aVshe
p1515
ag885
aVthem
p1516
aVboth
p1517
aVinto
p1518
ag45
aVlittle
p1519
aVhut
p1520
aVin
p1521
ag45
aVgreat
p1522
aVforest
p1523
ag51
aVwhere
p1524
aVthey
p1525
aVlive
p1526
aValone
p1527
ag51
aVbut
p1528
ag43
aVcontent
p1529
aVand
p1530
aVhappy
p1531
ag60
asg61
(lp1532
g63
ag63
ag63
ag63
ag63
ag63
ag63
ag63
ag63
ag63
ag63
ag63
ag63
ag63
ag63
ag63
ag63
ag63
ag63
ag63
ag63
ag63
ag63
ag63
ag63
ag63
ag63
ag63
ag63
ag63
ag63
ag63
ag63
ag63
ag63
ag63
ag63
ag63
ag63
ag63
ag63
ag63
ag63
ag63
ag63
ag63
ag63
ag63
ag63
ag63
ag63
ag63
asg64
(lp1533
g68
ag69
ag72
ag72
ag67
ag69
ag72
ag77
ag69
ag72
ag71
ag69
ag76
ag72
ag73
ag77
ag79
ag77
ag223
ag144
ag67
ag78
ag72
ag79
ag73
ag71
ag77
ag69
ag144
ag67
ag144
ag69
ag77
ag69
ag76
ag72
ag77
ag69
ag76
ag72
ag73
ag989
ag144
ag67
ag68
ag73
ag71
ag67
ag75
ag71
ag76
ag80
asg81
VThen the wise woman pronounced a blessing over the lambkin and the little fish, by means of which they regained their human forms, and after this she took them both into a little hut in a great forest, where they lived alone, but were contented and happy. 
p1534
sbasbsS'summary'
p1535
g0
(g7
g2
Ntp1536
Rp1537
(dp1538
g11
S"A stepmother dislikes her stepdaughter and stepson and has then turned into a lamb and fish. She calls for the cook to butcher and cook the lamb. The cook hears the lamb and fish talking to each other. The cook has another lamb butchered and takes the girl-lamb to be cared for by a woman. This woman turns out to be the boy and girl's foster mother. She blesses the fish and lamb and they regain their human forms. "
p1539
sg13
(lp1540
(i__main__
Sentence
p1541
(dp1542
g17
I0
sg18
(lp1543
S'A'
p1544
aS'stepmother'
p1545
aS'dislikes'
p1546
aS'her'
p1547
aS'stepdaughter'
p1548
aS'and'
p1549
aS'stepson'
p1550
aS'and'
p1551
aS'has'
p1552
aS'then'
p1553
aS'turned'
p1554
aS'into'
p1555
aS'a'
p1556
aS'lamb'
p1557
aS'and'
p1558
aS'fish'
p1559
aS'.'
p1560
asg40
(lp1561
VA
p1562
aVstepmother
p1563
aVdislike
p1564
aVher
p1565
aVstepdaughter
p1566
aVand
p1567
aVstepson
p1568
aVand
p1569
aVhave
p1570
aVthen
p1571
aVturn
p1572
aVinto
p1573
ag45
aVlamb
p1574
aVand
p1575
aVfish
p1576
ag60
asg61
(lp1577
g63
ag63
ag63
ag63
ag63
ag63
ag63
ag63
ag63
ag63
ag63
ag63
ag63
ag63
ag63
ag63
ag63
asg64
(lp1578
g69
ag72
ag841
ag78
ag72
ag71
ag72
ag71
ag841
ag68
ag75
ag77
ag69
ag72
ag71
ag76
ag80
asg81
VA stepmother dislikes her stepdaughter and stepson and has then turned into a lamb and fish.
p1579
sba(i__main__
Sentence
p1580
(dp1581
g17
I1
sg18
(lp1582
S'She'
p1583
aS'calls'
p1584
aS'for'
p1585
aS'the'
p1586
aS'cook'
p1587
aS'to'
p1588
aS'butcher'
p1589
aS'and'
p1590
aS'cook'
p1591
aS'the'
p1592
aS'lamb'
p1593
aS'.'
p1594
asg40
(lp1595
VShe
p1596
aVcall
p1597
aVfor
p1598
aVthe
p1599
aVcook
p1600
aVto
p1601
aVbutcher
p1602
aVand
p1603
aVcook
p1604
aVthe
p1605
aVlamb
p1606
ag60
asg61
(lp1607
g63
ag63
ag63
ag63
ag63
ag63
ag63
ag63
ag63
ag63
ag63
ag63
asg64
(lp1608
g144
ag841
ag77
ag69
ag72
ag145
ag147
ag71
ag147
ag69
ag72
ag80
asg81
VShe calls for the cook to butcher and cook the lamb.
p1609
sba(i__main__
Sentence
p1610
(dp1611
g17
I2
sg18
(lp1612
S'The'
p1613
aS'cook'
p1614
aS'hears'
p1615
aS'the'
p1616
aS'lamb'
p1617
aS'and'
p1618
aS'fish'
p1619
aS'talking'
p1620
aS'to'
p1621
aS'each'
p1622
aS'other'
p1623
aS'.'
p1624
asg40
(lp1625
VThe
p1626
aVcook
p1627
aVhears
p1628
aVthe
p1629
aVlamb
p1630
aVand
p1631
aVfish
p1632
aVtalking
p1633
aVto
p1634
aVeach
p1635
aVother
p1636
ag60
asg61
(lp1637
g63
ag63
ag63
ag63
ag63
ag63
ag63
ag63
ag63
ag63
ag63
ag63
asg64
(lp1638
g69
ag72
ag79
ag69
ag72
ag71
ag76
ag72
ag145
ag69
ag76
ag80
asg81
VThe cook hears the lamb and fish talking to each other.
p1639
sba(i__main__
Sentence
p1640
(dp1641
g17
I3
sg18
(lp1642
S'The'
p1643
aS'cook'
p1644
aS'has'
p1645
aS'another'
p1646
aS'lamb'
p1647
aS'butchered'
p1648
aS'and'
p1649
aS'takes'
p1650
aS'the'
p1651
aS'girl-lamb'
p1652
aS'to'
p1653
aS'be'
p1654
aS'cared'
p1655
aS'for'
p1656
aS'by'
p1657
aS'a'
p1658
aS'woman'
p1659
aS'.'
p1660
asg40
(lp1661
VThe
p1662
aVcook
p1663
ag1570
aVanother
p1664
aVlamb
p1665
aVbutcher
p1666
aVand
p1667
aVtake
p1668
aVthe
p1669
aVgirl-lamb
p1670
aVto
p1671
aVbe
p1672
aVcare
p1673
aVfor
p1674
aVby
p1675
ag45
aVwoman
p1676
ag60
asg61
(lp1677
g63
ag63
ag63
ag63
ag63
ag63
ag63
ag63
ag63
ag63
ag63
ag63
ag63
ag63
ag63
ag63
ag63
ag63
asg64
(lp1678
g69
ag72
ag841
ag69
ag72
ag67
ag71
ag841
ag69
ag298
ag145
ag147
ag75
ag77
ag77
ag69
ag72
ag80
asg81
VThe cook has another lamb butchered and takes the girl-lamb to be cared for by a woman.
p1679
sba(i__main__
Sentence
p1680
(dp1681
g17
I4
sg18
(lp1682
S'This'
p1683
aS'woman'
p1684
aS'turns'
p1685
aS'out'
p1686
aS'to'
p1687
aS'be'
p1688
aS'the'
p1689
aS'boy'
p1690
aS'and'
p1691
aS'girl'
p1692
aS"'s"
p1693
aS'foster'
p1694
aS'mother'
p1695
aS'.'
p1696
asg40
(lp1697
VThis
p1698
aVwoman
p1699
aVturn
p1700
aVout
p1701
aVto
p1702
aVbe
p1703
aVthe
p1704
aVboy
p1705
aVand
p1706
aVgirl
p1707
aV's
p1708
aVfoster
p1709
aVmother
p1710
ag60
asg61
(lp1711
g63
ag63
ag63
ag63
ag63
ag63
ag63
ag63
ag63
ag63
ag63
ag63
ag63
ag63
asg64
(lp1712
g69
ag72
ag841
ag224
ag145
ag147
ag69
ag72
ag71
ag72
aS'POS'
p1713
ag72
ag72
ag80
asg81
VThis woman turns out to be the boy and girl's foster mother.
p1714
sba(i__main__
Sentence
p1715
(dp1716
g17
I5
sg18
(lp1717
S'She'
p1718
aS'blesses'
p1719
aS'the'
p1720
aS'fish'
p1721
aS'and'
p1722
aS'lamb'
p1723
aS'and'
p1724
aS'they'
p1725
aS'regain'
p1726
aS'their'
p1727
aS'human'
p1728
aS'forms'
p1729
aS'.'
p1730
asg40
(lp1731
VShe
p1732
aVbless
p1733
aVthe
p1734
aVfish
p1735
aVand
p1736
aVlamb
p1737
aVand
p1738
aVthey
p1739
aVregain
p1740
aVtheir
p1741
aVhuman
p1742
aVform
p1743
ag60
asg61
(lp1744
g63
ag63
ag63
ag63
ag63
ag63
ag63
ag63
ag63
ag63
ag63
ag63
ag63
asg64
(lp1745
g144
ag841
ag69
ag76
ag71
ag72
ag71
ag144
ag299
ag78
ag72
ag79
ag80
asg81
VShe blesses the fish and lamb and they regain their human forms. 
p1746
sbasbsS'name'
p1747
S'The Lambkin and the Little Fish'
p1748
sS'summaries'
p1749
(lp1750
g1537
asb.