ccopy_reg
_reconstructor
p0
(c__main__
Story
p1
c__builtin__
object
p2
Ntp3
Rp4
(dp5
S'text'
p6
g0
(c__main__
Document
p7
g2
Ntp8
Rp9
(dp10
S'_Document__initialContent'
p11
S"There was once a king who had a son who asked in marriage the\ndaughter of a mighty king, she was called maid maleen, and was\nvery beautiful.  As her father wished to give her to another,\nthe prince was rejected, but as they both loved each other with\nall their hearts, they would not give each other up, and\nmaid maleen said to her father, I can and will take no other for\nmy husband.  Then the king flew into a passion, and ordered a\ndark tower to be built, into which no ray of sunlight or moonlight\nshould enter.  When it was finished, he said, therein shall you be\nimprisoned for seven years, and then I will come and see if your\nperverse spirit is broken.  Meat and drink for the seven years\nwere carried into the tower, and then she and her maid-in-waiting\nwere led into it and walled up, and thus cut off from the sky and\nfrom the earth.  There they sat in the darkness, and knew not\nwhen day or night began.  The king's son often went round and\nround the tower, and called their names, but no sound from\nwithout pierced through the thick walls.  What else could they do\nbut lament and complain.\nMeanwhile the time passed, and by the decline of food and drink\nthey knew that the seven years were coming to an end.  They\nthought the moment of their deliverance was come, but no stroke\nof the hammer was heard, no stone fell out of the wall, and it\nseemed to maid maleen that her father had forgotten her.  As\nthey had food only for a short time longer, and saw a miserable\ndeath awaiting them, maid maleen said, we must try our last\nchance, and see if we can break through the wall.  She took the\nbread-knife, and picked and bored at the mortar of a stone, and\nwhen she was tired, the waiting-maid took her turn.  With great\nlabor they succeeded in getting out one stone, and then a second,\nand a third, and when three days were over the first ray of light\nfell on their darkness, and at last the opening was so large that\nthey could look out.  The sky was blue, and a fresh breeze\nplayed on their faces, but how melancholy everything looked all\naround.  Her father's castle lay in ruins, the town and the\nvillages were, so far as could be seen, destroyed by fire, the\nfields far and wide laid to waste, and no human being was visible.\nWhen the opening in the wall was large enough for them to slip\nthrough, the waiting-maid sprang down first, and then maid maleen\nfollowed.  But where were they to go.  The enemy had ravaged the\nwhole kingdom, driven away the king, and slain all the inhabitants.\nThey wandered forth to seek another\ncountry, but nowhere did they find a shelter, or a human being to\ngive them a mouthful of bread, and their need was so great that\nthey were forced to appease their hunger with nettles.  When,\nafter long journeying, they came into another country, they tried\nto get work everywhere, but wherever they knocked they were turned\naway, and no one would have pity on them.  At last they arrived in\na large city and went to the royal palace.  There also they were\nordered to go away, but at last the cook said that they might stay\nin the kitchen and be scullions.\nThe son of the king in whose kingdom they were, however, was the\nvery man who had been betrothed to maid maleen.  His father had\nchosen another bride for him, whose face was as ugly as her heart\nwas wicked.  The wedding was fixed, and the maiden had already\narrived, but because of her great ugliness she shut herself in\nher room, and allowed no one to see her, and maid maleen had to\ntake her her meals from the kitchen.  When the day came for the\nbride and the bridegroom to go to church, she was ashamed of her\nugliness, and afraid that if she showed herself in the streets,\nshe would be mocked and laughed at by the people.  Then said she\nto maid maleen, a great piece of luck has befallen you.  I have\nsprained my foot, and cannot well walk through the streets, you\nshall put on wedding-clothes and take my place, a greater honor\nthan that you cannot have.  Maid maleen, however, refused it, and\nsaid, I wish for no honor which is not suitable for me.  It was in\nvain, too, that the bride offered her gold.  At last she said\nangrily, if you do not obey me, it shall cost you your life.  I\nhave but to speak the word, and your head will lie at your feet.\nThen she was forced to obey, and put on the bride's magnificent\nclothes and all her jewels.  When she entered the royal hall, every\none was amazed at her great beauty, and the king said to his son,\nthis is the bride whom I have chosen for you, and whom you must\nlead to church.  The bridegroom was astonished, and thought, she\nis like my maid maleen, and I should believe that it was she\nherself, but she has long been shut up in the tower, or dead.\nHe took her by the hand and led her to church.  On the way was a\nnettle-plant, and she said,\n     oh, nettle-plant,\n     little nettle-plant,\n     what dost thou here alone.\n     I have known the time\n     when I ate thee unboiled\n     when I ate thee unroasted.\nWhat are you saying, asked the king's son.  Nothing, she replied,\nI was only thinking of maid maleen.  He was surprised that she knew\nabout her, but kept silence.  When they came to the foot-plank\ninto the chuchyard, she said,\n     foot-bridge, do not break,\n     I am not the true bride.\nWhat are you saying there, asked the the king's son.  Nothing, she\nreplied, I was only thinking of maid maleen.  Do you know maid\nmaleen.  No, she answered, how should I know her, I have only\nheard of her.  When they came to the church-door, she said once\nmore,\n     church-door, break not,\n     I am not the true bride.\nWhat are you saying there asked he.  Ah, she answered, I was only\nthinking of maid maleen.  Then he took out a precious chain, put it\nround her neck, and fastened the clasp.  Thereupon they entered the\nchurch, and the priest joined their hands together before the\naltar, and married them.  He led her home, but she did not speak\na single word the whole way.  When they got back to the royal\npalace, she hurried into the bride's chamber, put off the\nmagnificent clothes and the jewels, dressed herself in her gray\ngown, and kept nothing but the jewel on her neck, which she had\nreceived from the bridegroom.\nWhen the night came, and the bride was to be led into the prince's\napartment, she let her veil fall over her face, that he might not\nobserve the deception.  As soon as everyone had gone away, he said\nto her,  what did you say to the nettle-plant which was growing\nby the wayside.\nTo which nettle-plant, asked she, I don't talk to nettle-plants.\nIf you did not do it, then you are not the true bride, said he.\nSo she bethought herself, and said,\n     I must go out unto my maid\n     who keeps my thoughts for me.\nShe went out and sought maid maleen.  Girl, what have you been\nsaying to the nettle.  I said nothing but,\n     oh, nettle-plant,\n     little nettle-plant,\n     what dost thou here alone.\n     I have known the time\n     when I ate thee unboiled,\n     when I ate thee unroasted.\nThe bride ran back into the chamber, and said, I know now\nwhat I said to the nettle, and she repeated the words which she had\njust heard.  But what did you say to the foot-bridge when we went\nover it asked the king's son.  To the foot-bridge, she answered.\nI don't talk to foot-bridges.  Then you are not the true bride.\nShe again said,\n     I must go out unto my maid,\n     who keeps my thoughts for me.\nAnd ran out and scolded maid maleen, girl, what did you say to the\nfoot-bridge.\nI said nothing but,\n     foot-bridge, do not break,\n     I am not the true bride.\nThat costs you your life, cried the bride, but she hurried into\nthe room and said, I know now what I said to the foot-bridge,\nand she repeated the words.  But what did you say to the\nchurch-door.  To the church-door, she replied, I don't talk to\nchurch-doors.  Then you are not the true bride.\nShe went out and scolded maid maleen, and said, girl, what did you\nsay to the church-door.  I said nothing but,\n     church-door, break not,\n     I am not the true bride.\nThat will break your neck for you, cried the bride, and flew\ninto a terrible passion, but she hastened back into the room, and\nsaid, I know now what I said to the church-door, and she\nrepeated the words.  But where have you the jewel which I gave you\nat the church-door.  What jewel, she answered, you did not give\nme any jewel.  I myself put it round your neck, and I myself\nfastened it, if you do not know that, you are not the true bride.\nHe drew the veil from her face, and when he saw her immeasurable\nugliness, he sprang back terrified, and said, how do you come here.\nWho are you.  I am your betrothed bride, but because I feared lest\nthe people should mock me when they saw me out of doors, I\ncommanded the scullery-maid to dress herself in my clothes, and to\ngo to church instead of me.  Where is the girl, said he\nI want to see her, go and bring her here.  She went out\nand told the servants that the scullery-maid was an impostor, and\nthat they must take her out into the court-yard and strike off her\nhead.  The servants laid hold of maid maleen and wanted to drag her\nout, but she screamed so loudly for help, that the king's son\nheard her voice, hurried out of his chamber and ordered them to\nset the maiden free instantly.  Lights were brought, and then he\nsaw on her neck the gold chain which he had given her at the\nchurch-door.  You are the true bride, said he, who went with me\nto church, come with me now to my room.  When they were both alone,\nhe said, on the way to the church you did name maid maleen, who\nwas my betrothed bride.  If I could believe it possible, I should\nthink she was standing before me - you are like her in every\nrespect.  She answered, I am maid maleen, who for your sake was\nimprisoned seven years in the darkness, who suffered hunger and\nthirst, and has lived so long in want and poverty.  Today,\nhowever, the sun is shining on me once more.  I was married to\nyou in the church, and I am your lawful wife.  Then they kissed\neach other, and were happy all the days of their lives.  The\nfalse bride was rewarded for what she had done by having her\nhead cut off.\nThe tower in which maid maleen had been imprisoned remained\nstanding for a long time, and when the children passed by it\nthey sang,\n     king, klang, gloria.\n     Who sits within this tower.\n     A king's daughter, she sits within,\n     a sight of her I cannot win,\n     the wall it will not break,\n     the stone cannot be pierced.\n     Little Hans, with your coat so gay,\n     follow me, follow me, fast as you may.\n"
p12
sS'sentences'
p13
(lp14
(i__main__
Sentence
p15
(dp16
S'index'
p17
I0
sS'words'
p18
(lp19
S'There'
p20
aS'was'
p21
aS'once'
p22
aS'a'
p23
aS'king'
p24
aS'who'
p25
aS'had'
p26
aS'a'
p27
aS'son'
p28
aS'who'
p29
aS'asked'
p30
aS'in'
p31
aS'marriage'
p32
aS'the'
p33
aS'daughter'
p34
aS'of'
p35
aS'a'
p36
aS'mighty'
p37
aS'king'
p38
aS','
p39
aS'she'
p40
aS'was'
p41
aS'called'
p42
aS'maid'
p43
aS'maleen'
p44
aS','
p45
aS'and'
p46
aS'was'
p47
aS'very'
p48
aS'beautiful'
p49
aS'.'
p50
asS'lemmas'
p51
(lp52
VThere
p53
aVbe
p54
aVonce
p55
aVa
p56
aVking
p57
aVwho
p58
aVhave
p59
ag56
aVson
p60
aVwho
p61
aVask
p62
aVin
p63
aVmarriage
p64
aVthe
p65
aVdaughter
p66
aVof
p67
ag56
aVmighty
p68
aVking
p69
aV,
p70
aVshe
p71
ag54
aVcall
p72
aVmaid
p73
aVmaleen
p74
ag70
aVand
p75
ag54
aVvery
p76
aVbeautiful
p77
aV.
p78
asS'nerTags'
p79
(lp80
VO
p81
ag81
ag81
ag81
ag81
ag81
ag81
ag81
ag81
ag81
ag81
ag81
ag81
ag81
ag81
ag81
ag81
ag81
ag81
ag81
ag81
ag81
ag81
ag81
ag81
ag81
ag81
ag81
ag81
ag81
ag81
asS'posTags'
p82
(lp83
S'EX'
p84
aS'VBD'
p85
aS'RB'
p86
aS'DT'
p87
aS'NN'
p88
aS'WP'
p89
ag85
ag87
ag88
ag89
ag85
aS'IN'
p90
ag88
ag87
ag88
ag90
ag87
ag88
aS'VBG'
p91
aS','
p92
aS'PRP'
p93
ag85
aS'VBN'
p94
ag94
ag94
ag92
aS'CC'
p95
ag85
ag86
aS'JJ'
p96
aS'.'
p97
asS'_Sentence__initialContent'
p98
VThere was once a king who had a son who asked in marriage the daughter of a mighty king, she was called maid maleen, and was very beautiful.
p99
sba(i__main__
Sentence
p100
(dp101
g17
I1
sg18
(lp102
S'As'
p103
aS'her'
p104
aS'father'
p105
aS'wished'
p106
aS'to'
p107
aS'give'
p108
aS'her'
p109
aS'to'
p110
aS'another'
p111
aS','
p112
aS'the'
p113
aS'prince'
p114
aS'was'
p115
aS'rejected'
p116
aS','
p117
aS'but'
p118
aS'as'
p119
aS'they'
p120
aS'both'
p121
aS'loved'
p122
aS'each'
p123
aS'other'
p124
aS'with'
p125
aS'all'
p126
aS'their'
p127
aS'hearts'
p128
aS','
p129
aS'they'
p130
aS'would'
p131
aS'not'
p132
aS'give'
p133
aS'each'
p134
aS'other'
p135
aS'up'
p136
aS','
p137
aS'and'
p138
aS'maid'
p139
aS'maleen'
p140
aS'said'
p141
aS'to'
p142
aS'her'
p143
aS'father'
p144
aS','
p145
aS'I'
p146
aS'can'
p147
aS'and'
p148
aS'will'
p149
aS'take'
p150
aS'no'
p151
aS'other'
p152
aS'for'
p153
aS'my'
p154
aS'husband'
p155
aS'.'
p156
asg51
(lp157
VAs
p158
aVher
p159
aVfather
p160
aVwish
p161
aVto
p162
aVgive
p163
aVher
p164
aVto
p165
aVanother
p166
ag70
aVthe
p167
aVprince
p168
ag54
aVreject
p169
ag70
aVbut
p170
ag56
aVthey
p171
aVboth
p172
aVlove
p173
aVeach
p174
aVother
p175
aVwith
p176
aVall
p177
aVtheir
p178
aVheart
p179
ag70
aVthey
p180
aVwould
p181
aVnot
p182
aVgive
p183
aVeach
p184
aVother
p185
aVup
p186
ag70
aVand
p187
aVmaid
p188
aVmaleen
p189
aVsay
p190
aVto
p191
aVher
p192
aVfather
p193
ag70
aVI
p194
aVcan
p195
aVand
p196
aVwill
p197
aVtake
p198
aVno
p199
aVother
p200
aVfor
p201
aVmy
p202
aVhusband
p203
ag78
asg79
(lp204
g81
ag81
ag81
ag81
ag81
ag81
ag81
ag81
ag81
ag81
ag81
ag81
ag81
ag81
ag81
ag81
ag81
ag81
ag81
ag81
ag81
ag81
ag81
ag81
ag81
ag81
ag81
ag81
ag81
ag81
ag81
ag81
ag81
ag81
ag81
ag81
ag81
ag81
ag81
ag81
ag81
ag81
ag81
ag81
ag81
ag81
ag81
ag81
ag81
ag81
ag81
ag81
ag81
ag81
asg82
(lp205
g90
aS'PRP$'
p206
ag88
ag85
aS'TO'
p207
aS'VB'
p208
ag206
ag207
ag87
ag92
ag87
ag88
ag85
ag94
ag92
ag95
ag90
ag93
ag87
ag85
ag87
ag96
ag90
ag87
ag206
aS'NNS'
p209
ag92
ag93
aS'MD'
p210
ag86
ag208
ag87
ag96
ag90
ag92
ag95
ag85
ag94
ag85
ag207
ag206
ag88
ag92
ag93
ag210
ag95
ag210
ag208
ag87
ag96
ag90
ag206
ag88
ag97
asg98
VAs her father wished to give her to another, the prince was rejected, but as they both loved each other with all their hearts, they would not give each other up, and maid maleen said to her father, I can and will take no other for my husband.
p211
sba(i__main__
Sentence
p212
(dp213
g17
I2
sg18
(lp214
S'Then'
p215
aS'the'
p216
aS'king'
p217
aS'flew'
p218
aS'into'
p219
aS'a'
p220
aS'passion'
p221
aS','
p222
aS'and'
p223
aS'ordered'
p224
aS'a'
p225
aS'dark'
p226
aS'tower'
p227
aS'to'
p228
aS'be'
p229
aS'built'
p230
aS','
p231
aS'into'
p232
aS'which'
p233
aS'no'
p234
aS'ray'
p235
aS'of'
p236
aS'sunlight'
p237
aS'or'
p238
aS'moonlight'
p239
aS'should'
p240
aS'enter'
p241
aS'.'
p242
asg51
(lp243
VThen
p244
aVthe
p245
aVking
p246
aVflew
p247
aVinto
p248
ag56
aVpassion
p249
ag70
aVand
p250
aVorder
p251
ag56
aVdark
p252
aVtower
p253
aVto
p254
aVbe
p255
aVbuild
p256
ag70
aVinto
p257
aVwhich
p258
aVno
p259
aVray
p260
aVof
p261
aVsunlight
p262
aVor
p263
aVmoonlight
p264
aVshould
p265
aVenter
p266
ag78
asg79
(lp267
g81
ag81
ag81
ag81
ag81
ag81
ag81
ag81
ag81
ag81
ag81
ag81
ag81
ag81
ag81
ag81
ag81
ag81
ag81
ag81
ag81
ag81
ag81
ag81
ag81
ag81
ag81
ag81
asg82
(lp268
g86
ag87
ag88
ag88
ag90
ag87
ag88
ag92
ag95
ag85
ag87
ag88
ag88
ag207
ag208
ag94
ag92
ag90
aS'WDT'
p269
ag87
ag88
ag90
ag88
ag95
ag88
ag210
ag208
ag97
asg98
VThen the king flew into a passion, and ordered a dark tower to be built, into which no ray of sunlight or moonlight should enter.
p270
sba(i__main__
Sentence
p271
(dp272
g17
I3
sg18
(lp273
S'When'
p274
aS'it'
p275
aS'was'
p276
aS'finished'
p277
aS','
p278
aS'he'
p279
aS'said'
p280
aS','
p281
aS'therein'
p282
aS'shall'
p283
aS'you'
p284
aS'be'
p285
aS'imprisoned'
p286
aS'for'
p287
aS'seven'
p288
aS'years'
p289
aS','
p290
aS'and'
p291
aS'then'
p292
aS'I'
p293
aS'will'
p294
aS'come'
p295
aS'and'
p296
aS'see'
p297
aS'if'
p298
aS'your'
p299
aS'perverse'
p300
aS'spirit'
p301
aS'is'
p302
aS'broken'
p303
aS'.'
p304
asg51
(lp305
VWhen
p306
aVit
p307
ag54
aVfinish
p308
ag70
aVhe
p309
ag190
ag70
aVtherein
p310
aVshall
p311
aVyou
p312
aVbe
p313
aVimprison
p314
aVfor
p315
aVseven
p316
aVyear
p317
ag70
aVand
p318
aVthen
p319
ag194
aVwill
p320
aVcome
p321
aVand
p322
aVsee
p323
aVif
p324
aVyour
p325
aVperverse
p326
aVspirit
p327
aVbe
p328
aVbreak
p329
ag78
asg79
(lp330
g81
ag81
ag81
ag81
ag81
ag81
ag81
ag81
ag81
ag81
ag81
ag81
ag81
ag81
ag81
ag81
ag81
ag81
ag81
ag81
ag81
ag81
ag81
ag81
ag81
ag81
ag81
ag81
ag81
ag81
ag81
asg82
(lp331
S'WRB'
p332
ag93
ag85
ag94
ag92
ag93
ag85
ag92
ag88
ag210
ag93
ag208
ag94
ag90
aS'CD'
p333
ag209
ag92
ag95
ag86
ag93
ag210
ag208
ag95
ag208
ag90
ag206
ag88
ag88
aS'VBZ'
p334
ag94
ag97
asg98
VWhen it was finished, he said, therein shall you be imprisoned for seven years, and then I will come and see if your perverse spirit is broken.
p335
sba(i__main__
Sentence
p336
(dp337
g17
I4
sg18
(lp338
S'Meat'
p339
aS'and'
p340
aS'drink'
p341
aS'for'
p342
aS'the'
p343
aS'seven'
p344
aS'years'
p345
aS'were'
p346
aS'carried'
p347
aS'into'
p348
aS'the'
p349
aS'tower'
p350
aS','
p351
aS'and'
p352
aS'then'
p353
aS'she'
p354
aS'and'
p355
aS'her'
p356
aS'maid-in-waiting'
p357
aS'were'
p358
aS'led'
p359
aS'into'
p360
aS'it'
p361
aS'and'
p362
aS'walled'
p363
aS'up'
p364
aS','
p365
aS'and'
p366
aS'thus'
p367
aS'cut'
p368
aS'off'
p369
aS'from'
p370
aS'the'
p371
aS'sky'
p372
aS'and'
p373
aS'from'
p374
aS'the'
p375
aS'earth'
p376
aS'.'
p377
asg51
(lp378
VMeat
p379
aVand
p380
aVdrink
p381
aVfor
p382
aVthe
p383
aVseven
p384
aVyear
p385
aVbe
p386
aVcarry
p387
aVinto
p388
aVthe
p389
aVtower
p390
ag70
aVand
p391
aVthen
p392
aVshe
p393
aVand
p394
aVher
p395
aVmaid-in-waiting
p396
aVwere
p397
aVlead
p398
aVinto
p399
aVit
p400
aVand
p401
aVwall
p402
aVup
p403
ag70
aVand
p404
aVthus
p405
aVcut
p406
aVoff
p407
aVfrom
p408
aVthe
p409
aVsky
p410
aVand
p411
aVfrom
p412
aVthe
p413
aVearth
p414
ag78
asg79
(lp415
g81
ag81
ag81
ag81
ag81
ag81
ag81
ag81
ag81
ag81
ag81
ag81
ag81
ag81
ag81
ag81
ag81
ag81
ag81
ag81
ag81
ag81
ag81
ag81
ag81
ag81
ag81
ag81
ag81
ag81
ag81
ag81
ag81
ag81
ag81
ag81
ag81
ag81
ag81
asg82
(lp416
S'NNP'
p417
ag95
ag88
ag90
ag87
ag333
ag209
ag85
ag94
ag90
ag87
ag88
ag92
ag95
ag86
ag93
ag95
ag206
ag96
ag88
ag94
ag90
ag93
ag95
ag85
aS'RP'
p418
ag92
ag95
ag86
ag85
ag90
ag90
ag87
ag88
ag95
ag90
ag87
ag96
ag97
asg98
VMeat and drink for the seven years were carried into the tower, and then she and her maid-in-waiting were led into it and walled up, and thus cut off from the sky and from the earth.
p419
sba(i__main__
Sentence
p420
(dp421
g17
I5
sg18
(lp422
S'There'
p423
aS'they'
p424
aS'sat'
p425
aS'in'
p426
aS'the'
p427
aS'darkness'
p428
aS','
p429
aS'and'
p430
aS'knew'
p431
aS'not'
p432
aS'when'
p433
aS'day'
p434
aS'or'
p435
aS'night'
p436
aS'began'
p437
aS'.'
p438
asg51
(lp439
VThere
p440
aVthey
p441
aVsit
p442
aVin
p443
aVthe
p444
aVdarkness
p445
ag70
aVand
p446
aVknow
p447
aVnot
p448
aVwhen
p449
aVday
p450
aVor
p451
aVnight
p452
aVbegin
p453
ag78
asg79
(lp454
g81
ag81
ag81
ag81
ag81
ag81
ag81
ag81
ag81
ag81
ag81
ag81
ag81
ag81
ag81
ag81
asg82
(lp455
g84
ag93
aS'VBP'
p456
ag90
ag87
ag88
ag92
ag95
ag85
ag86
ag332
ag88
ag95
ag88
ag85
ag97
asg98
VThere they sat in the darkness, and knew not when day or night began.
p457
sba(i__main__
Sentence
p458
(dp459
g17
I6
sg18
(lp460
S'The'
p461
aS'king'
p462
aS"'s"
p463
aS'son'
p464
aS'often'
p465
aS'went'
p466
aS'round'
p467
aS'and'
p468
aS'round'
p469
aS'the'
p470
aS'tower'
p471
aS','
p472
aS'and'
p473
aS'called'
p474
aS'their'
p475
aS'names'
p476
aS','
p477
aS'but'
p478
aS'no'
p479
aS'sound'
p480
aS'from'
p481
aS'without'
p482
aS'pierced'
p483
aS'through'
p484
aS'the'
p485
aS'thick'
p486
aS'walls'
p487
aS'.'
p488
asg51
(lp489
VThe
p490
aVking
p491
aV's
p492
aVson
p493
aVoften
p494
aVgo
p495
aVround
p496
aVand
p497
aVround
p498
aVthe
p499
aVtower
p500
ag70
aVand
p501
aVcall
p502
aVtheir
p503
aVname
p504
ag70
aVbut
p505
aVno
p506
aVsound
p507
aVfrom
p508
aVwithout
p509
aVpierce
p510
aVthrough
p511
aVthe
p512
aVthick
p513
aVwall
p514
ag78
asg79
(lp515
g81
ag81
ag81
ag81
ag81
ag81
ag81
ag81
ag81
ag81
ag81
ag81
ag81
ag81
ag81
ag81
ag81
ag81
ag81
ag81
ag81
ag81
ag81
ag81
ag81
ag81
ag81
ag81
asg82
(lp516
g87
ag88
aS'POS'
p517
ag88
ag86
ag85
ag88
ag95
ag88
ag87
ag88
ag92
ag95
ag94
ag206
ag209
ag92
ag95
ag87
ag88
ag90
ag90
ag94
ag90
ag87
ag88
ag209
ag97
asg98
VThe king's son often went round and round the tower, and called their names, but no sound from without pierced through the thick walls.
p518
sba(i__main__
Sentence
p519
(dp520
g17
I7
sg18
(lp521
S'What'
p522
aS'else'
p523
aS'could'
p524
aS'they'
p525
aS'do'
p526
aS'but'
p527
aS'lament'
p528
aS'and'
p529
aS'complain'
p530
aS'.'
p531
asg51
(lp532
VWhat
p533
aVelse
p534
aVcould
p535
aVthey
p536
aVdo
p537
aVbut
p538
aVlament
p539
aVand
p540
aVcomplain
p541
ag78
asg79
(lp542
g81
ag81
ag81
ag81
ag81
ag81
ag81
ag81
ag81
ag81
asg82
(lp543
g89
ag86
ag210
ag93
ag456
ag95
ag88
ag95
ag88
ag97
asg98
VWhat else could they do but lament and complain.
p544
sba(i__main__
Sentence
p545
(dp546
g17
I8
sg18
(lp547
S'Meanwhile'
p548
aS'the'
p549
aS'time'
p550
aS'passed'
p551
aS','
p552
aS'and'
p553
aS'by'
p554
aS'the'
p555
aS'decline'
p556
aS'of'
p557
aS'food'
p558
aS'and'
p559
aS'drink'
p560
aS'they'
p561
aS'knew'
p562
aS'that'
p563
aS'the'
p564
aS'seven'
p565
aS'years'
p566
aS'were'
p567
aS'coming'
p568
aS'to'
p569
aS'an'
p570
aS'end'
p571
aS'.'
p572
asg51
(lp573
VMeanwhile
p574
aVthe
p575
aVtime
p576
aVpass
p577
ag70
aVand
p578
aVby
p579
aVthe
p580
aVdecline
p581
aVof
p582
aVfood
p583
aVand
p584
aVdrink
p585
aVthey
p586
ag447
aVthat
p587
aVthe
p588
aVseven
p589
aVyear
p590
ag386
aVcome
p591
aVto
p592
aVan
p593
aVend
p594
ag78
asg79
(lp595
g81
ag81
ag81
ag81
ag81
ag81
ag81
ag81
ag81
ag81
ag81
ag81
ag81
ag81
ag81
ag81
ag81
ag81
ag81
ag81
ag81
ag81
ag81
ag81
ag81
asg82
(lp596
g86
ag87
ag88
ag85
ag92
ag95
ag90
ag87
ag88
ag90
ag88
ag95
ag88
ag93
ag85
ag90
ag87
ag333
ag209
ag85
ag91
ag207
ag87
ag88
ag97
asg98
VMeanwhile the time passed, and by the decline of food and drink they knew that the seven years were coming to an end.
p597
sba(i__main__
Sentence
p598
(dp599
g17
I9
sg18
(lp600
S'They'
p601
aS'thought'
p602
aS'the'
p603
aS'moment'
p604
aS'of'
p605
aS'their'
p606
aS'deliverance'
p607
aS'was'
p608
aS'come'
p609
aS','
p610
aS'but'
p611
aS'no'
p612
aS'stroke'
p613
aS'of'
p614
aS'the'
p615
aS'hammer'
p616
aS'was'
p617
aS'heard'
p618
aS','
p619
aS'no'
p620
aS'stone'
p621
aS'fell'
p622
aS'out'
p623
aS'of'
p624
aS'the'
p625
aS'wall'
p626
aS','
p627
aS'and'
p628
aS'it'
p629
aS'seemed'
p630
aS'to'
p631
aS'maid'
p632
aS'maleen'
p633
aS'that'
p634
aS'her'
p635
aS'father'
p636
aS'had'
p637
aS'forgotten'
p638
aS'her'
p639
aS'.'
p640
asg51
(lp641
VThey
p642
aVthink
p643
aVthe
p644
aVmoment
p645
aVof
p646
aVtheir
p647
aVdeliverance
p648
ag54
aVcome
p649
ag70
aVbut
p650
aVno
p651
aVstroke
p652
aVof
p653
aVthe
p654
aVhammer
p655
ag54
aVhear
p656
ag70
aVno
p657
aVstone
p658
aVfell
p659
aVout
p660
aVof
p661
aVthe
p662
aVwall
p663
ag70
aVand
p664
aVit
p665
aVseem
p666
aVto
p667
aVmaid
p668
aVmaleen
p669
aVthat
p670
aVher
p671
aVfather
p672
ag59
aVforget
p673
aVher
p674
ag78
asg79
(lp675
g81
ag81
ag81
ag81
ag81
ag81
ag81
ag81
ag81
ag81
ag81
ag81
ag81
ag81
ag81
ag81
ag81
ag81
ag81
ag81
ag81
ag81
ag81
ag81
ag81
ag81
ag81
ag81
ag81
ag81
ag81
ag81
ag81
ag81
ag81
ag81
ag81
ag81
ag81
ag81
asg82
(lp676
g93
ag85
ag87
ag88
ag90
ag206
ag88
ag85
ag94
ag92
ag95
ag87
ag88
ag90
ag87
ag88
ag85
ag94
ag92
ag87
ag88
ag85
ag418
ag90
ag87
ag88
ag92
ag95
ag93
ag85
ag207
ag208
ag94
ag90
ag206
ag88
ag85
ag94
ag206
ag97
asg98
VThey thought the moment of their deliverance was come, but no stroke of the hammer was heard, no stone fell out of the wall, and it seemed to maid maleen that her father had forgotten her.
p677
sba(i__main__
Sentence
p678
(dp679
g17
I10
sg18
(lp680
S'As'
p681
aS'they'
p682
aS'had'
p683
aS'food'
p684
aS'only'
p685
aS'for'
p686
aS'a'
p687
aS'short'
p688
aS'time'
p689
aS'longer'
p690
aS','
p691
aS'and'
p692
aS'saw'
p693
aS'a'
p694
aS'miserable'
p695
aS'death'
p696
aS'awaiting'
p697
aS'them'
p698
aS','
p699
aS'maid'
p700
aS'maleen'
p701
aS'said'
p702
aS','
p703
aS'we'
p704
aS'must'
p705
aS'try'
p706
aS'our'
p707
aS'last'
p708
aS'chance'
p709
aS','
p710
aS'and'
p711
aS'see'
p712
aS'if'
p713
aS'we'
p714
aS'can'
p715
aS'break'
p716
aS'through'
p717
aS'the'
p718
aS'wall'
p719
aS'.'
p720
asg51
(lp721
VAs
p722
aVthey
p723
ag59
aVfood
p724
aVonly
p725
aVfor
p726
ag56
aVshort
p727
aVtime
p728
aVlonger
p729
ag70
aVand
p730
aVsaw
p731
ag56
aVmiserable
p732
aVdeath
p733
aVawait
p734
aVthem
p735
ag70
aVmaid
p736
aVmaleen
p737
ag190
ag70
aVwe
p738
aVmust
p739
aVtry
p740
aVour
p741
aVlast
p742
aVchance
p743
ag70
aVand
p744
aVsee
p745
aVif
p746
aVwe
p747
aVcan
p748
aVbreak
p749
aVthrough
p750
aVthe
p751
aVwall
p752
ag78
asg79
(lp753
g81
ag81
ag81
ag81
ag81
ag81
ag81
ag81
ag81
ag81
ag81
ag81
ag81
ag81
ag81
ag81
ag81
ag81
ag81
ag81
ag81
ag81
ag81
ag81
ag81
ag81
ag81
ag81
ag81
ag81
ag81
ag81
ag81
ag81
ag81
ag81
ag81
ag81
ag81
ag81
asg82
(lp754
g90
ag93
ag85
ag88
ag86
ag90
ag87
ag96
ag88
ag88
ag92
ag95
ag85
ag87
ag96
ag88
ag91
ag93
ag92
ag85
ag94
ag85
ag92
ag93
ag210
ag208
ag206
ag96
ag88
ag92
ag95
ag208
ag90
ag93
ag210
ag208
ag90
ag87
ag88
ag97
asg98
VAs they had food only for a short time longer, and saw a miserable death awaiting them, maid maleen said, we must try our last chance, and see if we can break through the wall.
p755
sba(i__main__
Sentence
p756
(dp757
g17
I11
sg18
(lp758
S'She'
p759
aS'took'
p760
aS'the'
p761
aS'bread-knife'
p762
aS','
p763
aS'and'
p764
aS'picked'
p765
aS'and'
p766
aS'bored'
p767
aS'at'
p768
aS'the'
p769
aS'mortar'
p770
aS'of'
p771
aS'a'
p772
aS'stone'
p773
aS','
p774
aS'and'
p775
aS'when'
p776
aS'she'
p777
aS'was'
p778
aS'tired'
p779
aS','
p780
aS'the'
p781
aS'waiting-maid'
p782
aS'took'
p783
aS'her'
p784
aS'turn'
p785
aS'.'
p786
asg51
(lp787
VShe
p788
aVtake
p789
aVthe
p790
aVbread-knife
p791
ag70
aVand
p792
aVpick
p793
aVand
p794
aVbore
p795
aVat
p796
aVthe
p797
aVmortar
p798
aVof
p799
ag56
aVstone
p800
ag70
aVand
p801
aVwhen
p802
aVshe
p803
ag54
aVtire
p804
ag70
aVthe
p805
aVwaiting-maid
p806
aVtook
p807
aVher
p808
aVturn
p809
ag78
asg79
(lp810
g81
ag81
ag81
ag81
ag81
ag81
ag81
ag81
ag81
ag81
ag81
ag81
ag81
ag81
ag81
ag81
ag81
ag81
ag81
ag81
ag81
ag81
ag81
ag81
ag81
ag81
ag81
ag81
asg82
(lp811
g93
ag85
ag87
ag96
ag92
ag95
ag85
ag95
ag94
ag90
ag87
ag88
ag90
ag87
ag88
ag92
ag95
ag332
ag93
ag85
ag94
ag92
ag87
ag96
ag88
ag93
ag208
ag97
asg98
VShe took the bread-knife, and picked and bored at the mortar of a stone, and when she was tired, the waiting-maid took her turn.
p812
sba(i__main__
Sentence
p813
(dp814
g17
I12
sg18
(lp815
S'With'
p816
aS'great'
p817
aS'labor'
p818
aS'they'
p819
aS'succeeded'
p820
aS'in'
p821
aS'getting'
p822
aS'out'
p823
aS'one'
p824
aS'stone'
p825
aS','
p826
aS'and'
p827
aS'then'
p828
aS'a'
p829
aS'second'
p830
aS','
p831
aS'and'
p832
aS'a'
p833
aS'third'
p834
aS','
p835
aS'and'
p836
aS'when'
p837
aS'three'
p838
aS'days'
p839
aS'were'
p840
aS'over'
p841
aS'the'
p842
aS'first'
p843
aS'ray'
p844
aS'of'
p845
aS'light'
p846
aS'fell'
p847
aS'on'
p848
aS'their'
p849
aS'darkness'
p850
aS','
p851
aS'and'
p852
aS'at'
p853
aS'last'
p854
aS'the'
p855
aS'opening'
p856
aS'was'
p857
aS'so'
p858
aS'large'
p859
aS'that'
p860
aS'they'
p861
aS'could'
p862
aS'look'
p863
aS'out'
p864
aS'.'
p865
asg51
(lp866
VWith
p867
aVgreat
p868
aVlabor
p869
aVthey
p870
aVsucceed
p871
aVin
p872
aVgetting
p873
aVout
p874
aVone
p875
aVstone
p876
ag70
aVand
p877
aVthen
p878
ag56
aVsecond
p879
ag70
aVand
p880
ag56
aVthird
p881
ag70
aVand
p882
aVwhen
p883
aVthree
p884
aVday
p885
ag386
aVover
p886
aVthe
p887
aVfirst
p888
aVray
p889
aVof
p890
aVlight
p891
aVfell
p892
aVon
p893
aVtheir
p894
aVdarkness
p895
ag70
aVand
p896
aVat
p897
aVlast
p898
aVthe
p899
aVopen
p900
ag54
aVso
p901
aVlarge
p902
aVthat
p903
aVthey
p904
aVcould
p905
aVlook
p906
aVout
p907
ag78
asg79
(lp908
g81
ag81
ag81
ag81
ag81
ag81
ag81
ag81
ag81
ag81
ag81
ag81
ag81
ag81
ag81
ag81
ag81
ag81
ag81
ag81
ag81
ag81
ag81
ag81
ag81
ag81
ag81
ag81
ag81
ag81
ag81
ag81
ag81
ag81
ag81
ag81
ag81
ag81
ag81
ag81
ag81
ag81
ag81
ag81
ag81
ag81
ag81
ag81
ag81
ag81
asg82
(lp909
g90
ag96
ag88
ag93
ag85
ag90
ag88
ag90
ag333
ag88
ag92
ag95
ag86
ag87
ag96
ag92
ag95
ag87
ag96
ag92
ag95
ag332
ag333
ag209
ag85
ag90
ag87
ag96
ag88
ag90
ag96
ag88
ag90
ag206
ag88
ag92
ag95
ag90
ag96
ag87
ag91
ag85
ag86
ag96
ag90
ag93
ag210
ag208
ag418
ag97
asg98
VWith great labor they succeeded in getting out one stone, and then a second, and a third, and when three days were over the first ray of light fell on their darkness, and at last the opening was so large that they could look out.
p910
sba(i__main__
Sentence
p911
(dp912
g17
I13
sg18
(lp913
S'The'
p914
aS'sky'
p915
aS'was'
p916
aS'blue'
p917
aS','
p918
aS'and'
p919
aS'a'
p920
aS'fresh'
p921
aS'breeze'
p922
aS'played'
p923
aS'on'
p924
aS'their'
p925
aS'faces'
p926
aS','
p927
aS'but'
p928
aS'how'
p929
aS'melancholy'
p930
aS'everything'
p931
aS'looked'
p932
aS'all'
p933
aS'around'
p934
aS'.'
p935
asg51
(lp936
VThe
p937
aVsky
p938
ag54
aVblue
p939
ag70
aVand
p940
ag56
aVfresh
p941
aVbreeze
p942
aVplay
p943
aVon
p944
aVtheir
p945
aVface
p946
ag70
aVbut
p947
aVhow
p948
aVmelancholy
p949
aVeverything
p950
aVlook
p951
aVall
p952
aVaround
p953
ag78
asg79
(lp954
g81
ag81
ag81
ag81
ag81
ag81
ag81
ag81
ag81
ag81
ag81
ag81
ag81
ag81
ag81
ag81
ag81
ag81
ag81
ag81
ag81
ag81
asg82
(lp955
g87
ag88
ag85
ag96
ag92
ag95
ag87
ag96
ag88
ag94
ag90
ag206
ag209
ag92
ag95
ag332
ag86
ag88
ag85
ag87
ag90
ag97
asg98
VThe sky was blue, and a fresh breeze played on their faces, but how melancholy everything looked all around.
p956
sba(i__main__
Sentence
p957
(dp958
g17
I14
sg18
(lp959
S'Her'
p960
aS'father'
p961
aS"'s"
p962
aS'castle'
p963
aS'lay'
p964
aS'in'
p965
aS'ruins'
p966
aS','
p967
aS'the'
p968
aS'town'
p969
aS'and'
p970
aS'the'
p971
aS'villages'
p972
aS'were'
p973
aS','
p974
aS'so'
p975
aS'far'
p976
aS'as'
p977
aS'could'
p978
aS'be'
p979
aS'seen'
p980
aS','
p981
aS'destroyed'
p982
aS'by'
p983
aS'fire'
p984
aS','
p985
aS'the'
p986
aS'fields'
p987
aS'far'
p988
aS'and'
p989
aS'wide'
p990
aS'laid'
p991
aS'to'
p992
aS'waste'
p993
aS','
p994
aS'and'
p995
aS'no'
p996
aS'human'
p997
aS'being'
p998
aS'was'
p999
aS'visible'
p1000
aS'.'
p1001
asg51
(lp1002
VHer
p1003
aVfather
p1004
aV's
p1005
aVcastle
p1006
aVlay
p1007
aVin
p1008
aVruin
p1009
ag70
aVthe
p1010
aVtown
p1011
aVand
p1012
aVthe
p1013
aVvillage
p1014
ag386
ag70
aVso
p1015
aVfar
p1016
ag56
aVcould
p1017
aVbe
p1018
aVsee
p1019
ag70
aVdestroy
p1020
aVby
p1021
aVfire
p1022
ag70
aVthe
p1023
aVfield
p1024
aVfar
p1025
aVand
p1026
aVwide
p1027
aVlay
p1028
aVto
p1029
aVwaste
p1030
ag70
aVand
p1031
aVno
p1032
aVhuman
p1033
aVbe
p1034
ag54
aVvisible
p1035
ag78
asg79
(lp1036
g81
ag81
ag81
ag81
ag81
ag81
ag81
ag81
ag81
ag81
ag81
ag81
ag81
ag81
ag81
ag81
ag81
ag81
ag81
ag81
ag81
ag81
ag81
ag81
ag81
ag81
ag81
ag81
ag81
ag81
ag81
ag81
ag81
ag81
ag81
ag81
ag81
ag81
ag81
ag81
ag81
ag81
asg82
(lp1037
g206
ag88
ag517
ag88
ag88
ag90
ag209
ag92
ag87
ag88
ag95
ag87
ag209
ag85
ag92
ag86
ag86
ag90
ag210
ag208
ag94
ag92
ag94
ag90
ag88
ag92
ag87
ag209
ag86
ag95
ag86
ag85
ag207
ag208
ag92
ag95
ag87
ag88
ag91
ag85
ag96
ag97
asg98
VHer father's castle lay in ruins, the town and the villages were, so far as could be seen, destroyed by fire, the fields far and wide laid to waste, and no human being was visible.
p1038
sba(i__main__
Sentence
p1039
(dp1040
g17
I15
sg18
(lp1041
S'When'
p1042
aS'the'
p1043
aS'opening'
p1044
aS'in'
p1045
aS'the'
p1046
aS'wall'
p1047
aS'was'
p1048
aS'large'
p1049
aS'enough'
p1050
aS'for'
p1051
aS'them'
p1052
aS'to'
p1053
aS'slip'
p1054
aS'through'
p1055
aS','
p1056
aS'the'
p1057
aS'waiting-maid'
p1058
aS'sprang'
p1059
aS'down'
p1060
aS'first'
p1061
aS','
p1062
aS'and'
p1063
aS'then'
p1064
aS'maid'
p1065
aS'maleen'
p1066
aS'followed'
p1067
aS'.'
p1068
asg51
(lp1069
VWhen
p1070
aVthe
p1071
aVopen
p1072
aVin
p1073
aVthe
p1074
aVwall
p1075
ag54
aVlarge
p1076
aVenough
p1077
aVfor
p1078
aVthem
p1079
aVto
p1080
aVslip
p1081
aVthrough
p1082
ag70
aVthe
p1083
aVwaiting-maid
p1084
aVsprang
p1085
aVdown
p1086
aVfirst
p1087
ag70
aVand
p1088
aVthen
p1089
aVmaid
p1090
aVmaleen
p1091
aVfollow
p1092
ag78
asg79
(lp1093
g81
ag81
ag81
ag81
ag81
ag81
ag81
ag81
ag81
ag81
ag81
ag81
ag81
ag81
ag81
ag81
ag81
ag81
ag81
ag81
ag81
ag81
ag81
ag81
ag81
ag81
ag81
asg82
(lp1094
g332
ag87
ag91
ag90
ag87
ag88
ag85
ag96
ag86
ag90
ag93
ag207
ag208
ag90
ag92
ag87
ag96
ag88
ag90
ag96
ag92
ag95
ag86
ag85
ag94
ag94
ag97
asg98
VWhen the opening in the wall was large enough for them to slip through, the waiting-maid sprang down first, and then maid maleen followed.
p1095
sba(i__main__
Sentence
p1096
(dp1097
g17
I16
sg18
(lp1098
S'But'
p1099
aS'where'
p1100
aS'were'
p1101
aS'they'
p1102
aS'to'
p1103
aS'go'
p1104
aS'.'
p1105
asg51
(lp1106
VBut
p1107
aVwhere
p1108
ag386
aVthey
p1109
aVto
p1110
aVgo
p1111
ag78
asg79
(lp1112
g81
ag81
ag81
ag81
ag81
ag81
ag81
asg82
(lp1113
g95
ag332
ag85
ag93
ag207
ag208
ag97
asg98
VBut where were they to go.
p1114
sba(i__main__
Sentence
p1115
(dp1116
g17
I17
sg18
(lp1117
S'The'
p1118
aS'enemy'
p1119
aS'had'
p1120
aS'ravaged'
p1121
aS'the'
p1122
aS'whole'
p1123
aS'kingdom'
p1124
aS','
p1125
aS'driven'
p1126
aS'away'
p1127
aS'the'
p1128
aS'king'
p1129
aS','
p1130
aS'and'
p1131
aS'slain'
p1132
aS'all'
p1133
aS'the'
p1134
aS'inhabitants'
p1135
aS'.'
p1136
asg51
(lp1137
VThe
p1138
aVenemy
p1139
ag59
aVravage
p1140
aVthe
p1141
aVwhole
p1142
aVkingdom
p1143
ag70
aVdriven
p1144
aVaway
p1145
aVthe
p1146
aVking
p1147
ag70
aVand
p1148
aVslay
p1149
aVall
p1150
aVthe
p1151
aVinhabitant
p1152
ag78
asg79
(lp1153
g81
ag81
ag81
ag81
ag81
ag81
ag81
ag81
ag81
ag81
ag81
ag81
ag81
ag81
ag81
ag81
ag81
ag81
ag81
asg82
(lp1154
g87
ag88
ag85
ag94
ag87
ag96
ag88
ag92
ag86
ag86
ag87
ag88
ag92
ag95
ag208
ag87
ag87
ag209
ag97
asg98
VThe enemy had ravaged the whole kingdom, driven away the king, and slain all the inhabitants.
p1155
sba(i__main__
Sentence
p1156
(dp1157
g17
I18
sg18
(lp1158
S'They'
p1159
aS'wandered'
p1160
aS'forth'
p1161
aS'to'
p1162
aS'seek'
p1163
aS'another'
p1164
aS'country'
p1165
aS','
p1166
aS'but'
p1167
aS'nowhere'
p1168
aS'did'
p1169
aS'they'
p1170
aS'find'
p1171
aS'a'
p1172
aS'shelter'
p1173
aS','
p1174
aS'or'
p1175
aS'a'
p1176
aS'human'
p1177
aS'being'
p1178
aS'to'
p1179
aS'give'
p1180
aS'them'
p1181
aS'a'
p1182
aS'mouthful'
p1183
aS'of'
p1184
aS'bread'
p1185
aS','
p1186
aS'and'
p1187
aS'their'
p1188
aS'need'
p1189
aS'was'
p1190
aS'so'
p1191
aS'great'
p1192
aS'that'
p1193
aS'they'
p1194
aS'were'
p1195
aS'forced'
p1196
aS'to'
p1197
aS'appease'
p1198
aS'their'
p1199
aS'hunger'
p1200
aS'with'
p1201
aS'nettles'
p1202
aS'.'
p1203
asg51
(lp1204
VThey
p1205
aVwander
p1206
aVforth
p1207
aVto
p1208
aVseek
p1209
aVanother
p1210
aVcountry
p1211
ag70
aVbut
p1212
aVnowhere
p1213
aVdo
p1214
aVthey
p1215
aVfind
p1216
ag56
aVshelter
p1217
ag70
aVor
p1218
ag56
aVhuman
p1219
aVbe
p1220
aVto
p1221
aVgive
p1222
aVthem
p1223
ag56
aVmouthful
p1224
aVof
p1225
aVbread
p1226
ag70
aVand
p1227
aVtheir
p1228
aVneed
p1229
ag54
aVso
p1230
aVgreat
p1231
aVthat
p1232
aVthey
p1233
ag386
aVforce
p1234
aVto
p1235
aVappease
p1236
aVtheir
p1237
aVhunger
p1238
aVwith
p1239
aVnettle
p1240
ag78
asg79
(lp1241
g81
ag81
ag81
ag81
ag81
ag81
ag81
ag81
ag81
ag81
ag81
ag81
ag81
ag81
ag81
ag81
ag81
ag81
ag81
ag81
ag81
ag81
ag81
ag81
ag81
ag81
ag81
ag81
ag81
ag81
ag81
ag81
ag81
ag81
ag81
ag81
ag81
ag81
ag81
ag81
ag81
ag81
ag81
ag81
ag81
asg82
(lp1242
g93
ag85
ag96
ag207
ag208
ag87
ag88
ag92
ag95
ag86
ag85
ag93
ag456
ag87
ag88
ag92
ag95
ag87
ag96
ag91
ag207
ag208
ag93
ag87
ag96
ag90
ag88
ag92
ag95
ag206
ag88
ag85
ag86
ag96
ag90
ag93
ag85
ag94
ag207
ag208
ag206
ag88
ag90
ag209
ag97
asg98
VThey wandered forth to seek another country, but nowhere did they find a shelter, or a human being to give them a mouthful of bread, and their need was so great that they were forced to appease their hunger with nettles.
p1243
sba(i__main__
Sentence
p1244
(dp1245
g17
I19
sg18
(lp1246
S'When'
p1247
aS','
p1248
aS'after'
p1249
aS'long'
p1250
aS'journeying'
p1251
aS','
p1252
aS'they'
p1253
aS'came'
p1254
aS'into'
p1255
aS'another'
p1256
aS'country'
p1257
aS','
p1258
aS'they'
p1259
aS'tried'
p1260
aS'to'
p1261
aS'get'
p1262
aS'work'
p1263
aS'everywhere'
p1264
aS','
p1265
aS'but'
p1266
aS'wherever'
p1267
aS'they'
p1268
aS'knocked'
p1269
aS'they'
p1270
aS'were'
p1271
aS'turned'
p1272
aS'away'
p1273
aS','
p1274
aS'and'
p1275
aS'no'
p1276
aS'one'
p1277
aS'would'
p1278
aS'have'
p1279
aS'pity'
p1280
aS'on'
p1281
aS'them'
p1282
aS'.'
p1283
asg51
(lp1284
VWhen
p1285
ag70
aVafter
p1286
aVlong
p1287
aVjourney
p1288
ag70
aVthey
p1289
aVcome
p1290
aVinto
p1291
aVanother
p1292
aVcountry
p1293
ag70
aVthey
p1294
aVtry
p1295
aVto
p1296
aVget
p1297
aVwork
p1298
aVeverywhere
p1299
ag70
aVbut
p1300
aVwherever
p1301
aVthey
p1302
aVknock
p1303
aVthey
p1304
ag386
aVturn
p1305
aVaway
p1306
ag70
aVand
p1307
aVno
p1308
aVone
p1309
aVwould
p1310
aVhave
p1311
aVpity
p1312
aVon
p1313
aVthem
p1314
ag78
asg79
(lp1315
g81
ag81
ag81
ag81
ag81
ag81
ag81
ag81
ag81
ag81
ag81
ag81
ag81
ag81
ag81
ag81
ag81
ag81
ag81
ag81
ag81
ag81
ag81
ag81
ag81
ag81
ag81
ag81
ag81
ag81
ag81
ag81
ag81
ag81
ag81
ag81
ag81
asg82
(lp1316
g332
ag92
ag90
ag86
ag91
ag92
ag93
ag85
ag90
ag87
ag88
ag92
ag93
ag85
ag207
ag208
ag88
ag86
ag92
ag95
ag86
ag93
ag85
ag93
ag85
ag94
ag86
ag92
ag95
ag87
ag88
ag210
ag208
ag88
ag90
ag93
ag97
asg98
VWhen, after long journeying, they came into another country, they tried to get work everywhere, but wherever they knocked they were turned away, and no one would have pity on them.
p1317
sba(i__main__
Sentence
p1318
(dp1319
g17
I20
sg18
(lp1320
S'At'
p1321
aS'last'
p1322
aS'they'
p1323
aS'arrived'
p1324
aS'in'
p1325
aS'a'
p1326
aS'large'
p1327
aS'city'
p1328
aS'and'
p1329
aS'went'
p1330
aS'to'
p1331
aS'the'
p1332
aS'royal'
p1333
aS'palace'
p1334
aS'.'
p1335
asg51
(lp1336
VAt
p1337
aVlast
p1338
aVthey
p1339
aVarrive
p1340
aVin
p1341
ag56
aVlarge
p1342
aVcity
p1343
aVand
p1344
ag495
aVto
p1345
aVthe
p1346
aVroyal
p1347
aVpalace
p1348
ag78
asg79
(lp1349
g81
ag81
ag81
ag81
ag81
ag81
ag81
ag81
ag81
ag81
ag81
ag81
ag81
ag81
ag81
asg82
(lp1350
g90
ag96
ag93
ag85
ag90
ag87
ag96
ag88
ag95
ag85
ag207
ag87
ag88
ag88
ag97
asg98
VAt last they arrived in a large city and went to the royal palace.
p1351
sba(i__main__
Sentence
p1352
(dp1353
g17
I21
sg18
(lp1354
S'There'
p1355
aS'also'
p1356
aS'they'
p1357
aS'were'
p1358
aS'ordered'
p1359
aS'to'
p1360
aS'go'
p1361
aS'away'
p1362
aS','
p1363
aS'but'
p1364
aS'at'
p1365
aS'last'
p1366
aS'the'
p1367
aS'cook'
p1368
aS'said'
p1369
aS'that'
p1370
aS'they'
p1371
aS'might'
p1372
aS'stay'
p1373
aS'in'
p1374
aS'the'
p1375
aS'kitchen'
p1376
aS'and'
p1377
aS'be'
p1378
aS'scullions'
p1379
aS'.'
p1380
asg51
(lp1381
VThere
p1382
aValso
p1383
aVthey
p1384
ag386
aVorder
p1385
aVto
p1386
aVgo
p1387
aVaway
p1388
ag70
aVbut
p1389
aVat
p1390
aVlast
p1391
aVthe
p1392
aVcook
p1393
ag190
aVthat
p1394
aVthey
p1395
aVmight
p1396
aVstay
p1397
aVin
p1398
aVthe
p1399
aVkitchen
p1400
aVand
p1401
aVbe
p1402
aVscullion
p1403
ag78
asg79
(lp1404
g81
ag81
ag81
ag81
ag81
ag81
ag81
ag81
ag81
ag81
ag81
ag81
ag81
ag81
ag81
ag81
ag81
ag81
ag81
ag81
ag81
ag81
ag81
ag81
ag81
ag81
asg82
(lp1405
g84
ag86
ag93
ag85
ag94
ag207
ag208
ag86
ag92
ag95
ag90
ag96
ag87
ag88
ag85
ag90
ag93
ag210
ag208
ag90
ag87
ag88
ag95
ag208
ag209
ag97
asg98
VThere also they were ordered to go away, but at last the cook said that they might stay in the kitchen and be scullions.
p1406
sba(i__main__
Sentence
p1407
(dp1408
g17
I22
sg18
(lp1409
S'The'
p1410
aS'son'
p1411
aS'of'
p1412
aS'the'
p1413
aS'king'
p1414
aS'in'
p1415
aS'whose'
p1416
aS'kingdom'
p1417
aS'they'
p1418
aS'were'
p1419
aS','
p1420
aS'however'
p1421
aS','
p1422
aS'was'
p1423
aS'the'
p1424
aS'very'
p1425
aS'man'
p1426
aS'who'
p1427
aS'had'
p1428
aS'been'
p1429
aS'betrothed'
p1430
aS'to'
p1431
aS'maid'
p1432
aS'maleen'
p1433
aS'.'
p1434
asg51
(lp1435
VThe
p1436
aVson
p1437
aVof
p1438
aVthe
p1439
aVking
p1440
aVin
p1441
aVwhose
p1442
aVkingdom
p1443
aVthey
p1444
ag386
ag70
aVhowever
p1445
ag70
ag54
aVthe
p1446
aVvery
p1447
aVman
p1448
aVwho
p1449
ag59
aVbe
p1450
aVbetroth
p1451
aVto
p1452
aVmaid
p1453
aVmaleen
p1454
ag78
asg79
(lp1455
g81
ag81
ag81
ag81
ag81
ag81
ag81
ag81
ag81
ag81
ag81
ag81
ag81
ag81
ag81
ag81
ag81
ag81
ag81
ag81
ag81
ag81
ag81
ag81
ag81
asg82
(lp1456
g87
ag88
ag90
ag87
ag88
ag90
aS'WP$'
p1457
ag88
ag93
ag85
ag92
ag86
ag92
ag85
ag87
ag96
ag88
ag89
ag85
ag94
ag94
ag207
ag208
ag94
ag97
asg98
VThe son of the king in whose kingdom they were, however, was the very man who had been betrothed to maid maleen.
p1458
sba(i__main__
Sentence
p1459
(dp1460
g17
I23
sg18
(lp1461
S'His'
p1462
aS'father'
p1463
aS'had'
p1464
aS'chosen'
p1465
aS'another'
p1466
aS'bride'
p1467
aS'for'
p1468
aS'him'
p1469
aS','
p1470
aS'whose'
p1471
aS'face'
p1472
aS'was'
p1473
aS'as'
p1474
aS'ugly'
p1475
aS'as'
p1476
aS'her'
p1477
aS'heart'
p1478
aS'was'
p1479
aS'wicked'
p1480
aS'.'
p1481
asg51
(lp1482
VHis
p1483
aVfather
p1484
ag59
aVchoose
p1485
aVanother
p1486
aVbride
p1487
aVfor
p1488
aVhim
p1489
ag70
aVwhose
p1490
aVface
p1491
ag54
ag56
aVugly
p1492
ag56
aVher
p1493
aVheart
p1494
ag54
aVwicked
p1495
ag78
asg79
(lp1496
g81
ag81
ag81
ag81
ag81
ag81
ag81
ag81
ag81
ag81
ag81
ag81
ag81
ag81
ag81
ag81
ag81
ag81
ag81
ag81
asg82
(lp1497
g206
ag88
ag85
ag94
ag87
ag88
ag90
ag93
ag92
ag1457
ag88
ag85
ag90
ag86
ag90
ag206
ag88
ag85
ag94
ag97
asg98
VHis father had chosen another bride for him, whose face was as ugly as her heart was wicked.
p1498
sba(i__main__
Sentence
p1499
(dp1500
g17
I24
sg18
(lp1501
S'The'
p1502
aS'wedding'
p1503
aS'was'
p1504
aS'fixed'
p1505
aS','
p1506
aS'and'
p1507
aS'the'
p1508
aS'maiden'
p1509
aS'had'
p1510
aS'already'
p1511
aS'arrived'
p1512
aS','
p1513
aS'but'
p1514
aS'because'
p1515
aS'of'
p1516
aS'her'
p1517
aS'great'
p1518
aS'ugliness'
p1519
aS'she'
p1520
aS'shut'
p1521
aS'herself'
p1522
aS'in'
p1523
aS'her'
p1524
aS'room'
p1525
aS','
p1526
aS'and'
p1527
aS'allowed'
p1528
aS'no'
p1529
aS'one'
p1530
aS'to'
p1531
aS'see'
p1532
aS'her'
p1533
aS','
p1534
aS'and'
p1535
aS'maid'
p1536
aS'maleen'
p1537
aS'had'
p1538
aS'to'
p1539
aS'take'
p1540
aS'her'
p1541
aS'her'
p1542
aS'meals'
p1543
aS'from'
p1544
aS'the'
p1545
aS'kitchen'
p1546
aS'.'
p1547
asg51
(lp1548
VThe
p1549
aVwedding
p1550
ag54
aVfix
p1551
ag70
aVand
p1552
aVthe
p1553
aVmaiden
p1554
ag59
aValready
p1555
aVarrive
p1556
ag70
aVbut
p1557
aVbecause
p1558
aVof
p1559
aVher
p1560
aVgreat
p1561
aVugliness
p1562
aVshe
p1563
aVshut
p1564
aVherself
p1565
aVin
p1566
aVher
p1567
aVroom
p1568
ag70
aVand
p1569
aVallow
p1570
aVno
p1571
aVone
p1572
aVto
p1573
aVsee
p1574
aVher
p1575
ag70
aVand
p1576
aVmaid
p1577
aVmaleen
p1578
ag59
aVto
p1579
aVtake
p1580
aVher
p1581
aVher
p1582
aVmeal
p1583
aVfrom
p1584
aVthe
p1585
aVkitchen
p1586
ag78
asg79
(lp1587
g81
ag81
ag81
ag81
ag81
ag81
ag81
ag81
ag81
ag81
ag81
ag81
ag81
ag81
ag81
ag81
ag81
ag81
ag81
ag81
ag81
ag81
ag81
ag81
ag81
ag81
ag81
ag81
ag81
ag81
ag81
ag81
ag81
ag81
ag81
ag81
ag81
ag81
ag81
ag81
ag81
ag81
ag81
ag81
ag81
ag81
asg82
(lp1588
g87
ag88
ag85
ag94
ag92
ag95
ag87
ag88
ag85
ag86
ag94
ag92
ag95
ag90
ag90
ag206
ag96
ag88
ag93
ag85
ag93
ag90
ag206
ag88
ag92
ag95
ag85
ag87
ag88
ag207
ag208
ag93
ag92
ag95
ag85
ag94
ag85
ag207
ag208
ag206
ag93
ag209
ag90
ag87
ag88
ag97
asg98
VThe wedding was fixed, and the maiden had already arrived, but because of her great ugliness she shut herself in her room, and allowed no one to see her, and maid maleen had to take her her meals from the kitchen.
p1589
sba(i__main__
Sentence
p1590
(dp1591
g17
I25
sg18
(lp1592
S'When'
p1593
aS'the'
p1594
aS'day'
p1595
aS'came'
p1596
aS'for'
p1597
aS'the'
p1598
aS'bride'
p1599
aS'and'
p1600
aS'the'
p1601
aS'bridegroom'
p1602
aS'to'
p1603
aS'go'
p1604
aS'to'
p1605
aS'church'
p1606
aS','
p1607
aS'she'
p1608
aS'was'
p1609
aS'ashamed'
p1610
aS'of'
p1611
aS'her'
p1612
aS'ugliness'
p1613
aS','
p1614
aS'and'
p1615
aS'afraid'
p1616
aS'that'
p1617
aS'if'
p1618
aS'she'
p1619
aS'showed'
p1620
aS'herself'
p1621
aS'in'
p1622
aS'the'
p1623
aS'streets'
p1624
aS','
p1625
aS'she'
p1626
aS'would'
p1627
aS'be'
p1628
aS'mocked'
p1629
aS'and'
p1630
aS'laughed'
p1631
aS'at'
p1632
aS'by'
p1633
aS'the'
p1634
aS'people'
p1635
aS'.'
p1636
asg51
(lp1637
VWhen
p1638
aVthe
p1639
aVday
p1640
ag1290
aVfor
p1641
aVthe
p1642
aVbride
p1643
aVand
p1644
aVthe
p1645
aVbridegroom
p1646
aVto
p1647
aVgo
p1648
aVto
p1649
aVchurch
p1650
ag70
aVshe
p1651
ag54
aVashamed
p1652
aVof
p1653
aVher
p1654
aVugliness
p1655
ag70
aVand
p1656
aVafraid
p1657
aVthat
p1658
aVif
p1659
aVshe
p1660
aVshow
p1661
aVherself
p1662
aVin
p1663
aVthe
p1664
aVstreet
p1665
ag70
aVshe
p1666
aVwould
p1667
aVbe
p1668
aVmock
p1669
aVand
p1670
aVlaugh
p1671
aVat
p1672
aVby
p1673
aVthe
p1674
aVpeople
p1675
ag78
asg79
(lp1676
g81
ag81
ag81
ag81
ag81
ag81
ag81
ag81
ag81
ag81
ag81
ag81
ag81
ag81
ag81
ag81
ag81
ag81
ag81
ag81
ag81
ag81
ag81
ag81
ag81
ag81
ag81
ag81
ag81
ag81
ag81
ag81
ag81
ag81
ag81
ag81
ag81
ag81
ag81
ag81
ag81
ag81
ag81
ag81
asg82
(lp1677
g332
ag87
ag88
ag85
ag90
ag87
ag88
ag95
ag87
ag88
ag207
ag208
ag207
ag208
ag92
ag93
ag85
ag94
ag90
ag206
ag88
ag92
ag95
ag85
ag90
ag90
ag93
ag85
ag93
ag90
ag87
ag209
ag92
ag93
ag210
ag208
ag94
ag95
ag85
ag90
ag90
ag87
ag209
ag97
asg98
VWhen the day came for the bride and the bridegroom to go to church, she was ashamed of her ugliness, and afraid that if she showed herself in the streets, she would be mocked and laughed at by the people.
p1678
sba(i__main__
Sentence
p1679
(dp1680
g17
I26
sg18
(lp1681
S'Then'
p1682
aS'said'
p1683
aS'she'
p1684
aS'to'
p1685
aS'maid'
p1686
aS'maleen'
p1687
aS','
p1688
aS'a'
p1689
aS'great'
p1690
aS'piece'
p1691
aS'of'
p1692
aS'luck'
p1693
aS'has'
p1694
aS'befallen'
p1695
aS'you'
p1696
aS'.'
p1697
asg51
(lp1698
VThen
p1699
ag190
aVshe
p1700
aVto
p1701
aVmaid
p1702
aVmaleen
p1703
ag70
ag56
aVgreat
p1704
aVpiece
p1705
aVof
p1706
aVluck
p1707
aVhave
p1708
aVbefall
p1709
aVyou
p1710
ag78
asg79
(lp1711
g81
ag81
ag81
ag81
ag81
ag81
ag81
ag81
ag81
ag81
ag81
ag81
ag81
ag81
ag81
ag81
asg82
(lp1712
g86
ag85
ag93
ag207
ag208
ag94
ag92
ag87
ag96
ag88
ag90
ag88
ag334
ag94
ag93
ag97
asg98
VThen said she to maid maleen, a great piece of luck has befallen you.
p1713
sba(i__main__
Sentence
p1714
(dp1715
g17
I27
sg18
(lp1716
S'I'
p1717
aS'have'
p1718
aS'sprained'
p1719
aS'my'
p1720
aS'foot'
p1721
aS','
p1722
aS'and'
p1723
aS'can'
p1724
aS'not'
p1725
aS'well'
p1726
aS'walk'
p1727
aS'through'
p1728
aS'the'
p1729
aS'streets'
p1730
aS','
p1731
aS'you'
p1732
aS'shall'
p1733
aS'put'
p1734
aS'on'
p1735
aS'wedding-clothes'
p1736
aS'and'
p1737
aS'take'
p1738
aS'my'
p1739
aS'place'
p1740
aS','
p1741
aS'a'
p1742
aS'greater'
p1743
aS'honor'
p1744
aS'than'
p1745
aS'that'
p1746
aS'you'
p1747
aS'can'
p1748
aS'not'
p1749
aS'have'
p1750
aS'.'
p1751
asg51
(lp1752
g194
aVhave
p1753
aVsprain
p1754
aVmy
p1755
aVfoot
p1756
ag70
aVand
p1757
aVcan
p1758
aVnot
p1759
aVwell
p1760
aVwalk
p1761
aVthrough
p1762
aVthe
p1763
aVstreet
p1764
ag70
aVyou
p1765
aVshall
p1766
aVput
p1767
aVon
p1768
aVwedding-clothes
p1769
aVand
p1770
aVtake
p1771
aVmy
p1772
aVplace
p1773
ag70
ag56
aVgreat
p1774
aVhonor
p1775
aVthan
p1776
aVthat
p1777
aVyou
p1778
aVcan
p1779
aVnot
p1780
aVhave
p1781
ag78
asg79
(lp1782
g81
ag81
ag81
ag81
ag81
ag81
ag81
ag81
ag81
ag81
ag81
ag81
ag81
ag81
ag81
ag81
ag81
ag81
ag81
ag81
ag81
ag81
ag81
ag81
ag81
ag81
ag81
ag81
ag81
ag81
ag81
ag81
ag81
ag81
ag81
asg82
(lp1783
g93
ag456
ag94
ag206
ag88
ag92
ag95
ag210
ag86
ag86
ag456
ag90
ag87
ag209
ag92
ag93
ag210
ag208
ag90
ag209
ag95
ag208
ag206
ag88
ag92
ag87
aS'JJR'
p1784
ag88
ag90
ag87
ag93
ag210
ag86
ag208
ag97
asg98
VI have sprained my foot, and cannot well walk through the streets, you shall put on wedding-clothes and take my place, a greater honor than that you cannot have.
p1785
sba(i__main__
Sentence
p1786
(dp1787
g17
I28
sg18
(lp1788
S'Maid'
p1789
aS'maleen'
p1790
aS','
p1791
aS'however'
p1792
aS','
p1793
aS'refused'
p1794
aS'it'
p1795
aS','
p1796
aS'and'
p1797
aS'said'
p1798
aS','
p1799
aS'I'
p1800
aS'wish'
p1801
aS'for'
p1802
aS'no'
p1803
aS'honor'
p1804
aS'which'
p1805
aS'is'
p1806
aS'not'
p1807
aS'suitable'
p1808
aS'for'
p1809
aS'me'
p1810
aS'.'
p1811
asg51
(lp1812
VMaid
p1813
aVmaleen
p1814
ag70
aVhowever
p1815
ag70
aVrefuse
p1816
aVit
p1817
ag70
aVand
p1818
ag190
ag70
ag194
aVwish
p1819
aVfor
p1820
aVno
p1821
aVhonor
p1822
aVwhich
p1823
ag328
aVnot
p1824
aVsuitable
p1825
aVfor
p1826
aVme
p1827
ag78
asg79
(lp1828
g81
ag81
ag81
ag81
ag81
ag81
ag81
ag81
ag81
ag81
ag81
ag81
ag81
ag81
ag81
ag81
ag81
ag81
ag81
ag81
ag81
ag81
ag81
asg82
(lp1829
g417
ag85
ag92
ag86
ag92
ag85
ag93
ag92
ag95
ag85
ag92
ag93
ag456
ag90
ag87
ag88
ag269
ag334
ag86
ag96
ag90
ag93
ag97
asg98
VMaid maleen, however, refused it, and said, I wish for no honor which is not suitable for me.
p1830
sba(i__main__
Sentence
p1831
(dp1832
g17
I29
sg18
(lp1833
S'It'
p1834
aS'was'
p1835
aS'in'
p1836
aS'vain'
p1837
aS','
p1838
aS'too'
p1839
aS','
p1840
aS'that'
p1841
aS'the'
p1842
aS'bride'
p1843
aS'offered'
p1844
aS'her'
p1845
aS'gold'
p1846
aS'.'
p1847
asg51
(lp1848
VIt
p1849
ag54
aVin
p1850
aVvain
p1851
ag70
aVtoo
p1852
ag70
aVthat
p1853
aVthe
p1854
aVbride
p1855
aVoffer
p1856
aVher
p1857
aVgold
p1858
ag78
asg79
(lp1859
g81
ag81
ag81
ag81
ag81
ag81
ag81
ag81
ag81
ag81
ag81
ag81
ag81
ag81
asg82
(lp1860
g93
ag85
ag90
ag88
ag92
ag86
ag92
ag90
ag87
ag88
ag85
ag93
ag88
ag97
asg98
VIt was in vain, too, that the bride offered her gold.
p1861
sba(i__main__
Sentence
p1862
(dp1863
g17
I30
sg18
(lp1864
S'At'
p1865
aS'last'
p1866
aS'she'
p1867
aS'said'
p1868
aS'angrily'
p1869
aS','
p1870
aS'if'
p1871
aS'you'
p1872
aS'do'
p1873
aS'not'
p1874
aS'obey'
p1875
aS'me'
p1876
aS','
p1877
aS'it'
p1878
aS'shall'
p1879
aS'cost'
p1880
aS'you'
p1881
aS'your'
p1882
aS'life'
p1883
aS'.'
p1884
asg51
(lp1885
VAt
p1886
aVlast
p1887
aVshe
p1888
ag190
aVangrily
p1889
ag70
aVif
p1890
aVyou
p1891
aVdo
p1892
aVnot
p1893
aVobey
p1894
aVme
p1895
ag70
aVit
p1896
aVshall
p1897
aVcost
p1898
aVyou
p1899
aVyour
p1900
aVlife
p1901
ag78
asg79
(lp1902
g81
ag81
ag81
ag81
ag81
ag81
ag81
ag81
ag81
ag81
ag81
ag81
ag81
ag81
ag81
ag81
ag81
ag81
ag81
ag81
asg82
(lp1903
g90
ag96
ag93
ag85
ag86
ag92
ag90
ag93
ag456
ag86
ag208
ag93
ag92
ag93
ag210
ag208
ag93
ag206
ag88
ag97
asg98
VAt last she said angrily, if you do not obey me, it shall cost you your life.
p1904
sba(i__main__
Sentence
p1905
(dp1906
g17
I31
sg18
(lp1907
S'I'
p1908
aS'have'
p1909
aS'but'
p1910
aS'to'
p1911
aS'speak'
p1912
aS'the'
p1913
aS'word'
p1914
aS','
p1915
aS'and'
p1916
aS'your'
p1917
aS'head'
p1918
aS'will'
p1919
aS'lie'
p1920
aS'at'
p1921
aS'your'
p1922
aS'feet'
p1923
aS'.'
p1924
asg51
(lp1925
g194
aVhave
p1926
aVbut
p1927
aVto
p1928
aVspeak
p1929
aVthe
p1930
aVword
p1931
ag70
aVand
p1932
aVyour
p1933
aVhead
p1934
aVwill
p1935
aVlie
p1936
aVat
p1937
aVyour
p1938
aVfoot
p1939
ag78
asg79
(lp1940
g81
ag81
ag81
ag81
ag81
ag81
ag81
ag81
ag81
ag81
ag81
ag81
ag81
ag81
ag81
ag81
ag81
asg82
(lp1941
g93
ag456
ag95
ag207
ag208
ag87
ag88
ag92
ag95
ag206
ag88
ag210
ag208
ag90
ag206
ag209
ag97
asg98
VI have but to speak the word, and your head will lie at your feet.
p1942
sba(i__main__
Sentence
p1943
(dp1944
g17
I32
sg18
(lp1945
S'Then'
p1946
aS'she'
p1947
aS'was'
p1948
aS'forced'
p1949
aS'to'
p1950
aS'obey'
p1951
aS','
p1952
aS'and'
p1953
aS'put'
p1954
aS'on'
p1955
aS'the'
p1956
aS'bride'
p1957
aS"'s"
p1958
aS'magnificent'
p1959
aS'clothes'
p1960
aS'and'
p1961
aS'all'
p1962
aS'her'
p1963
aS'jewels'
p1964
aS'.'
p1965
asg51
(lp1966
VThen
p1967
aVshe
p1968
ag54
aVforce
p1969
aVto
p1970
aVobey
p1971
ag70
aVand
p1972
aVput
p1973
aVon
p1974
aVthe
p1975
aVbride
p1976
aV's
p1977
aVmagnificent
p1978
aVclothes
p1979
aVand
p1980
aVall
p1981
aVher
p1982
aVjewel
p1983
ag78
asg79
(lp1984
g81
ag81
ag81
ag81
ag81
ag81
ag81
ag81
ag81
ag81
ag81
ag81
ag81
ag81
ag81
ag81
ag81
ag81
ag81
ag81
asg82
(lp1985
g86
ag93
ag85
ag94
ag207
ag208
ag92
ag95
ag85
ag90
ag87
ag88
ag517
ag88
ag209
ag95
ag87
ag206
ag209
ag97
asg98
VThen she was forced to obey, and put on the bride's magnificent clothes and all her jewels.
p1986
sba(i__main__
Sentence
p1987
(dp1988
g17
I33
sg18
(lp1989
S'When'
p1990
aS'she'
p1991
aS'entered'
p1992
aS'the'
p1993
aS'royal'
p1994
aS'hall'
p1995
aS','
p1996
aS'every'
p1997
aS'one'
p1998
aS'was'
p1999
aS'amazed'
p2000
aS'at'
p2001
aS'her'
p2002
aS'great'
p2003
aS'beauty'
p2004
aS','
p2005
aS'and'
p2006
aS'the'
p2007
aS'king'
p2008
aS'said'
p2009
aS'to'
p2010
aS'his'
p2011
aS'son'
p2012
aS','
p2013
aS'this'
p2014
aS'is'
p2015
aS'the'
p2016
aS'bride'
p2017
aS'whom'
p2018
aS'I'
p2019
aS'have'
p2020
aS'chosen'
p2021
aS'for'
p2022
aS'you'
p2023
aS','
p2024
aS'and'
p2025
aS'whom'
p2026
aS'you'
p2027
aS'must'
p2028
aS'lead'
p2029
aS'to'
p2030
aS'church'
p2031
aS'.'
p2032
asg51
(lp2033
VWhen
p2034
aVshe
p2035
aVenter
p2036
aVthe
p2037
aVroyal
p2038
aVhall
p2039
ag70
aVevery
p2040
aVone
p2041
ag54
aVamaze
p2042
aVat
p2043
aVher
p2044
aVgreat
p2045
aVbeauty
p2046
ag70
aVand
p2047
aVthe
p2048
aVking
p2049
ag190
aVto
p2050
aVhis
p2051
aVson
p2052
ag70
aVthis
p2053
ag328
aVthe
p2054
aVbride
p2055
aVwhom
p2056
ag194
aVhave
p2057
ag1485
aVfor
p2058
aVyou
p2059
ag70
aVand
p2060
aVwhom
p2061
aVyou
p2062
aVmust
p2063
aVlead
p2064
aVto
p2065
aVchurch
p2066
ag78
asg79
(lp2067
g81
ag81
ag81
ag81
ag81
ag81
ag81
ag81
ag81
ag81
ag81
ag81
ag81
ag81
ag81
ag81
ag81
ag81
ag81
ag81
ag81
ag81
ag81
ag81
ag81
ag81
ag81
ag81
ag81
ag81
ag81
ag81
ag81
ag81
ag81
ag81
ag81
ag81
ag81
ag81
ag81
ag81
ag81
asg82
(lp2068
g332
ag93
ag85
ag87
ag96
ag88
ag92
ag87
ag333
ag85
ag94
ag90
ag206
ag96
ag88
ag92
ag95
ag87
ag88
ag85
ag207
ag206
ag88
ag92
ag87
ag334
ag87
ag88
ag89
ag93
ag456
ag94
ag90
ag93
ag92
ag95
ag89
ag93
ag210
ag208
ag207
ag88
ag97
asg98
VWhen she entered the royal hall, every one was amazed at her great beauty, and the king said to his son, this is the bride whom I have chosen for you, and whom you must lead to church.
p2069
sba(i__main__
Sentence
p2070
(dp2071
g17
I34
sg18
(lp2072
S'The'
p2073
aS'bridegroom'
p2074
aS'was'
p2075
aS'astonished'
p2076
aS','
p2077
aS'and'
p2078
aS'thought'
p2079
aS','
p2080
aS'she'
p2081
aS'is'
p2082
aS'like'
p2083
aS'my'
p2084
aS'maid'
p2085
aS'maleen'
p2086
aS','
p2087
aS'and'
p2088
aS'I'
p2089
aS'should'
p2090
aS'believe'
p2091
aS'that'
p2092
aS'it'
p2093
aS'was'
p2094
aS'she'
p2095
aS'herself'
p2096
aS','
p2097
aS'but'
p2098
aS'she'
p2099
aS'has'
p2100
aS'long'
p2101
aS'been'
p2102
aS'shut'
p2103
aS'up'
p2104
aS'in'
p2105
aS'the'
p2106
aS'tower'
p2107
aS','
p2108
aS'or'
p2109
aS'dead'
p2110
aS'.'
p2111
asg51
(lp2112
VThe
p2113
aVbridegroom
p2114
ag54
aVastonish
p2115
ag70
aVand
p2116
ag643
ag70
aVshe
p2117
ag328
aVlike
p2118
aVmy
p2119
aVmaid
p2120
aVmaleen
p2121
ag70
aVand
p2122
ag194
aVshould
p2123
aVbelieve
p2124
aVthat
p2125
aVit
p2126
ag54
aVshe
p2127
aVherself
p2128
ag70
aVbut
p2129
aVshe
p2130
ag1708
aVlong
p2131
ag1450
aVshut
p2132
aVup
p2133
aVin
p2134
aVthe
p2135
aVtower
p2136
ag70
aVor
p2137
aVdead
p2138
ag78
asg79
(lp2139
g81
ag81
ag81
ag81
ag81
ag81
ag81
ag81
ag81
ag81
ag81
ag81
ag81
ag81
ag81
ag81
ag81
ag81
ag81
ag81
ag81
ag81
ag81
ag81
ag81
ag81
ag81
ag81
ag81
ag81
ag81
ag81
ag81
ag81
ag81
ag81
ag81
ag81
ag81
asg82
(lp2140
g87
ag88
ag85
ag94
ag92
ag95
ag85
ag92
ag93
ag334
ag90
ag206
ag88
ag88
ag92
ag95
ag93
ag210
ag208
ag90
ag93
ag85
ag93
ag93
ag92
ag95
ag93
ag334
ag86
ag94
ag94
ag418
ag90
ag87
ag88
ag92
ag95
ag208
ag97
asg98
VThe bridegroom was astonished, and thought, she is like my maid maleen, and I should believe that it was she herself, but she has long been shut up in the tower, or dead.
p2141
sba(i__main__
Sentence
p2142
(dp2143
g17
I35
sg18
(lp2144
S'He'
p2145
aS'took'
p2146
aS'her'
p2147
aS'by'
p2148
aS'the'
p2149
aS'hand'
p2150
aS'and'
p2151
aS'led'
p2152
aS'her'
p2153
aS'to'
p2154
aS'church'
p2155
aS'.'
p2156
asg51
(lp2157
VHe
p2158
ag789
aVher
p2159
aVby
p2160
aVthe
p2161
aVhand
p2162
aVand
p2163
ag398
aVher
p2164
aVto
p2165
aVchurch
p2166
ag78
asg79
(lp2167
g81
ag81
ag81
ag81
ag81
ag81
ag81
ag81
ag81
ag81
ag81
ag81
asg82
(lp2168
g93
ag85
ag93
ag90
ag87
ag88
ag95
ag85
ag93
ag207
ag88
ag97
asg98
VHe took her by the hand and led her to church.
p2169
sba(i__main__
Sentence
p2170
(dp2171
g17
I36
sg18
(lp2172
S'On'
p2173
aS'the'
p2174
aS'way'
p2175
aS'was'
p2176
aS'a'
p2177
aS'nettle-plant'
p2178
aS','
p2179
aS'and'
p2180
aS'she'
p2181
aS'said'
p2182
aS','
p2183
aS'oh'
p2184
aS','
p2185
aS'nettle-plant'
p2186
aS','
p2187
aS'little'
p2188
aS'nettle-plant'
p2189
aS','
p2190
aS'what'
p2191
aS'dost'
p2192
aS'thou'
p2193
aS'here'
p2194
aS'alone'
p2195
aS'.'
p2196
asg51
(lp2197
VOn
p2198
aVthe
p2199
aVway
p2200
ag54
ag56
aVnettle-plant
p2201
ag70
aVand
p2202
aVshe
p2203
ag190
ag70
aVoh
p2204
ag70
aVnettle-plant
p2205
ag70
aVlittle
p2206
aVnettle-plant
p2207
ag70
aVwhat
p2208
aVdost
p2209
aVthou
p2210
aVhere
p2211
aValone
p2212
ag78
asg79
(lp2213
g81
ag81
ag81
ag81
ag81
ag81
ag81
ag81
ag81
ag81
ag81
ag81
ag81
ag81
ag81
ag81
ag81
ag81
ag81
ag81
ag81
ag81
ag81
ag81
asg82
(lp2214
g90
ag87
ag88
ag85
ag87
ag96
ag92
ag95
ag93
ag85
ag92
ag88
ag92
ag96
ag92
ag96
ag96
ag92
ag89
ag86
ag456
ag86
ag86
ag97
asg98
VOn the way was a nettle-plant, and she said,      oh, nettle-plant,      little nettle-plant,      what dost thou here alone.
p2215
sba(i__main__
Sentence
p2216
(dp2217
g17
I37
sg18
(lp2218
S'I'
p2219
aS'have'
p2220
aS'known'
p2221
aS'the'
p2222
aS'time'
p2223
aS'when'
p2224
aS'I'
p2225
aS'ate'
p2226
aS'thee'
p2227
aS'unboiled'
p2228
aS'when'
p2229
aS'I'
p2230
aS'ate'
p2231
aS'thee'
p2232
aS'unroasted'
p2233
aS'.'
p2234
asg51
(lp2235
g194
aVhave
p2236
aVknow
p2237
aVthe
p2238
aVtime
p2239
aVwhen
p2240
ag194
aVeat
p2241
aVthee
p2242
aVunboiled
p2243
aVwhen
p2244
ag194
ag2241
aVthee
p2245
aVunroasted
p2246
ag78
asg79
(lp2247
g81
ag81
ag81
ag81
ag81
ag81
ag81
ag81
ag81
ag81
ag81
ag81
ag81
ag81
ag81
ag81
asg82
(lp2248
g93
ag456
ag94
ag87
ag88
ag332
ag93
ag456
ag96
ag94
ag332
ag93
ag456
ag96
ag94
ag97
asg98
VI have known the time      when I ate thee unboiled      when I ate thee unroasted.
p2249
sba(i__main__
Sentence
p2250
(dp2251
g17
I38
sg18
(lp2252
S'What'
p2253
aS'are'
p2254
aS'you'
p2255
aS'saying'
p2256
aS','
p2257
aS'asked'
p2258
aS'the'
p2259
aS'king'
p2260
aS"'s"
p2261
aS'son'
p2262
aS'.'
p2263
asg51
(lp2264
VWhat
p2265
aVbe
p2266
aVyou
p2267
aVsay
p2268
ag70
aVask
p2269
aVthe
p2270
aVking
p2271
aV's
p2272
aVson
p2273
ag78
asg79
(lp2274
g81
ag81
ag81
ag81
ag81
ag81
ag81
ag81
ag81
ag81
ag81
asg82
(lp2275
g89
ag456
ag93
ag91
ag92
ag85
ag87
ag88
ag517
ag88
ag97
asg98
VWhat are you saying, asked the king's son.
p2276
sba(i__main__
Sentence
p2277
(dp2278
g17
I39
sg18
(lp2279
S'Nothing'
p2280
aS','
p2281
aS'she'
p2282
aS'replied'
p2283
aS','
p2284
aS'I'
p2285
aS'was'
p2286
aS'only'
p2287
aS'thinking'
p2288
aS'of'
p2289
aS'maid'
p2290
aS'maleen'
p2291
aS'.'
p2292
asg51
(lp2293
VNothing
p2294
ag70
aVshe
p2295
aVreply
p2296
ag70
ag194
ag54
aVonly
p2297
aVthink
p2298
aVof
p2299
aVmaid
p2300
aVmaleen
p2301
ag78
asg79
(lp2302
g81
ag81
ag81
ag81
ag81
ag81
ag81
ag81
ag81
ag81
ag81
ag81
ag81
asg82
(lp2303
g88
ag92
ag93
ag85
ag92
ag93
ag85
ag86
ag91
ag90
ag96
ag88
ag97
asg98
VNothing, she replied, I was only thinking of maid maleen.
p2304
sba(i__main__
Sentence
p2305
(dp2306
g17
I40
sg18
(lp2307
S'He'
p2308
aS'was'
p2309
aS'surprised'
p2310
aS'that'
p2311
aS'she'
p2312
aS'knew'
p2313
aS'about'
p2314
aS'her'
p2315
aS','
p2316
aS'but'
p2317
aS'kept'
p2318
aS'silence'
p2319
aS'.'
p2320
asg51
(lp2321
VHe
p2322
ag54
aVsurprise
p2323
aVthat
p2324
aVshe
p2325
ag447
aVabout
p2326
aVher
p2327
ag70
aVbut
p2328
aVkeep
p2329
aVsilence
p2330
ag78
asg79
(lp2331
g81
ag81
ag81
ag81
ag81
ag81
ag81
ag81
ag81
ag81
ag81
ag81
ag81
asg82
(lp2332
g93
ag85
ag94
ag90
ag93
ag85
ag90
ag206
ag92
ag95
ag85
ag88
ag97
asg98
VHe was surprised that she knew about her, but kept silence.
p2333
sba(i__main__
Sentence
p2334
(dp2335
g17
I41
sg18
(lp2336
S'When'
p2337
aS'they'
p2338
aS'came'
p2339
aS'to'
p2340
aS'the'
p2341
aS'foot-plank'
p2342
aS'into'
p2343
aS'the'
p2344
aS'chuchyard'
p2345
aS','
p2346
aS'she'
p2347
aS'said'
p2348
aS','
p2349
aS'foot-bridge'
p2350
aS','
p2351
aS'do'
p2352
aS'not'
p2353
aS'break'
p2354
aS','
p2355
aS'I'
p2356
aS'am'
p2357
aS'not'
p2358
aS'the'
p2359
aS'true'
p2360
aS'bride'
p2361
aS'.'
p2362
asg51
(lp2363
VWhen
p2364
aVthey
p2365
ag1290
aVto
p2366
aVthe
p2367
aVfoot-plank
p2368
aVinto
p2369
aVthe
p2370
aVchuchyard
p2371
ag70
aVshe
p2372
ag190
ag70
aVfoot-bridge
p2373
ag70
aVdo
p2374
aVnot
p2375
aVbreak
p2376
ag70
ag194
aVbe
p2377
aVnot
p2378
aVthe
p2379
aVtrue
p2380
aVbride
p2381
ag78
asg79
(lp2382
g81
ag81
ag81
ag81
ag81
ag81
ag81
ag81
ag81
ag81
ag81
ag81
ag81
ag81
ag81
ag81
ag81
ag81
ag81
ag81
ag81
ag81
ag81
ag81
ag81
ag81
asg82
(lp2383
g332
ag93
ag85
ag207
ag87
ag88
ag90
ag87
ag88
ag92
ag93
ag85
ag92
ag96
ag92
ag456
ag86
ag208
ag92
ag93
ag456
ag86
ag87
ag96
ag88
ag97
asg98
VWhen they came to the foot-plank into the chuchyard, she said,      foot-bridge, do not break,      I am not the true bride.
p2384
sba(i__main__
Sentence
p2385
(dp2386
g17
I42
sg18
(lp2387
S'What'
p2388
aS'are'
p2389
aS'you'
p2390
aS'saying'
p2391
aS'there'
p2392
aS','
p2393
aS'asked'
p2394
aS'the'
p2395
aS'the'
p2396
aS'king'
p2397
aS"'s"
p2398
aS'son'
p2399
aS'.'
p2400
asg51
(lp2401
VWhat
p2402
ag2266
aVyou
p2403
aVsay
p2404
aVthere
p2405
ag70
aVask
p2406
aVthe
p2407
aVthe
p2408
aVking
p2409
aV's
p2410
aVson
p2411
ag78
asg79
(lp2412
g81
ag81
ag81
ag81
ag81
ag81
ag81
ag81
ag81
ag81
ag81
ag81
ag81
asg82
(lp2413
g89
ag456
ag93
ag91
ag86
ag92
ag85
ag87
ag87
ag88
ag517
ag88
ag97
asg98
VWhat are you saying there, asked the the king's son.
p2414
sba(i__main__
Sentence
p2415
(dp2416
g17
I43
sg18
(lp2417
S'Nothing'
p2418
aS','
p2419
aS'she'
p2420
aS'replied'
p2421
aS','
p2422
aS'I'
p2423
aS'was'
p2424
aS'only'
p2425
aS'thinking'
p2426
aS'of'
p2427
aS'maid'
p2428
aS'maleen'
p2429
aS'.'
p2430
asg51
(lp2431
VNothing
p2432
ag70
aVshe
p2433
ag2296
ag70
ag194
ag54
aVonly
p2434
aVthink
p2435
aVof
p2436
aVmaid
p2437
aVmaleen
p2438
ag78
asg79
(lp2439
g81
ag81
ag81
ag81
ag81
ag81
ag81
ag81
ag81
ag81
ag81
ag81
ag81
asg82
(lp2440
g88
ag92
ag93
ag85
ag92
ag93
ag85
ag86
ag91
ag90
ag96
ag88
ag97
asg98
VNothing, she replied, I was only thinking of maid maleen.
p2441
sba(i__main__
Sentence
p2442
(dp2443
g17
I44
sg18
(lp2444
S'Do'
p2445
aS'you'
p2446
aS'know'
p2447
aS'maid'
p2448
aS'maleen'
p2449
aS'.'
p2450
asg51
(lp2451
VDo
p2452
aVyou
p2453
aVknow
p2454
aVmaid
p2455
aVmaleen
p2456
ag78
asg79
(lp2457
g81
ag81
ag81
ag81
ag81
ag81
asg82
(lp2458
g417
ag93
ag208
ag96
ag88
ag97
asg98
VDo you know maid maleen.
p2459
sba(i__main__
Sentence
p2460
(dp2461
g17
I45
sg18
(lp2462
S'No'
p2463
aS','
p2464
aS'she'
p2465
aS'answered'
p2466
aS','
p2467
aS'how'
p2468
aS'should'
p2469
aS'I'
p2470
aS'know'
p2471
aS'her'
p2472
aS','
p2473
aS'I'
p2474
aS'have'
p2475
aS'only'
p2476
aS'heard'
p2477
aS'of'
p2478
aS'her'
p2479
aS'.'
p2480
asg51
(lp2481
VNo
p2482
ag70
aVshe
p2483
aVanswer
p2484
ag70
aVhow
p2485
aVshould
p2486
ag194
aVknow
p2487
aVher
p2488
ag70
ag194
aVhave
p2489
aVonly
p2490
ag656
aVof
p2491
aVher
p2492
ag78
asg79
(lp2493
g81
ag81
ag81
ag81
ag81
ag81
ag81
ag81
ag81
ag81
ag81
ag81
ag81
ag81
ag81
ag81
ag81
ag81
asg82
(lp2494
g87
ag92
ag93
ag85
ag92
ag332
ag210
ag93
ag208
ag206
ag92
ag93
ag456
ag86
ag94
ag90
ag206
ag97
asg98
VNo, she answered, how should I know her, I have only heard of her.
p2495
sba(i__main__
Sentence
p2496
(dp2497
g17
I46
sg18
(lp2498
S'When'
p2499
aS'they'
p2500
aS'came'
p2501
aS'to'
p2502
aS'the'
p2503
aS'church-door'
p2504
aS','
p2505
aS'she'
p2506
aS'said'
p2507
aS'once'
p2508
aS'more'
p2509
aS','
p2510
aS'church-door'
p2511
aS','
p2512
aS'break'
p2513
aS'not'
p2514
aS','
p2515
aS'I'
p2516
aS'am'
p2517
aS'not'
p2518
aS'the'
p2519
aS'true'
p2520
aS'bride'
p2521
aS'.'
p2522
asg51
(lp2523
VWhen
p2524
aVthey
p2525
ag1290
aVto
p2526
aVthe
p2527
aVchurch-door
p2528
ag70
aVshe
p2529
ag190
aVonce
p2530
aVmore
p2531
ag70
aVchurch-door
p2532
ag70
aVbreak
p2533
aVnot
p2534
ag70
ag194
ag2377
aVnot
p2535
aVthe
p2536
aVtrue
p2537
aVbride
p2538
ag78
asg79
(lp2539
g81
ag81
ag81
ag81
ag81
ag81
ag81
ag81
ag81
ag81
ag81
ag81
ag81
ag81
ag81
ag81
ag81
ag81
ag81
ag81
ag81
ag81
ag81
ag81
asg82
(lp2540
g332
ag93
ag85
ag207
ag87
ag96
ag92
ag93
ag85
ag86
aS'RBR'
p2541
ag92
ag417
ag92
ag88
ag86
ag92
ag93
ag456
ag86
ag87
ag96
ag88
ag97
asg98
VWhen they came to the church-door, she said once more,      church-door, break not,      I am not the true bride.
p2542
sba(i__main__
Sentence
p2543
(dp2544
g17
I47
sg18
(lp2545
S'What'
p2546
aS'are'
p2547
aS'you'
p2548
aS'saying'
p2549
aS'there'
p2550
aS'asked'
p2551
aS'he'
p2552
aS'.'
p2553
asg51
(lp2554
VWhat
p2555
ag2266
aVyou
p2556
aVsay
p2557
aVthere
p2558
aVask
p2559
aVhe
p2560
ag78
asg79
(lp2561
g81
ag81
ag81
ag81
ag81
ag81
ag81
ag81
asg82
(lp2562
g89
ag456
ag93
ag91
ag86
ag85
ag93
ag97
asg98
VWhat are you saying there asked he.
p2563
sba(i__main__
Sentence
p2564
(dp2565
g17
I48
sg18
(lp2566
S'Ah'
p2567
aS','
p2568
aS'she'
p2569
aS'answered'
p2570
aS','
p2571
aS'I'
p2572
aS'was'
p2573
aS'only'
p2574
aS'thinking'
p2575
aS'of'
p2576
aS'maid'
p2577
aS'maleen'
p2578
aS'.'
p2579
asg51
(lp2580
VAh
p2581
ag70
aVshe
p2582
aVanswer
p2583
ag70
ag194
ag54
aVonly
p2584
aVthink
p2585
aVof
p2586
aVmaid
p2587
aVmaleen
p2588
ag78
asg79
(lp2589
g81
ag81
ag81
ag81
ag81
ag81
ag81
ag81
ag81
ag81
ag81
ag81
ag81
asg82
(lp2590
g417
ag92
ag93
ag85
ag92
ag93
ag85
ag86
ag91
ag90
ag96
ag88
ag97
asg98
VAh, she answered, I was only thinking of maid maleen.
p2591
sba(i__main__
Sentence
p2592
(dp2593
g17
I49
sg18
(lp2594
S'Then'
p2595
aS'he'
p2596
aS'took'
p2597
aS'out'
p2598
aS'a'
p2599
aS'precious'
p2600
aS'chain'
p2601
aS','
p2602
aS'put'
p2603
aS'it'
p2604
aS'round'
p2605
aS'her'
p2606
aS'neck'
p2607
aS','
p2608
aS'and'
p2609
aS'fastened'
p2610
aS'the'
p2611
aS'clasp'
p2612
aS'.'
p2613
asg51
(lp2614
VThen
p2615
aVhe
p2616
ag789
aVout
p2617
ag56
aVprecious
p2618
aVchain
p2619
ag70
aVput
p2620
aVit
p2621
aVround
p2622
aVher
p2623
aVneck
p2624
ag70
aVand
p2625
aVfasten
p2626
aVthe
p2627
aVclasp
p2628
ag78
asg79
(lp2629
g81
ag81
ag81
ag81
ag81
ag81
ag81
ag81
ag81
ag81
ag81
ag81
ag81
ag81
ag81
ag81
ag81
ag81
ag81
asg82
(lp2630
g86
ag93
ag85
ag418
ag87
ag96
ag88
ag92
ag85
ag93
ag85
ag93
ag88
ag92
ag95
ag85
ag87
ag88
ag97
asg98
VThen he took out a precious chain, put it round her neck, and fastened the clasp.
p2631
sba(i__main__
Sentence
p2632
(dp2633
g17
I50
sg18
(lp2634
S'Thereupon'
p2635
aS'they'
p2636
aS'entered'
p2637
aS'the'
p2638
aS'church'
p2639
aS','
p2640
aS'and'
p2641
aS'the'
p2642
aS'priest'
p2643
aS'joined'
p2644
aS'their'
p2645
aS'hands'
p2646
aS'together'
p2647
aS'before'
p2648
aS'the'
p2649
aS'altar'
p2650
aS','
p2651
aS'and'
p2652
aS'married'
p2653
aS'them'
p2654
aS'.'
p2655
asg51
(lp2656
VThereupon
p2657
aVthey
p2658
aVenter
p2659
aVthe
p2660
aVchurch
p2661
ag70
aVand
p2662
aVthe
p2663
aVpriest
p2664
aVjoin
p2665
aVtheir
p2666
aVhand
p2667
aVtogether
p2668
aVbefore
p2669
aVthe
p2670
aValtar
p2671
ag70
aVand
p2672
aVmarry
p2673
aVthem
p2674
ag78
asg79
(lp2675
g81
ag81
ag81
ag81
ag81
ag81
ag81
ag81
ag81
ag81
ag81
ag81
ag81
ag81
ag81
ag81
ag81
ag81
ag81
ag81
ag81
asg82
(lp2676
g417
ag93
ag85
ag87
ag88
ag92
ag95
ag87
ag88
ag85
ag206
ag209
ag86
ag90
ag87
ag88
ag92
ag95
ag85
ag93
ag97
asg98
VThereupon they entered the church, and the priest joined their hands together before the altar, and married them.
p2677
sba(i__main__
Sentence
p2678
(dp2679
g17
I51
sg18
(lp2680
S'He'
p2681
aS'led'
p2682
aS'her'
p2683
aS'home'
p2684
aS','
p2685
aS'but'
p2686
aS'she'
p2687
aS'did'
p2688
aS'not'
p2689
aS'speak'
p2690
aS'a'
p2691
aS'single'
p2692
aS'word'
p2693
aS'the'
p2694
aS'whole'
p2695
aS'way'
p2696
aS'.'
p2697
asg51
(lp2698
VHe
p2699
ag398
aVher
p2700
aVhome
p2701
ag70
aVbut
p2702
aVshe
p2703
ag1214
aVnot
p2704
aVspeak
p2705
ag56
aVsingle
p2706
aVword
p2707
aVthe
p2708
aVwhole
p2709
aVway
p2710
ag78
asg79
(lp2711
g81
ag81
ag81
ag81
ag81
ag81
ag81
ag81
ag81
ag81
ag81
ag81
ag81
ag81
ag81
ag81
ag81
asg82
(lp2712
g93
ag85
ag93
ag88
ag92
ag95
ag93
ag85
ag86
ag208
ag87
ag96
ag88
ag87
ag96
ag88
ag97
asg98
VHe led her home, but she did not speak a single word the whole way.
p2713
sba(i__main__
Sentence
p2714
(dp2715
g17
I52
sg18
(lp2716
S'When'
p2717
aS'they'
p2718
aS'got'
p2719
aS'back'
p2720
aS'to'
p2721
aS'the'
p2722
aS'royal'
p2723
aS'palace'
p2724
aS','
p2725
aS'she'
p2726
aS'hurried'
p2727
aS'into'
p2728
aS'the'
p2729
aS'bride'
p2730
aS"'s"
p2731
aS'chamber'
p2732
aS','
p2733
aS'put'
p2734
aS'off'
p2735
aS'the'
p2736
aS'magnificent'
p2737
aS'clothes'
p2738
aS'and'
p2739
aS'the'
p2740
aS'jewels'
p2741
aS','
p2742
aS'dressed'
p2743
aS'herself'
p2744
aS'in'
p2745
aS'her'
p2746
aS'gray'
p2747
aS'gown'
p2748
aS','
p2749
aS'and'
p2750
aS'kept'
p2751
aS'nothing'
p2752
aS'but'
p2753
aS'the'
p2754
aS'jewel'
p2755
aS'on'
p2756
aS'her'
p2757
aS'neck'
p2758
aS','
p2759
aS'which'
p2760
aS'she'
p2761
aS'had'
p2762
aS'received'
p2763
aS'from'
p2764
aS'the'
p2765
aS'bridegroom'
p2766
aS'.'
p2767
asg51
(lp2768
VWhen
p2769
aVthey
p2770
aVget
p2771
aVback
p2772
aVto
p2773
aVthe
p2774
aVroyal
p2775
aVpalace
p2776
ag70
aVshe
p2777
aVhurry
p2778
aVinto
p2779
aVthe
p2780
aVbride
p2781
aV's
p2782
aVchamber
p2783
ag70
aVput
p2784
aVoff
p2785
aVthe
p2786
aVmagnificent
p2787
aVclothe
p2788
aVand
p2789
aVthe
p2790
aVjewel
p2791
ag70
aVdress
p2792
aVherself
p2793
aVin
p2794
aVher
p2795
aVgray
p2796
aVgown
p2797
ag70
aVand
p2798
ag2329
aVnothing
p2799
aVbut
p2800
aVthe
p2801
aVjewel
p2802
aVon
p2803
aVher
p2804
aVneck
p2805
ag70
aVwhich
p2806
aVshe
p2807
ag59
aVreceive
p2808
aVfrom
p2809
aVthe
p2810
aVbridegroom
p2811
ag78
asg79
(lp2812
g81
ag81
ag81
ag81
ag81
ag81
ag81
ag81
ag81
ag81
ag81
ag81
ag81
ag81
ag81
ag81
ag81
ag81
ag81
ag81
ag81
ag81
ag81
ag81
ag81
ag81
ag81
ag81
ag81
ag81
ag81
ag81
ag81
ag81
ag81
ag81
ag81
ag81
ag81
ag81
ag81
ag81
ag81
ag81
ag81
ag81
ag81
ag81
ag81
ag81
ag81
asg82
(lp2813
g332
ag93
ag85
ag418
ag207
ag87
ag88
ag88
ag92
ag93
ag85
ag90
ag87
ag96
ag517
ag88
ag92
ag85
ag418
ag87
ag88
ag334
ag95
ag87
ag209
ag92
ag94
ag93
ag90
ag206
ag88
ag88
ag92
ag95
ag85
ag88
ag95
ag87
ag88
ag90
ag206
ag88
ag92
ag269
ag93
ag85
ag94
ag90
ag87
ag88
ag97
asg98
VWhen they got back to the royal palace, she hurried into the bride's chamber, put off the magnificent clothes and the jewels, dressed herself in her gray gown, and kept nothing but the jewel on her neck, which she had received from the bridegroom.
p2814
sba(i__main__
Sentence
p2815
(dp2816
g17
I53
sg18
(lp2817
S'When'
p2818
aS'the'
p2819
aS'night'
p2820
aS'came'
p2821
aS','
p2822
aS'and'
p2823
aS'the'
p2824
aS'bride'
p2825
aS'was'
p2826
aS'to'
p2827
aS'be'
p2828
aS'led'
p2829
aS'into'
p2830
aS'the'
p2831
aS'prince'
p2832
aS"'s"
p2833
aS'apartment'
p2834
aS','
p2835
aS'she'
p2836
aS'let'
p2837
aS'her'
p2838
aS'veil'
p2839
aS'fall'
p2840
aS'over'
p2841
aS'her'
p2842
aS'face'
p2843
aS','
p2844
aS'that'
p2845
aS'he'
p2846
aS'might'
p2847
aS'not'
p2848
aS'observe'
p2849
aS'the'
p2850
aS'deception'
p2851
aS'.'
p2852
asg51
(lp2853
VWhen
p2854
aVthe
p2855
aVnight
p2856
ag1290
ag70
aVand
p2857
aVthe
p2858
aVbride
p2859
ag54
aVto
p2860
aVbe
p2861
ag398
aVinto
p2862
aVthe
p2863
aVprince
p2864
aV's
p2865
aVapartment
p2866
ag70
aVshe
p2867
aVlet
p2868
aVher
p2869
aVveil
p2870
aVfall
p2871
aVover
p2872
aVher
p2873
aVface
p2874
ag70
aVthat
p2875
aVhe
p2876
aVmight
p2877
aVnot
p2878
aVobserve
p2879
aVthe
p2880
aVdeception
p2881
ag78
asg79
(lp2882
g81
ag81
ag81
ag81
ag81
ag81
ag81
ag81
ag81
ag81
ag81
ag81
ag81
ag81
ag81
ag81
ag81
ag81
ag81
ag81
ag81
ag81
ag81
ag81
ag81
ag81
ag81
ag81
ag81
ag81
ag81
ag81
ag81
ag81
ag81
asg82
(lp2883
g332
ag87
ag88
ag85
ag92
ag95
ag87
ag88
ag85
ag207
ag208
ag94
ag90
ag87
ag88
ag517
ag88
ag92
ag93
ag85
ag206
ag88
ag88
ag90
ag206
ag88
ag92
ag90
ag93
ag210
ag86
ag208
ag87
ag88
ag97
asg98
VWhen the night came, and the bride was to be led into the prince's apartment, she let her veil fall over her face, that he might not observe the deception.
p2884
sba(i__main__
Sentence
p2885
(dp2886
g17
I54
sg18
(lp2887
S'As'
p2888
aS'soon'
p2889
aS'as'
p2890
aS'everyone'
p2891
aS'had'
p2892
aS'gone'
p2893
aS'away'
p2894
aS','
p2895
aS'he'
p2896
aS'said'
p2897
aS'to'
p2898
aS'her'
p2899
aS','
p2900
aS'what'
p2901
aS'did'
p2902
aS'you'
p2903
aS'say'
p2904
aS'to'
p2905
aS'the'
p2906
aS'nettle-plant'
p2907
aS'which'
p2908
aS'was'
p2909
aS'growing'
p2910
aS'by'
p2911
aS'the'
p2912
aS'wayside'
p2913
aS'.'
p2914
asg51
(lp2915
VAs
p2916
aVsoon
p2917
ag56
aVeveryone
p2918
ag59
aVgo
p2919
aVaway
p2920
ag70
aVhe
p2921
ag190
aVto
p2922
aVher
p2923
ag70
aVwhat
p2924
ag1214
aVyou
p2925
aVsay
p2926
aVto
p2927
aVthe
p2928
aVnettle-plant
p2929
aVwhich
p2930
ag54
aVgrow
p2931
aVby
p2932
aVthe
p2933
aVwayside
p2934
ag78
asg79
(lp2935
g81
ag81
ag81
ag81
ag81
ag81
ag81
ag81
ag81
ag81
ag81
ag81
ag81
ag81
ag81
ag81
ag81
ag81
ag81
ag81
ag81
ag81
ag81
ag81
ag81
ag81
ag81
asg82
(lp2936
g90
ag86
ag90
ag88
ag85
ag94
ag86
ag92
ag93
ag85
ag207
ag206
ag92
ag89
ag85
ag93
ag208
ag207
ag87
ag96
ag269
ag85
ag91
ag90
ag87
ag88
ag97
asg98
VAs soon as everyone had gone away, he said to her,  what did you say to the nettle-plant which was growing by the wayside.
p2937
sba(i__main__
Sentence
p2938
(dp2939
g17
I55
sg18
(lp2940
S'To'
p2941
aS'which'
p2942
aS'nettle-plant'
p2943
aS','
p2944
aS'asked'
p2945
aS'she'
p2946
aS','
p2947
aS'I'
p2948
aS'do'
p2949
aS"n't"
p2950
aS'talk'
p2951
aS'to'
p2952
aS'nettle-plants'
p2953
aS'.'
p2954
asg51
(lp2955
VTo
p2956
aVwhich
p2957
aVnettle-plant
p2958
ag70
aVask
p2959
aVshe
p2960
ag70
ag194
aVdo
p2961
aVn't
p2962
aVtalk
p2963
aVto
p2964
aVnettle-plants
p2965
ag78
asg79
(lp2966
g81
ag81
ag81
ag81
ag81
ag81
ag81
ag81
ag81
ag81
ag81
ag81
ag81
ag81
asg82
(lp2967
g207
ag208
ag96
ag92
ag85
ag93
ag92
ag93
ag456
ag86
ag208
ag207
ag209
ag97
asg98
VTo which nettle-plant, asked she, I don't talk to nettle-plants.
p2968
sba(i__main__
Sentence
p2969
(dp2970
g17
I56
sg18
(lp2971
S'If'
p2972
aS'you'
p2973
aS'did'
p2974
aS'not'
p2975
aS'do'
p2976
aS'it'
p2977
aS','
p2978
aS'then'
p2979
aS'you'
p2980
aS'are'
p2981
aS'not'
p2982
aS'the'
p2983
aS'true'
p2984
aS'bride'
p2985
aS','
p2986
aS'said'
p2987
aS'he'
p2988
aS'.'
p2989
asg51
(lp2990
VIf
p2991
aVyou
p2992
ag1214
aVnot
p2993
aVdo
p2994
aVit
p2995
ag70
aVthen
p2996
aVyou
p2997
ag2266
aVnot
p2998
aVthe
p2999
aVtrue
p3000
aVbride
p3001
ag70
ag190
aVhe
p3002
ag78
asg79
(lp3003
g81
ag81
ag81
ag81
ag81
ag81
ag81
ag81
ag81
ag81
ag81
ag81
ag81
ag81
ag81
ag81
ag81
ag81
asg82
(lp3004
g90
ag93
ag85
ag86
ag208
ag93
ag92
ag86
ag93
ag456
ag86
ag87
ag96
ag88
ag92
ag85
ag93
ag97
asg98
VIf you did not do it, then you are not the true bride, said he.
p3005
sba(i__main__
Sentence
p3006
(dp3007
g17
I57
sg18
(lp3008
S'So'
p3009
aS'she'
p3010
aS'bethought'
p3011
aS'herself'
p3012
aS','
p3013
aS'and'
p3014
aS'said'
p3015
aS','
p3016
aS'I'
p3017
aS'must'
p3018
aS'go'
p3019
aS'out'
p3020
aS'unto'
p3021
aS'my'
p3022
aS'maid'
p3023
aS'who'
p3024
aS'keeps'
p3025
aS'my'
p3026
aS'thoughts'
p3027
aS'for'
p3028
aS'me'
p3029
aS'.'
p3030
asg51
(lp3031
VSo
p3032
aVshe
p3033
aVbethink
p3034
aVherself
p3035
ag70
aVand
p3036
ag190
ag70
ag194
aVmust
p3037
aVgo
p3038
aVout
p3039
aVunto
p3040
aVmy
p3041
aVmaid
p3042
aVwho
p3043
aVkeep
p3044
aVmy
p3045
aVthought
p3046
aVfor
p3047
aVme
p3048
ag78
asg79
(lp3049
g81
ag81
ag81
ag81
ag81
ag81
ag81
ag81
ag81
ag81
ag81
ag81
ag81
ag81
ag81
ag81
ag81
ag81
ag81
ag81
ag81
ag81
asg82
(lp3050
g90
ag93
ag85
ag93
ag92
ag95
ag85
ag92
ag93
ag210
ag208
ag418
ag90
ag206
ag88
ag89
ag209
ag206
ag209
ag90
ag93
ag97
asg98
VSo she bethought herself, and said,      I must go out unto my maid      who keeps my thoughts for me.
p3051
sba(i__main__
Sentence
p3052
(dp3053
g17
I58
sg18
(lp3054
S'She'
p3055
aS'went'
p3056
aS'out'
p3057
aS'and'
p3058
aS'sought'
p3059
aS'maid'
p3060
aS'maleen'
p3061
aS'.'
p3062
asg51
(lp3063
VShe
p3064
ag495
aVout
p3065
aVand
p3066
aVseek
p3067
aVmaid
p3068
aVmaleen
p3069
ag78
asg79
(lp3070
g81
ag81
ag81
ag81
ag81
ag81
ag81
ag81
asg82
(lp3071
g93
ag85
ag418
ag95
ag85
ag94
ag94
ag97
asg98
VShe went out and sought maid maleen.
p3072
sba(i__main__
Sentence
p3073
(dp3074
g17
I59
sg18
(lp3075
S'Girl'
p3076
aS','
p3077
aS'what'
p3078
aS'have'
p3079
aS'you'
p3080
aS'been'
p3081
aS'saying'
p3082
aS'to'
p3083
aS'the'
p3084
aS'nettle'
p3085
aS'.'
p3086
asg51
(lp3087
VGirl
p3088
ag70
aVwhat
p3089
aVhave
p3090
aVyou
p3091
ag1450
aVsay
p3092
aVto
p3093
aVthe
p3094
aVnettle
p3095
ag78
asg79
(lp3096
g81
ag81
ag81
ag81
ag81
ag81
ag81
ag81
ag81
ag81
ag81
asg82
(lp3097
g417
ag92
ag89
ag456
ag93
ag94
ag91
ag207
ag87
ag88
ag97
asg98
VGirl, what have you been saying to the nettle.
p3098
sba(i__main__
Sentence
p3099
(dp3100
g17
I60
sg18
(lp3101
S'I'
p3102
aS'said'
p3103
aS'nothing'
p3104
aS'but'
p3105
aS','
p3106
aS'oh'
p3107
aS','
p3108
aS'nettle-plant'
p3109
aS','
p3110
aS'little'
p3111
aS'nettle-plant'
p3112
aS','
p3113
aS'what'
p3114
aS'dost'
p3115
aS'thou'
p3116
aS'here'
p3117
aS'alone'
p3118
aS'.'
p3119
asg51
(lp3120
g194
ag190
aVnothing
p3121
aVbut
p3122
ag70
aVoh
p3123
ag70
aVnettle-plant
p3124
ag70
aVlittle
p3125
aVnettle-plant
p3126
ag70
aVwhat
p3127
aVdost
p3128
aVthou
p3129
aVhere
p3130
aValone
p3131
ag78
asg79
(lp3132
g81
ag81
ag81
ag81
ag81
ag81
ag81
ag81
ag81
ag81
ag81
ag81
ag81
ag81
ag81
ag81
ag81
ag81
asg82
(lp3133
g93
ag85
ag88
ag95
ag92
ag456
ag92
ag96
ag92
ag96
ag96
ag92
ag89
ag86
ag456
ag86
ag86
ag97
asg98
VI said nothing but,      oh, nettle-plant,      little nettle-plant,      what dost thou here alone.
p3134
sba(i__main__
Sentence
p3135
(dp3136
g17
I61
sg18
(lp3137
S'I'
p3138
aS'have'
p3139
aS'known'
p3140
aS'the'
p3141
aS'time'
p3142
aS'when'
p3143
aS'I'
p3144
aS'ate'
p3145
aS'thee'
p3146
aS'unboiled'
p3147
aS','
p3148
aS'when'
p3149
aS'I'
p3150
aS'ate'
p3151
aS'thee'
p3152
aS'unroasted'
p3153
aS'.'
p3154
asg51
(lp3155
g194
aVhave
p3156
ag2237
aVthe
p3157
aVtime
p3158
aVwhen
p3159
ag194
ag2241
aVthee
p3160
aVunboiled
p3161
ag70
aVwhen
p3162
ag194
ag2241
aVthee
p3163
aVunroasted
p3164
ag78
asg79
(lp3165
g81
ag81
ag81
ag81
ag81
ag81
ag81
ag81
ag81
ag81
ag81
ag81
ag81
ag81
ag81
ag81
ag81
asg82
(lp3166
g93
ag456
ag94
ag87
ag88
ag332
ag93
ag456
ag96
ag94
ag92
ag332
ag93
ag456
ag96
ag94
ag97
asg98
VI have known the time      when I ate thee unboiled,      when I ate thee unroasted.
p3167
sba(i__main__
Sentence
p3168
(dp3169
g17
I62
sg18
(lp3170
S'The'
p3171
aS'bride'
p3172
aS'ran'
p3173
aS'back'
p3174
aS'into'
p3175
aS'the'
p3176
aS'chamber'
p3177
aS','
p3178
aS'and'
p3179
aS'said'
p3180
aS','
p3181
aS'I'
p3182
aS'know'
p3183
aS'now'
p3184
aS'what'
p3185
aS'I'
p3186
aS'said'
p3187
aS'to'
p3188
aS'the'
p3189
aS'nettle'
p3190
aS','
p3191
aS'and'
p3192
aS'she'
p3193
aS'repeated'
p3194
aS'the'
p3195
aS'words'
p3196
aS'which'
p3197
aS'she'
p3198
aS'had'
p3199
aS'just'
p3200
aS'heard'
p3201
aS'.'
p3202
asg51
(lp3203
VThe
p3204
aVbride
p3205
aVrun
p3206
aVback
p3207
aVinto
p3208
aVthe
p3209
aVchamber
p3210
ag70
aVand
p3211
ag190
ag70
ag194
aVknow
p3212
aVnow
p3213
aVwhat
p3214
ag194
ag190
aVto
p3215
aVthe
p3216
aVnettle
p3217
ag70
aVand
p3218
aVshe
p3219
aVrepeat
p3220
aVthe
p3221
aVword
p3222
aVwhich
p3223
aVshe
p3224
ag59
aVjust
p3225
ag656
ag78
asg79
(lp3226
g81
ag81
ag81
ag81
ag81
ag81
ag81
ag81
ag81
ag81
ag81
ag81
ag81
ag81
ag81
ag81
ag81
ag81
ag81
ag81
ag81
ag81
ag81
ag81
ag81
ag81
ag81
ag81
ag81
ag81
ag81
ag81
asg82
(lp3227
g87
ag88
ag85
ag86
ag90
ag87
ag88
ag92
ag95
ag85
ag92
ag93
ag456
ag86
ag89
ag93
ag85
ag207
ag87
ag88
ag92
ag95
ag93
ag85
ag87
ag209
ag269
ag93
ag85
ag86
ag94
ag97
asg98
VThe bride ran back into the chamber, and said, I know now what I said to the nettle, and she repeated the words which she had just heard.
p3228
sba(i__main__
Sentence
p3229
(dp3230
g17
I63
sg18
(lp3231
S'But'
p3232
aS'what'
p3233
aS'did'
p3234
aS'you'
p3235
aS'say'
p3236
aS'to'
p3237
aS'the'
p3238
aS'foot-bridge'
p3239
aS'when'
p3240
aS'we'
p3241
aS'went'
p3242
aS'over'
p3243
aS'it'
p3244
aS'asked'
p3245
aS'the'
p3246
aS'king'
p3247
aS"'s"
p3248
aS'son'
p3249
aS'.'
p3250
asg51
(lp3251
VBut
p3252
aVwhat
p3253
ag1214
aVyou
p3254
aVsay
p3255
aVto
p3256
aVthe
p3257
aVfoot-bridge
p3258
aVwhen
p3259
aVwe
p3260
ag495
aVover
p3261
aVit
p3262
aVask
p3263
aVthe
p3264
aVking
p3265
aV's
p3266
aVson
p3267
ag78
asg79
(lp3268
g81
ag81
ag81
ag81
ag81
ag81
ag81
ag81
ag81
ag81
ag81
ag81
ag81
ag81
ag81
ag81
ag81
ag81
ag81
asg82
(lp3269
g95
ag89
ag85
ag93
ag208
ag207
ag87
ag96
ag332
ag93
ag85
ag86
ag93
ag85
ag87
ag88
ag517
ag88
ag97
asg98
VBut what did you say to the foot-bridge when we went over it asked the king's son.
p3270
sba(i__main__
Sentence
p3271
(dp3272
g17
I64
sg18
(lp3273
S'To'
p3274
aS'the'
p3275
aS'foot-bridge'
p3276
aS','
p3277
aS'she'
p3278
aS'answered'
p3279
aS'.'
p3280
asg51
(lp3281
VTo
p3282
aVthe
p3283
aVfoot-bridge
p3284
ag70
aVshe
p3285
aVanswer
p3286
ag78
asg79
(lp3287
g81
ag81
ag81
ag81
ag81
ag81
ag81
asg82
(lp3288
g207
ag87
ag96
ag92
ag93
ag85
ag97
asg98
VTo the foot-bridge, she answered.
p3289
sba(i__main__
Sentence
p3290
(dp3291
g17
I65
sg18
(lp3292
S'I'
p3293
aS'do'
p3294
aS"n't"
p3295
aS'talk'
p3296
aS'to'
p3297
aS'foot-bridges'
p3298
aS'.'
p3299
asg51
(lp3300
g194
aVdo
p3301
aVn't
p3302
aVtalk
p3303
aVto
p3304
aVfoot-bridges
p3305
ag78
asg79
(lp3306
g81
ag81
ag81
ag81
ag81
ag81
ag81
asg82
(lp3307
g93
ag456
ag86
ag208
ag207
ag209
ag97
asg98
VI don't talk to foot-bridges.
p3308
sba(i__main__
Sentence
p3309
(dp3310
g17
I66
sg18
(lp3311
S'Then'
p3312
aS'you'
p3313
aS'are'
p3314
aS'not'
p3315
aS'the'
p3316
aS'true'
p3317
aS'bride'
p3318
aS'.'
p3319
asg51
(lp3320
VThen
p3321
aVyou
p3322
ag2266
aVnot
p3323
aVthe
p3324
aVtrue
p3325
aVbride
p3326
ag78
asg79
(lp3327
g81
ag81
ag81
ag81
ag81
ag81
ag81
ag81
asg82
(lp3328
g86
ag93
ag456
ag86
ag87
ag96
ag88
ag97
asg98
VThen you are not the true bride.
p3329
sba(i__main__
Sentence
p3330
(dp3331
g17
I67
sg18
(lp3332
S'She'
p3333
aS'again'
p3334
aS'said'
p3335
aS','
p3336
aS'I'
p3337
aS'must'
p3338
aS'go'
p3339
aS'out'
p3340
aS'unto'
p3341
aS'my'
p3342
aS'maid'
p3343
aS','
p3344
aS'who'
p3345
aS'keeps'
p3346
aS'my'
p3347
aS'thoughts'
p3348
aS'for'
p3349
aS'me'
p3350
aS'.'
p3351
asg51
(lp3352
VShe
p3353
aVagain
p3354
ag190
ag70
ag194
aVmust
p3355
aVgo
p3356
aVout
p3357
aVunto
p3358
aVmy
p3359
aVmaid
p3360
ag70
aVwho
p3361
aVkeep
p3362
aVmy
p3363
aVthought
p3364
aVfor
p3365
aVme
p3366
ag78
asg79
(lp3367
g81
ag81
ag81
ag81
ag81
ag81
ag81
ag81
ag81
ag81
ag81
ag81
ag81
ag81
ag81
ag81
ag81
ag81
ag81
asg82
(lp3368
g93
ag86
ag85
ag92
ag93
ag210
ag208
ag418
ag90
ag206
ag88
ag92
ag89
ag209
ag206
ag209
ag90
ag93
ag97
asg98
VShe again said,      I must go out unto my maid,      who keeps my thoughts for me.
p3369
sba(i__main__
Sentence
p3370
(dp3371
g17
I68
sg18
(lp3372
S'And'
p3373
aS'ran'
p3374
aS'out'
p3375
aS'and'
p3376
aS'scolded'
p3377
aS'maid'
p3378
aS'maleen'
p3379
aS','
p3380
aS'girl'
p3381
aS','
p3382
aS'what'
p3383
aS'did'
p3384
aS'you'
p3385
aS'say'
p3386
aS'to'
p3387
aS'the'
p3388
aS'foot-bridge'
p3389
aS'.'
p3390
asg51
(lp3391
VAnd
p3392
ag3206
aVout
p3393
aVand
p3394
aVscold
p3395
aVmaid
p3396
aVmaleen
p3397
ag70
aVgirl
p3398
ag70
aVwhat
p3399
ag1214
aVyou
p3400
aVsay
p3401
aVto
p3402
aVthe
p3403
aVfoot-bridge
p3404
ag78
asg79
(lp3405
g81
ag81
ag81
ag81
ag81
ag81
ag81
ag81
ag81
ag81
ag81
ag81
ag81
ag81
ag81
ag81
ag81
ag81
asg82
(lp3406
g95
ag85
ag418
ag95
ag85
ag94
ag94
ag92
ag88
ag92
ag89
ag85
ag93
ag208
ag207
ag87
ag96
ag97
asg98
VAnd ran out and scolded maid maleen, girl, what did you say to the foot-bridge.
p3407
sba(i__main__
Sentence
p3408
(dp3409
g17
I69
sg18
(lp3410
S'I'
p3411
aS'said'
p3412
aS'nothing'
p3413
aS'but'
p3414
aS','
p3415
aS'foot-bridge'
p3416
aS','
p3417
aS'do'
p3418
aS'not'
p3419
aS'break'
p3420
aS','
p3421
aS'I'
p3422
aS'am'
p3423
aS'not'
p3424
aS'the'
p3425
aS'true'
p3426
aS'bride'
p3427
aS'.'
p3428
asg51
(lp3429
g194
ag190
aVnothing
p3430
aVbut
p3431
ag70
aVfoot-bridge
p3432
ag70
aVdo
p3433
aVnot
p3434
aVbreak
p3435
ag70
ag194
ag2377
aVnot
p3436
aVthe
p3437
aVtrue
p3438
aVbride
p3439
ag78
asg79
(lp3440
g81
ag81
ag81
ag81
ag81
ag81
ag81
ag81
ag81
ag81
ag81
ag81
ag81
ag81
ag81
ag81
ag81
ag81
asg82
(lp3441
g93
ag85
ag88
ag95
ag92
ag96
ag92
ag456
ag86
ag208
ag92
ag93
ag456
ag86
ag87
ag96
ag88
ag97
asg98
VI said nothing but,      foot-bridge, do not break,      I am not the true bride.
p3442
sba(i__main__
Sentence
p3443
(dp3444
g17
I70
sg18
(lp3445
S'That'
p3446
aS'costs'
p3447
aS'you'
p3448
aS'your'
p3449
aS'life'
p3450
aS','
p3451
aS'cried'
p3452
aS'the'
p3453
aS'bride'
p3454
aS','
p3455
aS'but'
p3456
aS'she'
p3457
aS'hurried'
p3458
aS'into'
p3459
aS'the'
p3460
aS'room'
p3461
aS'and'
p3462
aS'said'
p3463
aS','
p3464
aS'I'
p3465
aS'know'
p3466
aS'now'
p3467
aS'what'
p3468
aS'I'
p3469
aS'said'
p3470
aS'to'
p3471
aS'the'
p3472
aS'foot-bridge'
p3473
aS','
p3474
aS'and'
p3475
aS'she'
p3476
aS'repeated'
p3477
aS'the'
p3478
aS'words'
p3479
aS'.'
p3480
asg51
(lp3481
VThat
p3482
aVcost
p3483
aVyou
p3484
aVyour
p3485
aVlife
p3486
ag70
aVcry
p3487
aVthe
p3488
aVbride
p3489
ag70
aVbut
p3490
aVshe
p3491
ag2778
aVinto
p3492
aVthe
p3493
aVroom
p3494
aVand
p3495
ag190
ag70
ag194
aVknow
p3496
aVnow
p3497
aVwhat
p3498
ag194
ag190
aVto
p3499
aVthe
p3500
aVfoot-bridge
p3501
ag70
aVand
p3502
aVshe
p3503
aVrepeat
p3504
aVthe
p3505
aVword
p3506
ag78
asg79
(lp3507
g81
ag81
ag81
ag81
ag81
ag81
ag81
ag81
ag81
ag81
ag81
ag81
ag81
ag81
ag81
ag81
ag81
ag81
ag81
ag81
ag81
ag81
ag81
ag81
ag81
ag81
ag81
ag81
ag81
ag81
ag81
ag81
ag81
ag81
ag81
asg82
(lp3508
g87
ag334
ag93
ag206
ag88
ag92
ag85
ag87
ag88
ag92
ag95
ag93
ag85
ag90
ag87
ag88
ag95
ag85
ag92
ag93
ag456
ag86
ag89
ag93
ag85
ag207
ag87
ag96
ag92
ag95
ag93
ag85
ag87
ag209
ag97
asg98
VThat costs you your life, cried the bride, but she hurried into the room and said, I know now what I said to the foot-bridge, and she repeated the words.
p3509
sba(i__main__
Sentence
p3510
(dp3511
g17
I71
sg18
(lp3512
S'But'
p3513
aS'what'
p3514
aS'did'
p3515
aS'you'
p3516
aS'say'
p3517
aS'to'
p3518
aS'the'
p3519
aS'church-door'
p3520
aS'.'
p3521
asg51
(lp3522
VBut
p3523
aVwhat
p3524
ag1214
aVyou
p3525
aVsay
p3526
aVto
p3527
aVthe
p3528
aVchurch-door
p3529
ag78
asg79
(lp3530
g81
ag81
ag81
ag81
ag81
ag81
ag81
ag81
ag81
asg82
(lp3531
g95
ag89
ag85
ag93
ag208
ag207
ag87
ag96
ag97
asg98
VBut what did you say to the church-door.
p3532
sba(i__main__
Sentence
p3533
(dp3534
g17
I72
sg18
(lp3535
S'To'
p3536
aS'the'
p3537
aS'church-door'
p3538
aS','
p3539
aS'she'
p3540
aS'replied'
p3541
aS','
p3542
aS'I'
p3543
aS'do'
p3544
aS"n't"
p3545
aS'talk'
p3546
aS'to'
p3547
aS'church-doors'
p3548
aS'.'
p3549
asg51
(lp3550
VTo
p3551
aVthe
p3552
aVchurch-door
p3553
ag70
aVshe
p3554
ag2296
ag70
ag194
aVdo
p3555
aVn't
p3556
aVtalk
p3557
aVto
p3558
aVchurch-doors
p3559
ag78
asg79
(lp3560
g81
ag81
ag81
ag81
ag81
ag81
ag81
ag81
ag81
ag81
ag81
ag81
ag81
ag81
asg82
(lp3561
g207
ag87
ag96
ag92
ag93
ag85
ag92
ag93
ag456
ag86
ag208
ag207
ag209
ag97
asg98
VTo the church-door, she replied, I don't talk to church-doors.
p3562
sba(i__main__
Sentence
p3563
(dp3564
g17
I73
sg18
(lp3565
S'Then'
p3566
aS'you'
p3567
aS'are'
p3568
aS'not'
p3569
aS'the'
p3570
aS'true'
p3571
aS'bride'
p3572
aS'.'
p3573
asg51
(lp3574
VThen
p3575
aVyou
p3576
ag2266
aVnot
p3577
aVthe
p3578
aVtrue
p3579
aVbride
p3580
ag78
asg79
(lp3581
g81
ag81
ag81
ag81
ag81
ag81
ag81
ag81
asg82
(lp3582
g86
ag93
ag456
ag86
ag87
ag96
ag88
ag97
asg98
VThen you are not the true bride.
p3583
sba(i__main__
Sentence
p3584
(dp3585
g17
I74
sg18
(lp3586
S'She'
p3587
aS'went'
p3588
aS'out'
p3589
aS'and'
p3590
aS'scolded'
p3591
aS'maid'
p3592
aS'maleen'
p3593
aS','
p3594
aS'and'
p3595
aS'said'
p3596
aS','
p3597
aS'girl'
p3598
aS','
p3599
aS'what'
p3600
aS'did'
p3601
aS'you'
p3602
aS'say'
p3603
aS'to'
p3604
aS'the'
p3605
aS'church-door'
p3606
aS'.'
p3607
asg51
(lp3608
VShe
p3609
ag495
aVout
p3610
aVand
p3611
aVscold
p3612
aVmaid
p3613
aVmaleen
p3614
ag70
aVand
p3615
ag190
ag70
aVgirl
p3616
ag70
aVwhat
p3617
ag1214
aVyou
p3618
aVsay
p3619
aVto
p3620
aVthe
p3621
aVchurch-door
p3622
ag78
asg79
(lp3623
g81
ag81
ag81
ag81
ag81
ag81
ag81
ag81
ag81
ag81
ag81
ag81
ag81
ag81
ag81
ag81
ag81
ag81
ag81
ag81
ag81
asg82
(lp3624
g93
ag85
ag418
ag95
ag85
ag94
ag94
ag92
ag95
ag85
ag92
ag88
ag92
ag89
ag85
ag93
ag208
ag207
ag87
ag96
ag97
asg98
VShe went out and scolded maid maleen, and said, girl, what did you say to the church-door.
p3625
sba(i__main__
Sentence
p3626
(dp3627
g17
I75
sg18
(lp3628
S'I'
p3629
aS'said'
p3630
aS'nothing'
p3631
aS'but'
p3632
aS','
p3633
aS'church-door'
p3634
aS','
p3635
aS'break'
p3636
aS'not'
p3637
aS','
p3638
aS'I'
p3639
aS'am'
p3640
aS'not'
p3641
aS'the'
p3642
aS'true'
p3643
aS'bride'
p3644
aS'.'
p3645
asg51
(lp3646
g194
ag190
aVnothing
p3647
aVbut
p3648
ag70
aVchurch-door
p3649
ag70
aVbreak
p3650
aVnot
p3651
ag70
ag194
ag2377
aVnot
p3652
aVthe
p3653
aVtrue
p3654
aVbride
p3655
ag78
asg79
(lp3656
g81
ag81
ag81
ag81
ag81
ag81
ag81
ag81
ag81
ag81
ag81
ag81
ag81
ag81
ag81
ag81
ag81
asg82
(lp3657
g93
ag85
ag88
ag95
ag92
ag96
ag92
ag96
ag86
ag92
ag93
ag456
ag86
ag87
ag96
ag88
ag97
asg98
VI said nothing but,      church-door, break not,      I am not the true bride.
p3658
sba(i__main__
Sentence
p3659
(dp3660
g17
I76
sg18
(lp3661
S'That'
p3662
aS'will'
p3663
aS'break'
p3664
aS'your'
p3665
aS'neck'
p3666
aS'for'
p3667
aS'you'
p3668
aS','
p3669
aS'cried'
p3670
aS'the'
p3671
aS'bride'
p3672
aS','
p3673
aS'and'
p3674
aS'flew'
p3675
aS'into'
p3676
aS'a'
p3677
aS'terrible'
p3678
aS'passion'
p3679
aS','
p3680
aS'but'
p3681
aS'she'
p3682
aS'hastened'
p3683
aS'back'
p3684
aS'into'
p3685
aS'the'
p3686
aS'room'
p3687
aS','
p3688
aS'and'
p3689
aS'said'
p3690
aS','
p3691
aS'I'
p3692
aS'know'
p3693
aS'now'
p3694
aS'what'
p3695
aS'I'
p3696
aS'said'
p3697
aS'to'
p3698
aS'the'
p3699
aS'church-door'
p3700
aS','
p3701
aS'and'
p3702
aS'she'
p3703
aS'repeated'
p3704
aS'the'
p3705
aS'words'
p3706
aS'.'
p3707
asg51
(lp3708
VThat
p3709
aVwill
p3710
aVbreak
p3711
aVyour
p3712
aVneck
p3713
aVfor
p3714
aVyou
p3715
ag70
ag3487
aVthe
p3716
aVbride
p3717
ag70
aVand
p3718
aVfly
p3719
aVinto
p3720
ag56
aVterrible
p3721
aVpassion
p3722
ag70
aVbut
p3723
aVshe
p3724
aVhasten
p3725
aVback
p3726
aVinto
p3727
aVthe
p3728
aVroom
p3729
ag70
aVand
p3730
ag190
ag70
ag194
aVknow
p3731
aVnow
p3732
aVwhat
p3733
ag194
ag190
aVto
p3734
aVthe
p3735
aVchurch-door
p3736
ag70
aVand
p3737
aVshe
p3738
aVrepeat
p3739
aVthe
p3740
aVword
p3741
ag78
asg79
(lp3742
g81
ag81
ag81
ag81
ag81
ag81
ag81
ag81
ag81
ag81
ag81
ag81
ag81
ag81
ag81
ag81
ag81
ag81
ag81
ag81
ag81
ag81
ag81
ag81
ag81
ag81
ag81
ag81
ag81
ag81
ag81
ag81
ag81
ag81
ag81
ag81
ag81
ag81
ag81
ag81
ag81
ag81
ag81
ag81
ag81
ag81
asg82
(lp3743
g87
ag210
ag208
ag206
ag88
ag90
ag93
ag92
ag85
ag87
ag88
ag92
ag95
ag208
ag90
ag87
ag96
ag88
ag92
ag95
ag93
ag85
ag418
ag90
ag87
ag88
ag92
ag95
ag85
ag92
ag93
ag456
ag86
ag89
ag93
ag85
ag207
ag87
ag96
ag92
ag95
ag93
ag85
ag87
ag209
ag97
asg98
VThat will break your neck for you, cried the bride, and flew into a terrible passion, but she hastened back into the room, and said, I know now what I said to the church-door, and she repeated the words.
p3744
sba(i__main__
Sentence
p3745
(dp3746
g17
I77
sg18
(lp3747
S'But'
p3748
aS'where'
p3749
aS'have'
p3750
aS'you'
p3751
aS'the'
p3752
aS'jewel'
p3753
aS'which'
p3754
aS'I'
p3755
aS'gave'
p3756
aS'you'
p3757
aS'at'
p3758
aS'the'
p3759
aS'church-door'
p3760
aS'.'
p3761
asg51
(lp3762
VBut
p3763
aVwhere
p3764
aVhave
p3765
aVyou
p3766
aVthe
p3767
aVjewel
p3768
aVwhich
p3769
ag194
aVgive
p3770
aVyou
p3771
aVat
p3772
aVthe
p3773
aVchurch-door
p3774
ag78
asg79
(lp3775
g81
ag81
ag81
ag81
ag81
ag81
ag81
ag81
ag81
ag81
ag81
ag81
ag81
ag81
asg82
(lp3776
g95
ag332
ag456
ag93
ag87
ag88
ag269
ag93
ag85
ag93
ag90
ag87
ag96
ag97
asg98
VBut where have you the jewel which I gave you at the church-door.
p3777
sba(i__main__
Sentence
p3778
(dp3779
g17
I78
sg18
(lp3780
S'What'
p3781
aS'jewel'
p3782
aS','
p3783
aS'she'
p3784
aS'answered'
p3785
aS','
p3786
aS'you'
p3787
aS'did'
p3788
aS'not'
p3789
aS'give'
p3790
aS'me'
p3791
aS'any'
p3792
aS'jewel'
p3793
aS'.'
p3794
asg51
(lp3795
VWhat
p3796
aVjewel
p3797
ag70
aVshe
p3798
aVanswer
p3799
ag70
aVyou
p3800
ag1214
aVnot
p3801
aVgive
p3802
aVme
p3803
aVany
p3804
aVjewel
p3805
ag78
asg79
(lp3806
g81
ag81
ag81
ag81
ag81
ag81
ag81
ag81
ag81
ag81
ag81
ag81
ag81
ag81
asg82
(lp3807
g89
ag88
ag92
ag93
ag85
ag92
ag93
ag85
ag86
ag208
ag93
ag87
ag88
ag97
asg98
VWhat jewel, she answered, you did not give me any jewel.
p3808
sba(i__main__
Sentence
p3809
(dp3810
g17
I79
sg18
(lp3811
S'I'
p3812
aS'myself'
p3813
aS'put'
p3814
aS'it'
p3815
aS'round'
p3816
aS'your'
p3817
aS'neck'
p3818
aS','
p3819
aS'and'
p3820
aS'I'
p3821
aS'myself'
p3822
aS'fastened'
p3823
aS'it'
p3824
aS','
p3825
aS'if'
p3826
aS'you'
p3827
aS'do'
p3828
aS'not'
p3829
aS'know'
p3830
aS'that'
p3831
aS','
p3832
aS'you'
p3833
aS'are'
p3834
aS'not'
p3835
aS'the'
p3836
aS'true'
p3837
aS'bride'
p3838
aS'.'
p3839
asg51
(lp3840
g194
aVmyself
p3841
aVput
p3842
aVit
p3843
aVround
p3844
aVyour
p3845
aVneck
p3846
ag70
aVand
p3847
ag194
aVmyself
p3848
aVfasten
p3849
aVit
p3850
ag70
aVif
p3851
aVyou
p3852
aVdo
p3853
aVnot
p3854
aVknow
p3855
aVthat
p3856
ag70
aVyou
p3857
ag2266
aVnot
p3858
aVthe
p3859
aVtrue
p3860
aVbride
p3861
ag78
asg79
(lp3862
g81
ag81
ag81
ag81
ag81
ag81
ag81
ag81
ag81
ag81
ag81
ag81
ag81
ag81
ag81
ag81
ag81
ag81
ag81
ag81
ag81
ag81
ag81
ag81
ag81
ag81
ag81
ag81
asg82
(lp3863
g93
ag456
ag94
ag93
ag85
ag206
ag88
ag92
ag95
ag93
ag456
ag94
ag93
ag92
ag90
ag93
ag456
ag86
ag208
ag90
ag92
ag93
ag456
ag86
ag87
ag96
ag88
ag97
asg98
VI myself put it round your neck, and I myself fastened it, if you do not know that, you are not the true bride.
p3864
sba(i__main__
Sentence
p3865
(dp3866
g17
I80
sg18
(lp3867
S'He'
p3868
aS'drew'
p3869
aS'the'
p3870
aS'veil'
p3871
aS'from'
p3872
aS'her'
p3873
aS'face'
p3874
aS','
p3875
aS'and'
p3876
aS'when'
p3877
aS'he'
p3878
aS'saw'
p3879
aS'her'
p3880
aS'immeasurable'
p3881
aS'ugliness'
p3882
aS','
p3883
aS'he'
p3884
aS'sprang'
p3885
aS'back'
p3886
aS'terrified'
p3887
aS','
p3888
aS'and'
p3889
aS'said'
p3890
aS','
p3891
aS'how'
p3892
aS'do'
p3893
aS'you'
p3894
aS'come'
p3895
aS'here'
p3896
aS'.'
p3897
asg51
(lp3898
VHe
p3899
aVdraw
p3900
aVthe
p3901
aVveil
p3902
aVfrom
p3903
aVher
p3904
aVface
p3905
ag70
aVand
p3906
aVwhen
p3907
aVhe
p3908
aVsaw
p3909
aVher
p3910
aVimmeasurable
p3911
aVugliness
p3912
ag70
aVhe
p3913
aVspring
p3914
aVback
p3915
aVterrify
p3916
ag70
aVand
p3917
ag190
ag70
aVhow
p3918
aVdo
p3919
aVyou
p3920
aVcome
p3921
aVhere
p3922
ag78
asg79
(lp3923
g81
ag81
ag81
ag81
ag81
ag81
ag81
ag81
ag81
ag81
ag81
ag81
ag81
ag81
ag81
ag81
ag81
ag81
ag81
ag81
ag81
ag81
ag81
ag81
ag81
ag81
ag81
ag81
ag81
ag81
asg82
(lp3924
g93
ag85
ag87
ag88
ag90
ag206
ag88
ag92
ag95
ag332
ag93
ag85
ag93
ag96
ag88
ag92
ag93
ag85
ag418
ag94
ag92
ag95
ag85
ag92
ag332
ag456
ag93
ag208
ag86
ag97
asg98
VHe drew the veil from her face, and when he saw her immeasurable ugliness, he sprang back terrified, and said, how do you come here.
p3925
sba(i__main__
Sentence
p3926
(dp3927
g17
I81
sg18
(lp3928
S'Who'
p3929
aS'are'
p3930
aS'you'
p3931
aS'.'
p3932
asg51
(lp3933
VWho
p3934
ag2266
aVyou
p3935
ag78
asg79
(lp3936
g81
ag81
ag81
ag81
asg82
(lp3937
g89
ag456
ag93
ag97
asg98
VWho are you.
p3938
sba(i__main__
Sentence
p3939
(dp3940
g17
I82
sg18
(lp3941
S'I'
p3942
aS'am'
p3943
aS'your'
p3944
aS'betrothed'
p3945
aS'bride'
p3946
aS','
p3947
aS'but'
p3948
aS'because'
p3949
aS'I'
p3950
aS'feared'
p3951
aS'lest'
p3952
aS'the'
p3953
aS'people'
p3954
aS'should'
p3955
aS'mock'
p3956
aS'me'
p3957
aS'when'
p3958
aS'they'
p3959
aS'saw'
p3960
aS'me'
p3961
aS'out'
p3962
aS'of'
p3963
aS'doors'
p3964
aS','
p3965
aS'I'
p3966
aS'commanded'
p3967
aS'the'
p3968
aS'scullery-maid'
p3969
aS'to'
p3970
aS'dress'
p3971
aS'herself'
p3972
aS'in'
p3973
aS'my'
p3974
aS'clothes'
p3975
aS','
p3976
aS'and'
p3977
aS'to'
p3978
aS'go'
p3979
aS'to'
p3980
aS'church'
p3981
aS'instead'
p3982
aS'of'
p3983
aS'me'
p3984
aS'.'
p3985
asg51
(lp3986
g194
ag2377
aVyour
p3987
aVbetroth
p3988
aVbride
p3989
ag70
aVbut
p3990
aVbecause
p3991
ag194
aVfear
p3992
aVl
p3993
aVthe
p3994
aVpeople
p3995
aVshould
p3996
aVmock
p3997
aVme
p3998
aVwhen
p3999
aVthey
p4000
aVsaw
p4001
aVme
p4002
aVout
p4003
aVof
p4004
aVdoor
p4005
ag70
ag194
aVcommand
p4006
aVthe
p4007
aVscullery-maid
p4008
aVto
p4009
aVdress
p4010
aVherself
p4011
aVin
p4012
aVmy
p4013
aVclothes
p4014
ag70
aVand
p4015
aVto
p4016
aVgo
p4017
aVto
p4018
aVchurch
p4019
aVinstead
p4020
aVof
p4021
aVme
p4022
ag78
asg79
(lp4023
g81
ag81
ag81
ag81
ag81
ag81
ag81
ag81
ag81
ag81
ag81
ag81
ag81
ag81
ag81
ag81
ag81
ag81
ag81
ag81
ag81
ag81
ag81
ag81
ag81
ag81
ag81
ag81
ag81
ag81
ag81
ag81
ag81
ag81
ag81
ag81
ag81
ag81
ag81
ag81
ag81
ag81
ag81
ag81
asg82
(lp4024
g93
ag456
ag206
ag94
ag88
ag92
ag95
ag90
ag93
ag85
aS'JJS'
p4025
ag87
ag209
ag210
ag208
ag93
ag332
ag93
ag456
ag93
ag418
ag90
ag209
ag92
ag93
ag85
ag87
ag96
ag207
ag88
ag93
ag90
ag206
ag209
ag92
ag95
ag207
ag208
ag207
ag208
ag86
ag90
ag93
ag97
asg98
VI am your betrothed bride, but because I feared lest the people should mock me when they saw me out of doors, I commanded the scullery-maid to dress herself in my clothes, and to go to church instead of me.
p4026
sba(i__main__
Sentence
p4027
(dp4028
g17
I83
sg18
(lp4029
S'Where'
p4030
aS'is'
p4031
aS'the'
p4032
aS'girl'
p4033
aS','
p4034
aS'said'
p4035
aS'he'
p4036
aS'I'
p4037
aS'want'
p4038
aS'to'
p4039
aS'see'
p4040
aS'her'
p4041
aS','
p4042
aS'go'
p4043
aS'and'
p4044
aS'bring'
p4045
aS'her'
p4046
aS'here'
p4047
aS'.'
p4048
asg51
(lp4049
VWhere
p4050
ag328
aVthe
p4051
aVgirl
p4052
ag70
ag190
aVhe
p4053
ag194
aVwant
p4054
aVto
p4055
aVsee
p4056
aVher
p4057
ag70
aVgo
p4058
aVand
p4059
aVbring
p4060
aVher
p4061
aVhere
p4062
ag78
asg79
(lp4063
g81
ag81
ag81
ag81
ag81
ag81
ag81
ag81
ag81
ag81
ag81
ag81
ag81
ag81
ag81
ag81
ag81
ag81
ag81
asg82
(lp4064
g332
ag334
ag87
ag88
ag92
ag85
ag93
ag93
ag456
ag207
ag208
ag93
ag92
ag456
ag95
ag91
ag206
ag86
ag97
asg98
VWhere is the girl, said he I want to see her, go and bring her here.
p4065
sba(i__main__
Sentence
p4066
(dp4067
g17
I84
sg18
(lp4068
S'She'
p4069
aS'went'
p4070
aS'out'
p4071
aS'and'
p4072
aS'told'
p4073
aS'the'
p4074
aS'servants'
p4075
aS'that'
p4076
aS'the'
p4077
aS'scullery-maid'
p4078
aS'was'
p4079
aS'an'
p4080
aS'impostor'
p4081
aS','
p4082
aS'and'
p4083
aS'that'
p4084
aS'they'
p4085
aS'must'
p4086
aS'take'
p4087
aS'her'
p4088
aS'out'
p4089
aS'into'
p4090
aS'the'
p4091
aS'court-yard'
p4092
aS'and'
p4093
aS'strike'
p4094
aS'off'
p4095
aS'her'
p4096
aS'head'
p4097
aS'.'
p4098
asg51
(lp4099
VShe
p4100
ag495
aVout
p4101
aVand
p4102
aVtell
p4103
aVthe
p4104
aVservant
p4105
aVthat
p4106
aVthe
p4107
aVscullery-maid
p4108
ag54
aVan
p4109
aVimpostor
p4110
ag70
aVand
p4111
aVthat
p4112
aVthey
p4113
aVmust
p4114
aVtake
p4115
aVher
p4116
aVout
p4117
aVinto
p4118
aVthe
p4119
aVcourt-yard
p4120
aVand
p4121
aVstrike
p4122
aVoff
p4123
aVher
p4124
aVhead
p4125
ag78
asg79
(lp4126
g81
ag81
ag81
ag81
ag81
ag81
ag81
ag81
ag81
ag81
ag81
ag81
ag81
ag81
ag81
ag81
ag81
ag81
ag81
ag81
ag81
ag81
ag81
ag81
ag81
ag81
ag81
ag81
ag81
ag81
asg82
(lp4127
g93
ag85
ag418
ag95
ag85
ag87
ag209
ag269
ag87
ag96
ag85
ag87
ag88
ag92
ag95
ag90
ag93
ag210
ag208
ag93
ag418
ag90
ag87
ag96
ag95
ag88
ag418
ag206
ag88
ag97
asg98
VShe went out and told the servants that the scullery-maid was an impostor, and that they must take her out into the court-yard and strike off her head.
p4128
sba(i__main__
Sentence
p4129
(dp4130
g17
I85
sg18
(lp4131
S'The'
p4132
aS'servants'
p4133
aS'laid'
p4134
aS'hold'
p4135
aS'of'
p4136
aS'maid'
p4137
aS'maleen'
p4138
aS'and'
p4139
aS'wanted'
p4140
aS'to'
p4141
aS'drag'
p4142
aS'her'
p4143
aS'out'
p4144
aS','
p4145
aS'but'
p4146
aS'she'
p4147
aS'screamed'
p4148
aS'so'
p4149
aS'loudly'
p4150
aS'for'
p4151
aS'help'
p4152
aS','
p4153
aS'that'
p4154
aS'the'
p4155
aS'king'
p4156
aS"'s"
p4157
aS'son'
p4158
aS'heard'
p4159
aS'her'
p4160
aS'voice'
p4161
aS','
p4162
aS'hurried'
p4163
aS'out'
p4164
aS'of'
p4165
aS'his'
p4166
aS'chamber'
p4167
aS'and'
p4168
aS'ordered'
p4169
aS'them'
p4170
aS'to'
p4171
aS'set'
p4172
aS'the'
p4173
aS'maiden'
p4174
aS'free'
p4175
aS'instantly'
p4176
aS'.'
p4177
asg51
(lp4178
VThe
p4179
aVservant
p4180
ag1028
aVhold
p4181
aVof
p4182
aVmaid
p4183
aVmaleen
p4184
aVand
p4185
aVwant
p4186
aVto
p4187
aVdrag
p4188
aVher
p4189
aVout
p4190
ag70
aVbut
p4191
aVshe
p4192
aVscream
p4193
aVso
p4194
aVloudly
p4195
aVfor
p4196
aVhelp
p4197
ag70
aVthat
p4198
aVthe
p4199
aVking
p4200
aV's
p4201
aVson
p4202
aVheard
p4203
aVher
p4204
aVvoice
p4205
ag70
ag2778
aVout
p4206
aVof
p4207
aVhis
p4208
aVchamber
p4209
aVand
p4210
aVorder
p4211
aVthem
p4212
aVto
p4213
aVset
p4214
aVthe
p4215
aVmaiden
p4216
aVfree
p4217
aVinstantly
p4218
ag78
asg79
(lp4219
g81
ag81
ag81
ag81
ag81
ag81
ag81
ag81
ag81
ag81
ag81
ag81
ag81
ag81
ag81
ag81
ag81
ag81
ag81
ag81
ag81
ag81
ag81
ag81
ag81
ag81
ag81
ag81
ag81
ag81
ag81
ag81
ag81
ag81
ag81
ag81
ag81
ag81
ag81
ag81
ag81
ag81
ag81
ag81
ag81
ag81
asg82
(lp4220
g87
ag209
ag85
ag94
ag90
ag88
ag90
ag95
ag85
ag207
ag208
ag206
ag418
ag92
ag95
ag93
ag85
ag86
ag86
ag90
ag88
ag92
ag90
ag87
ag88
ag517
ag88
ag88
ag206
ag88
ag92
ag85
ag418
ag90
ag206
ag88
ag95
ag94
ag93
ag207
ag208
ag87
ag88
ag96
ag86
ag97
asg98
VThe servants laid hold of maid maleen and wanted to drag her out, but she screamed so loudly for help, that the king's son heard her voice, hurried out of his chamber and ordered them to set the maiden free instantly.
p4221
sba(i__main__
Sentence
p4222
(dp4223
g17
I86
sg18
(lp4224
S'Lights'
p4225
aS'were'
p4226
aS'brought'
p4227
aS','
p4228
aS'and'
p4229
aS'then'
p4230
aS'he'
p4231
aS'saw'
p4232
aS'on'
p4233
aS'her'
p4234
aS'neck'
p4235
aS'the'
p4236
aS'gold'
p4237
aS'chain'
p4238
aS'which'
p4239
aS'he'
p4240
aS'had'
p4241
aS'given'
p4242
aS'her'
p4243
aS'at'
p4244
aS'the'
p4245
aS'church-door'
p4246
aS'.'
p4247
asg51
(lp4248
VLights
p4249
ag386
aVbring
p4250
ag70
aVand
p4251
aVthen
p4252
aVhe
p4253
aVsaw
p4254
aVon
p4255
aVher
p4256
aVneck
p4257
aVthe
p4258
aVgold
p4259
aVchain
p4260
aVwhich
p4261
aVhe
p4262
ag59
aVgive
p4263
aVher
p4264
aVat
p4265
aVthe
p4266
aVchurch-door
p4267
ag78
asg79
(lp4268
g81
ag81
ag81
ag81
ag81
ag81
ag81
ag81
ag81
ag81
ag81
ag81
ag81
ag81
ag81
ag81
ag81
ag81
ag81
ag81
ag81
ag81
ag81
asg82
(lp4269
g209
ag85
ag94
ag92
ag95
ag86
ag93
ag85
ag90
ag206
ag88
ag87
ag88
ag88
ag269
ag93
ag85
ag94
ag206
ag90
ag87
ag96
ag97
asg98
VLights were brought, and then he saw on her neck the gold chain which he had given her at the church-door.
p4270
sba(i__main__
Sentence
p4271
(dp4272
g17
I87
sg18
(lp4273
S'You'
p4274
aS'are'
p4275
aS'the'
p4276
aS'true'
p4277
aS'bride'
p4278
aS','
p4279
aS'said'
p4280
aS'he'
p4281
aS','
p4282
aS'who'
p4283
aS'went'
p4284
aS'with'
p4285
aS'me'
p4286
aS'to'
p4287
aS'church'
p4288
aS','
p4289
aS'come'
p4290
aS'with'
p4291
aS'me'
p4292
aS'now'
p4293
aS'to'
p4294
aS'my'
p4295
aS'room'
p4296
aS'.'
p4297
asg51
(lp4298
VYou
p4299
ag2266
aVthe
p4300
aVtrue
p4301
aVbride
p4302
ag70
ag190
aVhe
p4303
ag70
aVwho
p4304
ag495
aVwith
p4305
aVme
p4306
aVto
p4307
aVchurch
p4308
ag70
aVcome
p4309
aVwith
p4310
aVme
p4311
aVnow
p4312
aVto
p4313
aVmy
p4314
aVroom
p4315
ag78
asg79
(lp4316
g81
ag81
ag81
ag81
ag81
ag81
ag81
ag81
ag81
ag81
ag81
ag81
ag81
ag81
ag81
ag81
ag81
ag81
ag81
ag81
ag81
ag81
ag81
ag81
asg82
(lp4317
g93
ag456
ag87
ag96
ag88
ag92
ag85
ag93
ag92
ag89
ag85
ag90
ag93
ag207
ag88
ag92
ag88
ag90
ag93
ag86
ag207
ag206
ag88
ag97
asg98
VYou are the true bride, said he, who went with me to church, come with me now to my room.
p4318
sba(i__main__
Sentence
p4319
(dp4320
g17
I88
sg18
(lp4321
S'When'
p4322
aS'they'
p4323
aS'were'
p4324
aS'both'
p4325
aS'alone'
p4326
aS','
p4327
aS'he'
p4328
aS'said'
p4329
aS','
p4330
aS'on'
p4331
aS'the'
p4332
aS'way'
p4333
aS'to'
p4334
aS'the'
p4335
aS'church'
p4336
aS'you'
p4337
aS'did'
p4338
aS'name'
p4339
aS'maid'
p4340
aS'maleen'
p4341
aS','
p4342
aS'who'
p4343
aS'was'
p4344
aS'my'
p4345
aS'betrothed'
p4346
aS'bride'
p4347
aS'.'
p4348
asg51
(lp4349
VWhen
p4350
aVthey
p4351
ag386
aVboth
p4352
aValone
p4353
ag70
aVhe
p4354
ag190
ag70
aVon
p4355
aVthe
p4356
aVway
p4357
aVto
p4358
aVthe
p4359
aVchurch
p4360
aVyou
p4361
ag1214
aVname
p4362
aVmaid
p4363
aVmaleen
p4364
ag70
aVwho
p4365
ag54
aVmy
p4366
aVbetroth
p4367
aVbride
p4368
ag78
asg79
(lp4369
g81
ag81
ag81
ag81
ag81
ag81
ag81
ag81
ag81
ag81
ag81
ag81
ag81
ag81
ag81
ag81
ag81
ag81
ag81
ag81
ag81
ag81
ag81
ag81
ag81
ag81
ag81
asg82
(lp4370
g332
ag93
ag85
ag87
ag88
ag92
ag93
ag85
ag92
ag90
ag87
ag88
ag207
ag87
ag88
ag93
ag85
ag208
ag94
ag94
ag92
ag89
ag85
ag206
ag94
ag88
ag97
asg98
VWhen they were both alone, he said, on the way to the church you did name maid maleen, who was my betrothed bride.
p4371
sba(i__main__
Sentence
p4372
(dp4373
g17
I89
sg18
(lp4374
S'If'
p4375
aS'I'
p4376
aS'could'
p4377
aS'believe'
p4378
aS'it'
p4379
aS'possible'
p4380
aS','
p4381
aS'I'
p4382
aS'should'
p4383
aS'think'
p4384
aS'she'
p4385
aS'was'
p4386
aS'standing'
p4387
aS'before'
p4388
aS'me'
p4389
aS'-'
p4390
aS'you'
p4391
aS'are'
p4392
aS'like'
p4393
aS'her'
p4394
aS'in'
p4395
aS'every'
p4396
aS'respect'
p4397
aS'.'
p4398
asg51
(lp4399
VIf
p4400
ag194
aVcould
p4401
aVbelieve
p4402
aVit
p4403
aVpossible
p4404
ag70
ag194
aVshould
p4405
aVthink
p4406
aVshe
p4407
ag54
aVstand
p4408
aVbefore
p4409
aVme
p4410
aV-
p4411
aVyou
p4412
ag2266
aVlike
p4413
aVher
p4414
aVin
p4415
aVevery
p4416
aVrespect
p4417
ag78
asg79
(lp4418
g81
ag81
ag81
ag81
ag81
ag81
ag81
ag81
ag81
ag81
ag81
ag81
ag81
ag81
ag81
ag81
ag81
ag81
ag81
ag81
ag81
ag81
ag81
ag81
asg82
(lp4419
g90
ag93
ag210
ag208
ag93
ag96
ag92
ag93
ag210
ag208
ag93
ag85
ag91
ag86
ag93
aS':'
p4420
ag93
ag456
ag90
ag206
ag90
ag87
ag88
ag97
asg98
VIf I could believe it possible, I should think she was standing before me - you are like her in every respect.
p4421
sba(i__main__
Sentence
p4422
(dp4423
g17
I90
sg18
(lp4424
S'She'
p4425
aS'answered'
p4426
aS','
p4427
aS'I'
p4428
aS'am'
p4429
aS'maid'
p4430
aS'maleen'
p4431
aS','
p4432
aS'who'
p4433
aS'for'
p4434
aS'your'
p4435
aS'sake'
p4436
aS'was'
p4437
aS'imprisoned'
p4438
aS'seven'
p4439
aS'years'
p4440
aS'in'
p4441
aS'the'
p4442
aS'darkness'
p4443
aS','
p4444
aS'who'
p4445
aS'suffered'
p4446
aS'hunger'
p4447
aS'and'
p4448
aS'thirst'
p4449
aS','
p4450
aS'and'
p4451
aS'has'
p4452
aS'lived'
p4453
aS'so'
p4454
aS'long'
p4455
aS'in'
p4456
aS'want'
p4457
aS'and'
p4458
aS'poverty'
p4459
aS'.'
p4460
asg51
(lp4461
VShe
p4462
aVanswer
p4463
ag70
ag194
ag2377
aVmaid
p4464
aVmaleen
p4465
ag70
aVwho
p4466
aVfor
p4467
aVyour
p4468
aVsake
p4469
ag54
aVimprison
p4470
aVseven
p4471
aVyear
p4472
aVin
p4473
aVthe
p4474
aVdarkness
p4475
ag70
aVwho
p4476
aVsuffer
p4477
aVhunger
p4478
aVand
p4479
aVthirst
p4480
ag70
aVand
p4481
ag1708
aVlive
p4482
aVso
p4483
aVlong
p4484
aVin
p4485
aVwant
p4486
aVand
p4487
aVpoverty
p4488
ag78
asg79
(lp4489
g81
ag81
ag81
ag81
ag81
ag81
ag81
ag81
ag81
ag81
ag81
ag81
ag81
ag81
ag81
ag81
ag81
ag81
ag81
ag81
ag81
ag81
ag81
ag81
ag81
ag81
ag81
ag81
ag81
ag81
ag81
ag81
ag81
ag81
ag81
ag81
asg82
(lp4490
g93
ag85
ag92
ag93
ag456
ag96
ag209
ag92
ag89
ag90
ag206
ag88
ag85
ag94
ag333
ag209
ag90
ag87
ag88
ag92
ag89
ag94
ag1784
ag95
ag96
ag92
ag95
ag334
ag94
ag86
ag86
ag90
ag96
ag95
ag88
ag97
asg98
VShe answered, I am maid maleen, who for your sake was imprisoned seven years in the darkness, who suffered hunger and thirst, and has lived so long in want and poverty.
p4491
sba(i__main__
Sentence
p4492
(dp4493
g17
I91
sg18
(lp4494
S'Today'
p4495
aS','
p4496
aS'however'
p4497
aS','
p4498
aS'the'
p4499
aS'sun'
p4500
aS'is'
p4501
aS'shining'
p4502
aS'on'
p4503
aS'me'
p4504
aS'once'
p4505
aS'more'
p4506
aS'.'
p4507
asg51
(lp4508
VToday
p4509
ag70
aVhowever
p4510
ag70
aVthe
p4511
aVsun
p4512
ag328
aVshin
p4513
aVon
p4514
aVme
p4515
aVonce
p4516
aVmore
p4517
ag78
asg79
(lp4518
g81
ag81
ag81
ag81
ag81
ag81
ag81
ag81
ag81
ag81
ag81
ag81
ag81
asg82
(lp4519
g88
ag92
ag86
ag92
ag87
ag88
ag334
ag91
ag90
ag93
ag86
ag2541
ag97
asg98
VToday, however, the sun is shining on me once more.
p4520
sba(i__main__
Sentence
p4521
(dp4522
g17
I92
sg18
(lp4523
S'I'
p4524
aS'was'
p4525
aS'married'
p4526
aS'to'
p4527
aS'you'
p4528
aS'in'
p4529
aS'the'
p4530
aS'church'
p4531
aS','
p4532
aS'and'
p4533
aS'I'
p4534
aS'am'
p4535
aS'your'
p4536
aS'lawful'
p4537
aS'wife'
p4538
aS'.'
p4539
asg51
(lp4540
g194
ag54
ag2673
aVto
p4541
aVyou
p4542
aVin
p4543
aVthe
p4544
aVchurch
p4545
ag70
aVand
p4546
ag194
ag2377
aVyour
p4547
aVlawful
p4548
aVwife
p4549
ag78
asg79
(lp4550
g81
ag81
ag81
ag81
ag81
ag81
ag81
ag81
ag81
ag81
ag81
ag81
ag81
ag81
ag81
ag81
asg82
(lp4551
g93
ag85
ag94
ag207
ag93
ag90
ag87
ag88
ag92
ag95
ag93
ag456
ag206
ag96
ag88
ag97
asg98
VI was married to you in the church, and I am your lawful wife.
p4552
sba(i__main__
Sentence
p4553
(dp4554
g17
I93
sg18
(lp4555
S'Then'
p4556
aS'they'
p4557
aS'kissed'
p4558
aS'each'
p4559
aS'other'
p4560
aS','
p4561
aS'and'
p4562
aS'were'
p4563
aS'happy'
p4564
aS'all'
p4565
aS'the'
p4566
aS'days'
p4567
aS'of'
p4568
aS'their'
p4569
aS'lives'
p4570
aS'.'
p4571
asg51
(lp4572
VThen
p4573
aVthey
p4574
aVkiss
p4575
aVeach
p4576
aVother
p4577
ag70
aVand
p4578
ag386
aVhappy
p4579
aVall
p4580
aVthe
p4581
aVday
p4582
aVof
p4583
aVtheir
p4584
aVlife
p4585
ag78
asg79
(lp4586
g81
ag81
ag81
ag81
ag81
ag81
ag81
ag81
ag81
ag81
ag81
ag81
ag81
ag81
ag81
ag81
asg82
(lp4587
g86
ag93
ag85
ag87
ag96
ag92
ag95
ag85
ag96
ag87
ag87
ag209
ag90
ag206
ag209
ag97
asg98
VThen they kissed each other, and were happy all the days of their lives.
p4588
sba(i__main__
Sentence
p4589
(dp4590
g17
I94
sg18
(lp4591
S'The'
p4592
aS'false'
p4593
aS'bride'
p4594
aS'was'
p4595
aS'rewarded'
p4596
aS'for'
p4597
aS'what'
p4598
aS'she'
p4599
aS'had'
p4600
aS'done'
p4601
aS'by'
p4602
aS'having'
p4603
aS'her'
p4604
aS'head'
p4605
aS'cut'
p4606
aS'off'
p4607
aS'.'
p4608
asg51
(lp4609
VThe
p4610
aVfalse
p4611
aVbride
p4612
ag54
aVreward
p4613
aVfor
p4614
aVwhat
p4615
aVshe
p4616
ag59
aVdo
p4617
aVby
p4618
aVhaving
p4619
aVher
p4620
aVhead
p4621
aVcut
p4622
aVoff
p4623
ag78
asg79
(lp4624
g81
ag81
ag81
ag81
ag81
ag81
ag81
ag81
ag81
ag81
ag81
ag81
ag81
ag81
ag81
ag81
ag81
asg82
(lp4625
g87
ag88
ag88
ag85
ag94
ag90
ag89
ag93
ag85
ag94
ag90
ag88
ag206
ag88
ag85
ag418
ag97
asg98
VThe false bride was rewarded for what she had done by having her head cut off.
p4626
sba(i__main__
Sentence
p4627
(dp4628
g17
I95
sg18
(lp4629
S'The'
p4630
aS'tower'
p4631
aS'in'
p4632
aS'which'
p4633
aS'maid'
p4634
aS'maleen'
p4635
aS'had'
p4636
aS'been'
p4637
aS'imprisoned'
p4638
aS'remained'
p4639
aS'standing'
p4640
aS'for'
p4641
aS'a'
p4642
aS'long'
p4643
aS'time'
p4644
aS','
p4645
aS'and'
p4646
aS'when'
p4647
aS'the'
p4648
aS'children'
p4649
aS'passed'
p4650
aS'by'
p4651
aS'it'
p4652
aS'they'
p4653
aS'sang'
p4654
aS','
p4655
aS'king'
p4656
aS','
p4657
aS'klang'
p4658
aS','
p4659
aS'gloria'
p4660
aS'.'
p4661
asg51
(lp4662
VThe
p4663
aVtower
p4664
aVin
p4665
aVwhich
p4666
aVmaid
p4667
aVmaleen
p4668
ag59
ag1450
aVimprison
p4669
aVremain
p4670
aVstanding
p4671
aVfor
p4672
ag56
aVlong
p4673
aVtime
p4674
ag70
aVand
p4675
aVwhen
p4676
aVthe
p4677
aVchild
p4678
aVpass
p4679
aVby
p4680
aVit
p4681
aVthey
p4682
aVsing
p4683
ag70
aVking
p4684
ag70
aVklang
p4685
ag70
aVgloria
p4686
ag78
asg79
(lp4687
g81
ag81
ag81
ag81
ag81
ag81
ag81
ag81
ag81
ag81
ag81
ag81
ag81
ag81
ag81
ag81
ag81
ag81
ag81
ag81
ag81
ag81
ag81
ag81
ag81
ag81
ag81
ag81
ag81
ag81
ag81
ag81
asg82
(lp4688
g87
ag88
ag90
ag269
ag94
ag88
ag85
ag94
ag94
ag94
ag88
ag90
ag87
ag96
ag88
ag92
ag95
ag332
ag87
ag209
ag85
ag90
ag93
ag93
ag456
ag92
ag91
ag92
ag96
ag92
ag88
ag97
asg98
VThe tower in which maid maleen had been imprisoned remained standing for a long time, and when the children passed by it they sang,      king, klang, gloria.
p4689
sba(i__main__
Sentence
p4690
(dp4691
g17
I96
sg18
(lp4692
S'Who'
p4693
aS'sits'
p4694
aS'within'
p4695
aS'this'
p4696
aS'tower'
p4697
aS'.'
p4698
asg51
(lp4699
VWho
p4700
aVsits
p4701
aVwithin
p4702
aVthis
p4703
aVtower
p4704
ag78
asg79
(lp4705
g81
ag81
ag81
ag81
ag81
ag81
asg82
(lp4706
g89
ag209
ag456
ag87
ag88
ag97
asg98
VWho sits within this tower.
p4707
sba(i__main__
Sentence
p4708
(dp4709
g17
I97
sg18
(lp4710
S'A'
p4711
aS'king'
p4712
aS"'s"
p4713
aS'daughter'
p4714
aS','
p4715
aS'she'
p4716
aS'sits'
p4717
aS'within'
p4718
aS','
p4719
aS'a'
p4720
aS'sight'
p4721
aS'of'
p4722
aS'her'
p4723
aS'I'
p4724
aS'can'
p4725
aS'not'
p4726
aS'win'
p4727
aS','
p4728
aS'the'
p4729
aS'wall'
p4730
aS'it'
p4731
aS'will'
p4732
aS'not'
p4733
aS'break'
p4734
aS','
p4735
aS'the'
p4736
aS'stone'
p4737
aS'can'
p4738
aS'not'
p4739
aS'be'
p4740
aS'pierced'
p4741
aS'.'
p4742
asg51
(lp4743
VA
p4744
aVking
p4745
aV's
p4746
aVdaughter
p4747
ag70
aVshe
p4748
aVsit
p4749
aVwithin
p4750
ag70
ag56
aVsight
p4751
aVof
p4752
aVher
p4753
ag194
aVcan
p4754
aVnot
p4755
aVwin
p4756
ag70
aVthe
p4757
aVwall
p4758
aVit
p4759
aVwill
p4760
aVnot
p4761
aVbreak
p4762
ag70
aVthe
p4763
aVstone
p4764
aVcan
p4765
aVnot
p4766
aVbe
p4767
aVpierce
p4768
ag78
asg79
(lp4769
g81
ag81
ag81
ag81
ag81
ag81
ag81
ag81
ag81
ag81
ag81
ag81
ag81
ag81
ag81
ag81
ag81
ag81
ag81
ag81
ag81
ag81
ag81
ag81
ag81
ag81
ag81
ag81
ag81
ag81
ag81
ag81
asg82
(lp4770
g87
ag88
ag517
ag88
ag92
ag93
ag334
ag90
ag92
ag87
ag88
ag90
ag206
ag93
ag210
ag86
ag208
ag92
ag87
ag88
ag93
ag210
ag86
ag208
ag92
ag87
ag88
ag210
ag86
ag208
ag94
ag97
asg98
VA king's daughter, she sits within,      a sight of her I cannot win,      the wall it will not break,      the stone cannot be pierced.
p4771
sba(i__main__
Sentence
p4772
(dp4773
g17
I98
sg18
(lp4774
S'Little'
p4775
aS'Hans'
p4776
aS','
p4777
aS'with'
p4778
aS'your'
p4779
aS'coat'
p4780
aS'so'
p4781
aS'gay'
p4782
aS','
p4783
aS'follow'
p4784
aS'me'
p4785
aS','
p4786
aS'follow'
p4787
aS'me'
p4788
aS','
p4789
aS'fast'
p4790
aS'as'
p4791
aS'you'
p4792
aS'may'
p4793
aS'.'
p4794
asg51
(lp4795
VLittle
p4796
aVHans
p4797
ag70
aVwith
p4798
aVyour
p4799
aVcoat
p4800
aVso
p4801
aVgay
p4802
ag70
aVfollow
p4803
aVme
p4804
ag70
aVfollow
p4805
aVme
p4806
ag70
aVfast
p4807
ag56
aVyou
p4808
aVmay
p4809
ag78
asg79
(lp4810
g81
aVPERSON
p4811
ag81
ag81
ag81
ag81
ag81
ag81
ag81
ag81
ag81
ag81
ag81
ag81
ag81
ag81
ag81
ag81
ag81
ag81
asg82
(lp4812
g86
ag334
ag92
ag90
ag206
ag88
ag90
ag88
ag92
ag456
ag93
ag92
ag456
ag93
ag92
ag86
ag90
ag93
ag210
ag97
asg98
VLittle Hans, with your coat so gay,      follow me, follow me, fast as you may. 
p4813
sbasbsS'summary'
p4814
g0
(g7
g2
Ntp4815
Rp4816
(dp4817
g11
S"A princess refuses to marry the man her father has chosen for her. She instead wishes to marry a man of whom her father does not approve. In order to break her spirit, the king locks his daughter and her waiting maid in a dark tower for seven years. The two begin to work at the wall of the tower with knives until they manage to look out. They find the kingdom in ruins. They travel to another kingdom where they are hired to be kitchen maids. It just so happens this is the same kingdom where Maid Maleen's lover lives. He is about to be married to another woman who is so ugly she is afraid to let herself be seen. Instead of going to the wedding herself, she forces Maid Maleen to go in her place. Maid Maleen sets the man up so..."
p4818
sg13
(lp4819
(i__main__
Sentence
p4820
(dp4821
g17
I0
sg18
(lp4822
S'A'
p4823
aS'princess'
p4824
aS'refuses'
p4825
aS'to'
p4826
aS'marry'
p4827
aS'the'
p4828
aS'man'
p4829
aS'her'
p4830
aS'father'
p4831
aS'has'
p4832
aS'chosen'
p4833
aS'for'
p4834
aS'her'
p4835
aS'.'
p4836
asg51
(lp4837
g4744
aVprincess
p4838
aVrefuse
p4839
aVto
p4840
aVmarry
p4841
aVthe
p4842
aVman
p4843
aVher
p4844
aVfather
p4845
ag1708
ag1485
aVfor
p4846
aVher
p4847
ag78
asg79
(lp4848
g81
ag81
ag81
ag81
ag81
ag81
ag81
ag81
ag81
ag81
ag81
ag81
ag81
ag81
asg82
(lp4849
g87
ag88
ag334
ag207
ag208
ag87
ag88
ag93
ag86
ag334
ag94
ag90
ag206
ag97
asg98
VA princess refuses to marry the man her father has chosen for her.
p4850
sba(i__main__
Sentence
p4851
(dp4852
g17
I1
sg18
(lp4853
S'She'
p4854
aS'instead'
p4855
aS'wishes'
p4856
aS'to'
p4857
aS'marry'
p4858
aS'a'
p4859
aS'man'
p4860
aS'of'
p4861
aS'whom'
p4862
aS'her'
p4863
aS'father'
p4864
aS'does'
p4865
aS'not'
p4866
aS'approve'
p4867
aS'.'
p4868
asg51
(lp4869
VShe
p4870
aVinstead
p4871
aVwish
p4872
aVto
p4873
aVmarry
p4874
ag56
aVman
p4875
aVof
p4876
aVwhom
p4877
aVher
p4878
aVfather
p4879
aVdo
p4880
aVnot
p4881
aVapprove
p4882
ag78
asg79
(lp4883
g81
ag81
ag81
ag81
ag81
ag81
ag81
ag81
ag81
ag81
ag81
ag81
ag81
ag81
ag81
asg82
(lp4884
g93
ag85
ag209
ag207
ag208
ag87
ag88
ag90
ag89
ag206
ag88
ag334
ag86
ag208
ag97
asg98
VShe instead wishes to marry a man of whom her father does not approve.
p4885
sba(i__main__
Sentence
p4886
(dp4887
g17
I2
sg18
(lp4888
S'In'
p4889
aS'order'
p4890
aS'to'
p4891
aS'break'
p4892
aS'her'
p4893
aS'spirit'
p4894
aS','
p4895
aS'the'
p4896
aS'king'
p4897
aS'locks'
p4898
aS'his'
p4899
aS'daughter'
p4900
aS'and'
p4901
aS'her'
p4902
aS'waiting'
p4903
aS'maid'
p4904
aS'in'
p4905
aS'a'
p4906
aS'dark'
p4907
aS'tower'
p4908
aS'for'
p4909
aS'seven'
p4910
aS'years'
p4911
aS'.'
p4912
asg51
(lp4913
VIn
p4914
aVorder
p4915
aVto
p4916
aVbreak
p4917
aVher
p4918
aVspirit
p4919
ag70
aVthe
p4920
aVking
p4921
aVlock
p4922
aVhis
p4923
aVdaughter
p4924
aVand
p4925
aVher
p4926
aVwaiting
p4927
aVmaid
p4928
aVin
p4929
ag56
aVdark
p4930
aVtower
p4931
aVfor
p4932
aVseven
p4933
aVyear
p4934
ag78
asg79
(lp4935
g81
ag81
ag81
ag81
ag81
ag81
ag81
ag81
ag81
ag81
ag81
ag81
ag81
ag81
ag81
ag81
ag81
ag81
ag81
ag81
ag81
ag81
ag81
ag81
asg82
(lp4936
g90
ag88
ag207
ag208
ag206
ag88
ag92
ag87
ag88
ag209
ag206
ag88
ag95
ag206
ag88
ag85
ag90
ag87
ag96
ag88
ag90
ag333
ag209
ag97
asg98
VIn order to break her spirit, the king locks his daughter and her waiting maid in a dark tower for seven years.
p4937
sba(i__main__
Sentence
p4938
(dp4939
g17
I3
sg18
(lp4940
S'The'
p4941
aS'two'
p4942
aS'begin'
p4943
aS'to'
p4944
aS'work'
p4945
aS'at'
p4946
aS'the'
p4947
aS'wall'
p4948
aS'of'
p4949
aS'the'
p4950
aS'tower'
p4951
aS'with'
p4952
aS'knives'
p4953
aS'until'
p4954
aS'they'
p4955
aS'manage'
p4956
aS'to'
p4957
aS'look'
p4958
aS'out'
p4959
aS'.'
p4960
asg51
(lp4961
VThe
p4962
aVtwo
p4963
aVbegin
p4964
aVto
p4965
aVwork
p4966
aVat
p4967
aVthe
p4968
aVwall
p4969
aVof
p4970
aVthe
p4971
aVtower
p4972
aVwith
p4973
aVknife
p4974
aVuntil
p4975
aVthey
p4976
aVmanage
p4977
aVto
p4978
aVlook
p4979
aVout
p4980
ag78
asg79
(lp4981
g81
ag81
ag81
ag81
ag81
ag81
ag81
ag81
ag81
ag81
ag81
ag81
ag81
ag81
ag81
ag81
ag81
ag81
ag81
ag81
asg82
(lp4982
g87
ag333
ag88
ag207
ag208
ag90
ag87
ag88
ag90
ag87
ag88
ag90
ag209
ag90
ag93
ag456
ag207
ag208
ag418
ag97
asg98
VThe two begin to work at the wall of the tower with knives until they manage to look out.
p4983
sba(i__main__
Sentence
p4984
(dp4985
g17
I4
sg18
(lp4986
S'They'
p4987
aS'find'
p4988
aS'the'
p4989
aS'kingdom'
p4990
aS'in'
p4991
aS'ruins'
p4992
aS'.'
p4993
asg51
(lp4994
VThey
p4995
aVfind
p4996
aVthe
p4997
aVkingdom
p4998
aVin
p4999
aVruin
p5000
ag78
asg79
(lp5001
g81
ag81
ag81
ag81
ag81
ag81
ag81
asg82
(lp5002
g93
ag456
ag87
ag88
ag90
ag209
ag97
asg98
VThey find the kingdom in ruins.
p5003
sba(i__main__
Sentence
p5004
(dp5005
g17
I5
sg18
(lp5006
S'They'
p5007
aS'travel'
p5008
aS'to'
p5009
aS'another'
p5010
aS'kingdom'
p5011
aS'where'
p5012
aS'they'
p5013
aS'are'
p5014
aS'hired'
p5015
aS'to'
p5016
aS'be'
p5017
aS'kitchen'
p5018
aS'maids'
p5019
aS'.'
p5020
asg51
(lp5021
VThey
p5022
aVtravel
p5023
aVto
p5024
aVanother
p5025
aVkingdom
p5026
aVwhere
p5027
aVthey
p5028
ag2266
aVhire
p5029
aVto
p5030
aVbe
p5031
aVkitchen
p5032
aVmaid
p5033
ag78
asg79
(lp5034
g81
ag81
ag81
ag81
ag81
ag81
ag81
ag81
ag81
ag81
ag81
ag81
ag81
ag81
asg82
(lp5035
g93
ag456
ag207
ag87
ag88
ag332
ag93
ag456
ag94
ag207
ag208
ag94
ag209
ag97
asg98
VThey travel to another kingdom where they are hired to be kitchen maids.
p5036
sba(i__main__
Sentence
p5037
(dp5038
g17
I6
sg18
(lp5039
S'It'
p5040
aS'just'
p5041
aS'so'
p5042
aS'happens'
p5043
aS'this'
p5044
aS'is'
p5045
aS'the'
p5046
aS'same'
p5047
aS'kingdom'
p5048
aS'where'
p5049
aS'Maid'
p5050
aS'Maleen'
p5051
aS"'s"
p5052
aS'lover'
p5053
aS'lives'
p5054
aS'.'
p5055
asg51
(lp5056
VIt
p5057
aVjust
p5058
aVso
p5059
aVhappen
p5060
aVthis
p5061
ag328
aVthe
p5062
aVsame
p5063
aVkingdom
p5064
aVwhere
p5065
aVMaid
p5066
aVMaleen
p5067
aV's
p5068
aVlover
p5069
ag4585
ag78
asg79
(lp5070
g81
ag81
ag81
ag81
ag81
ag81
ag81
ag81
ag81
ag81
aVPERSON
p5071
aVPERSON
p5072
ag81
ag81
ag81
ag81
asg82
(lp5073
g93
ag86
ag86
ag334
ag87
ag334
ag87
ag96
ag88
ag332
ag417
ag417
ag517
ag88
ag209
ag97
asg98
VIt just so happens this is the same kingdom where Maid Maleen's lover lives.
p5074
sba(i__main__
Sentence
p5075
(dp5076
g17
I7
sg18
(lp5077
S'He'
p5078
aS'is'
p5079
aS'about'
p5080
aS'to'
p5081
aS'be'
p5082
aS'married'
p5083
aS'to'
p5084
aS'another'
p5085
aS'woman'
p5086
aS'who'
p5087
aS'is'
p5088
aS'so'
p5089
aS'ugly'
p5090
aS'she'
p5091
aS'is'
p5092
aS'afraid'
p5093
aS'to'
p5094
aS'let'
p5095
aS'herself'
p5096
aS'be'
p5097
aS'seen'
p5098
aS'.'
p5099
asg51
(lp5100
VHe
p5101
ag328
aVabout
p5102
aVto
p5103
aVbe
p5104
ag2673
aVto
p5105
aVanother
p5106
aVwoman
p5107
aVwho
p5108
ag328
aVso
p5109
aVugly
p5110
aVshe
p5111
ag328
aVafraid
p5112
aVto
p5113
aVlet
p5114
aVherself
p5115
aVbe
p5116
ag1019
ag78
asg79
(lp5117
g81
ag81
ag81
ag81
ag81
ag81
ag81
ag81
ag81
ag81
ag81
ag81
ag81
ag81
ag81
ag81
ag81
ag81
ag81
ag81
ag81
ag81
asg82
(lp5118
g93
ag334
ag90
ag207
ag208
ag94
ag207
ag87
ag88
ag89
ag334
ag86
ag86
ag93
ag334
ag96
ag207
ag208
ag93
ag208
ag94
ag97
asg98
VHe is about to be married to another woman who is so ugly she is afraid to let herself be seen.
p5119
sba(i__main__
Sentence
p5120
(dp5121
g17
I8
sg18
(lp5122
S'Instead'
p5123
aS'of'
p5124
aS'going'
p5125
aS'to'
p5126
aS'the'
p5127
aS'wedding'
p5128
aS'herself'
p5129
aS','
p5130
aS'she'
p5131
aS'forces'
p5132
aS'Maid'
p5133
aS'Maleen'
p5134
aS'to'
p5135
aS'go'
p5136
aS'in'
p5137
aS'her'
p5138
aS'place'
p5139
aS'.'
p5140
asg51
(lp5141
VInstead
p5142
aVof
p5143
aVgo
p5144
aVto
p5145
aVthe
p5146
aVwedding
p5147
aVherself
p5148
ag70
aVshe
p5149
aVforce
p5150
aVMaid
p5151
aVMaleen
p5152
aVto
p5153
aVgo
p5154
aVin
p5155
aVher
p5156
aVplace
p5157
ag78
asg79
(lp5158
g81
ag81
ag81
ag81
ag81
ag81
ag81
ag81
ag81
ag81
aVPERSON
p5159
aVPERSON
p5160
ag81
ag81
ag81
ag81
ag81
ag81
asg82
(lp5161
g86
ag90
ag91
ag207
ag87
ag88
ag93
ag92
ag93
ag334
ag417
ag417
ag207
ag208
ag90
ag206
ag88
ag97
asg98
VInstead of going to the wedding herself, she forces Maid Maleen to go in her place.
p5162
sba(i__main__
Sentence
p5163
(dp5164
g17
I9
sg18
(lp5165
S'Maid'
p5166
aS'Maleen'
p5167
aS'sets'
p5168
aS'the'
p5169
aS'man'
p5170
aS'up'
p5171
aS'so'
p5172
aS'...'
p5173
asg51
(lp5174
VMaid
p5175
aVMaleen
p5176
aVset
p5177
aVthe
p5178
aVman
p5179
aVup
p5180
aVso
p5181
aV...
p5182
asg79
(lp5183
VPERSON
p5184
aVPERSON
p5185
ag81
ag81
ag81
ag81
ag81
ag81
asg82
(lp5186
g417
ag417
ag334
ag87
ag88
ag418
ag86
ag4420
asg98
VMaid Maleen sets the man up so...
p5187
sbasbsS'name'
p5188
S'Maid Maleen'
p5189
sS'summaries'
p5190
(lp5191
g4816
asb.