ccopy_reg
_reconstructor
p0
(c__main__
Story
p1
c__builtin__
object
p2
Ntp3
Rp4
(dp5
S'text'
p6
g0
(c__main__
Document
p7
g2
Ntp8
Rp9
(dp10
S'_Document__initialContent'
p11
S"There was once upon a time a far-sighted, crafty peasant whose\ntricks were much talked about.  The best story, however, is\nhow he once got hold of the devil, and made a fool of him.\nThe peasant had one day been working in his field, and as\ntwilight had set in, was making ready for the journey home, when\nhe saw a heap of burning coals in the middle of his field,\nand when,\nfull of astonishment, he went up to it, a little black devil\nwas sitting on the live coals.  Are you sitting upon a treasure,\nsaid the peasant.  Yes, in truth, replied the devil, on a treasure\nwhich contains more gold and silver than you have ever seen in\nyour life.  The treasure lies in my field and belongs to me, said\nthe peasant.  It is yours, answered the devil, if you will for\ntwo years give me one half of everything your field produces.\nMoney I have enough, but I have a desire for the fruits of the\nearth.  The peasant agreed to the bargain.  In order, however,\nthat no dispute may arise about the division, said he, everything\nthat is above ground shall belong to you, and what is under the\nearth to me.  The devil was quite satisfied with that, but the\ncunning peasant had sown turnips.\nNow when the time for harvest came, the devil appeared and\nwanted to take away his crop.  But he found nothing but the\nyellow withered leaves, while the peasant, full of delight,\nwas digging up his turnips.  You have had the best of it for once,\nsaid the devil, but the next time that won't do.  What grows\nabove ground shall be yours, and what is under it, mine.  I am\nwilling, replied the peasant.  But when the time came to sow, he\ndid not again sow turnips, but wheat.  The grain became ripe,\nand the peasant went into the field and cut the full stalks\ndown to the ground.  When the devil came, he found nothing but\nthe stubble, and went away in a fury down into a cleft in the\nrocks.  That is the way to cheat the devil, said the\npeasant, and went and fetched away the treasure.\n"
p12
sS'sentences'
p13
(lp14
(i__main__
Sentence
p15
(dp16
S'index'
p17
I0
sS'words'
p18
(lp19
S'There'
p20
aS'was'
p21
aS'once'
p22
aS'upon'
p23
aS'a'
p24
aS'time'
p25
aS'a'
p26
aS'far-sighted'
p27
aS','
p28
aS'crafty'
p29
aS'peasant'
p30
aS'whose'
p31
aS'tricks'
p32
aS'were'
p33
aS'much'
p34
aS'talked'
p35
aS'about'
p36
aS'.'
p37
asS'lemmas'
p38
(lp39
VThere
p40
aVbe
p41
aVonce
p42
aVupon
p43
aVa
p44
aVtime
p45
ag44
aVfar-sighted
p46
aV,
p47
aVcrafty
p48
aVpeasant
p49
aVwhose
p50
aVtrick
p51
aVbe
p52
aVmuch
p53
aVtalk
p54
aVabout
p55
aV.
p56
asS'nerTags'
p57
(lp58
VO
p59
ag59
ag59
ag59
ag59
ag59
ag59
ag59
ag59
ag59
ag59
ag59
ag59
ag59
ag59
ag59
ag59
ag59
asS'posTags'
p60
(lp61
S'EX'
p62
aS'VBD'
p63
aS'RB'
p64
aS'IN'
p65
aS'DT'
p66
aS'NN'
p67
ag66
aS'JJ'
p68
aS','
p69
ag68
ag67
aS'WP$'
p70
aS'NNS'
p71
ag63
ag64
aS'VBN'
p72
ag65
aS'.'
p73
asS'_Sentence__initialContent'
p74
VThere was once upon a time a far-sighted, crafty peasant whose tricks were much talked about.
p75
sba(i__main__
Sentence
p76
(dp77
g17
I1
sg18
(lp78
S'The'
p79
aS'best'
p80
aS'story'
p81
aS','
p82
aS'however'
p83
aS','
p84
aS'is'
p85
aS'how'
p86
aS'he'
p87
aS'once'
p88
aS'got'
p89
aS'hold'
p90
aS'of'
p91
aS'the'
p92
aS'devil'
p93
aS','
p94
aS'and'
p95
aS'made'
p96
aS'a'
p97
aS'fool'
p98
aS'of'
p99
aS'him'
p100
aS'.'
p101
asg38
(lp102
VThe
p103
aVbest
p104
aVstory
p105
ag47
aVhowever
p106
ag47
aVbe
p107
aVhow
p108
aVhe
p109
aVonce
p110
aVget
p111
aVhold
p112
aVof
p113
aVthe
p114
aVdevil
p115
ag47
aVand
p116
aVmake
p117
ag44
aVfool
p118
aVof
p119
aVhim
p120
ag56
asg57
(lp121
g59
ag59
ag59
ag59
ag59
ag59
ag59
ag59
ag59
ag59
ag59
ag59
ag59
ag59
ag59
ag59
ag59
ag59
ag59
ag59
ag59
ag59
ag59
asg60
(lp122
g66
aS'JJS'
p123
ag67
ag69
ag64
ag69
aS'VBZ'
p124
aS'WRB'
p125
aS'PRP'
p126
ag64
ag63
ag72
ag65
ag66
ag67
ag69
aS'CC'
p127
ag63
ag66
ag67
ag65
ag126
ag73
asg74
VThe best story, however, is how he once got hold of the devil, and made a fool of him.
p128
sba(i__main__
Sentence
p129
(dp130
g17
I2
sg18
(lp131
S'The'
p132
aS'peasant'
p133
aS'had'
p134
aS'one'
p135
aS'day'
p136
aS'been'
p137
aS'working'
p138
aS'in'
p139
aS'his'
p140
aS'field'
p141
aS','
p142
aS'and'
p143
aS'as'
p144
aS'twilight'
p145
aS'had'
p146
aS'set'
p147
aS'in'
p148
aS','
p149
aS'was'
p150
aS'making'
p151
aS'ready'
p152
aS'for'
p153
aS'the'
p154
aS'journey'
p155
aS'home'
p156
aS','
p157
aS'when'
p158
aS'he'
p159
aS'saw'
p160
aS'a'
p161
aS'heap'
p162
aS'of'
p163
aS'burning'
p164
aS'coals'
p165
aS'in'
p166
aS'the'
p167
aS'middle'
p168
aS'of'
p169
aS'his'
p170
aS'field'
p171
aS','
p172
aS'and'
p173
aS'when'
p174
aS','
p175
aS'full'
p176
aS'of'
p177
aS'astonishment'
p178
aS','
p179
aS'he'
p180
aS'went'
p181
aS'up'
p182
aS'to'
p183
aS'it'
p184
aS','
p185
aS'a'
p186
aS'little'
p187
aS'black'
p188
aS'devil'
p189
aS'was'
p190
aS'sitting'
p191
aS'on'
p192
aS'the'
p193
aS'live'
p194
aS'coals'
p195
aS'.'
p196
asg38
(lp197
VThe
p198
aVpeasant
p199
aVhave
p200
aVone
p201
aVday
p202
aVbe
p203
aVwork
p204
aVin
p205
aVhis
p206
aVfield
p207
ag47
aVand
p208
ag44
aVtwilight
p209
ag200
aVset
p210
aVin
p211
ag47
ag41
aVmake
p212
aVready
p213
aVfor
p214
aVthe
p215
aVjourney
p216
aVhome
p217
ag47
aVwhen
p218
aVhe
p219
aVsaw
p220
ag44
aVheap
p221
aVof
p222
aVburn
p223
aVcoal
p224
aVin
p225
aVthe
p226
aVmiddle
p227
aVof
p228
aVhis
p229
aVfield
p230
ag47
aVand
p231
aVwhen
p232
ag47
aVfull
p233
aVof
p234
aVastonishment
p235
ag47
aVhe
p236
aVgo
p237
aVup
p238
aVto
p239
aVit
p240
ag47
ag44
aVlittle
p241
aVblack
p242
aVdevil
p243
ag41
aVsit
p244
aVon
p245
aVthe
p246
aVlive
p247
aVcoal
p248
ag56
asg57
(lp249
g59
ag59
ag59
ag59
ag59
ag59
ag59
ag59
ag59
ag59
ag59
ag59
ag59
ag59
ag59
ag59
ag59
ag59
ag59
ag59
ag59
ag59
ag59
ag59
ag59
ag59
ag59
ag59
ag59
ag59
ag59
ag59
ag59
ag59
ag59
ag59
ag59
ag59
ag59
ag59
ag59
ag59
ag59
ag59
ag59
ag59
ag59
ag59
ag59
ag59
ag59
ag59
ag59
ag59
ag59
ag59
ag59
ag59
ag59
ag59
ag59
ag59
ag59
ag59
ag59
asg60
(lp250
g66
ag67
ag63
aS'CD'
p251
ag67
ag72
aS'VBG'
p252
ag65
aS'PRP$'
p253
ag67
ag69
ag127
ag65
ag67
ag63
ag72
ag65
ag69
ag63
ag252
ag64
ag65
ag66
ag67
ag67
ag69
ag125
ag126
ag63
ag66
ag67
ag65
ag252
ag71
ag65
ag66
ag67
ag65
ag253
ag67
ag69
ag127
ag125
ag69
ag68
ag65
ag67
ag69
ag126
ag63
aS'RP'
p254
aS'TO'
p255
ag126
ag69
ag66
ag64
ag68
ag67
ag63
ag252
ag65
ag66
ag68
ag71
ag73
asg74
VThe peasant had one day been working in his field, and as twilight had set in, was making ready for the journey home, when he saw a heap of burning coals in the middle of his field, and when, full of astonishment, he went up to it, a little black devil was sitting on the live coals.
p256
sba(i__main__
Sentence
p257
(dp258
g17
I3
sg18
(lp259
S'Are'
p260
aS'you'
p261
aS'sitting'
p262
aS'upon'
p263
aS'a'
p264
aS'treasure'
p265
aS','
p266
aS'said'
p267
aS'the'
p268
aS'peasant'
p269
aS'.'
p270
asg38
(lp271
VAre
p272
aVyou
p273
ag244
aVupon
p274
ag44
aVtreasure
p275
ag47
aVsay
p276
aVthe
p277
aVpeasant
p278
ag56
asg57
(lp279
g59
ag59
ag59
ag59
ag59
ag59
ag59
ag59
ag59
ag59
ag59
asg60
(lp280
S'NNP'
p281
ag126
ag252
ag65
ag66
ag67
ag69
ag63
ag66
ag67
ag73
asg74
VAre you sitting upon a treasure, said the peasant.
p282
sba(i__main__
Sentence
p283
(dp284
g17
I4
sg18
(lp285
S'Yes'
p286
aS','
p287
aS'in'
p288
aS'truth'
p289
aS','
p290
aS'replied'
p291
aS'the'
p292
aS'devil'
p293
aS','
p294
aS'on'
p295
aS'a'
p296
aS'treasure'
p297
aS'which'
p298
aS'contains'
p299
aS'more'
p300
aS'gold'
p301
aS'and'
p302
aS'silver'
p303
aS'than'
p304
aS'you'
p305
aS'have'
p306
aS'ever'
p307
aS'seen'
p308
aS'in'
p309
aS'your'
p310
aS'life'
p311
aS'.'
p312
asg38
(lp313
VYes
p314
ag47
aVin
p315
aVtruth
p316
ag47
aVreply
p317
aVthe
p318
aVdevil
p319
ag47
aVon
p320
ag44
aVtreasure
p321
aVwhich
p322
aVcontain
p323
aVmore
p324
aVgold
p325
aVand
p326
aVsilver
p327
aVthan
p328
aVyou
p329
aVhave
p330
aVever
p331
aVsee
p332
aVin
p333
aVyour
p334
aVlife
p335
ag56
asg57
(lp336
g59
ag59
ag59
ag59
ag59
ag59
ag59
ag59
ag59
ag59
ag59
ag59
ag59
ag59
ag59
ag59
ag59
ag59
ag59
ag59
ag59
ag59
ag59
ag59
ag59
ag59
ag59
asg60
(lp337
g71
ag69
ag65
ag67
ag69
ag63
ag66
ag67
ag69
ag65
ag66
ag67
aS'WDT'
p338
ag124
aS'JJR'
p339
ag67
ag127
ag67
ag65
ag126
aS'VBP'
p340
ag64
ag72
ag65
ag253
ag67
ag73
asg74
VYes, in truth, replied the devil, on a treasure which contains more gold and silver than you have ever seen in your life.
p341
sba(i__main__
Sentence
p342
(dp343
g17
I5
sg18
(lp344
S'The'
p345
aS'treasure'
p346
aS'lies'
p347
aS'in'
p348
aS'my'
p349
aS'field'
p350
aS'and'
p351
aS'belongs'
p352
aS'to'
p353
aS'me'
p354
aS','
p355
aS'said'
p356
aS'the'
p357
aS'peasant'
p358
aS'.'
p359
asg38
(lp360
VThe
p361
aVtreasure
p362
aVlie
p363
aVin
p364
aVmy
p365
aVfield
p366
aVand
p367
aVbelongs
p368
aVto
p369
aVme
p370
ag47
ag276
aVthe
p371
aVpeasant
p372
ag56
asg57
(lp373
g59
ag59
ag59
ag59
ag59
ag59
ag59
ag59
ag59
ag59
ag59
ag59
ag59
ag59
ag59
asg60
(lp374
g66
ag67
ag71
ag65
ag253
ag67
ag127
ag71
ag255
ag126
ag69
ag63
ag66
ag67
ag73
asg74
VThe treasure lies in my field and belongs to me, said the peasant.
p375
sba(i__main__
Sentence
p376
(dp377
g17
I6
sg18
(lp378
S'It'
p379
aS'is'
p380
aS'yours'
p381
aS','
p382
aS'answered'
p383
aS'the'
p384
aS'devil'
p385
aS','
p386
aS'if'
p387
aS'you'
p388
aS'will'
p389
aS'for'
p390
aS'two'
p391
aS'years'
p392
aS'give'
p393
aS'me'
p394
aS'one'
p395
aS'half'
p396
aS'of'
p397
aS'everything'
p398
aS'your'
p399
aS'field'
p400
aS'produces'
p401
aS'.'
p402
asg38
(lp403
VIt
p404
ag107
aVyours
p405
ag47
aVanswer
p406
aVthe
p407
aVdevil
p408
ag47
aVif
p409
aVyou
p410
aVwill
p411
aVfor
p412
aVtwo
p413
aVyear
p414
aVgive
p415
aVme
p416
aVone
p417
aVhalf
p418
aVof
p419
aVeverything
p420
aVyour
p421
aVfield
p422
aVproduce
p423
ag56
asg57
(lp424
g59
ag59
ag59
ag59
ag59
ag59
ag59
ag59
ag59
ag59
ag59
ag59
ag59
ag59
ag59
ag59
ag59
ag59
ag59
ag59
ag59
ag59
ag59
ag59
asg60
(lp425
g126
ag124
ag71
ag69
ag63
ag66
ag67
ag69
ag65
ag126
aS'MD'
p426
ag65
ag251
ag71
ag340
ag126
ag251
ag67
ag65
ag67
ag253
ag67
ag71
ag73
asg74
VIt is yours, answered the devil, if you will for two years give me one half of everything your field produces.
p427
sba(i__main__
Sentence
p428
(dp429
g17
I7
sg18
(lp430
S'Money'
p431
aS'I'
p432
aS'have'
p433
aS'enough'
p434
aS','
p435
aS'but'
p436
aS'I'
p437
aS'have'
p438
aS'a'
p439
aS'desire'
p440
aS'for'
p441
aS'the'
p442
aS'fruits'
p443
aS'of'
p444
aS'the'
p445
aS'earth'
p446
aS'.'
p447
asg38
(lp448
VMoney
p449
aVI
p450
aVhave
p451
aVenough
p452
ag47
aVbut
p453
ag450
aVhave
p454
ag44
aVdesire
p455
aVfor
p456
aVthe
p457
aVfruit
p458
aVof
p459
aVthe
p460
aVearth
p461
ag56
asg57
(lp462
g59
ag59
ag59
ag59
ag59
ag59
ag59
ag59
ag59
ag59
ag59
ag59
ag59
ag59
ag59
ag59
ag59
asg60
(lp463
g67
ag126
ag340
ag64
ag69
ag127
ag126
ag340
ag66
ag67
ag65
ag66
ag71
ag65
ag66
ag68
ag73
asg74
VMoney I have enough, but I have a desire for the fruits of the earth.
p464
sba(i__main__
Sentence
p465
(dp466
g17
I8
sg18
(lp467
S'The'
p468
aS'peasant'
p469
aS'agreed'
p470
aS'to'
p471
aS'the'
p472
aS'bargain'
p473
aS'.'
p474
asg38
(lp475
VThe
p476
aVpeasant
p477
aVagree
p478
aVto
p479
aVthe
p480
aVbargain
p481
ag56
asg57
(lp482
g59
ag59
ag59
ag59
ag59
ag59
ag59
asg60
(lp483
g66
ag67
ag63
ag255
ag66
ag67
ag73
asg74
VThe peasant agreed to the bargain.
p484
sba(i__main__
Sentence
p485
(dp486
g17
I9
sg18
(lp487
S'In'
p488
aS'order'
p489
aS','
p490
aS'however'
p491
aS','
p492
aS'that'
p493
aS'no'
p494
aS'dispute'
p495
aS'may'
p496
aS'arise'
p497
aS'about'
p498
aS'the'
p499
aS'division'
p500
aS','
p501
aS'said'
p502
aS'he'
p503
aS','
p504
aS'everything'
p505
aS'that'
p506
aS'is'
p507
aS'above'
p508
aS'ground'
p509
aS'shall'
p510
aS'belong'
p511
aS'to'
p512
aS'you'
p513
aS','
p514
aS'and'
p515
aS'what'
p516
aS'is'
p517
aS'under'
p518
aS'the'
p519
aS'earth'
p520
aS'to'
p521
aS'me'
p522
aS'.'
p523
asg38
(lp524
VIn
p525
aVorder
p526
ag47
aVhowever
p527
ag47
aVthat
p528
aVno
p529
aVdispute
p530
aVmay
p531
aVarise
p532
aVabout
p533
aVthe
p534
aVdivision
p535
ag47
ag276
aVhe
p536
ag47
aVeverything
p537
aVthat
p538
ag107
aVabove
p539
aVground
p540
aVshall
p541
aVbelong
p542
aVto
p543
aVyou
p544
ag47
aVand
p545
aVwhat
p546
ag107
aVunder
p547
aVthe
p548
aVearth
p549
aVto
p550
aVme
p551
ag56
asg57
(lp552
g59
ag59
ag59
ag59
ag59
ag59
ag59
ag59
ag59
ag59
ag59
ag59
ag59
ag59
ag59
ag59
ag59
ag59
ag59
ag59
ag59
ag59
ag59
ag59
ag59
ag59
ag59
ag59
ag59
ag59
ag59
ag59
ag59
ag59
ag59
ag59
asg60
(lp553
g65
ag67
ag69
ag64
ag69
ag65
ag66
ag67
ag426
aS'VB'
p554
ag65
ag66
ag67
ag69
ag63
ag126
ag69
ag67
ag65
ag124
ag65
ag67
ag426
ag554
ag255
ag126
ag69
ag127
aS'WP'
p555
ag124
ag65
ag66
ag67
ag255
ag126
ag73
asg74
VIn order, however, that no dispute may arise about the division, said he, everything that is above ground shall belong to you, and what is under the earth to me.
p556
sba(i__main__
Sentence
p557
(dp558
g17
I10
sg18
(lp559
S'The'
p560
aS'devil'
p561
aS'was'
p562
aS'quite'
p563
aS'satisfied'
p564
aS'with'
p565
aS'that'
p566
aS','
p567
aS'but'
p568
aS'the'
p569
aS'cunning'
p570
aS'peasant'
p571
aS'had'
p572
aS'sown'
p573
aS'turnips'
p574
aS'.'
p575
asg38
(lp576
VThe
p577
aVdevil
p578
ag41
aVquite
p579
aVsatisfy
p580
aVwith
p581
aVthat
p582
ag47
aVbut
p583
aVthe
p584
aVcunning
p585
aVpeasant
p586
ag200
aVsow
p587
aVturnip
p588
ag56
asg57
(lp589
g59
ag59
ag59
ag59
ag59
ag59
ag59
ag59
ag59
ag59
ag59
ag59
ag59
ag59
ag59
ag59
asg60
(lp590
g66
ag67
ag63
ag64
ag72
ag65
ag66
ag69
ag127
ag66
ag67
ag67
ag63
ag72
ag71
ag73
asg74
VThe devil was quite satisfied with that, but the cunning peasant had sown turnips.
p591
sba(i__main__
Sentence
p592
(dp593
g17
I11
sg18
(lp594
S'Now'
p595
aS'when'
p596
aS'the'
p597
aS'time'
p598
aS'for'
p599
aS'harvest'
p600
aS'came'
p601
aS','
p602
aS'the'
p603
aS'devil'
p604
aS'appeared'
p605
aS'and'
p606
aS'wanted'
p607
aS'to'
p608
aS'take'
p609
aS'away'
p610
aS'his'
p611
aS'crop'
p612
aS'.'
p613
asg38
(lp614
VNow
p615
aVwhen
p616
aVthe
p617
aVtime
p618
aVfor
p619
aVharvest
p620
aVcome
p621
ag47
aVthe
p622
aVdevil
p623
aVappear
p624
aVand
p625
aVwant
p626
aVto
p627
aVtake
p628
aVaway
p629
aVhis
p630
aVcrop
p631
ag56
asg57
(lp632
g59
ag59
ag59
ag59
ag59
ag59
ag59
ag59
ag59
ag59
ag59
ag59
ag59
ag59
ag59
ag59
ag59
ag59
ag59
asg60
(lp633
g64
ag125
ag66
ag67
ag65
ag67
ag63
ag69
ag66
ag67
ag63
ag127
ag63
ag255
ag554
ag254
ag253
ag67
ag73
asg74
VNow when the time for harvest came, the devil appeared and wanted to take away his crop.
p634
sba(i__main__
Sentence
p635
(dp636
g17
I12
sg18
(lp637
S'But'
p638
aS'he'
p639
aS'found'
p640
aS'nothing'
p641
aS'but'
p642
aS'the'
p643
aS'yellow'
p644
aS'withered'
p645
aS'leaves'
p646
aS','
p647
aS'while'
p648
aS'the'
p649
aS'peasant'
p650
aS','
p651
aS'full'
p652
aS'of'
p653
aS'delight'
p654
aS','
p655
aS'was'
p656
aS'digging'
p657
aS'up'
p658
aS'his'
p659
aS'turnips'
p660
aS'.'
p661
asg38
(lp662
VBut
p663
aVhe
p664
aVfind
p665
aVnothing
p666
aVbut
p667
aVthe
p668
aVyellow
p669
aVwither
p670
aVleaf
p671
ag47
aVwhile
p672
aVthe
p673
aVpeasant
p674
ag47
aVfull
p675
aVof
p676
aVdelight
p677
ag47
ag41
aVdig
p678
aVup
p679
aVhis
p680
aVturnip
p681
ag56
asg57
(lp682
g59
ag59
ag59
ag59
ag59
ag59
ag59
ag59
ag59
ag59
ag59
ag59
ag59
ag59
ag59
ag59
ag59
ag59
ag59
ag59
ag59
ag59
ag59
ag59
asg60
(lp683
g127
ag126
ag63
ag67
ag127
ag66
ag68
ag72
ag71
ag69
ag65
ag66
ag67
ag69
ag68
ag65
ag67
ag69
ag63
ag252
ag254
ag253
ag71
ag73
asg74
VBut he found nothing but the yellow withered leaves, while the peasant, full of delight, was digging up his turnips.
p684
sba(i__main__
Sentence
p685
(dp686
g17
I13
sg18
(lp687
S'You'
p688
aS'have'
p689
aS'had'
p690
aS'the'
p691
aS'best'
p692
aS'of'
p693
aS'it'
p694
aS'for'
p695
aS'once'
p696
aS','
p697
aS'said'
p698
aS'the'
p699
aS'devil'
p700
aS','
p701
aS'but'
p702
aS'the'
p703
aS'next'
p704
aS'time'
p705
aS'that'
p706
aS'wo'
p707
aS"n't"
p708
aS'do'
p709
aS'.'
p710
asg38
(lp711
VYou
p712
aVhave
p713
ag200
aVthe
p714
aVbest
p715
aVof
p716
aVit
p717
aVfor
p718
aVonce
p719
ag47
ag276
aVthe
p720
aVdevil
p721
ag47
aVbut
p722
aVthe
p723
aVnext
p724
aVtime
p725
aVthat
p726
aVwo
p727
aVn't
p728
aVdo
p729
ag56
asg57
(lp730
g59
ag59
ag59
ag59
ag59
ag59
ag59
ag59
ag59
ag59
ag59
ag59
ag59
ag59
ag59
ag59
ag59
ag59
ag59
ag59
ag59
ag59
ag59
asg60
(lp731
g126
ag340
ag72
ag66
ag123
ag65
ag126
ag65
ag64
ag69
ag63
ag66
ag67
ag69
ag127
ag66
ag68
ag67
ag338
ag426
ag64
ag554
ag73
asg74
VYou have had the best of it for once, said the devil, but the next time that won't do.
p732
sba(i__main__
Sentence
p733
(dp734
g17
I14
sg18
(lp735
S'What'
p736
aS'grows'
p737
aS'above'
p738
aS'ground'
p739
aS'shall'
p740
aS'be'
p741
aS'yours'
p742
aS','
p743
aS'and'
p744
aS'what'
p745
aS'is'
p746
aS'under'
p747
aS'it'
p748
aS','
p749
aS'mine'
p750
aS'.'
p751
asg38
(lp752
VWhat
p753
aVgrow
p754
aVabove
p755
aVground
p756
aVshall
p757
aVbe
p758
aVyours
p759
ag47
aVand
p760
aVwhat
p761
ag107
aVunder
p762
aVit
p763
ag47
aVmine
p764
ag56
asg57
(lp765
g59
ag59
ag59
ag59
ag59
ag59
ag59
ag59
ag59
ag59
ag59
ag59
ag59
ag59
ag59
ag59
asg60
(lp766
g555
ag124
ag65
ag67
ag426
ag554
ag71
ag69
ag127
ag555
ag124
ag65
ag126
ag69
ag68
ag73
asg74
VWhat grows above ground shall be yours, and what is under it, mine.
p767
sba(i__main__
Sentence
p768
(dp769
g17
I15
sg18
(lp770
S'I'
p771
aS'am'
p772
aS'willing'
p773
aS','
p774
aS'replied'
p775
aS'the'
p776
aS'peasant'
p777
aS'.'
p778
asg38
(lp779
g450
aVbe
p780
aVwilling
p781
ag47
ag317
aVthe
p782
aVpeasant
p783
ag56
asg57
(lp784
g59
ag59
ag59
ag59
ag59
ag59
ag59
ag59
asg60
(lp785
g126
ag340
ag68
ag69
ag63
ag66
ag67
ag73
asg74
VI am willing, replied the peasant.
p786
sba(i__main__
Sentence
p787
(dp788
g17
I16
sg18
(lp789
S'But'
p790
aS'when'
p791
aS'the'
p792
aS'time'
p793
aS'came'
p794
aS'to'
p795
aS'sow'
p796
aS','
p797
aS'he'
p798
aS'did'
p799
aS'not'
p800
aS'again'
p801
aS'sow'
p802
aS'turnips'
p803
aS','
p804
aS'but'
p805
aS'wheat'
p806
aS'.'
p807
asg38
(lp808
VBut
p809
aVwhen
p810
aVthe
p811
aVtime
p812
ag621
aVto
p813
aVsow
p814
ag47
aVhe
p815
aVdo
p816
aVnot
p817
aVagain
p818
aVsow
p819
aVturnips
p820
ag47
aVbut
p821
aVwheat
p822
ag56
asg57
(lp823
g59
ag59
ag59
ag59
ag59
ag59
ag59
ag59
ag59
ag59
ag59
ag59
ag59
ag59
ag59
ag59
ag59
ag59
asg60
(lp824
g127
ag125
ag66
ag67
ag63
ag255
ag554
ag69
ag126
ag63
ag64
ag64
ag64
ag124
ag69
ag127
ag67
ag73
asg74
VBut when the time came to sow, he did not again sow turnips, but wheat.
p825
sba(i__main__
Sentence
p826
(dp827
g17
I17
sg18
(lp828
S'The'
p829
aS'grain'
p830
aS'became'
p831
aS'ripe'
p832
aS','
p833
aS'and'
p834
aS'the'
p835
aS'peasant'
p836
aS'went'
p837
aS'into'
p838
aS'the'
p839
aS'field'
p840
aS'and'
p841
aS'cut'
p842
aS'the'
p843
aS'full'
p844
aS'stalks'
p845
aS'down'
p846
aS'to'
p847
aS'the'
p848
aS'ground'
p849
aS'.'
p850
asg38
(lp851
VThe
p852
aVgrain
p853
aVbecome
p854
aVripe
p855
ag47
aVand
p856
aVthe
p857
aVpeasant
p858
ag237
aVinto
p859
aVthe
p860
aVfield
p861
aVand
p862
aVcut
p863
aVthe
p864
aVfull
p865
aVstalk
p866
aVdown
p867
aVto
p868
aVthe
p869
aVground
p870
ag56
asg57
(lp871
g59
ag59
ag59
ag59
ag59
ag59
ag59
ag59
ag59
ag59
ag59
ag59
ag59
ag59
ag59
ag59
ag59
ag59
ag59
ag59
ag59
ag59
asg60
(lp872
g66
ag67
ag63
ag67
ag69
ag127
ag66
ag67
ag63
ag65
ag66
ag67
ag127
ag63
ag66
ag68
ag71
ag65
ag255
ag66
ag67
ag73
asg74
VThe grain became ripe, and the peasant went into the field and cut the full stalks down to the ground.
p873
sba(i__main__
Sentence
p874
(dp875
g17
I18
sg18
(lp876
S'When'
p877
aS'the'
p878
aS'devil'
p879
aS'came'
p880
aS','
p881
aS'he'
p882
aS'found'
p883
aS'nothing'
p884
aS'but'
p885
aS'the'
p886
aS'stubble'
p887
aS','
p888
aS'and'
p889
aS'went'
p890
aS'away'
p891
aS'in'
p892
aS'a'
p893
aS'fury'
p894
aS'down'
p895
aS'into'
p896
aS'a'
p897
aS'cleft'
p898
aS'in'
p899
aS'the'
p900
aS'rocks'
p901
aS'.'
p902
asg38
(lp903
VWhen
p904
aVthe
p905
aVdevil
p906
ag621
ag47
aVhe
p907
ag665
aVnothing
p908
aVbut
p909
aVthe
p910
aVstubble
p911
ag47
aVand
p912
ag237
aVaway
p913
aVin
p914
ag44
aVfury
p915
aVdown
p916
aVinto
p917
ag44
aVcleft
p918
aVin
p919
aVthe
p920
aVrock
p921
ag56
asg57
(lp922
g59
ag59
ag59
ag59
ag59
ag59
ag59
ag59
ag59
ag59
ag59
ag59
ag59
ag59
ag59
ag59
ag59
ag59
ag59
ag59
ag59
ag59
ag59
ag59
ag59
ag59
asg60
(lp923
g125
ag66
ag67
ag63
ag69
ag126
ag63
ag67
ag127
ag66
ag68
ag69
ag127
ag63
ag64
ag65
ag66
ag67
ag65
ag65
ag66
ag67
ag65
ag66
ag71
ag73
asg74
VWhen the devil came, he found nothing but the stubble, and went away in a fury down into a cleft in the rocks.
p924
sba(i__main__
Sentence
p925
(dp926
g17
I19
sg18
(lp927
S'That'
p928
aS'is'
p929
aS'the'
p930
aS'way'
p931
aS'to'
p932
aS'cheat'
p933
aS'the'
p934
aS'devil'
p935
aS','
p936
aS'said'
p937
aS'the'
p938
aS'peasant'
p939
aS','
p940
aS'and'
p941
aS'went'
p942
aS'and'
p943
aS'fetched'
p944
aS'away'
p945
aS'the'
p946
aS'treasure'
p947
aS'.'
p948
asg38
(lp949
VThat
p950
ag107
aVthe
p951
aVway
p952
aVto
p953
aVcheat
p954
aVthe
p955
aVdevil
p956
ag47
ag276
aVthe
p957
aVpeasant
p958
ag47
aVand
p959
ag237
aVand
p960
aVfetch
p961
aVaway
p962
aVthe
p963
aVtreasure
p964
ag56
asg57
(lp965
g59
ag59
ag59
ag59
ag59
ag59
ag59
ag59
ag59
ag59
ag59
ag59
ag59
ag59
ag59
ag59
ag59
ag59
ag59
ag59
ag59
asg60
(lp966
g66
ag124
ag66
ag67
ag255
ag554
ag66
ag67
ag69
ag63
ag66
ag67
ag69
ag127
ag63
ag127
ag72
ag64
ag66
ag67
ag73
asg74
VThat is the way to cheat the devil, said the peasant, and went and fetched away the treasure. 
p967
sbasbsS'summary'
p968
g0
(g7
g2
Ntp969
Rp970
(dp971
g11
S'A peasant is working in his field when he sees a devil sitting on a heap of burning coals. The devil is sitting on a treasure that the peasant may have if gives the devil one-half of everything his garden produces for two years. This first year the devil wants his half to contain everything that grows above the ground, while the peasant will keep what grows below the ground. The peasant agrees and plants turnips that year. Seeing that he has been outsmarted, the devil asks for everything that grows below the ground the next year, so the peasant grows wheat. The devil is cheated and goes away angry.'
p972
sg13
(lp973
(i__main__
Sentence
p974
(dp975
g17
I0
sg18
(lp976
S'A'
p977
aS'peasant'
p978
aS'is'
p979
aS'working'
p980
aS'in'
p981
aS'his'
p982
aS'field'
p983
aS'when'
p984
aS'he'
p985
aS'sees'
p986
aS'a'
p987
aS'devil'
p988
aS'sitting'
p989
aS'on'
p990
aS'a'
p991
aS'heap'
p992
aS'of'
p993
aS'burning'
p994
aS'coals'
p995
aS'.'
p996
asg38
(lp997
VA
p998
aVpeasant
p999
ag107
aVwork
p1000
aVin
p1001
aVhis
p1002
aVfield
p1003
aVwhen
p1004
aVhe
p1005
aVsee
p1006
ag44
aVdevil
p1007
ag244
aVon
p1008
ag44
aVheap
p1009
aVof
p1010
aVburn
p1011
aVcoal
p1012
ag56
asg57
(lp1013
g59
ag59
ag59
ag59
ag59
ag59
ag59
ag59
ag59
ag59
ag59
ag59
ag59
ag59
ag59
ag59
ag59
ag59
ag59
ag59
asg60
(lp1014
g66
ag67
ag124
ag252
ag65
ag253
ag67
ag125
ag126
ag124
ag66
ag67
ag252
ag65
ag66
ag67
ag65
ag252
ag71
ag73
asg74
VA peasant is working in his field when he sees a devil sitting on a heap of burning coals.
p1015
sba(i__main__
Sentence
p1016
(dp1017
g17
I1
sg18
(lp1018
S'The'
p1019
aS'devil'
p1020
aS'is'
p1021
aS'sitting'
p1022
aS'on'
p1023
aS'a'
p1024
aS'treasure'
p1025
aS'that'
p1026
aS'the'
p1027
aS'peasant'
p1028
aS'may'
p1029
aS'have'
p1030
aS'if'
p1031
aS'gives'
p1032
aS'the'
p1033
aS'devil'
p1034
aS'one-half'
p1035
aS'of'
p1036
aS'everything'
p1037
aS'his'
p1038
aS'garden'
p1039
aS'produces'
p1040
aS'for'
p1041
aS'two'
p1042
aS'years'
p1043
aS'.'
p1044
asg38
(lp1045
VThe
p1046
aVdevil
p1047
ag107
ag244
aVon
p1048
ag44
aVtreasure
p1049
aVthat
p1050
aVthe
p1051
aVpeasant
p1052
aVmay
p1053
aVhave
p1054
aVif
p1055
aVgive
p1056
aVthe
p1057
aVdevil
p1058
aVone-half
p1059
aVof
p1060
aVeverything
p1061
aVhis
p1062
aVgarden
p1063
aVproduce
p1064
aVfor
p1065
aVtwo
p1066
aVyear
p1067
ag56
asg57
(lp1068
g59
ag59
ag59
ag59
ag59
ag59
ag59
ag59
ag59
ag59
ag59
ag59
ag59
ag59
ag59
ag59
ag59
ag59
ag59
ag59
ag59
ag59
ag59
ag59
ag59
ag59
asg60
(lp1069
g66
ag67
ag124
ag252
ag65
ag66
ag67
ag338
ag66
ag67
ag426
ag554
ag65
ag71
ag66
ag67
ag67
ag65
ag67
ag253
ag67
ag71
ag65
ag251
ag71
ag73
asg74
VThe devil is sitting on a treasure that the peasant may have if gives the devil one-half of everything his garden produces for two years.
p1070
sba(i__main__
Sentence
p1071
(dp1072
g17
I2
sg18
(lp1073
S'This'
p1074
aS'first'
p1075
aS'year'
p1076
aS'the'
p1077
aS'devil'
p1078
aS'wants'
p1079
aS'his'
p1080
aS'half'
p1081
aS'to'
p1082
aS'contain'
p1083
aS'everything'
p1084
aS'that'
p1085
aS'grows'
p1086
aS'above'
p1087
aS'the'
p1088
aS'ground'
p1089
aS','
p1090
aS'while'
p1091
aS'the'
p1092
aS'peasant'
p1093
aS'will'
p1094
aS'keep'
p1095
aS'what'
p1096
aS'grows'
p1097
aS'below'
p1098
aS'the'
p1099
aS'ground'
p1100
aS'.'
p1101
asg38
(lp1102
VThis
p1103
aVfirst
p1104
aVyear
p1105
aVthe
p1106
aVdevil
p1107
aVwant
p1108
aVhis
p1109
aVhalf
p1110
aVto
p1111
aVcontain
p1112
aVeverything
p1113
aVthat
p1114
aVgrow
p1115
aVabove
p1116
aVthe
p1117
aVground
p1118
ag47
aVwhile
p1119
aVthe
p1120
aVpeasant
p1121
aVwill
p1122
aVkeep
p1123
aVwhat
p1124
aVgrow
p1125
aVbelow
p1126
aVthe
p1127
aVground
p1128
ag56
asg57
(lp1129
g59
ag59
ag59
ag59
ag59
ag59
ag59
ag59
ag59
ag59
ag59
ag59
ag59
ag59
ag59
ag59
ag59
ag59
ag59
ag59
ag59
ag59
ag59
ag59
ag59
ag59
ag59
ag59
asg60
(lp1130
g66
ag68
ag67
ag66
ag67
ag124
ag253
ag67
ag255
ag554
ag67
ag338
ag124
ag65
ag66
ag67
ag69
ag65
ag66
ag67
ag426
ag554
ag555
ag124
ag65
ag66
ag67
ag73
asg74
VThis first year the devil wants his half to contain everything that grows above the ground, while the peasant will keep what grows below the ground.
p1131
sba(i__main__
Sentence
p1132
(dp1133
g17
I3
sg18
(lp1134
S'The'
p1135
aS'peasant'
p1136
aS'agrees'
p1137
aS'and'
p1138
aS'plants'
p1139
aS'turnips'
p1140
aS'that'
p1141
aS'year'
p1142
aS'.'
p1143
asg38
(lp1144
VThe
p1145
aVpeasant
p1146
aVagree
p1147
aVand
p1148
aVplant
p1149
aVturnip
p1150
aVthat
p1151
aVyear
p1152
ag56
asg57
(lp1153
g59
ag59
ag59
ag59
ag59
ag59
ag59
ag59
ag59
asg60
(lp1154
g66
ag67
ag124
ag127
ag71
ag71
ag338
ag67
ag73
asg74
VThe peasant agrees and plants turnips that year.
p1155
sba(i__main__
Sentence
p1156
(dp1157
g17
I4
sg18
(lp1158
S'Seeing'
p1159
aS'that'
p1160
aS'he'
p1161
aS'has'
p1162
aS'been'
p1163
aS'outsmarted'
p1164
aS','
p1165
aS'the'
p1166
aS'devil'
p1167
aS'asks'
p1168
aS'for'
p1169
aS'everything'
p1170
aS'that'
p1171
aS'grows'
p1172
aS'below'
p1173
aS'the'
p1174
aS'ground'
p1175
aS'the'
p1176
aS'next'
p1177
aS'year'
p1178
aS','
p1179
aS'so'
p1180
aS'the'
p1181
aS'peasant'
p1182
aS'grows'
p1183
aS'wheat'
p1184
aS'.'
p1185
asg38
(lp1186
VSeeing
p1187
aVthat
p1188
aVhe
p1189
aVhave
p1190
ag203
aVoutsmart
p1191
ag47
aVthe
p1192
aVdevil
p1193
aVask
p1194
aVfor
p1195
aVeverything
p1196
aVthat
p1197
aVgrow
p1198
aVbelow
p1199
aVthe
p1200
aVground
p1201
aVthe
p1202
aVnext
p1203
aVyear
p1204
ag47
aVso
p1205
aVthe
p1206
aVpeasant
p1207
aVgrows
p1208
aVwheat
p1209
ag56
asg57
(lp1210
g59
ag59
ag59
ag59
ag59
ag59
ag59
ag59
ag59
ag59
ag59
ag59
ag59
ag59
ag59
ag59
ag59
ag59
ag59
ag59
ag59
ag59
ag59
ag59
ag59
ag59
ag59
asg60
(lp1211
g252
ag65
ag126
ag124
ag72
ag72
ag69
ag66
ag67
ag124
ag65
ag67
ag338
ag124
ag65
ag66
ag67
ag66
ag68
ag67
ag69
ag64
ag66
ag68
ag71
ag67
ag73
asg74
VSeeing that he has been outsmarted, the devil asks for everything that grows below the ground the next year, so the peasant grows wheat.
p1212
sba(i__main__
Sentence
p1213
(dp1214
g17
I5
sg18
(lp1215
S'The'
p1216
aS'devil'
p1217
aS'is'
p1218
aS'cheated'
p1219
aS'and'
p1220
aS'goes'
p1221
aS'away'
p1222
aS'angry'
p1223
aS'.'
p1224
asg38
(lp1225
VThe
p1226
aVdevil
p1227
ag107
aVcheat
p1228
aVand
p1229
aVgo
p1230
aVaway
p1231
aVangry
p1232
ag56
asg57
(lp1233
g59
ag59
ag59
ag59
ag59
ag59
ag59
ag59
ag59
asg60
(lp1234
g66
ag67
ag124
ag72
ag127
ag124
ag64
ag68
ag73
asg74
VThe devil is cheated and goes away angry.
p1235
sbasbsS'name'
p1236
S'The Peasant and the Devil'
p1237
sS'summaries'
p1238
(lp1239
g970
asb.