ccopy_reg
_reconstructor
p0
(c__main__
Story
p1
c__builtin__
object
p2
Ntp3
Rp4
(dp5
S'text'
p6
g0
(c__main__
Document
p7
g2
Ntp8
Rp9
(dp10
S'_Document__initialContent'
p11
S"There was once on a time a mother who had three daughters,\nthe eldest of whom was rude and wicked, the second much better,\nalthough she had her faults, but the youngest was a pious, good\nchild.  The mother, however, was so strange, that it was just\nthe eldest daughter whom she most loved, and she could not bear\nthe youngest.  On this account, she often sent the poor girl\nout into the great forest in order to get rid of her, for she\nthought she would lose herself and never come back again.  But\nthe guardian-angel which every good child has, did not forsake\nher, but always brought her into the right path again.  Once,\nhowever, the guardian-angel behaved as if he were not there,\nand the child could not find her way out of the forest again.\nShe walked on constantly until evening came, and then she saw\na tiny light burning in the distance, ran up to it at once,\nand came to a little hut.  She knocked, the door opened, and\nshe came to a second door, where she knocked again.  An old man,\nwho had a snow-white beard and looked venerable, opened it\nfor her.  And he was no other than St. Joseph.  He said quite\nkindly, come, dear child, seat yourself on my little chair by\nthe fire, and warm yourself.  I will fetch you clear water if\nyou are thirsty.  But here in the forest, I have nothing for\nyou to eat but a couple of little roots, which you must first\nscrape and boil.\nSt. Joseph gave her the roots.  The girl scraped them clean, then\nshe brought a piece of pancake and the bread that her mother\nhad given her to take with her, mixed all together in a pan, and\ncooked herself a thick soup.  When it was ready, St. Joseph said,\nI am so hungry, give me some of your food.  The child was quite\nwilling, and gave him more than she kept for herself, but God's\nblessing\nwas with her, so that she was satisfied.  When they had eaten,\nSt. Joseph said, now we will go to bed.  I have, however, only\none bed, lay your self in it.  I will lie on the ground on the\nstraw.  No, answered she, stay in your own bed, the straw is\nsoft enough for me.  But St. Joseph took the child in his arms,\nand carried her into the little bed, and there she said her\nprayers, and fell asleep.  Next morning when she awoke, she\nwanted to say good morning to St. Joseph, but she did not see him.\nThen she got up and looked for him, but could not find him\nanywhere.  At last she perceived, behind the door, a bag with\nmoney so heavy that she could just carry it, and on it was\nwritten that it was for the child who had slept there that night.\nOn this she took the bag, bounded away with it, and got\nsafely to her mother, and as she gave her mother all the money,\nshe could not help being satisfied with her.\nThe next day, the second child also took a fancy to go into\nthe forest.  Her mother gave her a much larger piece of pancake\nand bread.  It happened with her just as with the first child.\nIn the evening she came to St. Joseph's little hut, who gave her\nroots for a thick soup.  When it was ready, he likewise said\nto her, I am so hungry, give me some of your food.  Then the\nchild said, you may have your share.  Afterwards, when St.\nJoseph offered her his bed and wanted to lie on the straw, she\nreplied, no, lie down in the bed, there is plenty of room for\nboth of us.  St. Joseph took her in his arms and put her in the\nbed, and laid himself on the straw.\nIn the morning when the child awoke and looked for St. Joseph,\nhe had vanished, but behind the door she found a little sack\nof money that was about as long as a hand, and on it was\nwritten that it was for the child who had slept there last\nnight.  So she took the little bag and ran home with it, and\ntook it to her mother, but she secretly kept two pieces for\nherself.\nThe eldest daughter had by this time grown inquisitive, and the\nnext morning also insisted on going out into the forest.  Her\nmother gave her pancakes - as many as she wanted, and bread\nand cheese as well.  In the evening she found St. Joseph in his\nlittle hut, just as the two others had found him.  When the\nsoup was ready\nand St. Joseph said, I am so hungry, give me some of the food,\nthe girl answered, wait until I am satisfied, then if there is\nanything left you shall have it.  But she ate nearly the\nwhole of it, and St. Joseph had to scrape the dish.  Afterwards,\nthe good old man offered her his bed, and wanted to lie on\nthe straw.  She took it without making any opposition, laid\nherself down in the little bed, and left the hard straw to the\nwhite-haired man.  Next morning when she awoke, St. Joseph was\nnot to be found, but she did not trouble herself about that.  She\nlooked behind the door for a money-bag.  She fancied something\nwas lying on the ground, but as she could not very well distinguish\nwhat it was, she stooped down, so that she touched it with her\nnose, where it remained hanging, and when she got up again,\nshe saw, to her horror, that it was a second nose, which was\nhanging fast to her own.  Then she began to scream and howl,\nbut that did no good.  She always had to look at her nose, for\nit stretched out so far.  Then she ran out and screamed without\nstopping till she met St. Joseph, at whose feet she fell and begged\nuntil, out of pity, he took the nose off her again, and even\ngave her two farthings.  When she got home, her mother was standing\nbefore the door, and asked, what have you had given to you.  Then\nshe\nlied and said, a great bag of money, but I have lost it on the way.\nLost it. Cried the mother.  Oh, but we will soon find it again,\nand took her by the hand, and wanted to seek it with her.  At\nfirst she began to cry, and did not wish to go, but at last she\nwent.  On the way, however, so many lizards and snakes broke\nloose on both of them, that they did not know how to save\nthemselves.  At last they stung the wicked child to death, and\nthey stung the mother in the foot, because she had not brought\nher up better.\n"
p12
sS'sentences'
p13
(lp14
(i__main__
Sentence
p15
(dp16
S'index'
p17
I0
sS'words'
p18
(lp19
S'There'
p20
aS'was'
p21
aS'once'
p22
aS'on'
p23
aS'a'
p24
aS'time'
p25
aS'a'
p26
aS'mother'
p27
aS'who'
p28
aS'had'
p29
aS'three'
p30
aS'daughters'
p31
aS','
p32
aS'the'
p33
aS'eldest'
p34
aS'of'
p35
aS'whom'
p36
aS'was'
p37
aS'rude'
p38
aS'and'
p39
aS'wicked'
p40
aS','
p41
aS'the'
p42
aS'second'
p43
aS'much'
p44
aS'better'
p45
aS','
p46
aS'although'
p47
aS'she'
p48
aS'had'
p49
aS'her'
p50
aS'faults'
p51
aS','
p52
aS'but'
p53
aS'the'
p54
aS'youngest'
p55
aS'was'
p56
aS'a'
p57
aS'pious'
p58
aS','
p59
aS'good'
p60
aS'child'
p61
aS'.'
p62
asS'lemmas'
p63
(lp64
VThere
p65
aVbe
p66
aVonce
p67
aVon
p68
aVa
p69
aVtime
p70
ag69
aVmother
p71
aVwho
p72
aVhave
p73
aVthree
p74
aVdaughter
p75
aV,
p76
aVthe
p77
aVeldest
p78
aVof
p79
aVwhom
p80
ag66
aVrude
p81
aVand
p82
aVwicked
p83
ag76
aVthe
p84
aVsecond
p85
aVmuch
p86
aVwell
p87
ag76
aValthough
p88
aVshe
p89
ag73
aVher
p90
aVfault
p91
ag76
aVbut
p92
aVthe
p93
aVyoung
p94
ag66
ag69
aVpious
p95
ag76
aVgood
p96
aVchild
p97
aV.
p98
asS'nerTags'
p99
(lp100
VO
p101
ag101
ag101
ag101
ag101
ag101
ag101
ag101
ag101
ag101
ag101
ag101
ag101
ag101
ag101
ag101
ag101
ag101
ag101
ag101
ag101
ag101
ag101
ag101
ag101
ag101
ag101
ag101
ag101
ag101
ag101
ag101
ag101
ag101
ag101
ag101
ag101
ag101
ag101
ag101
ag101
ag101
ag101
asS'posTags'
p102
(lp103
S'EX'
p104
aS'VBD'
p105
aS'RB'
p106
aS'IN'
p107
aS'DT'
p108
aS'NN'
p109
ag108
ag109
aS'WP'
p110
ag105
aS'CD'
p111
aS'NNS'
p112
aS','
p113
ag108
aS'JJS'
p114
ag107
ag110
ag105
aS'VBP'
p115
aS'CC'
p116
aS'VBN'
p117
ag113
ag108
aS'JJ'
p118
ag118
aS'RBR'
p119
ag113
ag107
aS'PRP'
p120
ag105
aS'PRP$'
p121
ag112
ag113
ag116
ag108
ag114
ag105
ag108
ag118
ag113
ag118
ag109
aS'.'
p122
asS'_Sentence__initialContent'
p123
VThere was once on a time a mother who had three daughters, the eldest of whom was rude and wicked, the second much better, although she had her faults, but the youngest was a pious, good child.
p124
sba(i__main__
Sentence
p125
(dp126
g17
I1
sg18
(lp127
S'The'
p128
aS'mother'
p129
aS','
p130
aS'however'
p131
aS','
p132
aS'was'
p133
aS'so'
p134
aS'strange'
p135
aS','
p136
aS'that'
p137
aS'it'
p138
aS'was'
p139
aS'just'
p140
aS'the'
p141
aS'eldest'
p142
aS'daughter'
p143
aS'whom'
p144
aS'she'
p145
aS'most'
p146
aS'loved'
p147
aS','
p148
aS'and'
p149
aS'she'
p150
aS'could'
p151
aS'not'
p152
aS'bear'
p153
aS'the'
p154
aS'youngest'
p155
aS'.'
p156
asg63
(lp157
VThe
p158
aVmother
p159
ag76
aVhowever
p160
ag76
ag66
aVso
p161
aVstrange
p162
ag76
aVthat
p163
aVit
p164
ag66
aVjust
p165
aVthe
p166
aVeldest
p167
aVdaughter
p168
aVwhom
p169
aVshe
p170
aVmost
p171
aVloved
p172
ag76
aVand
p173
aVshe
p174
aVcould
p175
aVnot
p176
aVbear
p177
aVthe
p178
ag94
ag98
asg99
(lp179
g101
ag101
ag101
ag101
ag101
ag101
ag101
ag101
ag101
ag101
ag101
ag101
ag101
ag101
ag101
ag101
ag101
ag101
ag101
ag101
ag101
ag101
ag101
ag101
ag101
ag101
ag101
ag101
ag101
asg102
(lp180
g108
ag109
ag113
ag106
ag113
ag105
ag106
ag118
ag113
ag107
ag120
ag105
ag106
ag108
ag114
ag109
ag110
ag120
ag114
ag118
ag113
ag116
ag120
aS'MD'
p181
ag106
aS'VB'
p182
ag108
ag114
ag122
asg123
VThe mother, however, was so strange, that it was just the eldest daughter whom she most loved, and she could not bear the youngest.
p183
sba(i__main__
Sentence
p184
(dp185
g17
I2
sg18
(lp186
S'On'
p187
aS'this'
p188
aS'account'
p189
aS','
p190
aS'she'
p191
aS'often'
p192
aS'sent'
p193
aS'the'
p194
aS'poor'
p195
aS'girl'
p196
aS'out'
p197
aS'into'
p198
aS'the'
p199
aS'great'
p200
aS'forest'
p201
aS'in'
p202
aS'order'
p203
aS'to'
p204
aS'get'
p205
aS'rid'
p206
aS'of'
p207
aS'her'
p208
aS','
p209
aS'for'
p210
aS'she'
p211
aS'thought'
p212
aS'she'
p213
aS'would'
p214
aS'lose'
p215
aS'herself'
p216
aS'and'
p217
aS'never'
p218
aS'come'
p219
aS'back'
p220
aS'again'
p221
aS'.'
p222
asg63
(lp223
VOn
p224
aVthis
p225
aVaccount
p226
ag76
aVshe
p227
aVoften
p228
aVsent
p229
aVthe
p230
aVpoor
p231
aVgirl
p232
aVout
p233
aVinto
p234
aVthe
p235
aVgreat
p236
aVforest
p237
aVin
p238
aVorder
p239
aVto
p240
aVget
p241
aVrid
p242
aVof
p243
aVher
p244
ag76
aVfor
p245
aVshe
p246
aVthink
p247
aVshe
p248
aVwould
p249
aVlose
p250
aVherself
p251
aVand
p252
aVnever
p253
aVcome
p254
aVback
p255
aVagain
p256
ag98
asg99
(lp257
g101
ag101
ag101
ag101
ag101
ag101
ag101
ag101
ag101
ag101
ag101
ag101
ag101
ag101
ag101
ag101
ag101
ag101
ag101
ag101
ag101
ag101
ag101
ag101
ag101
ag101
ag101
ag101
ag101
ag101
ag101
ag101
ag101
ag101
ag101
ag101
asg102
(lp258
g107
ag108
ag109
ag113
ag120
ag106
ag118
ag108
ag118
ag109
ag107
ag107
ag108
ag118
ag109
ag107
ag109
aS'TO'
p259
ag182
ag118
ag107
ag121
ag113
ag107
ag120
ag105
ag120
ag181
ag182
ag120
ag116
ag106
ag117
ag106
ag106
ag122
asg123
VOn this account, she often sent the poor girl out into the great forest in order to get rid of her, for she thought she would lose herself and never come back again.
p260
sba(i__main__
Sentence
p261
(dp262
g17
I3
sg18
(lp263
S'But'
p264
aS'the'
p265
aS'guardian-angel'
p266
aS'which'
p267
aS'every'
p268
aS'good'
p269
aS'child'
p270
aS'has'
p271
aS','
p272
aS'did'
p273
aS'not'
p274
aS'forsake'
p275
aS'her'
p276
aS','
p277
aS'but'
p278
aS'always'
p279
aS'brought'
p280
aS'her'
p281
aS'into'
p282
aS'the'
p283
aS'right'
p284
aS'path'
p285
aS'again'
p286
aS'.'
p287
asg63
(lp288
VBut
p289
aVthe
p290
aVguardian-angel
p291
aVwhich
p292
aVevery
p293
aVgood
p294
aVchild
p295
aVhave
p296
ag76
aVdo
p297
aVnot
p298
aVforsake
p299
aVher
p300
ag76
aVbut
p301
aValways
p302
aVbring
p303
aVher
p304
aVinto
p305
aVthe
p306
aVright
p307
aVpath
p308
aVagain
p309
ag98
asg99
(lp310
g101
ag101
ag101
ag101
ag101
ag101
ag101
ag101
ag101
ag101
ag101
ag101
ag101
ag101
ag101
ag101
ag101
ag101
ag101
ag101
ag101
ag101
ag101
ag101
asg102
(lp311
g116
ag108
ag118
aS'WDT'
p312
ag108
ag118
ag109
aS'VBZ'
p313
ag113
ag105
ag106
ag182
ag121
ag113
ag116
ag106
ag105
ag121
ag107
ag108
ag109
ag109
ag106
ag122
asg123
VBut the guardian-angel which every good child has, did not forsake her, but always brought her into the right path again.
p314
sba(i__main__
Sentence
p315
(dp316
g17
I4
sg18
(lp317
S'Once'
p318
aS','
p319
aS'however'
p320
aS','
p321
aS'the'
p322
aS'guardian-angel'
p323
aS'behaved'
p324
aS'as'
p325
aS'if'
p326
aS'he'
p327
aS'were'
p328
aS'not'
p329
aS'there'
p330
aS','
p331
aS'and'
p332
aS'the'
p333
aS'child'
p334
aS'could'
p335
aS'not'
p336
aS'find'
p337
aS'her'
p338
aS'way'
p339
aS'out'
p340
aS'of'
p341
aS'the'
p342
aS'forest'
p343
aS'again'
p344
aS'.'
p345
asg63
(lp346
VOnce
p347
ag76
aVhowever
p348
ag76
aVthe
p349
aVguardian-angel
p350
aVbehave
p351
ag69
aVif
p352
aVhe
p353
aVbe
p354
aVnot
p355
aVthere
p356
ag76
aVand
p357
aVthe
p358
aVchild
p359
aVcould
p360
aVnot
p361
aVfind
p362
aVher
p363
aVway
p364
aVout
p365
aVof
p366
aVthe
p367
aVforest
p368
aVagain
p369
ag98
asg99
(lp370
g101
ag101
ag101
ag101
ag101
ag101
ag101
ag101
ag101
ag101
ag101
ag101
ag101
ag101
ag101
ag101
ag101
ag101
ag101
ag101
ag101
ag101
ag101
ag101
ag101
ag101
ag101
ag101
asg102
(lp371
g106
ag113
ag106
ag113
ag108
aS'NNP'
p372
ag105
ag107
ag107
ag120
ag105
ag106
ag106
ag113
ag116
ag108
ag109
ag181
ag106
ag182
ag121
ag109
ag107
ag107
ag108
ag114
ag106
ag122
asg123
VOnce, however, the guardian-angel behaved as if he were not there, and the child could not find her way out of the forest again.
p373
sba(i__main__
Sentence
p374
(dp375
g17
I5
sg18
(lp376
S'She'
p377
aS'walked'
p378
aS'on'
p379
aS'constantly'
p380
aS'until'
p381
aS'evening'
p382
aS'came'
p383
aS','
p384
aS'and'
p385
aS'then'
p386
aS'she'
p387
aS'saw'
p388
aS'a'
p389
aS'tiny'
p390
aS'light'
p391
aS'burning'
p392
aS'in'
p393
aS'the'
p394
aS'distance'
p395
aS','
p396
aS'ran'
p397
aS'up'
p398
aS'to'
p399
aS'it'
p400
aS'at'
p401
aS'once'
p402
aS','
p403
aS'and'
p404
aS'came'
p405
aS'to'
p406
aS'a'
p407
aS'little'
p408
aS'hut'
p409
aS'.'
p410
asg63
(lp411
VShe
p412
aVwalk
p413
aVon
p414
aVconstantly
p415
aVuntil
p416
aVevening
p417
aVcome
p418
ag76
aVand
p419
aVthen
p420
aVshe
p421
aVsaw
p422
ag69
aVtiny
p423
aVlight
p424
aVburn
p425
aVin
p426
aVthe
p427
aVdistance
p428
ag76
aVrun
p429
aVup
p430
aVto
p431
aVit
p432
aVat
p433
aVonce
p434
ag76
aVand
p435
ag418
aVto
p436
ag69
aVlittle
p437
aVhut
p438
ag98
asg99
(lp439
g101
ag101
ag101
ag101
ag101
ag101
ag101
ag101
ag101
ag101
ag101
ag101
ag101
ag101
ag101
ag101
ag101
ag101
ag101
ag101
ag101
ag101
ag101
ag101
ag101
ag101
ag101
ag101
ag101
ag101
ag101
ag101
ag101
ag101
asg102
(lp440
g120
ag105
ag107
ag106
ag107
ag109
ag105
ag113
ag116
ag106
ag120
ag105
ag108
ag109
ag109
aS'VBG'
p441
ag107
ag108
ag109
ag113
ag105
aS'RP'
p442
ag259
ag120
ag107
ag106
ag113
ag116
ag105
ag259
ag108
ag106
ag117
ag122
asg123
VShe walked on constantly until evening came, and then she saw a tiny light burning in the distance, ran up to it at once, and came to a little hut.
p443
sba(i__main__
Sentence
p444
(dp445
g17
I6
sg18
(lp446
S'She'
p447
aS'knocked'
p448
aS','
p449
aS'the'
p450
aS'door'
p451
aS'opened'
p452
aS','
p453
aS'and'
p454
aS'she'
p455
aS'came'
p456
aS'to'
p457
aS'a'
p458
aS'second'
p459
aS'door'
p460
aS','
p461
aS'where'
p462
aS'she'
p463
aS'knocked'
p464
aS'again'
p465
aS'.'
p466
asg63
(lp467
VShe
p468
aVknock
p469
ag76
aVthe
p470
aVdoor
p471
aVopen
p472
ag76
aVand
p473
aVshe
p474
ag418
aVto
p475
ag69
aVsecond
p476
aVdoor
p477
ag76
aVwhere
p478
aVshe
p479
aVknock
p480
aVagain
p481
ag98
asg99
(lp482
g101
ag101
ag101
ag101
ag101
ag101
ag101
ag101
ag101
ag101
ag101
ag101
ag101
ag101
ag101
ag101
ag101
ag101
ag101
ag101
asg102
(lp483
g120
ag105
ag113
ag108
ag109
ag105
ag113
ag116
ag120
ag105
ag259
ag108
ag118
ag109
ag113
aS'WRB'
p484
ag120
ag105
ag106
ag122
asg123
VShe knocked, the door opened, and she came to a second door, where she knocked again.
p485
sba(i__main__
Sentence
p486
(dp487
g17
I7
sg18
(lp488
S'An'
p489
aS'old'
p490
aS'man'
p491
aS','
p492
aS'who'
p493
aS'had'
p494
aS'a'
p495
aS'snow-white'
p496
aS'beard'
p497
aS'and'
p498
aS'looked'
p499
aS'venerable'
p500
aS','
p501
aS'opened'
p502
aS'it'
p503
aS'for'
p504
aS'her'
p505
aS'.'
p506
asg63
(lp507
VAn
p508
aVold
p509
aVman
p510
ag76
aVwho
p511
ag73
ag69
aVsnow-white
p512
aVbeard
p513
aVand
p514
aVlook
p515
aVvenerable
p516
ag76
aVopen
p517
aVit
p518
aVfor
p519
aVher
p520
ag98
asg99
(lp521
g101
ag101
ag101
ag101
ag101
ag101
ag101
ag101
ag101
ag101
ag101
ag101
ag101
ag101
ag101
ag101
ag101
ag101
asg102
(lp522
g108
ag118
ag109
ag113
ag110
ag105
ag108
ag118
ag109
ag116
ag105
ag118
ag113
ag105
ag120
ag107
ag121
ag122
asg123
VAn old man, who had a snow-white beard and looked venerable, opened it for her.
p523
sba(i__main__
Sentence
p524
(dp525
g17
I8
sg18
(lp526
S'And'
p527
aS'he'
p528
aS'was'
p529
aS'no'
p530
aS'other'
p531
aS'than'
p532
aS'St.'
p533
aS'Joseph'
p534
aS'.'
p535
asg63
(lp536
VAnd
p537
aVhe
p538
ag66
aVno
p539
aVother
p540
aVthan
p541
aVSt.
p542
aVJoseph
p543
ag98
asg99
(lp544
g101
ag101
ag101
ag101
ag101
ag101
ag101
aVPERSON
p545
ag101
asg102
(lp546
g116
ag120
ag105
ag108
ag118
ag107
ag372
ag372
ag122
asg123
VAnd he was no other than St. Joseph.
p547
sba(i__main__
Sentence
p548
(dp549
g17
I9
sg18
(lp550
S'He'
p551
aS'said'
p552
aS'quite'
p553
aS'kindly'
p554
aS','
p555
aS'come'
p556
aS','
p557
aS'dear'
p558
aS'child'
p559
aS','
p560
aS'seat'
p561
aS'yourself'
p562
aS'on'
p563
aS'my'
p564
aS'little'
p565
aS'chair'
p566
aS'by'
p567
aS'the'
p568
aS'fire'
p569
aS','
p570
aS'and'
p571
aS'warm'
p572
aS'yourself'
p573
aS'.'
p574
asg63
(lp575
VHe
p576
aVsay
p577
aVquite
p578
aVkindly
p579
ag76
aVcome
p580
ag76
aVdear
p581
aVchild
p582
ag76
aVseat
p583
aVyourself
p584
aVon
p585
aVmy
p586
aVlittle
p587
aVchair
p588
aVby
p589
aVthe
p590
aVfire
p591
ag76
aVand
p592
aVwarm
p593
aVyourself
p594
ag98
asg99
(lp595
g101
ag101
ag101
ag101
ag101
ag101
ag101
ag101
ag101
ag101
ag101
ag101
ag101
ag101
ag101
ag101
ag101
ag101
ag101
ag101
ag101
ag101
ag101
ag101
asg102
(lp596
g120
ag105
ag106
ag106
ag113
ag115
ag113
ag118
ag109
ag113
ag109
ag120
ag107
ag121
ag118
ag109
ag107
ag108
ag109
ag113
ag116
ag109
ag120
ag122
asg123
VHe said quite kindly, come, dear child, seat yourself on my little chair by the fire, and warm yourself.
p597
sba(i__main__
Sentence
p598
(dp599
g17
I10
sg18
(lp600
S'I'
p601
aS'will'
p602
aS'fetch'
p603
aS'you'
p604
aS'clear'
p605
aS'water'
p606
aS'if'
p607
aS'you'
p608
aS'are'
p609
aS'thirsty'
p610
aS'.'
p611
asg63
(lp612
VI
p613
aVwill
p614
aVfetch
p615
aVyou
p616
aVclear
p617
aVwater
p618
aVif
p619
aVyou
p620
aVbe
p621
aVthirsty
p622
ag98
asg99
(lp623
g101
ag101
ag101
ag101
ag101
ag101
ag101
ag101
ag101
ag101
ag101
asg102
(lp624
g120
ag181
ag182
ag120
ag182
ag109
ag107
ag120
ag115
ag118
ag122
asg123
VI will fetch you clear water if you are thirsty.
p625
sba(i__main__
Sentence
p626
(dp627
g17
I11
sg18
(lp628
S'But'
p629
aS'here'
p630
aS'in'
p631
aS'the'
p632
aS'forest'
p633
aS','
p634
aS'I'
p635
aS'have'
p636
aS'nothing'
p637
aS'for'
p638
aS'you'
p639
aS'to'
p640
aS'eat'
p641
aS'but'
p642
aS'a'
p643
aS'couple'
p644
aS'of'
p645
aS'little'
p646
aS'roots'
p647
aS','
p648
aS'which'
p649
aS'you'
p650
aS'must'
p651
aS'first'
p652
aS'scrape'
p653
aS'and'
p654
aS'boil'
p655
aS'.'
p656
asg63
(lp657
VBut
p658
aVhere
p659
aVin
p660
aVthe
p661
aVforest
p662
ag76
ag613
aVhave
p663
aVnothing
p664
aVfor
p665
aVyou
p666
aVto
p667
aVeat
p668
aVbut
p669
ag69
aVcouple
p670
aVof
p671
aVlittle
p672
aVroot
p673
ag76
aVwhich
p674
aVyou
p675
aVmust
p676
aVfirst
p677
aVscrape
p678
aVand
p679
aVboil
p680
ag98
asg99
(lp681
g101
ag101
ag101
ag101
ag101
ag101
ag101
ag101
ag101
ag101
ag101
ag101
ag101
ag101
ag101
ag101
ag101
ag101
ag101
ag101
ag101
ag101
ag101
ag101
ag101
ag101
ag101
ag101
asg102
(lp682
g116
ag106
ag107
ag108
ag109
ag113
ag120
ag115
ag109
ag107
ag120
ag259
ag182
ag116
ag108
ag109
ag107
ag118
ag112
ag113
ag312
ag120
ag181
ag106
ag182
ag116
ag109
ag122
asg123
VBut here in the forest, I have nothing for you to eat but a couple of little roots, which you must first scrape and boil.
p683
sba(i__main__
Sentence
p684
(dp685
g17
I12
sg18
(lp686
S'St.'
p687
aS'Joseph'
p688
aS'gave'
p689
aS'her'
p690
aS'the'
p691
aS'roots'
p692
aS'.'
p693
asg63
(lp694
VSt.
p695
aVJoseph
p696
aVgive
p697
aVher
p698
aVthe
p699
aVroot
p700
ag98
asg99
(lp701
g101
aVPERSON
p702
ag101
ag101
ag101
ag101
ag101
asg102
(lp703
g372
ag372
ag105
ag120
ag108
ag112
ag122
asg123
VSt. Joseph gave her the roots.
p704
sba(i__main__
Sentence
p705
(dp706
g17
I13
sg18
(lp707
S'The'
p708
aS'girl'
p709
aS'scraped'
p710
aS'them'
p711
aS'clean'
p712
aS','
p713
aS'then'
p714
aS'she'
p715
aS'brought'
p716
aS'a'
p717
aS'piece'
p718
aS'of'
p719
aS'pancake'
p720
aS'and'
p721
aS'the'
p722
aS'bread'
p723
aS'that'
p724
aS'her'
p725
aS'mother'
p726
aS'had'
p727
aS'given'
p728
aS'her'
p729
aS'to'
p730
aS'take'
p731
aS'with'
p732
aS'her'
p733
aS','
p734
aS'mixed'
p735
aS'all'
p736
aS'together'
p737
aS'in'
p738
aS'a'
p739
aS'pan'
p740
aS','
p741
aS'and'
p742
aS'cooked'
p743
aS'herself'
p744
aS'a'
p745
aS'thick'
p746
aS'soup'
p747
aS'.'
p748
asg63
(lp749
VThe
p750
aVgirl
p751
aVscrap
p752
aVthem
p753
aVclean
p754
ag76
aVthen
p755
aVshe
p756
ag303
ag69
aVpiece
p757
aVof
p758
aVpancake
p759
aVand
p760
aVthe
p761
aVbread
p762
aVthat
p763
aVher
p764
aVmother
p765
ag73
aVgive
p766
aVher
p767
aVto
p768
aVtake
p769
aVwith
p770
aVher
p771
ag76
aVmix
p772
aVall
p773
aVtogether
p774
aVin
p775
ag69
aVpan
p776
ag76
aVand
p777
aVcook
p778
aVherself
p779
ag69
aVthick
p780
aVsoup
p781
ag98
asg99
(lp782
g101
ag101
ag101
ag101
ag101
ag101
ag101
ag101
ag101
ag101
ag101
ag101
ag101
ag101
ag101
ag101
ag101
ag101
ag101
ag101
ag101
ag101
ag101
ag101
ag101
ag101
ag101
ag101
ag101
ag101
ag101
ag101
ag101
ag101
ag101
ag101
ag101
ag101
ag101
ag101
ag101
asg102
(lp783
g108
ag109
ag105
ag120
ag118
ag113
ag106
ag120
ag105
ag108
ag109
ag107
ag109
ag116
ag108
ag109
ag107
ag121
ag109
ag105
ag117
ag121
ag259
ag182
ag107
ag121
ag113
ag117
ag108
ag106
ag107
ag108
ag109
ag113
ag116
ag105
ag120
ag108
ag109
ag109
ag122
asg123
VThe girl scraped them clean, then she brought a piece of pancake and the bread that her mother had given her to take with her, mixed all together in a pan, and cooked herself a thick soup.
p784
sba(i__main__
Sentence
p785
(dp786
g17
I14
sg18
(lp787
S'When'
p788
aS'it'
p789
aS'was'
p790
aS'ready'
p791
aS','
p792
aS'St.'
p793
aS'Joseph'
p794
aS'said'
p795
aS','
p796
aS'I'
p797
aS'am'
p798
aS'so'
p799
aS'hungry'
p800
aS','
p801
aS'give'
p802
aS'me'
p803
aS'some'
p804
aS'of'
p805
aS'your'
p806
aS'food'
p807
aS'.'
p808
asg63
(lp809
VWhen
p810
aVit
p811
ag66
aVready
p812
ag76
aVSt.
p813
aVJoseph
p814
ag577
ag76
ag613
aVbe
p815
aVso
p816
aVhungry
p817
ag76
aVgive
p818
aVme
p819
aVsome
p820
aVof
p821
aVyour
p822
aVfood
p823
ag98
asg99
(lp824
g101
ag101
ag101
ag101
ag101
ag101
aVPERSON
p825
ag101
ag101
ag101
ag101
ag101
ag101
ag101
ag101
ag101
ag101
ag101
ag101
ag101
ag101
asg102
(lp826
g484
ag120
ag105
ag106
ag113
ag372
ag372
ag105
ag113
ag120
ag115
ag106
ag118
ag113
ag118
ag120
ag108
ag107
ag121
ag109
ag122
asg123
VWhen it was ready, St. Joseph said, I am so hungry, give me some of your food.
p827
sba(i__main__
Sentence
p828
(dp829
g17
I15
sg18
(lp830
S'The'
p831
aS'child'
p832
aS'was'
p833
aS'quite'
p834
aS'willing'
p835
aS','
p836
aS'and'
p837
aS'gave'
p838
aS'him'
p839
aS'more'
p840
aS'than'
p841
aS'she'
p842
aS'kept'
p843
aS'for'
p844
aS'herself'
p845
aS','
p846
aS'but'
p847
aS'God'
p848
aS"'s"
p849
aS'blessing'
p850
aS'was'
p851
aS'with'
p852
aS'her'
p853
aS','
p854
aS'so'
p855
aS'that'
p856
aS'she'
p857
aS'was'
p858
aS'satisfied'
p859
aS'.'
p860
asg63
(lp861
VThe
p862
aVchild
p863
ag66
aVquite
p864
aVwilling
p865
ag76
aVand
p866
ag697
aVhim
p867
aVmore
p868
aVthan
p869
aVshe
p870
aVkeep
p871
aVfor
p872
aVherself
p873
ag76
aVbut
p874
aVGod
p875
aV's
p876
aVblessing
p877
ag66
aVwith
p878
aVher
p879
ag76
aVso
p880
aVthat
p881
aVshe
p882
ag66
aVsatisfy
p883
ag98
asg99
(lp884
g101
ag101
ag101
ag101
ag101
ag101
ag101
ag101
ag101
ag101
ag101
ag101
ag101
ag101
ag101
ag101
ag101
ag101
ag101
ag101
ag101
ag101
ag101
ag101
ag101
ag101
ag101
ag101
ag101
ag101
asg102
(lp885
g108
ag109
ag105
ag106
ag118
ag113
ag116
ag105
ag120
aS'JJR'
p886
ag107
ag120
ag105
ag107
ag120
ag113
ag116
ag372
aS'POS'
p887
ag109
ag105
ag107
ag121
ag113
ag106
ag107
ag120
ag105
ag117
ag122
asg123
VThe child was quite willing, and gave him more than she kept for herself, but God's blessing was with her, so that she was satisfied.
p888
sba(i__main__
Sentence
p889
(dp890
g17
I16
sg18
(lp891
S'When'
p892
aS'they'
p893
aS'had'
p894
aS'eaten'
p895
aS','
p896
aS'St.'
p897
aS'Joseph'
p898
aS'said'
p899
aS','
p900
aS'now'
p901
aS'we'
p902
aS'will'
p903
aS'go'
p904
aS'to'
p905
aS'bed'
p906
aS'.'
p907
asg63
(lp908
VWhen
p909
aVthey
p910
ag73
aVeat
p911
ag76
aVSt.
p912
aVJoseph
p913
ag577
ag76
aVnow
p914
aVwe
p915
aVwill
p916
aVgo
p917
aVto
p918
aVbed
p919
ag98
asg99
(lp920
g101
ag101
ag101
ag101
ag101
ag101
aVPERSON
p921
ag101
ag101
ag101
ag101
ag101
ag101
ag101
ag101
ag101
asg102
(lp922
g484
ag120
ag105
ag117
ag113
ag372
ag372
ag105
ag113
ag106
ag120
ag181
ag182
ag259
ag117
ag122
asg123
VWhen they had eaten, St. Joseph said, now we will go to bed.
p923
sba(i__main__
Sentence
p924
(dp925
g17
I17
sg18
(lp926
S'I'
p927
aS'have'
p928
aS','
p929
aS'however'
p930
aS','
p931
aS'only'
p932
aS'one'
p933
aS'bed'
p934
aS','
p935
aS'lay'
p936
aS'your'
p937
aS'self'
p938
aS'in'
p939
aS'it'
p940
aS'.'
p941
asg63
(lp942
g613
aVhave
p943
ag76
aVhowever
p944
ag76
aVonly
p945
aVone
p946
aVbed
p947
ag76
aVlay
p948
aVyour
p949
aVself
p950
aVin
p951
aVit
p952
ag98
asg99
(lp953
g101
ag101
ag101
ag101
ag101
ag101
ag101
ag101
ag101
ag101
ag101
ag101
ag101
ag101
ag101
asg102
(lp954
g120
ag115
ag113
ag106
ag113
ag106
ag111
ag117
ag113
ag109
ag121
ag109
ag107
ag120
ag122
asg123
VI have, however, only one bed, lay your self in it.
p955
sba(i__main__
Sentence
p956
(dp957
g17
I18
sg18
(lp958
S'I'
p959
aS'will'
p960
aS'lie'
p961
aS'on'
p962
aS'the'
p963
aS'ground'
p964
aS'on'
p965
aS'the'
p966
aS'straw'
p967
aS'.'
p968
asg63
(lp969
g613
aVwill
p970
aVlie
p971
aVon
p972
aVthe
p973
aVground
p974
aVon
p975
aVthe
p976
aVstraw
p977
ag98
asg99
(lp978
g101
ag101
ag101
ag101
ag101
ag101
ag101
ag101
ag101
ag101
asg102
(lp979
g120
ag181
ag182
ag107
ag108
ag109
ag107
ag108
ag109
ag122
asg123
VI will lie on the ground on the straw.
p980
sba(i__main__
Sentence
p981
(dp982
g17
I19
sg18
(lp983
S'No'
p984
aS','
p985
aS'answered'
p986
aS'she'
p987
aS','
p988
aS'stay'
p989
aS'in'
p990
aS'your'
p991
aS'own'
p992
aS'bed'
p993
aS','
p994
aS'the'
p995
aS'straw'
p996
aS'is'
p997
aS'soft'
p998
aS'enough'
p999
aS'for'
p1000
aS'me'
p1001
aS'.'
p1002
asg63
(lp1003
VNo
p1004
ag76
aVanswer
p1005
aVshe
p1006
ag76
aVstay
p1007
aVin
p1008
aVyour
p1009
aVown
p1010
aVbed
p1011
ag76
aVthe
p1012
aVstraw
p1013
aVbe
p1014
aVsoft
p1015
aVenough
p1016
aVfor
p1017
aVme
p1018
ag98
asg99
(lp1019
g101
ag101
ag101
ag101
ag101
ag101
ag101
ag101
ag101
ag101
ag101
ag101
ag101
ag101
ag101
ag101
ag101
ag101
ag101
asg102
(lp1020
g108
ag113
ag117
ag120
ag113
ag115
ag107
ag121
ag118
ag117
ag113
ag108
ag109
ag313
ag118
ag106
ag107
ag120
ag122
asg123
VNo, answered she, stay in your own bed, the straw is soft enough for me.
p1021
sba(i__main__
Sentence
p1022
(dp1023
g17
I20
sg18
(lp1024
S'But'
p1025
aS'St.'
p1026
aS'Joseph'
p1027
aS'took'
p1028
aS'the'
p1029
aS'child'
p1030
aS'in'
p1031
aS'his'
p1032
aS'arms'
p1033
aS','
p1034
aS'and'
p1035
aS'carried'
p1036
aS'her'
p1037
aS'into'
p1038
aS'the'
p1039
aS'little'
p1040
aS'bed'
p1041
aS','
p1042
aS'and'
p1043
aS'there'
p1044
aS'she'
p1045
aS'said'
p1046
aS'her'
p1047
aS'prayers'
p1048
aS','
p1049
aS'and'
p1050
aS'fell'
p1051
aS'asleep'
p1052
aS'.'
p1053
asg63
(lp1054
VBut
p1055
aVSt.
p1056
aVJoseph
p1057
aVtake
p1058
aVthe
p1059
aVchild
p1060
aVin
p1061
aVhis
p1062
aVarm
p1063
ag76
aVand
p1064
aVcarry
p1065
aVher
p1066
aVinto
p1067
aVthe
p1068
aVlittle
p1069
aVbed
p1070
ag76
aVand
p1071
aVthere
p1072
aVshe
p1073
ag577
aVher
p1074
aVprayer
p1075
ag76
aVand
p1076
aVfell
p1077
aVasleep
p1078
ag98
asg99
(lp1079
g101
aVPERSON
p1080
aVPERSON
p1081
ag101
ag101
ag101
ag101
ag101
ag101
ag101
ag101
ag101
ag101
ag101
ag101
ag101
ag101
ag101
ag101
ag101
ag101
ag101
ag101
ag101
ag101
ag101
ag101
ag101
ag101
asg102
(lp1082
g116
ag372
ag372
ag105
ag108
ag109
ag107
ag121
ag112
ag113
ag116
ag105
ag120
ag107
ag108
ag118
ag117
ag113
ag116
ag104
ag120
ag105
ag121
ag112
ag113
ag116
ag105
ag182
ag122
asg123
VBut St. Joseph took the child in his arms, and carried her into the little bed, and there she said her prayers, and fell asleep.
p1083
sba(i__main__
Sentence
p1084
(dp1085
g17
I21
sg18
(lp1086
S'Next'
p1087
aS'morning'
p1088
aS'when'
p1089
aS'she'
p1090
aS'awoke'
p1091
aS','
p1092
aS'she'
p1093
aS'wanted'
p1094
aS'to'
p1095
aS'say'
p1096
aS'good'
p1097
aS'morning'
p1098
aS'to'
p1099
aS'St.'
p1100
aS'Joseph'
p1101
aS','
p1102
aS'but'
p1103
aS'she'
p1104
aS'did'
p1105
aS'not'
p1106
aS'see'
p1107
aS'him'
p1108
aS'.'
p1109
asg63
(lp1110
VNext
p1111
aVmorning
p1112
aVwhen
p1113
aVshe
p1114
aVawake
p1115
ag76
aVshe
p1116
aVwant
p1117
aVto
p1118
aVsay
p1119
aVgood
p1120
aVmorning
p1121
aVto
p1122
aVSt.
p1123
aVJoseph
p1124
ag76
aVbut
p1125
aVshe
p1126
ag297
aVnot
p1127
aVsee
p1128
aVhim
p1129
ag98
asg99
(lp1130
g101
ag101
ag101
ag101
ag101
ag101
ag101
ag101
ag101
ag101
ag101
ag101
ag101
aVPERSON
p1131
aVPERSON
p1132
ag101
ag101
ag101
ag101
ag101
ag101
ag101
ag101
asg102
(lp1133
g118
ag109
ag484
ag120
ag115
ag113
ag120
ag105
ag259
ag182
ag118
ag109
ag259
ag372
ag372
ag113
ag116
ag120
ag105
ag106
ag182
ag120
ag122
asg123
VNext morning when she awoke, she wanted to say good morning to St. Joseph, but she did not see him.
p1134
sba(i__main__
Sentence
p1135
(dp1136
g17
I22
sg18
(lp1137
S'Then'
p1138
aS'she'
p1139
aS'got'
p1140
aS'up'
p1141
aS'and'
p1142
aS'looked'
p1143
aS'for'
p1144
aS'him'
p1145
aS','
p1146
aS'but'
p1147
aS'could'
p1148
aS'not'
p1149
aS'find'
p1150
aS'him'
p1151
aS'anywhere'
p1152
aS'.'
p1153
asg63
(lp1154
VThen
p1155
aVshe
p1156
aVget
p1157
aVup
p1158
aVand
p1159
aVlook
p1160
aVfor
p1161
aVhim
p1162
ag76
aVbut
p1163
aVcould
p1164
aVnot
p1165
aVfind
p1166
aVhim
p1167
aVanywhere
p1168
ag98
asg99
(lp1169
g101
ag101
ag101
ag101
ag101
ag101
ag101
ag101
ag101
ag101
ag101
ag101
ag101
ag101
ag101
ag101
asg102
(lp1170
g106
ag120
ag105
ag442
ag116
ag105
ag107
ag120
ag113
ag116
ag181
ag106
ag182
ag120
ag106
ag122
asg123
VThen she got up and looked for him, but could not find him anywhere.
p1171
sba(i__main__
Sentence
p1172
(dp1173
g17
I23
sg18
(lp1174
S'At'
p1175
aS'last'
p1176
aS'she'
p1177
aS'perceived'
p1178
aS','
p1179
aS'behind'
p1180
aS'the'
p1181
aS'door'
p1182
aS','
p1183
aS'a'
p1184
aS'bag'
p1185
aS'with'
p1186
aS'money'
p1187
aS'so'
p1188
aS'heavy'
p1189
aS'that'
p1190
aS'she'
p1191
aS'could'
p1192
aS'just'
p1193
aS'carry'
p1194
aS'it'
p1195
aS','
p1196
aS'and'
p1197
aS'on'
p1198
aS'it'
p1199
aS'was'
p1200
aS'written'
p1201
aS'that'
p1202
aS'it'
p1203
aS'was'
p1204
aS'for'
p1205
aS'the'
p1206
aS'child'
p1207
aS'who'
p1208
aS'had'
p1209
aS'slept'
p1210
aS'there'
p1211
aS'that'
p1212
aS'night'
p1213
aS'.'
p1214
asg63
(lp1215
VAt
p1216
aVlast
p1217
aVshe
p1218
aVperceive
p1219
ag76
aVbehind
p1220
aVthe
p1221
aVdoor
p1222
ag76
ag69
aVbag
p1223
aVwith
p1224
aVmoney
p1225
aVso
p1226
aVheavy
p1227
aVthat
p1228
aVshe
p1229
aVcould
p1230
aVjust
p1231
aVcarry
p1232
aVit
p1233
ag76
aVand
p1234
aVon
p1235
aVit
p1236
ag66
aVwrite
p1237
aVthat
p1238
aVit
p1239
ag66
aVfor
p1240
aVthe
p1241
aVchild
p1242
aVwho
p1243
ag73
aVsleep
p1244
aVthere
p1245
aVthat
p1246
aVnight
p1247
ag98
asg99
(lp1248
g101
ag101
ag101
ag101
ag101
ag101
ag101
ag101
ag101
ag101
ag101
ag101
ag101
ag101
ag101
ag101
ag101
ag101
ag101
ag101
ag101
ag101
ag101
ag101
ag101
ag101
ag101
ag101
ag101
ag101
ag101
ag101
ag101
ag101
ag101
ag101
ag101
ag101
ag101
ag101
asg102
(lp1249
g107
ag118
ag120
ag105
ag113
ag107
ag108
ag109
ag113
ag108
ag109
ag107
ag109
ag107
ag118
ag107
ag120
ag181
ag106
ag182
ag120
ag113
ag116
ag107
ag120
ag105
ag117
ag107
ag120
ag105
ag107
ag108
ag109
ag110
ag105
ag117
ag106
ag107
ag109
ag122
asg123
VAt last she perceived, behind the door, a bag with money so heavy that she could just carry it, and on it was written that it was for the child who had slept there that night.
p1250
sba(i__main__
Sentence
p1251
(dp1252
g17
I24
sg18
(lp1253
S'On'
p1254
aS'this'
p1255
aS'she'
p1256
aS'took'
p1257
aS'the'
p1258
aS'bag'
p1259
aS','
p1260
aS'bounded'
p1261
aS'away'
p1262
aS'with'
p1263
aS'it'
p1264
aS','
p1265
aS'and'
p1266
aS'got'
p1267
aS'safely'
p1268
aS'to'
p1269
aS'her'
p1270
aS'mother'
p1271
aS','
p1272
aS'and'
p1273
aS'as'
p1274
aS'she'
p1275
aS'gave'
p1276
aS'her'
p1277
aS'mother'
p1278
aS'all'
p1279
aS'the'
p1280
aS'money'
p1281
aS','
p1282
aS'she'
p1283
aS'could'
p1284
aS'not'
p1285
aS'help'
p1286
aS'being'
p1287
aS'satisfied'
p1288
aS'with'
p1289
aS'her'
p1290
aS'.'
p1291
asg63
(lp1292
VOn
p1293
aVthis
p1294
aVshe
p1295
ag1058
aVthe
p1296
aVbag
p1297
ag76
aVbound
p1298
aVaway
p1299
aVwith
p1300
aVit
p1301
ag76
aVand
p1302
ag1157
aVsafely
p1303
aVto
p1304
aVher
p1305
aVmother
p1306
ag76
aVand
p1307
ag69
aVshe
p1308
ag697
aVher
p1309
aVmother
p1310
aVall
p1311
aVthe
p1312
aVmoney
p1313
ag76
aVshe
p1314
aVcould
p1315
aVnot
p1316
aVhelp
p1317
aVbe
p1318
ag883
aVwith
p1319
aVher
p1320
ag98
asg99
(lp1321
g101
ag101
ag101
ag101
ag101
ag101
ag101
ag101
ag101
ag101
ag101
ag101
ag101
ag101
ag101
ag101
ag101
ag101
ag101
ag101
ag101
ag101
ag101
ag101
ag101
ag101
ag101
ag101
ag101
ag101
ag101
ag101
ag101
ag101
ag101
ag101
ag101
ag101
asg102
(lp1322
g107
ag108
ag120
ag105
ag108
ag109
ag113
ag105
ag106
ag107
ag120
ag113
ag116
ag105
ag106
ag259
ag121
ag109
ag113
ag116
ag107
ag120
ag105
ag121
ag109
ag108
ag108
ag109
ag113
ag120
ag181
ag106
ag182
ag441
ag117
ag107
ag121
ag122
asg123
VOn this she took the bag, bounded away with it, and got safely to her mother, and as she gave her mother all the money, she could not help being satisfied with her.
p1323
sba(i__main__
Sentence
p1324
(dp1325
g17
I25
sg18
(lp1326
S'The'
p1327
aS'next'
p1328
aS'day'
p1329
aS','
p1330
aS'the'
p1331
aS'second'
p1332
aS'child'
p1333
aS'also'
p1334
aS'took'
p1335
aS'a'
p1336
aS'fancy'
p1337
aS'to'
p1338
aS'go'
p1339
aS'into'
p1340
aS'the'
p1341
aS'forest'
p1342
aS'.'
p1343
asg63
(lp1344
VThe
p1345
aVnext
p1346
aVday
p1347
ag76
aVthe
p1348
aVsecond
p1349
aVchild
p1350
aValso
p1351
ag1058
ag69
aVfancy
p1352
aVto
p1353
aVgo
p1354
aVinto
p1355
aVthe
p1356
aVforest
p1357
ag98
asg99
(lp1358
g101
ag101
ag101
ag101
ag101
ag101
ag101
ag101
ag101
ag101
ag101
ag101
ag101
ag101
ag101
ag101
ag101
asg102
(lp1359
g108
ag118
ag109
ag113
ag108
ag118
ag109
ag106
ag105
ag108
ag109
ag259
ag182
ag107
ag108
ag114
ag122
asg123
VThe next day, the second child also took a fancy to go into the forest.
p1360
sba(i__main__
Sentence
p1361
(dp1362
g17
I26
sg18
(lp1363
S'Her'
p1364
aS'mother'
p1365
aS'gave'
p1366
aS'her'
p1367
aS'a'
p1368
aS'much'
p1369
aS'larger'
p1370
aS'piece'
p1371
aS'of'
p1372
aS'pancake'
p1373
aS'and'
p1374
aS'bread'
p1375
aS'.'
p1376
asg63
(lp1377
VHer
p1378
aVmother
p1379
ag697
aVher
p1380
ag69
aVmuch
p1381
aVlarge
p1382
aVpiece
p1383
aVof
p1384
aVpancake
p1385
aVand
p1386
aVbread
p1387
ag98
asg99
(lp1388
g101
ag101
ag101
ag101
ag101
ag101
ag101
ag101
ag101
ag101
ag101
ag101
ag101
asg102
(lp1389
g121
ag109
ag105
ag120
ag108
ag106
ag886
ag109
ag107
ag109
ag116
ag109
ag122
asg123
VHer mother gave her a much larger piece of pancake and bread.
p1390
sba(i__main__
Sentence
p1391
(dp1392
g17
I27
sg18
(lp1393
S'It'
p1394
aS'happened'
p1395
aS'with'
p1396
aS'her'
p1397
aS'just'
p1398
aS'as'
p1399
aS'with'
p1400
aS'the'
p1401
aS'first'
p1402
aS'child'
p1403
aS'.'
p1404
asg63
(lp1405
VIt
p1406
aVhappen
p1407
aVwith
p1408
aVher
p1409
aVjust
p1410
ag69
aVwith
p1411
aVthe
p1412
aVfirst
p1413
aVchild
p1414
ag98
asg99
(lp1415
g101
ag101
ag101
ag101
ag101
ag101
ag101
ag101
ag101
ag101
ag101
asg102
(lp1416
g120
ag105
ag107
ag121
ag106
ag107
ag107
ag108
ag118
ag109
ag122
asg123
VIt happened with her just as with the first child.
p1417
sba(i__main__
Sentence
p1418
(dp1419
g17
I28
sg18
(lp1420
S'In'
p1421
aS'the'
p1422
aS'evening'
p1423
aS'she'
p1424
aS'came'
p1425
aS'to'
p1426
aS'St.'
p1427
aS'Joseph'
p1428
aS"'s"
p1429
aS'little'
p1430
aS'hut'
p1431
aS','
p1432
aS'who'
p1433
aS'gave'
p1434
aS'her'
p1435
aS'roots'
p1436
aS'for'
p1437
aS'a'
p1438
aS'thick'
p1439
aS'soup'
p1440
aS'.'
p1441
asg63
(lp1442
VIn
p1443
aVthe
p1444
aVevening
p1445
aVshe
p1446
ag418
aVto
p1447
aVSt.
p1448
aVJoseph
p1449
aV's
p1450
aVlittle
p1451
aVhut
p1452
ag76
aVwho
p1453
ag697
aVher
p1454
aVroot
p1455
aVfor
p1456
ag69
aVthick
p1457
aVsoup
p1458
ag98
asg99
(lp1459
g101
ag101
ag101
ag101
ag101
ag101
ag101
aVPERSON
p1460
ag101
ag101
ag101
ag101
ag101
ag101
ag101
ag101
ag101
ag101
ag101
ag101
ag101
asg102
(lp1461
g107
ag108
ag109
ag120
ag105
ag259
ag372
ag372
ag887
ag118
ag109
ag113
ag110
ag105
ag120
ag112
ag107
ag108
ag109
ag109
ag122
asg123
VIn the evening she came to St. Joseph's little hut, who gave her roots for a thick soup.
p1462
sba(i__main__
Sentence
p1463
(dp1464
g17
I29
sg18
(lp1465
S'When'
p1466
aS'it'
p1467
aS'was'
p1468
aS'ready'
p1469
aS','
p1470
aS'he'
p1471
aS'likewise'
p1472
aS'said'
p1473
aS'to'
p1474
aS'her'
p1475
aS','
p1476
aS'I'
p1477
aS'am'
p1478
aS'so'
p1479
aS'hungry'
p1480
aS','
p1481
aS'give'
p1482
aS'me'
p1483
aS'some'
p1484
aS'of'
p1485
aS'your'
p1486
aS'food'
p1487
aS'.'
p1488
asg63
(lp1489
VWhen
p1490
aVit
p1491
ag66
aVready
p1492
ag76
aVhe
p1493
aVlikewise
p1494
ag577
aVto
p1495
aVher
p1496
ag76
ag613
ag815
aVso
p1497
aVhungry
p1498
ag76
aVgive
p1499
aVme
p1500
aVsome
p1501
aVof
p1502
aVyour
p1503
aVfood
p1504
ag98
asg99
(lp1505
g101
ag101
ag101
ag101
ag101
ag101
ag101
ag101
ag101
ag101
ag101
ag101
ag101
ag101
ag101
ag101
ag101
ag101
ag101
ag101
ag101
ag101
ag101
asg102
(lp1506
g484
ag120
ag105
ag106
ag113
ag120
ag115
ag117
ag259
ag121
ag113
ag120
ag115
ag106
ag118
ag113
ag118
ag120
ag108
ag107
ag121
ag109
ag122
asg123
VWhen it was ready, he likewise said to her, I am so hungry, give me some of your food.
p1507
sba(i__main__
Sentence
p1508
(dp1509
g17
I30
sg18
(lp1510
S'Then'
p1511
aS'the'
p1512
aS'child'
p1513
aS'said'
p1514
aS','
p1515
aS'you'
p1516
aS'may'
p1517
aS'have'
p1518
aS'your'
p1519
aS'share'
p1520
aS'.'
p1521
asg63
(lp1522
VThen
p1523
aVthe
p1524
aVchild
p1525
ag577
ag76
aVyou
p1526
aVmay
p1527
aVhave
p1528
aVyour
p1529
aVshare
p1530
ag98
asg99
(lp1531
g101
ag101
ag101
ag101
ag101
ag101
ag101
ag101
ag101
ag101
ag101
asg102
(lp1532
g106
ag108
ag109
ag105
ag113
ag120
ag181
ag182
ag121
ag109
ag122
asg123
VThen the child said, you may have your share.
p1533
sba(i__main__
Sentence
p1534
(dp1535
g17
I31
sg18
(lp1536
S'Afterwards'
p1537
aS','
p1538
aS'when'
p1539
aS'St.'
p1540
aS'Joseph'
p1541
aS'offered'
p1542
aS'her'
p1543
aS'his'
p1544
aS'bed'
p1545
aS'and'
p1546
aS'wanted'
p1547
aS'to'
p1548
aS'lie'
p1549
aS'on'
p1550
aS'the'
p1551
aS'straw'
p1552
aS','
p1553
aS'she'
p1554
aS'replied'
p1555
aS','
p1556
aS'no'
p1557
aS','
p1558
aS'lie'
p1559
aS'down'
p1560
aS'in'
p1561
aS'the'
p1562
aS'bed'
p1563
aS','
p1564
aS'there'
p1565
aS'is'
p1566
aS'plenty'
p1567
aS'of'
p1568
aS'room'
p1569
aS'for'
p1570
aS'both'
p1571
aS'of'
p1572
aS'us'
p1573
aS'.'
p1574
asg63
(lp1575
VAfterwards
p1576
ag76
aVwhen
p1577
aVSt.
p1578
aVJoseph
p1579
aVoffer
p1580
aVher
p1581
aVhis
p1582
aVbed
p1583
aVand
p1584
aVwant
p1585
aVto
p1586
aVlie
p1587
aVon
p1588
aVthe
p1589
aVstraw
p1590
ag76
aVshe
p1591
aVreply
p1592
ag76
aVno
p1593
ag76
aVlie
p1594
aVdown
p1595
aVin
p1596
aVthe
p1597
aVbed
p1598
ag76
aVthere
p1599
ag1014
aVplenty
p1600
aVof
p1601
aVroom
p1602
aVfor
p1603
aVboth
p1604
aVof
p1605
aVu
p1606
ag98
asg99
(lp1607
g101
ag101
ag101
aVPERSON
p1608
aVPERSON
p1609
ag101
ag101
ag101
ag101
ag101
ag101
ag101
ag101
ag101
ag101
ag101
ag101
ag101
ag101
ag101
ag101
ag101
ag101
ag101
ag101
ag101
ag101
ag101
ag101
ag101
ag101
ag101
ag101
ag101
ag101
ag101
ag101
ag101
asg102
(lp1610
g112
ag113
ag484
ag372
ag372
ag105
ag120
ag121
ag117
ag116
ag105
ag259
ag182
ag107
ag108
ag109
ag113
ag120
ag105
ag113
ag108
ag113
ag109
ag107
ag107
ag108
ag117
ag113
ag104
ag313
ag109
ag107
ag109
ag107
ag108
ag107
ag120
ag122
asg123
VAfterwards, when St. Joseph offered her his bed and wanted to lie on the straw, she replied, no, lie down in the bed, there is plenty of room for both of us.
p1611
sba(i__main__
Sentence
p1612
(dp1613
g17
I32
sg18
(lp1614
S'St.'
p1615
aS'Joseph'
p1616
aS'took'
p1617
aS'her'
p1618
aS'in'
p1619
aS'his'
p1620
aS'arms'
p1621
aS'and'
p1622
aS'put'
p1623
aS'her'
p1624
aS'in'
p1625
aS'the'
p1626
aS'bed'
p1627
aS','
p1628
aS'and'
p1629
aS'laid'
p1630
aS'himself'
p1631
aS'on'
p1632
aS'the'
p1633
aS'straw'
p1634
aS'.'
p1635
asg63
(lp1636
VSt.
p1637
aVJoseph
p1638
ag1058
aVher
p1639
aVin
p1640
aVhis
p1641
aVarm
p1642
aVand
p1643
aVput
p1644
aVher
p1645
aVin
p1646
aVthe
p1647
aVbed
p1648
ag76
aVand
p1649
aVlay
p1650
aVhimself
p1651
aVon
p1652
aVthe
p1653
aVstraw
p1654
ag98
asg99
(lp1655
VPERSON
p1656
aVPERSON
p1657
ag101
ag101
ag101
ag101
ag101
ag101
ag101
ag101
ag101
ag101
ag101
ag101
ag101
ag101
ag101
ag101
ag101
ag101
ag101
asg102
(lp1658
g372
ag372
ag105
ag120
ag107
ag121
ag112
ag116
ag105
ag120
ag107
ag108
ag117
ag113
ag116
ag105
ag120
ag107
ag108
ag109
ag122
asg123
VSt. Joseph took her in his arms and put her in the bed, and laid himself on the straw.
p1659
sba(i__main__
Sentence
p1660
(dp1661
g17
I33
sg18
(lp1662
S'In'
p1663
aS'the'
p1664
aS'morning'
p1665
aS'when'
p1666
aS'the'
p1667
aS'child'
p1668
aS'awoke'
p1669
aS'and'
p1670
aS'looked'
p1671
aS'for'
p1672
aS'St.'
p1673
aS'Joseph'
p1674
aS','
p1675
aS'he'
p1676
aS'had'
p1677
aS'vanished'
p1678
aS','
p1679
aS'but'
p1680
aS'behind'
p1681
aS'the'
p1682
aS'door'
p1683
aS'she'
p1684
aS'found'
p1685
aS'a'
p1686
aS'little'
p1687
aS'sack'
p1688
aS'of'
p1689
aS'money'
p1690
aS'that'
p1691
aS'was'
p1692
aS'about'
p1693
aS'as'
p1694
aS'long'
p1695
aS'as'
p1696
aS'a'
p1697
aS'hand'
p1698
aS','
p1699
aS'and'
p1700
aS'on'
p1701
aS'it'
p1702
aS'was'
p1703
aS'written'
p1704
aS'that'
p1705
aS'it'
p1706
aS'was'
p1707
aS'for'
p1708
aS'the'
p1709
aS'child'
p1710
aS'who'
p1711
aS'had'
p1712
aS'slept'
p1713
aS'there'
p1714
aS'last'
p1715
aS'night'
p1716
aS'.'
p1717
asg63
(lp1718
VIn
p1719
aVthe
p1720
aVmorning
p1721
aVwhen
p1722
aVthe
p1723
aVchild
p1724
aVawoke
p1725
aVand
p1726
aVlook
p1727
aVfor
p1728
aVSt.
p1729
aVJoseph
p1730
ag76
aVhe
p1731
ag73
aVvanish
p1732
ag76
aVbut
p1733
aVbehind
p1734
aVthe
p1735
aVdoor
p1736
aVshe
p1737
aVfind
p1738
ag69
aVlittle
p1739
aVsack
p1740
aVof
p1741
aVmoney
p1742
aVthat
p1743
ag66
aVabout
p1744
aVas
p1745
aVlong
p1746
ag69
ag69
aVhand
p1747
ag76
aVand
p1748
aVon
p1749
aVit
p1750
ag66
ag1237
aVthat
p1751
aVit
p1752
ag66
aVfor
p1753
aVthe
p1754
aVchild
p1755
aVwho
p1756
ag73
ag1244
aVthere
p1757
aVlast
p1758
aVnight
p1759
ag98
asg99
(lp1760
g101
ag101
ag101
ag101
ag101
ag101
ag101
ag101
ag101
ag101
ag101
aVPERSON
p1761
ag101
ag101
ag101
ag101
ag101
ag101
ag101
ag101
ag101
ag101
ag101
ag101
ag101
ag101
ag101
ag101
ag101
ag101
ag101
ag101
ag101
ag101
ag101
ag101
ag101
ag101
ag101
ag101
ag101
ag101
ag101
ag101
ag101
ag101
ag101
ag101
ag101
ag101
ag101
ag101
ag101
ag101
ag101
asg102
(lp1762
g107
ag108
ag109
ag484
ag108
ag109
ag109
ag116
ag105
ag107
ag372
ag372
ag113
ag120
ag105
ag117
ag113
ag116
ag107
ag108
ag109
ag120
ag105
ag108
ag106
ag109
ag107
ag109
ag107
ag105
ag107
ag106
ag118
ag107
ag108
ag109
ag113
ag116
ag107
ag120
ag105
ag117
ag107
ag120
ag105
ag107
ag108
ag109
ag110
ag105
ag117
ag106
ag118
ag109
ag122
asg123
VIn the morning when the child awoke and looked for St. Joseph, he had vanished, but behind the door she found a little sack of money that was about as long as a hand, and on it was written that it was for the child who had slept there last night.
p1763
sba(i__main__
Sentence
p1764
(dp1765
g17
I34
sg18
(lp1766
S'So'
p1767
aS'she'
p1768
aS'took'
p1769
aS'the'
p1770
aS'little'
p1771
aS'bag'
p1772
aS'and'
p1773
aS'ran'
p1774
aS'home'
p1775
aS'with'
p1776
aS'it'
p1777
aS','
p1778
aS'and'
p1779
aS'took'
p1780
aS'it'
p1781
aS'to'
p1782
aS'her'
p1783
aS'mother'
p1784
aS','
p1785
aS'but'
p1786
aS'she'
p1787
aS'secretly'
p1788
aS'kept'
p1789
aS'two'
p1790
aS'pieces'
p1791
aS'for'
p1792
aS'herself'
p1793
aS'.'
p1794
asg63
(lp1795
VSo
p1796
aVshe
p1797
ag1058
aVthe
p1798
aVlittle
p1799
aVbag
p1800
aVand
p1801
ag429
aVhome
p1802
aVwith
p1803
aVit
p1804
ag76
aVand
p1805
ag1058
aVit
p1806
aVto
p1807
aVher
p1808
aVmother
p1809
ag76
aVbut
p1810
aVshe
p1811
aVsecretly
p1812
ag871
aVtwo
p1813
aVpiece
p1814
aVfor
p1815
aVherself
p1816
ag98
asg99
(lp1817
g101
ag101
ag101
ag101
ag101
ag101
ag101
ag101
ag101
ag101
ag101
ag101
ag101
ag101
ag101
ag101
ag101
ag101
ag101
ag101
ag101
ag101
ag101
ag101
ag101
ag101
ag101
ag101
asg102
(lp1818
g107
ag120
ag105
ag108
ag118
ag109
ag116
ag105
ag109
ag107
ag120
ag113
ag116
ag105
ag120
ag259
ag121
ag109
ag113
ag116
ag120
ag106
ag105
ag111
ag112
ag107
ag120
ag122
asg123
VSo she took the little bag and ran home with it, and took it to her mother, but she secretly kept two pieces for herself.
p1819
sba(i__main__
Sentence
p1820
(dp1821
g17
I35
sg18
(lp1822
S'The'
p1823
aS'eldest'
p1824
aS'daughter'
p1825
aS'had'
p1826
aS'by'
p1827
aS'this'
p1828
aS'time'
p1829
aS'grown'
p1830
aS'inquisitive'
p1831
aS','
p1832
aS'and'
p1833
aS'the'
p1834
aS'next'
p1835
aS'morning'
p1836
aS'also'
p1837
aS'insisted'
p1838
aS'on'
p1839
aS'going'
p1840
aS'out'
p1841
aS'into'
p1842
aS'the'
p1843
aS'forest'
p1844
aS'.'
p1845
asg63
(lp1846
VThe
p1847
aVeldest
p1848
aVdaughter
p1849
ag73
aVby
p1850
aVthis
p1851
aVtime
p1852
aVgrown
p1853
aVinquisitive
p1854
ag76
aVand
p1855
aVthe
p1856
aVnext
p1857
aVmorning
p1858
aValso
p1859
aVinsist
p1860
aVon
p1861
aVgo
p1862
aVout
p1863
aVinto
p1864
aVthe
p1865
aVforest
p1866
ag98
asg99
(lp1867
g101
ag101
ag101
ag101
ag101
ag101
ag101
ag101
ag101
ag101
ag101
ag101
ag101
ag101
ag101
ag101
ag101
ag101
ag101
ag101
ag101
ag101
ag101
asg102
(lp1868
g108
ag114
ag109
ag105
ag107
ag108
ag109
ag442
ag118
ag113
ag116
ag108
ag118
ag109
ag106
ag105
ag107
ag441
ag107
ag107
ag108
ag114
ag122
asg123
VThe eldest daughter had by this time grown inquisitive, and the next morning also insisted on going out into the forest.
p1869
sba(i__main__
Sentence
p1870
(dp1871
g17
I36
sg18
(lp1872
S'Her'
p1873
aS'mother'
p1874
aS'gave'
p1875
aS'her'
p1876
aS'pancakes'
p1877
aS'-'
p1878
aS'as'
p1879
aS'many'
p1880
aS'as'
p1881
aS'she'
p1882
aS'wanted'
p1883
aS','
p1884
aS'and'
p1885
aS'bread'
p1886
aS'and'
p1887
aS'cheese'
p1888
aS'as'
p1889
aS'well'
p1890
aS'.'
p1891
asg63
(lp1892
VHer
p1893
aVmother
p1894
ag697
aVher
p1895
aVpancakes
p1896
aV-
p1897
ag69
aVmany
p1898
ag69
aVshe
p1899
aVwant
p1900
ag76
aVand
p1901
aVbread
p1902
aVand
p1903
aVcheese
p1904
ag69
aVwell
p1905
ag98
asg99
(lp1906
g101
ag101
ag101
ag101
ag101
ag101
ag101
ag101
ag101
ag101
ag101
ag101
ag101
ag101
ag101
ag101
ag101
ag101
ag101
asg102
(lp1907
g121
ag109
ag105
ag120
ag313
aS':'
p1908
ag107
ag118
ag107
ag120
ag105
ag113
ag116
ag182
ag116
ag182
ag107
ag106
ag122
asg123
VHer mother gave her pancakes - as many as she wanted, and bread and cheese as well.
p1909
sba(i__main__
Sentence
p1910
(dp1911
g17
I37
sg18
(lp1912
S'In'
p1913
aS'the'
p1914
aS'evening'
p1915
aS'she'
p1916
aS'found'
p1917
aS'St.'
p1918
aS'Joseph'
p1919
aS'in'
p1920
aS'his'
p1921
aS'little'
p1922
aS'hut'
p1923
aS','
p1924
aS'just'
p1925
aS'as'
p1926
aS'the'
p1927
aS'two'
p1928
aS'others'
p1929
aS'had'
p1930
aS'found'
p1931
aS'him'
p1932
aS'.'
p1933
asg63
(lp1934
VIn
p1935
aVthe
p1936
aVevening
p1937
aVshe
p1938
ag1738
aVSt.
p1939
aVJoseph
p1940
aVin
p1941
aVhis
p1942
aVlittle
p1943
aVhut
p1944
ag76
aVjust
p1945
ag69
aVthe
p1946
aVtwo
p1947
aVothers
p1948
ag73
ag1738
aVhim
p1949
ag98
asg99
(lp1950
g101
ag101
ag101
ag101
ag101
aVPERSON
p1951
aVPERSON
p1952
ag101
ag101
ag101
ag101
ag101
ag101
ag101
ag101
ag101
ag101
ag101
ag101
ag101
ag101
asg102
(lp1953
g107
ag108
ag109
ag120
ag105
ag372
ag372
ag107
ag121
ag118
ag109
ag113
ag106
ag107
ag108
ag111
ag112
ag105
ag117
ag120
ag122
asg123
VIn the evening she found St. Joseph in his little hut, just as the two others had found him.
p1954
sba(i__main__
Sentence
p1955
(dp1956
g17
I38
sg18
(lp1957
S'When'
p1958
aS'the'
p1959
aS'soup'
p1960
aS'was'
p1961
aS'ready'
p1962
aS'and'
p1963
aS'St.'
p1964
aS'Joseph'
p1965
aS'said'
p1966
aS','
p1967
aS'I'
p1968
aS'am'
p1969
aS'so'
p1970
aS'hungry'
p1971
aS','
p1972
aS'give'
p1973
aS'me'
p1974
aS'some'
p1975
aS'of'
p1976
aS'the'
p1977
aS'food'
p1978
aS','
p1979
aS'the'
p1980
aS'girl'
p1981
aS'answered'
p1982
aS','
p1983
aS'wait'
p1984
aS'until'
p1985
aS'I'
p1986
aS'am'
p1987
aS'satisfied'
p1988
aS','
p1989
aS'then'
p1990
aS'if'
p1991
aS'there'
p1992
aS'is'
p1993
aS'anything'
p1994
aS'left'
p1995
aS'you'
p1996
aS'shall'
p1997
aS'have'
p1998
aS'it'
p1999
aS'.'
p2000
asg63
(lp2001
VWhen
p2002
aVthe
p2003
aVsoup
p2004
ag66
aVready
p2005
aVand
p2006
aVSt.
p2007
aVJoseph
p2008
ag577
ag76
ag613
ag815
aVso
p2009
aVhungry
p2010
ag76
aVgive
p2011
aVme
p2012
aVsome
p2013
aVof
p2014
aVthe
p2015
aVfood
p2016
ag76
aVthe
p2017
aVgirl
p2018
aVanswer
p2019
ag76
aVwait
p2020
aVuntil
p2021
ag613
ag815
ag883
ag76
aVthen
p2022
aVif
p2023
aVthere
p2024
ag1014
aVanything
p2025
aVleave
p2026
aVyou
p2027
aVshall
p2028
aVhave
p2029
aVit
p2030
ag98
asg99
(lp2031
g101
ag101
ag101
ag101
ag101
ag101
ag101
aVPERSON
p2032
ag101
ag101
ag101
ag101
ag101
ag101
ag101
ag101
ag101
ag101
ag101
ag101
ag101
ag101
ag101
ag101
ag101
ag101
ag101
ag101
ag101
ag101
ag101
ag101
ag101
ag101
ag101
ag101
ag101
ag101
ag101
ag101
ag101
ag101
ag101
asg102
(lp2033
g484
ag108
ag109
ag105
ag118
ag116
ag372
ag372
ag105
ag113
ag120
ag115
ag106
ag118
ag113
ag118
ag120
ag108
ag107
ag108
ag109
ag113
ag108
ag109
ag105
ag113
ag109
ag107
ag120
ag115
ag117
ag113
ag106
ag107
ag104
ag313
ag109
ag117
ag120
ag181
ag182
ag120
ag122
asg123
VWhen the soup was ready and St. Joseph said, I am so hungry, give me some of the food, the girl answered, wait until I am satisfied, then if there is anything left you shall have it.
p2034
sba(i__main__
Sentence
p2035
(dp2036
g17
I39
sg18
(lp2037
S'But'
p2038
aS'she'
p2039
aS'ate'
p2040
aS'nearly'
p2041
aS'the'
p2042
aS'whole'
p2043
aS'of'
p2044
aS'it'
p2045
aS','
p2046
aS'and'
p2047
aS'St.'
p2048
aS'Joseph'
p2049
aS'had'
p2050
aS'to'
p2051
aS'scrape'
p2052
aS'the'
p2053
aS'dish'
p2054
aS'.'
p2055
asg63
(lp2056
VBut
p2057
aVshe
p2058
aVeat
p2059
aVnearly
p2060
aVthe
p2061
aVwhole
p2062
aVof
p2063
aVit
p2064
ag76
aVand
p2065
aVSt.
p2066
aVJoseph
p2067
ag73
aVto
p2068
aVscrape
p2069
aVthe
p2070
aVdish
p2071
ag98
asg99
(lp2072
g101
ag101
ag101
ag101
ag101
ag101
ag101
ag101
ag101
ag101
ag101
aVPERSON
p2073
ag101
ag101
ag101
ag101
ag101
ag101
asg102
(lp2074
g116
ag120
ag115
ag106
ag108
ag118
ag107
ag120
ag113
ag116
ag372
ag372
ag105
ag259
ag182
ag108
ag118
ag122
asg123
VBut she ate nearly the whole of it, and St. Joseph had to scrape the dish.
p2075
sba(i__main__
Sentence
p2076
(dp2077
g17
I40
sg18
(lp2078
S'Afterwards'
p2079
aS','
p2080
aS'the'
p2081
aS'good'
p2082
aS'old'
p2083
aS'man'
p2084
aS'offered'
p2085
aS'her'
p2086
aS'his'
p2087
aS'bed'
p2088
aS','
p2089
aS'and'
p2090
aS'wanted'
p2091
aS'to'
p2092
aS'lie'
p2093
aS'on'
p2094
aS'the'
p2095
aS'straw'
p2096
aS'.'
p2097
asg63
(lp2098
VAfterwards
p2099
ag76
aVthe
p2100
aVgood
p2101
aVold
p2102
aVman
p2103
aVoffer
p2104
aVher
p2105
aVhis
p2106
aVbed
p2107
ag76
aVand
p2108
aVwant
p2109
aVto
p2110
aVlie
p2111
aVon
p2112
aVthe
p2113
aVstraw
p2114
ag98
asg99
(lp2115
g101
ag101
ag101
ag101
ag101
ag101
ag101
ag101
ag101
ag101
ag101
ag101
ag101
ag101
ag101
ag101
ag101
ag101
ag101
asg102
(lp2116
g112
ag113
ag108
ag118
ag118
ag109
ag105
ag120
ag121
ag117
ag113
ag116
ag105
ag259
ag182
ag107
ag108
ag109
ag122
asg123
VAfterwards, the good old man offered her his bed, and wanted to lie on the straw.
p2117
sba(i__main__
Sentence
p2118
(dp2119
g17
I41
sg18
(lp2120
S'She'
p2121
aS'took'
p2122
aS'it'
p2123
aS'without'
p2124
aS'making'
p2125
aS'any'
p2126
aS'opposition'
p2127
aS','
p2128
aS'laid'
p2129
aS'herself'
p2130
aS'down'
p2131
aS'in'
p2132
aS'the'
p2133
aS'little'
p2134
aS'bed'
p2135
aS','
p2136
aS'and'
p2137
aS'left'
p2138
aS'the'
p2139
aS'hard'
p2140
aS'straw'
p2141
aS'to'
p2142
aS'the'
p2143
aS'white-haired'
p2144
aS'man'
p2145
aS'.'
p2146
asg63
(lp2147
VShe
p2148
ag1058
aVit
p2149
aVwithout
p2150
aVmake
p2151
aVany
p2152
aVopposition
p2153
ag76
ag1650
aVherself
p2154
aVdown
p2155
aVin
p2156
aVthe
p2157
aVlittle
p2158
aVbed
p2159
ag76
aVand
p2160
ag2026
aVthe
p2161
aVhard
p2162
aVstraw
p2163
aVto
p2164
aVthe
p2165
aVwhite-haired
p2166
aVman
p2167
ag98
asg99
(lp2168
g101
ag101
ag101
ag101
ag101
ag101
ag101
ag101
ag101
ag101
ag101
ag101
ag101
ag101
ag101
ag101
ag101
ag101
ag101
ag101
ag101
ag101
ag101
ag101
ag101
ag101
asg102
(lp2169
g120
ag105
ag120
ag107
ag441
ag108
ag109
ag113
ag105
ag120
ag107
ag107
ag108
ag118
ag117
ag113
ag116
ag105
ag108
ag118
ag109
ag259
ag108
ag118
ag109
ag122
asg123
VShe took it without making any opposition, laid herself down in the little bed, and left the hard straw to the white-haired man.
p2170
sba(i__main__
Sentence
p2171
(dp2172
g17
I42
sg18
(lp2173
S'Next'
p2174
aS'morning'
p2175
aS'when'
p2176
aS'she'
p2177
aS'awoke'
p2178
aS','
p2179
aS'St.'
p2180
aS'Joseph'
p2181
aS'was'
p2182
aS'not'
p2183
aS'to'
p2184
aS'be'
p2185
aS'found'
p2186
aS','
p2187
aS'but'
p2188
aS'she'
p2189
aS'did'
p2190
aS'not'
p2191
aS'trouble'
p2192
aS'herself'
p2193
aS'about'
p2194
aS'that'
p2195
aS'.'
p2196
asg63
(lp2197
VNext
p2198
aVmorning
p2199
aVwhen
p2200
aVshe
p2201
ag1115
ag76
aVSt.
p2202
aVJoseph
p2203
ag66
aVnot
p2204
aVto
p2205
aVbe
p2206
ag1738
ag76
aVbut
p2207
aVshe
p2208
ag297
aVnot
p2209
aVtrouble
p2210
aVherself
p2211
aVabout
p2212
aVthat
p2213
ag98
asg99
(lp2214
g101
ag101
ag101
ag101
ag101
ag101
ag101
aVPERSON
p2215
ag101
ag101
ag101
ag101
ag101
ag101
ag101
ag101
ag101
ag101
ag101
ag101
ag101
ag101
ag101
asg102
(lp2216
g118
ag109
ag484
ag120
ag115
ag113
ag372
ag372
ag105
ag106
ag259
ag182
ag117
ag113
ag116
ag120
ag105
ag106
ag118
ag109
ag107
ag108
ag122
asg123
VNext morning when she awoke, St. Joseph was not to be found, but she did not trouble herself about that.
p2217
sba(i__main__
Sentence
p2218
(dp2219
g17
I43
sg18
(lp2220
S'She'
p2221
aS'looked'
p2222
aS'behind'
p2223
aS'the'
p2224
aS'door'
p2225
aS'for'
p2226
aS'a'
p2227
aS'money-bag'
p2228
aS'.'
p2229
asg63
(lp2230
VShe
p2231
aVlook
p2232
aVbehind
p2233
aVthe
p2234
aVdoor
p2235
aVfor
p2236
ag69
aVmoney-bag
p2237
ag98
asg99
(lp2238
g101
ag101
ag101
ag101
ag101
ag101
ag101
ag101
ag101
asg102
(lp2239
g120
ag105
ag107
ag108
ag109
ag107
ag108
ag118
ag122
asg123
VShe looked behind the door for a money-bag.
p2240
sba(i__main__
Sentence
p2241
(dp2242
g17
I44
sg18
(lp2243
S'She'
p2244
aS'fancied'
p2245
aS'something'
p2246
aS'was'
p2247
aS'lying'
p2248
aS'on'
p2249
aS'the'
p2250
aS'ground'
p2251
aS','
p2252
aS'but'
p2253
aS'as'
p2254
aS'she'
p2255
aS'could'
p2256
aS'not'
p2257
aS'very'
p2258
aS'well'
p2259
aS'distinguish'
p2260
aS'what'
p2261
aS'it'
p2262
aS'was'
p2263
aS','
p2264
aS'she'
p2265
aS'stooped'
p2266
aS'down'
p2267
aS','
p2268
aS'so'
p2269
aS'that'
p2270
aS'she'
p2271
aS'touched'
p2272
aS'it'
p2273
aS'with'
p2274
aS'her'
p2275
aS'nose'
p2276
aS','
p2277
aS'where'
p2278
aS'it'
p2279
aS'remained'
p2280
aS'hanging'
p2281
aS','
p2282
aS'and'
p2283
aS'when'
p2284
aS'she'
p2285
aS'got'
p2286
aS'up'
p2287
aS'again'
p2288
aS','
p2289
aS'she'
p2290
aS'saw'
p2291
aS','
p2292
aS'to'
p2293
aS'her'
p2294
aS'horror'
p2295
aS','
p2296
aS'that'
p2297
aS'it'
p2298
aS'was'
p2299
aS'a'
p2300
aS'second'
p2301
aS'nose'
p2302
aS','
p2303
aS'which'
p2304
aS'was'
p2305
aS'hanging'
p2306
aS'fast'
p2307
aS'to'
p2308
aS'her'
p2309
aS'own'
p2310
aS'.'
p2311
asg63
(lp2312
VShe
p2313
aVfancy
p2314
aVsomething
p2315
ag66
aVlie
p2316
aVon
p2317
aVthe
p2318
aVground
p2319
ag76
aVbut
p2320
ag69
aVshe
p2321
aVcould
p2322
aVnot
p2323
aVvery
p2324
aVwell
p2325
aVdistinguish
p2326
aVwhat
p2327
aVit
p2328
ag66
ag76
aVshe
p2329
aVstoop
p2330
aVdown
p2331
ag76
aVso
p2332
aVthat
p2333
aVshe
p2334
aVtouch
p2335
aVit
p2336
aVwith
p2337
aVher
p2338
aVnose
p2339
ag76
aVwhere
p2340
aVit
p2341
aVremain
p2342
aVhang
p2343
ag76
aVand
p2344
aVwhen
p2345
aVshe
p2346
ag1157
aVup
p2347
aVagain
p2348
ag76
aVshe
p2349
aVsaw
p2350
ag76
aVto
p2351
aVher
p2352
aVhorror
p2353
ag76
aVthat
p2354
aVit
p2355
ag66
ag69
aVsecond
p2356
aVnose
p2357
ag76
aVwhich
p2358
ag66
aVhang
p2359
aVfast
p2360
aVto
p2361
aVher
p2362
aVown
p2363
ag98
asg99
(lp2364
g101
ag101
ag101
ag101
ag101
ag101
ag101
ag101
ag101
ag101
ag101
ag101
ag101
ag101
ag101
ag101
ag101
ag101
ag101
ag101
ag101
ag101
ag101
ag101
ag101
ag101
ag101
ag101
ag101
ag101
ag101
ag101
ag101
ag101
ag101
ag101
ag101
ag101
ag101
ag101
ag101
ag101
ag101
ag101
ag101
ag101
ag101
ag101
ag101
ag101
ag101
ag101
ag101
ag101
ag101
ag101
ag101
ag101
ag101
ag101
ag101
ag101
ag101
ag101
ag101
ag101
ag101
ag101
asg102
(lp2365
g120
ag105
ag109
ag105
ag441
ag107
ag108
ag109
ag113
ag116
ag107
ag120
ag181
ag106
ag106
ag106
ag118
ag110
ag120
ag105
ag113
ag120
ag105
ag442
ag113
ag106
ag107
ag120
ag105
ag120
ag107
ag121
ag109
ag113
ag484
ag120
ag105
ag441
ag113
ag116
ag484
ag120
ag105
ag442
ag106
ag113
ag120
ag105
ag113
ag259
ag121
ag109
ag113
ag107
ag120
ag105
ag108
ag118
ag109
ag113
ag312
ag105
ag441
ag106
ag259
ag121
ag118
ag122
asg123
VShe fancied something was lying on the ground, but as she could not very well distinguish what it was, she stooped down, so that she touched it with her nose, where it remained hanging, and when she got up again, she saw, to her horror, that it was a second nose, which was hanging fast to her own.
p2366
sba(i__main__
Sentence
p2367
(dp2368
g17
I45
sg18
(lp2369
S'Then'
p2370
aS'she'
p2371
aS'began'
p2372
aS'to'
p2373
aS'scream'
p2374
aS'and'
p2375
aS'howl'
p2376
aS','
p2377
aS'but'
p2378
aS'that'
p2379
aS'did'
p2380
aS'no'
p2381
aS'good'
p2382
aS'.'
p2383
asg63
(lp2384
VThen
p2385
aVshe
p2386
aVbegin
p2387
aVto
p2388
aVscream
p2389
aVand
p2390
aVhowl
p2391
ag76
aVbut
p2392
aVthat
p2393
ag297
aVno
p2394
aVgood
p2395
ag98
asg99
(lp2396
g101
ag101
ag101
ag101
ag101
ag101
ag101
ag101
ag101
ag101
ag101
ag101
ag101
ag101
asg102
(lp2397
g106
ag120
ag105
ag259
ag182
ag116
ag109
ag113
ag116
ag107
ag105
ag108
ag118
ag122
asg123
VThen she began to scream and howl, but that did no good.
p2398
sba(i__main__
Sentence
p2399
(dp2400
g17
I46
sg18
(lp2401
S'She'
p2402
aS'always'
p2403
aS'had'
p2404
aS'to'
p2405
aS'look'
p2406
aS'at'
p2407
aS'her'
p2408
aS'nose'
p2409
aS','
p2410
aS'for'
p2411
aS'it'
p2412
aS'stretched'
p2413
aS'out'
p2414
aS'so'
p2415
aS'far'
p2416
aS'.'
p2417
asg63
(lp2418
VShe
p2419
aValways
p2420
ag73
aVto
p2421
aVlook
p2422
aVat
p2423
aVher
p2424
aVnose
p2425
ag76
aVfor
p2426
aVit
p2427
aVstretch
p2428
aVout
p2429
aVso
p2430
aVfar
p2431
ag98
asg99
(lp2432
g101
ag101
ag101
ag101
ag101
ag101
ag101
ag101
ag101
ag101
ag101
ag101
ag101
ag101
ag101
ag101
asg102
(lp2433
g120
ag106
ag105
ag259
ag182
ag107
ag121
ag109
ag113
ag107
ag120
ag105
ag107
ag106
ag106
ag122
asg123
VShe always had to look at her nose, for it stretched out so far.
p2434
sba(i__main__
Sentence
p2435
(dp2436
g17
I47
sg18
(lp2437
S'Then'
p2438
aS'she'
p2439
aS'ran'
p2440
aS'out'
p2441
aS'and'
p2442
aS'screamed'
p2443
aS'without'
p2444
aS'stopping'
p2445
aS'till'
p2446
aS'she'
p2447
aS'met'
p2448
aS'St.'
p2449
aS'Joseph'
p2450
aS','
p2451
aS'at'
p2452
aS'whose'
p2453
aS'feet'
p2454
aS'she'
p2455
aS'fell'
p2456
aS'and'
p2457
aS'begged'
p2458
aS'until'
p2459
aS','
p2460
aS'out'
p2461
aS'of'
p2462
aS'pity'
p2463
aS','
p2464
aS'he'
p2465
aS'took'
p2466
aS'the'
p2467
aS'nose'
p2468
aS'off'
p2469
aS'her'
p2470
aS'again'
p2471
aS','
p2472
aS'and'
p2473
aS'even'
p2474
aS'gave'
p2475
aS'her'
p2476
aS'two'
p2477
aS'farthings'
p2478
aS'.'
p2479
asg63
(lp2480
VThen
p2481
aVshe
p2482
ag429
aVout
p2483
aVand
p2484
aVscream
p2485
aVwithout
p2486
aVstopping
p2487
aVtill
p2488
aVshe
p2489
aVmeet
p2490
aVSt.
p2491
aVJoseph
p2492
ag76
aVat
p2493
aVwhose
p2494
aVfoot
p2495
aVshe
p2496
aVfell
p2497
aVand
p2498
aVbeg
p2499
aVuntil
p2500
ag76
aVout
p2501
aVof
p2502
aVpity
p2503
ag76
aVhe
p2504
ag1058
aVthe
p2505
aVnose
p2506
aVoff
p2507
aVher
p2508
aVagain
p2509
ag76
aVand
p2510
aVeven
p2511
ag697
aVher
p2512
aVtwo
p2513
aVfarthing
p2514
ag98
asg99
(lp2515
g101
ag101
ag101
ag101
ag101
ag101
ag101
ag101
ag101
ag101
ag101
ag101
aVPERSON
p2516
ag101
ag101
ag101
ag101
ag101
ag101
ag101
ag101
ag101
ag101
ag101
ag101
ag101
ag101
ag101
ag101
ag101
ag101
ag101
ag101
ag101
ag101
ag101
ag101
ag101
ag101
ag101
ag101
ag101
asg102
(lp2517
g106
ag120
ag105
ag442
ag116
ag105
ag107
ag109
ag107
ag120
ag105
ag372
ag372
ag113
ag107
aS'WP$'
p2518
ag112
ag120
ag105
ag116
ag117
ag107
ag113
ag107
ag107
ag109
ag113
ag120
ag105
ag108
ag109
ag442
ag121
ag109
ag113
ag116
ag106
ag105
ag120
ag111
ag112
ag122
asg123
VThen she ran out and screamed without stopping till she met St. Joseph, at whose feet she fell and begged until, out of pity, he took the nose off her again, and even gave her two farthings.
p2519
sba(i__main__
Sentence
p2520
(dp2521
g17
I48
sg18
(lp2522
S'When'
p2523
aS'she'
p2524
aS'got'
p2525
aS'home'
p2526
aS','
p2527
aS'her'
p2528
aS'mother'
p2529
aS'was'
p2530
aS'standing'
p2531
aS'before'
p2532
aS'the'
p2533
aS'door'
p2534
aS','
p2535
aS'and'
p2536
aS'asked'
p2537
aS','
p2538
aS'what'
p2539
aS'have'
p2540
aS'you'
p2541
aS'had'
p2542
aS'given'
p2543
aS'to'
p2544
aS'you'
p2545
aS'.'
p2546
asg63
(lp2547
VWhen
p2548
aVshe
p2549
ag1157
aVhome
p2550
ag76
aVher
p2551
aVmother
p2552
ag66
aVstand
p2553
aVbefore
p2554
aVthe
p2555
aVdoor
p2556
ag76
aVand
p2557
aVask
p2558
ag76
aVwhat
p2559
aVhave
p2560
aVyou
p2561
ag73
ag766
aVto
p2562
aVyou
p2563
ag98
asg99
(lp2564
g101
ag101
ag101
ag101
ag101
ag101
ag101
ag101
ag101
ag101
ag101
ag101
ag101
ag101
ag101
ag101
ag101
ag101
ag101
ag101
ag101
ag101
ag101
ag101
asg102
(lp2565
g484
ag120
ag105
ag109
ag113
ag121
ag109
ag105
ag441
ag106
ag108
ag109
ag113
ag116
ag105
ag113
ag110
ag115
ag120
ag105
ag117
ag259
ag120
ag122
asg123
VWhen she got home, her mother was standing before the door, and asked, what have you had given to you.
p2566
sba(i__main__
Sentence
p2567
(dp2568
g17
I49
sg18
(lp2569
S'Then'
p2570
aS'she'
p2571
aS'lied'
p2572
aS'and'
p2573
aS'said'
p2574
aS','
p2575
aS'a'
p2576
aS'great'
p2577
aS'bag'
p2578
aS'of'
p2579
aS'money'
p2580
aS','
p2581
aS'but'
p2582
aS'I'
p2583
aS'have'
p2584
aS'lost'
p2585
aS'it'
p2586
aS'on'
p2587
aS'the'
p2588
aS'way'
p2589
aS'.'
p2590
asg63
(lp2591
VThen
p2592
aVshe
p2593
aVlie
p2594
aVand
p2595
ag577
ag76
ag69
aVgreat
p2596
aVbag
p2597
aVof
p2598
aVmoney
p2599
ag76
aVbut
p2600
ag613
aVhave
p2601
aVlose
p2602
aVit
p2603
aVon
p2604
aVthe
p2605
aVway
p2606
ag98
asg99
(lp2607
g101
ag101
ag101
ag101
ag101
ag101
ag101
ag101
ag101
ag101
ag101
ag101
ag101
ag101
ag101
ag101
ag101
ag101
ag101
ag101
ag101
asg102
(lp2608
g106
ag120
ag105
ag116
ag105
ag113
ag108
ag118
ag109
ag107
ag109
ag113
ag116
ag120
ag115
ag117
ag120
ag107
ag108
ag109
ag122
asg123
VThen she lied and said, a great bag of money, but I have lost it on the way.
p2609
sba(i__main__
Sentence
p2610
(dp2611
g17
I50
sg18
(lp2612
S'Lost'
p2613
aS'it'
p2614
aS'.'
p2615
asg63
(lp2616
VLost
p2617
aVit
p2618
ag98
asg99
(lp2619
g101
ag101
ag101
asg102
(lp2620
g372
ag120
ag122
asg123
VLost it.
p2621
sba(i__main__
Sentence
p2622
(dp2623
g17
I51
sg18
(lp2624
S'Cried'
p2625
aS'the'
p2626
aS'mother'
p2627
aS'.'
p2628
asg63
(lp2629
VCried
p2630
aVthe
p2631
aVmother
p2632
ag98
asg99
(lp2633
g101
ag101
ag101
ag101
asg102
(lp2634
g372
ag108
ag109
ag122
asg123
VCried the mother.
p2635
sba(i__main__
Sentence
p2636
(dp2637
g17
I52
sg18
(lp2638
S'Oh'
p2639
aS','
p2640
aS'but'
p2641
aS'we'
p2642
aS'will'
p2643
aS'soon'
p2644
aS'find'
p2645
aS'it'
p2646
aS'again'
p2647
aS','
p2648
aS'and'
p2649
aS'took'
p2650
aS'her'
p2651
aS'by'
p2652
aS'the'
p2653
aS'hand'
p2654
aS','
p2655
aS'and'
p2656
aS'wanted'
p2657
aS'to'
p2658
aS'seek'
p2659
aS'it'
p2660
aS'with'
p2661
aS'her'
p2662
aS'.'
p2663
asg63
(lp2664
VOh
p2665
ag76
aVbut
p2666
aVwe
p2667
aVwill
p2668
aVsoon
p2669
aVfind
p2670
aVit
p2671
aVagain
p2672
ag76
aVand
p2673
ag1058
aVher
p2674
aVby
p2675
aVthe
p2676
aVhand
p2677
ag76
aVand
p2678
aVwant
p2679
aVto
p2680
aVseek
p2681
aVit
p2682
aVwith
p2683
aVher
p2684
ag98
asg99
(lp2685
g101
ag101
ag101
ag101
ag101
ag101
ag101
ag101
ag101
ag101
ag101
ag101
ag101
ag101
ag101
ag101
ag101
ag101
ag101
ag101
ag101
ag101
ag101
ag101
ag101
asg102
(lp2686
S'UH'
p2687
ag113
ag116
ag120
ag181
ag106
ag182
ag120
ag106
ag113
ag116
ag105
ag121
ag107
ag108
ag109
ag113
ag116
ag105
ag259
ag182
ag120
ag107
ag121
ag122
asg123
VOh, but we will soon find it again, and took her by the hand, and wanted to seek it with her.
p2688
sba(i__main__
Sentence
p2689
(dp2690
g17
I53
sg18
(lp2691
S'At'
p2692
aS'first'
p2693
aS'she'
p2694
aS'began'
p2695
aS'to'
p2696
aS'cry'
p2697
aS','
p2698
aS'and'
p2699
aS'did'
p2700
aS'not'
p2701
aS'wish'
p2702
aS'to'
p2703
aS'go'
p2704
aS','
p2705
aS'but'
p2706
aS'at'
p2707
aS'last'
p2708
aS'she'
p2709
aS'went'
p2710
aS'.'
p2711
asg63
(lp2712
VAt
p2713
aVfirst
p2714
aVshe
p2715
ag2387
aVto
p2716
aVcry
p2717
ag76
aVand
p2718
ag297
aVnot
p2719
aVwish
p2720
aVto
p2721
aVgo
p2722
ag76
aVbut
p2723
aVat
p2724
aVlast
p2725
aVshe
p2726
aVgo
p2727
ag98
asg99
(lp2728
g101
ag101
ag101
ag101
ag101
ag101
ag101
ag101
ag101
ag101
ag101
ag101
ag101
ag101
ag101
ag101
ag101
ag101
ag101
ag101
asg102
(lp2729
g107
ag118
ag120
ag105
ag259
ag109
ag113
ag116
ag105
ag106
ag109
ag259
ag182
ag113
ag116
ag107
ag118
ag120
ag105
ag122
asg123
VAt first she began to cry, and did not wish to go, but at last she went.
p2730
sba(i__main__
Sentence
p2731
(dp2732
g17
I54
sg18
(lp2733
S'On'
p2734
aS'the'
p2735
aS'way'
p2736
aS','
p2737
aS'however'
p2738
aS','
p2739
aS'so'
p2740
aS'many'
p2741
aS'lizards'
p2742
aS'and'
p2743
aS'snakes'
p2744
aS'broke'
p2745
aS'loose'
p2746
aS'on'
p2747
aS'both'
p2748
aS'of'
p2749
aS'them'
p2750
aS','
p2751
aS'that'
p2752
aS'they'
p2753
aS'did'
p2754
aS'not'
p2755
aS'know'
p2756
aS'how'
p2757
aS'to'
p2758
aS'save'
p2759
aS'themselves'
p2760
aS'.'
p2761
asg63
(lp2762
VOn
p2763
aVthe
p2764
aVway
p2765
ag76
aVhowever
p2766
ag76
aVso
p2767
aVmany
p2768
aVlizard
p2769
aVand
p2770
aVsnake
p2771
aVbroke
p2772
aVloose
p2773
aVon
p2774
aVboth
p2775
aVof
p2776
aVthem
p2777
ag76
aVthat
p2778
aVthey
p2779
ag297
aVnot
p2780
aVknow
p2781
aVhow
p2782
aVto
p2783
aVsave
p2784
aVthemselves
p2785
ag98
asg99
(lp2786
g101
ag101
ag101
ag101
ag101
ag101
ag101
ag101
ag101
ag101
ag101
ag101
ag101
ag101
ag101
ag101
ag101
ag101
ag101
ag101
ag101
ag101
ag101
ag101
ag101
ag101
ag101
ag101
asg102
(lp2787
g107
ag108
ag109
ag113
ag106
ag113
ag106
ag118
ag112
ag116
ag313
ag109
ag109
ag107
ag108
ag107
ag120
ag113
ag107
ag120
ag105
ag106
ag182
ag484
ag259
ag182
ag120
ag122
asg123
VOn the way, however, so many lizards and snakes broke loose on both of them, that they did not know how to save themselves.
p2788
sba(i__main__
Sentence
p2789
(dp2790
g17
I55
sg18
(lp2791
S'At'
p2792
aS'last'
p2793
aS'they'
p2794
aS'stung'
p2795
aS'the'
p2796
aS'wicked'
p2797
aS'child'
p2798
aS'to'
p2799
aS'death'
p2800
aS','
p2801
aS'and'
p2802
aS'they'
p2803
aS'stung'
p2804
aS'the'
p2805
aS'mother'
p2806
aS'in'
p2807
aS'the'
p2808
aS'foot'
p2809
aS','
p2810
aS'because'
p2811
aS'she'
p2812
aS'had'
p2813
aS'not'
p2814
aS'brought'
p2815
aS'her'
p2816
aS'up'
p2817
aS'better'
p2818
aS'.'
p2819
asg63
(lp2820
VAt
p2821
aVlast
p2822
aVthey
p2823
aVsting
p2824
aVthe
p2825
aVwicked
p2826
aVchild
p2827
aVto
p2828
aVdeath
p2829
ag76
aVand
p2830
aVthey
p2831
ag2824
aVthe
p2832
aVmother
p2833
aVin
p2834
aVthe
p2835
aVfoot
p2836
ag76
aVbecause
p2837
aVshe
p2838
ag73
aVnot
p2839
ag303
aVher
p2840
aVup
p2841
aVgood
p2842
ag98
asg99
(lp2843
g101
ag101
ag101
ag101
ag101
ag101
ag101
ag101
ag101
ag101
ag101
ag101
ag101
ag101
ag101
ag101
ag101
ag101
ag101
ag101
ag101
ag101
ag101
ag101
ag101
ag101
ag101
ag101
asg102
(lp2844
g107
ag118
ag120
ag115
ag108
ag117
ag109
ag259
ag109
ag113
ag116
ag120
ag115
ag108
ag109
ag107
ag108
ag109
ag113
ag107
ag120
ag105
ag106
ag117
ag121
ag442
ag886
ag122
asg123
VAt last they stung the wicked child to death, and they stung the mother in the foot, because she had not brought her up better. 
p2845
sbasbsS'summary'
p2846
g0
(g7
g2
Ntp2847
Rp2848
(dp2849
g11
S"A woman has three daughters. The oldest is wicked, the second oldest not quite as bad as her older sister, and the youngest is very good. The mother dislikes the youngest daughter. She sends the girl away into the woods, hoping she will be lost. The girl reaches the home of St. Joseph. He gives her roots to scrape and use to make dinner. She makes dinner and allows Joseph to eat his fill before she eats. When it is time to sleep, the girl insists that St. Joseph take the bed and she sleep in the straw. The next morning St. Joseph is not there, but has left her a large bag of money which she takes back to her mother. The next day the second eldest daughter decides to go to St. Joseph's house also. After she..."
p2850
sg13
(lp2851
(i__main__
Sentence
p2852
(dp2853
g17
I0
sg18
(lp2854
S'A'
p2855
aS'woman'
p2856
aS'has'
p2857
aS'three'
p2858
aS'daughters'
p2859
aS'.'
p2860
asg63
(lp2861
VA
p2862
aVwoman
p2863
ag296
aVthree
p2864
aVdaughter
p2865
ag98
asg99
(lp2866
g101
ag101
ag101
ag101
ag101
ag101
asg102
(lp2867
g108
ag109
ag313
ag111
ag112
ag122
asg123
VA woman has three daughters.
p2868
sba(i__main__
Sentence
p2869
(dp2870
g17
I1
sg18
(lp2871
S'The'
p2872
aS'oldest'
p2873
aS'is'
p2874
aS'wicked'
p2875
aS','
p2876
aS'the'
p2877
aS'second'
p2878
aS'oldest'
p2879
aS'not'
p2880
aS'quite'
p2881
aS'as'
p2882
aS'bad'
p2883
aS'as'
p2884
aS'her'
p2885
aS'older'
p2886
aS'sister'
p2887
aS','
p2888
aS'and'
p2889
aS'the'
p2890
aS'youngest'
p2891
aS'is'
p2892
aS'very'
p2893
aS'good'
p2894
aS'.'
p2895
asg63
(lp2896
VThe
p2897
aVold
p2898
ag1014
aVwicked
p2899
ag76
aVthe
p2900
aVsecond
p2901
aVoldest
p2902
aVnot
p2903
aVquite
p2904
ag69
aVbad
p2905
ag69
aVher
p2906
aVolder
p2907
aVsister
p2908
ag76
aVand
p2909
aVthe
p2910
aVyoungest
p2911
ag1014
aVvery
p2912
aVgood
p2913
ag98
asg99
(lp2914
g101
ag101
ag101
ag101
ag101
ag101
ag101
ag101
ag101
ag101
ag101
ag101
ag101
ag101
ag101
ag101
ag101
ag101
ag101
ag101
ag101
ag101
ag101
ag101
asg102
(lp2915
g108
ag114
ag313
ag117
ag113
ag108
ag118
ag109
ag106
ag106
ag107
ag118
ag107
ag121
ag109
ag109
ag113
ag116
ag108
ag109
ag313
ag106
ag118
ag122
asg123
VThe oldest is wicked, the second oldest not quite as bad as her older sister, and the youngest is very good.
p2916
sba(i__main__
Sentence
p2917
(dp2918
g17
I2
sg18
(lp2919
S'The'
p2920
aS'mother'
p2921
aS'dislikes'
p2922
aS'the'
p2923
aS'youngest'
p2924
aS'daughter'
p2925
aS'.'
p2926
asg63
(lp2927
VThe
p2928
aVmother
p2929
aVdislike
p2930
aVthe
p2931
ag94
aVdaughter
p2932
ag98
asg99
(lp2933
g101
ag101
ag101
ag101
ag101
ag101
ag101
asg102
(lp2934
g108
ag109
ag313
ag108
ag114
ag109
ag122
asg123
VThe mother dislikes the youngest daughter.
p2935
sba(i__main__
Sentence
p2936
(dp2937
g17
I3
sg18
(lp2938
S'She'
p2939
aS'sends'
p2940
aS'the'
p2941
aS'girl'
p2942
aS'away'
p2943
aS'into'
p2944
aS'the'
p2945
aS'woods'
p2946
aS','
p2947
aS'hoping'
p2948
aS'she'
p2949
aS'will'
p2950
aS'be'
p2951
aS'lost'
p2952
aS'.'
p2953
asg63
(lp2954
VShe
p2955
aVsend
p2956
aVthe
p2957
aVgirl
p2958
aVaway
p2959
aVinto
p2960
aVthe
p2961
aVwood
p2962
ag76
aVhop
p2963
aVshe
p2964
aVwill
p2965
aVbe
p2966
ag2602
ag98
asg99
(lp2967
g101
ag101
ag101
ag101
ag101
ag101
ag101
ag101
ag101
ag101
ag101
ag101
ag101
ag101
ag101
asg102
(lp2968
g120
ag313
ag108
ag109
ag106
ag107
ag108
ag112
ag113
ag441
ag120
ag181
ag182
ag117
ag122
asg123
VShe sends the girl away into the woods, hoping she will be lost.
p2969
sba(i__main__
Sentence
p2970
(dp2971
g17
I4
sg18
(lp2972
S'The'
p2973
aS'girl'
p2974
aS'reaches'
p2975
aS'the'
p2976
aS'home'
p2977
aS'of'
p2978
aS'St.'
p2979
aS'Joseph'
p2980
aS'.'
p2981
asg63
(lp2982
VThe
p2983
aVgirl
p2984
aVreach
p2985
aVthe
p2986
aVhome
p2987
aVof
p2988
aVSt.
p2989
aVJoseph
p2990
ag98
asg99
(lp2991
g101
ag101
ag101
ag101
ag101
ag101
ag101
aVPERSON
p2992
ag101
asg102
(lp2993
g108
ag109
ag313
ag108
ag109
ag107
ag372
ag372
ag122
asg123
VThe girl reaches the home of St. Joseph.
p2994
sba(i__main__
Sentence
p2995
(dp2996
g17
I5
sg18
(lp2997
S'He'
p2998
aS'gives'
p2999
aS'her'
p3000
aS'roots'
p3001
aS'to'
p3002
aS'scrape'
p3003
aS'and'
p3004
aS'use'
p3005
aS'to'
p3006
aS'make'
p3007
aS'dinner'
p3008
aS'.'
p3009
asg63
(lp3010
VHe
p3011
aVgive
p3012
aVher
p3013
aVroot
p3014
aVto
p3015
aVscrape
p3016
aVand
p3017
aVuse
p3018
aVto
p3019
aVmake
p3020
aVdinner
p3021
ag98
asg99
(lp3022
g101
ag101
ag101
ag101
ag101
ag101
ag101
ag101
ag101
ag101
ag101
ag101
asg102
(lp3023
g120
ag313
ag120
ag313
ag259
ag109
ag116
ag115
ag259
ag182
ag109
ag122
asg123
VHe gives her roots to scrape and use to make dinner.
p3024
sba(i__main__
Sentence
p3025
(dp3026
g17
I6
sg18
(lp3027
S'She'
p3028
aS'makes'
p3029
aS'dinner'
p3030
aS'and'
p3031
aS'allows'
p3032
aS'Joseph'
p3033
aS'to'
p3034
aS'eat'
p3035
aS'his'
p3036
aS'fill'
p3037
aS'before'
p3038
aS'she'
p3039
aS'eats'
p3040
aS'.'
p3041
asg63
(lp3042
VShe
p3043
aVmake
p3044
aVdinner
p3045
aVand
p3046
aVallow
p3047
aVJoseph
p3048
aVto
p3049
aVeat
p3050
aVhis
p3051
aVfill
p3052
aVbefore
p3053
aVshe
p3054
aVeat
p3055
ag98
asg99
(lp3056
g101
ag101
ag101
ag101
ag101
aVPERSON
p3057
ag101
ag101
ag101
ag101
ag101
ag101
ag101
ag101
asg102
(lp3058
g120
ag313
ag109
ag116
ag313
ag372
ag259
ag182
ag121
ag109
ag107
ag120
ag313
ag122
asg123
VShe makes dinner and allows Joseph to eat his fill before she eats.
p3059
sba(i__main__
Sentence
p3060
(dp3061
g17
I7
sg18
(lp3062
S'When'
p3063
aS'it'
p3064
aS'is'
p3065
aS'time'
p3066
aS'to'
p3067
aS'sleep'
p3068
aS','
p3069
aS'the'
p3070
aS'girl'
p3071
aS'insists'
p3072
aS'that'
p3073
aS'St.'
p3074
aS'Joseph'
p3075
aS'take'
p3076
aS'the'
p3077
aS'bed'
p3078
aS'and'
p3079
aS'she'
p3080
aS'sleep'
p3081
aS'in'
p3082
aS'the'
p3083
aS'straw'
p3084
aS'.'
p3085
asg63
(lp3086
VWhen
p3087
aVit
p3088
ag1014
aVtime
p3089
aVto
p3090
aVsleep
p3091
ag76
aVthe
p3092
aVgirl
p3093
aVinsist
p3094
aVthat
p3095
aVSt.
p3096
aVJoseph
p3097
aVtake
p3098
aVthe
p3099
aVbed
p3100
aVand
p3101
aVshe
p3102
aVsleep
p3103
aVin
p3104
aVthe
p3105
aVstraw
p3106
ag98
asg99
(lp3107
g101
ag101
ag101
ag101
ag101
ag101
ag101
ag101
ag101
ag101
ag101
ag101
aVPERSON
p3108
ag101
ag101
ag101
ag101
ag101
ag101
ag101
ag101
ag101
ag101
asg102
(lp3109
g484
ag120
ag313
ag109
ag259
ag182
ag113
ag108
ag109
ag313
ag107
ag372
ag372
ag182
ag108
ag117
ag116
ag120
ag182
ag107
ag108
ag109
ag122
asg123
VWhen it is time to sleep, the girl insists that St. Joseph take the bed and she sleep in the straw.
p3110
sba(i__main__
Sentence
p3111
(dp3112
g17
I8
sg18
(lp3113
S'The'
p3114
aS'next'
p3115
aS'morning'
p3116
aS'St.'
p3117
aS'Joseph'
p3118
aS'is'
p3119
aS'not'
p3120
aS'there'
p3121
aS','
p3122
aS'but'
p3123
aS'has'
p3124
aS'left'
p3125
aS'her'
p3126
aS'a'
p3127
aS'large'
p3128
aS'bag'
p3129
aS'of'
p3130
aS'money'
p3131
aS'which'
p3132
aS'she'
p3133
aS'takes'
p3134
aS'back'
p3135
aS'to'
p3136
aS'her'
p3137
aS'mother'
p3138
aS'.'
p3139
asg63
(lp3140
VThe
p3141
aVnext
p3142
aVmorning
p3143
aVSt.
p3144
aVJoseph
p3145
ag1014
aVnot
p3146
aVthere
p3147
ag76
aVbut
p3148
ag296
ag2026
aVher
p3149
ag69
aVlarge
p3150
aVbag
p3151
aVof
p3152
aVmoney
p3153
aVwhich
p3154
aVshe
p3155
aVtake
p3156
aVback
p3157
aVto
p3158
aVher
p3159
aVmother
p3160
ag98
asg99
(lp3161
g101
ag101
ag101
ag101
aVPERSON
p3162
ag101
ag101
ag101
ag101
ag101
ag101
ag101
ag101
ag101
ag101
ag101
ag101
ag101
ag101
ag101
ag101
ag101
ag101
ag101
ag101
ag101
asg102
(lp3163
g108
ag118
ag109
ag372
ag372
ag313
ag106
ag106
ag113
ag116
ag313
ag117
ag121
ag108
ag118
ag109
ag107
ag109
ag312
ag120
ag313
ag106
ag259
ag121
ag109
ag122
asg123
VThe next morning St. Joseph is not there, but has left her a large bag of money which she takes back to her mother.
p3164
sba(i__main__
Sentence
p3165
(dp3166
g17
I9
sg18
(lp3167
S'The'
p3168
aS'next'
p3169
aS'day'
p3170
aS'the'
p3171
aS'second'
p3172
aS'eldest'
p3173
aS'daughter'
p3174
aS'decides'
p3175
aS'to'
p3176
aS'go'
p3177
aS'to'
p3178
aS'St.'
p3179
aS'Joseph'
p3180
aS"'s"
p3181
aS'house'
p3182
aS'also'
p3183
aS'.'
p3184
asg63
(lp3185
VThe
p3186
aVnext
p3187
aVday
p3188
aVthe
p3189
aVsecond
p3190
aVeldest
p3191
aVdaughter
p3192
aVdecide
p3193
aVto
p3194
aVgo
p3195
aVto
p3196
aVSt.
p3197
aVJoseph
p3198
aV's
p3199
aVhouse
p3200
aValso
p3201
ag98
asg99
(lp3202
g101
ag101
ag101
ag101
ag101
ag101
ag101
ag101
ag101
ag101
ag101
aVORGANIZATION
p3203
aVORGANIZATION
p3204
aVORGANIZATION
p3205
aVORGANIZATION
p3206
ag101
ag101
asg102
(lp3207
g108
ag118
ag109
ag108
ag118
ag109
ag109
ag313
ag259
ag182
ag259
ag372
ag372
ag887
ag109
ag106
ag122
asg123
VThe next day the second eldest daughter decides to go to St. Joseph's house also.
p3208
sba(i__main__
Sentence
p3209
(dp3210
g17
I10
sg18
(lp3211
S'After'
p3212
aS'she'
p3213
aS'...'
p3214
asg63
(lp3215
VAfter
p3216
aVshe
p3217
aV...
p3218
asg99
(lp3219
g101
ag101
ag101
asg102
(lp3220
g107
ag120
ag1908
asg123
VAfter she...
p3221
sbasbsS'name'
p3222
S'St. Joseph in the Forest'
p3223
sS'summaries'
p3224
(lp3225
g2848
asb.