ccopy_reg
_reconstructor
p0
(c__main__
Story
p1
c__builtin__
object
p2
Ntp3
Rp4
(dp5
S'text'
p6
g0
(c__main__
Document
p7
g2
Ntp8
Rp9
(dp10
S'_Document__initialContent'
p11
S"A girl from brakel once went to St. Anne's chapel at the foot\nof the hinnenberg, and as she wanted to have a husband, and\nthought there was no one else in the chapel, she sang,\n               oh, holy saint anne.\n               Help me soon to a man.\n               Thou know'st him right well,\n               by suttmer gate does he dwell,\n               his hair it is yellow,\n               thou know'st him right well.\nThe clerk, however, was standing behind the altar and heard\nthat, so he cried in a very gruff voice, you shall not have him.\nYou shall not have him.\nThe maiden thought that the child mary who stood by her mother\nanne had called out that to her, and was angry, and cried,\nfiddle de dee, conceited thing, hold your tongue, and let your\nmother speak.\n"
p12
sS'sentences'
p13
(lp14
(i__main__
Sentence
p15
(dp16
S'index'
p17
I0
sS'words'
p18
(lp19
S'A'
p20
aS'girl'
p21
aS'from'
p22
aS'brakel'
p23
aS'once'
p24
aS'went'
p25
aS'to'
p26
aS'St.'
p27
aS'Anne'
p28
aS"'s"
p29
aS'chapel'
p30
aS'at'
p31
aS'the'
p32
aS'foot'
p33
aS'of'
p34
aS'the'
p35
aS'hinnenberg'
p36
aS','
p37
aS'and'
p38
aS'as'
p39
aS'she'
p40
aS'wanted'
p41
aS'to'
p42
aS'have'
p43
aS'a'
p44
aS'husband'
p45
aS','
p46
aS'and'
p47
aS'thought'
p48
aS'there'
p49
aS'was'
p50
aS'no'
p51
aS'one'
p52
aS'else'
p53
aS'in'
p54
aS'the'
p55
aS'chapel'
p56
aS','
p57
aS'she'
p58
aS'sang'
p59
aS','
p60
aS'oh'
p61
aS','
p62
aS'holy'
p63
aS'saint'
p64
aS'anne'
p65
aS'.'
p66
asS'lemmas'
p67
(lp68
VA
p69
aVgirl
p70
aVfrom
p71
aVbrakel
p72
aVonce
p73
aVgo
p74
aVto
p75
aVSt.
p76
aVAnne
p77
aV's
p78
aVchapel
p79
aVat
p80
aVthe
p81
aVfoot
p82
aVof
p83
aVthe
p84
aVhinnenberg
p85
aV,
p86
aVand
p87
aVa
p88
aVshe
p89
aVwant
p90
aVto
p91
aVhave
p92
ag88
aVhusband
p93
ag86
aVand
p94
aVthink
p95
aVthere
p96
aVbe
p97
aVno
p98
aVone
p99
aVelse
p100
aVin
p101
aVthe
p102
aVchapel
p103
ag86
aVshe
p104
aVsing
p105
ag86
aVoh
p106
ag86
aVholy
p107
aVsaint
p108
aVanne
p109
aV.
p110
asS'nerTags'
p111
(lp112
VO
p113
ag113
ag113
ag113
ag113
ag113
ag113
aVPERSON
p114
aVPERSON
p115
ag113
ag113
ag113
ag113
ag113
ag113
ag113
ag113
ag113
ag113
ag113
ag113
ag113
ag113
ag113
ag113
ag113
ag113
ag113
ag113
ag113
ag113
ag113
ag113
ag113
ag113
ag113
ag113
ag113
ag113
ag113
ag113
ag113
ag113
ag113
ag113
ag113
ag113
asS'posTags'
p116
(lp117
S'DT'
p118
aS'NN'
p119
aS'IN'
p120
ag119
aS'RB'
p121
aS'VBD'
p122
aS'TO'
p123
aS'NNP'
p124
ag124
aS'POS'
p125
ag119
ag120
ag118
ag119
ag120
ag118
ag119
aS','
p126
aS'CC'
p127
ag120
aS'PRP'
p128
ag122
ag123
aS'VB'
p129
ag118
ag119
ag126
ag127
ag122
ag121
ag122
ag118
ag119
ag119
ag120
ag118
ag119
ag126
ag128
ag122
ag126
ag119
ag126
ag121
aS'JJ'
p130
ag119
aS'.'
p131
asS'_Sentence__initialContent'
p132
VA girl from brakel once went to St. Anne's chapel at the foot of the hinnenberg, and as she wanted to have a husband, and thought there was no one else in the chapel, she sang,                oh, holy saint anne.
p133
sba(i__main__
Sentence
p134
(dp135
g17
I1
sg18
(lp136
S'Help'
p137
aS'me'
p138
aS'soon'
p139
aS'to'
p140
aS'a'
p141
aS'man'
p142
aS'.'
p143
asg67
(lp144
VHelp
p145
aVme
p146
aVsoon
p147
aVto
p148
ag88
aVman
p149
ag110
asg111
(lp150
g113
ag113
ag113
ag113
ag113
ag113
ag113
asg116
(lp151
g124
ag128
ag121
ag123
ag118
ag119
ag131
asg132
VHelp me soon to a man.
p152
sba(i__main__
Sentence
p153
(dp154
g17
I2
sg18
(lp155
S'Thou'
p156
aS"know'st"
p157
aS'him'
p158
aS'right'
p159
aS'well'
p160
aS','
p161
aS'by'
p162
aS'suttmer'
p163
aS'gate'
p164
aS'does'
p165
aS'he'
p166
aS'dwell'
p167
aS','
p168
aS'his'
p169
aS'hair'
p170
aS'it'
p171
aS'is'
p172
aS'yellow'
p173
aS','
p174
aS'thou'
p175
aS"know'st"
p176
aS'him'
p177
aS'right'
p178
aS'well'
p179
aS'.'
p180
asg67
(lp181
VThou
p182
aVknow'st
p183
aVhim
p184
aVright
p185
aVwell
p186
ag86
aVby
p187
aVsuttmer
p188
aVgate
p189
aVdo
p190
aVhe
p191
aVdwell
p192
ag86
aVhis
p193
aVhair
p194
aVit
p195
aVbe
p196
aVyellow
p197
ag86
aVthou
p198
aVknow'st
p199
aVhim
p200
aVright
p201
aVwell
p202
ag110
asg111
(lp203
g113
ag113
ag113
ag113
ag113
ag113
ag113
ag113
ag113
ag113
ag113
ag113
ag113
ag113
ag113
ag113
ag113
ag113
ag113
ag113
ag113
ag113
ag113
ag113
ag113
asg116
(lp204
g124
ag130
ag128
ag121
ag121
ag126
ag120
ag119
ag119
aS'VBZ'
p205
ag128
ag121
ag126
aS'PRP$'
p206
ag119
ag128
ag205
ag130
ag126
ag128
ag130
ag128
ag121
ag121
ag131
asg132
VThou know'st him right well,                by suttmer gate does he dwell,                his hair it is yellow,                thou know'st him right well.
p207
sba(i__main__
Sentence
p208
(dp209
g17
I3
sg18
(lp210
S'The'
p211
aS'clerk'
p212
aS','
p213
aS'however'
p214
aS','
p215
aS'was'
p216
aS'standing'
p217
aS'behind'
p218
aS'the'
p219
aS'altar'
p220
aS'and'
p221
aS'heard'
p222
aS'that'
p223
aS','
p224
aS'so'
p225
aS'he'
p226
aS'cried'
p227
aS'in'
p228
aS'a'
p229
aS'very'
p230
aS'gruff'
p231
aS'voice'
p232
aS','
p233
aS'you'
p234
aS'shall'
p235
aS'not'
p236
aS'have'
p237
aS'him'
p238
aS'.'
p239
asg67
(lp240
VThe
p241
aVclerk
p242
ag86
aVhowever
p243
ag86
ag97
aVstand
p244
aVbehind
p245
aVthe
p246
aValtar
p247
aVand
p248
aVheard
p249
aVthat
p250
ag86
aVso
p251
aVhe
p252
aVcry
p253
aVin
p254
ag88
aVvery
p255
aVgruff
p256
aVvoice
p257
ag86
aVyou
p258
aVshall
p259
aVnot
p260
aVhave
p261
aVhim
p262
ag110
asg111
(lp263
g113
ag113
ag113
ag113
ag113
ag113
ag113
ag113
ag113
ag113
ag113
ag113
ag113
ag113
ag113
ag113
ag113
ag113
ag113
ag113
ag113
ag113
ag113
ag113
ag113
ag113
ag113
ag113
ag113
asg116
(lp264
g118
ag119
ag126
ag121
ag126
ag122
aS'VBG'
p265
ag120
ag118
ag119
ag127
ag119
ag120
ag126
ag121
ag128
ag122
ag120
ag118
ag121
ag119
ag119
ag126
ag128
aS'MD'
p266
ag121
ag129
ag128
ag131
asg132
VThe clerk, however, was standing behind the altar and heard that, so he cried in a very gruff voice, you shall not have him.
p267
sba(i__main__
Sentence
p268
(dp269
g17
I4
sg18
(lp270
S'You'
p271
aS'shall'
p272
aS'not'
p273
aS'have'
p274
aS'him'
p275
aS'.'
p276
asg67
(lp277
VYou
p278
aVshall
p279
aVnot
p280
aVhave
p281
aVhim
p282
ag110
asg111
(lp283
g113
ag113
ag113
ag113
ag113
ag113
asg116
(lp284
g128
ag266
ag121
ag129
ag128
ag131
asg132
VYou shall not have him.
p285
sba(i__main__
Sentence
p286
(dp287
g17
I5
sg18
(lp288
S'The'
p289
aS'maiden'
p290
aS'thought'
p291
aS'that'
p292
aS'the'
p293
aS'child'
p294
aS'mary'
p295
aS'who'
p296
aS'stood'
p297
aS'by'
p298
aS'her'
p299
aS'mother'
p300
aS'anne'
p301
aS'had'
p302
aS'called'
p303
aS'out'
p304
aS'that'
p305
aS'to'
p306
aS'her'
p307
aS','
p308
aS'and'
p309
aS'was'
p310
aS'angry'
p311
aS','
p312
aS'and'
p313
aS'cried'
p314
aS','
p315
aS'fiddle'
p316
aS'de'
p317
aS'dee'
p318
aS','
p319
aS'conceited'
p320
aS'thing'
p321
aS','
p322
aS'hold'
p323
aS'your'
p324
aS'tongue'
p325
aS','
p326
aS'and'
p327
aS'let'
p328
aS'your'
p329
aS'mother'
p330
aS'speak'
p331
aS'.'
p332
asg67
(lp333
VThe
p334
aVmaiden
p335
aVthought
p336
aVthat
p337
aVthe
p338
aVchild
p339
aVmary
p340
aVwho
p341
aVstood
p342
aVby
p343
aVher
p344
aVmother
p345
aVanne
p346
aVhave
p347
aVcall
p348
aVout
p349
aVthat
p350
aVto
p351
aVher
p352
ag86
aVand
p353
ag97
aVangry
p354
ag86
aVand
p355
ag253
ag86
aVfiddle
p356
aVde
p357
aVdee
p358
ag86
aVconceited
p359
aVthing
p360
ag86
aVhold
p361
aVyour
p362
aVtongue
p363
ag86
aVand
p364
aVlet
p365
aVyour
p366
aVmother
p367
aVspeak
p368
ag110
asg111
(lp369
g113
ag113
ag113
ag113
ag113
ag113
ag113
ag113
ag113
ag113
ag113
ag113
aVPERSON
p370
ag113
ag113
ag113
ag113
ag113
ag113
ag113
ag113
ag113
ag113
ag113
ag113
ag113
ag113
ag113
ag113
ag113
ag113
ag113
ag113
ag113
ag113
ag113
ag113
ag113
ag113
ag113
ag113
ag113
ag113
ag113
asg116
(lp371
g118
aS'VBN'
p372
ag119
ag120
ag118
ag119
ag119
aS'WP'
p373
ag119
ag120
ag206
ag119
ag119
ag122
ag372
aS'RP'
p374
ag120
ag123
ag206
ag126
ag127
ag122
ag130
ag126
ag127
ag122
ag126
ag119
ag120
ag119
ag126
ag122
ag119
ag126
ag122
ag206
ag119
ag126
ag127
ag129
ag206
ag119
ag119
ag131
asg132
VThe maiden thought that the child mary who stood by her mother anne had called out that to her, and was angry, and cried, fiddle de dee, conceited thing, hold your tongue, and let your mother speak. 
p375
sbasbsS'summary'
p376
g0
(g7
g2
Ntp377
Rp378
(dp379
g11
S"A maiden begs St. Anne to help her find a husband. A clerk replies the maiden will not have a husband. The maiden believes the statue of Anne's child Mary has said this and tells her to hush and let her mother talk."
p380
sg13
(lp381
(i__main__
Sentence
p382
(dp383
g17
I0
sg18
(lp384
S'A'
p385
aS'maiden'
p386
aS'begs'
p387
aS'St.'
p388
aS'Anne'
p389
aS'to'
p390
aS'help'
p391
aS'her'
p392
aS'find'
p393
aS'a'
p394
aS'husband'
p395
aS'.'
p396
asg67
(lp397
g69
aVmaiden
p398
aVbegs
p399
aVSt.
p400
aVAnne
p401
aVto
p402
aVhelp
p403
aVher
p404
aVfind
p405
ag88
aVhusband
p406
ag110
asg111
(lp407
g113
ag113
ag113
aVPERSON
p408
aVPERSON
p409
ag113
ag113
ag113
ag113
ag113
ag113
ag113
asg116
(lp410
g118
ag372
aS'NNS'
p411
ag124
ag124
ag123
ag129
ag206
ag119
ag118
ag119
ag131
asg132
VA maiden begs St. Anne to help her find a husband.
p412
sba(i__main__
Sentence
p413
(dp414
g17
I1
sg18
(lp415
S'A'
p416
aS'clerk'
p417
aS'replies'
p418
aS'the'
p419
aS'maiden'
p420
aS'will'
p421
aS'not'
p422
aS'have'
p423
aS'a'
p424
aS'husband'
p425
aS'.'
p426
asg67
(lp427
g69
aVclerk
p428
aVreply
p429
aVthe
p430
aVmaiden
p431
aVwill
p432
aVnot
p433
aVhave
p434
ag88
aVhusband
p435
ag110
asg111
(lp436
g113
ag113
ag113
ag113
ag113
ag113
ag113
ag113
ag113
ag113
ag113
asg116
(lp437
g118
ag119
ag205
ag118
ag119
ag266
ag121
ag129
ag118
ag119
ag131
asg132
VA clerk replies the maiden will not have a husband.
p438
sba(i__main__
Sentence
p439
(dp440
g17
I2
sg18
(lp441
S'The'
p442
aS'maiden'
p443
aS'believes'
p444
aS'the'
p445
aS'statue'
p446
aS'of'
p447
aS'Anne'
p448
aS"'s"
p449
aS'child'
p450
aS'Mary'
p451
aS'has'
p452
aS'said'
p453
aS'this'
p454
aS'and'
p455
aS'tells'
p456
aS'her'
p457
aS'to'
p458
aS'hush'
p459
aS'and'
p460
aS'let'
p461
aS'her'
p462
aS'mother'
p463
aS'talk'
p464
aS'.'
p465
asg67
(lp466
VThe
p467
aVmaiden
p468
aVbelief
p469
aVthe
p470
aVstatue
p471
aVof
p472
aVAnne
p473
aV's
p474
aVchild
p475
aVMary
p476
aVhave
p477
aVsay
p478
aVthis
p479
aVand
p480
aVtell
p481
aVher
p482
aVto
p483
aVhush
p484
aVand
p485
aVlet
p486
aVher
p487
aVmother
p488
aVtalk
p489
ag110
asg111
(lp490
g113
ag113
ag113
ag113
ag113
ag113
aVPERSON
p491
ag113
ag113
aVPERSON
p492
ag113
ag113
ag113
ag113
ag113
ag113
ag113
ag113
ag113
ag113
ag113
ag113
ag113
ag113
asg116
(lp493
g118
ag372
ag411
ag118
ag119
ag120
ag124
ag125
ag119
ag124
ag205
ag122
ag118
ag127
ag205
ag206
ag123
ag129
ag127
ag129
ag206
ag119
ag119
ag131
asg132
VThe maiden believes the statue of Anne's child Mary has said this and tells her to hush and let her mother talk.
p494
sbasbsS'name'
p495
S'The Maid of Brakel'
p496
sS'summaries'
p497
(lp498
g378
asb.