ccopy_reg
_reconstructor
p0
(c__main__
Story
p1
c__builtin__
object
p2
Ntp3
Rp4
(dp5
S'text'
p6
g0
(c__main__
Document
p7
g2
Ntp8
Rp9
(dp10
S'_Document__initialContent'
p11
S"Hard by a great forest dwelt a wood-cutter with his wife, who had an\nonly child, a little girl three years old.  They were so poor,\nhowever, that they no longer had daily bread, and did not know how to\nget food for her.  One morning the wood-cutter went out sorrowfully\nto his work in the forest, and while he was cutting wood, suddenly\nthere stood before him a tall and beautiful woman with a crown of\nshining stars on her head, who said to him 'I am the virgin mary,\nmother of the child jesus. You are poor and needy, bring your child\nto me, I will take her with me and be her mother, and care for her.'\nThe wood-cutter obeyed, brought his child, and gave her to the virgin\nmary, who took her up to heaven with her.  There the child fared\nwell, ate sugar-cakes, and drank sweet milk, and her clothes were of\ngold, and the little angels played with her.  And when she was\nfourteen years of age, the virgin mary called her one day and said\n'dear child, I am about to make a long journey, so take into your\nkeeping the keys of the thirteen doors of heaven.  Twelve of these\nyou may open, and behold the glory which is within them, but the\nthirteenth, to which this little key belongs, is forbidden you.  Take\ncare not to open it, or you will be unhappy.' The girl promised to be\nobedient, and when the virgin mary was gone, she began to examine the\ndwellings of the kingdom of heaven.  Each day she opened one of them,\nuntil she had made the round of the twelve. In each of them sat one\nof the apostles in the midst of a great light, and she rejoiced in\nall the magnificence and splendor, and the little angels who always\naccompanied her rejoiced with her. Then the forbidden door alone\nremained, and she felt a great desire to know what could be hidden\nbehind it, and said to the angels 'I will not open it entirely, and I\nwill not go inside, but I will unlock it so that we can see just a\nlittle through the opening.' 'Oh'no,  said the little angels,  'that\nwould be a sin.  The virgin mary has forbidden it, and it might\neasily cause your unhappiness.' Then she was silent, but the desire\nin her heart was not stilled, but gnawed there and tormented her, and\nlet her have no rest.  And once when the angels had all gone out, she\nthought 'now I am quite alone, and I could peep in.  If I do, no one\nwill ever know.' She sought out the key, and when she had got it in\nher hand, she put it in the lock, and when she had put it in, she\nturned it round as well.  Then the door sprang open, and she saw\nthere the trinity sitting in fire and splendor.  She stayed there\nawhile, and looked at everything in amazement, then she touched the\nlight a little with her finger, and her finger became quite golden.\nImmediately a great fear fell on her.  She shut the door violently,\nand ran hi there.  But her terror would not quit her, let her do what she\n'Yes,  said the girl, for the second time. Then she perceived the\nfinger which had become golden from touching the fire of heaven, and\nsaw well that the child had sinned, and said for the third time 'have\nyou not done it.' 'No,  said the girl for the third time.  Then said\nthe virgin mary 'you have not obeyed me, and besides that you have\nlied, you are no longer worthy to be in heaven.' Then the girl fell\ninto a deep sleep, and when she awoke she lay on the earth below, and\nin the midst of a wilderness.  She wanted to cry out, but she could\nbring forth no sound.  She sprang up and wanted to run away, but\nwhithersoever she turned herself, she was continually held back by\nthick hedges of thorns through which she could not break.  In the\ndesert, in which she was imprisoned, there stood an old hollow tree,\nand this had to be her dwelling-place.  Into this she crept when\nnight came, and here she slept.  Here, too, she found a shelter from\nmight, and her heart beat continually and would not be still, the gold too\nstayed on her finger, and  would not go away, let  her rub it and wash  it\nnever so much. It was not long  before the virgin mary came back from  her\njourney.  She called the girl  before her, and asked  to have the keys  of\nheaven back.  When the maiden gave  her the bunch, the virgin looked  into\nher eyes and said 'have you not opened the thirteenth door also.' 'No, she\nreplied.  Then she laid her hand on the girl's heart, and felt how it beat\nand beat, and  saw right well  that she  had disobeyed her  order and  had\nopened the door.  Then she said once again 'are you certain that you  have\nnot done it.'\nstorm and rain, but it was a miserable life, and bitterly did she\nweep when she remembered how happy she had been in heaven, and how\nthe angels had played with her.  Roots and wild berries were her only\nfood, and for these she sought as far as she could go.  In the autumn\nshe picked up the fallen nuts and leaves, and carried them into the\nhole.  The nuts were her food in winter, and when snow and ice came,\nshe crept amongst the leaves like a poor little animal that she might\nnot freeze.  Before long her clothes were all torn, and one bit of\nthem after another fell off her.  As soon, however, as the sun shone\nwarm again, she went out and sat in front of the tree, and her long\nhair covered her on all sides like a mantle.  Thus she sat year after\nyear, and felt the pain and the misery of the world. One day, when\nthe trees were once more clothed in fresh green, the king of the\ncountry was hunting in the forest, and followed a roe, and as it had\nfled into the thicket which shut in this part of the forest, he got\noff his horse, tore the bushes asunder, and cut himself a path with\nhis sword.  When he had at last forced his way through, he saw a\nwonderfully beautiful maiden sitting under the tree, and she sat\nthere and was entirely covered with her golden hair down to her very\nfeet. He stood still and looked at her full of surprise, then he\nspoke to her and said 'who are you.  Why are you sitting here in the\nwilderness.' But she gave no answer, for she could not open her\nmouth.  The king continued 'will you go with me to my castle.  Then\nshe just nodded her head a little.  The king took her in his arms,\ncarried her to his horse, and rode home with her, and when he reached\nthe royal castle he caused her to be dressed in beautiful garments,\nand gave her all things in abundance.  Although she could not speak,\nshe was still so beautiful and charming that he began to love her\nwith all his heart, and it was not long before he married her. After\na year or so had passed, the queen brought a son into the world.\nThereupon the virgin mary appeared to her in the night when she lay\nin her bed alone, and said 'if you will tell the truth and confess\nthat you did unlock the forbidden door, I will open your mouth and\ngive you back your speech, but if you persevere in your sin, and deny\nobstinately, I will take your new-born child away with me.' The the\nqueen was permitted to answer, but she remained hard, and said 'no, I\ndid not open the forbidden door, and the virgin mary took the\nnew-born child from her arms, and vanished with it.  Next morning\nwhen the child was not to be found, it was whispered among the people\nthat the queen was a man-eater, and had put her own child to death.\nShe heard all this and could say nothing to the contrary, but the\nking would not believe it, for he loved her so much. When a year had\ngone by the queen again bore a son, and in the night the virgin mary\nagain came to her, and said 'if you will confess that you opened the\nforbidden door, I will give you your child back and untie your tongue\nbut if you continue in sin and deny it, I will take away with me this\nnew child also.' Then the queen again said 'no, I did not open the\nforbidden door.' And the virgin took the child out of her arms, and\naway with her to heaven.  Next morning, when this child also had\ndisappeared, the people declared quite loudly that the queen had\ndevoured it, and the king's councillors demanded that she should be\nbrought to justice.  The king however, loved her so dearly that he\nwould not believe it, and commanded the councillors under pain of\ndeath not to say any more about it. The following year the queen gave\nbirth to a beautiful little daughter, and for the third time the\nvirgin mary appeared to her in the night and said 'follow me.' She\ntook the queen by the hand and led her to heaven, and showed her\nthere her two eldest children, who smiled at her, and were playing\nwith the ball of the world.  When the queen rejoiced thereat, the\nvirgin mary said 'is your heart not yet softened.  If you will own\nthat you opened the forbidden door, I will give you back your two\nlittle sons.' But for the third time the queen answered 'no, I did\nnot open the forbidden door.' Then the virgin let her sink down to\nearth once more, and took from her likewise her third child.\n\nNext morning, when the loss was reported abroad, all the people cried\nloudly 'the queen is a man-eater.  She must be judged, and the king\nwas no longer able to restrain his councillors. Thereupon a trial was\nheld, and as she could not answer, and defend herself, she was\ncondemned to be burnt at the stake. The wood was got together, and\nwhen she was fast bound to the stake, and the fire began to burn\nround about her, the hard ice of pride melted, her heart was moved by\nrepentance, and she thought 'if I could but confess before my death\nthat I opened the door.' Then her voice came back to her, and she\ncried out loudly 'yes, mary, I did it, and straight-way rain fell\nfrom the sky and extinguished the flames of fire, and a light broke\nforth above her, and the virgin mary descended with the two little\nsons by her side, and the new-born daughter in her arms.  She spoke\nkindly to her, and said 'he who repents his sin and acknowledges it,\nis forgiven.' Then she gave her the three children, untied her\ntongue, and granted her happiness for her whole life.\n\n"
p12
sS'sentences'
p13
(lp14
(i__main__
Sentence
p15
(dp16
S'index'
p17
I0
sS'words'
p18
(lp19
S'Hard'
p20
aS'by'
p21
aS'a'
p22
aS'great'
p23
aS'forest'
p24
aS'dwelt'
p25
aS'a'
p26
aS'wood-cutter'
p27
aS'with'
p28
aS'his'
p29
aS'wife'
p30
aS','
p31
aS'who'
p32
aS'had'
p33
aS'an'
p34
aS'only'
p35
aS'child'
p36
aS','
p37
aS'a'
p38
aS'little'
p39
aS'girl'
p40
aS'three'
p41
aS'years'
p42
aS'old'
p43
aS'.'
p44
asS'lemmas'
p45
(lp46
VHard
p47
aVby
p48
aVa
p49
aVgreat
p50
aVforest
p51
aVdwelt
p52
ag49
aVwood-cutter
p53
aVwith
p54
aVhis
p55
aVwife
p56
aV,
p57
aVwho
p58
aVhave
p59
aVan
p60
aVonly
p61
aVchild
p62
ag57
ag49
aVlittle
p63
aVgirl
p64
aVthree
p65
aVyear
p66
aVold
p67
aV.
p68
asS'nerTags'
p69
(lp70
VO
p71
ag71
ag71
ag71
ag71
ag71
ag71
ag71
ag71
ag71
ag71
ag71
ag71
ag71
ag71
ag71
ag71
ag71
ag71
ag71
ag71
ag71
ag71
ag71
ag71
asS'posTags'
p72
(lp73
S'NNP'
p74
aS'IN'
p75
aS'DT'
p76
aS'JJ'
p77
aS'NN'
p78
ag78
ag76
ag77
ag75
aS'PRP$'
p79
ag78
aS','
p80
aS'WP'
p81
aS'VBD'
p82
ag76
ag77
ag78
ag80
ag76
aS'RB'
p83
ag78
aS'CD'
p84
aS'NNS'
p85
ag77
aS'.'
p86
asS'_Sentence__initialContent'
p87
VHard by a great forest dwelt a wood-cutter with his wife, who had an only child, a little girl three years old.
p88
sba(i__main__
Sentence
p89
(dp90
g17
I1
sg18
(lp91
S'They'
p92
aS'were'
p93
aS'so'
p94
aS'poor'
p95
aS','
p96
aS'however'
p97
aS','
p98
aS'that'
p99
aS'they'
p100
aS'no'
p101
aS'longer'
p102
aS'had'
p103
aS'daily'
p104
aS'bread'
p105
aS','
p106
aS'and'
p107
aS'did'
p108
aS'not'
p109
aS'know'
p110
aS'how'
p111
aS'to'
p112
aS'get'
p113
aS'food'
p114
aS'for'
p115
aS'her'
p116
aS'.'
p117
asg45
(lp118
VThey
p119
aVbe
p120
aVso
p121
aVpoor
p122
ag57
aVhowever
p123
ag57
aVthat
p124
aVthey
p125
aVno
p126
aVlonger
p127
ag59
aVdaily
p128
aVbread
p129
ag57
aVand
p130
aVdo
p131
aVnot
p132
aVknow
p133
aVhow
p134
aVto
p135
aVget
p136
aVfood
p137
aVfor
p138
aVher
p139
ag68
asg69
(lp140
g71
ag71
ag71
ag71
ag71
ag71
ag71
ag71
ag71
ag71
ag71
ag71
ag71
ag71
ag71
ag71
ag71
ag71
ag71
ag71
ag71
ag71
ag71
ag71
ag71
ag71
asg72
(lp141
S'PRP'
p142
ag82
ag83
ag77
ag80
ag83
ag80
ag75
ag142
ag76
ag78
ag82
ag77
ag78
ag80
aS'CC'
p143
ag82
ag83
aS'VB'
p144
aS'WRB'
p145
aS'TO'
p146
ag144
ag78
ag75
ag79
ag86
asg87
VThey were so poor, however, that they no longer had daily bread, and did not know how to get food for her.
p147
sba(i__main__
Sentence
p148
(dp149
g17
I2
sg18
(lp150
S'One'
p151
aS'morning'
p152
aS'the'
p153
aS'wood-cutter'
p154
aS'went'
p155
aS'out'
p156
aS'sorrowfully'
p157
aS'to'
p158
aS'his'
p159
aS'work'
p160
aS'in'
p161
aS'the'
p162
aS'forest'
p163
aS','
p164
aS'and'
p165
aS'while'
p166
aS'he'
p167
aS'was'
p168
aS'cutting'
p169
aS'wood'
p170
aS','
p171
aS'suddenly'
p172
aS'there'
p173
aS'stood'
p174
aS'before'
p175
aS'him'
p176
aS'a'
p177
aS'tall'
p178
aS'and'
p179
aS'beautiful'
p180
aS'woman'
p181
aS'with'
p182
aS'a'
p183
aS'crown'
p184
aS'of'
p185
aS'shining'
p186
aS'stars'
p187
aS'on'
p188
aS'her'
p189
aS'head'
p190
aS','
p191
aS'who'
p192
aS'said'
p193
aS'to'
p194
aS'him'
p195
aS"'I"
p196
aS'am'
p197
aS'the'
p198
aS'virgin'
p199
aS'mary'
p200
aS','
p201
aS'mother'
p202
aS'of'
p203
aS'the'
p204
aS'child'
p205
aS'jesus'
p206
aS'.'
p207
asg45
(lp208
VOne
p209
aVmorning
p210
aVthe
p211
aVwood-cutter
p212
aVwent
p213
aVout
p214
aVsorrowfully
p215
aVto
p216
aVhis
p217
aVwork
p218
aVin
p219
aVthe
p220
aVforest
p221
ag57
aVand
p222
aVwhile
p223
aVhe
p224
aVbe
p225
aVcut
p226
aVwood
p227
ag57
aVsuddenly
p228
aVthere
p229
aVstood
p230
aVbefore
p231
aVhim
p232
ag49
aVtall
p233
aVand
p234
aVbeautiful
p235
aVwoman
p236
aVwith
p237
ag49
aVcrown
p238
aVof
p239
aVshin
p240
aVstar
p241
aVon
p242
aVher
p243
aVhead
p244
ag57
aVwho
p245
aVsay
p246
aVto
p247
aVhim
p248
aV'I
p249
aVbe
p250
aVthe
p251
aVvirgin
p252
aVmary
p253
ag57
aVmother
p254
aVof
p255
aVthe
p256
aVchild
p257
aVjesus
p258
ag68
asg69
(lp259
g71
ag71
ag71
ag71
ag71
ag71
ag71
ag71
ag71
ag71
ag71
ag71
ag71
ag71
ag71
ag71
ag71
ag71
ag71
ag71
ag71
ag71
ag71
ag71
ag71
ag71
ag71
ag71
ag71
ag71
ag71
ag71
ag71
ag71
ag71
ag71
ag71
ag71
ag71
ag71
ag71
ag71
ag71
ag71
ag71
ag71
ag71
ag71
ag71
ag71
ag71
ag71
ag71
ag71
ag71
ag71
ag71
asg72
(lp260
g84
ag78
ag76
ag77
ag78
ag75
ag83
ag146
ag79
ag78
ag75
ag76
ag78
ag80
ag143
ag75
ag142
ag82
aS'VBG'
p261
ag78
ag80
ag83
aS'EX'
p262
ag78
ag75
ag142
ag76
ag77
ag143
ag77
ag78
ag75
ag76
ag78
ag75
ag261
ag85
ag75
ag79
ag78
ag80
ag81
ag82
ag146
ag142
ag74
aS'VBP'
p263
ag76
ag78
ag78
ag80
ag78
ag75
ag76
ag78
aS'VBZ'
p264
ag86
asg87
VOne morning the wood-cutter went out sorrowfully to his work in the forest, and while he was cutting wood, suddenly there stood before him a tall and beautiful woman with a crown of shining stars on her head, who said to him 'I am the virgin mary, mother of the child jesus.
p265
sba(i__main__
Sentence
p266
(dp267
g17
I3
sg18
(lp268
S'You'
p269
aS'are'
p270
aS'poor'
p271
aS'and'
p272
aS'needy'
p273
aS','
p274
aS'bring'
p275
aS'your'
p276
aS'child'
p277
aS'to'
p278
aS'me'
p279
aS','
p280
aS'I'
p281
aS'will'
p282
aS'take'
p283
aS'her'
p284
aS'with'
p285
aS'me'
p286
aS'and'
p287
aS'be'
p288
aS'her'
p289
aS'mother'
p290
aS','
p291
aS'and'
p292
aS'care'
p293
aS'for'
p294
aS'her'
p295
aS'.'
p296
aS"'"
p297
asg45
(lp298
VYou
p299
aVbe
p300
aVpoor
p301
aVand
p302
aVneedy
p303
ag57
aVbring
p304
aVyour
p305
aVchild
p306
aVto
p307
aVme
p308
ag57
aVI
p309
aVwill
p310
aVtake
p311
aVher
p312
aVwith
p313
aVme
p314
aVand
p315
aVbe
p316
aVher
p317
aVmother
p318
ag57
aVand
p319
aVcare
p320
aVfor
p321
aVher
p322
ag68
aV'
p323
asg69
(lp324
g71
ag71
ag71
ag71
ag71
ag71
ag71
ag71
ag71
ag71
ag71
ag71
ag71
ag71
ag71
ag71
ag71
ag71
ag71
ag71
ag71
ag71
ag71
ag71
ag71
ag71
ag71
ag71
ag71
asg72
(lp325
g142
ag263
ag77
ag143
ag77
ag80
ag261
ag79
ag78
ag146
ag142
ag80
ag142
aS'MD'
p326
ag144
ag142
ag75
ag142
ag143
ag144
ag79
ag78
ag80
ag143
ag78
ag75
ag79
ag86
aS"''"
p327
asg87
VYou are poor and needy, bring your child to me, I will take her with me and be her mother, and care for her.'
p328
sba(i__main__
Sentence
p329
(dp330
g17
I4
sg18
(lp331
S'The'
p332
aS'wood-cutter'
p333
aS'obeyed'
p334
aS','
p335
aS'brought'
p336
aS'his'
p337
aS'child'
p338
aS','
p339
aS'and'
p340
aS'gave'
p341
aS'her'
p342
aS'to'
p343
aS'the'
p344
aS'virgin'
p345
aS'mary'
p346
aS','
p347
aS'who'
p348
aS'took'
p349
aS'her'
p350
aS'up'
p351
aS'to'
p352
aS'heaven'
p353
aS'with'
p354
aS'her'
p355
aS'.'
p356
asg45
(lp357
VThe
p358
aVwood-cutter
p359
aVobey
p360
ag57
aVbring
p361
aVhis
p362
aVchild
p363
ag57
aVand
p364
aVgive
p365
aVher
p366
aVto
p367
aVthe
p368
aVvirgin
p369
aVmary
p370
ag57
aVwho
p371
aVtake
p372
aVher
p373
aVup
p374
aVto
p375
aVheaven
p376
aVwith
p377
aVher
p378
ag68
asg69
(lp379
g71
ag71
ag71
ag71
ag71
ag71
ag71
ag71
ag71
ag71
ag71
ag71
ag71
ag71
ag71
ag71
ag71
ag71
ag71
ag71
ag71
ag71
ag71
ag71
ag71
asg72
(lp380
g76
ag77
aS'VBN'
p381
ag80
ag381
ag79
ag78
ag80
ag143
ag82
ag142
ag146
ag76
ag78
ag78
ag80
ag81
ag82
ag142
aS'RP'
p382
ag146
ag144
ag75
ag79
ag86
asg87
VThe wood-cutter obeyed, brought his child, and gave her to the virgin mary, who took her up to heaven with her.
p383
sba(i__main__
Sentence
p384
(dp385
g17
I5
sg18
(lp386
S'There'
p387
aS'the'
p388
aS'child'
p389
aS'fared'
p390
aS'well'
p391
aS','
p392
aS'ate'
p393
aS'sugar-cakes'
p394
aS','
p395
aS'and'
p396
aS'drank'
p397
aS'sweet'
p398
aS'milk'
p399
aS','
p400
aS'and'
p401
aS'her'
p402
aS'clothes'
p403
aS'were'
p404
aS'of'
p405
aS'gold'
p406
aS','
p407
aS'and'
p408
aS'the'
p409
aS'little'
p410
aS'angels'
p411
aS'played'
p412
aS'with'
p413
aS'her'
p414
aS'.'
p415
asg45
(lp416
VThere
p417
aVthe
p418
aVchild
p419
aVfare
p420
aVwell
p421
ag57
aVeat
p422
aVsugar-cakes
p423
ag57
aVand
p424
aVdrank
p425
aVsweet
p426
aVmilk
p427
ag57
aVand
p428
aVher
p429
aVclothes
p430
ag120
aVof
p431
aVgold
p432
ag57
aVand
p433
aVthe
p434
aVlittle
p435
aVangel
p436
aVplay
p437
aVwith
p438
aVher
p439
ag68
asg69
(lp440
g71
ag71
ag71
ag71
ag71
ag71
ag71
ag71
ag71
ag71
ag71
ag71
ag71
ag71
ag71
ag71
ag71
ag71
ag71
ag71
ag71
ag71
ag71
ag71
ag71
ag71
ag71
ag71
ag71
asg72
(lp441
g262
ag76
ag78
ag82
ag83
ag80
ag263
ag85
ag80
ag143
ag78
ag78
ag78
ag80
ag143
ag79
ag85
ag82
ag75
ag78
ag80
ag143
ag76
ag77
ag85
ag381
ag75
ag79
ag86
asg87
VThere the child fared well, ate sugar-cakes, and drank sweet milk, and her clothes were of gold, and the little angels played with her.
p442
sba(i__main__
Sentence
p443
(dp444
g17
I6
sg18
(lp445
S'And'
p446
aS'when'
p447
aS'she'
p448
aS'was'
p449
aS'fourteen'
p450
aS'years'
p451
aS'of'
p452
aS'age'
p453
aS','
p454
aS'the'
p455
aS'virgin'
p456
aS'mary'
p457
aS'called'
p458
aS'her'
p459
aS'one'
p460
aS'day'
p461
aS'and'
p462
aS'said'
p463
aS"'dear"
p464
aS'child'
p465
aS','
p466
aS'I'
p467
aS'am'
p468
aS'about'
p469
aS'to'
p470
aS'make'
p471
aS'a'
p472
aS'long'
p473
aS'journey'
p474
aS','
p475
aS'so'
p476
aS'take'
p477
aS'into'
p478
aS'your'
p479
aS'keeping'
p480
aS'the'
p481
aS'keys'
p482
aS'of'
p483
aS'the'
p484
aS'thirteen'
p485
aS'doors'
p486
aS'of'
p487
aS'heaven'
p488
aS'.'
p489
asg45
(lp490
VAnd
p491
aVwhen
p492
aVshe
p493
ag225
aVfourteen
p494
aVyear
p495
aVof
p496
aVage
p497
ag57
aVthe
p498
aVvirgin
p499
aVmary
p500
aVcall
p501
aVher
p502
aVone
p503
aVday
p504
aVand
p505
ag246
aV'dear
p506
aVchild
p507
ag57
ag309
ag250
aVabout
p508
aVto
p509
aVmake
p510
ag49
aVlong
p511
aVjourney
p512
ag57
aVso
p513
aVtake
p514
aVinto
p515
aVyour
p516
aVkeeping
p517
aVthe
p518
aVkey
p519
aVof
p520
aVthe
p521
aVthirteen
p522
aVdoor
p523
aVof
p524
aVheaven
p525
ag68
asg69
(lp526
g71
ag71
ag71
ag71
ag71
ag71
ag71
ag71
ag71
ag71
ag71
ag71
ag71
ag71
ag71
ag71
ag71
ag71
ag71
ag71
ag71
ag71
ag71
ag71
ag71
ag71
ag71
ag71
ag71
ag71
ag71
ag71
ag71
ag71
ag71
ag71
ag71
ag71
ag71
ag71
ag71
ag71
ag71
ag71
asg72
(lp527
g143
ag145
ag142
ag82
ag381
ag85
ag75
ag78
ag80
ag76
ag78
ag78
ag381
ag79
ag84
ag78
ag143
ag82
ag77
ag78
ag80
ag142
ag263
ag75
ag146
ag144
ag76
ag77
ag78
ag80
ag83
ag144
ag75
ag79
ag78
ag76
ag85
ag75
ag76
ag78
ag85
ag75
ag77
ag86
asg87
VAnd when she was fourteen years of age, the virgin mary called her one day and said 'dear child, I am about to make a long journey, so take into your keeping the keys of the thirteen doors of heaven.
p528
sba(i__main__
Sentence
p529
(dp530
g17
I7
sg18
(lp531
S'Twelve'
p532
aS'of'
p533
aS'these'
p534
aS'you'
p535
aS'may'
p536
aS'open'
p537
aS','
p538
aS'and'
p539
aS'behold'
p540
aS'the'
p541
aS'glory'
p542
aS'which'
p543
aS'is'
p544
aS'within'
p545
aS'them'
p546
aS','
p547
aS'but'
p548
aS'the'
p549
aS'thirteenth'
p550
aS','
p551
aS'to'
p552
aS'which'
p553
aS'this'
p554
aS'little'
p555
aS'key'
p556
aS'belongs'
p557
aS','
p558
aS'is'
p559
aS'forbidden'
p560
aS'you'
p561
aS'.'
p562
asg45
(lp563
VTwelve
p564
aVof
p565
aVthese
p566
aVyou
p567
aVmay
p568
aVopen
p569
ag57
aVand
p570
aVbehold
p571
aVthe
p572
aVglory
p573
aVwhich
p574
aVbe
p575
aVwithin
p576
aVthem
p577
ag57
aVbut
p578
aVthe
p579
aVthirteenth
p580
ag57
aVto
p581
aVwhich
p582
aVthis
p583
aVlittle
p584
aVkey
p585
aVbelongs
p586
ag57
ag575
aVforbid
p587
aVyou
p588
ag68
asg69
(lp589
g71
ag71
ag71
ag71
ag71
ag71
ag71
ag71
ag71
ag71
ag71
ag71
ag71
ag71
ag71
ag71
ag71
ag71
ag71
ag71
ag71
ag71
ag71
ag71
ag71
ag71
ag71
ag71
ag71
ag71
ag71
asg72
(lp590
g74
ag75
ag76
ag142
ag326
ag144
ag80
ag143
ag82
ag76
ag78
aS'WDT'
p591
ag264
ag75
ag142
ag80
ag143
ag76
ag78
ag80
ag146
ag591
ag76
ag77
ag78
ag85
ag80
ag264
ag381
ag142
ag86
asg87
VTwelve of these you may open, and behold the glory which is within them, but the thirteenth, to which this little key belongs, is forbidden you.
p592
sba(i__main__
Sentence
p593
(dp594
g17
I8
sg18
(lp595
S'Take'
p596
aS'care'
p597
aS'not'
p598
aS'to'
p599
aS'open'
p600
aS'it'
p601
aS','
p602
aS'or'
p603
aS'you'
p604
aS'will'
p605
aS'be'
p606
aS'unhappy'
p607
aS'.'
p608
aS"'"
p609
asg45
(lp610
VTake
p611
aVcare
p612
aVnot
p613
aVto
p614
aVopen
p615
aVit
p616
ag57
aVor
p617
aVyou
p618
aVwill
p619
aVbe
p620
aVunhappy
p621
ag68
ag323
asg69
(lp622
g71
ag71
ag71
ag71
ag71
ag71
ag71
ag71
ag71
ag71
ag71
ag71
ag71
ag71
asg72
(lp623
g74
ag78
ag83
ag146
ag144
ag142
ag80
ag143
ag142
ag326
ag144
ag77
ag86
ag327
asg87
VTake care not to open it, or you will be unhappy.'
p624
sba(i__main__
Sentence
p625
(dp626
g17
I9
sg18
(lp627
S'The'
p628
aS'girl'
p629
aS'promised'
p630
aS'to'
p631
aS'be'
p632
aS'obedient'
p633
aS','
p634
aS'and'
p635
aS'when'
p636
aS'the'
p637
aS'virgin'
p638
aS'mary'
p639
aS'was'
p640
aS'gone'
p641
aS','
p642
aS'she'
p643
aS'began'
p644
aS'to'
p645
aS'examine'
p646
aS'the'
p647
aS'dwellings'
p648
aS'of'
p649
aS'the'
p650
aS'kingdom'
p651
aS'of'
p652
aS'heaven'
p653
aS'.'
p654
asg45
(lp655
VThe
p656
aVgirl
p657
aVpromise
p658
aVto
p659
aVbe
p660
aVobedient
p661
ag57
aVand
p662
aVwhen
p663
aVthe
p664
aVvirgin
p665
aVmary
p666
ag225
aVgo
p667
ag57
aVshe
p668
aVbegin
p669
aVto
p670
aVexamine
p671
aVthe
p672
aVdwelling
p673
aVof
p674
aVthe
p675
aVkingdom
p676
aVof
p677
aVheaven
p678
ag68
asg69
(lp679
g71
ag71
ag71
ag71
ag71
ag71
ag71
ag71
ag71
ag71
ag71
ag71
ag71
ag71
ag71
ag71
ag71
ag71
ag71
ag71
ag71
ag71
ag71
ag71
ag71
ag71
ag71
asg72
(lp680
g76
ag78
ag82
ag146
ag144
ag77
ag80
ag143
ag145
ag76
ag78
ag78
ag82
ag381
ag80
ag142
ag82
ag146
ag78
ag76
ag85
ag75
ag76
ag78
ag75
ag78
ag86
asg87
VThe girl promised to be obedient, and when the virgin mary was gone, she began to examine the dwellings of the kingdom of heaven.
p681
sba(i__main__
Sentence
p682
(dp683
g17
I10
sg18
(lp684
S'Each'
p685
aS'day'
p686
aS'she'
p687
aS'opened'
p688
aS'one'
p689
aS'of'
p690
aS'them'
p691
aS','
p692
aS'until'
p693
aS'she'
p694
aS'had'
p695
aS'made'
p696
aS'the'
p697
aS'round'
p698
aS'of'
p699
aS'the'
p700
aS'twelve'
p701
aS'.'
p702
asg45
(lp703
VEach
p704
aVday
p705
aVshe
p706
aVopen
p707
aVone
p708
aVof
p709
aVthem
p710
ag57
aVuntil
p711
aVshe
p712
ag59
aVmake
p713
aVthe
p714
aVround
p715
aVof
p716
aVthe
p717
aVtwelve
p718
ag68
asg69
(lp719
g71
ag71
ag71
ag71
ag71
ag71
ag71
ag71
ag71
ag71
ag71
ag71
ag71
ag71
ag71
ag71
ag71
ag71
asg72
(lp720
g76
ag78
ag142
ag82
ag84
ag75
ag142
ag80
ag75
ag142
ag82
ag381
ag76
ag78
ag75
ag76
ag78
ag86
asg87
VEach day she opened one of them, until she had made the round of the twelve.
p721
sba(i__main__
Sentence
p722
(dp723
g17
I11
sg18
(lp724
S'In'
p725
aS'each'
p726
aS'of'
p727
aS'them'
p728
aS'sat'
p729
aS'one'
p730
aS'of'
p731
aS'the'
p732
aS'apostles'
p733
aS'in'
p734
aS'the'
p735
aS'midst'
p736
aS'of'
p737
aS'a'
p738
aS'great'
p739
aS'light'
p740
aS','
p741
aS'and'
p742
aS'she'
p743
aS'rejoiced'
p744
aS'in'
p745
aS'all'
p746
aS'the'
p747
aS'magnificence'
p748
aS'and'
p749
aS'splendor'
p750
aS','
p751
aS'and'
p752
aS'the'
p753
aS'little'
p754
aS'angels'
p755
aS'who'
p756
aS'always'
p757
aS'accompanied'
p758
aS'her'
p759
aS'rejoiced'
p760
aS'with'
p761
aS'her'
p762
aS'.'
p763
asg45
(lp764
VIn
p765
aVeach
p766
aVof
p767
aVthem
p768
aVsat
p769
aVone
p770
aVof
p771
aVthe
p772
aVapostle
p773
aVin
p774
aVthe
p775
aVmidst
p776
aVof
p777
ag49
aVgreat
p778
aVlight
p779
ag57
aVand
p780
aVshe
p781
aVrejoice
p782
aVin
p783
aVall
p784
aVthe
p785
aVmagnificence
p786
aVand
p787
aVsplendor
p788
ag57
aVand
p789
aVthe
p790
aVlittle
p791
aVangel
p792
aVwho
p793
aValways
p794
aVaccompany
p795
aVher
p796
aVrejoice
p797
aVwith
p798
aVher
p799
ag68
asg69
(lp800
g71
ag71
ag71
ag71
ag71
ag71
ag71
ag71
ag71
ag71
ag71
ag71
ag71
ag71
ag71
ag71
ag71
ag71
ag71
ag71
ag71
ag71
ag71
ag71
ag71
ag71
ag71
ag71
ag71
ag71
ag71
ag71
ag71
ag71
ag71
ag71
ag71
ag71
ag71
asg72
(lp801
g75
ag76
ag75
ag142
ag75
ag84
ag75
ag76
ag85
ag75
ag76
ag78
ag75
ag76
ag77
ag78
ag80
ag143
ag142
ag82
ag75
ag76
ag76
ag78
ag143
ag78
ag80
ag143
ag76
ag77
ag85
ag81
ag83
ag82
ag142
ag82
ag75
ag79
ag86
asg87
VIn each of them sat one of the apostles in the midst of a great light, and she rejoiced in all the magnificence and splendor, and the little angels who always accompanied her rejoiced with her.
p802
sba(i__main__
Sentence
p803
(dp804
g17
I12
sg18
(lp805
S'Then'
p806
aS'the'
p807
aS'forbidden'
p808
aS'door'
p809
aS'alone'
p810
aS'remained'
p811
aS','
p812
aS'and'
p813
aS'she'
p814
aS'felt'
p815
aS'a'
p816
aS'great'
p817
aS'desire'
p818
aS'to'
p819
aS'know'
p820
aS'what'
p821
aS'could'
p822
aS'be'
p823
aS'hidden'
p824
aS'behind'
p825
aS'it'
p826
aS','
p827
aS'and'
p828
aS'said'
p829
aS'to'
p830
aS'the'
p831
aS'angels'
p832
aS"'I"
p833
aS'will'
p834
aS'not'
p835
aS'open'
p836
aS'it'
p837
aS'entirely'
p838
aS','
p839
aS'and'
p840
aS'I'
p841
aS'will'
p842
aS'not'
p843
aS'go'
p844
aS'inside'
p845
aS','
p846
aS'but'
p847
aS'I'
p848
aS'will'
p849
aS'unlock'
p850
aS'it'
p851
aS'so'
p852
aS'that'
p853
aS'we'
p854
aS'can'
p855
aS'see'
p856
aS'just'
p857
aS'a'
p858
aS'little'
p859
aS'through'
p860
aS'the'
p861
aS'opening'
p862
aS'.'
p863
aS"'"
p864
asg45
(lp865
VThen
p866
aVthe
p867
aVforbidden
p868
aVdoor
p869
aValone
p870
aVremain
p871
ag57
aVand
p872
aVshe
p873
aVfelt
p874
ag49
aVgreat
p875
aVdesire
p876
aVto
p877
aVknow
p878
aVwhat
p879
aVcould
p880
aVbe
p881
aVhide
p882
aVbehind
p883
aVit
p884
ag57
aVand
p885
ag246
aVto
p886
aVthe
p887
aVangel
p888
aV'I
p889
aVwill
p890
aVnot
p891
aVopen
p892
aVit
p893
aVentirely
p894
ag57
aVand
p895
ag309
aVwill
p896
aVnot
p897
aVgo
p898
aVinside
p899
ag57
aVbut
p900
ag309
aVwill
p901
aVunlock
p902
aVit
p903
aVso
p904
aVthat
p905
aVwe
p906
aVcan
p907
aVsee
p908
aVjust
p909
ag49
aVlittle
p910
aVthrough
p911
aVthe
p912
aVopen
p913
ag68
ag323
asg69
(lp914
g71
ag71
ag71
ag71
ag71
ag71
ag71
ag71
ag71
ag71
ag71
ag71
ag71
ag71
ag71
ag71
ag71
ag71
ag71
ag71
ag71
ag71
ag71
ag71
ag71
ag71
ag71
ag71
ag71
ag71
ag71
ag71
ag71
ag71
ag71
ag71
ag71
ag71
ag71
ag71
ag71
ag71
ag71
ag71
ag71
ag71
ag71
ag71
ag71
ag71
ag71
ag71
ag71
ag71
ag71
ag71
ag71
ag71
ag71
asg72
(lp915
g83
ag76
ag78
ag78
ag78
ag82
ag80
ag143
ag142
ag82
ag76
ag77
ag78
ag146
ag144
ag81
ag326
ag144
ag381
ag75
ag142
ag80
ag143
ag82
ag146
ag76
ag85
aS'-NONE-'
p916
ag326
ag83
ag144
ag142
ag83
ag80
ag143
ag142
ag326
ag83
ag144
ag83
ag80
ag143
ag142
ag326
ag144
ag142
ag83
ag75
ag142
ag326
ag144
ag83
ag76
ag83
ag75
ag76
ag261
ag86
ag327
asg87
VThen the forbidden door alone remained, and she felt a great desire to know what could be hidden behind it, and said to the angels 'I will not open it entirely, and I will not go inside, but I will unlock it so that we can see just a little through the opening.'
p917
sba(i__main__
Sentence
p918
(dp919
g17
I13
sg18
(lp920
S"'Oh'no"
p921
aS','
p922
aS'said'
p923
aS'the'
p924
aS'little'
p925
aS'angels'
p926
aS','
p927
aS"'that"
p928
aS'would'
p929
aS'be'
p930
aS'a'
p931
aS'sin'
p932
aS'.'
p933
asg45
(lp934
V'Oh'no
p935
ag57
ag246
aVthe
p936
aVlittle
p937
aVangel
p938
ag57
aV'that
p939
aVwould
p940
aVbe
p941
ag49
aVsin
p942
ag68
asg69
(lp943
g71
ag71
ag71
ag71
ag71
ag71
ag71
ag71
ag71
ag71
ag71
ag71
ag71
asg72
(lp944
g78
ag80
ag82
ag76
ag77
ag85
ag80
ag77
ag326
ag144
ag76
ag78
ag86
asg87
V'Oh'no,  said the little angels,  'that would be a sin.
p945
sba(i__main__
Sentence
p946
(dp947
g17
I14
sg18
(lp948
S'The'
p949
aS'virgin'
p950
aS'mary'
p951
aS'has'
p952
aS'forbidden'
p953
aS'it'
p954
aS','
p955
aS'and'
p956
aS'it'
p957
aS'might'
p958
aS'easily'
p959
aS'cause'
p960
aS'your'
p961
aS'unhappiness'
p962
aS'.'
p963
aS"'"
p964
asg45
(lp965
VThe
p966
aVvirgin
p967
aVmary
p968
aVhave
p969
ag587
aVit
p970
ag57
aVand
p971
aVit
p972
aVmight
p973
aVeasily
p974
aVcause
p975
aVyour
p976
aVunhappiness
p977
ag68
ag323
asg69
(lp978
g71
ag71
ag71
ag71
ag71
ag71
ag71
ag71
ag71
ag71
ag71
ag71
ag71
ag71
ag71
ag71
asg72
(lp979
g76
ag78
ag78
ag264
ag381
ag142
ag80
ag143
ag142
ag326
ag83
ag144
ag79
ag78
ag86
ag327
asg87
VThe virgin mary has forbidden it, and it might easily cause your unhappiness.'
p980
sba(i__main__
Sentence
p981
(dp982
g17
I15
sg18
(lp983
S'Then'
p984
aS'she'
p985
aS'was'
p986
aS'silent'
p987
aS','
p988
aS'but'
p989
aS'the'
p990
aS'desire'
p991
aS'in'
p992
aS'her'
p993
aS'heart'
p994
aS'was'
p995
aS'not'
p996
aS'stilled'
p997
aS','
p998
aS'but'
p999
aS'gnawed'
p1000
aS'there'
p1001
aS'and'
p1002
aS'tormented'
p1003
aS'her'
p1004
aS','
p1005
aS'and'
p1006
aS'let'
p1007
aS'her'
p1008
aS'have'
p1009
aS'no'
p1010
aS'rest'
p1011
aS'.'
p1012
asg45
(lp1013
VThen
p1014
aVshe
p1015
ag225
aVsilent
p1016
ag57
aVbut
p1017
aVthe
p1018
aVdesire
p1019
aVin
p1020
aVher
p1021
aVheart
p1022
ag225
aVnot
p1023
aVstill
p1024
ag57
aVbut
p1025
aVgnaw
p1026
aVthere
p1027
aVand
p1028
aVtorment
p1029
aVher
p1030
ag57
aVand
p1031
aVlet
p1032
aVher
p1033
aVhave
p1034
aVno
p1035
aVrest
p1036
ag68
asg69
(lp1037
g71
ag71
ag71
ag71
ag71
ag71
ag71
ag71
ag71
ag71
ag71
ag71
ag71
ag71
ag71
ag71
ag71
ag71
ag71
ag71
ag71
ag71
ag71
ag71
ag71
ag71
ag71
ag71
ag71
asg72
(lp1038
g83
ag142
ag82
ag77
ag80
ag143
ag76
ag78
ag75
ag79
ag78
ag82
ag83
ag381
ag80
ag143
ag82
ag262
ag143
ag82
ag142
ag80
ag143
ag144
ag79
ag144
ag76
ag78
ag86
asg87
VThen she was silent, but the desire in her heart was not stilled, but gnawed there and tormented her, and let her have no rest.
p1039
sba(i__main__
Sentence
p1040
(dp1041
g17
I16
sg18
(lp1042
S'And'
p1043
aS'once'
p1044
aS'when'
p1045
aS'the'
p1046
aS'angels'
p1047
aS'had'
p1048
aS'all'
p1049
aS'gone'
p1050
aS'out'
p1051
aS','
p1052
aS'she'
p1053
aS'thought'
p1054
aS"'now"
p1055
aS'I'
p1056
aS'am'
p1057
aS'quite'
p1058
aS'alone'
p1059
aS','
p1060
aS'and'
p1061
aS'I'
p1062
aS'could'
p1063
aS'peep'
p1064
aS'in'
p1065
aS'.'
p1066
asg45
(lp1067
VAnd
p1068
aVonce
p1069
aVwhen
p1070
aVthe
p1071
aVangel
p1072
ag59
aVall
p1073
aVgone
p1074
aVout
p1075
ag57
aVshe
p1076
aVthink
p1077
aV'now
p1078
ag309
ag250
aVquite
p1079
aValone
p1080
ag57
aVand
p1081
ag309
aVcould
p1082
aVpeep
p1083
aVin
p1084
ag68
asg69
(lp1085
g71
ag71
ag71
ag71
ag71
ag71
ag71
ag71
ag71
ag71
ag71
ag71
ag71
ag71
ag71
ag71
ag71
ag71
ag71
ag71
ag71
ag71
ag71
ag71
asg72
(lp1086
g143
ag83
ag145
ag76
ag85
ag82
ag76
ag78
ag382
ag80
ag142
ag82
ag77
ag142
ag263
ag83
ag83
ag80
ag143
ag142
ag326
ag144
ag75
ag86
asg87
VAnd once when the angels had all gone out, she thought 'now I am quite alone, and I could peep in.
p1087
sba(i__main__
Sentence
p1088
(dp1089
g17
I17
sg18
(lp1090
S'If'
p1091
aS'I'
p1092
aS'do'
p1093
aS','
p1094
aS'no'
p1095
aS'one'
p1096
aS'will'
p1097
aS'ever'
p1098
aS'know'
p1099
aS'.'
p1100
aS"'"
p1101
asg45
(lp1102
VIf
p1103
ag309
aVdo
p1104
ag57
aVno
p1105
aVone
p1106
aVwill
p1107
aVever
p1108
aVknow
p1109
ag68
ag323
asg69
(lp1110
g71
ag71
ag71
ag71
ag71
ag71
ag71
ag71
ag71
ag71
ag71
asg72
(lp1111
g75
ag142
ag263
ag80
ag76
ag142
ag326
ag83
ag144
ag86
ag327
asg87
VIf I do, no one will ever know.'
p1112
sba(i__main__
Sentence
p1113
(dp1114
g17
I18
sg18
(lp1115
S'She'
p1116
aS'sought'
p1117
aS'out'
p1118
aS'the'
p1119
aS'key'
p1120
aS','
p1121
aS'and'
p1122
aS'when'
p1123
aS'she'
p1124
aS'had'
p1125
aS'got'
p1126
aS'it'
p1127
aS'in'
p1128
aS'her'
p1129
aS'hand'
p1130
aS','
p1131
aS'she'
p1132
aS'put'
p1133
aS'it'
p1134
aS'in'
p1135
aS'the'
p1136
aS'lock'
p1137
aS','
p1138
aS'and'
p1139
aS'when'
p1140
aS'she'
p1141
aS'had'
p1142
aS'put'
p1143
aS'it'
p1144
aS'in'
p1145
aS','
p1146
aS'she'
p1147
aS'turned'
p1148
aS'it'
p1149
aS'round'
p1150
aS'as'
p1151
aS'well'
p1152
aS'.'
p1153
asg45
(lp1154
VShe
p1155
aVseek
p1156
aVout
p1157
aVthe
p1158
aVkey
p1159
ag57
aVand
p1160
aVwhen
p1161
aVshe
p1162
ag59
aVget
p1163
aVit
p1164
aVin
p1165
aVher
p1166
aVhand
p1167
ag57
aVshe
p1168
aVput
p1169
aVit
p1170
aVin
p1171
aVthe
p1172
aVlock
p1173
ag57
aVand
p1174
aVwhen
p1175
aVshe
p1176
ag59
aVput
p1177
aVit
p1178
aVin
p1179
ag57
aVshe
p1180
aVturn
p1181
aVit
p1182
aVround
p1183
ag49
aVwell
p1184
ag68
asg69
(lp1185
g71
ag71
ag71
ag71
ag71
ag71
ag71
ag71
ag71
ag71
ag71
ag71
ag71
ag71
ag71
ag71
ag71
ag71
ag71
ag71
ag71
ag71
ag71
ag71
ag71
ag71
ag71
ag71
ag71
ag71
ag71
ag71
ag71
ag71
ag71
ag71
ag71
ag71
asg72
(lp1186
g142
ag82
ag382
ag76
ag77
ag80
ag143
ag145
ag142
ag82
ag381
ag142
ag75
ag79
ag78
ag80
ag142
ag82
ag142
ag75
ag76
ag78
ag80
ag143
ag145
ag142
ag82
ag381
ag142
ag75
ag80
ag142
ag82
ag142
ag82
ag75
ag83
ag86
asg87
VShe sought out the key, and when she had got it in her hand, she put it in the lock, and when she had put it in, she turned it round as well.
p1187
sba(i__main__
Sentence
p1188
(dp1189
g17
I19
sg18
(lp1190
S'Then'
p1191
aS'the'
p1192
aS'door'
p1193
aS'sprang'
p1194
aS'open'
p1195
aS','
p1196
aS'and'
p1197
aS'she'
p1198
aS'saw'
p1199
aS'there'
p1200
aS'the'
p1201
aS'trinity'
p1202
aS'sitting'
p1203
aS'in'
p1204
aS'fire'
p1205
aS'and'
p1206
aS'splendor'
p1207
aS'.'
p1208
asg45
(lp1209
VThen
p1210
aVthe
p1211
aVdoor
p1212
aVsprang
p1213
aVopen
p1214
ag57
aVand
p1215
aVshe
p1216
aVsaw
p1217
aVthere
p1218
aVthe
p1219
aVtrinity
p1220
aVsit
p1221
aVin
p1222
aVfire
p1223
aVand
p1224
aVsplendor
p1225
ag68
asg69
(lp1226
g71
ag71
ag71
ag71
ag71
ag71
ag71
ag71
ag71
ag71
ag71
ag71
ag71
ag71
ag71
ag71
ag71
ag71
asg72
(lp1227
g83
ag76
ag78
ag78
ag77
ag80
ag143
ag142
ag82
ag83
ag76
ag78
ag261
ag75
ag78
ag143
ag78
ag86
asg87
VThen the door sprang open, and she saw there the trinity sitting in fire and splendor.
p1228
sba(i__main__
Sentence
p1229
(dp1230
g17
I20
sg18
(lp1231
S'She'
p1232
aS'stayed'
p1233
aS'there'
p1234
aS'awhile'
p1235
aS','
p1236
aS'and'
p1237
aS'looked'
p1238
aS'at'
p1239
aS'everything'
p1240
aS'in'
p1241
aS'amazement'
p1242
aS','
p1243
aS'then'
p1244
aS'she'
p1245
aS'touched'
p1246
aS'the'
p1247
aS'light'
p1248
aS'a'
p1249
aS'little'
p1250
aS'with'
p1251
aS'her'
p1252
aS'finger'
p1253
aS','
p1254
aS'and'
p1255
aS'her'
p1256
aS'finger'
p1257
aS'became'
p1258
aS'quite'
p1259
aS'golden'
p1260
aS'.'
p1261
asg45
(lp1262
VShe
p1263
aVstay
p1264
aVthere
p1265
aVawhile
p1266
ag57
aVand
p1267
aVlook
p1268
aVat
p1269
aVeverything
p1270
aVin
p1271
aVamazement
p1272
ag57
aVthen
p1273
aVshe
p1274
aVtouch
p1275
aVthe
p1276
aVlight
p1277
ag49
aVlittle
p1278
aVwith
p1279
aVher
p1280
aVfinger
p1281
ag57
aVand
p1282
aVher
p1283
aVfinger
p1284
aVbecome
p1285
aVquite
p1286
aVgolden
p1287
ag68
asg69
(lp1288
g71
ag71
ag71
ag71
ag71
ag71
ag71
ag71
ag71
ag71
ag71
ag71
ag71
ag71
ag71
ag71
ag71
ag71
ag71
ag71
ag71
ag71
ag71
ag71
ag71
ag71
ag71
ag71
ag71
ag71
asg72
(lp1289
g142
ag82
ag83
ag77
ag80
ag143
ag82
ag75
ag78
ag75
ag78
ag80
ag83
ag142
ag82
ag76
ag78
ag76
ag83
ag75
ag79
ag78
ag80
ag143
ag79
ag78
ag82
ag83
ag381
ag86
asg87
VShe stayed there awhile, and looked at everything in amazement, then she touched the light a little with her finger, and her finger became quite golden.
p1290
sba(i__main__
Sentence
p1291
(dp1292
g17
I21
sg18
(lp1293
S'Immediately'
p1294
aS'a'
p1295
aS'great'
p1296
aS'fear'
p1297
aS'fell'
p1298
aS'on'
p1299
aS'her'
p1300
aS'.'
p1301
asg45
(lp1302
VImmediately
p1303
ag49
aVgreat
p1304
aVfear
p1305
aVfell
p1306
aVon
p1307
aVher
p1308
ag68
asg69
(lp1309
g71
ag71
ag71
ag71
ag71
ag71
ag71
ag71
asg72
(lp1310
g83
ag76
ag77
ag78
ag82
ag75
ag79
ag86
asg87
VImmediately a great fear fell on her.
p1311
sba(i__main__
Sentence
p1312
(dp1313
g17
I22
sg18
(lp1314
S'She'
p1315
aS'shut'
p1316
aS'the'
p1317
aS'door'
p1318
aS'violently'
p1319
aS','
p1320
aS'and'
p1321
aS'ran'
p1322
aS'hi'
p1323
aS'there'
p1324
aS'.'
p1325
asg45
(lp1326
VShe
p1327
aVshut
p1328
aVthe
p1329
aVdoor
p1330
aVviolently
p1331
ag57
aVand
p1332
aVrun
p1333
aVhi
p1334
aVthere
p1335
ag68
asg69
(lp1336
g71
ag71
ag71
ag71
ag71
ag71
ag71
ag71
ag71
ag71
ag71
asg72
(lp1337
g142
ag82
ag76
ag78
ag83
ag80
ag143
ag82
ag78
ag83
ag86
asg87
VShe shut the door violently, and ran hi there.
p1338
sba(i__main__
Sentence
p1339
(dp1340
g17
I23
sg18
(lp1341
S'But'
p1342
aS'her'
p1343
aS'terror'
p1344
aS'would'
p1345
aS'not'
p1346
aS'quit'
p1347
aS'her'
p1348
aS','
p1349
aS'let'
p1350
aS'her'
p1351
aS'do'
p1352
aS'what'
p1353
aS'she'
p1354
aS"'Yes"
p1355
aS','
p1356
aS'said'
p1357
aS'the'
p1358
aS'girl'
p1359
aS','
p1360
aS'for'
p1361
aS'the'
p1362
aS'second'
p1363
aS'time'
p1364
aS'.'
p1365
asg45
(lp1366
VBut
p1367
aVher
p1368
aVterror
p1369
aVwould
p1370
aVnot
p1371
aVquit
p1372
aVher
p1373
ag57
aVlet
p1374
aVher
p1375
aVdo
p1376
aVwhat
p1377
aVshe
p1378
aV'Yes
p1379
ag57
ag246
aVthe
p1380
aVgirl
p1381
ag57
aVfor
p1382
aVthe
p1383
aVsecond
p1384
aVtime
p1385
ag68
asg69
(lp1386
g71
ag71
ag71
ag71
ag71
ag71
ag71
ag71
ag71
ag71
ag71
ag71
ag71
ag71
ag71
ag71
ag71
ag71
ag71
ag71
ag71
ag71
ag71
ag71
asg72
(lp1387
g143
ag79
ag78
ag326
ag83
ag144
ag79
ag80
ag144
ag142
ag263
ag81
ag142
ag264
ag80
ag82
ag76
ag78
ag80
ag75
ag76
ag77
ag78
ag86
asg87
VBut her terror would not quit her, let her do what she 'Yes,  said the girl, for the second time.
p1388
sba(i__main__
Sentence
p1389
(dp1390
g17
I24
sg18
(lp1391
S'Then'
p1392
aS'she'
p1393
aS'perceived'
p1394
aS'the'
p1395
aS'finger'
p1396
aS'which'
p1397
aS'had'
p1398
aS'become'
p1399
aS'golden'
p1400
aS'from'
p1401
aS'touching'
p1402
aS'the'
p1403
aS'fire'
p1404
aS'of'
p1405
aS'heaven'
p1406
aS','
p1407
aS'and'
p1408
aS'saw'
p1409
aS'well'
p1410
aS'that'
p1411
aS'the'
p1412
aS'child'
p1413
aS'had'
p1414
aS'sinned'
p1415
aS','
p1416
aS'and'
p1417
aS'said'
p1418
aS'for'
p1419
aS'the'
p1420
aS'third'
p1421
aS'time'
p1422
aS"'have"
p1423
aS'you'
p1424
aS'not'
p1425
aS'done'
p1426
aS'it'
p1427
aS'.'
p1428
aS"'"
p1429
asg45
(lp1430
VThen
p1431
aVshe
p1432
aVperceive
p1433
aVthe
p1434
aVfinger
p1435
aVwhich
p1436
ag59
aVbecome
p1437
aVgolden
p1438
aVfrom
p1439
aVtouch
p1440
aVthe
p1441
aVfire
p1442
aVof
p1443
aVheaven
p1444
ag57
aVand
p1445
aVsaw
p1446
aVwell
p1447
aVthat
p1448
aVthe
p1449
aVchild
p1450
ag59
aVsin
p1451
ag57
aVand
p1452
ag246
aVfor
p1453
aVthe
p1454
aVthird
p1455
aVtime
p1456
aV'have
p1457
aVyou
p1458
aVnot
p1459
aVdo
p1460
aVit
p1461
ag68
ag323
asg69
(lp1462
g71
ag71
ag71
ag71
ag71
ag71
ag71
ag71
ag71
ag71
ag71
ag71
ag71
ag71
ag71
ag71
ag71
ag71
ag71
ag71
ag71
ag71
ag71
ag71
ag71
ag71
ag71
ag71
ag71
ag71
ag71
ag71
ag71
ag71
ag71
ag71
ag71
ag71
asg72
(lp1463
g83
ag142
ag82
ag76
ag78
ag591
ag82
ag381
ag381
ag75
ag261
ag76
ag78
ag75
ag78
ag80
ag143
ag82
ag83
ag75
ag76
ag78
ag82
ag381
ag80
ag143
ag82
ag75
ag76
ag77
ag78
ag77
ag142
ag83
ag381
ag142
ag86
ag327
asg87
VThen she perceived the finger which had become golden from touching the fire of heaven, and saw well that the child had sinned, and said for the third time 'have you not done it.'
p1464
sba(i__main__
Sentence
p1465
(dp1466
g17
I25
sg18
(lp1467
S"'No"
p1468
aS','
p1469
aS'said'
p1470
aS'the'
p1471
aS'girl'
p1472
aS'for'
p1473
aS'the'
p1474
aS'third'
p1475
aS'time'
p1476
aS'.'
p1477
asg45
(lp1478
V'No
p1479
ag57
ag246
aVthe
p1480
aVgirl
p1481
aVfor
p1482
aVthe
p1483
aVthird
p1484
aVtime
p1485
ag68
asg69
(lp1486
g71
ag71
ag71
ag71
ag71
ag71
ag71
ag71
ag71
ag71
asg72
(lp1487
g78
ag80
ag82
ag76
ag78
ag75
ag76
ag77
ag78
ag86
asg87
V'No,  said the girl for the third time.
p1488
sba(i__main__
Sentence
p1489
(dp1490
g17
I26
sg18
(lp1491
S'Then'
p1492
aS'said'
p1493
aS'the'
p1494
aS'virgin'
p1495
aS'mary'
p1496
aS"'you"
p1497
aS'have'
p1498
aS'not'
p1499
aS'obeyed'
p1500
aS'me'
p1501
aS','
p1502
aS'and'
p1503
aS'besides'
p1504
aS'that'
p1505
aS'you'
p1506
aS'have'
p1507
aS'lied'
p1508
aS','
p1509
aS'you'
p1510
aS'are'
p1511
aS'no'
p1512
aS'longer'
p1513
aS'worthy'
p1514
aS'to'
p1515
aS'be'
p1516
aS'in'
p1517
aS'heaven'
p1518
aS'.'
p1519
aS"'"
p1520
asg45
(lp1521
VThen
p1522
ag246
aVthe
p1523
aVvirgin
p1524
aVmary
p1525
aV'you
p1526
aVhave
p1527
aVnot
p1528
aVobey
p1529
aVme
p1530
ag57
aVand
p1531
aVbesides
p1532
aVthat
p1533
aVyou
p1534
aVhave
p1535
aVlie
p1536
ag57
aVyou
p1537
ag300
aVno
p1538
aVlong
p1539
aVworthy
p1540
aVto
p1541
aVbe
p1542
aVin
p1543
aVheaven
p1544
ag68
ag323
asg69
(lp1545
g71
ag71
ag71
ag71
ag71
ag71
ag71
ag71
ag71
ag71
ag71
ag71
ag71
ag71
ag71
ag71
ag71
ag71
ag71
ag71
ag71
ag71
ag71
ag71
ag71
ag71
ag71
ag71
ag71
asg72
(lp1546
g83
ag82
ag76
ag78
ag78
ag142
ag263
ag83
ag381
ag142
ag80
ag143
ag264
ag75
ag142
ag263
ag381
ag80
ag142
ag263
ag76
aS'JJR'
p1547
ag77
ag146
ag144
ag75
ag84
ag86
ag327
asg87
VThen said the virgin mary 'you have not obeyed me, and besides that you have lied, you are no longer worthy to be in heaven.'
p1548
sba(i__main__
Sentence
p1549
(dp1550
g17
I27
sg18
(lp1551
S'Then'
p1552
aS'the'
p1553
aS'girl'
p1554
aS'fell'
p1555
aS'into'
p1556
aS'a'
p1557
aS'deep'
p1558
aS'sleep'
p1559
aS','
p1560
aS'and'
p1561
aS'when'
p1562
aS'she'
p1563
aS'awoke'
p1564
aS'she'
p1565
aS'lay'
p1566
aS'on'
p1567
aS'the'
p1568
aS'earth'
p1569
aS'below'
p1570
aS','
p1571
aS'and'
p1572
aS'in'
p1573
aS'the'
p1574
aS'midst'
p1575
aS'of'
p1576
aS'a'
p1577
aS'wilderness'
p1578
aS'.'
p1579
asg45
(lp1580
VThen
p1581
aVthe
p1582
aVgirl
p1583
aVfell
p1584
aVinto
p1585
ag49
aVdeep
p1586
aVsleep
p1587
ag57
aVand
p1588
aVwhen
p1589
aVshe
p1590
aVawake
p1591
aVshe
p1592
aVlay
p1593
aVon
p1594
aVthe
p1595
aVearth
p1596
aVbelow
p1597
ag57
aVand
p1598
aVin
p1599
aVthe
p1600
aVmidst
p1601
aVof
p1602
ag49
aVwilderness
p1603
ag68
asg69
(lp1604
g71
ag71
ag71
ag71
ag71
ag71
ag71
ag71
ag71
ag71
ag71
ag71
ag71
ag71
ag71
ag71
ag71
ag71
ag71
ag71
ag71
ag71
ag71
ag71
ag71
ag71
ag71
ag71
asg72
(lp1605
g83
ag76
ag78
ag82
ag75
ag76
ag77
ag78
ag80
ag143
ag145
ag142
ag263
ag142
ag82
ag75
ag76
ag77
ag75
ag80
ag143
ag75
ag76
ag78
ag75
ag76
ag78
ag86
asg87
VThen the girl fell into a deep sleep, and when she awoke she lay on the earth below, and in the midst of a wilderness.
p1606
sba(i__main__
Sentence
p1607
(dp1608
g17
I28
sg18
(lp1609
S'She'
p1610
aS'wanted'
p1611
aS'to'
p1612
aS'cry'
p1613
aS'out'
p1614
aS','
p1615
aS'but'
p1616
aS'she'
p1617
aS'could'
p1618
aS'bring'
p1619
aS'forth'
p1620
aS'no'
p1621
aS'sound'
p1622
aS'.'
p1623
asg45
(lp1624
VShe
p1625
aVwant
p1626
aVto
p1627
aVcry
p1628
aVout
p1629
ag57
aVbut
p1630
aVshe
p1631
aVcould
p1632
aVbring
p1633
aVforth
p1634
aVno
p1635
aVsound
p1636
ag68
asg69
(lp1637
g71
ag71
ag71
ag71
ag71
ag71
ag71
ag71
ag71
ag71
ag71
ag71
ag71
ag71
asg72
(lp1638
g142
ag82
ag146
ag144
ag382
ag80
ag143
ag142
ag326
ag144
ag77
ag76
ag78
ag86
asg87
VShe wanted to cry out, but she could bring forth no sound.
p1639
sba(i__main__
Sentence
p1640
(dp1641
g17
I29
sg18
(lp1642
S'She'
p1643
aS'sprang'
p1644
aS'up'
p1645
aS'and'
p1646
aS'wanted'
p1647
aS'to'
p1648
aS'run'
p1649
aS'away'
p1650
aS','
p1651
aS'but'
p1652
aS'whithersoever'
p1653
aS'she'
p1654
aS'turned'
p1655
aS'herself'
p1656
aS','
p1657
aS'she'
p1658
aS'was'
p1659
aS'continually'
p1660
aS'held'
p1661
aS'back'
p1662
aS'by'
p1663
aS'thick'
p1664
aS'hedges'
p1665
aS'of'
p1666
aS'thorns'
p1667
aS'through'
p1668
aS'which'
p1669
aS'she'
p1670
aS'could'
p1671
aS'not'
p1672
aS'break'
p1673
aS'.'
p1674
asg45
(lp1675
VShe
p1676
aVspring
p1677
aVup
p1678
aVand
p1679
aVwant
p1680
aVto
p1681
aVrun
p1682
aVaway
p1683
ag57
aVbut
p1684
aVwhithersoever
p1685
aVshe
p1686
aVturn
p1687
aVherself
p1688
ag57
aVshe
p1689
ag225
aVcontinually
p1690
aVhold
p1691
aVback
p1692
aVby
p1693
aVthick
p1694
aVhedge
p1695
aVof
p1696
aVthorn
p1697
aVthrough
p1698
aVwhich
p1699
aVshe
p1700
aVcould
p1701
aVnot
p1702
aVbreak
p1703
ag68
asg69
(lp1704
g71
ag71
ag71
ag71
ag71
ag71
ag71
ag71
ag71
ag71
ag71
ag71
ag71
ag71
ag71
ag71
ag71
ag71
ag71
ag71
ag71
ag71
ag71
ag71
ag71
ag71
ag71
ag71
ag71
ag71
ag71
ag71
asg72
(lp1705
g142
ag82
ag382
ag143
ag82
ag146
ag144
ag382
ag80
ag143
ag83
ag142
ag82
ag142
ag80
ag142
ag82
ag83
ag381
ag83
ag75
ag78
ag85
ag75
ag85
ag75
ag591
ag142
ag326
ag83
ag144
ag86
asg87
VShe sprang up and wanted to run away, but whithersoever she turned herself, she was continually held back by thick hedges of thorns through which she could not break.
p1706
sba(i__main__
Sentence
p1707
(dp1708
g17
I30
sg18
(lp1709
S'In'
p1710
aS'the'
p1711
aS'desert'
p1712
aS','
p1713
aS'in'
p1714
aS'which'
p1715
aS'she'
p1716
aS'was'
p1717
aS'imprisoned'
p1718
aS','
p1719
aS'there'
p1720
aS'stood'
p1721
aS'an'
p1722
aS'old'
p1723
aS'hollow'
p1724
aS'tree'
p1725
aS','
p1726
aS'and'
p1727
aS'this'
p1728
aS'had'
p1729
aS'to'
p1730
aS'be'
p1731
aS'her'
p1732
aS'dwelling-place'
p1733
aS'.'
p1734
asg45
(lp1735
VIn
p1736
aVthe
p1737
aVdesert
p1738
ag57
aVin
p1739
aVwhich
p1740
aVshe
p1741
ag225
aVimprison
p1742
ag57
aVthere
p1743
aVstood
p1744
aVan
p1745
aVold
p1746
aVhollow
p1747
aVtree
p1748
ag57
aVand
p1749
aVthis
p1750
ag59
aVto
p1751
aVbe
p1752
aVher
p1753
aVdwelling-place
p1754
ag68
asg69
(lp1755
g71
ag71
ag71
ag71
ag71
ag71
ag71
ag71
ag71
ag71
ag71
ag71
ag71
ag71
ag71
ag71
ag71
ag71
ag71
ag71
ag71
ag71
ag71
ag71
ag71
asg72
(lp1756
g75
ag76
ag78
ag80
ag75
ag591
ag142
ag82
ag381
ag80
ag262
ag78
ag76
ag77
ag78
ag78
ag80
ag143
ag76
ag82
ag146
ag144
ag79
ag78
ag86
asg87
VIn the desert, in which she was imprisoned, there stood an old hollow tree, and this had to be her dwelling-place.
p1757
sba(i__main__
Sentence
p1758
(dp1759
g17
I31
sg18
(lp1760
S'Into'
p1761
aS'this'
p1762
aS'she'
p1763
aS'crept'
p1764
aS'when'
p1765
aS'night'
p1766
aS'came'
p1767
aS','
p1768
aS'and'
p1769
aS'here'
p1770
aS'she'
p1771
aS'slept'
p1772
aS'.'
p1773
asg45
(lp1774
VInto
p1775
aVthis
p1776
aVshe
p1777
aVcreep
p1778
aVwhen
p1779
aVnight
p1780
aVcome
p1781
ag57
aVand
p1782
aVhere
p1783
aVshe
p1784
aVsleep
p1785
ag68
asg69
(lp1786
g71
ag71
ag71
ag71
ag71
ag71
ag71
ag71
ag71
ag71
ag71
ag71
ag71
asg72
(lp1787
g75
ag76
ag142
ag82
ag145
ag78
ag82
ag80
ag143
ag83
ag142
ag82
ag86
asg87
VInto this she crept when night came, and here she slept.
p1788
sba(i__main__
Sentence
p1789
(dp1790
g17
I32
sg18
(lp1791
S'Here'
p1792
aS','
p1793
aS'too'
p1794
aS','
p1795
aS'she'
p1796
aS'found'
p1797
aS'a'
p1798
aS'shelter'
p1799
aS'from'
p1800
aS'might'
p1801
aS','
p1802
aS'and'
p1803
aS'her'
p1804
aS'heart'
p1805
aS'beat'
p1806
aS'continually'
p1807
aS'and'
p1808
aS'would'
p1809
aS'not'
p1810
aS'be'
p1811
aS'still'
p1812
aS','
p1813
aS'the'
p1814
aS'gold'
p1815
aS'too'
p1816
aS'stayed'
p1817
aS'on'
p1818
aS'her'
p1819
aS'finger'
p1820
aS','
p1821
aS'and'
p1822
aS'would'
p1823
aS'not'
p1824
aS'go'
p1825
aS'away'
p1826
aS','
p1827
aS'let'
p1828
aS'her'
p1829
aS'rub'
p1830
aS'it'
p1831
aS'and'
p1832
aS'wash'
p1833
aS'it'
p1834
aS'never'
p1835
aS'so'
p1836
aS'much'
p1837
aS'.'
p1838
asg45
(lp1839
VHere
p1840
ag57
aVtoo
p1841
ag57
aVshe
p1842
aVfind
p1843
ag49
aVshelter
p1844
aVfrom
p1845
aVmight
p1846
ag57
aVand
p1847
aVher
p1848
aVheart
p1849
aVbeat
p1850
aVcontinually
p1851
aVand
p1852
aVwould
p1853
aVnot
p1854
aVbe
p1855
aVstill
p1856
ag57
aVthe
p1857
aVgold
p1858
aVtoo
p1859
aVstay
p1860
aVon
p1861
aVher
p1862
aVfinger
p1863
ag57
aVand
p1864
aVwould
p1865
aVnot
p1866
aVgo
p1867
aVaway
p1868
ag57
aVlet
p1869
aVher
p1870
aVrub
p1871
aVit
p1872
aVand
p1873
aVwash
p1874
aVit
p1875
aVnever
p1876
aVso
p1877
aVmuch
p1878
ag68
asg69
(lp1879
g71
ag71
ag71
ag71
ag71
ag71
ag71
ag71
ag71
ag71
ag71
ag71
ag71
ag71
ag71
ag71
ag71
ag71
ag71
ag71
ag71
ag71
ag71
ag71
ag71
ag71
ag71
ag71
ag71
ag71
ag71
ag71
ag71
ag71
ag71
ag71
ag71
ag71
ag71
ag71
ag71
ag71
ag71
ag71
ag71
ag71
ag71
asg72
(lp1880
g83
ag80
ag83
ag80
ag142
ag82
ag76
ag78
ag75
ag326
ag80
ag143
ag79
ag78
ag78
ag83
ag143
ag326
ag83
ag144
ag83
ag80
ag76
ag78
ag83
ag381
ag75
ag79
ag78
ag80
ag143
ag326
ag83
ag144
ag83
ag80
ag144
ag142
ag144
ag142
ag143
ag78
ag142
ag83
ag83
ag83
ag86
asg87
VHere, too, she found a shelter from might, and her heart beat continually and would not be still, the gold too stayed on her finger, and  would not go away, let  her rub it and wash  it never so much.
p1881
sba(i__main__
Sentence
p1882
(dp1883
g17
I33
sg18
(lp1884
S'It'
p1885
aS'was'
p1886
aS'not'
p1887
aS'long'
p1888
aS'before'
p1889
aS'the'
p1890
aS'virgin'
p1891
aS'mary'
p1892
aS'came'
p1893
aS'back'
p1894
aS'from'
p1895
aS'her'
p1896
aS'journey'
p1897
aS'.'
p1898
asg45
(lp1899
VIt
p1900
ag225
aVnot
p1901
aVlong
p1902
aVbefore
p1903
aVthe
p1904
aVvirgin
p1905
aVmary
p1906
ag1781
aVback
p1907
aVfrom
p1908
aVher
p1909
aVjourney
p1910
ag68
asg69
(lp1911
g71
ag71
ag71
ag71
ag71
ag71
ag71
ag71
ag71
ag71
ag71
ag71
ag71
ag71
asg72
(lp1912
g142
ag82
ag83
ag83
ag75
ag76
ag78
ag78
ag82
ag83
ag75
ag79
ag78
ag86
asg87
VIt was not long  before the virgin mary came back from  her journey.
p1913
sba(i__main__
Sentence
p1914
(dp1915
g17
I34
sg18
(lp1916
S'She'
p1917
aS'called'
p1918
aS'the'
p1919
aS'girl'
p1920
aS'before'
p1921
aS'her'
p1922
aS','
p1923
aS'and'
p1924
aS'asked'
p1925
aS'to'
p1926
aS'have'
p1927
aS'the'
p1928
aS'keys'
p1929
aS'of'
p1930
aS'heaven'
p1931
aS'back'
p1932
aS'.'
p1933
asg45
(lp1934
VShe
p1935
aVcall
p1936
aVthe
p1937
aVgirl
p1938
aVbefore
p1939
aVher
p1940
ag57
aVand
p1941
aVask
p1942
aVto
p1943
aVhave
p1944
aVthe
p1945
aVkey
p1946
aVof
p1947
aVheaven
p1948
aVback
p1949
ag68
asg69
(lp1950
g71
ag71
ag71
ag71
ag71
ag71
ag71
ag71
ag71
ag71
ag71
ag71
ag71
ag71
ag71
ag71
ag71
asg72
(lp1951
g142
ag82
ag76
ag78
ag75
ag79
ag80
ag143
ag82
ag146
ag144
ag76
ag85
ag75
ag77
ag78
ag86
asg87
VShe called the girl  before her, and asked  to have the keys  of heaven back.
p1952
sba(i__main__
Sentence
p1953
(dp1954
g17
I35
sg18
(lp1955
S'When'
p1956
aS'the'
p1957
aS'maiden'
p1958
aS'gave'
p1959
aS'her'
p1960
aS'the'
p1961
aS'bunch'
p1962
aS','
p1963
aS'the'
p1964
aS'virgin'
p1965
aS'looked'
p1966
aS'into'
p1967
aS'her'
p1968
aS'eyes'
p1969
aS'and'
p1970
aS'said'
p1971
aS"'have"
p1972
aS'you'
p1973
aS'not'
p1974
aS'opened'
p1975
aS'the'
p1976
aS'thirteenth'
p1977
aS'door'
p1978
aS'also'
p1979
aS'.'
p1980
aS"'"
p1981
asg45
(lp1982
VWhen
p1983
aVthe
p1984
aVmaiden
p1985
ag365
aVher
p1986
aVthe
p1987
aVbunch
p1988
ag57
aVthe
p1989
aVvirgin
p1990
aVlook
p1991
aVinto
p1992
aVher
p1993
aVeye
p1994
aVand
p1995
ag246
aV'have
p1996
aVyou
p1997
aVnot
p1998
aVopen
p1999
aVthe
p2000
aVthirteenth
p2001
aVdoor
p2002
aValso
p2003
ag68
ag323
asg69
(lp2004
g71
ag71
ag71
ag71
ag71
ag71
ag71
ag71
ag71
ag71
ag71
ag71
ag71
ag71
ag71
ag71
ag71
ag71
ag71
ag71
ag71
ag71
ag71
ag71
ag71
ag71
asg72
(lp2005
g145
ag76
ag78
ag82
ag142
ag76
ag78
ag80
ag76
ag78
ag82
ag75
ag79
ag85
ag143
ag82
ag77
ag142
ag83
ag381
ag76
ag78
ag78
ag83
ag86
ag327
asg87
VWhen the maiden gave  her the bunch, the virgin looked  into her eyes and said 'have you not opened the thirteenth door also.'
p2006
sba(i__main__
Sentence
p2007
(dp2008
g17
I36
sg18
(lp2009
S"'No"
p2010
aS','
p2011
aS'she'
p2012
aS'replied'
p2013
aS'.'
p2014
asg45
(lp2015
V'No
p2016
ag57
aVshe
p2017
aVreply
p2018
ag68
asg69
(lp2019
g71
ag71
ag71
ag71
ag71
asg72
(lp2020
g78
ag80
ag142
ag82
ag86
asg87
V'No, she replied.
p2021
sba(i__main__
Sentence
p2022
(dp2023
g17
I37
sg18
(lp2024
S'Then'
p2025
aS'she'
p2026
aS'laid'
p2027
aS'her'
p2028
aS'hand'
p2029
aS'on'
p2030
aS'the'
p2031
aS'girl'
p2032
aS"'s"
p2033
aS'heart'
p2034
aS','
p2035
aS'and'
p2036
aS'felt'
p2037
aS'how'
p2038
aS'it'
p2039
aS'beat'
p2040
aS'and'
p2041
aS'beat'
p2042
aS','
p2043
aS'and'
p2044
aS'saw'
p2045
aS'right'
p2046
aS'well'
p2047
aS'that'
p2048
aS'she'
p2049
aS'had'
p2050
aS'disobeyed'
p2051
aS'her'
p2052
aS'order'
p2053
aS'and'
p2054
aS'had'
p2055
aS'opened'
p2056
aS'the'
p2057
aS'door'
p2058
aS'.'
p2059
asg45
(lp2060
VThen
p2061
aVshe
p2062
aVlay
p2063
aVher
p2064
aVhand
p2065
aVon
p2066
aVthe
p2067
aVgirl
p2068
aV's
p2069
aVheart
p2070
ag57
aVand
p2071
aVfelt
p2072
aVhow
p2073
aVit
p2074
aVbeat
p2075
aVand
p2076
aVbeat
p2077
ag57
aVand
p2078
aVsaw
p2079
aVright
p2080
aVwell
p2081
aVthat
p2082
aVshe
p2083
ag59
aVdisobey
p2084
aVher
p2085
aVorder
p2086
aVand
p2087
ag59
aVopen
p2088
aVthe
p2089
aVdoor
p2090
ag68
asg69
(lp2091
g71
ag71
ag71
ag71
ag71
ag71
ag71
ag71
ag71
ag71
ag71
ag71
ag71
ag71
ag71
ag71
ag71
ag71
ag71
ag71
ag71
ag71
ag71
ag71
ag71
ag71
ag71
ag71
ag71
ag71
ag71
ag71
ag71
ag71
ag71
asg72
(lp2092
g83
ag142
ag82
ag79
ag78
ag75
ag76
ag78
aS'POS'
p2093
ag78
ag80
ag143
ag82
ag145
ag142
ag82
ag143
ag144
ag80
ag143
ag82
ag83
ag83
ag75
ag142
ag82
ag381
ag79
ag78
ag143
ag82
ag381
ag76
ag78
ag86
asg87
VThen she laid her hand on the girl's heart, and felt how it beat and beat, and  saw right well  that she  had disobeyed her  order and  had opened the door.
p2094
sba(i__main__
Sentence
p2095
(dp2096
g17
I38
sg18
(lp2097
S'Then'
p2098
aS'she'
p2099
aS'said'
p2100
aS'once'
p2101
aS'again'
p2102
aS"'are"
p2103
aS'you'
p2104
aS'certain'
p2105
aS'that'
p2106
aS'you'
p2107
aS'have'
p2108
aS'not'
p2109
aS'done'
p2110
aS'it'
p2111
aS'.'
p2112
aS"'"
p2113
asg45
(lp2114
VThen
p2115
aVshe
p2116
ag246
aVonce
p2117
aVagain
p2118
aV'are
p2119
aVyou
p2120
aVcertain
p2121
aVthat
p2122
aVyou
p2123
aVhave
p2124
aVnot
p2125
ag1460
aVit
p2126
ag68
ag323
asg69
(lp2127
g71
ag71
ag71
ag71
ag71
ag71
ag71
ag71
ag71
ag71
ag71
ag71
ag71
ag71
ag71
ag71
asg72
(lp2128
g83
ag142
ag82
ag83
ag83
ag77
ag142
ag77
ag75
ag142
ag263
ag83
ag381
ag142
ag86
ag327
asg87
VThen she said once again 'are you certain that you  have not done it.'
p2129
sba(i__main__
Sentence
p2130
(dp2131
g17
I39
sg18
(lp2132
S'storm'
p2133
aS'and'
p2134
aS'rain'
p2135
aS','
p2136
aS'but'
p2137
aS'it'
p2138
aS'was'
p2139
aS'a'
p2140
aS'miserable'
p2141
aS'life'
p2142
aS','
p2143
aS'and'
p2144
aS'bitterly'
p2145
aS'did'
p2146
aS'she'
p2147
aS'weep'
p2148
aS'when'
p2149
aS'she'
p2150
aS'remembered'
p2151
aS'how'
p2152
aS'happy'
p2153
aS'she'
p2154
aS'had'
p2155
aS'been'
p2156
aS'in'
p2157
aS'heaven'
p2158
aS','
p2159
aS'and'
p2160
aS'how'
p2161
aS'the'
p2162
aS'angels'
p2163
aS'had'
p2164
aS'played'
p2165
aS'with'
p2166
aS'her'
p2167
aS'.'
p2168
asg45
(lp2169
Vstorm
p2170
aVand
p2171
aVrain
p2172
ag57
aVbut
p2173
aVit
p2174
ag225
ag49
aVmiserable
p2175
aVlife
p2176
ag57
aVand
p2177
aVbitterly
p2178
ag131
aVshe
p2179
aVweep
p2180
aVwhen
p2181
aVshe
p2182
aVremember
p2183
aVhow
p2184
aVhappy
p2185
aVshe
p2186
ag59
aVbe
p2187
aVin
p2188
aVheaven
p2189
ag57
aVand
p2190
aVhow
p2191
aVthe
p2192
aVangel
p2193
ag59
aVplay
p2194
aVwith
p2195
aVher
p2196
ag68
asg69
(lp2197
g71
ag71
ag71
ag71
ag71
ag71
ag71
ag71
ag71
ag71
ag71
ag71
ag71
ag71
ag71
ag71
ag71
ag71
ag71
ag71
ag71
ag71
ag71
ag71
ag71
ag71
ag71
ag71
ag71
ag71
ag71
ag71
ag71
ag71
ag71
ag71
asg72
(lp2198
g78
ag143
ag78
ag80
ag143
ag142
ag82
ag76
ag77
ag78
ag80
ag143
ag83
ag82
ag142
ag144
ag145
ag142
ag82
ag145
ag77
ag142
ag82
ag381
ag75
ag84
ag80
ag143
ag145
ag76
ag85
ag82
ag381
ag75
ag79
ag86
asg87
Vstorm and rain, but it was a miserable life, and bitterly did she weep when she remembered how happy she had been in heaven, and how the angels had played with her.
p2199
sba(i__main__
Sentence
p2200
(dp2201
g17
I40
sg18
(lp2202
S'Roots'
p2203
aS'and'
p2204
aS'wild'
p2205
aS'berries'
p2206
aS'were'
p2207
aS'her'
p2208
aS'only'
p2209
aS'food'
p2210
aS','
p2211
aS'and'
p2212
aS'for'
p2213
aS'these'
p2214
aS'she'
p2215
aS'sought'
p2216
aS'as'
p2217
aS'far'
p2218
aS'as'
p2219
aS'she'
p2220
aS'could'
p2221
aS'go'
p2222
aS'.'
p2223
asg45
(lp2224
VRoots
p2225
aVand
p2226
aVwild
p2227
aVberry
p2228
ag120
aVher
p2229
aVonly
p2230
aVfood
p2231
ag57
aVand
p2232
aVfor
p2233
aVthese
p2234
aVshe
p2235
ag1156
ag49
aVfar
p2236
ag49
aVshe
p2237
aVcould
p2238
aVgo
p2239
ag68
asg69
(lp2240
g71
ag71
ag71
ag71
ag71
ag71
ag71
ag71
ag71
ag71
ag71
ag71
ag71
ag71
ag71
ag71
ag71
ag71
ag71
ag71
ag71
asg72
(lp2241
g85
ag143
ag144
ag85
ag82
ag142
ag83
ag78
ag80
ag143
ag75
ag76
ag142
ag82
ag75
ag83
ag75
ag142
ag326
ag144
ag86
asg87
VRoots and wild berries were her only food, and for these she sought as far as she could go.
p2242
sba(i__main__
Sentence
p2243
(dp2244
g17
I41
sg18
(lp2245
S'In'
p2246
aS'the'
p2247
aS'autumn'
p2248
aS'she'
p2249
aS'picked'
p2250
aS'up'
p2251
aS'the'
p2252
aS'fallen'
p2253
aS'nuts'
p2254
aS'and'
p2255
aS'leaves'
p2256
aS','
p2257
aS'and'
p2258
aS'carried'
p2259
aS'them'
p2260
aS'into'
p2261
aS'the'
p2262
aS'hole'
p2263
aS'.'
p2264
asg45
(lp2265
VIn
p2266
aVthe
p2267
aVautumn
p2268
aVshe
p2269
aVpick
p2270
aVup
p2271
aVthe
p2272
aVfallen
p2273
aVnut
p2274
aVand
p2275
aVleaf
p2276
ag57
aVand
p2277
aVcarry
p2278
aVthem
p2279
aVinto
p2280
aVthe
p2281
aVhole
p2282
ag68
asg69
(lp2283
g71
ag71
ag71
ag71
ag71
ag71
ag71
ag71
ag71
ag71
ag71
ag71
ag71
ag71
ag71
ag71
ag71
ag71
ag71
asg72
(lp2284
g75
ag76
ag78
ag142
ag82
ag382
ag76
ag78
ag85
ag143
ag85
ag80
ag143
ag82
ag142
ag75
ag76
ag77
ag86
asg87
VIn the autumn she picked up the fallen nuts and leaves, and carried them into the hole.
p2285
sba(i__main__
Sentence
p2286
(dp2287
g17
I42
sg18
(lp2288
S'The'
p2289
aS'nuts'
p2290
aS'were'
p2291
aS'her'
p2292
aS'food'
p2293
aS'in'
p2294
aS'winter'
p2295
aS','
p2296
aS'and'
p2297
aS'when'
p2298
aS'snow'
p2299
aS'and'
p2300
aS'ice'
p2301
aS'came'
p2302
aS','
p2303
aS'she'
p2304
aS'crept'
p2305
aS'amongst'
p2306
aS'the'
p2307
aS'leaves'
p2308
aS'like'
p2309
aS'a'
p2310
aS'poor'
p2311
aS'little'
p2312
aS'animal'
p2313
aS'that'
p2314
aS'she'
p2315
aS'might'
p2316
aS'not'
p2317
aS'freeze'
p2318
aS'.'
p2319
asg45
(lp2320
VThe
p2321
aVnut
p2322
ag120
aVher
p2323
aVfood
p2324
aVin
p2325
aVwinter
p2326
ag57
aVand
p2327
aVwhen
p2328
aVsnow
p2329
aVand
p2330
aVice
p2331
ag1781
ag57
aVshe
p2332
ag1778
aVamongst
p2333
aVthe
p2334
ag2276
aVlike
p2335
ag49
aVpoor
p2336
aVlittle
p2337
aVanimal
p2338
aVthat
p2339
aVshe
p2340
aVmight
p2341
aVnot
p2342
aVfreeze
p2343
ag68
asg69
(lp2344
g71
ag71
ag71
ag71
ag71
ag71
ag71
ag71
ag71
ag71
ag71
ag71
ag71
ag71
ag71
ag71
ag71
ag71
ag71
ag71
ag71
ag71
ag71
ag71
ag71
ag71
ag71
ag71
ag71
ag71
ag71
asg72
(lp2345
g76
ag85
ag82
ag142
ag78
ag75
ag78
ag80
ag143
ag145
ag78
ag143
ag78
ag82
ag80
ag142
ag82
ag77
ag76
ag85
ag75
ag76
ag77
ag77
ag77
ag75
ag142
ag326
ag83
ag144
ag86
asg87
VThe nuts were her food in winter, and when snow and ice came, she crept amongst the leaves like a poor little animal that she might not freeze.
p2346
sba(i__main__
Sentence
p2347
(dp2348
g17
I43
sg18
(lp2349
S'Before'
p2350
aS'long'
p2351
aS'her'
p2352
aS'clothes'
p2353
aS'were'
p2354
aS'all'
p2355
aS'torn'
p2356
aS','
p2357
aS'and'
p2358
aS'one'
p2359
aS'bit'
p2360
aS'of'
p2361
aS'them'
p2362
aS'after'
p2363
aS'another'
p2364
aS'fell'
p2365
aS'off'
p2366
aS'her'
p2367
aS'.'
p2368
asg45
(lp2369
VBefore
p2370
aVlong
p2371
aVher
p2372
aVclothes
p2373
ag120
aVall
p2374
aVtorn
p2375
ag57
aVand
p2376
aVone
p2377
aVbit
p2378
aVof
p2379
aVthem
p2380
aVafter
p2381
aVanother
p2382
aVfell
p2383
aVoff
p2384
aVher
p2385
ag68
asg69
(lp2386
g71
ag71
ag71
ag71
ag71
ag71
ag71
ag71
ag71
ag71
ag71
ag71
ag71
ag71
ag71
ag71
ag71
ag71
ag71
asg72
(lp2387
g75
ag83
ag79
ag85
ag82
ag76
ag78
ag80
ag143
ag84
ag78
ag75
ag142
ag75
ag76
ag78
ag75
ag79
ag86
asg87
VBefore long her clothes were all torn, and one bit of them after another fell off her.
p2388
sba(i__main__
Sentence
p2389
(dp2390
g17
I44
sg18
(lp2391
S'As'
p2392
aS'soon'
p2393
aS','
p2394
aS'however'
p2395
aS','
p2396
aS'as'
p2397
aS'the'
p2398
aS'sun'
p2399
aS'shone'
p2400
aS'warm'
p2401
aS'again'
p2402
aS','
p2403
aS'she'
p2404
aS'went'
p2405
aS'out'
p2406
aS'and'
p2407
aS'sat'
p2408
aS'in'
p2409
aS'front'
p2410
aS'of'
p2411
aS'the'
p2412
aS'tree'
p2413
aS','
p2414
aS'and'
p2415
aS'her'
p2416
aS'long'
p2417
aS'hair'
p2418
aS'covered'
p2419
aS'her'
p2420
aS'on'
p2421
aS'all'
p2422
aS'sides'
p2423
aS'like'
p2424
aS'a'
p2425
aS'mantle'
p2426
aS'.'
p2427
asg45
(lp2428
VAs
p2429
aVsoon
p2430
ag57
aVhowever
p2431
ag57
ag49
aVthe
p2432
aVsun
p2433
aVshone
p2434
aVwarm
p2435
aVagain
p2436
ag57
aVshe
p2437
aVgo
p2438
aVout
p2439
aVand
p2440
aVsit
p2441
aVin
p2442
aVfront
p2443
aVof
p2444
aVthe
p2445
aVtree
p2446
ag57
aVand
p2447
aVher
p2448
aVlong
p2449
aVhair
p2450
aVcover
p2451
aVher
p2452
aVon
p2453
aVall
p2454
aVside
p2455
aVlike
p2456
ag49
aVmantle
p2457
ag68
asg69
(lp2458
g71
ag71
ag71
ag71
ag71
ag71
ag71
ag71
ag71
ag71
ag71
ag71
ag71
ag71
ag71
ag71
ag71
ag71
ag71
ag71
ag71
ag71
ag71
ag71
ag71
ag71
ag71
ag71
ag71
ag71
ag71
ag71
ag71
ag71
ag71
ag71
asg72
(lp2459
g75
ag83
ag80
ag83
ag80
ag75
ag76
ag78
ag78
ag78
ag83
ag80
ag142
ag82
ag382
ag143
ag144
ag75
ag78
ag75
ag76
ag78
ag80
ag143
ag79
ag77
ag78
ag381
ag79
ag75
ag76
ag85
ag75
ag76
ag78
ag86
asg87
VAs soon, however, as the sun shone warm again, she went out and sat in front of the tree, and her long hair covered her on all sides like a mantle.
p2460
sba(i__main__
Sentence
p2461
(dp2462
g17
I45
sg18
(lp2463
S'Thus'
p2464
aS'she'
p2465
aS'sat'
p2466
aS'year'
p2467
aS'after'
p2468
aS'year'
p2469
aS','
p2470
aS'and'
p2471
aS'felt'
p2472
aS'the'
p2473
aS'pain'
p2474
aS'and'
p2475
aS'the'
p2476
aS'misery'
p2477
aS'of'
p2478
aS'the'
p2479
aS'world'
p2480
aS'.'
p2481
asg45
(lp2482
VThus
p2483
aVshe
p2484
ag2441
aVyear
p2485
aVafter
p2486
aVyear
p2487
ag57
aVand
p2488
aVfelt
p2489
aVthe
p2490
aVpain
p2491
aVand
p2492
aVthe
p2493
aVmisery
p2494
aVof
p2495
aVthe
p2496
aVworld
p2497
ag68
asg69
(lp2498
g71
ag71
ag71
ag71
ag71
ag71
ag71
ag71
ag71
ag71
ag71
ag71
ag71
ag71
ag71
ag71
ag71
ag71
asg72
(lp2499
g83
ag142
ag82
ag78
ag75
ag78
ag80
ag143
ag82
ag76
ag78
ag143
ag76
ag78
ag75
ag76
ag78
ag86
asg87
VThus she sat year after year, and felt the pain and the misery of the world.
p2500
sba(i__main__
Sentence
p2501
(dp2502
g17
I46
sg18
(lp2503
S'One'
p2504
aS'day'
p2505
aS','
p2506
aS'when'
p2507
aS'the'
p2508
aS'trees'
p2509
aS'were'
p2510
aS'once'
p2511
aS'more'
p2512
aS'clothed'
p2513
aS'in'
p2514
aS'fresh'
p2515
aS'green'
p2516
aS','
p2517
aS'the'
p2518
aS'king'
p2519
aS'of'
p2520
aS'the'
p2521
aS'country'
p2522
aS'was'
p2523
aS'hunting'
p2524
aS'in'
p2525
aS'the'
p2526
aS'forest'
p2527
aS','
p2528
aS'and'
p2529
aS'followed'
p2530
aS'a'
p2531
aS'roe'
p2532
aS','
p2533
aS'and'
p2534
aS'as'
p2535
aS'it'
p2536
aS'had'
p2537
aS'fled'
p2538
aS'into'
p2539
aS'the'
p2540
aS'thicket'
p2541
aS'which'
p2542
aS'shut'
p2543
aS'in'
p2544
aS'this'
p2545
aS'part'
p2546
aS'of'
p2547
aS'the'
p2548
aS'forest'
p2549
aS','
p2550
aS'he'
p2551
aS'got'
p2552
aS'off'
p2553
aS'his'
p2554
aS'horse'
p2555
aS','
p2556
aS'tore'
p2557
aS'the'
p2558
aS'bushes'
p2559
aS'asunder'
p2560
aS','
p2561
aS'and'
p2562
aS'cut'
p2563
aS'himself'
p2564
aS'a'
p2565
aS'path'
p2566
aS'with'
p2567
aS'his'
p2568
aS'sword'
p2569
aS'.'
p2570
asg45
(lp2571
VOne
p2572
aVday
p2573
ag57
aVwhen
p2574
aVthe
p2575
aVtree
p2576
ag120
aVonce
p2577
aVmore
p2578
aVclothed
p2579
aVin
p2580
aVfresh
p2581
aVgreen
p2582
ag57
aVthe
p2583
aVking
p2584
aVof
p2585
aVthe
p2586
aVcountry
p2587
ag225
aVhunt
p2588
aVin
p2589
aVthe
p2590
aVforest
p2591
ag57
aVand
p2592
aVfollow
p2593
ag49
aVroe
p2594
ag57
aVand
p2595
ag49
aVit
p2596
ag59
aVflee
p2597
aVinto
p2598
aVthe
p2599
aVthicket
p2600
aVwhich
p2601
aVshut
p2602
aVin
p2603
aVthis
p2604
aVpart
p2605
aVof
p2606
aVthe
p2607
aVforest
p2608
ag57
aVhe
p2609
ag1163
aVoff
p2610
aVhis
p2611
aVhorse
p2612
ag57
aVtore
p2613
aVthe
p2614
aVbush
p2615
aVasunder
p2616
ag57
aVand
p2617
aVcut
p2618
aVhimself
p2619
ag49
aVpath
p2620
aVwith
p2621
aVhis
p2622
aVsword
p2623
ag68
asg69
(lp2624
g71
ag71
ag71
ag71
ag71
ag71
ag71
ag71
ag71
ag71
ag71
ag71
ag71
ag71
ag71
ag71
ag71
ag71
ag71
ag71
ag71
ag71
ag71
ag71
ag71
ag71
ag71
ag71
ag71
ag71
ag71
ag71
ag71
ag71
ag71
ag71
ag71
ag71
ag71
ag71
ag71
ag71
ag71
ag71
ag71
ag71
ag71
ag71
ag71
ag71
ag71
ag71
ag71
ag71
ag71
ag71
ag71
ag71
ag71
ag71
ag71
ag71
ag71
ag71
ag71
ag71
ag71
asg72
(lp2625
g84
ag78
ag80
ag145
ag76
ag85
ag82
ag83
aS'RBR'
p2626
ag77
ag75
ag77
ag77
ag80
ag76
ag78
ag75
ag76
ag78
ag82
ag261
ag75
ag76
ag78
ag80
ag143
ag82
ag76
ag78
ag80
ag143
ag75
ag142
ag82
ag381
ag75
ag76
ag78
ag591
ag78
ag75
ag76
ag78
ag75
ag76
aS'JJS'
p2627
ag80
ag142
ag82
ag382
ag79
ag78
ag80
ag83
ag76
ag85
ag263
ag80
ag143
ag82
ag142
ag76
ag78
ag75
ag79
ag78
ag86
asg87
VOne day, when the trees were once more clothed in fresh green, the king of the country was hunting in the forest, and followed a roe, and as it had fled into the thicket which shut in this part of the forest, he got off his horse, tore the bushes asunder, and cut himself a path with his sword.
p2628
sba(i__main__
Sentence
p2629
(dp2630
g17
I47
sg18
(lp2631
S'When'
p2632
aS'he'
p2633
aS'had'
p2634
aS'at'
p2635
aS'last'
p2636
aS'forced'
p2637
aS'his'
p2638
aS'way'
p2639
aS'through'
p2640
aS','
p2641
aS'he'
p2642
aS'saw'
p2643
aS'a'
p2644
aS'wonderfully'
p2645
aS'beautiful'
p2646
aS'maiden'
p2647
aS'sitting'
p2648
aS'under'
p2649
aS'the'
p2650
aS'tree'
p2651
aS','
p2652
aS'and'
p2653
aS'she'
p2654
aS'sat'
p2655
aS'there'
p2656
aS'and'
p2657
aS'was'
p2658
aS'entirely'
p2659
aS'covered'
p2660
aS'with'
p2661
aS'her'
p2662
aS'golden'
p2663
aS'hair'
p2664
aS'down'
p2665
aS'to'
p2666
aS'her'
p2667
aS'very'
p2668
aS'feet'
p2669
aS'.'
p2670
asg45
(lp2671
VWhen
p2672
aVhe
p2673
ag59
aVat
p2674
aVlast
p2675
aVforce
p2676
aVhis
p2677
aVway
p2678
aVthrough
p2679
ag57
aVhe
p2680
aVsaw
p2681
ag49
aVwonderfully
p2682
aVbeautiful
p2683
aVmaiden
p2684
ag1221
aVunder
p2685
aVthe
p2686
aVtree
p2687
ag57
aVand
p2688
aVshe
p2689
ag2441
aVthere
p2690
aVand
p2691
ag225
aVentirely
p2692
aVcover
p2693
aVwith
p2694
aVher
p2695
aVgolden
p2696
aVhair
p2697
aVdown
p2698
aVto
p2699
aVher
p2700
aVvery
p2701
aVfoot
p2702
ag68
asg69
(lp2703
g71
ag71
ag71
ag71
ag71
ag71
ag71
ag71
ag71
ag71
ag71
ag71
ag71
ag71
ag71
ag71
ag71
ag71
ag71
ag71
ag71
ag71
ag71
ag71
ag71
ag71
ag71
ag71
ag71
ag71
ag71
ag71
ag71
ag71
ag71
ag71
ag71
ag71
ag71
asg72
(lp2704
g145
ag142
ag82
ag75
ag77
ag381
ag79
ag78
ag75
ag80
ag142
ag82
ag76
ag83
ag77
ag78
ag261
ag75
ag76
ag78
ag80
ag143
ag142
ag82
ag83
ag143
ag82
ag83
ag381
ag75
ag79
ag77
ag78
ag75
ag146
ag79
ag78
ag78
ag86
asg87
VWhen he had at last forced his way through, he saw a wonderfully beautiful maiden sitting under the tree, and she sat there and was entirely covered with her golden hair down to her very feet.
p2705
sba(i__main__
Sentence
p2706
(dp2707
g17
I48
sg18
(lp2708
S'He'
p2709
aS'stood'
p2710
aS'still'
p2711
aS'and'
p2712
aS'looked'
p2713
aS'at'
p2714
aS'her'
p2715
aS'full'
p2716
aS'of'
p2717
aS'surprise'
p2718
aS','
p2719
aS'then'
p2720
aS'he'
p2721
aS'spoke'
p2722
aS'to'
p2723
aS'her'
p2724
aS'and'
p2725
aS'said'
p2726
aS"'who"
p2727
aS'are'
p2728
aS'you'
p2729
aS'.'
p2730
asg45
(lp2731
VHe
p2732
aVstand
p2733
aVstill
p2734
aVand
p2735
aVlook
p2736
aVat
p2737
aVher
p2738
aVfull
p2739
aVof
p2740
aVsurprise
p2741
ag57
aVthen
p2742
aVhe
p2743
aVspeak
p2744
aVto
p2745
aVher
p2746
aVand
p2747
ag246
aV'who
p2748
ag300
aVyou
p2749
ag68
asg69
(lp2750
g71
ag71
ag71
ag71
ag71
ag71
ag71
ag71
ag71
ag71
ag71
ag71
ag71
ag71
ag71
ag71
ag71
ag71
ag71
ag71
ag71
ag71
asg72
(lp2751
g142
ag82
ag83
ag143
ag82
ag75
ag79
ag77
ag75
ag78
ag80
ag83
ag142
ag82
ag146
ag79
ag143
ag82
ag916
ag263
ag142
ag86
asg87
VHe stood still and looked at her full of surprise, then he spoke to her and said 'who are you.
p2752
sba(i__main__
Sentence
p2753
(dp2754
g17
I49
sg18
(lp2755
S'Why'
p2756
aS'are'
p2757
aS'you'
p2758
aS'sitting'
p2759
aS'here'
p2760
aS'in'
p2761
aS'the'
p2762
aS'wilderness'
p2763
aS'.'
p2764
aS"'"
p2765
asg45
(lp2766
VWhy
p2767
ag300
aVyou
p2768
ag1221
aVhere
p2769
aVin
p2770
aVthe
p2771
aVwilderness
p2772
ag68
ag323
asg69
(lp2773
g71
ag71
ag71
ag71
ag71
ag71
ag71
ag71
ag71
ag71
asg72
(lp2774
g145
ag263
ag142
ag261
ag83
ag75
ag76
ag78
ag86
ag327
asg87
VWhy are you sitting here in the wilderness.'
p2775
sba(i__main__
Sentence
p2776
(dp2777
g17
I50
sg18
(lp2778
S'But'
p2779
aS'she'
p2780
aS'gave'
p2781
aS'no'
p2782
aS'answer'
p2783
aS','
p2784
aS'for'
p2785
aS'she'
p2786
aS'could'
p2787
aS'not'
p2788
aS'open'
p2789
aS'her'
p2790
aS'mouth'
p2791
aS'.'
p2792
asg45
(lp2793
VBut
p2794
aVshe
p2795
ag365
aVno
p2796
aVanswer
p2797
ag57
aVfor
p2798
aVshe
p2799
aVcould
p2800
aVnot
p2801
aVopen
p2802
aVher
p2803
aVmouth
p2804
ag68
asg69
(lp2805
g71
ag71
ag71
ag71
ag71
ag71
ag71
ag71
ag71
ag71
ag71
ag71
ag71
ag71
asg72
(lp2806
g143
ag142
ag82
ag76
ag78
ag80
ag75
ag142
ag326
ag83
ag144
ag79
ag78
ag86
asg87
VBut she gave no answer, for she could not open her mouth.
p2807
sba(i__main__
Sentence
p2808
(dp2809
g17
I51
sg18
(lp2810
S'The'
p2811
aS'king'
p2812
aS'continued'
p2813
aS"'will"
p2814
aS'you'
p2815
aS'go'
p2816
aS'with'
p2817
aS'me'
p2818
aS'to'
p2819
aS'my'
p2820
aS'castle'
p2821
aS'.'
p2822
asg45
(lp2823
VThe
p2824
aVking
p2825
aVcontinue
p2826
aV'will
p2827
aVyou
p2828
aVgo
p2829
aVwith
p2830
aVme
p2831
aVto
p2832
aVmy
p2833
aVcastle
p2834
ag68
asg69
(lp2835
g71
ag71
ag71
ag71
ag71
ag71
ag71
ag71
ag71
ag71
ag71
ag71
asg72
(lp2836
g76
ag78
ag82
ag74
ag142
ag263
ag75
ag142
ag146
ag79
ag78
ag86
asg87
VThe king continued 'will you go with me to my castle.
p2837
sba(i__main__
Sentence
p2838
(dp2839
g17
I52
sg18
(lp2840
S'Then'
p2841
aS'she'
p2842
aS'just'
p2843
aS'nodded'
p2844
aS'her'
p2845
aS'head'
p2846
aS'a'
p2847
aS'little'
p2848
aS'.'
p2849
asg45
(lp2850
VThen
p2851
aVshe
p2852
aVjust
p2853
aVnod
p2854
aVher
p2855
aVhead
p2856
ag49
aVlittle
p2857
ag68
asg69
(lp2858
g71
ag71
ag71
ag71
ag71
ag71
ag71
ag71
ag71
asg72
(lp2859
g83
ag142
ag83
ag82
ag142
ag78
ag76
ag83
ag86
asg87
VThen she just nodded her head a little.
p2860
sba(i__main__
Sentence
p2861
(dp2862
g17
I53
sg18
(lp2863
S'The'
p2864
aS'king'
p2865
aS'took'
p2866
aS'her'
p2867
aS'in'
p2868
aS'his'
p2869
aS'arms'
p2870
aS','
p2871
aS'carried'
p2872
aS'her'
p2873
aS'to'
p2874
aS'his'
p2875
aS'horse'
p2876
aS','
p2877
aS'and'
p2878
aS'rode'
p2879
aS'home'
p2880
aS'with'
p2881
aS'her'
p2882
aS','
p2883
aS'and'
p2884
aS'when'
p2885
aS'he'
p2886
aS'reached'
p2887
aS'the'
p2888
aS'royal'
p2889
aS'castle'
p2890
aS'he'
p2891
aS'caused'
p2892
aS'her'
p2893
aS'to'
p2894
aS'be'
p2895
aS'dressed'
p2896
aS'in'
p2897
aS'beautiful'
p2898
aS'garments'
p2899
aS','
p2900
aS'and'
p2901
aS'gave'
p2902
aS'her'
p2903
aS'all'
p2904
aS'things'
p2905
aS'in'
p2906
aS'abundance'
p2907
aS'.'
p2908
asg45
(lp2909
VThe
p2910
aVking
p2911
ag372
aVher
p2912
aVin
p2913
aVhis
p2914
aVarm
p2915
ag57
ag2278
aVher
p2916
aVto
p2917
aVhis
p2918
aVhorse
p2919
ag57
aVand
p2920
aVride
p2921
aVhome
p2922
aVwith
p2923
aVher
p2924
ag57
aVand
p2925
aVwhen
p2926
aVhe
p2927
aVreach
p2928
aVthe
p2929
aVroyal
p2930
aVcastle
p2931
aVhe
p2932
aVcause
p2933
aVher
p2934
aVto
p2935
aVbe
p2936
aVdress
p2937
aVin
p2938
aVbeautiful
p2939
aVgarment
p2940
ag57
aVand
p2941
ag365
aVher
p2942
aVall
p2943
aVthing
p2944
aVin
p2945
aVabundance
p2946
ag68
asg69
(lp2947
g71
ag71
ag71
ag71
ag71
ag71
ag71
ag71
ag71
ag71
ag71
ag71
ag71
ag71
ag71
ag71
ag71
ag71
ag71
ag71
ag71
ag71
ag71
ag71
ag71
ag71
ag71
ag71
ag71
ag71
ag71
ag71
ag71
ag71
ag71
ag71
ag71
ag71
ag71
ag71
ag71
ag71
ag71
ag71
ag71
asg72
(lp2948
g76
ag78
ag82
ag79
ag75
ag79
ag85
ag80
ag82
ag142
ag146
ag79
ag78
ag80
ag143
ag144
ag78
ag75
ag79
ag80
ag143
ag145
ag142
ag82
ag76
ag77
ag78
ag142
ag82
ag142
ag146
ag144
ag381
ag75
ag77
ag85
ag80
ag143
ag82
ag142
ag76
ag85
ag75
ag78
ag86
asg87
VThe king took her in his arms, carried her to his horse, and rode home with her, and when he reached the royal castle he caused her to be dressed in beautiful garments, and gave her all things in abundance.
p2949
sba(i__main__
Sentence
p2950
(dp2951
g17
I54
sg18
(lp2952
S'Although'
p2953
aS'she'
p2954
aS'could'
p2955
aS'not'
p2956
aS'speak'
p2957
aS','
p2958
aS'she'
p2959
aS'was'
p2960
aS'still'
p2961
aS'so'
p2962
aS'beautiful'
p2963
aS'and'
p2964
aS'charming'
p2965
aS'that'
p2966
aS'he'
p2967
aS'began'
p2968
aS'to'
p2969
aS'love'
p2970
aS'her'
p2971
aS'with'
p2972
aS'all'
p2973
aS'his'
p2974
aS'heart'
p2975
aS','
p2976
aS'and'
p2977
aS'it'
p2978
aS'was'
p2979
aS'not'
p2980
aS'long'
p2981
aS'before'
p2982
aS'he'
p2983
aS'married'
p2984
aS'her'
p2985
aS'.'
p2986
asg45
(lp2987
VAlthough
p2988
aVshe
p2989
aVcould
p2990
aVnot
p2991
aVspeak
p2992
ag57
aVshe
p2993
ag225
aVstill
p2994
aVso
p2995
aVbeautiful
p2996
aVand
p2997
aVcharm
p2998
aVthat
p2999
aVhe
p3000
ag669
aVto
p3001
aVlove
p3002
aVher
p3003
aVwith
p3004
aVall
p3005
aVhis
p3006
aVheart
p3007
ag57
aVand
p3008
aVit
p3009
ag225
aVnot
p3010
aVlong
p3011
aVbefore
p3012
aVhe
p3013
aVmarry
p3014
aVher
p3015
ag68
asg69
(lp3016
g71
ag71
ag71
ag71
ag71
ag71
ag71
ag71
ag71
ag71
ag71
ag71
ag71
ag71
ag71
ag71
ag71
ag71
ag71
ag71
ag71
ag71
ag71
ag71
ag71
ag71
ag71
ag71
ag71
ag71
ag71
ag71
ag71
ag71
asg72
(lp3017
g75
ag142
ag326
ag83
ag144
ag80
ag142
ag82
ag83
ag83
ag77
ag143
ag261
ag75
ag142
ag82
ag146
ag144
ag79
ag75
ag76
ag79
ag78
ag80
ag143
ag142
ag82
ag83
ag83
ag75
ag142
ag82
ag142
ag86
asg87
VAlthough she could not speak, she was still so beautiful and charming that he began to love her with all his heart, and it was not long before he married her.
p3018
sba(i__main__
Sentence
p3019
(dp3020
g17
I55
sg18
(lp3021
S'After'
p3022
aS'a'
p3023
aS'year'
p3024
aS'or'
p3025
aS'so'
p3026
aS'had'
p3027
aS'passed'
p3028
aS','
p3029
aS'the'
p3030
aS'queen'
p3031
aS'brought'
p3032
aS'a'
p3033
aS'son'
p3034
aS'into'
p3035
aS'the'
p3036
aS'world'
p3037
aS'.'
p3038
asg45
(lp3039
VAfter
p3040
ag49
aVyear
p3041
aVor
p3042
aVso
p3043
ag59
aVpass
p3044
ag57
aVthe
p3045
aVqueen
p3046
ag361
ag49
aVson
p3047
aVinto
p3048
aVthe
p3049
aVworld
p3050
ag68
asg69
(lp3051
g71
ag71
ag71
ag71
ag71
ag71
ag71
ag71
ag71
ag71
ag71
ag71
ag71
ag71
ag71
ag71
ag71
asg72
(lp3052
g75
ag76
ag78
ag143
ag83
ag82
ag381
ag80
ag76
ag78
ag82
ag76
ag78
ag75
ag76
ag78
ag86
asg87
VAfter a year or so had passed, the queen brought a son into the world.
p3053
sba(i__main__
Sentence
p3054
(dp3055
g17
I56
sg18
(lp3056
S'Thereupon'
p3057
aS'the'
p3058
aS'virgin'
p3059
aS'mary'
p3060
aS'appeared'
p3061
aS'to'
p3062
aS'her'
p3063
aS'in'
p3064
aS'the'
p3065
aS'night'
p3066
aS'when'
p3067
aS'she'
p3068
aS'lay'
p3069
aS'in'
p3070
aS'her'
p3071
aS'bed'
p3072
aS'alone'
p3073
aS','
p3074
aS'and'
p3075
aS'said'
p3076
aS"'if"
p3077
aS'you'
p3078
aS'will'
p3079
aS'tell'
p3080
aS'the'
p3081
aS'truth'
p3082
aS'and'
p3083
aS'confess'
p3084
aS'that'
p3085
aS'you'
p3086
aS'did'
p3087
aS'unlock'
p3088
aS'the'
p3089
aS'forbidden'
p3090
aS'door'
p3091
aS','
p3092
aS'I'
p3093
aS'will'
p3094
aS'open'
p3095
aS'your'
p3096
aS'mouth'
p3097
aS'and'
p3098
aS'give'
p3099
aS'you'
p3100
aS'back'
p3101
aS'your'
p3102
aS'speech'
p3103
aS','
p3104
aS'but'
p3105
aS'if'
p3106
aS'you'
p3107
aS'persevere'
p3108
aS'in'
p3109
aS'your'
p3110
aS'sin'
p3111
aS','
p3112
aS'and'
p3113
aS'deny'
p3114
aS'obstinately'
p3115
aS','
p3116
aS'I'
p3117
aS'will'
p3118
aS'take'
p3119
aS'your'
p3120
aS'new-born'
p3121
aS'child'
p3122
aS'away'
p3123
aS'with'
p3124
aS'me'
p3125
aS'.'
p3126
aS"'"
p3127
asg45
(lp3128
VThereupon
p3129
aVthe
p3130
aVvirgin
p3131
aVmary
p3132
aVappear
p3133
aVto
p3134
aVher
p3135
aVin
p3136
aVthe
p3137
aVnight
p3138
aVwhen
p3139
aVshe
p3140
aVlay
p3141
aVin
p3142
aVher
p3143
aVbed
p3144
aValone
p3145
ag57
aVand
p3146
ag246
aV'if
p3147
aVyou
p3148
aVwill
p3149
aVtell
p3150
aVthe
p3151
aVtruth
p3152
aVand
p3153
aVconfess
p3154
aVthat
p3155
aVyou
p3156
ag131
aVunlock
p3157
aVthe
p3158
aVforbidden
p3159
aVdoor
p3160
ag57
ag309
aVwill
p3161
aVopen
p3162
aVyour
p3163
aVmouth
p3164
aVand
p3165
aVgive
p3166
aVyou
p3167
aVback
p3168
aVyour
p3169
aVspeech
p3170
ag57
aVbut
p3171
aVif
p3172
aVyou
p3173
aVpersevere
p3174
aVin
p3175
aVyour
p3176
aVsin
p3177
ag57
aVand
p3178
aVdeny
p3179
aVobstinately
p3180
ag57
ag309
aVwill
p3181
aVtake
p3182
aVyour
p3183
aVnew-born
p3184
aVchild
p3185
aVaway
p3186
aVwith
p3187
aVme
p3188
ag68
ag323
asg69
(lp3189
g71
ag71
ag71
ag71
ag71
ag71
ag71
ag71
ag71
ag71
ag71
ag71
ag71
ag71
ag71
ag71
ag71
ag71
ag71
ag71
ag71
ag71
ag71
ag71
ag71
ag71
ag71
ag71
ag71
ag71
ag71
ag71
ag71
ag71
ag71
ag71
ag71
ag71
ag71
ag71
ag71
ag71
ag71
ag71
ag71
ag71
ag71
ag71
ag71
ag71
ag71
ag71
ag71
ag71
ag71
ag71
ag71
ag71
ag71
ag71
ag71
ag71
ag71
ag71
ag71
ag71
ag71
ag71
ag71
ag71
ag71
asg72
(lp3190
g74
ag76
ag78
ag78
ag82
ag146
ag79
ag75
ag76
ag78
ag145
ag142
ag263
ag75
ag79
ag381
ag78
ag80
ag143
ag82
ag77
ag142
ag326
ag144
ag76
ag78
ag143
ag78
ag75
ag142
ag82
ag78
ag76
ag78
ag78
ag80
ag142
ag326
ag144
ag79
ag78
ag143
ag144
ag142
ag83
ag79
ag78
ag80
ag143
ag75
ag142
ag263
ag75
ag79
ag78
ag80
ag143
ag78
ag83
ag80
ag142
ag326
ag144
ag79
ag78
ag78
ag83
ag75
ag142
ag86
ag327
asg87
VThereupon the virgin mary appeared to her in the night when she lay in her bed alone, and said 'if you will tell the truth and confess that you did unlock the forbidden door, I will open your mouth and give you back your speech, but if you persevere in your sin, and deny obstinately, I will take your new-born child away with me.'
p3191
sba(i__main__
Sentence
p3192
(dp3193
g17
I57
sg18
(lp3194
S'The'
p3195
aS'the'
p3196
aS'queen'
p3197
aS'was'
p3198
aS'permitted'
p3199
aS'to'
p3200
aS'answer'
p3201
aS','
p3202
aS'but'
p3203
aS'she'
p3204
aS'remained'
p3205
aS'hard'
p3206
aS','
p3207
aS'and'
p3208
aS'said'
p3209
aS"'no"
p3210
aS','
p3211
aS'I'
p3212
aS'did'
p3213
aS'not'
p3214
aS'open'
p3215
aS'the'
p3216
aS'forbidden'
p3217
aS'door'
p3218
aS','
p3219
aS'and'
p3220
aS'the'
p3221
aS'virgin'
p3222
aS'mary'
p3223
aS'took'
p3224
aS'the'
p3225
aS'new-born'
p3226
aS'child'
p3227
aS'from'
p3228
aS'her'
p3229
aS'arms'
p3230
aS','
p3231
aS'and'
p3232
aS'vanished'
p3233
aS'with'
p3234
aS'it'
p3235
aS'.'
p3236
asg45
(lp3237
VThe
p3238
aVthe
p3239
aVqueen
p3240
ag225
aVpermit
p3241
aVto
p3242
aVanswer
p3243
ag57
aVbut
p3244
aVshe
p3245
aVremain
p3246
aVhard
p3247
ag57
aVand
p3248
ag246
aV'no
p3249
ag57
ag309
ag131
aVnot
p3250
aVopen
p3251
aVthe
p3252
aVforbidden
p3253
aVdoor
p3254
ag57
aVand
p3255
aVthe
p3256
aVvirgin
p3257
aVmary
p3258
ag372
aVthe
p3259
aVnew-born
p3260
aVchild
p3261
aVfrom
p3262
aVher
p3263
aVarm
p3264
ag57
aVand
p3265
aVvanish
p3266
aVwith
p3267
aVit
p3268
ag68
asg69
(lp3269
g71
ag71
ag71
ag71
ag71
ag71
ag71
ag71
ag71
ag71
ag71
ag71
ag71
ag71
ag71
ag71
ag71
ag71
ag71
ag71
ag71
ag71
ag71
ag71
ag71
ag71
ag71
ag71
ag71
ag71
ag71
ag71
ag71
ag71
ag71
ag71
ag71
ag71
ag71
ag71
ag71
ag71
asg72
(lp3270
g76
ag76
ag78
ag82
ag381
ag146
ag144
ag80
ag143
ag142
ag82
ag83
ag80
ag143
ag82
ag916
ag80
ag142
ag82
ag83
ag77
ag76
ag78
ag78
ag80
ag143
ag76
ag78
ag78
ag82
ag76
ag78
ag78
ag75
ag79
ag85
ag80
ag143
ag82
ag75
ag142
ag86
asg87
VThe the queen was permitted to answer, but she remained hard, and said 'no, I did not open the forbidden door, and the virgin mary took the new-born child from her arms, and vanished with it.
p3271
sba(i__main__
Sentence
p3272
(dp3273
g17
I58
sg18
(lp3274
S'Next'
p3275
aS'morning'
p3276
aS'when'
p3277
aS'the'
p3278
aS'child'
p3279
aS'was'
p3280
aS'not'
p3281
aS'to'
p3282
aS'be'
p3283
aS'found'
p3284
aS','
p3285
aS'it'
p3286
aS'was'
p3287
aS'whispered'
p3288
aS'among'
p3289
aS'the'
p3290
aS'people'
p3291
aS'that'
p3292
aS'the'
p3293
aS'queen'
p3294
aS'was'
p3295
aS'a'
p3296
aS'man-eater'
p3297
aS','
p3298
aS'and'
p3299
aS'had'
p3300
aS'put'
p3301
aS'her'
p3302
aS'own'
p3303
aS'child'
p3304
aS'to'
p3305
aS'death'
p3306
aS'.'
p3307
asg45
(lp3308
VNext
p3309
aVmorning
p3310
aVwhen
p3311
aVthe
p3312
aVchild
p3313
ag225
aVnot
p3314
aVto
p3315
aVbe
p3316
ag1843
ag57
aVit
p3317
ag225
aVwhisper
p3318
aVamong
p3319
aVthe
p3320
aVpeople
p3321
aVthat
p3322
aVthe
p3323
aVqueen
p3324
ag225
ag49
aVman-eater
p3325
ag57
aVand
p3326
ag59
aVput
p3327
aVher
p3328
aVown
p3329
aVchild
p3330
aVto
p3331
aVdeath
p3332
ag68
asg69
(lp3333
g71
ag71
ag71
ag71
ag71
ag71
ag71
ag71
ag71
ag71
ag71
ag71
ag71
ag71
ag71
ag71
ag71
ag71
ag71
ag71
ag71
ag71
ag71
ag71
ag71
ag71
ag71
ag71
ag71
ag71
ag71
ag71
ag71
asg72
(lp3334
g77
ag78
ag145
ag76
ag78
ag82
ag83
ag146
ag144
ag381
ag80
ag142
ag82
ag381
ag75
ag76
ag85
ag75
ag76
ag78
ag82
ag76
ag77
ag80
ag143
ag82
ag381
ag79
ag77
ag78
ag146
ag78
ag86
asg87
VNext morning when the child was not to be found, it was whispered among the people that the queen was a man-eater, and had put her own child to death.
p3335
sba(i__main__
Sentence
p3336
(dp3337
g17
I59
sg18
(lp3338
S'She'
p3339
aS'heard'
p3340
aS'all'
p3341
aS'this'
p3342
aS'and'
p3343
aS'could'
p3344
aS'say'
p3345
aS'nothing'
p3346
aS'to'
p3347
aS'the'
p3348
aS'contrary'
p3349
aS','
p3350
aS'but'
p3351
aS'the'
p3352
aS'king'
p3353
aS'would'
p3354
aS'not'
p3355
aS'believe'
p3356
aS'it'
p3357
aS','
p3358
aS'for'
p3359
aS'he'
p3360
aS'loved'
p3361
aS'her'
p3362
aS'so'
p3363
aS'much'
p3364
aS'.'
p3365
asg45
(lp3366
VShe
p3367
aVhear
p3368
aVall
p3369
aVthis
p3370
aVand
p3371
aVcould
p3372
aVsay
p3373
aVnothing
p3374
aVto
p3375
aVthe
p3376
aVcontrary
p3377
ag57
aVbut
p3378
aVthe
p3379
aVking
p3380
aVwould
p3381
aVnot
p3382
aVbelieve
p3383
aVit
p3384
ag57
aVfor
p3385
aVhe
p3386
aVlove
p3387
aVher
p3388
aVso
p3389
aVmuch
p3390
ag68
asg69
(lp3391
g71
ag71
ag71
ag71
ag71
ag71
ag71
ag71
ag71
ag71
ag71
ag71
ag71
ag71
ag71
ag71
ag71
ag71
ag71
ag71
ag71
ag71
ag71
ag71
ag71
ag71
ag71
asg72
(lp3392
g142
ag82
aS'PDT'
p3393
ag76
ag143
ag326
ag144
ag78
ag146
ag76
ag78
ag80
ag143
ag76
ag78
ag326
ag83
ag144
ag142
ag80
ag75
ag142
ag82
ag142
ag83
ag83
ag86
asg87
VShe heard all this and could say nothing to the contrary, but the king would not believe it, for he loved her so much.
p3394
sba(i__main__
Sentence
p3395
(dp3396
g17
I60
sg18
(lp3397
S'When'
p3398
aS'a'
p3399
aS'year'
p3400
aS'had'
p3401
aS'gone'
p3402
aS'by'
p3403
aS'the'
p3404
aS'queen'
p3405
aS'again'
p3406
aS'bore'
p3407
aS'a'
p3408
aS'son'
p3409
aS','
p3410
aS'and'
p3411
aS'in'
p3412
aS'the'
p3413
aS'night'
p3414
aS'the'
p3415
aS'virgin'
p3416
aS'mary'
p3417
aS'again'
p3418
aS'came'
p3419
aS'to'
p3420
aS'her'
p3421
aS','
p3422
aS'and'
p3423
aS'said'
p3424
aS"'if"
p3425
aS'you'
p3426
aS'will'
p3427
aS'confess'
p3428
aS'that'
p3429
aS'you'
p3430
aS'opened'
p3431
aS'the'
p3432
aS'forbidden'
p3433
aS'door'
p3434
aS','
p3435
aS'I'
p3436
aS'will'
p3437
aS'give'
p3438
aS'you'
p3439
aS'your'
p3440
aS'child'
p3441
aS'back'
p3442
aS'and'
p3443
aS'untie'
p3444
aS'your'
p3445
aS'tongue'
p3446
aS'but'
p3447
aS'if'
p3448
aS'you'
p3449
aS'continue'
p3450
aS'in'
p3451
aS'sin'
p3452
aS'and'
p3453
aS'deny'
p3454
aS'it'
p3455
aS','
p3456
aS'I'
p3457
aS'will'
p3458
aS'take'
p3459
aS'away'
p3460
aS'with'
p3461
aS'me'
p3462
aS'this'
p3463
aS'new'
p3464
aS'child'
p3465
aS'also'
p3466
aS'.'
p3467
aS"'"
p3468
asg45
(lp3469
VWhen
p3470
ag49
aVyear
p3471
ag59
ag667
aVby
p3472
aVthe
p3473
aVqueen
p3474
aVagain
p3475
aVbore
p3476
ag49
aVson
p3477
ag57
aVand
p3478
aVin
p3479
aVthe
p3480
aVnight
p3481
aVthe
p3482
aVvirgin
p3483
aVmary
p3484
aVagain
p3485
ag1781
aVto
p3486
aVher
p3487
ag57
aVand
p3488
ag246
aV'if
p3489
aVyou
p3490
aVwill
p3491
aVconfess
p3492
aVthat
p3493
aVyou
p3494
aVopen
p3495
aVthe
p3496
aVforbidden
p3497
aVdoor
p3498
ag57
ag309
aVwill
p3499
aVgive
p3500
aVyou
p3501
aVyour
p3502
aVchild
p3503
aVback
p3504
aVand
p3505
aVuntie
p3506
aVyour
p3507
aVtongue
p3508
aVbut
p3509
aVif
p3510
aVyou
p3511
aVcontinue
p3512
aVin
p3513
aVsin
p3514
aVand
p3515
aVdeny
p3516
aVit
p3517
ag57
ag309
aVwill
p3518
aVtake
p3519
aVaway
p3520
aVwith
p3521
aVme
p3522
aVthis
p3523
aVnew
p3524
aVchild
p3525
aValso
p3526
ag68
ag323
asg69
(lp3527
g71
ag71
ag71
ag71
ag71
ag71
ag71
ag71
ag71
ag71
ag71
ag71
ag71
ag71
ag71
ag71
ag71
ag71
ag71
ag71
ag71
ag71
ag71
ag71
ag71
ag71
ag71
ag71
ag71
ag71
ag71
ag71
ag71
ag71
ag71
ag71
ag71
ag71
ag71
ag71
ag71
ag71
ag71
ag71
ag71
ag71
ag71
ag71
ag71
ag71
ag71
ag71
ag71
ag71
ag71
ag71
ag71
ag71
ag71
ag71
ag71
ag71
ag71
ag71
ag71
ag71
ag71
ag71
ag71
ag71
ag71
asg72
(lp3528
g145
ag76
ag78
ag82
ag381
ag75
ag76
ag77
ag78
ag78
ag76
ag78
ag80
ag143
ag75
ag76
ag78
ag76
ag78
ag78
ag83
ag82
ag146
ag79
ag80
ag143
ag82
ag77
ag142
ag326
ag144
ag75
ag142
ag82
ag76
ag78
ag78
ag80
ag142
ag326
ag144
ag142
ag79
ag78
ag83
ag143
ag144
ag79
ag78
ag143
ag75
ag142
ag263
ag75
ag78
ag143
ag78
ag142
ag80
ag142
ag326
ag144
ag382
ag75
ag142
ag76
ag77
ag78
ag83
ag86
ag327
asg87
VWhen a year had gone by the queen again bore a son, and in the night the virgin mary again came to her, and said 'if you will confess that you opened the forbidden door, I will give you your child back and untie your tongue but if you continue in sin and deny it, I will take away with me this new child also.'
p3529
sba(i__main__
Sentence
p3530
(dp3531
g17
I61
sg18
(lp3532
S'Then'
p3533
aS'the'
p3534
aS'queen'
p3535
aS'again'
p3536
aS'said'
p3537
aS"'no"
p3538
aS','
p3539
aS'I'
p3540
aS'did'
p3541
aS'not'
p3542
aS'open'
p3543
aS'the'
p3544
aS'forbidden'
p3545
aS'door'
p3546
aS'.'
p3547
aS"'"
p3548
asg45
(lp3549
VThen
p3550
aVthe
p3551
aVqueen
p3552
aVagain
p3553
ag246
aV'no
p3554
ag57
ag309
ag131
aVnot
p3555
aVopen
p3556
aVthe
p3557
aVforbidden
p3558
aVdoor
p3559
ag68
ag323
asg69
(lp3560
g71
ag71
ag71
ag71
ag71
ag71
ag71
ag71
ag71
ag71
ag71
ag71
ag71
ag71
ag71
ag71
asg72
(lp3561
g83
ag76
ag78
ag83
ag82
ag916
ag80
ag142
ag82
ag83
ag77
ag76
ag78
ag78
ag86
ag327
asg87
VThen the queen again said 'no, I did not open the forbidden door.'
p3562
sba(i__main__
Sentence
p3563
(dp3564
g17
I62
sg18
(lp3565
S'And'
p3566
aS'the'
p3567
aS'virgin'
p3568
aS'took'
p3569
aS'the'
p3570
aS'child'
p3571
aS'out'
p3572
aS'of'
p3573
aS'her'
p3574
aS'arms'
p3575
aS','
p3576
aS'and'
p3577
aS'away'
p3578
aS'with'
p3579
aS'her'
p3580
aS'to'
p3581
aS'heaven'
p3582
aS'.'
p3583
asg45
(lp3584
VAnd
p3585
aVthe
p3586
aVvirgin
p3587
ag372
aVthe
p3588
aVchild
p3589
aVout
p3590
aVof
p3591
aVher
p3592
aVarm
p3593
ag57
aVand
p3594
aVaway
p3595
aVwith
p3596
aVher
p3597
aVto
p3598
aVheaven
p3599
ag68
asg69
(lp3600
g71
ag71
ag71
ag71
ag71
ag71
ag71
ag71
ag71
ag71
ag71
ag71
ag71
ag71
ag71
ag71
ag71
ag71
asg72
(lp3601
g143
ag76
ag78
ag82
ag76
ag78
ag75
ag75
ag79
ag85
ag80
ag143
ag83
ag75
ag79
ag146
ag144
ag86
asg87
VAnd the virgin took the child out of her arms, and away with her to heaven.
p3602
sba(i__main__
Sentence
p3603
(dp3604
g17
I63
sg18
(lp3605
S'Next'
p3606
aS'morning'
p3607
aS','
p3608
aS'when'
p3609
aS'this'
p3610
aS'child'
p3611
aS'also'
p3612
aS'had'
p3613
aS'disappeared'
p3614
aS','
p3615
aS'the'
p3616
aS'people'
p3617
aS'declared'
p3618
aS'quite'
p3619
aS'loudly'
p3620
aS'that'
p3621
aS'the'
p3622
aS'queen'
p3623
aS'had'
p3624
aS'devoured'
p3625
aS'it'
p3626
aS','
p3627
aS'and'
p3628
aS'the'
p3629
aS'king'
p3630
aS"'s"
p3631
aS'councillors'
p3632
aS'demanded'
p3633
aS'that'
p3634
aS'she'
p3635
aS'should'
p3636
aS'be'
p3637
aS'brought'
p3638
aS'to'
p3639
aS'justice'
p3640
aS'.'
p3641
asg45
(lp3642
VNext
p3643
aVmorning
p3644
ag57
aVwhen
p3645
aVthis
p3646
aVchild
p3647
aValso
p3648
ag59
aVdisappear
p3649
ag57
aVthe
p3650
aVpeople
p3651
aVdeclare
p3652
aVquite
p3653
aVloudly
p3654
aVthat
p3655
aVthe
p3656
aVqueen
p3657
ag59
aVdevour
p3658
aVit
p3659
ag57
aVand
p3660
aVthe
p3661
aVking
p3662
aV's
p3663
aVcouncillor
p3664
aVdemand
p3665
aVthat
p3666
aVshe
p3667
aVshould
p3668
aVbe
p3669
ag361
aVto
p3670
aVjustice
p3671
ag68
asg69
(lp3672
g71
ag71
ag71
ag71
ag71
ag71
ag71
ag71
ag71
ag71
ag71
ag71
ag71
ag71
ag71
ag71
ag71
ag71
ag71
ag71
ag71
ag71
ag71
ag71
ag71
ag71
ag71
ag71
ag71
ag71
ag71
ag71
ag71
ag71
ag71
ag71
asg72
(lp3673
g77
ag78
ag80
ag145
ag76
ag78
ag83
ag82
ag381
ag80
ag76
ag85
ag82
ag83
ag83
ag75
ag76
ag78
ag82
ag381
ag142
ag80
ag143
ag76
ag78
ag2093
ag85
ag82
ag75
ag142
ag326
ag144
ag381
ag146
ag78
ag86
asg87
VNext morning, when this child also had disappeared, the people declared quite loudly that the queen had devoured it, and the king's councillors demanded that she should be brought to justice.
p3674
sba(i__main__
Sentence
p3675
(dp3676
g17
I64
sg18
(lp3677
S'The'
p3678
aS'king'
p3679
aS'however'
p3680
aS','
p3681
aS'loved'
p3682
aS'her'
p3683
aS'so'
p3684
aS'dearly'
p3685
aS'that'
p3686
aS'he'
p3687
aS'would'
p3688
aS'not'
p3689
aS'believe'
p3690
aS'it'
p3691
aS','
p3692
aS'and'
p3693
aS'commanded'
p3694
aS'the'
p3695
aS'councillors'
p3696
aS'under'
p3697
aS'pain'
p3698
aS'of'
p3699
aS'death'
p3700
aS'not'
p3701
aS'to'
p3702
aS'say'
p3703
aS'any'
p3704
aS'more'
p3705
aS'about'
p3706
aS'it'
p3707
aS'.'
p3708
asg45
(lp3709
VThe
p3710
aVking
p3711
aVhowever
p3712
ag57
aVlove
p3713
aVher
p3714
aVso
p3715
aVdearly
p3716
aVthat
p3717
aVhe
p3718
aVwould
p3719
aVnot
p3720
aVbelieve
p3721
aVit
p3722
ag57
aVand
p3723
aVcommand
p3724
aVthe
p3725
aVcouncillor
p3726
aVunder
p3727
aVpain
p3728
aVof
p3729
aVdeath
p3730
aVnot
p3731
aVto
p3732
aVsay
p3733
aVany
p3734
aVmore
p3735
aVabout
p3736
aVit
p3737
ag68
asg69
(lp3738
g71
ag71
ag71
ag71
ag71
ag71
ag71
ag71
ag71
ag71
ag71
ag71
ag71
ag71
ag71
ag71
ag71
ag71
ag71
ag71
ag71
ag71
ag71
ag71
ag71
ag71
ag71
ag71
ag71
ag71
ag71
asg72
(lp3739
g76
ag78
ag83
ag80
ag82
ag142
ag83
ag83
ag75
ag142
ag326
ag83
ag144
ag142
ag80
ag143
ag82
ag76
ag85
ag75
ag78
ag75
ag78
ag83
ag146
ag144
ag76
ag2626
ag75
ag142
ag86
asg87
VThe king however, loved her so dearly that he would not believe it, and commanded the councillors under pain of death not to say any more about it.
p3740
sba(i__main__
Sentence
p3741
(dp3742
g17
I65
sg18
(lp3743
S'The'
p3744
aS'following'
p3745
aS'year'
p3746
aS'the'
p3747
aS'queen'
p3748
aS'gave'
p3749
aS'birth'
p3750
aS'to'
p3751
aS'a'
p3752
aS'beautiful'
p3753
aS'little'
p3754
aS'daughter'
p3755
aS','
p3756
aS'and'
p3757
aS'for'
p3758
aS'the'
p3759
aS'third'
p3760
aS'time'
p3761
aS'the'
p3762
aS'virgin'
p3763
aS'mary'
p3764
aS'appeared'
p3765
aS'to'
p3766
aS'her'
p3767
aS'in'
p3768
aS'the'
p3769
aS'night'
p3770
aS'and'
p3771
aS'said'
p3772
aS"'follow"
p3773
aS'me'
p3774
aS'.'
p3775
aS"'"
p3776
asg45
(lp3777
VThe
p3778
aVfollow
p3779
aVyear
p3780
aVthe
p3781
aVqueen
p3782
ag365
aVbirth
p3783
aVto
p3784
ag49
aVbeautiful
p3785
aVlittle
p3786
aVdaughter
p3787
ag57
aVand
p3788
aVfor
p3789
aVthe
p3790
aVthird
p3791
aVtime
p3792
aVthe
p3793
aVvirgin
p3794
aVmary
p3795
aVappear
p3796
aVto
p3797
aVher
p3798
aVin
p3799
aVthe
p3800
aVnight
p3801
aVand
p3802
ag246
aV'follow
p3803
aVme
p3804
ag68
ag323
asg69
(lp3805
g71
ag71
ag71
ag71
ag71
ag71
ag71
ag71
ag71
ag71
ag71
ag71
ag71
ag71
ag71
ag71
ag71
ag71
ag71
ag71
ag71
ag71
ag71
ag71
ag71
ag71
ag71
ag71
ag71
ag71
ag71
ag71
ag71
asg72
(lp3806
g76
ag261
ag78
ag76
ag78
ag82
ag77
ag146
ag76
ag77
ag77
ag78
ag80
ag143
ag75
ag76
ag77
ag78
ag76
ag78
ag78
ag82
ag146
ag79
ag75
ag76
ag78
ag143
ag82
ag77
ag78
ag86
ag327
asg87
VThe following year the queen gave birth to a beautiful little daughter, and for the third time the virgin mary appeared to her in the night and said 'follow me.'
p3807
sba(i__main__
Sentence
p3808
(dp3809
g17
I66
sg18
(lp3810
S'She'
p3811
aS'took'
p3812
aS'the'
p3813
aS'queen'
p3814
aS'by'
p3815
aS'the'
p3816
aS'hand'
p3817
aS'and'
p3818
aS'led'
p3819
aS'her'
p3820
aS'to'
p3821
aS'heaven'
p3822
aS','
p3823
aS'and'
p3824
aS'showed'
p3825
aS'her'
p3826
aS'there'
p3827
aS'her'
p3828
aS'two'
p3829
aS'eldest'
p3830
aS'children'
p3831
aS','
p3832
aS'who'
p3833
aS'smiled'
p3834
aS'at'
p3835
aS'her'
p3836
aS','
p3837
aS'and'
p3838
aS'were'
p3839
aS'playing'
p3840
aS'with'
p3841
aS'the'
p3842
aS'ball'
p3843
aS'of'
p3844
aS'the'
p3845
aS'world'
p3846
aS'.'
p3847
asg45
(lp3848
VShe
p3849
ag372
aVthe
p3850
aVqueen
p3851
aVby
p3852
aVthe
p3853
aVhand
p3854
aVand
p3855
aVlead
p3856
aVher
p3857
aVto
p3858
aVheaven
p3859
ag57
aVand
p3860
aVshow
p3861
aVher
p3862
aVthere
p3863
aVher
p3864
aVtwo
p3865
aVeldest
p3866
aVchild
p3867
ag57
aVwho
p3868
aVsmile
p3869
aVat
p3870
aVher
p3871
ag57
aVand
p3872
ag120
aVplay
p3873
aVwith
p3874
aVthe
p3875
aVball
p3876
aVof
p3877
aVthe
p3878
aVworld
p3879
ag68
asg69
(lp3880
g71
ag71
ag71
ag71
ag71
ag71
ag71
ag71
ag71
ag71
ag71
ag71
ag71
ag71
ag71
ag71
ag71
ag71
ag71
ag71
ag71
ag71
ag71
ag71
ag71
ag71
ag71
ag71
ag71
ag71
ag71
ag71
ag71
ag71
ag71
ag71
ag71
asg72
(lp3881
g142
ag82
ag76
ag78
ag75
ag76
ag78
ag143
ag82
ag142
ag146
ag144
ag80
ag143
ag82
ag142
ag83
ag79
ag84
ag2627
ag85
ag80
ag81
ag381
ag75
ag79
ag80
ag143
ag82
ag261
ag75
ag76
ag78
ag75
ag76
ag78
ag86
asg87
VShe took the queen by the hand and led her to heaven, and showed her there her two eldest children, who smiled at her, and were playing with the ball of the world.
p3882
sba(i__main__
Sentence
p3883
(dp3884
g17
I67
sg18
(lp3885
S'When'
p3886
aS'the'
p3887
aS'queen'
p3888
aS'rejoiced'
p3889
aS'thereat'
p3890
aS','
p3891
aS'the'
p3892
aS'virgin'
p3893
aS'mary'
p3894
aS'said'
p3895
aS"'is"
p3896
aS'your'
p3897
aS'heart'
p3898
aS'not'
p3899
aS'yet'
p3900
aS'softened'
p3901
aS'.'
p3902
asg45
(lp3903
VWhen
p3904
aVthe
p3905
aVqueen
p3906
aVrejoice
p3907
aVthereat
p3908
ag57
aVthe
p3909
aVvirgin
p3910
aVmary
p3911
ag246
aV'is
p3912
aVyour
p3913
aVheart
p3914
aVnot
p3915
aVyet
p3916
aVsoften
p3917
ag68
asg69
(lp3918
g71
ag71
ag71
ag71
ag71
ag71
ag71
ag71
ag71
ag71
ag71
ag71
ag71
ag71
ag71
ag71
ag71
asg72
(lp3919
g145
ag76
ag78
ag82
ag78
ag80
ag76
ag78
ag78
ag82
ag74
ag79
ag78
ag83
ag83
ag381
ag86
asg87
VWhen the queen rejoiced thereat, the virgin mary said 'is your heart not yet softened.
p3920
sba(i__main__
Sentence
p3921
(dp3922
g17
I68
sg18
(lp3923
S'If'
p3924
aS'you'
p3925
aS'will'
p3926
aS'own'
p3927
aS'that'
p3928
aS'you'
p3929
aS'opened'
p3930
aS'the'
p3931
aS'forbidden'
p3932
aS'door'
p3933
aS','
p3934
aS'I'
p3935
aS'will'
p3936
aS'give'
p3937
aS'you'
p3938
aS'back'
p3939
aS'your'
p3940
aS'two'
p3941
aS'little'
p3942
aS'sons'
p3943
aS'.'
p3944
aS"'"
p3945
asg45
(lp3946
VIf
p3947
aVyou
p3948
aVwill
p3949
aVown
p3950
aVthat
p3951
aVyou
p3952
aVopen
p3953
aVthe
p3954
aVforbidden
p3955
aVdoor
p3956
ag57
ag309
aVwill
p3957
aVgive
p3958
aVyou
p3959
aVback
p3960
aVyour
p3961
aVtwo
p3962
aVlittle
p3963
aVson
p3964
ag68
ag323
asg69
(lp3965
g71
ag71
ag71
ag71
ag71
ag71
ag71
ag71
ag71
ag71
ag71
ag71
ag71
ag71
ag71
ag71
ag71
ag71
ag71
ag71
ag71
ag71
asg72
(lp3966
g75
ag142
ag326
ag144
ag75
ag142
ag82
ag76
ag78
ag78
ag80
ag142
ag326
ag144
ag142
ag83
ag79
ag84
ag77
ag85
ag86
ag327
asg87
VIf you will own that you opened the forbidden door, I will give you back your two little sons.'
p3967
sba(i__main__
Sentence
p3968
(dp3969
g17
I69
sg18
(lp3970
S'But'
p3971
aS'for'
p3972
aS'the'
p3973
aS'third'
p3974
aS'time'
p3975
aS'the'
p3976
aS'queen'
p3977
aS'answered'
p3978
aS"'no"
p3979
aS','
p3980
aS'I'
p3981
aS'did'
p3982
aS'not'
p3983
aS'open'
p3984
aS'the'
p3985
aS'forbidden'
p3986
aS'door'
p3987
aS'.'
p3988
aS"'"
p3989
asg45
(lp3990
VBut
p3991
aVfor
p3992
aVthe
p3993
aVthird
p3994
aVtime
p3995
aVthe
p3996
aVqueen
p3997
aVanswer
p3998
aV'no
p3999
ag57
ag309
ag131
aVnot
p4000
aVopen
p4001
aVthe
p4002
aVforbidden
p4003
aVdoor
p4004
ag68
ag323
asg69
(lp4005
g71
ag71
ag71
ag71
ag71
ag71
ag71
ag71
ag71
ag71
ag71
ag71
ag71
ag71
ag71
ag71
ag71
ag71
ag71
asg72
(lp4006
g143
ag75
ag76
ag77
ag78
ag76
ag78
ag82
ag916
ag80
ag142
ag82
ag83
ag77
ag76
ag78
ag78
ag86
ag327
asg87
VBut for the third time the queen answered 'no, I did not open the forbidden door.'
p4007
sba(i__main__
Sentence
p4008
(dp4009
g17
I70
sg18
(lp4010
S'Then'
p4011
aS'the'
p4012
aS'virgin'
p4013
aS'let'
p4014
aS'her'
p4015
aS'sink'
p4016
aS'down'
p4017
aS'to'
p4018
aS'earth'
p4019
aS'once'
p4020
aS'more'
p4021
aS','
p4022
aS'and'
p4023
aS'took'
p4024
aS'from'
p4025
aS'her'
p4026
aS'likewise'
p4027
aS'her'
p4028
aS'third'
p4029
aS'child'
p4030
aS'.'
p4031
asg45
(lp4032
VThen
p4033
aVthe
p4034
aVvirgin
p4035
aVlet
p4036
aVher
p4037
aVsink
p4038
aVdown
p4039
aVto
p4040
aVearth
p4041
aVonce
p4042
aVmore
p4043
ag57
aVand
p4044
ag372
aVfrom
p4045
aVher
p4046
aVlikewise
p4047
aVher
p4048
aVthird
p4049
aVchild
p4050
ag68
asg69
(lp4051
g71
ag71
ag71
ag71
ag71
ag71
ag71
ag71
ag71
ag71
ag71
ag71
ag71
ag71
ag71
ag71
ag71
ag71
ag71
ag71
ag71
asg72
(lp4052
g83
ag76
ag78
ag82
ag142
ag263
ag382
ag146
ag144
ag83
ag2626
ag80
ag143
ag82
ag75
ag79
ag78
ag79
ag77
ag78
ag86
asg87
VThen the virgin let her sink down to earth once more, and took from her likewise her third child.
p4053
sba(i__main__
Sentence
p4054
(dp4055
g17
I71
sg18
(lp4056
S'Next'
p4057
aS'morning'
p4058
aS','
p4059
aS'when'
p4060
aS'the'
p4061
aS'loss'
p4062
aS'was'
p4063
aS'reported'
p4064
aS'abroad'
p4065
aS','
p4066
aS'all'
p4067
aS'the'
p4068
aS'people'
p4069
aS'cried'
p4070
aS'loudly'
p4071
aS"'the"
p4072
aS'queen'
p4073
aS'is'
p4074
aS'a'
p4075
aS'man-eater'
p4076
aS'.'
p4077
asg45
(lp4078
VNext
p4079
aVmorning
p4080
ag57
aVwhen
p4081
aVthe
p4082
aVloss
p4083
ag225
aVreport
p4084
aVabroad
p4085
ag57
aVall
p4086
aVthe
p4087
aVpeople
p4088
aVcry
p4089
aVloudly
p4090
aV'the
p4091
aVqueen
p4092
ag575
ag49
aVman-eater
p4093
ag68
asg69
(lp4094
g71
ag71
ag71
ag71
ag71
ag71
ag71
ag71
ag71
ag71
ag71
ag71
ag71
ag71
ag71
ag71
ag71
ag71
ag71
ag71
ag71
asg72
(lp4095
g77
ag78
ag80
ag145
ag76
ag78
ag82
ag381
ag83
ag80
ag76
ag76
ag85
ag82
ag83
ag77
ag78
ag264
ag76
ag77
ag86
asg87
VNext morning, when the loss was reported abroad, all the people cried loudly 'the queen is a man-eater.
p4096
sba(i__main__
Sentence
p4097
(dp4098
g17
I72
sg18
(lp4099
S'She'
p4100
aS'must'
p4101
aS'be'
p4102
aS'judged'
p4103
aS','
p4104
aS'and'
p4105
aS'the'
p4106
aS'king'
p4107
aS'was'
p4108
aS'no'
p4109
aS'longer'
p4110
aS'able'
p4111
aS'to'
p4112
aS'restrain'
p4113
aS'his'
p4114
aS'councillors'
p4115
aS'.'
p4116
asg45
(lp4117
VShe
p4118
aVmust
p4119
aVbe
p4120
aVjudge
p4121
ag57
aVand
p4122
aVthe
p4123
aVking
p4124
ag225
aVno
p4125
aVlonger
p4126
aVable
p4127
aVto
p4128
aVrestrain
p4129
aVhis
p4130
aVcouncillor
p4131
ag68
asg69
(lp4132
g71
ag71
ag71
ag71
ag71
ag71
ag71
ag71
ag71
ag71
ag71
ag71
ag71
ag71
ag71
ag71
ag71
asg72
(lp4133
g142
ag326
ag144
ag381
ag80
ag143
ag76
ag78
ag82
ag76
ag78
ag77
ag146
ag144
ag79
ag85
ag86
asg87
VShe must be judged, and the king was no longer able to restrain his councillors.
p4134
sba(i__main__
Sentence
p4135
(dp4136
g17
I73
sg18
(lp4137
S'Thereupon'
p4138
aS'a'
p4139
aS'trial'
p4140
aS'was'
p4141
aS'held'
p4142
aS','
p4143
aS'and'
p4144
aS'as'
p4145
aS'she'
p4146
aS'could'
p4147
aS'not'
p4148
aS'answer'
p4149
aS','
p4150
aS'and'
p4151
aS'defend'
p4152
aS'herself'
p4153
aS','
p4154
aS'she'
p4155
aS'was'
p4156
aS'condemned'
p4157
aS'to'
p4158
aS'be'
p4159
aS'burnt'
p4160
aS'at'
p4161
aS'the'
p4162
aS'stake'
p4163
aS'.'
p4164
asg45
(lp4165
VThereupon
p4166
ag49
aVtrial
p4167
ag225
ag1691
ag57
aVand
p4168
ag49
aVshe
p4169
aVcould
p4170
aVnot
p4171
aVanswer
p4172
ag57
aVand
p4173
aVdefend
p4174
aVherself
p4175
ag57
aVshe
p4176
ag225
aVcondemn
p4177
aVto
p4178
aVbe
p4179
aVburnt
p4180
aVat
p4181
aVthe
p4182
aVstake
p4183
ag68
asg69
(lp4184
g71
ag71
ag71
ag71
ag71
ag71
ag71
ag71
ag71
ag71
ag71
ag71
ag71
ag71
ag71
ag71
ag71
ag71
ag71
ag71
ag71
ag71
ag71
ag71
ag71
ag71
ag71
asg72
(lp4185
g74
ag76
ag78
ag82
ag381
ag80
ag143
ag75
ag142
ag326
ag83
ag144
ag80
ag143
ag78
ag78
ag80
ag142
ag82
ag381
ag146
ag144
ag77
ag75
ag76
ag78
ag86
asg87
VThereupon a trial was held, and as she could not answer, and defend herself, she was condemned to be burnt at the stake.
p4186
sba(i__main__
Sentence
p4187
(dp4188
g17
I74
sg18
(lp4189
S'The'
p4190
aS'wood'
p4191
aS'was'
p4192
aS'got'
p4193
aS'together'
p4194
aS','
p4195
aS'and'
p4196
aS'when'
p4197
aS'she'
p4198
aS'was'
p4199
aS'fast'
p4200
aS'bound'
p4201
aS'to'
p4202
aS'the'
p4203
aS'stake'
p4204
aS','
p4205
aS'and'
p4206
aS'the'
p4207
aS'fire'
p4208
aS'began'
p4209
aS'to'
p4210
aS'burn'
p4211
aS'round'
p4212
aS'about'
p4213
aS'her'
p4214
aS','
p4215
aS'the'
p4216
aS'hard'
p4217
aS'ice'
p4218
aS'of'
p4219
aS'pride'
p4220
aS'melted'
p4221
aS','
p4222
aS'her'
p4223
aS'heart'
p4224
aS'was'
p4225
aS'moved'
p4226
aS'by'
p4227
aS'repentance'
p4228
aS','
p4229
aS'and'
p4230
aS'she'
p4231
aS'thought'
p4232
aS"'if"
p4233
aS'I'
p4234
aS'could'
p4235
aS'but'
p4236
aS'confess'
p4237
aS'before'
p4238
aS'my'
p4239
aS'death'
p4240
aS'that'
p4241
aS'I'
p4242
aS'opened'
p4243
aS'the'
p4244
aS'door'
p4245
aS'.'
p4246
aS"'"
p4247
asg45
(lp4248
VThe
p4249
aVwood
p4250
ag225
ag1163
aVtogether
p4251
ag57
aVand
p4252
aVwhen
p4253
aVshe
p4254
ag225
aVfast
p4255
aVbound
p4256
aVto
p4257
aVthe
p4258
aVstake
p4259
ag57
aVand
p4260
aVthe
p4261
aVfire
p4262
ag669
aVto
p4263
aVburn
p4264
aVround
p4265
aVabout
p4266
aVher
p4267
ag57
aVthe
p4268
aVhard
p4269
aVice
p4270
aVof
p4271
aVpride
p4272
aVmelt
p4273
ag57
aVher
p4274
aVheart
p4275
ag225
aVmove
p4276
aVby
p4277
aVrepentance
p4278
ag57
aVand
p4279
aVshe
p4280
ag1077
aV'if
p4281
ag309
aVcould
p4282
aVbut
p4283
aVconfess
p4284
aVbefore
p4285
aVmy
p4286
aVdeath
p4287
aVthat
p4288
ag309
aVopen
p4289
aVthe
p4290
aVdoor
p4291
ag68
ag323
asg69
(lp4292
g71
ag71
ag71
ag71
ag71
ag71
ag71
ag71
ag71
ag71
ag71
ag71
ag71
ag71
ag71
ag71
ag71
ag71
ag71
ag71
ag71
ag71
ag71
ag71
ag71
ag71
ag71
ag71
ag71
ag71
ag71
ag71
ag71
ag71
ag71
ag71
ag71
ag71
ag71
ag71
ag71
ag71
ag71
ag71
ag71
ag71
ag71
ag71
ag71
ag71
ag71
ag71
ag71
ag71
ag71
ag71
ag71
ag71
asg72
(lp4293
g76
ag78
ag82
ag381
ag382
ag80
ag143
ag145
ag142
ag82
ag77
ag78
ag146
ag76
ag78
ag80
ag143
ag76
ag78
ag82
ag146
ag144
ag78
ag75
ag79
ag80
ag76
ag77
ag78
ag75
ag78
ag381
ag80
ag79
ag78
ag82
ag381
ag75
ag78
ag80
ag143
ag142
ag82
ag77
ag142
ag326
ag144
ag78
ag75
ag79
ag78
ag591
ag142
ag82
ag76
ag78
ag86
ag327
asg87
VThe wood was got together, and when she was fast bound to the stake, and the fire began to burn round about her, the hard ice of pride melted, her heart was moved by repentance, and she thought 'if I could but confess before my death that I opened the door.'
p4294
sba(i__main__
Sentence
p4295
(dp4296
g17
I75
sg18
(lp4297
S'Then'
p4298
aS'her'
p4299
aS'voice'
p4300
aS'came'
p4301
aS'back'
p4302
aS'to'
p4303
aS'her'
p4304
aS','
p4305
aS'and'
p4306
aS'she'
p4307
aS'cried'
p4308
aS'out'
p4309
aS'loudly'
p4310
aS"'yes"
p4311
aS','
p4312
aS'mary'
p4313
aS','
p4314
aS'I'
p4315
aS'did'
p4316
aS'it'
p4317
aS','
p4318
aS'and'
p4319
aS'straight-way'
p4320
aS'rain'
p4321
aS'fell'
p4322
aS'from'
p4323
aS'the'
p4324
aS'sky'
p4325
aS'and'
p4326
aS'extinguished'
p4327
aS'the'
p4328
aS'flames'
p4329
aS'of'
p4330
aS'fire'
p4331
aS','
p4332
aS'and'
p4333
aS'a'
p4334
aS'light'
p4335
aS'broke'
p4336
aS'forth'
p4337
aS'above'
p4338
aS'her'
p4339
aS','
p4340
aS'and'
p4341
aS'the'
p4342
aS'virgin'
p4343
aS'mary'
p4344
aS'descended'
p4345
aS'with'
p4346
aS'the'
p4347
aS'two'
p4348
aS'little'
p4349
aS'sons'
p4350
aS'by'
p4351
aS'her'
p4352
aS'side'
p4353
aS','
p4354
aS'and'
p4355
aS'the'
p4356
aS'new-born'
p4357
aS'daughter'
p4358
aS'in'
p4359
aS'her'
p4360
aS'arms'
p4361
aS'.'
p4362
asg45
(lp4363
VThen
p4364
aVher
p4365
aVvoice
p4366
ag1781
aVback
p4367
aVto
p4368
aVher
p4369
ag57
aVand
p4370
aVshe
p4371
ag4089
aVout
p4372
aVloudly
p4373
aV'yes
p4374
ag57
aVmary
p4375
ag57
ag309
ag131
aVit
p4376
ag57
aVand
p4377
aVstraight-way
p4378
aVrain
p4379
aVfell
p4380
aVfrom
p4381
aVthe
p4382
aVsky
p4383
aVand
p4384
aVextinguish
p4385
aVthe
p4386
aVflame
p4387
aVof
p4388
aVfire
p4389
ag57
aVand
p4390
ag49
aVlight
p4391
aVbroke
p4392
aVforth
p4393
aVabove
p4394
aVher
p4395
ag57
aVand
p4396
aVthe
p4397
aVvirgin
p4398
aVmary
p4399
aVdescend
p4400
aVwith
p4401
aVthe
p4402
aVtwo
p4403
aVlittle
p4404
aVson
p4405
aVby
p4406
aVher
p4407
aVside
p4408
ag57
aVand
p4409
aVthe
p4410
aVnew-born
p4411
aVdaughter
p4412
aVin
p4413
aVher
p4414
aVarm
p4415
ag68
asg69
(lp4416
g71
ag71
ag71
ag71
ag71
ag71
ag71
ag71
ag71
ag71
ag71
ag71
ag71
ag71
ag71
ag71
ag71
ag71
ag71
ag71
ag71
ag71
ag71
ag71
ag71
ag71
ag71
ag71
ag71
ag71
ag71
ag71
ag71
ag71
ag71
ag71
ag71
ag71
ag71
ag71
ag71
ag71
ag71
ag71
ag71
ag71
ag71
ag71
ag71
ag71
ag71
ag71
ag71
ag71
ag71
ag71
ag71
ag71
ag71
ag71
ag71
ag71
ag71
ag71
ag71
asg72
(lp4417
g83
ag79
ag78
ag82
ag382
ag146
ag79
ag80
ag143
ag142
ag82
ag382
ag83
ag264
ag80
ag77
ag80
ag142
ag82
ag142
ag80
ag143
ag77
ag78
ag82
ag75
ag76
ag78
ag143
ag82
ag76
ag85
ag75
ag78
ag80
ag143
ag76
ag78
ag78
ag78
ag75
ag79
ag80
ag143
ag76
ag78
ag78
ag82
ag75
ag76
ag84
ag77
ag85
ag75
ag79
ag78
ag80
ag143
ag76
ag78
ag78
ag75
ag79
ag85
ag86
asg87
VThen her voice came back to her, and she cried out loudly 'yes, mary, I did it, and straight-way rain fell from the sky and extinguished the flames of fire, and a light broke forth above her, and the virgin mary descended with the two little sons by her side, and the new-born daughter in her arms.
p4418
sba(i__main__
Sentence
p4419
(dp4420
g17
I76
sg18
(lp4421
S'She'
p4422
aS'spoke'
p4423
aS'kindly'
p4424
aS'to'
p4425
aS'her'
p4426
aS','
p4427
aS'and'
p4428
aS'said'
p4429
aS"'he"
p4430
aS'who'
p4431
aS'repents'
p4432
aS'his'
p4433
aS'sin'
p4434
aS'and'
p4435
aS'acknowledges'
p4436
aS'it'
p4437
aS','
p4438
aS'is'
p4439
aS'forgiven'
p4440
aS'.'
p4441
aS"'"
p4442
asg45
(lp4443
VShe
p4444
ag2744
aVkindly
p4445
aVto
p4446
aVher
p4447
ag57
aVand
p4448
ag246
aV'he
p4449
aVwho
p4450
aVrepents
p4451
aVhis
p4452
aVsin
p4453
aVand
p4454
aVacknowledges
p4455
aVit
p4456
ag57
ag575
aVforgive
p4457
ag68
ag323
asg69
(lp4458
g71
ag71
ag71
ag71
ag71
ag71
ag71
ag71
ag71
ag71
ag71
ag71
ag71
ag71
ag71
ag71
ag71
ag71
ag71
ag71
ag71
asg72
(lp4459
g142
ag82
ag83
ag146
ag79
ag80
ag143
ag82
ag77
ag81
ag85
ag79
ag78
ag143
ag85
ag142
ag80
ag264
ag381
ag86
ag327
asg87
VShe spoke kindly to her, and said 'he who repents his sin and acknowledges it, is forgiven.'
p4460
sba(i__main__
Sentence
p4461
(dp4462
g17
I77
sg18
(lp4463
S'Then'
p4464
aS'she'
p4465
aS'gave'
p4466
aS'her'
p4467
aS'the'
p4468
aS'three'
p4469
aS'children'
p4470
aS','
p4471
aS'untied'
p4472
aS'her'
p4473
aS'tongue'
p4474
aS','
p4475
aS'and'
p4476
aS'granted'
p4477
aS'her'
p4478
aS'happiness'
p4479
aS'for'
p4480
aS'her'
p4481
aS'whole'
p4482
aS'life'
p4483
aS'.'
p4484
asg45
(lp4485
VThen
p4486
aVshe
p4487
ag365
aVher
p4488
aVthe
p4489
aVthree
p4490
ag3867
ag57
aVuntie
p4491
aVher
p4492
aVtongue
p4493
ag57
aVand
p4494
aVgrant
p4495
aVher
p4496
aVhappiness
p4497
aVfor
p4498
aVher
p4499
aVwhole
p4500
aVlife
p4501
ag68
asg69
(lp4502
g71
ag71
ag71
ag71
ag71
ag71
ag71
ag71
ag71
ag71
ag71
ag71
ag71
ag71
ag71
ag71
ag71
ag71
ag71
ag71
ag71
asg72
(lp4503
g83
ag142
ag82
ag79
ag76
ag84
ag85
ag80
ag82
ag142
ag263
ag80
ag143
ag82
ag142
ag78
ag75
ag79
ag77
ag78
ag86
asg87
VThen she gave her the three children, untied her tongue, and granted her happiness for her whole life.  
p4504
sbasbsS'summary'
p4505
g0
(g7
g2
Ntp4506
Rp4507
(dp4508
g11
S'A child is adopted by the Virgin Mary but the sent back to earth after she lies to Mary. She marries a king. The couple has three children, each of which is taken away because the girl will not admit her lie. Just as she is about to be killed, the girl admits her fault and her children are given back to her. '
p4509
sg13
(lp4510
(i__main__
Sentence
p4511
(dp4512
g17
I0
sg18
(lp4513
S'A'
p4514
aS'child'
p4515
aS'is'
p4516
aS'adopted'
p4517
aS'by'
p4518
aS'the'
p4519
aS'Virgin'
p4520
aS'Mary'
p4521
aS'but'
p4522
aS'the'
p4523
aS'sent'
p4524
aS'back'
p4525
aS'to'
p4526
aS'earth'
p4527
aS'after'
p4528
aS'she'
p4529
aS'lies'
p4530
aS'to'
p4531
aS'Mary'
p4532
aS'.'
p4533
asg45
(lp4534
VA
p4535
aVchild
p4536
ag575
aVadopt
p4537
aVby
p4538
aVthe
p4539
aVVirgin
p4540
aVMary
p4541
aVbut
p4542
aVthe
p4543
aVsent
p4544
aVback
p4545
aVto
p4546
aVearth
p4547
aVafter
p4548
aVshe
p4549
aVlie
p4550
aVto
p4551
aVMary
p4552
ag68
asg69
(lp4553
g71
ag71
ag71
ag71
ag71
ag71
aVPERSON
p4554
aVPERSON
p4555
ag71
ag71
ag71
ag71
ag71
ag71
ag71
ag71
ag71
ag71
aVPERSON
p4556
ag71
asg72
(lp4557
g76
ag78
ag264
ag381
ag75
ag76
ag74
ag74
ag143
ag76
ag78
ag83
ag146
ag144
ag75
ag142
ag264
ag146
ag74
ag86
asg87
VA child is adopted by the Virgin Mary but the sent back to earth after she lies to Mary.
p4558
sba(i__main__
Sentence
p4559
(dp4560
g17
I1
sg18
(lp4561
S'She'
p4562
aS'marries'
p4563
aS'a'
p4564
aS'king'
p4565
aS'.'
p4566
asg45
(lp4567
VShe
p4568
aVmarry
p4569
ag49
aVking
p4570
ag68
asg69
(lp4571
g71
ag71
ag71
ag71
ag71
asg72
(lp4572
g142
ag264
ag76
ag78
ag86
asg87
VShe marries a king.
p4573
sba(i__main__
Sentence
p4574
(dp4575
g17
I2
sg18
(lp4576
S'The'
p4577
aS'couple'
p4578
aS'has'
p4579
aS'three'
p4580
aS'children'
p4581
aS','
p4582
aS'each'
p4583
aS'of'
p4584
aS'which'
p4585
aS'is'
p4586
aS'taken'
p4587
aS'away'
p4588
aS'because'
p4589
aS'the'
p4590
aS'girl'
p4591
aS'will'
p4592
aS'not'
p4593
aS'admit'
p4594
aS'her'
p4595
aS'lie'
p4596
aS'.'
p4597
asg45
(lp4598
VThe
p4599
aVcouple
p4600
ag969
aVthree
p4601
ag3867
ag57
aVeach
p4602
aVof
p4603
aVwhich
p4604
ag575
aVtake
p4605
aVaway
p4606
aVbecause
p4607
aVthe
p4608
aVgirl
p4609
aVwill
p4610
aVnot
p4611
aVadmit
p4612
aVher
p4613
aVlie
p4614
ag68
asg69
(lp4615
g71
ag71
ag71
ag71
ag71
ag71
ag71
ag71
ag71
ag71
ag71
ag71
ag71
ag71
ag71
ag71
ag71
ag71
ag71
ag71
ag71
asg72
(lp4616
g76
ag78
ag264
ag84
ag85
ag80
ag76
ag75
ag591
ag264
ag381
ag83
ag75
ag76
ag78
ag326
ag83
ag144
ag79
ag78
ag86
asg87
VThe couple has three children, each of which is taken away because the girl will not admit her lie.
p4617
sba(i__main__
Sentence
p4618
(dp4619
g17
I3
sg18
(lp4620
S'Just'
p4621
aS'as'
p4622
aS'she'
p4623
aS'is'
p4624
aS'about'
p4625
aS'to'
p4626
aS'be'
p4627
aS'killed'
p4628
aS','
p4629
aS'the'
p4630
aS'girl'
p4631
aS'admits'
p4632
aS'her'
p4633
aS'fault'
p4634
aS'and'
p4635
aS'her'
p4636
aS'children'
p4637
aS'are'
p4638
aS'given'
p4639
aS'back'
p4640
aS'to'
p4641
aS'her'
p4642
aS'.'
p4643
asg45
(lp4644
VJust
p4645
ag49
aVshe
p4646
ag575
aVabout
p4647
aVto
p4648
aVbe
p4649
aVkill
p4650
ag57
aVthe
p4651
aVgirl
p4652
aVadmit
p4653
aVher
p4654
aVfault
p4655
aVand
p4656
aVher
p4657
ag3867
ag300
aVgive
p4658
aVback
p4659
aVto
p4660
aVher
p4661
ag68
asg69
(lp4662
g71
ag71
ag71
ag71
ag71
ag71
ag71
ag71
ag71
ag71
ag71
ag71
ag71
ag71
ag71
ag71
ag71
ag71
ag71
ag71
ag71
ag71
ag71
asg72
(lp4663
g83
ag75
ag142
ag264
ag75
ag146
ag144
ag381
ag80
ag76
ag78
ag264
ag79
ag78
ag143
ag79
ag85
ag263
ag381
ag83
ag146
ag79
ag86
asg87
VJust as she is about to be killed, the girl admits her fault and her children are given back to her. 
p4664
sbasbsS'name'
p4665
S"Our Lady's Child"
p4666
sS'summaries'
p4667
(lp4668
g4507
asb.