ccopy_reg
_reconstructor
p0
(c__main__
Story
p1
c__builtin__
object
p2
Ntp3
Rp4
(dp5
S'text'
p6
g0
(c__main__
Document
p7
g2
Ntp8
Rp9
(dp10
S'_Document__initialContent'
p11
S"A sparrow had four young ones in a swallow's nest.  When they\nwere fledged, some naughty boys pulled out the nest, but\nfortunately all the birds got safely away in the high wind.  Then\nthe old bird was grieved that as his sons had all gone out into\nthe world, he had not first warned them of every kind of danger,\nand given them good instruction how to deal with each.\nIn the autumn a great many sparrows assembled together in a\nwheatfield, and there the old bird met his four children again,\nand full of joy took them home with him.  Ah, my dear sons, how\nI have been worrying about you all through the summer, because you\ngot away in the wind without my teaching.  Listen to my words,\nobey your father, and be well on your guard.  Little birds have\nto encounter great dangers.  And then he asked the eldest where\nhe had spent the summer, and how he had supported himself.  I\nstayed in the gardens, and looked for caterpillars and small worms,\nuntil the cherries were ripe.  Ah, my son, said the father,\ntit-bits\nare not bad, but there is great risk about them.  On that account\ntake great care of yourself henceforth, and particularly when\npeople are going about the gardens who carry long green poles\nwhich are hollow inside and have a little hole at the top.  Yes,\nfather, but what if a little green leaf is stuck over the hole\nwith wax, said the son.  Where have you seen that.  In a\nmerchant's garden, said the youngster.  Oh, my son, merchant folks\nare smart folks, said the father.  If you have been among the\nchildren of the world, you have learned worldly craftiness enough,\nonly see that you use it well, and do not be too confident.\nThen he asked the next, where have you passed your time.  At\ncourt, said the son.  Sparrows and silly little birds are of\nno use in that place.  There one finds much gold, velvet, silk,\narmor, harnesses, sparrow-hawks, screech-owls and lanners.  Keep\nto the horses, stable where they winnow oats, or thresh, and\nthen fortune may give you your daily grain of corn in peace.  Yes,\nfather, said the son, but when the stable-boys make traps and fix\ntheir gins and snares in the straw, many a one is caught.\nWhere have you seen that, said the old bird.  At court, among the\nstable-boys.  Oh, my son, court boys are bad boys.  If you\nhave been to court and among the lords, and have left no feathers\nthere, you have learnt a fair amount, and will know very well\nhow to go about the world, but look around you and above you,\nfor the wolves often devour the wisest dogs.\nThe father examined the third also, where did you seek your\nfortune.  I have cast my tub and rope on the cart-roads and\nhighways, and sometimes met with a grain of corn or barley.  That\nis indeed dainty fare, said the father, but take care what you\nare about and look carefully around, especially when you see\nanyone stooping and about to pick up a stone, for then\nyou have not much time to waste.  That is true, said the son,\nbut what if anyone should carry a bit of rock, or ore, ready\nbeforehand in his breast or pocket.  Where have you seen that.\nAmong the miners, dear father.  When they get out of the pit,\nthey generally take little bits of ore with them.  Mining folks\nare working folks, and clever folks.\nIf you have been among mining lads, you have seen and learnt\nsomething, but when you go thither beware, for many a sparrow\nhas been brought to a bad end by a mining boy throwing a piece\nof cobalt.\nAt length the father came to the youngest son, you, my dear\nchirping nestling, were always the silliest and weakest.  Stay\nwith me, the world has many rough, wicked birds which have\ncrooked beaks and long claws, and lie in wait for poor little\nbirds and swallow them.  Keep with those of your own kind, and\npick up little spiders and caterpillars from the trees, or the\nhouses, and then you will live long in peace.  My dear father,\nhe who feeds himself without injury to other people fares well,\nand no sparrow-hawk, eagle, or kite will hurt him if he commits\nhimself and his lawful food, evening and morning, faithfully to\nGod, who is the creator and preserver of all forest and village\nbirds, who likewise heareth the cry and prayer of the young\nravens, for no sparrow or wren ever falls to the ground except\nby his will.  Where have you learnt this.  The son answered,\nwhen the great blast of wind tore me away from you I came to a\nchurch, and there during the summer I have picked up the flies\nand spiders from the windows, and heard this discourse preached.\nThe father of all sparrows fed me all the\nsummer through, and kept me from all misfortune and from\nferocious birds.  Indeed, my dear son, if you take refuge in\nthe churches and help to clear away spiders and buzzing flies,\nand chirp unto God like the young ravens, and commend\nyourself to the eternal creator, all will be well with you,\nand that even if the whole world were full of wild malicious birds.\n               He who to God commits his ways,\n               in silence suffers, waits, and prays,\n               preserves his faith and conscience pure,\n               he is of God's protection sure.\n"
p12
sS'sentences'
p13
(lp14
(i__main__
Sentence
p15
(dp16
S'index'
p17
I0
sS'words'
p18
(lp19
S'A'
p20
aS'sparrow'
p21
aS'had'
p22
aS'four'
p23
aS'young'
p24
aS'ones'
p25
aS'in'
p26
aS'a'
p27
aS'swallow'
p28
aS"'s"
p29
aS'nest'
p30
aS'.'
p31
asS'lemmas'
p32
(lp33
VA
p34
aVsparrow
p35
aVhave
p36
aVfour
p37
aVyoung
p38
aVone
p39
aVin
p40
aVa
p41
aVswallow
p42
aV's
p43
aVnest
p44
aV.
p45
asS'nerTags'
p46
(lp47
VO
p48
ag48
ag48
ag48
ag48
ag48
ag48
ag48
ag48
ag48
ag48
ag48
asS'posTags'
p49
(lp50
S'DT'
p51
aS'NN'
p52
aS'VBD'
p53
aS'CD'
p54
aS'JJ'
p55
aS'NNS'
p56
aS'IN'
p57
ag51
ag52
aS'POS'
p58
ag52
aS'.'
p59
asS'_Sentence__initialContent'
p60
VA sparrow had four young ones in a swallow's nest.
p61
sba(i__main__
Sentence
p62
(dp63
g17
I1
sg18
(lp64
S'When'
p65
aS'they'
p66
aS'were'
p67
aS'fledged'
p68
aS','
p69
aS'some'
p70
aS'naughty'
p71
aS'boys'
p72
aS'pulled'
p73
aS'out'
p74
aS'the'
p75
aS'nest'
p76
aS','
p77
aS'but'
p78
aS'fortunately'
p79
aS'all'
p80
aS'the'
p81
aS'birds'
p82
aS'got'
p83
aS'safely'
p84
aS'away'
p85
aS'in'
p86
aS'the'
p87
aS'high'
p88
aS'wind'
p89
aS'.'
p90
asg32
(lp91
VWhen
p92
aVthey
p93
aVbe
p94
aVfledge
p95
aV,
p96
aVsome
p97
aVnaughty
p98
aVboy
p99
aVpull
p100
aVout
p101
aVthe
p102
aVnest
p103
ag96
aVbut
p104
aVfortunately
p105
aVall
p106
aVthe
p107
aVbird
p108
aVget
p109
aVsafely
p110
aVaway
p111
aVin
p112
aVthe
p113
aVhigh
p114
aVwind
p115
ag45
asg46
(lp116
g48
ag48
ag48
ag48
ag48
ag48
ag48
ag48
ag48
ag48
ag48
ag48
ag48
ag48
ag48
ag48
ag48
ag48
ag48
ag48
ag48
ag48
ag48
ag48
ag48
ag48
asg49
(lp117
S'WRB'
p118
aS'PRP'
p119
ag53
aS'VBN'
p120
aS','
p121
ag51
ag52
ag56
ag53
ag57
ag51
aS'JJS'
p122
ag121
aS'CC'
p123
aS'RB'
p124
ag51
ag51
ag56
ag53
ag124
ag124
ag57
ag51
ag55
ag52
ag59
asg60
VWhen they were fledged, some naughty boys pulled out the nest, but fortunately all the birds got safely away in the high wind.
p125
sba(i__main__
Sentence
p126
(dp127
g17
I2
sg18
(lp128
S'Then'
p129
aS'the'
p130
aS'old'
p131
aS'bird'
p132
aS'was'
p133
aS'grieved'
p134
aS'that'
p135
aS'as'
p136
aS'his'
p137
aS'sons'
p138
aS'had'
p139
aS'all'
p140
aS'gone'
p141
aS'out'
p142
aS'into'
p143
aS'the'
p144
aS'world'
p145
aS','
p146
aS'he'
p147
aS'had'
p148
aS'not'
p149
aS'first'
p150
aS'warned'
p151
aS'them'
p152
aS'of'
p153
aS'every'
p154
aS'kind'
p155
aS'of'
p156
aS'danger'
p157
aS','
p158
aS'and'
p159
aS'given'
p160
aS'them'
p161
aS'good'
p162
aS'instruction'
p163
aS'how'
p164
aS'to'
p165
aS'deal'
p166
aS'with'
p167
aS'each'
p168
aS'.'
p169
asg32
(lp170
VThen
p171
aVthe
p172
aVold
p173
aVbird
p174
aVbe
p175
aVgrieve
p176
aVthat
p177
ag41
aVhis
p178
aVson
p179
ag36
aVall
p180
aVgone
p181
aVout
p182
aVinto
p183
aVthe
p184
aVworld
p185
ag96
aVhe
p186
ag36
aVnot
p187
aVfirst
p188
aVwarn
p189
aVthem
p190
aVof
p191
aVevery
p192
aVkind
p193
aVof
p194
aVdanger
p195
ag96
aVand
p196
aVgive
p197
aVthem
p198
aVgood
p199
aVinstruction
p200
aVhow
p201
aVto
p202
aVdeal
p203
aVwith
p204
aVeach
p205
ag45
asg46
(lp206
g48
ag48
ag48
ag48
ag48
ag48
ag48
ag48
ag48
ag48
ag48
ag48
ag48
ag48
ag48
ag48
ag48
ag48
ag48
ag48
ag48
ag48
ag48
ag48
ag48
ag48
ag48
ag48
ag48
ag48
ag48
ag48
ag48
ag48
ag48
ag48
ag48
ag48
ag48
ag48
ag48
asg49
(lp207
g124
ag51
ag55
ag52
ag53
ag120
ag57
ag57
aS'PRP$'
p208
ag56
ag53
ag51
ag52
aS'RP'
p209
ag57
ag51
ag52
ag121
ag119
ag53
ag124
ag55
ag120
ag119
ag57
ag51
ag52
ag57
ag52
ag121
ag123
ag120
ag119
ag55
ag52
ag118
aS'TO'
p210
aS'VB'
p211
ag57
ag51
ag59
asg60
VThen the old bird was grieved that as his sons had all gone out into the world, he had not first warned them of every kind of danger, and given them good instruction how to deal with each.
p212
sba(i__main__
Sentence
p213
(dp214
g17
I3
sg18
(lp215
S'In'
p216
aS'the'
p217
aS'autumn'
p218
aS'a'
p219
aS'great'
p220
aS'many'
p221
aS'sparrows'
p222
aS'assembled'
p223
aS'together'
p224
aS'in'
p225
aS'a'
p226
aS'wheatfield'
p227
aS','
p228
aS'and'
p229
aS'there'
p230
aS'the'
p231
aS'old'
p232
aS'bird'
p233
aS'met'
p234
aS'his'
p235
aS'four'
p236
aS'children'
p237
aS'again'
p238
aS','
p239
aS'and'
p240
aS'full'
p241
aS'of'
p242
aS'joy'
p243
aS'took'
p244
aS'them'
p245
aS'home'
p246
aS'with'
p247
aS'him'
p248
aS'.'
p249
asg32
(lp250
VIn
p251
aVthe
p252
aVautumn
p253
ag41
aVgreat
p254
aVmany
p255
aVsparrow
p256
aVassemble
p257
aVtogether
p258
aVin
p259
ag41
aVwheatfield
p260
ag96
aVand
p261
aVthere
p262
aVthe
p263
aVold
p264
aVbird
p265
aVmet
p266
aVhis
p267
aVfour
p268
aVchild
p269
aVagain
p270
ag96
aVand
p271
aVfull
p272
aVof
p273
aVjoy
p274
aVtake
p275
aVthem
p276
aVhome
p277
aVwith
p278
aVhim
p279
ag45
asg46
(lp280
g48
ag48
ag48
ag48
ag48
ag48
ag48
ag48
ag48
ag48
ag48
ag48
ag48
ag48
ag48
ag48
ag48
ag48
ag48
ag48
ag48
ag48
ag48
ag48
ag48
ag48
ag48
ag48
ag48
ag48
ag48
ag48
ag48
ag48
asg49
(lp281
g57
ag51
ag52
ag51
ag55
ag55
ag56
ag120
ag209
ag57
ag51
ag52
ag121
ag123
aS'EX'
p282
ag51
ag55
ag52
ag52
ag208
ag54
ag56
ag124
ag121
ag123
ag55
ag57
ag52
ag53
ag119
ag52
ag57
ag119
ag59
asg60
VIn the autumn a great many sparrows assembled together in a wheatfield, and there the old bird met his four children again, and full of joy took them home with him.
p283
sba(i__main__
Sentence
p284
(dp285
g17
I4
sg18
(lp286
S'Ah'
p287
aS','
p288
aS'my'
p289
aS'dear'
p290
aS'sons'
p291
aS','
p292
aS'how'
p293
aS'I'
p294
aS'have'
p295
aS'been'
p296
aS'worrying'
p297
aS'about'
p298
aS'you'
p299
aS'all'
p300
aS'through'
p301
aS'the'
p302
aS'summer'
p303
aS','
p304
aS'because'
p305
aS'you'
p306
aS'got'
p307
aS'away'
p308
aS'in'
p309
aS'the'
p310
aS'wind'
p311
aS'without'
p312
aS'my'
p313
aS'teaching'
p314
aS'.'
p315
asg32
(lp316
VAh
p317
ag96
aVmy
p318
aVdear
p319
aVson
p320
ag96
aVhow
p321
aVI
p322
aVhave
p323
aVbe
p324
aVworry
p325
aVabout
p326
aVyou
p327
aVall
p328
aVthrough
p329
aVthe
p330
aVsummer
p331
ag96
aVbecause
p332
aVyou
p333
ag109
aVaway
p334
aVin
p335
aVthe
p336
aVwind
p337
aVwithout
p338
aVmy
p339
aVteaching
p340
ag45
asg46
(lp341
g48
ag48
ag48
ag48
ag48
ag48
ag48
ag48
ag48
ag48
ag48
ag48
ag48
ag48
ag48
ag48
ag48
ag48
ag48
ag48
ag48
ag48
ag48
ag48
ag48
ag48
ag48
ag48
ag48
asg49
(lp342
S'NNP'
p343
ag121
ag208
ag52
ag56
ag121
ag118
ag119
aS'VBP'
p344
ag120
aS'VBG'
p345
ag57
ag119
ag51
ag57
ag51
ag52
ag121
ag57
ag119
ag53
ag124
ag57
ag51
ag52
ag57
ag208
ag52
ag59
asg60
VAh, my dear sons, how I have been worrying about you all through the summer, because you got away in the wind without my teaching.
p346
sba(i__main__
Sentence
p347
(dp348
g17
I5
sg18
(lp349
S'Listen'
p350
aS'to'
p351
aS'my'
p352
aS'words'
p353
aS','
p354
aS'obey'
p355
aS'your'
p356
aS'father'
p357
aS','
p358
aS'and'
p359
aS'be'
p360
aS'well'
p361
aS'on'
p362
aS'your'
p363
aS'guard'
p364
aS'.'
p365
asg32
(lp366
VListen
p367
aVto
p368
aVmy
p369
aVword
p370
ag96
aVobey
p371
aVyour
p372
aVfather
p373
ag96
aVand
p374
aVbe
p375
aVwell
p376
aVon
p377
aVyour
p378
aVguard
p379
ag45
asg46
(lp380
g48
ag48
ag48
ag48
ag48
ag48
ag48
ag48
ag48
ag48
ag48
ag48
ag48
ag48
ag48
ag48
asg49
(lp381
g343
ag210
ag208
ag56
ag121
ag52
ag208
ag52
ag121
ag123
ag211
ag124
ag57
ag208
ag52
ag59
asg60
VListen to my words, obey your father, and be well on your guard.
p382
sba(i__main__
Sentence
p383
(dp384
g17
I6
sg18
(lp385
S'Little'
p386
aS'birds'
p387
aS'have'
p388
aS'to'
p389
aS'encounter'
p390
aS'great'
p391
aS'dangers'
p392
aS'.'
p393
asg32
(lp394
VLittle
p395
aVbird
p396
aVhave
p397
aVto
p398
aVencounter
p399
aVgreat
p400
aVdanger
p401
ag45
asg46
(lp402
g48
ag48
ag48
ag48
ag48
ag48
ag48
ag48
asg49
(lp403
g124
ag56
ag344
ag210
aS'RBR'
p404
ag55
ag56
ag59
asg60
VLittle birds have to encounter great dangers.
p405
sba(i__main__
Sentence
p406
(dp407
g17
I7
sg18
(lp408
S'And'
p409
aS'then'
p410
aS'he'
p411
aS'asked'
p412
aS'the'
p413
aS'eldest'
p414
aS'where'
p415
aS'he'
p416
aS'had'
p417
aS'spent'
p418
aS'the'
p419
aS'summer'
p420
aS','
p421
aS'and'
p422
aS'how'
p423
aS'he'
p424
aS'had'
p425
aS'supported'
p426
aS'himself'
p427
aS'.'
p428
asg32
(lp429
VAnd
p430
aVthen
p431
aVhe
p432
aVask
p433
aVthe
p434
aVeldest
p435
aVwhere
p436
aVhe
p437
ag36
aVspend
p438
aVthe
p439
aVsummer
p440
ag96
aVand
p441
aVhow
p442
aVhe
p443
ag36
aVsupport
p444
aVhimself
p445
ag45
asg46
(lp446
g48
ag48
ag48
ag48
ag48
ag48
ag48
ag48
ag48
ag48
ag48
ag48
ag48
ag48
ag48
ag48
ag48
ag48
ag48
ag48
asg49
(lp447
g123
ag124
ag119
ag53
ag51
ag122
ag118
ag119
ag53
ag120
ag51
ag52
ag121
ag123
ag118
ag119
ag53
ag120
ag119
ag59
asg60
VAnd then he asked the eldest where he had spent the summer, and how he had supported himself.
p448
sba(i__main__
Sentence
p449
(dp450
g17
I8
sg18
(lp451
S'I'
p452
aS'stayed'
p453
aS'in'
p454
aS'the'
p455
aS'gardens'
p456
aS','
p457
aS'and'
p458
aS'looked'
p459
aS'for'
p460
aS'caterpillars'
p461
aS'and'
p462
aS'small'
p463
aS'worms'
p464
aS','
p465
aS'until'
p466
aS'the'
p467
aS'cherries'
p468
aS'were'
p469
aS'ripe'
p470
aS'.'
p471
asg32
(lp472
g322
aVstay
p473
aVin
p474
aVthe
p475
aVgarden
p476
ag96
aVand
p477
aVlook
p478
aVfor
p479
aVcaterpillar
p480
aVand
p481
aVsmall
p482
aVworm
p483
ag96
aVuntil
p484
aVthe
p485
aVcherry
p486
ag94
aVripe
p487
ag45
asg46
(lp488
g48
ag48
ag48
ag48
ag48
ag48
ag48
ag48
ag48
ag48
ag48
ag48
ag48
ag48
ag48
ag48
ag48
ag48
ag48
ag48
asg49
(lp489
g119
ag53
ag57
ag51
ag56
ag121
ag123
ag53
ag57
ag56
ag123
ag55
ag56
ag121
ag57
ag51
ag56
ag53
ag52
ag59
asg60
VI stayed in the gardens, and looked for caterpillars and small worms, until the cherries were ripe.
p490
sba(i__main__
Sentence
p491
(dp492
g17
I9
sg18
(lp493
S'Ah'
p494
aS','
p495
aS'my'
p496
aS'son'
p497
aS','
p498
aS'said'
p499
aS'the'
p500
aS'father'
p501
aS','
p502
aS'tit-bits'
p503
aS'are'
p504
aS'not'
p505
aS'bad'
p506
aS','
p507
aS'but'
p508
aS'there'
p509
aS'is'
p510
aS'great'
p511
aS'risk'
p512
aS'about'
p513
aS'them'
p514
aS'.'
p515
asg32
(lp516
VAh
p517
ag96
aVmy
p518
aVson
p519
ag96
aVsay
p520
aVthe
p521
aVfather
p522
ag96
aVtit-bits
p523
aVbe
p524
aVnot
p525
aVbad
p526
ag96
aVbut
p527
aVthere
p528
aVbe
p529
aVgreat
p530
aVrisk
p531
aVabout
p532
aVthem
p533
ag45
asg46
(lp534
g48
ag48
ag48
ag48
ag48
ag48
ag48
ag48
ag48
ag48
ag48
ag48
ag48
ag48
ag48
ag48
ag48
ag48
ag48
ag48
ag48
ag48
asg49
(lp535
g343
ag121
ag208
ag52
ag121
ag53
ag51
ag52
ag121
ag56
ag344
ag124
ag55
ag121
ag123
ag282
aS'VBZ'
p536
ag55
ag52
ag57
ag119
ag59
asg60
VAh, my son, said the father, tit-bits are not bad, but there is great risk about them.
p537
sba(i__main__
Sentence
p538
(dp539
g17
I10
sg18
(lp540
S'On'
p541
aS'that'
p542
aS'account'
p543
aS'take'
p544
aS'great'
p545
aS'care'
p546
aS'of'
p547
aS'yourself'
p548
aS'henceforth'
p549
aS','
p550
aS'and'
p551
aS'particularly'
p552
aS'when'
p553
aS'people'
p554
aS'are'
p555
aS'going'
p556
aS'about'
p557
aS'the'
p558
aS'gardens'
p559
aS'who'
p560
aS'carry'
p561
aS'long'
p562
aS'green'
p563
aS'poles'
p564
aS'which'
p565
aS'are'
p566
aS'hollow'
p567
aS'inside'
p568
aS'and'
p569
aS'have'
p570
aS'a'
p571
aS'little'
p572
aS'hole'
p573
aS'at'
p574
aS'the'
p575
aS'top'
p576
aS'.'
p577
asg32
(lp578
VOn
p579
aVthat
p580
aVaccount
p581
aVtake
p582
aVgreat
p583
aVcare
p584
aVof
p585
aVyourself
p586
aVhenceforth
p587
ag96
aVand
p588
aVparticularly
p589
aVwhen
p590
aVpeople
p591
ag524
aVgo
p592
aVabout
p593
aVthe
p594
aVgarden
p595
aVwho
p596
aVcarry
p597
aVlong
p598
aVgreen
p599
aVpole
p600
aVwhich
p601
ag524
aVhollow
p602
aVinside
p603
aVand
p604
aVhave
p605
ag41
aVlittle
p606
aVhole
p607
aVat
p608
aVthe
p609
aVtop
p610
ag45
asg46
(lp611
g48
ag48
ag48
ag48
ag48
ag48
ag48
ag48
ag48
ag48
ag48
ag48
ag48
ag48
ag48
ag48
ag48
ag48
ag48
ag48
ag48
ag48
ag48
ag48
ag48
ag48
ag48
ag48
ag48
ag48
ag48
ag48
ag48
ag48
ag48
ag48
ag48
asg49
(lp612
g57
ag51
ag52
ag211
ag55
ag52
ag57
ag119
ag57
ag121
ag123
ag124
ag118
ag56
ag344
ag345
ag57
ag51
ag56
aS'WP'
p613
ag344
ag124
ag55
ag56
aS'WDT'
p614
ag344
ag124
ag55
ag123
ag344
ag51
ag124
ag55
ag57
ag51
ag55
ag59
asg60
VOn that account take great care of yourself henceforth, and particularly when people are going about the gardens who carry long green poles which are hollow inside and have a little hole at the top.
p615
sba(i__main__
Sentence
p616
(dp617
g17
I11
sg18
(lp618
S'Yes'
p619
aS','
p620
aS'father'
p621
aS','
p622
aS'but'
p623
aS'what'
p624
aS'if'
p625
aS'a'
p626
aS'little'
p627
aS'green'
p628
aS'leaf'
p629
aS'is'
p630
aS'stuck'
p631
aS'over'
p632
aS'the'
p633
aS'hole'
p634
aS'with'
p635
aS'wax'
p636
aS','
p637
aS'said'
p638
aS'the'
p639
aS'son'
p640
aS'.'
p641
asg32
(lp642
VYes
p643
ag96
aVfather
p644
ag96
aVbut
p645
aVwhat
p646
aVif
p647
ag41
aVlittle
p648
aVgreen
p649
aVleaf
p650
ag529
aVstuck
p651
aVover
p652
aVthe
p653
aVhole
p654
aVwith
p655
aVwax
p656
ag96
ag520
aVthe
p657
aVson
p658
ag45
asg46
(lp659
g48
ag48
ag48
ag48
ag48
ag48
ag48
ag48
ag48
ag48
ag48
ag48
ag48
ag48
ag48
ag48
ag48
ag48
ag48
ag48
ag48
ag48
ag48
asg49
(lp660
g56
ag121
ag52
ag121
ag123
ag613
ag57
ag51
ag124
ag120
ag52
ag536
ag52
ag57
ag51
ag52
ag57
ag52
ag121
ag53
ag51
ag52
ag59
asg60
VYes, father, but what if a little green leaf is stuck over the hole with wax, said the son.
p661
sba(i__main__
Sentence
p662
(dp663
g17
I12
sg18
(lp664
S'Where'
p665
aS'have'
p666
aS'you'
p667
aS'seen'
p668
aS'that'
p669
aS'.'
p670
asg32
(lp671
VWhere
p672
aVhave
p673
aVyou
p674
aVsee
p675
aVthat
p676
ag45
asg46
(lp677
g48
ag48
ag48
ag48
ag48
ag48
asg49
(lp678
g118
ag344
ag119
ag120
ag57
ag59
asg60
VWhere have you seen that.
p679
sba(i__main__
Sentence
p680
(dp681
g17
I13
sg18
(lp682
S'In'
p683
aS'a'
p684
aS'merchant'
p685
aS"'s"
p686
aS'garden'
p687
aS','
p688
aS'said'
p689
aS'the'
p690
aS'youngster'
p691
aS'.'
p692
asg32
(lp693
VIn
p694
ag41
aVmerchant
p695
aV's
p696
aVgarden
p697
ag96
ag520
aVthe
p698
aVyoungster
p699
ag45
asg46
(lp700
g48
ag48
ag48
ag48
ag48
ag48
ag48
ag48
ag48
ag48
asg49
(lp701
g57
ag51
ag52
ag58
ag52
ag121
ag53
ag51
ag52
ag59
asg60
VIn a merchant's garden, said the youngster.
p702
sba(i__main__
Sentence
p703
(dp704
g17
I14
sg18
(lp705
S'Oh'
p706
aS','
p707
aS'my'
p708
aS'son'
p709
aS','
p710
aS'merchant'
p711
aS'folks'
p712
aS'are'
p713
aS'smart'
p714
aS'folks'
p715
aS','
p716
aS'said'
p717
aS'the'
p718
aS'father'
p719
aS'.'
p720
asg32
(lp721
VOh
p722
ag96
aVmy
p723
aVson
p724
ag96
aVmerchant
p725
aVfolk
p726
ag524
aVsmart
p727
aVfolk
p728
ag96
ag520
aVthe
p729
aVfather
p730
ag45
asg46
(lp731
g48
ag48
ag48
ag48
ag48
ag48
ag48
ag48
ag48
ag48
ag48
ag48
ag48
ag48
ag48
asg49
(lp732
S'UH'
p733
ag121
ag208
ag52
ag121
ag52
ag56
ag344
ag52
ag56
ag121
ag53
ag51
ag52
ag59
asg60
VOh, my son, merchant folks are smart folks, said the father.
p734
sba(i__main__
Sentence
p735
(dp736
g17
I15
sg18
(lp737
S'If'
p738
aS'you'
p739
aS'have'
p740
aS'been'
p741
aS'among'
p742
aS'the'
p743
aS'children'
p744
aS'of'
p745
aS'the'
p746
aS'world'
p747
aS','
p748
aS'you'
p749
aS'have'
p750
aS'learned'
p751
aS'worldly'
p752
aS'craftiness'
p753
aS'enough'
p754
aS','
p755
aS'only'
p756
aS'see'
p757
aS'that'
p758
aS'you'
p759
aS'use'
p760
aS'it'
p761
aS'well'
p762
aS','
p763
aS'and'
p764
aS'do'
p765
aS'not'
p766
aS'be'
p767
aS'too'
p768
aS'confident'
p769
aS'.'
p770
asg32
(lp771
VIf
p772
aVyou
p773
aVhave
p774
ag324
aVamong
p775
aVthe
p776
ag269
aVof
p777
aVthe
p778
aVworld
p779
ag96
aVyou
p780
aVhave
p781
aVlearn
p782
aVworldly
p783
aVcraftiness
p784
aVenough
p785
ag96
aVonly
p786
aVsee
p787
aVthat
p788
aVyou
p789
aVuse
p790
aVit
p791
aVwell
p792
ag96
aVand
p793
aVdo
p794
aVnot
p795
aVbe
p796
aVtoo
p797
aVconfident
p798
ag45
asg46
(lp799
g48
ag48
ag48
ag48
ag48
ag48
ag48
ag48
ag48
ag48
ag48
ag48
ag48
ag48
ag48
ag48
ag48
ag48
ag48
ag48
ag48
ag48
ag48
ag48
ag48
ag48
ag48
ag48
ag48
ag48
ag48
ag48
ag48
asg49
(lp800
g57
ag119
ag344
ag120
ag57
ag51
ag56
ag57
ag51
ag52
ag121
ag119
ag344
ag120
ag124
ag55
ag124
ag121
ag124
ag211
ag57
ag119
ag344
ag119
ag124
ag121
ag123
ag211
ag124
ag211
ag124
ag55
ag59
asg60
VIf you have been among the children of the world, you have learned worldly craftiness enough, only see that you use it well, and do not be too confident.
p801
sba(i__main__
Sentence
p802
(dp803
g17
I16
sg18
(lp804
S'Then'
p805
aS'he'
p806
aS'asked'
p807
aS'the'
p808
aS'next'
p809
aS','
p810
aS'where'
p811
aS'have'
p812
aS'you'
p813
aS'passed'
p814
aS'your'
p815
aS'time'
p816
aS'.'
p817
asg32
(lp818
VThen
p819
aVhe
p820
aVask
p821
aVthe
p822
aVnext
p823
ag96
aVwhere
p824
aVhave
p825
aVyou
p826
aVpass
p827
aVyour
p828
aVtime
p829
ag45
asg46
(lp830
g48
ag48
ag48
ag48
ag48
ag48
ag48
ag48
ag48
ag48
ag48
ag48
ag48
asg49
(lp831
g124
ag119
ag53
ag51
ag55
ag121
ag118
ag344
ag119
ag53
ag208
ag52
ag59
asg60
VThen he asked the next, where have you passed your time.
p832
sba(i__main__
Sentence
p833
(dp834
g17
I17
sg18
(lp835
S'At'
p836
aS'court'
p837
aS','
p838
aS'said'
p839
aS'the'
p840
aS'son'
p841
aS'.'
p842
asg32
(lp843
VAt
p844
aVcourt
p845
ag96
ag520
aVthe
p846
aVson
p847
ag45
asg46
(lp848
g48
ag48
ag48
ag48
ag48
ag48
ag48
asg49
(lp849
g57
ag52
ag121
ag53
ag51
ag52
ag59
asg60
VAt court, said the son.
p850
sba(i__main__
Sentence
p851
(dp852
g17
I18
sg18
(lp853
S'Sparrows'
p854
aS'and'
p855
aS'silly'
p856
aS'little'
p857
aS'birds'
p858
aS'are'
p859
aS'of'
p860
aS'no'
p861
aS'use'
p862
aS'in'
p863
aS'that'
p864
aS'place'
p865
aS'.'
p866
asg32
(lp867
VSparrows
p868
aVand
p869
aVsilly
p870
aVlittle
p871
aVbird
p872
ag524
aVof
p873
aVno
p874
aVuse
p875
aVin
p876
aVthat
p877
aVplace
p878
ag45
asg46
(lp879
g48
ag48
ag48
ag48
ag48
ag48
ag48
ag48
ag48
ag48
ag48
ag48
ag48
asg49
(lp880
g56
ag123
ag124
ag124
ag56
ag344
ag57
ag51
ag52
ag57
ag51
ag52
ag59
asg60
VSparrows and silly little birds are of no use in that place.
p881
sba(i__main__
Sentence
p882
(dp883
g17
I19
sg18
(lp884
S'There'
p885
aS'one'
p886
aS'finds'
p887
aS'much'
p888
aS'gold'
p889
aS','
p890
aS'velvet'
p891
aS','
p892
aS'silk'
p893
aS','
p894
aS'armor'
p895
aS','
p896
aS'harnesses'
p897
aS','
p898
aS'sparrow-hawks'
p899
aS','
p900
aS'screech-owls'
p901
aS'and'
p902
aS'lanners'
p903
aS'.'
p904
asg32
(lp905
VThere
p906
aVone
p907
aVfind
p908
aVmuch
p909
aVgold
p910
ag96
aVvelvet
p911
ag96
aVsilk
p912
ag96
aVarmor
p913
ag96
aVharness
p914
ag96
aVsparrow-hawks
p915
ag96
aVscreech-owls
p916
aVand
p917
aVlanners
p918
ag45
asg46
(lp919
g48
ag48
ag48
ag48
ag48
ag48
ag48
ag48
ag48
ag48
ag48
ag48
ag48
ag48
ag48
ag48
ag48
ag48
ag48
ag48
asg49
(lp920
g282
ag54
ag56
ag124
ag52
ag121
ag52
ag121
ag52
ag121
ag52
ag121
ag56
ag121
ag56
ag121
ag56
ag123
ag56
ag59
asg60
VThere one finds much gold, velvet, silk, armor, harnesses, sparrow-hawks, screech-owls and lanners.
p921
sba(i__main__
Sentence
p922
(dp923
g17
I20
sg18
(lp924
S'Keep'
p925
aS'to'
p926
aS'the'
p927
aS'horses'
p928
aS','
p929
aS'stable'
p930
aS'where'
p931
aS'they'
p932
aS'winnow'
p933
aS'oats'
p934
aS','
p935
aS'or'
p936
aS'thresh'
p937
aS','
p938
aS'and'
p939
aS'then'
p940
aS'fortune'
p941
aS'may'
p942
aS'give'
p943
aS'you'
p944
aS'your'
p945
aS'daily'
p946
aS'grain'
p947
aS'of'
p948
aS'corn'
p949
aS'in'
p950
aS'peace'
p951
aS'.'
p952
asg32
(lp953
VKeep
p954
aVto
p955
aVthe
p956
aVhorse
p957
ag96
aVstable
p958
aVwhere
p959
aVthey
p960
aVwinnow
p961
aVoat
p962
ag96
aVor
p963
aVthresh
p964
ag96
aVand
p965
aVthen
p966
aVfortune
p967
aVmay
p968
aVgive
p969
aVyou
p970
aVyour
p971
aVdaily
p972
aVgrain
p973
aVof
p974
aVcorn
p975
aVin
p976
aVpeace
p977
ag45
asg46
(lp978
g48
ag48
ag48
ag48
ag48
ag48
ag48
ag48
ag48
ag48
ag48
ag48
ag48
ag48
ag48
ag48
ag48
ag48
ag48
ag48
ag48
ag48
ag48
ag48
ag48
ag48
ag48
ag48
asg49
(lp979
g343
ag210
ag51
ag56
ag121
ag55
ag118
ag119
ag344
ag56
ag121
ag123
ag55
ag121
ag123
ag124
ag211
aS'MD'
p980
ag211
ag119
ag208
ag55
ag52
ag57
ag52
ag57
ag52
ag59
asg60
VKeep to the horses, stable where they winnow oats, or thresh, and then fortune may give you your daily grain of corn in peace.
p981
sba(i__main__
Sentence
p982
(dp983
g17
I21
sg18
(lp984
S'Yes'
p985
aS','
p986
aS'father'
p987
aS','
p988
aS'said'
p989
aS'the'
p990
aS'son'
p991
aS','
p992
aS'but'
p993
aS'when'
p994
aS'the'
p995
aS'stable-boys'
p996
aS'make'
p997
aS'traps'
p998
aS'and'
p999
aS'fix'
p1000
aS'their'
p1001
aS'gins'
p1002
aS'and'
p1003
aS'snares'
p1004
aS'in'
p1005
aS'the'
p1006
aS'straw'
p1007
aS','
p1008
aS'many'
p1009
aS'a'
p1010
aS'one'
p1011
aS'is'
p1012
aS'caught'
p1013
aS'.'
p1014
asg32
(lp1015
VYes
p1016
ag96
aVfather
p1017
ag96
ag520
aVthe
p1018
aVson
p1019
ag96
aVbut
p1020
aVwhen
p1021
aVthe
p1022
aVstable-boys
p1023
aVmake
p1024
aVtrap
p1025
aVand
p1026
aVfix
p1027
aVtheir
p1028
aVgin
p1029
aVand
p1030
aVsnare
p1031
aVin
p1032
aVthe
p1033
aVstraw
p1034
ag96
aVmany
p1035
ag41
aVone
p1036
ag529
aVcatch
p1037
ag45
asg46
(lp1038
g48
ag48
ag48
ag48
ag48
ag48
ag48
ag48
ag48
ag48
ag48
ag48
ag48
ag48
ag48
ag48
ag48
ag48
ag48
ag48
ag48
ag48
ag48
ag48
ag48
ag48
ag48
ag48
ag48
ag48
asg49
(lp1039
g56
ag121
ag52
ag121
ag53
ag51
ag52
ag121
ag123
ag118
ag51
ag55
ag52
ag56
ag123
ag54
ag208
ag56
ag123
ag56
ag57
ag51
ag52
ag121
ag55
ag51
ag54
ag536
ag120
ag59
asg60
VYes, father, said the son, but when the stable-boys make traps and fix their gins and snares in the straw, many a one is caught.
p1040
sba(i__main__
Sentence
p1041
(dp1042
g17
I22
sg18
(lp1043
S'Where'
p1044
aS'have'
p1045
aS'you'
p1046
aS'seen'
p1047
aS'that'
p1048
aS','
p1049
aS'said'
p1050
aS'the'
p1051
aS'old'
p1052
aS'bird'
p1053
aS'.'
p1054
asg32
(lp1055
VWhere
p1056
aVhave
p1057
aVyou
p1058
ag675
aVthat
p1059
ag96
ag520
aVthe
p1060
aVold
p1061
aVbird
p1062
ag45
asg46
(lp1063
g48
ag48
ag48
ag48
ag48
ag48
ag48
ag48
ag48
ag48
ag48
asg49
(lp1064
g118
ag344
ag119
ag120
ag57
ag121
ag53
ag51
ag55
ag52
ag59
asg60
VWhere have you seen that, said the old bird.
p1065
sba(i__main__
Sentence
p1066
(dp1067
g17
I23
sg18
(lp1068
S'At'
p1069
aS'court'
p1070
aS','
p1071
aS'among'
p1072
aS'the'
p1073
aS'stable-boys'
p1074
aS'.'
p1075
asg32
(lp1076
VAt
p1077
aVcourt
p1078
ag96
aVamong
p1079
aVthe
p1080
aVstable-boys
p1081
ag45
asg46
(lp1082
g48
ag48
ag48
ag48
ag48
ag48
ag48
asg49
(lp1083
g57
ag52
ag121
ag57
ag51
ag56
ag59
asg60
VAt court, among the stable-boys.
p1084
sba(i__main__
Sentence
p1085
(dp1086
g17
I24
sg18
(lp1087
S'Oh'
p1088
aS','
p1089
aS'my'
p1090
aS'son'
p1091
aS','
p1092
aS'court'
p1093
aS'boys'
p1094
aS'are'
p1095
aS'bad'
p1096
aS'boys'
p1097
aS'.'
p1098
asg32
(lp1099
VOh
p1100
ag96
aVmy
p1101
aVson
p1102
ag96
aVcourt
p1103
aVboy
p1104
ag524
aVbad
p1105
aVboy
p1106
ag45
asg46
(lp1107
g48
ag48
ag48
ag48
ag48
ag48
ag48
ag48
ag48
ag48
ag48
asg49
(lp1108
g733
ag121
ag208
ag52
ag121
ag52
ag56
ag344
ag55
ag56
ag59
asg60
VOh, my son, court boys are bad boys.
p1109
sba(i__main__
Sentence
p1110
(dp1111
g17
I25
sg18
(lp1112
S'If'
p1113
aS'you'
p1114
aS'have'
p1115
aS'been'
p1116
aS'to'
p1117
aS'court'
p1118
aS'and'
p1119
aS'among'
p1120
aS'the'
p1121
aS'lords'
p1122
aS','
p1123
aS'and'
p1124
aS'have'
p1125
aS'left'
p1126
aS'no'
p1127
aS'feathers'
p1128
aS'there'
p1129
aS','
p1130
aS'you'
p1131
aS'have'
p1132
aS'learnt'
p1133
aS'a'
p1134
aS'fair'
p1135
aS'amount'
p1136
aS','
p1137
aS'and'
p1138
aS'will'
p1139
aS'know'
p1140
aS'very'
p1141
aS'well'
p1142
aS'how'
p1143
aS'to'
p1144
aS'go'
p1145
aS'about'
p1146
aS'the'
p1147
aS'world'
p1148
aS','
p1149
aS'but'
p1150
aS'look'
p1151
aS'around'
p1152
aS'you'
p1153
aS'and'
p1154
aS'above'
p1155
aS'you'
p1156
aS','
p1157
aS'for'
p1158
aS'the'
p1159
aS'wolves'
p1160
aS'often'
p1161
aS'devour'
p1162
aS'the'
p1163
aS'wisest'
p1164
aS'dogs'
p1165
aS'.'
p1166
asg32
(lp1167
VIf
p1168
aVyou
p1169
aVhave
p1170
ag324
aVto
p1171
aVcourt
p1172
aVand
p1173
aVamong
p1174
aVthe
p1175
aVlord
p1176
ag96
aVand
p1177
aVhave
p1178
aVleave
p1179
aVno
p1180
aVfeather
p1181
aVthere
p1182
ag96
aVyou
p1183
aVhave
p1184
aVlearn
p1185
ag41
aVfair
p1186
aVamount
p1187
ag96
aVand
p1188
aVwill
p1189
aVknow
p1190
aVvery
p1191
aVwell
p1192
aVhow
p1193
aVto
p1194
aVgo
p1195
aVabout
p1196
aVthe
p1197
aVworld
p1198
ag96
aVbut
p1199
aVlook
p1200
aVaround
p1201
aVyou
p1202
aVand
p1203
aVabove
p1204
aVyou
p1205
ag96
aVfor
p1206
aVthe
p1207
aVwolf
p1208
aVoften
p1209
aVdevour
p1210
aVthe
p1211
aVwise
p1212
aVdog
p1213
ag45
asg46
(lp1214
g48
ag48
ag48
ag48
ag48
ag48
ag48
ag48
ag48
ag48
ag48
ag48
ag48
ag48
ag48
ag48
ag48
ag48
ag48
ag48
ag48
ag48
ag48
ag48
ag48
ag48
ag48
ag48
ag48
ag48
ag48
ag48
ag48
ag48
ag48
ag48
ag48
ag48
ag48
ag48
ag48
ag48
ag48
ag48
ag48
ag48
ag48
ag48
ag48
ag48
ag48
ag48
ag48
ag48
asg49
(lp1215
g57
ag119
ag344
ag120
ag210
ag52
ag123
ag57
ag51
ag56
ag121
ag123
ag344
ag120
ag51
ag56
ag124
ag121
ag119
ag344
ag120
ag51
ag55
ag52
ag121
ag123
ag980
ag211
ag124
ag124
ag118
ag210
ag211
ag57
ag51
ag52
ag121
ag123
ag211
ag57
ag119
ag123
ag57
ag119
ag121
ag57
ag51
ag56
ag124
ag344
ag51
ag122
ag56
ag59
asg60
VIf you have been to court and among the lords, and have left no feathers there, you have learnt a fair amount, and will know very well how to go about the world, but look around you and above you, for the wolves often devour the wisest dogs.
p1216
sba(i__main__
Sentence
p1217
(dp1218
g17
I26
sg18
(lp1219
S'The'
p1220
aS'father'
p1221
aS'examined'
p1222
aS'the'
p1223
aS'third'
p1224
aS'also'
p1225
aS','
p1226
aS'where'
p1227
aS'did'
p1228
aS'you'
p1229
aS'seek'
p1230
aS'your'
p1231
aS'fortune'
p1232
aS'.'
p1233
asg32
(lp1234
VThe
p1235
aVfather
p1236
aVexamine
p1237
aVthe
p1238
aVthird
p1239
aValso
p1240
ag96
aVwhere
p1241
aVdo
p1242
aVyou
p1243
aVseek
p1244
aVyour
p1245
aVfortune
p1246
ag45
asg46
(lp1247
g48
ag48
ag48
ag48
ag48
ag48
ag48
ag48
ag48
ag48
ag48
ag48
ag48
ag48
asg49
(lp1248
g51
ag52
ag53
ag51
ag55
ag124
ag121
ag118
ag53
ag119
ag344
ag208
ag52
ag59
asg60
VThe father examined the third also, where did you seek your fortune.
p1249
sba(i__main__
Sentence
p1250
(dp1251
g17
I27
sg18
(lp1252
S'I'
p1253
aS'have'
p1254
aS'cast'
p1255
aS'my'
p1256
aS'tub'
p1257
aS'and'
p1258
aS'rope'
p1259
aS'on'
p1260
aS'the'
p1261
aS'cart-roads'
p1262
aS'and'
p1263
aS'highways'
p1264
aS','
p1265
aS'and'
p1266
aS'sometimes'
p1267
aS'met'
p1268
aS'with'
p1269
aS'a'
p1270
aS'grain'
p1271
aS'of'
p1272
aS'corn'
p1273
aS'or'
p1274
aS'barley'
p1275
aS'.'
p1276
asg32
(lp1277
g322
aVhave
p1278
aVcast
p1279
aVmy
p1280
aVtub
p1281
aVand
p1282
aVrope
p1283
aVon
p1284
aVthe
p1285
aVcart-roads
p1286
aVand
p1287
aVhighway
p1288
ag96
aVand
p1289
aVsometimes
p1290
aVmeet
p1291
aVwith
p1292
ag41
aVgrain
p1293
aVof
p1294
aVcorn
p1295
aVor
p1296
aVbarley
p1297
ag45
asg46
(lp1298
g48
ag48
ag48
ag48
ag48
ag48
ag48
ag48
ag48
ag48
ag48
ag48
ag48
ag48
ag48
ag48
ag48
ag48
ag48
ag48
ag48
ag48
ag48
ag48
asg49
(lp1299
g119
ag344
ag120
ag208
ag52
ag123
ag52
ag57
ag51
ag56
ag123
ag56
ag121
ag123
ag124
ag211
ag57
ag51
ag52
ag57
ag52
ag123
ag52
ag59
asg60
VI have cast my tub and rope on the cart-roads and highways, and sometimes met with a grain of corn or barley.
p1300
sba(i__main__
Sentence
p1301
(dp1302
g17
I28
sg18
(lp1303
S'That'
p1304
aS'is'
p1305
aS'indeed'
p1306
aS'dainty'
p1307
aS'fare'
p1308
aS','
p1309
aS'said'
p1310
aS'the'
p1311
aS'father'
p1312
aS','
p1313
aS'but'
p1314
aS'take'
p1315
aS'care'
p1316
aS'what'
p1317
aS'you'
p1318
aS'are'
p1319
aS'about'
p1320
aS'and'
p1321
aS'look'
p1322
aS'carefully'
p1323
aS'around'
p1324
aS','
p1325
aS'especially'
p1326
aS'when'
p1327
aS'you'
p1328
aS'see'
p1329
aS'anyone'
p1330
aS'stooping'
p1331
aS'and'
p1332
aS'about'
p1333
aS'to'
p1334
aS'pick'
p1335
aS'up'
p1336
aS'a'
p1337
aS'stone'
p1338
aS','
p1339
aS'for'
p1340
aS'then'
p1341
aS'you'
p1342
aS'have'
p1343
aS'not'
p1344
aS'much'
p1345
aS'time'
p1346
aS'to'
p1347
aS'waste'
p1348
aS'.'
p1349
asg32
(lp1350
VThat
p1351
ag529
aVindeed
p1352
aVdainty
p1353
aVfare
p1354
ag96
ag520
aVthe
p1355
aVfather
p1356
ag96
aVbut
p1357
aVtake
p1358
aVcare
p1359
aVwhat
p1360
aVyou
p1361
ag524
aVabout
p1362
aVand
p1363
aVlook
p1364
aVcarefully
p1365
aVaround
p1366
ag96
aVespecially
p1367
aVwhen
p1368
aVyou
p1369
aVsee
p1370
aVanyone
p1371
aVstoop
p1372
aVand
p1373
aVabout
p1374
aVto
p1375
aVpick
p1376
aVup
p1377
ag41
aVstone
p1378
ag96
aVfor
p1379
aVthen
p1380
aVyou
p1381
aVhave
p1382
aVnot
p1383
aVmuch
p1384
aVtime
p1385
aVto
p1386
aVwaste
p1387
ag45
asg46
(lp1388
g48
ag48
ag48
ag48
ag48
ag48
ag48
ag48
ag48
ag48
ag48
ag48
ag48
ag48
ag48
ag48
ag48
ag48
ag48
ag48
ag48
ag48
ag48
ag48
ag48
ag48
ag48
ag48
ag48
ag48
ag48
ag48
ag48
ag48
ag48
ag48
ag48
ag48
ag48
ag48
ag48
ag48
ag48
ag48
ag48
ag48
asg49
(lp1389
g51
ag536
ag120
ag52
ag52
ag121
ag53
ag51
ag52
ag121
ag123
ag211
ag52
ag613
ag119
ag344
ag57
ag123
ag52
ag124
ag57
ag121
ag124
ag118
ag119
ag344
ag52
ag345
ag123
ag57
ag210
ag211
ag209
ag51
ag52
ag121
ag57
ag124
ag119
ag211
ag124
ag124
ag211
ag210
ag211
ag59
asg60
VThat is indeed dainty fare, said the father, but take care what you are about and look carefully around, especially when you see anyone stooping and about to pick up a stone, for then you have not much time to waste.
p1390
sba(i__main__
Sentence
p1391
(dp1392
g17
I29
sg18
(lp1393
S'That'
p1394
aS'is'
p1395
aS'true'
p1396
aS','
p1397
aS'said'
p1398
aS'the'
p1399
aS'son'
p1400
aS','
p1401
aS'but'
p1402
aS'what'
p1403
aS'if'
p1404
aS'anyone'
p1405
aS'should'
p1406
aS'carry'
p1407
aS'a'
p1408
aS'bit'
p1409
aS'of'
p1410
aS'rock'
p1411
aS','
p1412
aS'or'
p1413
aS'ore'
p1414
aS','
p1415
aS'ready'
p1416
aS'beforehand'
p1417
aS'in'
p1418
aS'his'
p1419
aS'breast'
p1420
aS'or'
p1421
aS'pocket'
p1422
aS'.'
p1423
asg32
(lp1424
VThat
p1425
ag529
aVtrue
p1426
ag96
ag520
aVthe
p1427
aVson
p1428
ag96
aVbut
p1429
aVwhat
p1430
aVif
p1431
aVanyone
p1432
aVshould
p1433
aVcarry
p1434
ag41
aVbit
p1435
aVof
p1436
aVrock
p1437
ag96
aVor
p1438
aVore
p1439
ag96
aVready
p1440
aVbeforehand
p1441
aVin
p1442
aVhis
p1443
aVbreast
p1444
aVor
p1445
aVpocket
p1446
ag45
asg46
(lp1447
g48
ag48
ag48
ag48
ag48
ag48
ag48
ag48
ag48
ag48
ag48
ag48
ag48
ag48
ag48
ag48
ag48
ag48
ag48
ag48
ag48
ag48
ag48
ag48
ag48
ag48
ag48
ag48
ag48
ag48
asg49
(lp1448
g51
ag536
ag55
ag121
ag53
ag51
ag52
ag121
ag123
ag613
ag57
ag52
ag980
ag211
ag51
ag52
ag57
ag52
ag121
ag123
ag211
ag121
ag55
ag52
ag57
ag208
ag52
ag123
ag52
ag59
asg60
VThat is true, said the son, but what if anyone should carry a bit of rock, or ore, ready beforehand in his breast or pocket.
p1449
sba(i__main__
Sentence
p1450
(dp1451
g17
I30
sg18
(lp1452
S'Where'
p1453
aS'have'
p1454
aS'you'
p1455
aS'seen'
p1456
aS'that'
p1457
aS'.'
p1458
asg32
(lp1459
VWhere
p1460
aVhave
p1461
aVyou
p1462
ag675
aVthat
p1463
ag45
asg46
(lp1464
g48
ag48
ag48
ag48
ag48
ag48
asg49
(lp1465
g118
ag344
ag119
ag120
ag57
ag59
asg60
VWhere have you seen that.
p1466
sba(i__main__
Sentence
p1467
(dp1468
g17
I31
sg18
(lp1469
S'Among'
p1470
aS'the'
p1471
aS'miners'
p1472
aS','
p1473
aS'dear'
p1474
aS'father'
p1475
aS'.'
p1476
asg32
(lp1477
VAmong
p1478
aVthe
p1479
aVminer
p1480
ag96
aVdear
p1481
aVfather
p1482
ag45
asg46
(lp1483
g48
ag48
ag48
ag48
ag48
ag48
ag48
asg49
(lp1484
g57
ag51
ag56
ag121
ag55
ag52
ag59
asg60
VAmong the miners, dear father.
p1485
sba(i__main__
Sentence
p1486
(dp1487
g17
I32
sg18
(lp1488
S'When'
p1489
aS'they'
p1490
aS'get'
p1491
aS'out'
p1492
aS'of'
p1493
aS'the'
p1494
aS'pit'
p1495
aS','
p1496
aS'they'
p1497
aS'generally'
p1498
aS'take'
p1499
aS'little'
p1500
aS'bits'
p1501
aS'of'
p1502
aS'ore'
p1503
aS'with'
p1504
aS'them'
p1505
aS'.'
p1506
asg32
(lp1507
VWhen
p1508
aVthey
p1509
aVget
p1510
aVout
p1511
aVof
p1512
aVthe
p1513
aVpit
p1514
ag96
aVthey
p1515
aVgenerally
p1516
aVtake
p1517
aVlittle
p1518
aVbit
p1519
aVof
p1520
aVore
p1521
aVwith
p1522
aVthem
p1523
ag45
asg46
(lp1524
g48
ag48
ag48
ag48
ag48
ag48
ag48
ag48
ag48
ag48
ag48
ag48
ag48
ag48
ag48
ag48
ag48
ag48
asg49
(lp1525
g118
ag119
ag344
ag57
ag57
ag51
ag52
ag121
ag119
ag124
ag344
ag55
ag56
ag57
aS'JJR'
p1526
ag57
ag119
ag59
asg60
VWhen they get out of the pit, they generally take little bits of ore with them.
p1527
sba(i__main__
Sentence
p1528
(dp1529
g17
I33
sg18
(lp1530
S'Mining'
p1531
aS'folks'
p1532
aS'are'
p1533
aS'working'
p1534
aS'folks'
p1535
aS','
p1536
aS'and'
p1537
aS'clever'
p1538
aS'folks'
p1539
aS'.'
p1540
asg32
(lp1541
VMining
p1542
aVfolk
p1543
ag524
aVwork
p1544
aVfolk
p1545
ag96
aVand
p1546
aVclever
p1547
aVfolk
p1548
ag45
asg46
(lp1549
g48
ag48
ag48
ag48
ag48
ag48
ag48
ag48
ag48
ag48
asg49
(lp1550
g345
ag56
ag344
ag345
ag56
ag121
ag123
ag124
ag56
ag59
asg60
VMining folks are working folks, and clever folks.
p1551
sba(i__main__
Sentence
p1552
(dp1553
g17
I34
sg18
(lp1554
S'If'
p1555
aS'you'
p1556
aS'have'
p1557
aS'been'
p1558
aS'among'
p1559
aS'mining'
p1560
aS'lads'
p1561
aS','
p1562
aS'you'
p1563
aS'have'
p1564
aS'seen'
p1565
aS'and'
p1566
aS'learnt'
p1567
aS'something'
p1568
aS','
p1569
aS'but'
p1570
aS'when'
p1571
aS'you'
p1572
aS'go'
p1573
aS'thither'
p1574
aS'beware'
p1575
aS','
p1576
aS'for'
p1577
aS'many'
p1578
aS'a'
p1579
aS'sparrow'
p1580
aS'has'
p1581
aS'been'
p1582
aS'brought'
p1583
aS'to'
p1584
aS'a'
p1585
aS'bad'
p1586
aS'end'
p1587
aS'by'
p1588
aS'a'
p1589
aS'mining'
p1590
aS'boy'
p1591
aS'throwing'
p1592
aS'a'
p1593
aS'piece'
p1594
aS'of'
p1595
aS'cobalt'
p1596
aS'.'
p1597
asg32
(lp1598
VIf
p1599
aVyou
p1600
aVhave
p1601
ag324
aVamong
p1602
aVmining
p1603
aVlad
p1604
ag96
aVyou
p1605
aVhave
p1606
ag675
aVand
p1607
aVlearnt
p1608
aVsomething
p1609
ag96
aVbut
p1610
aVwhen
p1611
aVyou
p1612
aVgo
p1613
aVthither
p1614
aVbeware
p1615
ag96
aVfor
p1616
aVmany
p1617
ag41
aVsparrow
p1618
aVhave
p1619
ag324
aVbring
p1620
aVto
p1621
ag41
aVbad
p1622
aVend
p1623
aVby
p1624
ag41
aVmining
p1625
aVboy
p1626
aVthrow
p1627
ag41
aVpiece
p1628
aVof
p1629
aVcobalt
p1630
ag45
asg46
(lp1631
g48
ag48
ag48
ag48
ag48
ag48
ag48
ag48
ag48
ag48
ag48
ag48
ag48
ag48
ag48
ag48
ag48
ag48
ag48
ag48
ag48
ag48
ag48
ag48
ag48
ag48
ag48
ag48
ag48
ag48
ag48
ag48
ag48
ag48
ag48
ag48
ag48
ag48
ag48
ag48
ag48
ag48
ag48
asg49
(lp1632
g57
ag119
ag344
ag120
ag57
ag52
ag56
ag121
ag119
ag344
ag120
ag123
ag52
ag52
ag121
ag123
ag118
ag119
ag344
ag124
ag55
ag121
ag57
ag55
ag51
ag52
ag536
ag120
ag120
ag210
ag51
ag55
ag52
ag57
ag51
ag52
ag52
ag345
ag51
ag52
ag57
ag52
ag59
asg60
VIf you have been among mining lads, you have seen and learnt something, but when you go thither beware, for many a sparrow has been brought to a bad end by a mining boy throwing a piece of cobalt.
p1633
sba(i__main__
Sentence
p1634
(dp1635
g17
I35
sg18
(lp1636
S'At'
p1637
aS'length'
p1638
aS'the'
p1639
aS'father'
p1640
aS'came'
p1641
aS'to'
p1642
aS'the'
p1643
aS'youngest'
p1644
aS'son'
p1645
aS','
p1646
aS'you'
p1647
aS','
p1648
aS'my'
p1649
aS'dear'
p1650
aS'chirping'
p1651
aS'nestling'
p1652
aS','
p1653
aS'were'
p1654
aS'always'
p1655
aS'the'
p1656
aS'silliest'
p1657
aS'and'
p1658
aS'weakest'
p1659
aS'.'
p1660
asg32
(lp1661
VAt
p1662
aVlength
p1663
aVthe
p1664
aVfather
p1665
aVcome
p1666
aVto
p1667
aVthe
p1668
aVyoung
p1669
aVson
p1670
ag96
aVyou
p1671
ag96
aVmy
p1672
aVdear
p1673
aVchirp
p1674
aVnestling
p1675
ag96
ag94
aValways
p1676
aVthe
p1677
aVsilly
p1678
aVand
p1679
aVweak
p1680
ag45
asg46
(lp1681
g48
ag48
ag48
ag48
ag48
ag48
ag48
ag48
ag48
ag48
ag48
ag48
ag48
ag48
ag48
ag48
ag48
ag48
ag48
ag48
ag48
ag48
ag48
ag48
asg49
(lp1682
g57
ag52
ag51
ag52
ag53
ag210
ag51
ag122
ag52
ag121
ag119
ag121
ag208
ag52
ag345
ag52
ag121
ag53
ag124
ag51
ag122
ag123
ag122
ag59
asg60
VAt length the father came to the youngest son, you, my dear chirping nestling, were always the silliest and weakest.
p1683
sba(i__main__
Sentence
p1684
(dp1685
g17
I36
sg18
(lp1686
S'Stay'
p1687
aS'with'
p1688
aS'me'
p1689
aS','
p1690
aS'the'
p1691
aS'world'
p1692
aS'has'
p1693
aS'many'
p1694
aS'rough'
p1695
aS','
p1696
aS'wicked'
p1697
aS'birds'
p1698
aS'which'
p1699
aS'have'
p1700
aS'crooked'
p1701
aS'beaks'
p1702
aS'and'
p1703
aS'long'
p1704
aS'claws'
p1705
aS','
p1706
aS'and'
p1707
aS'lie'
p1708
aS'in'
p1709
aS'wait'
p1710
aS'for'
p1711
aS'poor'
p1712
aS'little'
p1713
aS'birds'
p1714
aS'and'
p1715
aS'swallow'
p1716
aS'them'
p1717
aS'.'
p1718
asg32
(lp1719
VStay
p1720
aVwith
p1721
aVme
p1722
ag96
aVthe
p1723
aVworld
p1724
ag1619
aVmany
p1725
aVrough
p1726
ag96
aVwicked
p1727
aVbird
p1728
aVwhich
p1729
aVhave
p1730
aVcrook
p1731
aVbeak
p1732
aVand
p1733
aVlong
p1734
aVclaw
p1735
ag96
aVand
p1736
aVlie
p1737
aVin
p1738
aVwait
p1739
aVfor
p1740
aVpoor
p1741
aVlittle
p1742
aVbird
p1743
aVand
p1744
aVswallow
p1745
aVthem
p1746
ag45
asg46
(lp1747
g48
ag48
ag48
ag48
ag48
ag48
ag48
ag48
ag48
ag48
ag48
ag48
ag48
ag48
ag48
ag48
ag48
ag48
ag48
ag48
ag48
ag48
ag48
ag48
ag48
ag48
ag48
ag48
ag48
ag48
ag48
ag48
asg49
(lp1748
g343
ag57
ag119
ag121
ag51
ag52
ag536
ag55
ag55
ag121
ag53
ag56
ag614
ag344
ag120
ag56
ag123
ag55
ag56
ag121
ag123
ag211
ag57
ag52
ag57
ag55
ag55
ag56
ag123
ag211
ag119
ag59
asg60
VStay with me, the world has many rough, wicked birds which have crooked beaks and long claws, and lie in wait for poor little birds and swallow them.
p1749
sba(i__main__
Sentence
p1750
(dp1751
g17
I37
sg18
(lp1752
S'Keep'
p1753
aS'with'
p1754
aS'those'
p1755
aS'of'
p1756
aS'your'
p1757
aS'own'
p1758
aS'kind'
p1759
aS','
p1760
aS'and'
p1761
aS'pick'
p1762
aS'up'
p1763
aS'little'
p1764
aS'spiders'
p1765
aS'and'
p1766
aS'caterpillars'
p1767
aS'from'
p1768
aS'the'
p1769
aS'trees'
p1770
aS','
p1771
aS'or'
p1772
aS'the'
p1773
aS'houses'
p1774
aS','
p1775
aS'and'
p1776
aS'then'
p1777
aS'you'
p1778
aS'will'
p1779
aS'live'
p1780
aS'long'
p1781
aS'in'
p1782
aS'peace'
p1783
aS'.'
p1784
asg32
(lp1785
VKeep
p1786
aVwith
p1787
aVthose
p1788
aVof
p1789
aVyour
p1790
aVown
p1791
aVkind
p1792
ag96
aVand
p1793
aVpick
p1794
aVup
p1795
aVlittle
p1796
aVspider
p1797
aVand
p1798
aVcaterpillar
p1799
aVfrom
p1800
aVthe
p1801
aVtree
p1802
ag96
aVor
p1803
aVthe
p1804
aVhouse
p1805
ag96
aVand
p1806
aVthen
p1807
aVyou
p1808
aVwill
p1809
aVlive
p1810
aVlong
p1811
aVin
p1812
aVpeace
p1813
ag45
asg46
(lp1814
g48
ag48
ag48
ag48
ag48
ag48
ag48
ag48
ag48
ag48
ag48
ag48
ag48
ag48
ag48
ag48
ag48
ag48
ag48
ag48
ag48
ag48
ag48
ag48
ag48
ag48
ag48
ag48
ag48
ag48
ag48
ag48
asg49
(lp1815
g343
ag57
ag51
ag57
ag208
ag55
ag52
ag121
ag123
ag211
ag209
ag55
ag56
ag123
ag56
ag57
ag51
ag56
ag121
ag123
ag51
ag56
ag121
ag123
ag124
ag119
ag980
ag211
ag55
ag57
ag52
ag59
asg60
VKeep with those of your own kind, and pick up little spiders and caterpillars from the trees, or the houses, and then you will live long in peace.
p1816
sba(i__main__
Sentence
p1817
(dp1818
g17
I38
sg18
(lp1819
S'My'
p1820
aS'dear'
p1821
aS'father'
p1822
aS','
p1823
aS'he'
p1824
aS'who'
p1825
aS'feeds'
p1826
aS'himself'
p1827
aS'without'
p1828
aS'injury'
p1829
aS'to'
p1830
aS'other'
p1831
aS'people'
p1832
aS'fares'
p1833
aS'well'
p1834
aS','
p1835
aS'and'
p1836
aS'no'
p1837
aS'sparrow-hawk'
p1838
aS','
p1839
aS'eagle'
p1840
aS','
p1841
aS'or'
p1842
aS'kite'
p1843
aS'will'
p1844
aS'hurt'
p1845
aS'him'
p1846
aS'if'
p1847
aS'he'
p1848
aS'commits'
p1849
aS'himself'
p1850
aS'and'
p1851
aS'his'
p1852
aS'lawful'
p1853
aS'food'
p1854
aS','
p1855
aS'evening'
p1856
aS'and'
p1857
aS'morning'
p1858
aS','
p1859
aS'faithfully'
p1860
aS'to'
p1861
aS'God'
p1862
aS','
p1863
aS'who'
p1864
aS'is'
p1865
aS'the'
p1866
aS'creator'
p1867
aS'and'
p1868
aS'preserver'
p1869
aS'of'
p1870
aS'all'
p1871
aS'forest'
p1872
aS'and'
p1873
aS'village'
p1874
aS'birds'
p1875
aS','
p1876
aS'who'
p1877
aS'likewise'
p1878
aS'heareth'
p1879
aS'the'
p1880
aS'cry'
p1881
aS'and'
p1882
aS'prayer'
p1883
aS'of'
p1884
aS'the'
p1885
aS'young'
p1886
aS'ravens'
p1887
aS','
p1888
aS'for'
p1889
aS'no'
p1890
aS'sparrow'
p1891
aS'or'
p1892
aS'wren'
p1893
aS'ever'
p1894
aS'falls'
p1895
aS'to'
p1896
aS'the'
p1897
aS'ground'
p1898
aS'except'
p1899
aS'by'
p1900
aS'his'
p1901
aS'will'
p1902
aS'.'
p1903
asg32
(lp1904
VMy
p1905
aVdear
p1906
aVfather
p1907
ag96
aVhe
p1908
aVwho
p1909
aVfeed
p1910
aVhimself
p1911
aVwithout
p1912
aVinjury
p1913
aVto
p1914
aVother
p1915
aVpeople
p1916
aVfare
p1917
aVwell
p1918
ag96
aVand
p1919
aVno
p1920
aVsparrow-hawk
p1921
ag96
aVeagle
p1922
ag96
aVor
p1923
aVkite
p1924
aVwill
p1925
aVhurt
p1926
aVhim
p1927
aVif
p1928
aVhe
p1929
aVcommit
p1930
aVhimself
p1931
aVand
p1932
aVhis
p1933
aVlawful
p1934
aVfood
p1935
ag96
aVevening
p1936
aVand
p1937
aVmorning
p1938
ag96
aVfaithfully
p1939
aVto
p1940
aVGod
p1941
ag96
aVwho
p1942
ag529
aVthe
p1943
aVcreator
p1944
aVand
p1945
aVpreserver
p1946
aVof
p1947
aVall
p1948
aVforest
p1949
aVand
p1950
aVvillage
p1951
aVbird
p1952
ag96
aVwho
p1953
aVlikewise
p1954
aVheareth
p1955
aVthe
p1956
aVcry
p1957
aVand
p1958
aVprayer
p1959
aVof
p1960
aVthe
p1961
aVyoung
p1962
aVraven
p1963
ag96
aVfor
p1964
aVno
p1965
aVsparrow
p1966
aVor
p1967
aVwren
p1968
aVever
p1969
aVfall
p1970
aVto
p1971
aVthe
p1972
aVground
p1973
aVexcept
p1974
aVby
p1975
aVhis
p1976
aVwill
p1977
ag45
asg46
(lp1978
g48
ag48
ag48
ag48
ag48
ag48
ag48
ag48
ag48
ag48
ag48
ag48
ag48
ag48
ag48
ag48
ag48
ag48
ag48
ag48
ag48
ag48
ag48
ag48
ag48
ag48
ag48
ag48
ag48
ag48
ag48
ag48
ag48
ag48
ag48
ag48
ag48
ag48
ag48
ag48
ag48
ag48
ag48
ag48
ag48
ag48
ag48
ag48
ag48
ag48
ag48
ag48
ag48
ag48
ag48
ag48
ag48
ag48
ag48
ag48
ag48
ag48
ag48
ag48
ag48
ag48
ag48
ag48
ag48
ag48
ag48
ag48
ag48
ag48
ag48
ag48
ag48
ag48
ag48
ag48
ag48
ag48
ag48
ag48
asg49
(lp1979
g208
ag52
ag52
ag121
ag119
ag613
ag56
ag119
ag57
ag52
ag210
ag55
ag56
ag56
ag124
ag121
ag123
ag51
ag52
ag121
ag55
ag121
ag123
ag211
ag980
ag211
ag119
ag57
ag119
ag536
ag119
ag123
ag208
ag55
ag52
ag121
ag52
ag123
ag52
ag121
ag124
ag210
ag343
ag121
ag613
ag536
ag51
ag52
ag123
ag52
ag57
ag51
ag122
ag123
ag52
ag56
ag121
ag613
ag124
ag344
ag51
ag52
ag123
ag52
ag57
ag51
ag55
ag56
ag121
ag57
ag51
ag52
ag123
ag56
ag124
ag536
ag210
ag51
ag52
ag57
ag57
ag208
ag980
ag59
asg60
VMy dear father, he who feeds himself without injury to other people fares well, and no sparrow-hawk, eagle, or kite will hurt him if he commits himself and his lawful food, evening and morning, faithfully to God, who is the creator and preserver of all forest and village birds, who likewise heareth the cry and prayer of the young ravens, for no sparrow or wren ever falls to the ground except by his will.
p1980
sba(i__main__
Sentence
p1981
(dp1982
g17
I39
sg18
(lp1983
S'Where'
p1984
aS'have'
p1985
aS'you'
p1986
aS'learnt'
p1987
aS'this'
p1988
aS'.'
p1989
asg32
(lp1990
VWhere
p1991
aVhave
p1992
aVyou
p1993
ag1185
aVthis
p1994
ag45
asg46
(lp1995
g48
ag48
ag48
ag48
ag48
ag48
asg49
(lp1996
g118
ag344
ag119
ag344
ag51
ag59
asg60
VWhere have you learnt this.
p1997
sba(i__main__
Sentence
p1998
(dp1999
g17
I40
sg18
(lp2000
S'The'
p2001
aS'son'
p2002
aS'answered'
p2003
aS','
p2004
aS'when'
p2005
aS'the'
p2006
aS'great'
p2007
aS'blast'
p2008
aS'of'
p2009
aS'wind'
p2010
aS'tore'
p2011
aS'me'
p2012
aS'away'
p2013
aS'from'
p2014
aS'you'
p2015
aS'I'
p2016
aS'came'
p2017
aS'to'
p2018
aS'a'
p2019
aS'church'
p2020
aS','
p2021
aS'and'
p2022
aS'there'
p2023
aS'during'
p2024
aS'the'
p2025
aS'summer'
p2026
aS'I'
p2027
aS'have'
p2028
aS'picked'
p2029
aS'up'
p2030
aS'the'
p2031
aS'flies'
p2032
aS'and'
p2033
aS'spiders'
p2034
aS'from'
p2035
aS'the'
p2036
aS'windows'
p2037
aS','
p2038
aS'and'
p2039
aS'heard'
p2040
aS'this'
p2041
aS'discourse'
p2042
aS'preached'
p2043
aS'.'
p2044
asg32
(lp2045
VThe
p2046
aVson
p2047
aVanswer
p2048
ag96
aVwhen
p2049
aVthe
p2050
aVgreat
p2051
aVblast
p2052
aVof
p2053
aVwind
p2054
aVtore
p2055
aVme
p2056
aVaway
p2057
aVfrom
p2058
aVyou
p2059
ag322
ag1666
aVto
p2060
ag41
aVchurch
p2061
ag96
aVand
p2062
aVthere
p2063
aVduring
p2064
aVthe
p2065
aVsummer
p2066
ag322
aVhave
p2067
aVpick
p2068
aVup
p2069
aVthe
p2070
aVfly
p2071
aVand
p2072
aVspider
p2073
aVfrom
p2074
aVthe
p2075
aVwindow
p2076
ag96
aVand
p2077
aVheard
p2078
aVthis
p2079
aVdiscourse
p2080
aVpreach
p2081
ag45
asg46
(lp2082
g48
ag48
ag48
ag48
ag48
ag48
ag48
ag48
ag48
ag48
ag48
ag48
ag48
ag48
ag48
ag48
ag48
ag48
ag48
ag48
ag48
ag48
ag48
ag48
ag48
ag48
ag48
ag48
ag48
ag48
ag48
ag48
ag48
ag48
ag48
ag48
ag48
ag48
ag48
ag48
ag48
ag48
ag48
ag48
asg49
(lp2083
g51
ag52
ag53
ag121
ag118
ag51
ag55
ag52
ag57
ag52
ag57
ag119
ag124
ag57
ag119
ag119
ag53
ag210
ag51
ag52
ag121
ag123
ag282
ag57
ag51
ag52
ag119
ag344
ag120
ag209
ag51
ag56
ag123
ag56
ag57
ag51
ag56
ag121
ag123
ag52
ag51
ag52
ag53
ag59
asg60
VThe son answered, when the great blast of wind tore me away from you I came to a church, and there during the summer I have picked up the flies and spiders from the windows, and heard this discourse preached.
p2084
sba(i__main__
Sentence
p2085
(dp2086
g17
I41
sg18
(lp2087
S'The'
p2088
aS'father'
p2089
aS'of'
p2090
aS'all'
p2091
aS'sparrows'
p2092
aS'fed'
p2093
aS'me'
p2094
aS'all'
p2095
aS'the'
p2096
aS'summer'
p2097
aS'through'
p2098
aS','
p2099
aS'and'
p2100
aS'kept'
p2101
aS'me'
p2102
aS'from'
p2103
aS'all'
p2104
aS'misfortune'
p2105
aS'and'
p2106
aS'from'
p2107
aS'ferocious'
p2108
aS'birds'
p2109
aS'.'
p2110
asg32
(lp2111
VThe
p2112
aVfather
p2113
aVof
p2114
aVall
p2115
aVsparrow
p2116
aVfeed
p2117
aVme
p2118
aVall
p2119
aVthe
p2120
aVsummer
p2121
aVthrough
p2122
ag96
aVand
p2123
aVkeep
p2124
aVme
p2125
aVfrom
p2126
aVall
p2127
aVmisfortune
p2128
aVand
p2129
aVfrom
p2130
aVferocious
p2131
aVbird
p2132
ag45
asg46
(lp2133
g48
ag48
ag48
ag48
ag48
ag48
ag48
ag48
ag48
ag48
ag48
ag48
ag48
ag48
ag48
ag48
ag48
ag48
ag48
ag48
ag48
ag48
ag48
asg49
(lp2134
g51
ag52
ag57
ag51
ag56
ag53
ag119
ag51
ag51
ag52
ag57
ag121
ag123
ag53
ag119
ag57
ag51
ag52
ag123
ag57
ag55
ag56
ag59
asg60
VThe father of all sparrows fed me all the summer through, and kept me from all misfortune and from ferocious birds.
p2135
sba(i__main__
Sentence
p2136
(dp2137
g17
I42
sg18
(lp2138
S'Indeed'
p2139
aS','
p2140
aS'my'
p2141
aS'dear'
p2142
aS'son'
p2143
aS','
p2144
aS'if'
p2145
aS'you'
p2146
aS'take'
p2147
aS'refuge'
p2148
aS'in'
p2149
aS'the'
p2150
aS'churches'
p2151
aS'and'
p2152
aS'help'
p2153
aS'to'
p2154
aS'clear'
p2155
aS'away'
p2156
aS'spiders'
p2157
aS'and'
p2158
aS'buzzing'
p2159
aS'flies'
p2160
aS','
p2161
aS'and'
p2162
aS'chirp'
p2163
aS'unto'
p2164
aS'God'
p2165
aS'like'
p2166
aS'the'
p2167
aS'young'
p2168
aS'ravens'
p2169
aS','
p2170
aS'and'
p2171
aS'commend'
p2172
aS'yourself'
p2173
aS'to'
p2174
aS'the'
p2175
aS'eternal'
p2176
aS'creator'
p2177
aS','
p2178
aS'all'
p2179
aS'will'
p2180
aS'be'
p2181
aS'well'
p2182
aS'with'
p2183
aS'you'
p2184
aS','
p2185
aS'and'
p2186
aS'that'
p2187
aS'even'
p2188
aS'if'
p2189
aS'the'
p2190
aS'whole'
p2191
aS'world'
p2192
aS'were'
p2193
aS'full'
p2194
aS'of'
p2195
aS'wild'
p2196
aS'malicious'
p2197
aS'birds'
p2198
aS'.'
p2199
asg32
(lp2200
VIndeed
p2201
ag96
aVmy
p2202
aVdear
p2203
aVson
p2204
ag96
aVif
p2205
aVyou
p2206
aVtake
p2207
aVrefuge
p2208
aVin
p2209
aVthe
p2210
aVchurch
p2211
aVand
p2212
aVhelp
p2213
aVto
p2214
aVclear
p2215
aVaway
p2216
aVspider
p2217
aVand
p2218
aVbuzz
p2219
aVfly
p2220
ag96
aVand
p2221
aVchirp
p2222
aVunto
p2223
aVGod
p2224
aVlike
p2225
aVthe
p2226
aVyoung
p2227
aVraven
p2228
ag96
aVand
p2229
aVcommend
p2230
aVyourself
p2231
aVto
p2232
aVthe
p2233
aVeternal
p2234
aVcreator
p2235
ag96
aVall
p2236
aVwill
p2237
aVbe
p2238
aVwell
p2239
aVwith
p2240
aVyou
p2241
ag96
aVand
p2242
aVthat
p2243
aVeven
p2244
aVif
p2245
aVthe
p2246
aVwhole
p2247
aVworld
p2248
ag94
aVfull
p2249
aVof
p2250
aVwild
p2251
aVmalicious
p2252
aVbird
p2253
ag45
asg46
(lp2254
g48
ag48
ag48
ag48
ag48
ag48
ag48
ag48
ag48
ag48
ag48
ag48
ag48
ag48
ag48
ag48
ag48
ag48
ag48
ag48
ag48
ag48
ag48
ag48
ag48
ag48
ag48
ag48
ag48
ag48
ag48
ag48
ag48
ag48
ag48
ag48
ag48
ag48
ag48
ag48
ag48
ag48
ag48
ag48
ag48
ag48
ag48
ag48
ag48
ag48
ag48
ag48
ag48
ag48
ag48
ag48
ag48
ag48
ag48
ag48
ag48
asg49
(lp2255
g124
ag121
ag208
ag52
ag52
ag121
ag57
ag119
ag344
ag55
ag57
ag51
ag56
ag123
ag211
ag210
ag211
ag209
ag56
ag123
ag345
ag56
ag121
ag123
ag211
ag57
ag343
ag57
ag51
ag55
ag56
ag121
ag123
ag52
ag119
ag210
ag51
ag55
ag52
ag121
ag51
ag980
ag211
ag124
ag57
ag119
ag121
ag123
ag57
ag124
ag57
ag51
ag55
ag52
ag53
ag55
ag57
ag52
ag55
ag56
ag59
asg60
VIndeed, my dear son, if you take refuge in the churches and help to clear away spiders and buzzing flies, and chirp unto God like the young ravens, and commend yourself to the eternal creator, all will be well with you, and that even if the whole world were full of wild malicious birds.
p2256
sba(i__main__
Sentence
p2257
(dp2258
g17
I43
sg18
(lp2259
S'He'
p2260
aS'who'
p2261
aS'to'
p2262
aS'God'
p2263
aS'commits'
p2264
aS'his'
p2265
aS'ways'
p2266
aS','
p2267
aS'in'
p2268
aS'silence'
p2269
aS'suffers'
p2270
aS','
p2271
aS'waits'
p2272
aS','
p2273
aS'and'
p2274
aS'prays'
p2275
aS','
p2276
aS'preserves'
p2277
aS'his'
p2278
aS'faith'
p2279
aS'and'
p2280
aS'conscience'
p2281
aS'pure'
p2282
aS','
p2283
aS'he'
p2284
aS'is'
p2285
aS'of'
p2286
aS'God'
p2287
aS"'s"
p2288
aS'protection'
p2289
aS'sure'
p2290
aS'.'
p2291
asg32
(lp2292
VHe
p2293
aVwho
p2294
aVto
p2295
aVGod
p2296
aVcommits
p2297
aVhis
p2298
aVway
p2299
ag96
aVin
p2300
aVsilence
p2301
aVsuffers
p2302
ag96
aVwait
p2303
ag96
aVand
p2304
aVprays
p2305
ag96
aVpreserve
p2306
aVhis
p2307
aVfaith
p2308
aVand
p2309
aVconscience
p2310
aVpure
p2311
ag96
aVhe
p2312
ag529
aVof
p2313
aVGod
p2314
aV's
p2315
aVprotection
p2316
aVsure
p2317
ag45
asg46
(lp2318
g48
ag48
ag48
ag48
ag48
ag48
ag48
ag48
ag48
ag48
ag48
ag48
ag48
ag48
ag48
ag48
ag48
ag48
ag48
ag48
ag48
ag48
ag48
ag48
ag48
ag48
ag48
ag48
ag48
ag48
ag48
ag48
asg49
(lp2319
g119
ag613
ag210
ag343
ag56
ag208
ag56
ag121
ag57
ag52
ag56
ag121
ag56
ag121
ag123
ag56
ag121
ag56
ag208
ag52
ag123
ag52
ag52
ag121
ag119
ag536
ag57
ag343
ag58
ag52
ag52
ag59
asg60
VHe who to God commits his ways,                in silence suffers, waits, and prays,                preserves his faith and conscience pure,                he is of God's protection sure. 
p2320
sbasbsS'summary'
p2321
g0
(g7
g2
Ntp2322
Rp2323
(dp2324
g11
S'Four young sparrows are knocked out of their nest boys but escape without harm. The father sparrow is sad that he did not teach the sparrows how to take care of themselves. When they are reunited later, he questions them about their chosen lifestyles. One sparrow lives in a garden, another in the stables, and one near the highway. The fourth and youngest sparrow has taken up residence in a church where he has learned about the provision and love of God. The father admits this fourth sparrow has found the best refuge, a place where he will always be cared for properly.'
p2325
sg13
(lp2326
(i__main__
Sentence
p2327
(dp2328
g17
I0
sg18
(lp2329
S'Four'
p2330
aS'young'
p2331
aS'sparrows'
p2332
aS'are'
p2333
aS'knocked'
p2334
aS'out'
p2335
aS'of'
p2336
aS'their'
p2337
aS'nest'
p2338
aS'boys'
p2339
aS'but'
p2340
aS'escape'
p2341
aS'without'
p2342
aS'harm'
p2343
aS'.'
p2344
asg32
(lp2345
VFour
p2346
aVyoung
p2347
aVsparrow
p2348
ag524
aVknock
p2349
aVout
p2350
aVof
p2351
aVtheir
p2352
aVnest
p2353
aVboy
p2354
aVbut
p2355
aVescape
p2356
aVwithout
p2357
aVharm
p2358
ag45
asg46
(lp2359
g48
ag48
ag48
ag48
ag48
ag48
ag48
ag48
ag48
ag48
ag48
ag48
ag48
ag48
ag48
asg49
(lp2360
g54
ag55
ag56
ag344
ag120
ag209
ag57
ag208
ag52
ag56
ag123
ag52
ag57
ag52
ag59
asg60
VFour young sparrows are knocked out of their nest boys but escape without harm.
p2361
sba(i__main__
Sentence
p2362
(dp2363
g17
I1
sg18
(lp2364
S'The'
p2365
aS'father'
p2366
aS'sparrow'
p2367
aS'is'
p2368
aS'sad'
p2369
aS'that'
p2370
aS'he'
p2371
aS'did'
p2372
aS'not'
p2373
aS'teach'
p2374
aS'the'
p2375
aS'sparrows'
p2376
aS'how'
p2377
aS'to'
p2378
aS'take'
p2379
aS'care'
p2380
aS'of'
p2381
aS'themselves'
p2382
aS'.'
p2383
asg32
(lp2384
VThe
p2385
aVfather
p2386
aVsparrow
p2387
ag529
aVsad
p2388
aVthat
p2389
aVhe
p2390
ag1242
aVnot
p2391
aVteach
p2392
aVthe
p2393
aVsparrow
p2394
aVhow
p2395
aVto
p2396
aVtake
p2397
aVcare
p2398
aVof
p2399
aVthemselves
p2400
ag45
asg46
(lp2401
g48
ag48
ag48
ag48
ag48
ag48
ag48
ag48
ag48
ag48
ag48
ag48
ag48
ag48
ag48
ag48
ag48
ag48
ag48
asg49
(lp2402
g51
ag52
ag52
ag536
ag55
ag57
ag119
ag53
ag124
ag211
ag51
ag56
ag118
ag210
ag211
ag52
ag57
ag119
ag59
asg60
VThe father sparrow is sad that he did not teach the sparrows how to take care of themselves.
p2403
sba(i__main__
Sentence
p2404
(dp2405
g17
I2
sg18
(lp2406
S'When'
p2407
aS'they'
p2408
aS'are'
p2409
aS'reunited'
p2410
aS'later'
p2411
aS','
p2412
aS'he'
p2413
aS'questions'
p2414
aS'them'
p2415
aS'about'
p2416
aS'their'
p2417
aS'chosen'
p2418
aS'lifestyles'
p2419
aS'.'
p2420
asg32
(lp2421
VWhen
p2422
aVthey
p2423
ag524
aVreunite
p2424
aVlate
p2425
ag96
aVhe
p2426
aVquestion
p2427
aVthem
p2428
aVabout
p2429
aVtheir
p2430
aVchosen
p2431
aVlifestyle
p2432
ag45
asg46
(lp2433
g48
ag48
ag48
ag48
ag48
ag48
ag48
ag48
ag48
ag48
ag48
ag48
ag48
ag48
asg49
(lp2434
g118
ag119
ag344
ag120
ag55
ag121
ag119
ag536
ag119
ag57
ag208
ag52
ag56
ag59
asg60
VWhen they are reunited later, he questions them about their chosen lifestyles.
p2435
sba(i__main__
Sentence
p2436
(dp2437
g17
I3
sg18
(lp2438
S'One'
p2439
aS'sparrow'
p2440
aS'lives'
p2441
aS'in'
p2442
aS'a'
p2443
aS'garden'
p2444
aS','
p2445
aS'another'
p2446
aS'in'
p2447
aS'the'
p2448
aS'stables'
p2449
aS','
p2450
aS'and'
p2451
aS'one'
p2452
aS'near'
p2453
aS'the'
p2454
aS'highway'
p2455
aS'.'
p2456
asg32
(lp2457
VOne
p2458
aVsparrow
p2459
aVlife
p2460
aVin
p2461
ag41
aVgarden
p2462
ag96
aVanother
p2463
aVin
p2464
aVthe
p2465
aVstable
p2466
ag96
aVand
p2467
aVone
p2468
aVnear
p2469
aVthe
p2470
aVhighway
p2471
ag45
asg46
(lp2472
g48
ag48
ag48
ag48
ag48
ag48
ag48
ag48
ag48
ag48
ag48
ag48
ag48
ag48
ag48
ag48
ag48
ag48
asg49
(lp2473
g54
ag52
ag56
ag57
ag51
ag52
ag121
ag51
ag57
ag51
ag56
ag121
ag123
ag54
ag57
ag51
ag52
ag59
asg60
VOne sparrow lives in a garden, another in the stables, and one near the highway.
p2474
sba(i__main__
Sentence
p2475
(dp2476
g17
I4
sg18
(lp2477
S'The'
p2478
aS'fourth'
p2479
aS'and'
p2480
aS'youngest'
p2481
aS'sparrow'
p2482
aS'has'
p2483
aS'taken'
p2484
aS'up'
p2485
aS'residence'
p2486
aS'in'
p2487
aS'a'
p2488
aS'church'
p2489
aS'where'
p2490
aS'he'
p2491
aS'has'
p2492
aS'learned'
p2493
aS'about'
p2494
aS'the'
p2495
aS'provision'
p2496
aS'and'
p2497
aS'love'
p2498
aS'of'
p2499
aS'God'
p2500
aS'.'
p2501
asg32
(lp2502
VThe
p2503
aVfourth
p2504
aVand
p2505
ag1669
aVsparrow
p2506
ag1619
aVtake
p2507
aVup
p2508
aVresidence
p2509
aVin
p2510
ag41
aVchurch
p2511
aVwhere
p2512
aVhe
p2513
ag1619
aVlearn
p2514
aVabout
p2515
aVthe
p2516
aVprovision
p2517
aVand
p2518
aVlove
p2519
aVof
p2520
aVGod
p2521
ag45
asg46
(lp2522
g48
ag48
ag48
ag48
ag48
ag48
ag48
ag48
ag48
ag48
ag48
ag48
ag48
ag48
ag48
ag48
ag48
ag48
ag48
ag48
ag48
ag48
ag48
ag48
asg49
(lp2523
g51
ag55
ag123
ag122
ag52
ag536
ag120
ag209
ag52
ag57
ag51
ag52
ag118
ag119
ag536
ag120
ag57
ag51
ag52
ag123
ag211
ag57
ag343
ag59
asg60
VThe fourth and youngest sparrow has taken up residence in a church where he has learned about the provision and love of God.
p2524
sba(i__main__
Sentence
p2525
(dp2526
g17
I5
sg18
(lp2527
S'The'
p2528
aS'father'
p2529
aS'admits'
p2530
aS'this'
p2531
aS'fourth'
p2532
aS'sparrow'
p2533
aS'has'
p2534
aS'found'
p2535
aS'the'
p2536
aS'best'
p2537
aS'refuge'
p2538
aS','
p2539
aS'a'
p2540
aS'place'
p2541
aS'where'
p2542
aS'he'
p2543
aS'will'
p2544
aS'always'
p2545
aS'be'
p2546
aS'cared'
p2547
aS'for'
p2548
aS'properly'
p2549
aS'.'
p2550
asg32
(lp2551
VThe
p2552
aVfather
p2553
aVadmit
p2554
aVthis
p2555
aVfourth
p2556
aVsparrow
p2557
ag1619
aVfind
p2558
aVthe
p2559
aVbest
p2560
aVrefuge
p2561
ag96
ag41
aVplace
p2562
aVwhere
p2563
aVhe
p2564
aVwill
p2565
aValways
p2566
aVbe
p2567
aVcare
p2568
aVfor
p2569
aVproperly
p2570
ag45
asg46
(lp2571
g48
ag48
ag48
ag48
ag48
ag48
ag48
ag48
ag48
ag48
ag48
ag48
ag48
ag48
ag48
ag48
ag48
ag48
ag48
ag48
ag48
ag48
ag48
asg49
(lp2572
g51
ag52
ag536
ag51
ag55
ag52
ag536
ag120
ag51
ag122
ag52
ag121
ag51
ag52
ag118
ag119
ag980
ag124
ag211
ag120
ag57
ag124
ag59
asg60
VThe father admits this fourth sparrow has found the best refuge, a place where he will always be cared for properly.
p2573
sbasbsS'name'
p2574
S'The Sparrow and His Four Children'
p2575
sS'summaries'
p2576
(lp2577
g2323
asb.