ccopy_reg
_reconstructor
p0
(c__main__
Story
p1
c__builtin__
object
p2
Ntp3
Rp4
(dp5
S'text'
p6
g0
(c__main__
Document
p7
g2
Ntp8
Rp9
(dp10
S'_Document__initialContent'
p11
S'The she-wolf brought into the world a young one, and invited the fox\nto be godfather.  After all, he is a near relative of ours, said she,\nhe has a good understanding, and much talent, he can instruct my\nlittle son, and help him forward in the world.  The fox, too,\nappeared quite honest, and said, worthy mrs. Gossip, I thank you for\nthe honor which you are doing me, I will, however, conduct myself in\nsuch a way that you shall be repaid for it.  He enjoyed himself at\nthe feast, and made merry, afterwards he said, dear mrs. Gossip, it\nis our duty to take care of the child, it must have good food that it\nmay be strong.  I know a sheep-fold from which we might fetch a nice\nmorsel.  The wolf was pleased with the idea, and she went out with\nthe fox to the farmyard.  He pointed out the fold from afar, and\nsaid, you will be able to creep in there without being seen, and in\nthe meantime I will look about on the other side to see if I can pick\nup a chicken.  He, however, did not go there, but sat down at the\nentrance to the forest, stretched his legs and rested.\n\nThe she-wolf crept into the stable.  A dog was lying there, and it\nmade such a noise that the peasants came running out, caught gossip\nwolf, and poured a strong burning mixture, which had been prepared\nfor washing, over her skin.  At last she escaped, and dragged herself\noutside.  There lay the fox, who pretended to be full of complaints,\nand said, ah, dear mrs. Gossip, how ill I have fared, the peasants\nhave fallen on me, and have broken every limb I have, if you do not\nwant me to lie where I am and perish, you must carry me away.  The\nshe-wolf herself was only able to walk slowly, but she was in such\nconcern about the fox that she took him on her back, and slowly\ncarried him who was perfectly safe and sound to her house.  Then the\nfox cried to her, farewell, dear mrs. Gossip, may the roasting you\nhave had do you good, laughed heartily at her, and bounded off.\n'
p12
sS'sentences'
p13
(lp14
(i__main__
Sentence
p15
(dp16
S'index'
p17
I0
sS'words'
p18
(lp19
S'The'
p20
aS'she-wolf'
p21
aS'brought'
p22
aS'into'
p23
aS'the'
p24
aS'world'
p25
aS'a'
p26
aS'young'
p27
aS'one'
p28
aS','
p29
aS'and'
p30
aS'invited'
p31
aS'the'
p32
aS'fox'
p33
aS'to'
p34
aS'be'
p35
aS'godfather'
p36
aS'.'
p37
asS'lemmas'
p38
(lp39
VThe
p40
aVshe-wolf
p41
aVbrought
p42
aVinto
p43
aVthe
p44
aVworld
p45
aVa
p46
aVyoung
p47
aVone
p48
aV,
p49
aVand
p50
aVinvite
p51
aVthe
p52
aVfox
p53
aVto
p54
aVbe
p55
aVgodfather
p56
aV.
p57
asS'nerTags'
p58
(lp59
VO
p60
ag60
ag60
ag60
ag60
ag60
ag60
ag60
ag60
ag60
ag60
ag60
ag60
ag60
ag60
ag60
ag60
ag60
asS'posTags'
p61
(lp62
S'DT'
p63
aS'JJ'
p64
aS'NN'
p65
aS'IN'
p66
ag63
ag65
ag63
ag64
aS'CD'
p67
aS','
p68
aS'CC'
p69
aS'VBD'
p70
ag63
ag65
aS'TO'
p71
aS'VB'
p72
aS'RB'
p73
aS'.'
p74
asS'_Sentence__initialContent'
p75
VThe she-wolf brought into the world a young one, and invited the fox to be godfather.
p76
sba(i__main__
Sentence
p77
(dp78
g17
I1
sg18
(lp79
S'After'
p80
aS'all'
p81
aS','
p82
aS'he'
p83
aS'is'
p84
aS'a'
p85
aS'near'
p86
aS'relative'
p87
aS'of'
p88
aS'ours'
p89
aS','
p90
aS'said'
p91
aS'she'
p92
aS','
p93
aS'he'
p94
aS'has'
p95
aS'a'
p96
aS'good'
p97
aS'understanding'
p98
aS','
p99
aS'and'
p100
aS'much'
p101
aS'talent'
p102
aS','
p103
aS'he'
p104
aS'can'
p105
aS'instruct'
p106
aS'my'
p107
aS'little'
p108
aS'son'
p109
aS','
p110
aS'and'
p111
aS'help'
p112
aS'him'
p113
aS'forward'
p114
aS'in'
p115
aS'the'
p116
aS'world'
p117
aS'.'
p118
asg38
(lp119
VAfter
p120
aVall
p121
ag49
aVhe
p122
aVbe
p123
ag46
aVnear
p124
aVrelative
p125
aVof
p126
aVours
p127
ag49
aVsay
p128
aVshe
p129
ag49
aVhe
p130
aVhave
p131
ag46
aVgood
p132
aVunderstanding
p133
ag49
aVand
p134
aVmuch
p135
aVtalent
p136
ag49
aVhe
p137
aVcan
p138
aVinstruct
p139
aVmy
p140
aVlittle
p141
aVson
p142
ag49
aVand
p143
aVhelp
p144
aVhim
p145
aVforward
p146
aVin
p147
aVthe
p148
aVworld
p149
ag57
asg58
(lp150
g60
ag60
ag60
ag60
ag60
ag60
ag60
ag60
ag60
ag60
ag60
ag60
ag60
ag60
ag60
ag60
ag60
ag60
ag60
ag60
ag60
ag60
ag60
ag60
ag60
ag60
ag60
ag60
ag60
ag60
ag60
ag60
ag60
ag60
ag60
ag60
ag60
ag60
ag60
asg61
(lp151
g66
ag63
ag68
aS'PRP'
p152
aS'VBZ'
p153
ag63
ag64
ag64
ag66
aS'NNS'
p154
ag68
ag70
ag152
ag68
ag152
ag153
ag63
ag64
ag65
ag68
ag69
ag64
ag65
ag68
ag152
aS'MD'
p155
ag72
aS'PRP$'
p156
ag64
ag65
ag68
ag69
ag72
ag152
ag73
ag66
ag63
ag65
ag74
asg75
VAfter all, he is a near relative of ours, said she, he has a good understanding, and much talent, he can instruct my little son, and help him forward in the world.
p157
sba(i__main__
Sentence
p158
(dp159
g17
I2
sg18
(lp160
S'The'
p161
aS'fox'
p162
aS','
p163
aS'too'
p164
aS','
p165
aS'appeared'
p166
aS'quite'
p167
aS'honest'
p168
aS','
p169
aS'and'
p170
aS'said'
p171
aS','
p172
aS'worthy'
p173
aS'mrs'
p174
aS'.'
p175
asg38
(lp176
VThe
p177
aVfox
p178
ag49
aVtoo
p179
ag49
aVappear
p180
aVquite
p181
aVhonest
p182
ag49
aVand
p183
ag128
ag49
aVworthy
p184
aVmr
p185
ag57
asg58
(lp186
g60
ag60
ag60
ag60
ag60
ag60
ag60
ag60
ag60
ag60
ag60
ag60
ag60
ag60
ag60
asg61
(lp187
g63
ag65
ag68
ag73
ag68
ag70
ag73
aS'JJS'
p188
ag68
ag69
ag70
ag68
ag64
ag154
ag74
asg75
VThe fox, too, appeared quite honest, and said, worthy mrs.
p189
sba(i__main__
Sentence
p190
(dp191
g17
I3
sg18
(lp192
S'Gossip'
p193
aS','
p194
aS'I'
p195
aS'thank'
p196
aS'you'
p197
aS'for'
p198
aS'the'
p199
aS'honor'
p200
aS'which'
p201
aS'you'
p202
aS'are'
p203
aS'doing'
p204
aS'me'
p205
aS','
p206
aS'I'
p207
aS'will'
p208
aS','
p209
aS'however'
p210
aS','
p211
aS'conduct'
p212
aS'myself'
p213
aS'in'
p214
aS'such'
p215
aS'a'
p216
aS'way'
p217
aS'that'
p218
aS'you'
p219
aS'shall'
p220
aS'be'
p221
aS'repaid'
p222
aS'for'
p223
aS'it'
p224
aS'.'
p225
asg38
(lp226
VGossip
p227
ag49
aVI
p228
aVthank
p229
aVyou
p230
aVfor
p231
aVthe
p232
aVhonor
p233
aVwhich
p234
aVyou
p235
aVbe
p236
aVdo
p237
aVme
p238
ag49
ag228
aVwill
p239
ag49
aVhowever
p240
ag49
aVconduct
p241
aVmyself
p242
aVin
p243
aVsuch
p244
ag46
aVway
p245
aVthat
p246
aVyou
p247
aVshall
p248
aVbe
p249
aVrepay
p250
aVfor
p251
aVit
p252
ag57
asg58
(lp253
g60
ag60
ag60
ag60
ag60
ag60
ag60
ag60
ag60
ag60
ag60
ag60
ag60
ag60
ag60
ag60
ag60
ag60
ag60
ag60
ag60
ag60
ag60
ag60
ag60
ag60
ag60
ag60
ag60
ag60
ag60
ag60
ag60
asg61
(lp254
S'NNP'
p255
ag68
ag152
aS'VBP'
p256
ag152
ag66
ag63
ag65
aS'WDT'
p257
ag152
ag256
aS'VBG'
p258
ag152
ag68
ag152
ag155
ag68
ag73
ag68
ag65
ag152
ag66
ag64
ag63
ag65
ag257
ag152
ag155
ag72
aS'VBN'
p259
ag66
ag152
ag74
asg75
VGossip, I thank you for the honor which you are doing me, I will, however, conduct myself in such a way that you shall be repaid for it.
p260
sba(i__main__
Sentence
p261
(dp262
g17
I4
sg18
(lp263
S'He'
p264
aS'enjoyed'
p265
aS'himself'
p266
aS'at'
p267
aS'the'
p268
aS'feast'
p269
aS','
p270
aS'and'
p271
aS'made'
p272
aS'merry'
p273
aS','
p274
aS'afterwards'
p275
aS'he'
p276
aS'said'
p277
aS','
p278
aS'dear'
p279
aS'mrs'
p280
aS'.'
p281
asg38
(lp282
VHe
p283
aVenjoy
p284
aVhimself
p285
aVat
p286
aVthe
p287
aVfeast
p288
ag49
aVand
p289
aVmake
p290
aVmerry
p291
ag49
aVafterwards
p292
aVhe
p293
ag128
ag49
aVdear
p294
aVmr
p295
ag57
asg58
(lp296
g60
ag60
ag60
ag60
ag60
ag60
ag60
ag60
ag60
ag60
ag60
ag60
ag60
ag60
ag60
ag60
ag60
ag60
asg61
(lp297
g152
ag70
ag152
ag66
ag63
ag65
ag68
ag69
ag70
ag65
ag68
ag154
ag152
ag70
ag68
ag64
ag154
ag74
asg75
VHe enjoyed himself at the feast, and made merry, afterwards he said, dear mrs.
p298
sba(i__main__
Sentence
p299
(dp300
g17
I5
sg18
(lp301
S'Gossip'
p302
aS','
p303
aS'it'
p304
aS'is'
p305
aS'our'
p306
aS'duty'
p307
aS'to'
p308
aS'take'
p309
aS'care'
p310
aS'of'
p311
aS'the'
p312
aS'child'
p313
aS','
p314
aS'it'
p315
aS'must'
p316
aS'have'
p317
aS'good'
p318
aS'food'
p319
aS'that'
p320
aS'it'
p321
aS'may'
p322
aS'be'
p323
aS'strong'
p324
aS'.'
p325
asg38
(lp326
VGossip
p327
ag49
aVit
p328
ag123
aVour
p329
aVduty
p330
aVto
p331
aVtake
p332
aVcare
p333
aVof
p334
aVthe
p335
aVchild
p336
ag49
aVit
p337
aVmust
p338
aVhave
p339
aVgood
p340
aVfood
p341
aVthat
p342
aVit
p343
aVmay
p344
aVbe
p345
aVstrong
p346
ag57
asg58
(lp347
g60
ag60
ag60
ag60
ag60
ag60
ag60
ag60
ag60
ag60
ag60
ag60
ag60
ag60
ag60
ag60
ag60
ag60
ag60
ag60
ag60
ag60
ag60
ag60
asg61
(lp348
g255
ag68
ag152
ag153
ag156
ag65
ag71
ag72
ag65
ag66
ag63
ag65
ag68
ag152
ag155
ag72
ag64
ag65
ag257
ag152
ag155
ag72
ag64
ag74
asg75
VGossip, it is our duty to take care of the child, it must have good food that it may be strong.
p349
sba(i__main__
Sentence
p350
(dp351
g17
I6
sg18
(lp352
S'I'
p353
aS'know'
p354
aS'a'
p355
aS'sheep-fold'
p356
aS'from'
p357
aS'which'
p358
aS'we'
p359
aS'might'
p360
aS'fetch'
p361
aS'a'
p362
aS'nice'
p363
aS'morsel'
p364
aS'.'
p365
asg38
(lp366
g228
aVknow
p367
ag46
aVsheep-fold
p368
aVfrom
p369
aVwhich
p370
aVwe
p371
aVmight
p372
aVfetch
p373
ag46
aVnice
p374
aVmorsel
p375
ag57
asg58
(lp376
g60
ag60
ag60
ag60
ag60
ag60
ag60
ag60
ag60
ag60
ag60
ag60
ag60
asg61
(lp377
g152
ag256
ag63
ag64
ag66
ag257
ag152
ag155
ag72
ag63
ag64
ag65
ag74
asg75
VI know a sheep-fold from which we might fetch a nice morsel.
p378
sba(i__main__
Sentence
p379
(dp380
g17
I7
sg18
(lp381
S'The'
p382
aS'wolf'
p383
aS'was'
p384
aS'pleased'
p385
aS'with'
p386
aS'the'
p387
aS'idea'
p388
aS','
p389
aS'and'
p390
aS'she'
p391
aS'went'
p392
aS'out'
p393
aS'with'
p394
aS'the'
p395
aS'fox'
p396
aS'to'
p397
aS'the'
p398
aS'farmyard'
p399
aS'.'
p400
asg38
(lp401
VThe
p402
aVwolf
p403
aVbe
p404
aVplease
p405
aVwith
p406
aVthe
p407
aVidea
p408
ag49
aVand
p409
aVshe
p410
aVgo
p411
aVout
p412
aVwith
p413
aVthe
p414
aVfox
p415
aVto
p416
aVthe
p417
aVfarmyard
p418
ag57
asg58
(lp419
g60
ag60
ag60
ag60
ag60
ag60
ag60
ag60
ag60
ag60
ag60
ag60
ag60
ag60
ag60
ag60
ag60
ag60
ag60
asg61
(lp420
g63
ag65
ag70
ag259
ag66
ag63
ag65
ag68
ag69
ag152
ag70
aS'RP'
p421
ag66
ag63
ag65
ag71
ag63
ag65
ag74
asg75
VThe wolf was pleased with the idea, and she went out with the fox to the farmyard.
p422
sba(i__main__
Sentence
p423
(dp424
g17
I8
sg18
(lp425
S'He'
p426
aS'pointed'
p427
aS'out'
p428
aS'the'
p429
aS'fold'
p430
aS'from'
p431
aS'afar'
p432
aS','
p433
aS'and'
p434
aS'said'
p435
aS','
p436
aS'you'
p437
aS'will'
p438
aS'be'
p439
aS'able'
p440
aS'to'
p441
aS'creep'
p442
aS'in'
p443
aS'there'
p444
aS'without'
p445
aS'being'
p446
aS'seen'
p447
aS','
p448
aS'and'
p449
aS'in'
p450
aS'the'
p451
aS'meantime'
p452
aS'I'
p453
aS'will'
p454
aS'look'
p455
aS'about'
p456
aS'on'
p457
aS'the'
p458
aS'other'
p459
aS'side'
p460
aS'to'
p461
aS'see'
p462
aS'if'
p463
aS'I'
p464
aS'can'
p465
aS'pick'
p466
aS'up'
p467
aS'a'
p468
aS'chicken'
p469
aS'.'
p470
asg38
(lp471
VHe
p472
aVpoint
p473
aVout
p474
aVthe
p475
aVfold
p476
aVfrom
p477
aVafar
p478
ag49
aVand
p479
ag128
ag49
aVyou
p480
aVwill
p481
aVbe
p482
aVable
p483
aVto
p484
aVcreep
p485
aVin
p486
aVthere
p487
aVwithout
p488
aVbe
p489
aVsee
p490
ag49
aVand
p491
aVin
p492
aVthe
p493
aVmeantime
p494
ag228
aVwill
p495
aVlook
p496
aVabout
p497
aVon
p498
aVthe
p499
aVother
p500
aVside
p501
aVto
p502
aVsee
p503
aVif
p504
ag228
aVcan
p505
aVpick
p506
aVup
p507
ag46
aVchicken
p508
ag57
asg58
(lp509
g60
ag60
ag60
ag60
ag60
ag60
ag60
ag60
ag60
ag60
ag60
ag60
ag60
ag60
ag60
ag60
ag60
ag60
ag60
ag60
ag60
ag60
ag60
ag60
ag60
ag60
ag60
ag60
ag60
ag60
ag60
ag60
ag60
ag60
ag60
ag60
ag60
ag60
ag60
ag60
ag60
ag60
ag60
ag60
ag60
asg61
(lp510
g152
ag70
ag421
ag63
ag65
ag66
ag65
ag68
ag69
ag70
ag68
ag152
ag155
ag72
ag64
ag71
ag72
ag66
aS'EX'
p511
ag66
ag258
ag259
ag68
ag69
ag66
ag63
ag65
ag152
ag155
ag72
ag66
ag66
ag63
ag64
ag65
ag71
ag72
ag66
ag152
ag155
ag72
ag421
ag63
ag65
ag74
asg75
VHe pointed out the fold from afar, and said, you will be able to creep in there without being seen, and in the meantime I will look about on the other side to see if I can pick up a chicken.
p512
sba(i__main__
Sentence
p513
(dp514
g17
I9
sg18
(lp515
S'He'
p516
aS','
p517
aS'however'
p518
aS','
p519
aS'did'
p520
aS'not'
p521
aS'go'
p522
aS'there'
p523
aS','
p524
aS'but'
p525
aS'sat'
p526
aS'down'
p527
aS'at'
p528
aS'the'
p529
aS'entrance'
p530
aS'to'
p531
aS'the'
p532
aS'forest'
p533
aS','
p534
aS'stretched'
p535
aS'his'
p536
aS'legs'
p537
aS'and'
p538
aS'rested'
p539
aS'.'
p540
asg38
(lp541
VHe
p542
ag49
aVhowever
p543
ag49
aVdo
p544
aVnot
p545
aVgo
p546
aVthere
p547
ag49
aVbut
p548
aVsat
p549
aVdown
p550
aVat
p551
aVthe
p552
aVentrance
p553
aVto
p554
aVthe
p555
aVforest
p556
ag49
aVstretch
p557
aVhis
p558
aVleg
p559
aVand
p560
aVrest
p561
ag57
asg58
(lp562
g60
ag60
ag60
ag60
ag60
ag60
ag60
ag60
ag60
ag60
ag60
ag60
ag60
ag60
ag60
ag60
ag60
ag60
ag60
ag60
ag60
ag60
ag60
ag60
ag60
asg61
(lp563
g152
ag68
ag73
ag68
ag70
ag73
ag72
ag73
ag68
ag69
ag73
ag421
ag66
ag63
ag65
ag71
ag63
ag188
ag68
ag70
ag156
ag154
ag69
ag70
ag74
asg75
VHe, however, did not go there, but sat down at the entrance to the forest, stretched his legs and rested.
p564
sba(i__main__
Sentence
p565
(dp566
g17
I10
sg18
(lp567
S'The'
p568
aS'she-wolf'
p569
aS'crept'
p570
aS'into'
p571
aS'the'
p572
aS'stable'
p573
aS'.'
p574
asg38
(lp575
VThe
p576
aVshe-wolf
p577
aVcrept
p578
aVinto
p579
aVthe
p580
aVstable
p581
ag57
asg58
(lp582
g60
ag60
ag60
ag60
ag60
ag60
ag60
asg61
(lp583
g63
ag64
ag65
ag66
ag63
ag64
ag74
asg75
VThe she-wolf crept into the stable.
p584
sba(i__main__
Sentence
p585
(dp586
g17
I11
sg18
(lp587
S'A'
p588
aS'dog'
p589
aS'was'
p590
aS'lying'
p591
aS'there'
p592
aS','
p593
aS'and'
p594
aS'it'
p595
aS'made'
p596
aS'such'
p597
aS'a'
p598
aS'noise'
p599
aS'that'
p600
aS'the'
p601
aS'peasants'
p602
aS'came'
p603
aS'running'
p604
aS'out'
p605
aS','
p606
aS'caught'
p607
aS'gossip'
p608
aS'wolf'
p609
aS','
p610
aS'and'
p611
aS'poured'
p612
aS'a'
p613
aS'strong'
p614
aS'burning'
p615
aS'mixture'
p616
aS','
p617
aS'which'
p618
aS'had'
p619
aS'been'
p620
aS'prepared'
p621
aS'for'
p622
aS'washing'
p623
aS','
p624
aS'over'
p625
aS'her'
p626
aS'skin'
p627
aS'.'
p628
asg38
(lp629
VA
p630
aVdog
p631
ag404
aVlie
p632
aVthere
p633
ag49
aVand
p634
aVit
p635
ag290
aVsuch
p636
ag46
aVnoise
p637
aVthat
p638
aVthe
p639
aVpeasant
p640
aVcome
p641
aVrun
p642
aVout
p643
ag49
aVcatch
p644
aVgossip
p645
aVwolf
p646
ag49
aVand
p647
aVpour
p648
ag46
aVstrong
p649
aVburning
p650
aVmixture
p651
ag49
aVwhich
p652
aVhave
p653
aVbe
p654
aVprepare
p655
aVfor
p656
aVwashing
p657
ag49
aVover
p658
aVher
p659
aVskin
p660
ag57
asg58
(lp661
g60
ag60
ag60
ag60
ag60
ag60
ag60
ag60
ag60
ag60
ag60
ag60
ag60
ag60
ag60
ag60
ag60
ag60
ag60
ag60
ag60
ag60
ag60
ag60
ag60
ag60
ag60
ag60
ag60
ag60
ag60
ag60
ag60
ag60
ag60
ag60
ag60
ag60
ag60
ag60
ag60
asg61
(lp662
g63
ag65
ag70
ag258
ag73
ag68
ag69
ag152
ag70
ag64
ag63
ag65
ag257
ag63
ag154
ag70
ag258
ag66
ag68
ag259
ag65
ag65
ag68
ag69
ag70
ag63
ag64
ag65
ag65
ag68
ag257
ag70
ag259
ag259
ag66
ag65
ag68
ag66
ag156
ag65
ag74
asg75
VA dog was lying there, and it made such a noise that the peasants came running out, caught gossip wolf, and poured a strong burning mixture, which had been prepared for washing, over her skin.
p663
sba(i__main__
Sentence
p664
(dp665
g17
I12
sg18
(lp666
S'At'
p667
aS'last'
p668
aS'she'
p669
aS'escaped'
p670
aS','
p671
aS'and'
p672
aS'dragged'
p673
aS'herself'
p674
aS'outside'
p675
aS'.'
p676
asg38
(lp677
VAt
p678
aVlast
p679
aVshe
p680
aVescape
p681
ag49
aVand
p682
aVdrag
p683
aVherself
p684
aVoutside
p685
ag57
asg58
(lp686
g60
ag60
ag60
ag60
ag60
ag60
ag60
ag60
ag60
ag60
asg61
(lp687
g66
ag64
ag152
ag70
ag68
ag69
ag70
ag152
ag66
ag74
asg75
VAt last she escaped, and dragged herself outside.
p688
sba(i__main__
Sentence
p689
(dp690
g17
I13
sg18
(lp691
S'There'
p692
aS'lay'
p693
aS'the'
p694
aS'fox'
p695
aS','
p696
aS'who'
p697
aS'pretended'
p698
aS'to'
p699
aS'be'
p700
aS'full'
p701
aS'of'
p702
aS'complaints'
p703
aS','
p704
aS'and'
p705
aS'said'
p706
aS','
p707
aS'ah'
p708
aS','
p709
aS'dear'
p710
aS'mrs'
p711
aS'.'
p712
asg38
(lp713
VThere
p714
aVlay
p715
aVthe
p716
aVfox
p717
ag49
aVwho
p718
aVpretend
p719
aVto
p720
aVbe
p721
aVfull
p722
aVof
p723
aVcomplaint
p724
ag49
aVand
p725
ag128
ag49
aVah
p726
ag49
aVdear
p727
aVmr
p728
ag57
asg58
(lp729
g60
ag60
ag60
ag60
ag60
ag60
ag60
ag60
ag60
ag60
ag60
ag60
ag60
ag60
ag60
ag60
ag60
ag60
ag60
ag60
ag60
asg61
(lp730
g511
ag65
ag63
ag65
ag68
aS'WP'
p731
ag259
ag71
ag72
ag64
ag66
ag154
ag68
ag69
ag70
ag68
ag65
ag68
ag64
ag154
ag74
asg75
VThere lay the fox, who pretended to be full of complaints, and said, ah, dear mrs.
p732
sba(i__main__
Sentence
p733
(dp734
g17
I14
sg18
(lp735
S'Gossip'
p736
aS','
p737
aS'how'
p738
aS'ill'
p739
aS'I'
p740
aS'have'
p741
aS'fared'
p742
aS','
p743
aS'the'
p744
aS'peasants'
p745
aS'have'
p746
aS'fallen'
p747
aS'on'
p748
aS'me'
p749
aS','
p750
aS'and'
p751
aS'have'
p752
aS'broken'
p753
aS'every'
p754
aS'limb'
p755
aS'I'
p756
aS'have'
p757
aS','
p758
aS'if'
p759
aS'you'
p760
aS'do'
p761
aS'not'
p762
aS'want'
p763
aS'me'
p764
aS'to'
p765
aS'lie'
p766
aS'where'
p767
aS'I'
p768
aS'am'
p769
aS'and'
p770
aS'perish'
p771
aS','
p772
aS'you'
p773
aS'must'
p774
aS'carry'
p775
aS'me'
p776
aS'away'
p777
aS'.'
p778
asg38
(lp779
VGossip
p780
ag49
aVhow
p781
aVill
p782
ag228
aVhave
p783
aVfare
p784
ag49
aVthe
p785
aVpeasant
p786
aVhave
p787
aVfall
p788
aVon
p789
aVme
p790
ag49
aVand
p791
aVhave
p792
aVbreak
p793
aVevery
p794
aVlimb
p795
ag228
aVhave
p796
ag49
aVif
p797
aVyou
p798
aVdo
p799
aVnot
p800
aVwant
p801
aVme
p802
aVto
p803
aVlie
p804
aVwhere
p805
ag228
aVbe
p806
aVand
p807
aVperish
p808
ag49
aVyou
p809
aVmust
p810
aVcarry
p811
aVme
p812
aVaway
p813
ag57
asg58
(lp814
g60
ag60
ag60
ag60
ag60
ag60
ag60
ag60
ag60
ag60
ag60
ag60
ag60
ag60
ag60
ag60
ag60
ag60
ag60
ag60
ag60
ag60
ag60
ag60
ag60
ag60
ag60
ag60
ag60
ag60
ag60
ag60
ag60
ag60
ag60
ag60
ag60
ag60
ag60
ag60
ag60
ag60
ag60
asg61
(lp815
g255
ag68
aS'WRB'
p816
ag64
ag152
ag256
ag259
ag68
ag63
ag154
ag256
ag259
ag66
ag152
ag68
ag69
ag256
ag259
ag63
ag65
ag152
ag256
ag68
ag66
ag152
ag256
ag73
ag72
ag152
ag71
ag72
ag816
ag152
ag256
ag69
ag64
ag68
ag152
ag155
ag72
ag152
ag73
ag74
asg75
VGossip, how ill I have fared, the peasants have fallen on me, and have broken every limb I have, if you do not want me to lie where I am and perish, you must carry me away.
p817
sba(i__main__
Sentence
p818
(dp819
g17
I15
sg18
(lp820
S'The'
p821
aS'she-wolf'
p822
aS'herself'
p823
aS'was'
p824
aS'only'
p825
aS'able'
p826
aS'to'
p827
aS'walk'
p828
aS'slowly'
p829
aS','
p830
aS'but'
p831
aS'she'
p832
aS'was'
p833
aS'in'
p834
aS'such'
p835
aS'concern'
p836
aS'about'
p837
aS'the'
p838
aS'fox'
p839
aS'that'
p840
aS'she'
p841
aS'took'
p842
aS'him'
p843
aS'on'
p844
aS'her'
p845
aS'back'
p846
aS','
p847
aS'and'
p848
aS'slowly'
p849
aS'carried'
p850
aS'him'
p851
aS'who'
p852
aS'was'
p853
aS'perfectly'
p854
aS'safe'
p855
aS'and'
p856
aS'sound'
p857
aS'to'
p858
aS'her'
p859
aS'house'
p860
aS'.'
p861
asg38
(lp862
VThe
p863
aVshe-wolf
p864
aVherself
p865
ag404
aVonly
p866
aVable
p867
aVto
p868
aVwalk
p869
aVslowly
p870
ag49
aVbut
p871
aVshe
p872
ag404
aVin
p873
aVsuch
p874
aVconcern
p875
aVabout
p876
aVthe
p877
aVfox
p878
aVthat
p879
aVshe
p880
aVtake
p881
aVhim
p882
aVon
p883
aVher
p884
aVback
p885
ag49
aVand
p886
aVslowly
p887
aVcarry
p888
aVhim
p889
aVwho
p890
ag404
aVperfectly
p891
aVsafe
p892
aVand
p893
aVsound
p894
aVto
p895
aVher
p896
aVhouse
p897
ag57
asg58
(lp898
g60
ag60
ag60
ag60
ag60
ag60
ag60
ag60
ag60
ag60
ag60
ag60
ag60
ag60
ag60
ag60
ag60
ag60
ag60
ag60
ag60
ag60
ag60
ag60
ag60
ag60
ag60
ag60
ag60
ag60
ag60
ag60
ag60
ag60
ag60
ag60
ag60
ag60
ag60
ag60
ag60
asg61
(lp899
g63
ag64
ag65
ag70
ag73
ag64
ag71
ag72
ag73
ag68
ag69
ag152
ag70
ag66
ag64
ag65
ag66
ag63
ag65
ag66
ag152
ag70
ag152
ag66
ag156
ag65
ag68
ag69
ag73
ag259
ag152
ag731
ag70
ag73
ag64
ag69
ag72
ag71
ag156
ag65
ag74
asg75
VThe she-wolf herself was only able to walk slowly, but she was in such concern about the fox that she took him on her back, and slowly carried him who was perfectly safe and sound to her house.
p900
sba(i__main__
Sentence
p901
(dp902
g17
I16
sg18
(lp903
S'Then'
p904
aS'the'
p905
aS'fox'
p906
aS'cried'
p907
aS'to'
p908
aS'her'
p909
aS','
p910
aS'farewell'
p911
aS','
p912
aS'dear'
p913
aS'mrs'
p914
aS'.'
p915
asg38
(lp916
VThen
p917
aVthe
p918
aVfox
p919
aVcry
p920
aVto
p921
aVher
p922
ag49
aVfarewell
p923
ag49
aVdear
p924
aVmr
p925
ag57
asg58
(lp926
g60
ag60
ag60
ag60
ag60
ag60
ag60
ag60
ag60
ag60
ag60
ag60
asg61
(lp927
g73
ag63
ag65
ag70
ag71
ag156
ag68
ag65
ag68
ag64
ag154
ag74
asg75
VThen the fox cried to her, farewell, dear mrs.
p928
sba(i__main__
Sentence
p929
(dp930
g17
I17
sg18
(lp931
S'Gossip'
p932
aS','
p933
aS'may'
p934
aS'the'
p935
aS'roasting'
p936
aS'you'
p937
aS'have'
p938
aS'had'
p939
aS'do'
p940
aS'you'
p941
aS'good'
p942
aS','
p943
aS'laughed'
p944
aS'heartily'
p945
aS'at'
p946
aS'her'
p947
aS','
p948
aS'and'
p949
aS'bounded'
p950
aS'off'
p951
aS'.'
p952
asg38
(lp953
VGossip
p954
ag49
aVmay
p955
aVthe
p956
aVroasting
p957
aVyou
p958
aVhave
p959
ag653
aVdo
p960
aVyou
p961
aVgood
p962
ag49
aVlaugh
p963
aVheartily
p964
aVat
p965
aVher
p966
ag49
aVand
p967
aVbound
p968
aVoff
p969
ag57
asg58
(lp970
g60
ag60
ag60
ag60
ag60
ag60
ag60
ag60
ag60
ag60
ag60
ag60
ag60
ag60
ag60
ag60
ag60
ag60
ag60
ag60
ag60
asg61
(lp971
g255
ag68
ag155
ag63
ag65
ag152
ag72
ag70
ag72
ag152
ag72
ag68
ag259
ag73
ag66
ag156
ag68
ag69
ag70
ag421
ag74
asg75
VGossip, may the roasting you have had do you good, laughed heartily at her, and bounded off. 
p972
sbasbsS'summary'
p973
g0
(g7
g2
Ntp974
Rp975
(dp976
g11
S'A she-wolf invites a fox to be godfather of her child. The fox agrees. When the fox asks the wolf to catch food for the child, the fox lies down and rests as the wolf goes for a lamb. The wolf is caught and doused with a burning mixture. When the wolf drags herself back to the fox, the fox pretends he has been hurt by a farmer. Although the wolf can barely walk, she carries the uninjured fox to safety. When they are safe, the fox runs away laughing at the faithful wolf. '
p977
sg13
(lp978
(i__main__
Sentence
p979
(dp980
g17
I0
sg18
(lp981
S'A'
p982
aS'she-wolf'
p983
aS'invites'
p984
aS'a'
p985
aS'fox'
p986
aS'to'
p987
aS'be'
p988
aS'godfather'
p989
aS'of'
p990
aS'her'
p991
aS'child'
p992
aS'.'
p993
asg38
(lp994
g630
aVshe-wolf
p995
aVinvite
p996
ag46
aVfox
p997
aVto
p998
aVbe
p999
aVgodfather
p1000
aVof
p1001
aVher
p1002
aVchild
p1003
ag57
asg58
(lp1004
g60
ag60
ag60
ag60
ag60
ag60
ag60
ag60
ag60
ag60
ag60
ag60
asg61
(lp1005
g63
ag64
ag154
ag63
ag65
ag71
ag72
ag73
ag66
ag156
ag65
ag74
asg75
VA she-wolf invites a fox to be godfather of her child.
p1006
sba(i__main__
Sentence
p1007
(dp1008
g17
I1
sg18
(lp1009
S'The'
p1010
aS'fox'
p1011
aS'agrees'
p1012
aS'.'
p1013
asg38
(lp1014
VThe
p1015
aVfox
p1016
aVagree
p1017
ag57
asg58
(lp1018
g60
ag60
ag60
ag60
asg61
(lp1019
g63
ag65
ag153
ag74
asg75
VThe fox agrees.
p1020
sba(i__main__
Sentence
p1021
(dp1022
g17
I2
sg18
(lp1023
S'When'
p1024
aS'the'
p1025
aS'fox'
p1026
aS'asks'
p1027
aS'the'
p1028
aS'wolf'
p1029
aS'to'
p1030
aS'catch'
p1031
aS'food'
p1032
aS'for'
p1033
aS'the'
p1034
aS'child'
p1035
aS','
p1036
aS'the'
p1037
aS'fox'
p1038
aS'lies'
p1039
aS'down'
p1040
aS'and'
p1041
aS'rests'
p1042
aS'as'
p1043
aS'the'
p1044
aS'wolf'
p1045
aS'goes'
p1046
aS'for'
p1047
aS'a'
p1048
aS'lamb'
p1049
aS'.'
p1050
asg38
(lp1051
VWhen
p1052
aVthe
p1053
aVfox
p1054
aVask
p1055
aVthe
p1056
aVwolf
p1057
aVto
p1058
aVcatch
p1059
aVfood
p1060
aVfor
p1061
aVthe
p1062
aVchild
p1063
ag49
aVthe
p1064
aVfox
p1065
aVlie
p1066
aVdown
p1067
aVand
p1068
aVrest
p1069
ag46
aVthe
p1070
aVwolf
p1071
aVgo
p1072
aVfor
p1073
ag46
aVlamb
p1074
ag57
asg58
(lp1075
g60
ag60
ag60
ag60
ag60
ag60
ag60
ag60
ag60
ag60
ag60
ag60
ag60
ag60
ag60
ag60
ag60
ag60
ag60
ag60
ag60
ag60
ag60
ag60
ag60
ag60
ag60
asg61
(lp1076
g816
ag63
ag65
ag153
ag63
ag65
ag71
ag72
ag65
ag66
ag63
ag65
ag68
ag63
ag65
ag154
ag66
ag69
ag154
ag66
ag63
ag65
ag153
ag66
ag63
ag65
ag74
asg75
VWhen the fox asks the wolf to catch food for the child, the fox lies down and rests as the wolf goes for a lamb.
p1077
sba(i__main__
Sentence
p1078
(dp1079
g17
I3
sg18
(lp1080
S'The'
p1081
aS'wolf'
p1082
aS'is'
p1083
aS'caught'
p1084
aS'and'
p1085
aS'doused'
p1086
aS'with'
p1087
aS'a'
p1088
aS'burning'
p1089
aS'mixture'
p1090
aS'.'
p1091
asg38
(lp1092
VThe
p1093
aVwolf
p1094
ag123
ag644
aVand
p1095
aVdouse
p1096
aVwith
p1097
ag46
aVburning
p1098
aVmixture
p1099
ag57
asg58
(lp1100
g60
ag60
ag60
ag60
ag60
ag60
ag60
ag60
ag60
ag60
ag60
asg61
(lp1101
g63
ag65
ag153
ag259
ag69
ag259
ag66
ag63
ag65
ag65
ag74
asg75
VThe wolf is caught and doused with a burning mixture.
p1102
sba(i__main__
Sentence
p1103
(dp1104
g17
I4
sg18
(lp1105
S'When'
p1106
aS'the'
p1107
aS'wolf'
p1108
aS'drags'
p1109
aS'herself'
p1110
aS'back'
p1111
aS'to'
p1112
aS'the'
p1113
aS'fox'
p1114
aS','
p1115
aS'the'
p1116
aS'fox'
p1117
aS'pretends'
p1118
aS'he'
p1119
aS'has'
p1120
aS'been'
p1121
aS'hurt'
p1122
aS'by'
p1123
aS'a'
p1124
aS'farmer'
p1125
aS'.'
p1126
asg38
(lp1127
VWhen
p1128
aVthe
p1129
aVwolf
p1130
aVdrag
p1131
aVherself
p1132
aVback
p1133
aVto
p1134
aVthe
p1135
aVfox
p1136
ag49
aVthe
p1137
aVfox
p1138
aVpretend
p1139
aVhe
p1140
ag131
ag654
aVhurt
p1141
aVby
p1142
ag46
aVfarmer
p1143
ag57
asg58
(lp1144
g60
ag60
ag60
ag60
ag60
ag60
ag60
ag60
ag60
ag60
ag60
ag60
ag60
ag60
ag60
ag60
ag60
ag60
ag60
ag60
ag60
asg61
(lp1145
g816
ag63
ag65
ag154
ag152
ag73
ag71
ag63
ag65
ag68
ag63
ag65
ag154
ag152
ag153
ag259
ag259
ag66
ag63
ag65
ag74
asg75
VWhen the wolf drags herself back to the fox, the fox pretends he has been hurt by a farmer.
p1146
sba(i__main__
Sentence
p1147
(dp1148
g17
I5
sg18
(lp1149
S'Although'
p1150
aS'the'
p1151
aS'wolf'
p1152
aS'can'
p1153
aS'barely'
p1154
aS'walk'
p1155
aS','
p1156
aS'she'
p1157
aS'carries'
p1158
aS'the'
p1159
aS'uninjured'
p1160
aS'fox'
p1161
aS'to'
p1162
aS'safety'
p1163
aS'.'
p1164
asg38
(lp1165
VAlthough
p1166
aVthe
p1167
aVwolf
p1168
aVcan
p1169
aVbarely
p1170
aVwalk
p1171
ag49
aVshe
p1172
aVcarry
p1173
aVthe
p1174
aVuninjured
p1175
aVfox
p1176
aVto
p1177
aVsafety
p1178
ag57
asg58
(lp1179
g60
ag60
ag60
ag60
ag60
ag60
ag60
ag60
ag60
ag60
ag60
ag60
ag60
ag60
ag60
asg61
(lp1180
g66
ag63
ag65
ag155
ag73
ag72
ag68
ag152
ag153
ag63
ag259
ag65
ag71
ag65
ag74
asg75
VAlthough the wolf can barely walk, she carries the uninjured fox to safety.
p1181
sba(i__main__
Sentence
p1182
(dp1183
g17
I6
sg18
(lp1184
S'When'
p1185
aS'they'
p1186
aS'are'
p1187
aS'safe'
p1188
aS','
p1189
aS'the'
p1190
aS'fox'
p1191
aS'runs'
p1192
aS'away'
p1193
aS'laughing'
p1194
aS'at'
p1195
aS'the'
p1196
aS'faithful'
p1197
aS'wolf'
p1198
aS'.'
p1199
asg38
(lp1200
VWhen
p1201
aVthey
p1202
ag236
aVsafe
p1203
ag49
aVthe
p1204
aVfox
p1205
aVrun
p1206
aVaway
p1207
aVlaugh
p1208
aVat
p1209
aVthe
p1210
aVfaithful
p1211
aVwolf
p1212
ag57
asg58
(lp1213
g60
ag60
ag60
ag60
ag60
ag60
ag60
ag60
ag60
ag60
ag60
ag60
ag60
ag60
ag60
asg61
(lp1214
g816
ag152
ag256
ag64
ag68
ag63
ag65
ag153
ag73
ag258
ag66
ag63
ag65
ag65
ag74
asg75
VWhen they are safe, the fox runs away laughing at the faithful wolf. 
p1215
sbasbsS'name'
p1216
S'Gossip Wolf and the Fox'
p1217
sS'summaries'
p1218
(lp1219
g975
asb.