ccopy_reg
_reconstructor
p0
(c__main__
Story
p1
c__builtin__
object
p2
Ntp3
Rp4
(dp5
S'text'
p6
g0
(c__main__
Document
p7
g2
Ntp8
Rp9
(dp10
S'_Document__initialContent'
p11
S'The fishes had for a long time been discontented because no\norder prevailed in their kingdom.  None of them turned\naside for the others, but all swam to the right or the left\nas they fancied, or darted between those who wanted to\nstay together, or got into their way.  And a strong one gave\na weak one a blow with its tail, which drove it away, or else\nswallowed it up without more ado.  How delightful it would be,\nsaid they, if we had a king who enforced law and justice among us,\nand they met together to choose for their ruler the one who could\ncleave through the water most quickly, and give help to the\nweak ones.\nThey placed themselves in rank and file by the shore, and the\npike gave the signal with his tail, on which they all started.\nLike an arrow, the pike darted away, and with him the herring,\nthe gudgeon, the perch, the carp, and all the rest of them.\nEven the sole swam with them, and hoped to win the race.\nAll at once, the cry was heard, the herring is first, the\nherring is first.  Who is first, screamed angrily the flat envious\nsole, who had been left far behind,  who is first.  The herring,\nthe herring, was the answer.  The naked herring, cried the\njealous creature, the naked herring.  Since that time the sole\nhas been punished by having been given a mouth on one side.\n'
p12
sS'sentences'
p13
(lp14
(i__main__
Sentence
p15
(dp16
S'index'
p17
I0
sS'words'
p18
(lp19
S'The'
p20
aS'fishes'
p21
aS'had'
p22
aS'for'
p23
aS'a'
p24
aS'long'
p25
aS'time'
p26
aS'been'
p27
aS'discontented'
p28
aS'because'
p29
aS'no'
p30
aS'order'
p31
aS'prevailed'
p32
aS'in'
p33
aS'their'
p34
aS'kingdom'
p35
aS'.'
p36
asS'lemmas'
p37
(lp38
VThe
p39
aVfish
p40
aVhave
p41
aVfor
p42
aVa
p43
aVlong
p44
aVtime
p45
aVbe
p46
aVdiscontent
p47
aVbecause
p48
aVno
p49
aVorder
p50
aVprevail
p51
aVin
p52
aVtheir
p53
aVkingdom
p54
aV.
p55
asS'nerTags'
p56
(lp57
VO
p58
ag58
ag58
ag58
ag58
ag58
ag58
ag58
ag58
ag58
ag58
ag58
ag58
ag58
ag58
ag58
ag58
asS'posTags'
p59
(lp60
S'DT'
p61
aS'NNS'
p62
aS'VBD'
p63
aS'IN'
p64
ag61
aS'JJ'
p65
aS'NN'
p66
aS'VBN'
p67
ag67
ag64
ag61
ag66
ag63
ag64
aS'PRP$'
p68
ag66
aS'.'
p69
asS'_Sentence__initialContent'
p70
VThe fishes had for a long time been discontented because no order prevailed in their kingdom.
p71
sba(i__main__
Sentence
p72
(dp73
g17
I1
sg18
(lp74
S'None'
p75
aS'of'
p76
aS'them'
p77
aS'turned'
p78
aS'aside'
p79
aS'for'
p80
aS'the'
p81
aS'others'
p82
aS','
p83
aS'but'
p84
aS'all'
p85
aS'swam'
p86
aS'to'
p87
aS'the'
p88
aS'right'
p89
aS'or'
p90
aS'the'
p91
aS'left'
p92
aS'as'
p93
aS'they'
p94
aS'fancied'
p95
aS','
p96
aS'or'
p97
aS'darted'
p98
aS'between'
p99
aS'those'
p100
aS'who'
p101
aS'wanted'
p102
aS'to'
p103
aS'stay'
p104
aS'together'
p105
aS','
p106
aS'or'
p107
aS'got'
p108
aS'into'
p109
aS'their'
p110
aS'way'
p111
aS'.'
p112
asg37
(lp113
VNone
p114
aVof
p115
aVthem
p116
aVturn
p117
aVaside
p118
aVfor
p119
aVthe
p120
aVothers
p121
aV,
p122
aVbut
p123
aVall
p124
aVswam
p125
aVto
p126
aVthe
p127
aVright
p128
aVor
p129
aVthe
p130
aVleft
p131
ag43
aVthey
p132
aVfancy
p133
ag122
aVor
p134
aVdart
p135
aVbetween
p136
aVthose
p137
aVwho
p138
aVwant
p139
aVto
p140
aVstay
p141
aVtogether
p142
ag122
aVor
p143
aVget
p144
aVinto
p145
aVtheir
p146
aVway
p147
ag55
asg56
(lp148
g58
ag58
ag58
ag58
ag58
ag58
ag58
ag58
ag58
ag58
ag58
ag58
ag58
ag58
ag58
ag58
ag58
ag58
ag58
ag58
ag58
ag58
ag58
ag58
ag58
ag58
ag58
ag58
ag58
ag58
ag58
ag58
ag58
ag58
ag58
ag58
ag58
ag58
asg59
(lp149
g66
ag64
aS'PRP'
p150
ag63
aS'RB'
p151
ag64
ag61
ag62
aS','
p152
aS'CC'
p153
ag61
ag66
aS'TO'
p154
ag61
ag66
ag153
ag61
ag66
ag64
ag150
ag63
ag152
ag153
ag67
ag64
ag61
aS'WP'
p155
ag67
ag154
aS'VB'
p156
aS'RP'
p157
ag152
ag153
ag63
ag64
ag68
ag66
ag69
asg70
VNone of them turned aside for the others, but all swam to the right or the left as they fancied, or darted between those who wanted to stay together, or got into their way.
p158
sba(i__main__
Sentence
p159
(dp160
g17
I2
sg18
(lp161
S'And'
p162
aS'a'
p163
aS'strong'
p164
aS'one'
p165
aS'gave'
p166
aS'a'
p167
aS'weak'
p168
aS'one'
p169
aS'a'
p170
aS'blow'
p171
aS'with'
p172
aS'its'
p173
aS'tail'
p174
aS','
p175
aS'which'
p176
aS'drove'
p177
aS'it'
p178
aS'away'
p179
aS','
p180
aS'or'
p181
aS'else'
p182
aS'swallowed'
p183
aS'it'
p184
aS'up'
p185
aS'without'
p186
aS'more'
p187
aS'ado'
p188
aS'.'
p189
asg37
(lp190
VAnd
p191
ag43
aVstrong
p192
aVone
p193
aVgave
p194
ag43
aVweak
p195
aVone
p196
ag43
aVblow
p197
aVwith
p198
aVit
p199
aVtail
p200
ag122
aVwhich
p201
aVdrive
p202
aVit
p203
aVaway
p204
ag122
aVor
p205
aVelse
p206
aVswallow
p207
aVit
p208
aVup
p209
aVwithout
p210
aVmore
p211
aVado
p212
ag55
asg56
(lp213
g58
ag58
ag58
ag58
ag58
ag58
ag58
ag58
ag58
ag58
ag58
ag58
ag58
ag58
ag58
ag58
ag58
ag58
ag58
ag58
ag58
ag58
ag58
ag58
ag58
ag58
ag58
ag58
asg59
(lp214
g153
ag61
ag65
aS'CD'
p215
ag66
ag61
ag65
ag215
ag61
ag66
ag64
ag68
ag66
ag152
aS'WDT'
p216
ag63
ag150
ag151
ag152
ag153
ag151
ag63
ag150
ag157
ag64
aS'JJR'
p217
ag66
ag69
asg70
VAnd a strong one gave a weak one a blow with its tail, which drove it away, or else swallowed it up without more ado.
p218
sba(i__main__
Sentence
p219
(dp220
g17
I3
sg18
(lp221
S'How'
p222
aS'delightful'
p223
aS'it'
p224
aS'would'
p225
aS'be'
p226
aS','
p227
aS'said'
p228
aS'they'
p229
aS','
p230
aS'if'
p231
aS'we'
p232
aS'had'
p233
aS'a'
p234
aS'king'
p235
aS'who'
p236
aS'enforced'
p237
aS'law'
p238
aS'and'
p239
aS'justice'
p240
aS'among'
p241
aS'us'
p242
aS','
p243
aS'and'
p244
aS'they'
p245
aS'met'
p246
aS'together'
p247
aS'to'
p248
aS'choose'
p249
aS'for'
p250
aS'their'
p251
aS'ruler'
p252
aS'the'
p253
aS'one'
p254
aS'who'
p255
aS'could'
p256
aS'cleave'
p257
aS'through'
p258
aS'the'
p259
aS'water'
p260
aS'most'
p261
aS'quickly'
p262
aS','
p263
aS'and'
p264
aS'give'
p265
aS'help'
p266
aS'to'
p267
aS'the'
p268
aS'weak'
p269
aS'ones'
p270
aS'.'
p271
asg37
(lp272
VHow
p273
aVdelightful
p274
aVit
p275
aVwould
p276
aVbe
p277
ag122
aVsay
p278
aVthey
p279
ag122
aVif
p280
aVwe
p281
ag41
ag43
aVking
p282
aVwho
p283
aVenforce
p284
aVlaw
p285
aVand
p286
aVjustice
p287
aVamong
p288
aVu
p289
ag122
aVand
p290
aVthey
p291
aVmeet
p292
aVtogether
p293
aVto
p294
aVchoose
p295
aVfor
p296
aVtheir
p297
aVruler
p298
aVthe
p299
aVone
p300
aVwho
p301
aVcould
p302
aVcleave
p303
aVthrough
p304
aVthe
p305
aVwater
p306
aVmost
p307
aVquickly
p308
ag122
aVand
p309
aVgive
p310
aVhelp
p311
aVto
p312
aVthe
p313
aVweak
p314
aVone
p315
ag55
asg56
(lp316
g58
ag58
ag58
ag58
ag58
ag58
ag58
ag58
ag58
ag58
ag58
ag58
ag58
ag58
ag58
ag58
ag58
ag58
ag58
ag58
ag58
ag58
ag58
ag58
ag58
ag58
ag58
ag58
ag58
ag58
ag58
ag58
ag58
ag58
ag58
ag58
ag58
ag58
ag58
ag58
ag58
ag58
ag58
ag58
ag58
ag58
ag58
ag58
ag58
ag58
asg59
(lp317
S'WRB'
p318
ag65
ag150
aS'MD'
p319
ag156
ag152
ag63
ag150
ag152
ag64
ag150
ag63
ag61
ag66
ag155
ag67
ag66
ag153
ag66
ag64
ag150
ag152
ag153
ag150
aS'VBP'
p320
ag157
ag154
ag156
ag64
ag68
ag66
ag61
ag215
ag155
ag319
ag156
ag64
ag61
ag66
aS'JJS'
p321
ag151
ag152
ag153
ag156
ag66
ag154
ag61
ag65
ag62
ag69
asg70
VHow delightful it would be, said they, if we had a king who enforced law and justice among us, and they met together to choose for their ruler the one who could cleave through the water most quickly, and give help to the weak ones.
p322
sba(i__main__
Sentence
p323
(dp324
g17
I4
sg18
(lp325
S'They'
p326
aS'placed'
p327
aS'themselves'
p328
aS'in'
p329
aS'rank'
p330
aS'and'
p331
aS'file'
p332
aS'by'
p333
aS'the'
p334
aS'shore'
p335
aS','
p336
aS'and'
p337
aS'the'
p338
aS'pike'
p339
aS'gave'
p340
aS'the'
p341
aS'signal'
p342
aS'with'
p343
aS'his'
p344
aS'tail'
p345
aS','
p346
aS'on'
p347
aS'which'
p348
aS'they'
p349
aS'all'
p350
aS'started'
p351
aS'.'
p352
asg37
(lp353
VThey
p354
aVplace
p355
aVthemselves
p356
aVin
p357
aVrank
p358
aVand
p359
aVfile
p360
aVby
p361
aVthe
p362
aVshore
p363
ag122
aVand
p364
aVthe
p365
aVpike
p366
aVgive
p367
aVthe
p368
aVsignal
p369
aVwith
p370
aVhis
p371
aVtail
p372
ag122
aVon
p373
aVwhich
p374
aVthey
p375
aVall
p376
aVstart
p377
ag55
asg56
(lp378
g58
ag58
ag58
ag58
ag58
ag58
ag58
ag58
ag58
ag58
ag58
ag58
ag58
ag58
ag58
ag58
ag58
ag58
ag58
ag58
ag58
ag58
ag58
ag58
ag58
ag58
ag58
asg59
(lp379
g150
ag63
ag150
ag64
ag66
ag153
ag66
ag64
ag61
ag66
ag152
ag153
ag61
ag66
ag63
ag61
ag66
ag64
ag68
ag66
ag152
ag64
ag216
ag150
ag320
ag67
ag69
asg70
VThey placed themselves in rank and file by the shore, and the pike gave the signal with his tail, on which they all started.
p380
sba(i__main__
Sentence
p381
(dp382
g17
I5
sg18
(lp383
S'Like'
p384
aS'an'
p385
aS'arrow'
p386
aS','
p387
aS'the'
p388
aS'pike'
p389
aS'darted'
p390
aS'away'
p391
aS','
p392
aS'and'
p393
aS'with'
p394
aS'him'
p395
aS'the'
p396
aS'herring'
p397
aS','
p398
aS'the'
p399
aS'gudgeon'
p400
aS','
p401
aS'the'
p402
aS'perch'
p403
aS','
p404
aS'the'
p405
aS'carp'
p406
aS','
p407
aS'and'
p408
aS'all'
p409
aS'the'
p410
aS'rest'
p411
aS'of'
p412
aS'them'
p413
aS'.'
p414
asg37
(lp415
VLike
p416
aVan
p417
aVarrow
p418
ag122
aVthe
p419
aVpike
p420
aVdart
p421
aVaway
p422
ag122
aVand
p423
aVwith
p424
aVhim
p425
aVthe
p426
aVherring
p427
ag122
aVthe
p428
aVgudgeon
p429
ag122
aVthe
p430
aVperch
p431
ag122
aVthe
p432
aVcarp
p433
ag122
aVand
p434
aVall
p435
aVthe
p436
aVrest
p437
aVof
p438
aVthem
p439
ag55
asg56
(lp440
g58
ag58
ag58
ag58
ag58
ag58
ag58
ag58
ag58
ag58
ag58
ag58
ag58
ag58
ag58
ag58
ag58
ag58
ag58
ag58
ag58
ag58
ag58
ag58
ag58
ag58
ag58
ag58
ag58
ag58
ag58
asg59
(lp441
g64
ag61
ag66
ag152
ag61
ag66
ag63
ag151
ag152
ag153
ag64
ag150
ag61
aS'VBG'
p442
ag152
ag61
ag66
ag152
ag61
ag66
ag152
ag61
ag66
ag152
ag153
ag61
ag61
ag66
ag64
ag150
ag69
asg70
VLike an arrow, the pike darted away, and with him the herring, the gudgeon, the perch, the carp, and all the rest of them.
p443
sba(i__main__
Sentence
p444
(dp445
g17
I6
sg18
(lp446
S'Even'
p447
aS'the'
p448
aS'sole'
p449
aS'swam'
p450
aS'with'
p451
aS'them'
p452
aS','
p453
aS'and'
p454
aS'hoped'
p455
aS'to'
p456
aS'win'
p457
aS'the'
p458
aS'race'
p459
aS'.'
p460
asg37
(lp461
VEven
p462
aVthe
p463
aVsole
p464
aVswam
p465
aVwith
p466
aVthem
p467
ag122
aVand
p468
aVhop
p469
aVto
p470
aVwin
p471
aVthe
p472
aVrace
p473
ag55
asg56
(lp474
g58
ag58
ag58
ag58
ag58
ag58
ag58
ag58
ag58
ag58
ag58
ag58
ag58
ag58
asg59
(lp475
g151
ag61
ag65
ag66
ag64
ag150
ag152
ag153
ag63
ag154
ag156
ag61
ag66
ag69
asg70
VEven the sole swam with them, and hoped to win the race.
p476
sba(i__main__
Sentence
p477
(dp478
g17
I7
sg18
(lp479
S'All'
p480
aS'at'
p481
aS'once'
p482
aS','
p483
aS'the'
p484
aS'cry'
p485
aS'was'
p486
aS'heard'
p487
aS','
p488
aS'the'
p489
aS'herring'
p490
aS'is'
p491
aS'first'
p492
aS','
p493
aS'the'
p494
aS'herring'
p495
aS'is'
p496
aS'first'
p497
aS'.'
p498
asg37
(lp499
VAll
p500
aVat
p501
aVonce
p502
ag122
aVthe
p503
aVcry
p504
aVbe
p505
aVhear
p506
ag122
aVthe
p507
aVherring
p508
aVbe
p509
aVfirst
p510
ag122
aVthe
p511
aVherring
p512
ag509
aVfirst
p513
ag55
asg56
(lp514
g58
ag58
ag58
ag58
ag58
ag58
ag58
ag58
ag58
ag58
ag58
ag58
ag58
ag58
ag58
ag58
ag58
ag58
ag58
asg59
(lp515
g61
ag64
ag151
ag152
ag61
ag66
ag63
ag67
ag152
ag61
ag66
aS'VBZ'
p516
ag65
ag152
ag61
ag66
ag516
ag65
ag69
asg70
VAll at once, the cry was heard, the herring is first, the herring is first.
p517
sba(i__main__
Sentence
p518
(dp519
g17
I8
sg18
(lp520
S'Who'
p521
aS'is'
p522
aS'first'
p523
aS','
p524
aS'screamed'
p525
aS'angrily'
p526
aS'the'
p527
aS'flat'
p528
aS'envious'
p529
aS'sole'
p530
aS','
p531
aS'who'
p532
aS'had'
p533
aS'been'
p534
aS'left'
p535
aS'far'
p536
aS'behind'
p537
aS','
p538
aS'who'
p539
aS'is'
p540
aS'first'
p541
aS'.'
p542
asg37
(lp543
VWho
p544
ag509
aVfirst
p545
ag122
aVscream
p546
aVangrily
p547
aVthe
p548
aVflat
p549
aVenvious
p550
aVsole
p551
ag122
aVwho
p552
ag41
ag46
aVleave
p553
aVfar
p554
aVbehind
p555
ag122
aVwho
p556
ag509
aVfirst
p557
ag55
asg56
(lp558
g58
ag58
ag58
ag58
ag58
ag58
ag58
ag58
ag58
ag58
ag58
ag58
ag58
ag58
ag58
ag58
ag58
ag58
ag58
ag58
ag58
ag58
asg59
(lp559
g155
ag516
ag151
ag152
ag67
ag151
ag61
ag65
ag65
ag66
ag152
ag155
ag63
ag67
ag67
ag151
ag64
ag152
ag155
ag516
ag151
ag69
asg70
VWho is first, screamed angrily the flat envious sole, who had been left far behind,  who is first.
p560
sba(i__main__
Sentence
p561
(dp562
g17
I9
sg18
(lp563
S'The'
p564
aS'herring'
p565
aS','
p566
aS'the'
p567
aS'herring'
p568
aS','
p569
aS'was'
p570
aS'the'
p571
aS'answer'
p572
aS'.'
p573
asg37
(lp574
VThe
p575
aVherring
p576
ag122
aVthe
p577
aVherring
p578
ag122
ag505
aVthe
p579
aVanswer
p580
ag55
asg56
(lp581
g58
ag58
ag58
ag58
ag58
ag58
ag58
ag58
ag58
ag58
asg59
(lp582
g61
ag66
ag152
ag61
ag66
ag152
ag63
ag61
ag66
ag69
asg70
VThe herring, the herring, was the answer.
p583
sba(i__main__
Sentence
p584
(dp585
g17
I10
sg18
(lp586
S'The'
p587
aS'naked'
p588
aS'herring'
p589
aS','
p590
aS'cried'
p591
aS'the'
p592
aS'jealous'
p593
aS'creature'
p594
aS','
p595
aS'the'
p596
aS'naked'
p597
aS'herring'
p598
aS'.'
p599
asg37
(lp600
VThe
p601
aVnaked
p602
aVherring
p603
ag122
aVcried
p604
aVthe
p605
aVjealous
p606
aVcreature
p607
ag122
aVthe
p608
aVnaked
p609
aVherring
p610
ag55
asg56
(lp611
g58
ag58
ag58
ag58
ag58
ag58
ag58
ag58
ag58
ag58
ag58
ag58
ag58
asg59
(lp612
g61
ag67
ag442
ag152
ag65
ag61
ag65
ag66
ag152
ag61
ag67
ag442
ag69
asg70
VThe naked herring, cried the jealous creature, the naked herring.
p613
sba(i__main__
Sentence
p614
(dp615
g17
I11
sg18
(lp616
S'Since'
p617
aS'that'
p618
aS'time'
p619
aS'the'
p620
aS'sole'
p621
aS'has'
p622
aS'been'
p623
aS'punished'
p624
aS'by'
p625
aS'having'
p626
aS'been'
p627
aS'given'
p628
aS'a'
p629
aS'mouth'
p630
aS'on'
p631
aS'one'
p632
aS'side'
p633
aS'.'
p634
asg37
(lp635
VSince
p636
aVthat
p637
aVtime
p638
aVthe
p639
aVsole
p640
aVhave
p641
ag46
aVpunish
p642
aVby
p643
aVhaving
p644
ag46
aVgive
p645
ag43
aVmouth
p646
aVon
p647
aVone
p648
aVside
p649
ag55
asg56
(lp650
g58
ag58
ag58
ag58
ag58
ag58
ag58
ag58
ag58
ag58
ag58
ag58
ag58
ag58
ag58
ag58
ag58
ag58
asg59
(lp651
g64
ag61
ag66
ag61
ag65
ag516
ag67
ag67
ag64
ag66
ag67
ag67
ag61
ag66
ag64
ag215
ag66
ag69
asg70
VSince that time the sole has been punished by having been given a mouth on one side. 
p652
sbasbsS'summary'
p653
g0
(g7
g2
Ntp654
Rp655
(dp656
g11
S"The fish decide to have a race to see which fish is fastest. The fastest fish will be named the king of all fish. The herring wins the race. The sole cries out in jealousy and disbelief when the herring is announced the winner. Ever since that time, the sole has had it's mouth on one side as a punishment."
p657
sg13
(lp658
(i__main__
Sentence
p659
(dp660
g17
I0
sg18
(lp661
S'The'
p662
aS'fish'
p663
aS'decide'
p664
aS'to'
p665
aS'have'
p666
aS'a'
p667
aS'race'
p668
aS'to'
p669
aS'see'
p670
aS'which'
p671
aS'fish'
p672
aS'is'
p673
aS'fastest'
p674
aS'.'
p675
asg37
(lp676
VThe
p677
aVfish
p678
aVdecide
p679
aVto
p680
aVhave
p681
ag43
aVrace
p682
aVto
p683
aVsee
p684
aVwhich
p685
aVfish
p686
ag509
aVfast
p687
ag55
asg56
(lp688
g58
ag58
ag58
ag58
ag58
ag58
ag58
ag58
ag58
ag58
ag58
ag58
ag58
ag58
asg59
(lp689
g61
ag65
ag66
ag154
ag156
ag61
ag66
ag154
ag156
ag216
ag65
ag516
ag321
ag69
asg70
VThe fish decide to have a race to see which fish is fastest.
p690
sba(i__main__
Sentence
p691
(dp692
g17
I1
sg18
(lp693
S'The'
p694
aS'fastest'
p695
aS'fish'
p696
aS'will'
p697
aS'be'
p698
aS'named'
p699
aS'the'
p700
aS'king'
p701
aS'of'
p702
aS'all'
p703
aS'fish'
p704
aS'.'
p705
asg37
(lp706
VThe
p707
aVfast
p708
aVfish
p709
aVwill
p710
aVbe
p711
aVname
p712
aVthe
p713
aVking
p714
aVof
p715
aVall
p716
aVfish
p717
ag55
asg56
(lp718
g58
ag58
ag58
ag58
ag58
ag58
ag58
ag58
ag58
ag58
ag58
ag58
asg59
(lp719
g61
ag321
ag65
ag319
ag156
ag67
ag61
ag66
ag64
ag61
ag65
ag69
asg70
VThe fastest fish will be named the king of all fish.
p720
sba(i__main__
Sentence
p721
(dp722
g17
I2
sg18
(lp723
S'The'
p724
aS'herring'
p725
aS'wins'
p726
aS'the'
p727
aS'race'
p728
aS'.'
p729
asg37
(lp730
VThe
p731
aVherring
p732
aVwin
p733
aVthe
p734
aVrace
p735
ag55
asg56
(lp736
g58
ag58
ag58
ag58
ag58
ag58
asg59
(lp737
g61
ag66
ag516
ag61
ag66
ag69
asg70
VThe herring wins the race.
p738
sba(i__main__
Sentence
p739
(dp740
g17
I3
sg18
(lp741
S'The'
p742
aS'sole'
p743
aS'cries'
p744
aS'out'
p745
aS'in'
p746
aS'jealousy'
p747
aS'and'
p748
aS'disbelief'
p749
aS'when'
p750
aS'the'
p751
aS'herring'
p752
aS'is'
p753
aS'announced'
p754
aS'the'
p755
aS'winner'
p756
aS'.'
p757
asg37
(lp758
VThe
p759
aVsole
p760
aVcry
p761
aVout
p762
aVin
p763
aVjealousy
p764
aVand
p765
aVdisbelief
p766
aVwhen
p767
aVthe
p768
aVherring
p769
ag509
aVannounce
p770
aVthe
p771
aVwinner
p772
ag55
asg56
(lp773
g58
ag58
ag58
ag58
ag58
ag58
ag58
ag58
ag58
ag58
ag58
ag58
ag58
ag58
ag58
ag58
asg59
(lp774
g61
ag65
ag62
ag64
ag64
ag66
ag153
ag66
ag318
ag61
ag66
ag516
ag67
ag61
ag66
ag69
asg70
VThe sole cries out in jealousy and disbelief when the herring is announced the winner.
p775
sba(i__main__
Sentence
p776
(dp777
g17
I4
sg18
(lp778
S'Ever'
p779
aS'since'
p780
aS'that'
p781
aS'time'
p782
aS','
p783
aS'the'
p784
aS'sole'
p785
aS'has'
p786
aS'had'
p787
aS'it'
p788
aS"'s"
p789
aS'mouth'
p790
aS'on'
p791
aS'one'
p792
aS'side'
p793
aS'as'
p794
aS'a'
p795
aS'punishment'
p796
aS'.'
p797
asg37
(lp798
VEver
p799
aVsince
p800
aVthat
p801
aVtime
p802
ag122
aVthe
p803
aVsole
p804
ag641
ag41
aVit
p805
aV's
p806
aVmouth
p807
aVon
p808
aVone
p809
aVside
p810
ag43
ag43
aVpunishment
p811
ag55
asg56
(lp812
g58
ag58
ag58
ag58
ag58
ag58
ag58
ag58
ag58
ag58
ag58
ag58
ag58
ag58
ag58
ag58
ag58
ag58
ag58
asg59
(lp813
g151
ag64
ag61
ag66
ag152
ag61
ag65
ag516
ag67
ag150
ag516
ag65
ag64
ag215
ag66
ag64
ag61
ag66
ag69
asg70
VEver since that time, the sole has had it's mouth on one side as a punishment.
p814
sbasbsS'name'
p815
S'The Sole'
p816
sS'summaries'
p817
(lp818
g655
asb.