ccopy_reg
_reconstructor
p0
(c__main__
Story
p1
c__builtin__
object
p2
Ntp3
Rp4
(dp5
S'text'
p6
g0
(c__main__
Document
p7
g2
Ntp8
Rp9
(dp10
S'_Document__initialContent'
p11
S'At Denver there was an influx of passengers into the coaches on the eastbound B. & M. express. In one coach there sat a very pretty young woman dressed in elegant taste and surrounded by all the luxurious comforts of an experienced traveler. Among the newcomers were two young men, one of handsome presence with a bold, frank countenance and manner; the other a ruffled, glum-faced person, heavily built and roughly dressed. The two were handcuffed together.\n\n\n\nAs they passed down the aisle of the coach the only vacant seat offered was a reversed one facing the attractive young woman. Here the linked couple seated themselves. The young woman\'s glance fell upon them with a distant, swift disinterest; then with a lovely smile brightening her countenance and a tender pink tingeing her rounded cheeks, she held out a little gray-gloved hand. When she spoke her voice, full, sweet, and deliberate, proclaimed that its owner was accustomed to speak and be heard.\n\n\n\n"Well, Mr. Easton, if you will make me speak first, I suppose I must. Don\'t you ever recognize old friends when you meet them in the West?"\n\n\n\nThe younger man roused himself sharply at the sound of her voice, seemed to struggle with a slight embarrassment which he threw off instantly, and then clasped her fingers with his left hand.\n\n\n\n"It\'s Miss Fairchild," he said, with a smile. "I\'ll ask you to excuse the other hand; "it\'s otherwise engaged just at present."\n\n\n\nHe slightly raised his right hand, bound at the wrist by the shining "bracelet" to the left one of his companion. The glad look in the girl\'s eyes slowly changed to a bewildered horror. The glow faded from her cheeks. Her lips parted in a vague, relaxing distress. Easton, with a little laugh, as if amused, was about to speak again when the other forestalled him. The glum-faced man had been watching the girl\'s countenance with veiled glances from his keen, shrewd eyes.\n\n\n\n"You\'ll excuse me for speaking, miss, but, I see you\'re acquainted with the marshall here. If you\'ll ask him to speak a word for me when we get to the pen he\'ll do it, and it\'ll make things easier for me there. He\'s taking me to Leavenworth prison. It\'s seven years for counterfeiting."\n\n\n\n"Oh!" said the girl, with a deep breath and returning color. "So that is what you are doing out here? A marshal!"\n\n\n\n"My dear Miss Fairchild," said Easton, calmly, "I had to do something. Money has a way of taking wings unto itself, and you know it takes money to keep step with our crowd in Washington. I saw this opening in the West, and--well, a marshalship isn\'t quite as high a position as that of ambassador, but--"\n\n\n\n"The ambassador," said the girl, warmly, "doesn\'t call any more. He needn\'t ever have done so. You ought to know that. And so now you are one of these dashing Western heroes, and you ride and shoot and go into all kinds of dangers. That\'s different from the Washington life. You have been missed from the old crowd."\n\n\n\nThe girl\'s eyes, fascinated, went back, widening a little, to rest upon the glittering handcuffs.\n\n\n\n"Don\'t you worry about them, miss," said the other man. "All marshals handcuff themselves to their prisoners to keep them from getting away. Mr. Easton knows his business."\n\n\n\n"Will we see you again soon in Washington?" asked the girl.\n\n\n\n"Not soon, I think," said Easton. "My butterfly days are over, I fear."\n\n\n\n"I love the West," said the girl irrelevantly. Her eyes were shining softly. She looked away out the car window. She began to speak truly and simply without the gloss of style and manner: "Mamma and I spent the summer in Denver. She went home a week ago because father was slightly ill. I could live and be happy in the West. I think the air here agrees with me. Money isn\'t everything. But people always misunderstand things and remain stupid--"\n\n\n\n"Say, Mr. Marshal," growled the glum-faced man. "This isn\'t quite fair. I\'m needing a drink, and haven\'t had a smoke all day. Haven\'t you talked long enough? Take me in the smoker now, won\'t you? I\'m half dead for a pipe."\n\n\n\nThe bound travelers rose to their feet, Easton with the same slow smile on his face.\n\n\n\n"I can\'t deny a petition for tobacco," he said, lightly. "It\'s the one friend of the unfortunate. Good-bye, Miss Fairchild. Duty calls, you know." He held out his hand for a farewell.\n\n\n\n"It\'s too bad you are not going East," she said, reclothing herself with manner and style. "But you must go on to Leavenworth, I suppose?"\n\n\n\n"Yes," said Easton, "I must go on to Leavenworth."\n\n\n\nThe two men sidled down the aisle into the smoker.\n\n\n\nThe two passengers in a seat near by had heard most of the conversation. Said one of them: "That marshal\'s a good sort of chap. Some of these Western fellows are all right."\n\n\n\n"Pretty young to hold an office like that, isn\'t he?" asked the other.\n\n\n\n"Young!" exclaimed the first speaker, "why--Oh! didn\'t you catch on? Say--did you ever know an officer to handcuff a prisoner to his right hand?"'
p12
sS'sentences'
p13
(lp14
(i__main__
Sentence
p15
(dp16
S'index'
p17
I0
sS'words'
p18
(lp19
S'At'
p20
aS'Denver'
p21
aS'there'
p22
aS'was'
p23
aS'an'
p24
aS'influx'
p25
aS'of'
p26
aS'passengers'
p27
aS'into'
p28
aS'the'
p29
aS'coaches'
p30
aS'on'
p31
aS'the'
p32
aS'eastbound'
p33
aS'B'
p34
aS'.'
p35
asS'lemmas'
p36
(lp37
VAt
p38
aVDenver
p39
aVthere
p40
aVbe
p41
aVan
p42
aVinflux
p43
aVof
p44
aVpassenger
p45
aVinto
p46
aVthe
p47
aVcoach
p48
aVon
p49
aVthe
p50
aVeastbound
p51
aVB
p52
aV.
p53
asS'nerTags'
p54
(lp55
VO
p56
aVLOCATION
p57
ag56
ag56
ag56
ag56
ag56
ag56
ag56
ag56
ag56
ag56
ag56
ag56
ag56
ag56
asS'posTags'
p58
(lp59
S'IN'
p60
aS'NNP'
p61
aS'RB'
p62
aS'VBD'
p63
aS'DT'
p64
aS'NN'
p65
ag60
aS'NNS'
p66
ag60
ag64
ag66
ag60
ag64
ag65
ag61
aS'.'
p67
asS'_Sentence__initialContent'
p68
VAt Denver there was an influx of passengers into the coaches on the eastbound B.
p69
sba(i__main__
Sentence
p70
(dp71
g17
I1
sg18
(lp72
S'&'
p73
aS'M.'
p74
aS'express'
p75
aS'.'
p76
asg36
(lp77
V&
p78
aVM.
p79
aVexpress
p80
ag53
asg54
(lp81
g56
ag56
ag56
ag56
asg58
(lp82
S'CC'
p83
ag61
ag65
ag67
asg68
V& M. express.
p84
sba(i__main__
Sentence
p85
(dp86
g17
I2
sg18
(lp87
S'In'
p88
aS'one'
p89
aS'coach'
p90
aS'there'
p91
aS'sat'
p92
aS'a'
p93
aS'very'
p94
aS'pretty'
p95
aS'young'
p96
aS'woman'
p97
aS'dressed'
p98
aS'in'
p99
aS'elegant'
p100
aS'taste'
p101
aS'and'
p102
aS'surrounded'
p103
aS'by'
p104
aS'all'
p105
aS'the'
p106
aS'luxurious'
p107
aS'comforts'
p108
aS'of'
p109
aS'an'
p110
aS'experienced'
p111
aS'traveler'
p112
aS'.'
p113
asg36
(lp114
VIn
p115
aVone
p116
aVcoach
p117
aVthere
p118
aVsat
p119
aVa
p120
aVvery
p121
aVpretty
p122
aVyoung
p123
aVwoman
p124
aVdress
p125
aVin
p126
aVelegant
p127
aVtaste
p128
aVand
p129
aVsurround
p130
aVby
p131
aVall
p132
aVthe
p133
aVluxurious
p134
aVcomfort
p135
aVof
p136
aVan
p137
aVexperience
p138
aVtraveler
p139
ag53
asg54
(lp140
g56
ag56
ag56
ag56
ag56
ag56
ag56
ag56
ag56
ag56
ag56
ag56
ag56
ag56
ag56
ag56
ag56
ag56
ag56
ag56
ag56
ag56
ag56
ag56
ag56
ag56
asg58
(lp141
g60
aS'CD'
p142
ag65
ag62
aS'JJ'
p143
ag64
ag62
ag62
ag143
ag65
aS'VBN'
p144
ag60
ag143
ag65
ag83
ag63
ag60
ag64
ag64
ag143
ag66
ag60
ag64
ag144
ag65
ag67
asg68
VIn one coach there sat a very pretty young woman dressed in elegant taste and surrounded by all the luxurious comforts of an experienced traveler.
p145
sba(i__main__
Sentence
p146
(dp147
g17
I3
sg18
(lp148
S'Among'
p149
aS'the'
p150
aS'newcomers'
p151
aS'were'
p152
aS'two'
p153
aS'young'
p154
aS'men'
p155
aS','
p156
aS'one'
p157
aS'of'
p158
aS'handsome'
p159
aS'presence'
p160
aS'with'
p161
aS'a'
p162
aS'bold'
p163
aS','
p164
aS'frank'
p165
aS'countenance'
p166
aS'and'
p167
aS'manner'
p168
aS';'
p169
aS'the'
p170
aS'other'
p171
aS'a'
p172
aS'ruffled'
p173
aS','
p174
aS'glum-faced'
p175
aS'person'
p176
aS','
p177
aS'heavily'
p178
aS'built'
p179
aS'and'
p180
aS'roughly'
p181
aS'dressed'
p182
aS'.'
p183
asg36
(lp184
VAmong
p185
aVthe
p186
aVnewcomer
p187
aVbe
p188
aVtwo
p189
aVyoung
p190
aVmen
p191
aV,
p192
aVone
p193
aVof
p194
aVhandsome
p195
aVpresence
p196
aVwith
p197
ag120
aVbold
p198
ag192
aVfrank
p199
aVcountenance
p200
aVand
p201
aVmanner
p202
aV;
p203
aVthe
p204
aVother
p205
ag120
aVruffled
p206
ag192
aVglum-faced
p207
aVperson
p208
ag192
aVheavily
p209
aVbuild
p210
aVand
p211
aVroughly
p212
aVdress
p213
ag53
asg54
(lp214
g56
ag56
ag56
ag56
ag56
ag56
ag56
ag56
ag56
ag56
ag56
ag56
ag56
ag56
ag56
ag56
ag56
ag56
ag56
ag56
ag56
ag56
ag56
ag56
ag56
ag56
ag56
ag56
ag56
ag56
ag56
ag56
ag56
ag56
ag56
asg58
(lp215
g60
ag64
ag66
ag63
ag142
ag143
ag66
aS','
p216
ag142
ag60
ag65
ag65
ag60
ag64
ag143
ag216
ag65
ag65
ag83
ag65
aS':'
p217
ag64
ag143
ag64
ag143
ag216
ag143
ag65
ag216
ag62
ag144
ag83
ag62
ag144
ag67
asg68
VAmong the newcomers were two young men, one of handsome presence with a bold, frank countenance and manner; the other a ruffled, glum-faced person, heavily built and roughly dressed.
p218
sba(i__main__
Sentence
p219
(dp220
g17
I4
sg18
(lp221
S'The'
p222
aS'two'
p223
aS'were'
p224
aS'handcuffed'
p225
aS'together'
p226
aS'.'
p227
asg36
(lp228
VThe
p229
aVtwo
p230
ag188
aVhandcuff
p231
aVtogether
p232
ag53
asg54
(lp233
g56
ag56
ag56
ag56
ag56
ag56
asg58
(lp234
g64
ag142
ag63
ag144
aS'RP'
p235
ag67
asg68
VThe two were handcuffed together.
p236
sba(i__main__
Sentence
p237
(dp238
g17
I5
sg18
(lp239
S'As'
p240
aS'they'
p241
aS'passed'
p242
aS'down'
p243
aS'the'
p244
aS'aisle'
p245
aS'of'
p246
aS'the'
p247
aS'coach'
p248
aS'the'
p249
aS'only'
p250
aS'vacant'
p251
aS'seat'
p252
aS'offered'
p253
aS'was'
p254
aS'a'
p255
aS'reversed'
p256
aS'one'
p257
aS'facing'
p258
aS'the'
p259
aS'attractive'
p260
aS'young'
p261
aS'woman'
p262
aS'.'
p263
asg36
(lp264
VAs
p265
aVthey
p266
aVpass
p267
aVdown
p268
aVthe
p269
aVaisle
p270
aVof
p271
aVthe
p272
aVcoach
p273
aVthe
p274
aVonly
p275
aVvacant
p276
aVseat
p277
aVoffer
p278
ag41
ag120
aVreverse
p279
aVone
p280
aVface
p281
aVthe
p282
aVattractive
p283
aVyoung
p284
aVwoman
p285
ag53
asg54
(lp286
g56
ag56
ag56
ag56
ag56
ag56
ag56
ag56
ag56
ag56
ag56
ag56
ag56
ag56
ag56
ag56
ag56
ag56
ag56
ag56
ag56
ag56
ag56
ag56
asg58
(lp287
g60
aS'PRP'
p288
ag63
ag235
ag64
ag65
ag60
ag64
ag65
ag64
ag143
ag65
ag65
ag63
ag63
ag64
ag144
ag142
aS'VBG'
p289
ag64
ag143
ag143
ag65
ag67
asg68
VAs they passed down the aisle of the coach the only vacant seat offered was a reversed one facing the attractive young woman.
p290
sba(i__main__
Sentence
p291
(dp292
g17
I6
sg18
(lp293
S'Here'
p294
aS'the'
p295
aS'linked'
p296
aS'couple'
p297
aS'seated'
p298
aS'themselves'
p299
aS'.'
p300
asg36
(lp301
VHere
p302
aVthe
p303
aVlink
p304
aVcouple
p305
aVseat
p306
aVthemselves
p307
ag53
asg54
(lp308
g56
ag56
ag56
ag56
ag56
ag56
ag56
asg58
(lp309
g62
ag64
ag144
ag65
ag144
ag288
ag67
asg68
VHere the linked couple seated themselves.
p310
sba(i__main__
Sentence
p311
(dp312
g17
I7
sg18
(lp313
S'The'
p314
aS'young'
p315
aS'woman'
p316
aS"'s"
p317
aS'glance'
p318
aS'fell'
p319
aS'upon'
p320
aS'them'
p321
aS'with'
p322
aS'a'
p323
aS'distant'
p324
aS','
p325
aS'swift'
p326
aS'disinterest'
p327
aS';'
p328
aS'then'
p329
aS'with'
p330
aS'a'
p331
aS'lovely'
p332
aS'smile'
p333
aS'brightening'
p334
aS'her'
p335
aS'countenance'
p336
aS'and'
p337
aS'a'
p338
aS'tender'
p339
aS'pink'
p340
aS'tingeing'
p341
aS'her'
p342
aS'rounded'
p343
aS'cheeks'
p344
aS','
p345
aS'she'
p346
aS'held'
p347
aS'out'
p348
aS'a'
p349
aS'little'
p350
aS'gray-gloved'
p351
aS'hand'
p352
aS'.'
p353
asg36
(lp354
VThe
p355
aVyoung
p356
aVwoman
p357
aV's
p358
aVglance
p359
aVfell
p360
aVupon
p361
aVthem
p362
aVwith
p363
ag120
aVdistant
p364
ag192
aVswift
p365
aVdisinterest
p366
ag203
aVthen
p367
aVwith
p368
ag120
aVlovely
p369
aVsmile
p370
aVbrightening
p371
aVher
p372
aVcountenance
p373
aVand
p374
ag120
aVtender
p375
aVpink
p376
aVtinge
p377
aVher
p378
aVround
p379
aVcheek
p380
ag192
aVshe
p381
aVhold
p382
aVout
p383
ag120
aVlittle
p384
aVgray-gloved
p385
aVhand
p386
ag53
asg54
(lp387
g56
ag56
ag56
ag56
ag56
ag56
ag56
ag56
ag56
ag56
ag56
ag56
ag56
ag56
ag56
ag56
ag56
ag56
ag56
ag56
ag56
ag56
ag56
ag56
ag56
ag56
ag56
ag56
ag56
ag56
ag56
ag56
ag56
ag56
ag56
ag56
ag56
ag56
ag56
ag56
asg58
(lp388
g64
ag143
ag65
aS'POS'
p389
ag65
ag63
ag60
ag288
ag60
ag64
ag143
ag216
ag65
ag65
ag217
ag62
ag60
ag64
ag62
ag143
ag65
ag288
ag65
ag83
ag64
ag65
ag65
ag289
ag288
ag63
ag66
ag216
ag288
ag63
ag235
ag64
ag62
ag143
ag65
ag67
asg68
VThe young woman's glance fell upon them with a distant, swift disinterest; then with a lovely smile brightening her countenance and a tender pink tingeing her rounded cheeks, she held out a little gray-gloved hand.
p390
sba(i__main__
Sentence
p391
(dp392
g17
I8
sg18
(lp393
S'When'
p394
aS'she'
p395
aS'spoke'
p396
aS'her'
p397
aS'voice'
p398
aS','
p399
aS'full'
p400
aS','
p401
aS'sweet'
p402
aS','
p403
aS'and'
p404
aS'deliberate'
p405
aS','
p406
aS'proclaimed'
p407
aS'that'
p408
aS'its'
p409
aS'owner'
p410
aS'was'
p411
aS'accustomed'
p412
aS'to'
p413
aS'speak'
p414
aS'and'
p415
aS'be'
p416
aS'heard'
p417
aS'.'
p418
asg36
(lp419
VWhen
p420
aVshe
p421
aVspeak
p422
aVher
p423
aVvoice
p424
ag192
aVfull
p425
ag192
aVsweet
p426
ag192
aVand
p427
aVdeliberate
p428
ag192
aVproclaim
p429
aVthat
p430
aVit
p431
aVowner
p432
ag41
aVaccustom
p433
aVto
p434
aVspeak
p435
aVand
p436
aVbe
p437
aVhear
p438
ag53
asg54
(lp439
g56
ag56
ag56
ag56
ag56
ag56
ag56
ag56
ag56
ag56
ag56
ag56
ag56
ag56
ag56
ag56
ag56
ag56
ag56
ag56
ag56
ag56
ag56
ag56
ag56
asg58
(lp440
S'WRB'
p441
ag288
aS'VBP'
p442
aS'PRP$'
p443
ag65
ag216
ag143
ag216
ag143
ag216
ag83
aS'VB'
p444
ag216
ag144
ag60
ag443
ag65
ag63
ag144
aS'TO'
p445
ag444
ag83
ag444
ag144
ag67
asg68
VWhen she spoke her voice, full, sweet, and deliberate, proclaimed that its owner was accustomed to speak and be heard.
p446
sba(i__main__
Sentence
p447
(dp448
g17
I9
sg18
(lp449
S'``'
p450
aS'Well'
p451
aS','
p452
aS'Mr.'
p453
aS'Easton'
p454
aS','
p455
aS'if'
p456
aS'you'
p457
aS'will'
p458
aS'make'
p459
aS'me'
p460
aS'speak'
p461
aS'first'
p462
aS','
p463
aS'I'
p464
aS'suppose'
p465
aS'I'
p466
aS'must'
p467
aS'.'
p468
asg36
(lp469
V``
p470
aVWell
p471
ag192
aVMr.
p472
aVEaston
p473
ag192
aVif
p474
aVyou
p475
aVwill
p476
aVmake
p477
aVme
p478
aVspeak
p479
aVfirst
p480
ag192
aVI
p481
aVsuppose
p482
ag481
aVmust
p483
ag53
asg54
(lp484
g56
ag56
ag56
ag56
aVPERSON
p485
ag56
ag56
ag56
ag56
ag56
ag56
ag56
ag56
ag56
ag56
ag56
ag56
ag56
ag56
asg58
(lp486
S'``'
p487
ag61
ag216
ag61
ag61
ag216
ag60
ag288
aS'MD'
p488
ag444
ag288
ag444
ag143
ag216
ag288
ag442
ag288
ag488
ag67
asg68
V"Well, Mr. Easton, if you will make me speak first, I suppose I must.
p489
sba(i__main__
Sentence
p490
(dp491
g17
I10
sg18
(lp492
S'Do'
p493
aS"n't"
p494
aS'you'
p495
aS'ever'
p496
aS'recognize'
p497
aS'old'
p498
aS'friends'
p499
aS'when'
p500
aS'you'
p501
aS'meet'
p502
aS'them'
p503
aS'in'
p504
aS'the'
p505
aS'West'
p506
aS'?'
p507
aS"''"
p508
asg36
(lp509
VDo
p510
aVn't
p511
aVyou
p512
aVever
p513
aVrecognize
p514
aVold
p515
aVfriend
p516
aVwhen
p517
aVyou
p518
aVmeet
p519
aVthem
p520
aVin
p521
aVthe
p522
aVWest
p523
aV?
p524
aV''
p525
asg54
(lp526
g56
ag56
ag56
ag56
ag56
ag56
ag56
ag56
ag56
ag56
ag56
ag56
ag56
ag56
ag56
ag56
asg58
(lp527
g61
ag62
ag288
ag62
ag442
ag143
ag66
ag441
ag288
ag442
ag288
ag60
ag64
ag65
ag67
aS"''"
p528
asg68
VDon't you ever recognize old friends when you meet them in the West?"
p529
sba(i__main__
Sentence
p530
(dp531
g17
I11
sg18
(lp532
S'The'
p533
aS'younger'
p534
aS'man'
p535
aS'roused'
p536
aS'himself'
p537
aS'sharply'
p538
aS'at'
p539
aS'the'
p540
aS'sound'
p541
aS'of'
p542
aS'her'
p543
aS'voice'
p544
aS','
p545
aS'seemed'
p546
aS'to'
p547
aS'struggle'
p548
aS'with'
p549
aS'a'
p550
aS'slight'
p551
aS'embarrassment'
p552
aS'which'
p553
aS'he'
p554
aS'threw'
p555
aS'off'
p556
aS'instantly'
p557
aS','
p558
aS'and'
p559
aS'then'
p560
aS'clasped'
p561
aS'her'
p562
aS'fingers'
p563
aS'with'
p564
aS'his'
p565
aS'left'
p566
aS'hand'
p567
aS'.'
p568
asg36
(lp569
VThe
p570
aVyoung
p571
aVman
p572
aVrouse
p573
aVhimself
p574
aVsharply
p575
aVat
p576
aVthe
p577
aVsound
p578
aVof
p579
aVher
p580
aVvoice
p581
ag192
aVseem
p582
aVto
p583
aVstruggle
p584
aVwith
p585
ag120
aVslight
p586
aVembarrassment
p587
aVwhich
p588
aVhe
p589
aVthrow
p590
aVoff
p591
aVinstantly
p592
ag192
aVand
p593
aVthen
p594
aVclasp
p595
aVher
p596
aVfinger
p597
aVwith
p598
aVhis
p599
aVleave
p600
aVhand
p601
ag53
asg54
(lp602
g56
ag56
ag56
ag56
ag56
ag56
ag56
ag56
ag56
ag56
ag56
ag56
ag56
ag56
ag56
ag56
ag56
ag56
ag56
ag56
ag56
ag56
ag56
ag56
ag56
ag56
ag56
ag56
ag56
ag56
ag56
ag56
ag56
ag56
ag56
ag56
asg58
(lp603
g64
aS'JJR'
p604
ag65
ag63
ag288
ag62
ag60
ag64
ag65
ag60
ag443
ag65
ag216
ag63
ag445
ag444
ag60
ag64
ag65
ag65
aS'WDT'
p605
ag288
ag63
ag235
ag62
ag216
ag83
ag62
ag63
ag288
ag66
ag60
ag443
ag144
ag65
ag67
asg68
VThe younger man roused himself sharply at the sound of her voice, seemed to struggle with a slight embarrassment which he threw off instantly, and then clasped her fingers with his left hand.
p606
sba(i__main__
Sentence
p607
(dp608
g17
I12
sg18
(lp609
S'``'
p610
aS'It'
p611
aS"'s"
p612
aS'Miss'
p613
aS'Fairchild'
p614
aS','
p615
aS"''"
p616
aS'he'
p617
aS'said'
p618
aS','
p619
aS'with'
p620
aS'a'
p621
aS'smile'
p622
aS'.'
p623
asg36
(lp624
V``
p625
aVIt
p626
aV's
p627
aVMiss
p628
aVFairchild
p629
ag192
aV''
p630
aVhe
p631
aVsay
p632
ag192
aVwith
p633
ag120
aVsmile
p634
ag53
asg54
(lp635
g56
ag56
ag56
ag56
ag56
ag56
ag56
ag56
ag56
ag56
ag56
ag56
ag56
ag56
asg58
(lp636
g487
ag288
aS'VBZ'
p637
ag61
ag61
ag216
ag528
ag288
ag63
ag216
ag60
ag64
ag143
ag67
asg68
V"It's Miss Fairchild," he said, with a smile.
p638
sba(i__main__
Sentence
p639
(dp640
g17
I13
sg18
(lp641
S'``'
p642
aS'I'
p643
aS"'ll"
p644
aS'ask'
p645
aS'you'
p646
aS'to'
p647
aS'excuse'
p648
aS'the'
p649
aS'other'
p650
aS'hand'
p651
aS';'
p652
aS'``'
p653
aS'it'
p654
aS"'s"
p655
aS'otherwise'
p656
aS'engaged'
p657
aS'just'
p658
aS'at'
p659
aS'present'
p660
aS'.'
p661
aS"''"
p662
asg36
(lp663
V``
p664
ag481
aV'll
p665
aVask
p666
aVyou
p667
aVto
p668
aVexcuse
p669
aVthe
p670
aVother
p671
aVhand
p672
ag203
aV``
p673
aVit
p674
aV's
p675
aVotherwise
p676
aVengage
p677
aVjust
p678
aVat
p679
aVpresent
p680
ag53
aV''
p681
asg54
(lp682
g56
ag56
ag56
ag56
ag56
ag56
ag56
ag56
ag56
ag56
ag56
ag56
ag56
ag56
ag56
ag56
ag56
ag56
ag56
ag56
ag56
asg58
(lp683
g487
ag288
ag488
ag444
ag288
ag445
ag444
ag64
ag143
ag65
ag217
ag487
ag288
ag637
ag62
ag144
ag62
ag60
ag143
ag67
ag528
asg68
V"I'll ask you to excuse the other hand; "it's otherwise engaged just at present."
p684
sba(i__main__
Sentence
p685
(dp686
g17
I14
sg18
(lp687
S'He'
p688
aS'slightly'
p689
aS'raised'
p690
aS'his'
p691
aS'right'
p692
aS'hand'
p693
aS','
p694
aS'bound'
p695
aS'at'
p696
aS'the'
p697
aS'wrist'
p698
aS'by'
p699
aS'the'
p700
aS'shining'
p701
aS'``'
p702
aS'bracelet'
p703
aS"''"
p704
aS'to'
p705
aS'the'
p706
aS'left'
p707
aS'one'
p708
aS'of'
p709
aS'his'
p710
aS'companion'
p711
aS'.'
p712
asg36
(lp713
VHe
p714
aVslightly
p715
aVraise
p716
aVhis
p717
aVright
p718
aVhand
p719
ag192
aVbound
p720
aVat
p721
aVthe
p722
aVwrist
p723
aVby
p724
aVthe
p725
aVshin
p726
aV``
p727
aVbracelet
p728
aV''
p729
aVto
p730
aVthe
p731
aVleft
p732
aVone
p733
aVof
p734
aVhis
p735
aVcompanion
p736
ag53
asg54
(lp737
g56
ag56
ag56
ag56
ag56
ag56
ag56
ag56
ag56
ag56
ag56
ag56
ag56
ag56
ag56
ag56
ag56
ag56
ag56
ag56
ag56
ag56
ag56
ag56
ag56
asg58
(lp738
g288
ag62
ag63
ag443
ag65
ag65
ag216
ag65
ag60
ag64
ag65
ag60
ag64
ag289
ag487
ag65
ag528
ag445
ag64
ag65
ag142
ag60
ag443
ag65
ag67
asg68
VHe slightly raised his right hand, bound at the wrist by the shining "bracelet" to the left one of his companion.
p739
sba(i__main__
Sentence
p740
(dp741
g17
I15
sg18
(lp742
S'The'
p743
aS'glad'
p744
aS'look'
p745
aS'in'
p746
aS'the'
p747
aS'girl'
p748
aS"'s"
p749
aS'eyes'
p750
aS'slowly'
p751
aS'changed'
p752
aS'to'
p753
aS'a'
p754
aS'bewildered'
p755
aS'horror'
p756
aS'.'
p757
asg36
(lp758
VThe
p759
aVglad
p760
aVlook
p761
aVin
p762
aVthe
p763
aVgirl
p764
aV's
p765
aVeye
p766
aVslowly
p767
aVchange
p768
aVto
p769
ag120
aVbewilder
p770
aVhorror
p771
ag53
asg54
(lp772
g56
ag56
ag56
ag56
ag56
ag56
ag56
ag56
ag56
ag56
ag56
ag56
ag56
ag56
ag56
asg58
(lp773
g64
ag65
ag65
ag60
ag64
ag65
ag389
ag66
ag62
ag144
ag445
ag64
ag144
ag65
ag67
asg68
VThe glad look in the girl's eyes slowly changed to a bewildered horror.
p774
sba(i__main__
Sentence
p775
(dp776
g17
I16
sg18
(lp777
S'The'
p778
aS'glow'
p779
aS'faded'
p780
aS'from'
p781
aS'her'
p782
aS'cheeks'
p783
aS'.'
p784
asg36
(lp785
VThe
p786
aVglow
p787
aVfade
p788
aVfrom
p789
aVher
p790
aVcheek
p791
ag53
asg54
(lp792
g56
ag56
ag56
ag56
ag56
ag56
ag56
asg58
(lp793
g64
ag65
ag63
ag60
ag443
ag66
ag67
asg68
VThe glow faded from her cheeks.
p794
sba(i__main__
Sentence
p795
(dp796
g17
I17
sg18
(lp797
S'Her'
p798
aS'lips'
p799
aS'parted'
p800
aS'in'
p801
aS'a'
p802
aS'vague'
p803
aS','
p804
aS'relaxing'
p805
aS'distress'
p806
aS'.'
p807
asg36
(lp808
VHer
p809
aVlip
p810
aVpart
p811
aVin
p812
ag120
aVvague
p813
ag192
aVrelax
p814
aVdistress
p815
ag53
asg54
(lp816
g56
ag56
ag56
ag56
ag56
ag56
ag56
ag56
ag56
ag56
asg58
(lp817
g443
ag66
ag144
ag60
ag64
ag65
ag216
ag289
ag65
ag67
asg68
VHer lips parted in a vague, relaxing distress.
p818
sba(i__main__
Sentence
p819
(dp820
g17
I18
sg18
(lp821
S'Easton'
p822
aS','
p823
aS'with'
p824
aS'a'
p825
aS'little'
p826
aS'laugh'
p827
aS','
p828
aS'as'
p829
aS'if'
p830
aS'amused'
p831
aS','
p832
aS'was'
p833
aS'about'
p834
aS'to'
p835
aS'speak'
p836
aS'again'
p837
aS'when'
p838
aS'the'
p839
aS'other'
p840
aS'forestalled'
p841
aS'him'
p842
aS'.'
p843
asg36
(lp844
VEaston
p845
ag192
aVwith
p846
ag120
aVlittle
p847
aVlaugh
p848
ag192
ag120
aVif
p849
aVamuse
p850
ag192
ag41
aVabout
p851
aVto
p852
aVspeak
p853
aVagain
p854
aVwhen
p855
aVthe
p856
aVother
p857
aVforestalled
p858
aVhim
p859
ag53
asg54
(lp860
VPERSON
p861
ag56
ag56
ag56
ag56
ag56
ag56
ag56
ag56
ag56
ag56
ag56
ag56
ag56
ag56
ag56
ag56
ag56
ag56
ag56
ag56
ag56
asg58
(lp862
g61
ag216
ag60
ag64
ag62
ag143
ag216
ag60
ag60
ag144
ag216
ag63
ag62
ag445
ag444
ag62
ag441
ag64
ag143
ag143
ag288
ag67
asg68
VEaston, with a little laugh, as if amused, was about to speak again when the other forestalled him.
p863
sba(i__main__
Sentence
p864
(dp865
g17
I19
sg18
(lp866
S'The'
p867
aS'glum-faced'
p868
aS'man'
p869
aS'had'
p870
aS'been'
p871
aS'watching'
p872
aS'the'
p873
aS'girl'
p874
aS"'s"
p875
aS'countenance'
p876
aS'with'
p877
aS'veiled'
p878
aS'glances'
p879
aS'from'
p880
aS'his'
p881
aS'keen'
p882
aS','
p883
aS'shrewd'
p884
aS'eyes'
p885
aS'.'
p886
asg36
(lp887
VThe
p888
aVglum-faced
p889
aVman
p890
aVhave
p891
aVbe
p892
aVwatch
p893
aVthe
p894
aVgirl
p895
aV's
p896
aVcountenance
p897
aVwith
p898
aVveiled
p899
aVglance
p900
aVfrom
p901
aVhis
p902
aVkeen
p903
ag192
aVshrewd
p904
aVeye
p905
ag53
asg54
(lp906
g56
ag56
ag56
ag56
ag56
ag56
ag56
ag56
ag56
ag56
ag56
ag56
ag56
ag56
ag56
ag56
ag56
ag56
ag56
ag56
asg58
(lp907
g64
ag143
ag65
ag63
ag144
ag289
ag64
ag65
ag389
ag65
ag60
ag143
ag66
ag60
ag443
ag65
ag216
ag65
ag66
ag67
asg68
VThe glum-faced man had been watching the girl's countenance with veiled glances from his keen, shrewd eyes.
p908
sba(i__main__
Sentence
p909
(dp910
g17
I20
sg18
(lp911
S'``'
p912
aS'You'
p913
aS"'ll"
p914
aS'excuse'
p915
aS'me'
p916
aS'for'
p917
aS'speaking'
p918
aS','
p919
aS'miss'
p920
aS','
p921
aS'but'
p922
aS','
p923
aS'I'
p924
aS'see'
p925
aS'you'
p926
aS"'re"
p927
aS'acquainted'
p928
aS'with'
p929
aS'the'
p930
aS'marshall'
p931
aS'here'
p932
aS'.'
p933
asg36
(lp934
V``
p935
aVYou
p936
aV'll
p937
aVexcuse
p938
aVme
p939
aVfor
p940
aVspeak
p941
ag192
aVmiss
p942
ag192
aVbut
p943
ag192
ag481
aVsee
p944
aVyou
p945
aV're
p946
aVacquaint
p947
aVwith
p948
aVthe
p949
aVmarshall
p950
aVhere
p951
ag53
asg54
(lp952
g56
ag56
ag56
ag56
ag56
ag56
ag56
ag56
ag56
ag56
ag56
ag56
ag56
ag56
ag56
ag56
ag56
ag56
ag56
ag56
ag56
ag56
asg58
(lp953
g487
ag288
ag488
ag444
ag288
ag60
ag289
ag216
ag143
ag216
ag83
ag216
ag288
ag442
ag288
ag442
ag144
ag60
ag64
ag65
ag62
ag67
asg68
V"You'll excuse me for speaking, miss, but, I see you're acquainted with the marshall here.
p954
sba(i__main__
Sentence
p955
(dp956
g17
I21
sg18
(lp957
S'If'
p958
aS'you'
p959
aS"'ll"
p960
aS'ask'
p961
aS'him'
p962
aS'to'
p963
aS'speak'
p964
aS'a'
p965
aS'word'
p966
aS'for'
p967
aS'me'
p968
aS'when'
p969
aS'we'
p970
aS'get'
p971
aS'to'
p972
aS'the'
p973
aS'pen'
p974
aS'he'
p975
aS"'ll"
p976
aS'do'
p977
aS'it'
p978
aS','
p979
aS'and'
p980
aS'it'
p981
aS"'ll"
p982
aS'make'
p983
aS'things'
p984
aS'easier'
p985
aS'for'
p986
aS'me'
p987
aS'there'
p988
aS'.'
p989
asg36
(lp990
VIf
p991
aVyou
p992
aV'll
p993
aVask
p994
aVhim
p995
aVto
p996
aVspeak
p997
ag120
aVword
p998
aVfor
p999
aVme
p1000
aVwhen
p1001
aVwe
p1002
aVget
p1003
aVto
p1004
aVthe
p1005
aVpen
p1006
aVhe
p1007
aV'll
p1008
aVdo
p1009
aVit
p1010
ag192
aVand
p1011
aVit
p1012
aV'll
p1013
aVmake
p1014
aVthing
p1015
aVeasy
p1016
aVfor
p1017
aVme
p1018
aVthere
p1019
ag53
asg54
(lp1020
g56
ag56
ag56
ag56
ag56
ag56
ag56
ag56
ag56
ag56
ag56
ag56
ag56
ag56
ag56
ag56
ag56
ag56
ag56
ag56
ag56
ag56
ag56
ag56
ag56
ag56
ag56
ag56
ag56
ag56
ag56
ag56
asg58
(lp1021
g60
ag288
ag488
ag444
ag288
ag445
ag444
ag64
ag65
ag60
ag288
ag441
ag288
ag442
ag445
ag64
ag65
ag288
ag488
ag444
ag288
ag216
ag83
ag288
ag488
ag444
ag66
ag604
ag60
ag288
aS'EX'
p1022
ag67
asg68
VIf you'll ask him to speak a word for me when we get to the pen he'll do it, and it'll make things easier for me there.
p1023
sba(i__main__
Sentence
p1024
(dp1025
g17
I22
sg18
(lp1026
S'He'
p1027
aS"'s"
p1028
aS'taking'
p1029
aS'me'
p1030
aS'to'
p1031
aS'Leavenworth'
p1032
aS'prison'
p1033
aS'.'
p1034
asg36
(lp1035
VHe
p1036
aV's
p1037
aVtake
p1038
aVme
p1039
aVto
p1040
aVLeavenworth
p1041
aVprison
p1042
ag53
asg54
(lp1043
g56
ag56
ag56
ag56
ag56
aVLOCATION
p1044
ag56
ag56
asg58
(lp1045
g288
ag637
ag289
ag288
ag445
ag61
ag65
ag67
asg68
VHe's taking me to Leavenworth prison.
p1046
sba(i__main__
Sentence
p1047
(dp1048
g17
I23
sg18
(lp1049
S'It'
p1050
aS"'s"
p1051
aS'seven'
p1052
aS'years'
p1053
aS'for'
p1054
aS'counterfeiting'
p1055
aS'.'
p1056
aS"''"
p1057
asg36
(lp1058
VIt
p1059
aV's
p1060
aVseven
p1061
aVyear
p1062
aVfor
p1063
aVcounterfeit
p1064
ag53
aV''
p1065
asg54
(lp1066
g56
ag56
ag56
ag56
ag56
ag56
ag56
ag56
asg58
(lp1067
g288
ag637
ag142
ag66
ag60
ag289
ag67
ag528
asg68
VIt's seven years for counterfeiting."
p1068
sba(i__main__
Sentence
p1069
(dp1070
g17
I24
sg18
(lp1071
S'``'
p1072
aS'Oh'
p1073
aS'!'
p1074
aS"''"
p1075
asg36
(lp1076
V``
p1077
aVOh
p1078
aV!
p1079
aV''
p1080
asg54
(lp1081
g56
ag56
ag56
ag56
asg58
(lp1082
g487
aS'UH'
p1083
ag67
ag528
asg68
V"Oh!"
p1084
sba(i__main__
Sentence
p1085
(dp1086
g17
I25
sg18
(lp1087
S'said'
p1088
aS'the'
p1089
aS'girl'
p1090
aS','
p1091
aS'with'
p1092
aS'a'
p1093
aS'deep'
p1094
aS'breath'
p1095
aS'and'
p1096
aS'returning'
p1097
aS'color'
p1098
aS'.'
p1099
asg36
(lp1100
g632
aVthe
p1101
aVgirl
p1102
ag192
aVwith
p1103
ag120
aVdeep
p1104
aVbreath
p1105
aVand
p1106
aVreturn
p1107
aVcolor
p1108
ag53
asg54
(lp1109
g56
ag56
ag56
ag56
ag56
ag56
ag56
ag56
ag56
ag56
ag56
ag56
asg58
(lp1110
g63
ag64
ag65
ag216
ag60
ag64
ag65
ag65
ag83
ag289
ag65
ag67
asg68
Vsaid the girl, with a deep breath and returning color.
p1111
sba(i__main__
Sentence
p1112
(dp1113
g17
I26
sg18
(lp1114
S'``'
p1115
aS'So'
p1116
aS'that'
p1117
aS'is'
p1118
aS'what'
p1119
aS'you'
p1120
aS'are'
p1121
aS'doing'
p1122
aS'out'
p1123
aS'here'
p1124
aS'?'
p1125
asg36
(lp1126
V``
p1127
aVSo
p1128
aVthat
p1129
aVbe
p1130
aVwhat
p1131
aVyou
p1132
aVbe
p1133
aVdo
p1134
aVout
p1135
aVhere
p1136
ag524
asg54
(lp1137
g56
ag56
ag56
ag56
ag56
ag56
ag56
ag56
ag56
ag56
ag56
asg58
(lp1138
g487
ag62
ag60
ag637
aS'WP'
p1139
ag288
ag442
ag289
ag235
ag62
ag67
asg68
V"So that is what you are doing out here?
p1140
sba(i__main__
Sentence
p1141
(dp1142
g17
I27
sg18
(lp1143
S'A'
p1144
aS'marshal'
p1145
aS'!'
p1146
aS"''"
p1147
asg36
(lp1148
VA
p1149
aVmarshal
p1150
ag1079
aV''
p1151
asg54
(lp1152
g56
ag56
ag56
ag56
asg58
(lp1153
g64
ag143
ag67
ag528
asg68
VA marshal!"
p1154
sba(i__main__
Sentence
p1155
(dp1156
g17
I28
sg18
(lp1157
S'``'
p1158
aS'My'
p1159
aS'dear'
p1160
aS'Miss'
p1161
aS'Fairchild'
p1162
aS','
p1163
aS"''"
p1164
aS'said'
p1165
aS'Easton'
p1166
aS','
p1167
aS'calmly'
p1168
aS','
p1169
aS'``'
p1170
aS'I'
p1171
aS'had'
p1172
aS'to'
p1173
aS'do'
p1174
aS'something'
p1175
aS'.'
p1176
asg36
(lp1177
V``
p1178
aVMy
p1179
aVdear
p1180
aVMiss
p1181
aVFairchild
p1182
ag192
aV''
p1183
ag632
aVEaston
p1184
ag192
aVcalmly
p1185
ag192
aV``
p1186
ag481
ag891
aVto
p1187
aVdo
p1188
aVsomething
p1189
ag53
asg54
(lp1190
g56
ag56
ag56
ag56
ag56
ag56
ag56
ag56
aVPERSON
p1191
ag56
ag56
ag56
ag56
ag56
ag56
ag56
ag56
ag56
ag56
asg58
(lp1192
g487
ag443
ag65
ag61
ag61
ag216
ag528
ag63
ag61
ag216
ag62
ag216
ag487
ag288
ag63
ag445
ag444
ag65
ag67
asg68
V"My dear Miss Fairchild," said Easton, calmly, "I had to do something.
p1193
sba(i__main__
Sentence
p1194
(dp1195
g17
I29
sg18
(lp1196
S'Money'
p1197
aS'has'
p1198
aS'a'
p1199
aS'way'
p1200
aS'of'
p1201
aS'taking'
p1202
aS'wings'
p1203
aS'unto'
p1204
aS'itself'
p1205
aS','
p1206
aS'and'
p1207
aS'you'
p1208
aS'know'
p1209
aS'it'
p1210
aS'takes'
p1211
aS'money'
p1212
aS'to'
p1213
aS'keep'
p1214
aS'step'
p1215
aS'with'
p1216
aS'our'
p1217
aS'crowd'
p1218
aS'in'
p1219
aS'Washington'
p1220
aS'.'
p1221
asg36
(lp1222
VMoney
p1223
aVhave
p1224
ag120
aVway
p1225
aVof
p1226
aVtake
p1227
aVwing
p1228
aVunto
p1229
aVitself
p1230
ag192
aVand
p1231
aVyou
p1232
aVknow
p1233
aVit
p1234
aVtake
p1235
aVmoney
p1236
aVto
p1237
aVkeep
p1238
aVstep
p1239
aVwith
p1240
aVour
p1241
aVcrowd
p1242
aVin
p1243
aVWashington
p1244
ag53
asg54
(lp1245
g56
ag56
ag56
ag56
ag56
ag56
ag56
ag56
ag56
ag56
ag56
ag56
ag56
ag56
ag56
ag56
ag56
ag56
ag56
ag56
ag56
ag56
ag56
aVLOCATION
p1246
ag56
asg58
(lp1247
g65
ag637
ag64
ag65
ag60
ag289
ag66
ag60
ag288
ag216
ag83
ag288
ag442
ag288
ag637
ag65
ag445
ag444
ag65
ag60
ag443
ag65
ag60
ag61
ag67
asg68
VMoney has a way of taking wings unto itself, and you know it takes money to keep step with our crowd in Washington.
p1248
sba(i__main__
Sentence
p1249
(dp1250
g17
I30
sg18
(lp1251
S'I'
p1252
aS'saw'
p1253
aS'this'
p1254
aS'opening'
p1255
aS'in'
p1256
aS'the'
p1257
aS'West'
p1258
aS','
p1259
aS'and'
p1260
aS'--'
p1261
aS'well'
p1262
aS','
p1263
aS'a'
p1264
aS'marshalship'
p1265
aS'is'
p1266
aS"n't"
p1267
aS'quite'
p1268
aS'as'
p1269
aS'high'
p1270
aS'a'
p1271
aS'position'
p1272
aS'as'
p1273
aS'that'
p1274
aS'of'
p1275
aS'ambassador'
p1276
aS','
p1277
aS'but'
p1278
aS'--'
p1279
aS"''"
p1280
aS'``'
p1281
aS'The'
p1282
aS'ambassador'
p1283
aS','
p1284
aS"''"
p1285
aS'said'
p1286
aS'the'
p1287
aS'girl'
p1288
aS','
p1289
aS'warmly'
p1290
aS','
p1291
aS'``'
p1292
aS'does'
p1293
aS"n't"
p1294
aS'call'
p1295
aS'any'
p1296
aS'more'
p1297
aS'.'
p1298
asg36
(lp1299
g481
aVsaw
p1300
aVthis
p1301
aVopening
p1302
aVin
p1303
aVthe
p1304
aVWest
p1305
ag192
aVand
p1306
aV--
p1307
aVwell
p1308
ag192
ag120
aVmarshalship
p1309
ag1130
aVn't
p1310
aVquite
p1311
ag120
aVhigh
p1312
ag120
aVposition
p1313
ag120
aVthat
p1314
aVof
p1315
aVambassador
p1316
ag192
aVbut
p1317
aV--
p1318
aV''
p1319
aV``
p1320
aVThe
p1321
aVambassador
p1322
ag192
aV''
p1323
ag632
aVthe
p1324
aVgirl
p1325
ag192
aVwarmly
p1326
ag192
aV``
p1327
aVdo
p1328
aVn't
p1329
aVcall
p1330
aVany
p1331
aVmore
p1332
ag53
asg54
(lp1333
g56
ag56
ag56
ag56
ag56
ag56
aVLOCATION
p1334
ag56
ag56
ag56
ag56
ag56
ag56
ag56
ag56
ag56
ag56
ag56
ag56
ag56
ag56
ag56
ag56
ag56
ag56
ag56
ag56
ag56
ag56
ag56
ag56
ag56
ag56
ag56
ag56
ag56
ag56
ag56
ag56
ag56
ag56
ag56
ag56
ag56
ag56
ag56
ag56
asg58
(lp1335
g288
ag63
ag64
ag65
ag60
ag64
ag65
ag216
ag83
ag217
ag62
ag216
ag64
ag65
ag637
ag62
ag62
ag60
ag143
ag64
ag65
ag60
ag64
ag60
ag65
ag216
ag83
ag217
ag528
ag487
ag64
ag65
ag216
ag528
ag63
ag64
ag65
ag216
ag62
ag216
ag487
ag637
ag62
ag444
ag64
aS'RBR'
p1336
ag67
asg68
VI saw this opening in the West, and--well, a marshalship isn't quite as high a position as that of ambassador, but--"    "The ambassador," said the girl, warmly, "doesn't call any more.
p1337
sba(i__main__
Sentence
p1338
(dp1339
g17
I31
sg18
(lp1340
S'He'
p1341
aS'need'
p1342
aS"n't"
p1343
aS'ever'
p1344
aS'have'
p1345
aS'done'
p1346
aS'so'
p1347
aS'.'
p1348
asg36
(lp1349
VHe
p1350
aVneed
p1351
aVn't
p1352
aVever
p1353
aVhave
p1354
aVdo
p1355
aVso
p1356
ag53
asg54
(lp1357
g56
ag56
ag56
ag56
ag56
ag56
ag56
ag56
asg58
(lp1358
g288
ag442
ag62
ag62
ag444
ag144
ag62
ag67
asg68
VHe needn't ever have done so.
p1359
sba(i__main__
Sentence
p1360
(dp1361
g17
I32
sg18
(lp1362
S'You'
p1363
aS'ought'
p1364
aS'to'
p1365
aS'know'
p1366
aS'that'
p1367
aS'.'
p1368
asg36
(lp1369
VYou
p1370
aVought
p1371
aVto
p1372
aVknow
p1373
aVthat
p1374
ag53
asg54
(lp1375
g56
ag56
ag56
ag56
ag56
ag56
asg58
(lp1376
g288
ag63
ag445
ag444
ag60
ag67
asg68
VYou ought to know that.
p1377
sba(i__main__
Sentence
p1378
(dp1379
g17
I33
sg18
(lp1380
S'And'
p1381
aS'so'
p1382
aS'now'
p1383
aS'you'
p1384
aS'are'
p1385
aS'one'
p1386
aS'of'
p1387
aS'these'
p1388
aS'dashing'
p1389
aS'Western'
p1390
aS'heroes'
p1391
aS','
p1392
aS'and'
p1393
aS'you'
p1394
aS'ride'
p1395
aS'and'
p1396
aS'shoot'
p1397
aS'and'
p1398
aS'go'
p1399
aS'into'
p1400
aS'all'
p1401
aS'kinds'
p1402
aS'of'
p1403
aS'dangers'
p1404
aS'.'
p1405
asg36
(lp1406
VAnd
p1407
aVso
p1408
aVnow
p1409
aVyou
p1410
ag1133
aVone
p1411
aVof
p1412
aVthese
p1413
aVdash
p1414
aVWestern
p1415
aVheroes
p1416
ag192
aVand
p1417
aVyou
p1418
aVride
p1419
aVand
p1420
aVshoot
p1421
aVand
p1422
aVgo
p1423
aVinto
p1424
aVall
p1425
aVkind
p1426
aVof
p1427
aVdanger
p1428
ag53
asg54
(lp1429
g56
ag56
ag56
ag56
ag56
ag56
ag56
ag56
ag56
ag56
ag56
ag56
ag56
ag56
ag56
ag56
ag56
ag56
ag56
ag56
ag56
ag56
ag56
ag56
ag56
asg58
(lp1430
g83
ag62
ag62
ag288
ag442
ag142
ag60
ag64
ag289
ag61
ag637
ag216
ag83
ag288
ag442
ag83
ag65
ag83
ag444
ag60
ag64
ag66
ag60
ag66
ag67
asg68
VAnd so now you are one of these dashing Western heroes, and you ride and shoot and go into all kinds of dangers.
p1431
sba(i__main__
Sentence
p1432
(dp1433
g17
I34
sg18
(lp1434
S'That'
p1435
aS"'s"
p1436
aS'different'
p1437
aS'from'
p1438
aS'the'
p1439
aS'Washington'
p1440
aS'life'
p1441
aS'.'
p1442
asg36
(lp1443
VThat
p1444
aV's
p1445
aVdifferent
p1446
aVfrom
p1447
aVthe
p1448
aVWashington
p1449
aVlife
p1450
ag53
asg54
(lp1451
g56
ag56
ag56
ag56
ag56
aVLOCATION
p1452
ag56
ag56
asg58
(lp1453
g64
ag637
ag143
ag60
ag64
ag61
ag65
ag67
asg68
VThat's different from the Washington life.
p1454
sba(i__main__
Sentence
p1455
(dp1456
g17
I35
sg18
(lp1457
S'You'
p1458
aS'have'
p1459
aS'been'
p1460
aS'missed'
p1461
aS'from'
p1462
aS'the'
p1463
aS'old'
p1464
aS'crowd'
p1465
aS'.'
p1466
aS"''"
p1467
asg36
(lp1468
VYou
p1469
aVhave
p1470
ag892
aVmiss
p1471
aVfrom
p1472
aVthe
p1473
aVold
p1474
aVcrowd
p1475
ag53
aV''
p1476
asg54
(lp1477
g56
ag56
ag56
ag56
ag56
ag56
ag56
ag56
ag56
ag56
asg58
(lp1478
g288
ag442
ag144
ag144
ag60
ag64
ag143
ag65
ag67
ag528
asg68
VYou have been missed from the old crowd."
p1479
sba(i__main__
Sentence
p1480
(dp1481
g17
I36
sg18
(lp1482
S'The'
p1483
aS'girl'
p1484
aS"'s"
p1485
aS'eyes'
p1486
aS','
p1487
aS'fascinated'
p1488
aS','
p1489
aS'went'
p1490
aS'back'
p1491
aS','
p1492
aS'widening'
p1493
aS'a'
p1494
aS'little'
p1495
aS','
p1496
aS'to'
p1497
aS'rest'
p1498
aS'upon'
p1499
aS'the'
p1500
aS'glittering'
p1501
aS'handcuffs'
p1502
aS'.'
p1503
asg36
(lp1504
VThe
p1505
aVgirl
p1506
aV's
p1507
aVeye
p1508
ag192
aVfascinate
p1509
ag192
aVwent
p1510
aVback
p1511
ag192
aVwiden
p1512
ag120
aVlittle
p1513
ag192
aVto
p1514
aVrest
p1515
aVupon
p1516
aVthe
p1517
aVglittering
p1518
aVhandcuff
p1519
ag53
asg54
(lp1520
g56
ag56
ag56
ag56
ag56
ag56
ag56
ag56
ag56
ag56
ag56
ag56
ag56
ag56
ag56
ag56
ag56
ag56
ag56
ag56
ag56
asg58
(lp1521
g64
ag65
ag389
ag66
ag216
ag63
ag216
ag65
ag62
ag216
ag289
ag64
ag62
ag216
ag445
ag444
ag60
ag64
ag65
ag66
ag67
asg68
VThe girl's eyes, fascinated, went back, widening a little, to rest upon the glittering handcuffs.
p1522
sba(i__main__
Sentence
p1523
(dp1524
g17
I37
sg18
(lp1525
S'``'
p1526
aS'Do'
p1527
aS"n't"
p1528
aS'you'
p1529
aS'worry'
p1530
aS'about'
p1531
aS'them'
p1532
aS','
p1533
aS'miss'
p1534
aS','
p1535
aS"''"
p1536
aS'said'
p1537
aS'the'
p1538
aS'other'
p1539
aS'man'
p1540
aS'.'
p1541
asg36
(lp1542
V``
p1543
aVDo
p1544
aVn't
p1545
aVyou
p1546
aVworry
p1547
aVabout
p1548
aVthem
p1549
ag192
aVmiss
p1550
ag192
aV''
p1551
ag632
aVthe
p1552
aVother
p1553
aVman
p1554
ag53
asg54
(lp1555
g56
ag56
ag56
ag56
ag56
ag56
ag56
ag56
ag56
ag56
ag56
ag56
ag56
ag56
ag56
ag56
asg58
(lp1556
g487
ag442
ag62
ag288
ag442
ag60
ag288
ag216
ag442
ag216
ag528
ag63
ag64
ag143
ag65
ag67
asg68
V"Don't you worry about them, miss," said the other man.
p1557
sba(i__main__
Sentence
p1558
(dp1559
g17
I38
sg18
(lp1560
S'``'
p1561
aS'All'
p1562
aS'marshals'
p1563
aS'handcuff'
p1564
aS'themselves'
p1565
aS'to'
p1566
aS'their'
p1567
aS'prisoners'
p1568
aS'to'
p1569
aS'keep'
p1570
aS'them'
p1571
aS'from'
p1572
aS'getting'
p1573
aS'away'
p1574
aS'.'
p1575
asg36
(lp1576
V``
p1577
aVAll
p1578
aVmarshal
p1579
aVhandcuff
p1580
aVthemselves
p1581
aVto
p1582
aVtheir
p1583
aVprisoner
p1584
aVto
p1585
aVkeep
p1586
aVthem
p1587
aVfrom
p1588
aVget
p1589
aVaway
p1590
ag53
asg54
(lp1591
g56
ag56
ag56
ag56
ag56
ag56
ag56
ag56
ag56
ag56
ag56
ag56
ag56
ag56
ag56
asg58
(lp1592
g487
ag64
ag66
ag442
ag288
ag445
ag443
ag66
ag445
ag444
ag288
ag60
ag289
ag62
ag67
asg68
V"All marshals handcuff themselves to their prisoners to keep them from getting away.
p1593
sba(i__main__
Sentence
p1594
(dp1595
g17
I39
sg18
(lp1596
S'Mr.'
p1597
aS'Easton'
p1598
aS'knows'
p1599
aS'his'
p1600
aS'business'
p1601
aS'.'
p1602
aS"''"
p1603
asg36
(lp1604
VMr.
p1605
aVEaston
p1606
aVknow
p1607
aVhis
p1608
aVbusiness
p1609
ag53
aV''
p1610
asg54
(lp1611
g56
aVPERSON
p1612
ag56
ag56
ag56
ag56
ag56
asg58
(lp1613
g61
ag61
ag637
ag443
ag65
ag67
ag528
asg68
VMr. Easton knows his business."
p1614
sba(i__main__
Sentence
p1615
(dp1616
g17
I40
sg18
(lp1617
S'``'
p1618
aS'Will'
p1619
aS'we'
p1620
aS'see'
p1621
aS'you'
p1622
aS'again'
p1623
aS'soon'
p1624
aS'in'
p1625
aS'Washington'
p1626
aS'?'
p1627
aS"''"
p1628
asg36
(lp1629
V``
p1630
aVWill
p1631
aVwe
p1632
aVsee
p1633
aVyou
p1634
aVagain
p1635
aVsoon
p1636
aVin
p1637
aVWashington
p1638
ag524
aV''
p1639
asg54
(lp1640
g56
ag56
ag56
ag56
ag56
ag56
ag56
ag56
aVLOCATION
p1641
ag56
ag56
asg58
(lp1642
g487
ag61
ag288
ag442
ag288
ag62
ag62
ag60
ag61
ag67
ag528
asg68
V"Will we see you again soon in Washington?"
p1643
sba(i__main__
Sentence
p1644
(dp1645
g17
I41
sg18
(lp1646
S'asked'
p1647
aS'the'
p1648
aS'girl'
p1649
aS'.'
p1650
asg36
(lp1651
Vask
p1652
aVthe
p1653
aVgirl
p1654
ag53
asg54
(lp1655
g56
ag56
ag56
ag56
asg58
(lp1656
g63
ag64
ag65
ag67
asg68
Vasked the girl.
p1657
sba(i__main__
Sentence
p1658
(dp1659
g17
I42
sg18
(lp1660
S'``'
p1661
aS'Not'
p1662
aS'soon'
p1663
aS','
p1664
aS'I'
p1665
aS'think'
p1666
aS','
p1667
aS"''"
p1668
aS'said'
p1669
aS'Easton'
p1670
aS'.'
p1671
asg36
(lp1672
V``
p1673
aVNot
p1674
aVsoon
p1675
ag192
ag481
aVthink
p1676
ag192
aV''
p1677
ag632
aVEaston
p1678
ag53
asg54
(lp1679
g56
ag56
ag56
ag56
ag56
ag56
ag56
ag56
ag56
aVPERSON
p1680
ag56
asg58
(lp1681
g487
ag62
ag62
ag216
ag288
ag442
ag216
ag528
ag63
ag61
ag67
asg68
V"Not soon, I think," said Easton.
p1682
sba(i__main__
Sentence
p1683
(dp1684
g17
I43
sg18
(lp1685
S'``'
p1686
aS'My'
p1687
aS'butterfly'
p1688
aS'days'
p1689
aS'are'
p1690
aS'over'
p1691
aS','
p1692
aS'I'
p1693
aS'fear'
p1694
aS'.'
p1695
aS"''"
p1696
asg36
(lp1697
V``
p1698
aVMy
p1699
aVbutterfly
p1700
aVday
p1701
ag1133
aVover
p1702
ag192
ag481
aVfear
p1703
ag53
aV''
p1704
asg54
(lp1705
g56
ag56
ag56
ag56
ag56
ag56
ag56
ag56
ag56
ag56
ag56
asg58
(lp1706
g487
ag443
ag65
ag66
ag442
ag60
ag216
ag288
ag442
ag67
ag528
asg68
V"My butterfly days are over, I fear."
p1707
sba(i__main__
Sentence
p1708
(dp1709
g17
I44
sg18
(lp1710
S'``'
p1711
aS'I'
p1712
aS'love'
p1713
aS'the'
p1714
aS'West'
p1715
aS','
p1716
aS"''"
p1717
aS'said'
p1718
aS'the'
p1719
aS'girl'
p1720
aS'irrelevantly'
p1721
aS'.'
p1722
asg36
(lp1723
V``
p1724
ag481
aVlove
p1725
aVthe
p1726
aVWest
p1727
ag192
aV''
p1728
ag632
aVthe
p1729
aVgirl
p1730
aVirrelevantly
p1731
ag53
asg54
(lp1732
g56
ag56
ag56
ag56
ag56
ag56
ag56
ag56
ag56
ag56
ag56
ag56
asg58
(lp1733
g487
ag288
ag442
ag64
ag61
ag216
ag528
ag63
ag64
ag65
ag62
ag67
asg68
V"I love the West," said the girl irrelevantly.
p1734
sba(i__main__
Sentence
p1735
(dp1736
g17
I45
sg18
(lp1737
S'Her'
p1738
aS'eyes'
p1739
aS'were'
p1740
aS'shining'
p1741
aS'softly'
p1742
aS'.'
p1743
asg36
(lp1744
VHer
p1745
aVeye
p1746
ag188
aVshin
p1747
aVsoftly
p1748
ag53
asg54
(lp1749
g56
ag56
ag56
ag56
ag56
ag56
asg58
(lp1750
g443
ag66
ag63
ag289
ag62
ag67
asg68
VHer eyes were shining softly.
p1751
sba(i__main__
Sentence
p1752
(dp1753
g17
I46
sg18
(lp1754
S'She'
p1755
aS'looked'
p1756
aS'away'
p1757
aS'out'
p1758
aS'the'
p1759
aS'car'
p1760
aS'window'
p1761
aS'.'
p1762
asg36
(lp1763
VShe
p1764
aVlook
p1765
aVaway
p1766
aVout
p1767
aVthe
p1768
aVcar
p1769
aVwindow
p1770
ag53
asg54
(lp1771
g56
ag56
ag56
ag56
ag56
ag56
ag56
ag56
asg58
(lp1772
g288
ag63
ag62
ag60
ag64
ag65
ag65
ag67
asg68
VShe looked away out the car window.
p1773
sba(i__main__
Sentence
p1774
(dp1775
g17
I47
sg18
(lp1776
S'She'
p1777
aS'began'
p1778
aS'to'
p1779
aS'speak'
p1780
aS'truly'
p1781
aS'and'
p1782
aS'simply'
p1783
aS'without'
p1784
aS'the'
p1785
aS'gloss'
p1786
aS'of'
p1787
aS'style'
p1788
aS'and'
p1789
aS'manner'
p1790
aS':'
p1791
aS'``'
p1792
aS'Mamma'
p1793
aS'and'
p1794
aS'I'
p1795
aS'spent'
p1796
aS'the'
p1797
aS'summer'
p1798
aS'in'
p1799
aS'Denver'
p1800
aS'.'
p1801
asg36
(lp1802
VShe
p1803
aVbegin
p1804
aVto
p1805
aVspeak
p1806
aVtruly
p1807
aVand
p1808
aVsimply
p1809
aVwithout
p1810
aVthe
p1811
aVgloss
p1812
aVof
p1813
aVstyle
p1814
aVand
p1815
aVmanner
p1816
aV:
p1817
aV``
p1818
aVMamma
p1819
aVand
p1820
ag481
aVspend
p1821
aVthe
p1822
aVsummer
p1823
aVin
p1824
aVDenver
p1825
ag53
asg54
(lp1826
g56
ag56
ag56
ag56
ag56
ag56
ag56
ag56
ag56
ag56
ag56
ag56
ag56
ag56
ag56
ag56
ag56
ag56
ag56
ag56
ag56
ag56
ag56
aVLOCATION
p1827
ag56
asg58
(lp1828
g288
ag63
ag445
ag444
ag62
ag83
ag62
ag60
ag64
ag65
ag60
ag65
ag83
ag65
ag217
ag487
ag61
ag83
ag288
ag63
ag64
ag65
ag60
ag61
ag67
asg68
VShe began to speak truly and simply without the gloss of style and manner: "Mamma and I spent the summer in Denver.
p1829
sba(i__main__
Sentence
p1830
(dp1831
g17
I48
sg18
(lp1832
S'She'
p1833
aS'went'
p1834
aS'home'
p1835
aS'a'
p1836
aS'week'
p1837
aS'ago'
p1838
aS'because'
p1839
aS'father'
p1840
aS'was'
p1841
aS'slightly'
p1842
aS'ill'
p1843
aS'.'
p1844
asg36
(lp1845
VShe
p1846
aVgo
p1847
aVhome
p1848
ag120
aVweek
p1849
aVago
p1850
aVbecause
p1851
aVfather
p1852
ag41
aVslightly
p1853
aVill
p1854
ag53
asg54
(lp1855
g56
ag56
ag56
ag56
ag56
ag56
ag56
ag56
ag56
ag56
ag56
ag56
asg58
(lp1856
g288
ag63
ag65
ag64
ag65
ag60
ag60
ag65
ag63
ag62
ag143
ag67
asg68
VShe went home a week ago because father was slightly ill.
p1857
sba(i__main__
Sentence
p1858
(dp1859
g17
I49
sg18
(lp1860
S'I'
p1861
aS'could'
p1862
aS'live'
p1863
aS'and'
p1864
aS'be'
p1865
aS'happy'
p1866
aS'in'
p1867
aS'the'
p1868
aS'West'
p1869
aS'.'
p1870
asg36
(lp1871
g481
aVcould
p1872
aVlive
p1873
aVand
p1874
aVbe
p1875
aVhappy
p1876
aVin
p1877
aVthe
p1878
aVWest
p1879
ag53
asg54
(lp1880
g56
ag56
ag56
ag56
ag56
ag56
ag56
ag56
aVLOCATION
p1881
ag56
asg58
(lp1882
g288
ag488
ag444
ag83
ag444
ag143
ag60
ag64
ag65
ag67
asg68
VI could live and be happy in the West.
p1883
sba(i__main__
Sentence
p1884
(dp1885
g17
I50
sg18
(lp1886
S'I'
p1887
aS'think'
p1888
aS'the'
p1889
aS'air'
p1890
aS'here'
p1891
aS'agrees'
p1892
aS'with'
p1893
aS'me'
p1894
aS'.'
p1895
asg36
(lp1896
g481
aVthink
p1897
aVthe
p1898
aVair
p1899
aVhere
p1900
aVagree
p1901
aVwith
p1902
aVme
p1903
ag53
asg54
(lp1904
g56
ag56
ag56
ag56
ag56
ag56
ag56
ag56
ag56
asg58
(lp1905
g288
ag442
ag64
ag65
ag62
ag637
ag60
ag288
ag67
asg68
VI think the air here agrees with me.
p1906
sba(i__main__
Sentence
p1907
(dp1908
g17
I51
sg18
(lp1909
S'Money'
p1910
aS'is'
p1911
aS"n't"
p1912
aS'everything'
p1913
aS'.'
p1914
asg36
(lp1915
VMoney
p1916
ag1130
aVn't
p1917
aVeverything
p1918
ag53
asg54
(lp1919
g56
ag56
ag56
ag56
ag56
asg58
(lp1920
g65
ag637
ag62
ag65
ag67
asg68
VMoney isn't everything.
p1921
sba(i__main__
Sentence
p1922
(dp1923
g17
I52
sg18
(lp1924
S'But'
p1925
aS'people'
p1926
aS'always'
p1927
aS'misunderstand'
p1928
aS'things'
p1929
aS'and'
p1930
aS'remain'
p1931
aS'stupid'
p1932
aS'--'
p1933
aS"''"
p1934
aS'``'
p1935
aS'Say'
p1936
aS','
p1937
aS'Mr'
p1938
aS'.'
p1939
asg36
(lp1940
VBut
p1941
aVpeople
p1942
aValways
p1943
aVmisunderstand
p1944
aVthing
p1945
aVand
p1946
aVremain
p1947
aVstupid
p1948
aV--
p1949
aV''
p1950
aV``
p1951
aVSay
p1952
ag192
aVMr
p1953
ag53
asg54
(lp1954
g56
ag56
ag56
ag56
ag56
ag56
ag56
ag56
ag56
ag56
ag56
ag56
ag56
ag56
ag56
asg58
(lp1955
g83
ag66
ag62
ag442
ag66
ag83
ag444
ag143
ag217
ag528
ag487
ag61
ag216
ag61
ag67
asg68
VBut people always misunderstand things and remain stupid--"    "Say, Mr.
p1956
sba(i__main__
Sentence
p1957
(dp1958
g17
I53
sg18
(lp1959
S'Marshal'
p1960
aS','
p1961
aS"''"
p1962
aS'growled'
p1963
aS'the'
p1964
aS'glum-faced'
p1965
aS'man'
p1966
aS'.'
p1967
asg36
(lp1968
VMarshal
p1969
ag192
aV''
p1970
aVgrowl
p1971
aVthe
p1972
aVglum-faced
p1973
aVman
p1974
ag53
asg54
(lp1975
g56
ag56
ag56
ag56
ag56
ag56
ag56
ag56
asg58
(lp1976
g61
ag216
ag528
ag63
ag64
ag143
ag65
ag67
asg68
VMarshal," growled the glum-faced man.
p1977
sba(i__main__
Sentence
p1978
(dp1979
g17
I54
sg18
(lp1980
S'``'
p1981
aS'This'
p1982
aS'is'
p1983
aS"n't"
p1984
aS'quite'
p1985
aS'fair'
p1986
aS'.'
p1987
asg36
(lp1988
V``
p1989
aVThis
p1990
ag1130
aVn't
p1991
aVquite
p1992
aVfair
p1993
ag53
asg54
(lp1994
g56
ag56
ag56
ag56
ag56
ag56
ag56
asg58
(lp1995
g487
ag64
ag637
ag62
ag62
ag143
ag67
asg68
V"This isn't quite fair.
p1996
sba(i__main__
Sentence
p1997
(dp1998
g17
I55
sg18
(lp1999
S'I'
p2000
aS"'m"
p2001
aS'needing'
p2002
aS'a'
p2003
aS'drink'
p2004
aS','
p2005
aS'and'
p2006
aS'have'
p2007
aS"n't"
p2008
aS'had'
p2009
aS'a'
p2010
aS'smoke'
p2011
aS'all'
p2012
aS'day'
p2013
aS'.'
p2014
asg36
(lp2015
g481
aV'm
p2016
aVneed
p2017
ag120
aVdrink
p2018
ag192
aVand
p2019
aVhave
p2020
aVn't
p2021
ag891
ag120
aVsmoke
p2022
aVall
p2023
aVday
p2024
ag53
asg54
(lp2025
g56
ag56
ag56
ag56
ag56
ag56
ag56
ag56
ag56
ag56
ag56
ag56
ag56
ag56
ag56
asg58
(lp2026
g288
ag442
ag289
ag64
ag65
ag216
ag83
ag442
ag62
ag63
ag64
ag65
ag64
ag65
ag67
asg68
VI'm needing a drink, and haven't had a smoke all day.
p2027
sba(i__main__
Sentence
p2028
(dp2029
g17
I56
sg18
(lp2030
S'Have'
p2031
aS"n't"
p2032
aS'you'
p2033
aS'talked'
p2034
aS'long'
p2035
aS'enough'
p2036
aS'?'
p2037
asg36
(lp2038
VHave
p2039
aVn't
p2040
aVyou
p2041
aVtalk
p2042
aVlong
p2043
aVenough
p2044
ag524
asg54
(lp2045
g56
ag56
ag56
ag56
ag56
ag56
ag56
asg58
(lp2046
g61
ag62
ag288
ag63
ag62
ag62
ag67
asg68
VHaven't you talked long enough?
p2047
sba(i__main__
Sentence
p2048
(dp2049
g17
I57
sg18
(lp2050
S'Take'
p2051
aS'me'
p2052
aS'in'
p2053
aS'the'
p2054
aS'smoker'
p2055
aS'now'
p2056
aS','
p2057
aS'wo'
p2058
aS"n't"
p2059
aS'you'
p2060
aS'?'
p2061
asg36
(lp2062
VTake
p2063
aVme
p2064
aVin
p2065
aVthe
p2066
aVsmoker
p2067
aVnow
p2068
ag192
aVwo
p2069
aVn't
p2070
aVyou
p2071
ag524
asg54
(lp2072
g56
ag56
ag56
ag56
ag56
ag56
ag56
ag56
ag56
ag56
ag56
asg58
(lp2073
g61
ag65
ag60
ag64
ag65
ag62
ag216
ag488
ag62
ag288
ag67
asg68
VTake me in the smoker now, won't you?
p2074
sba(i__main__
Sentence
p2075
(dp2076
g17
I58
sg18
(lp2077
S'I'
p2078
aS"'m"
p2079
aS'half'
p2080
aS'dead'
p2081
aS'for'
p2082
aS'a'
p2083
aS'pipe'
p2084
aS'.'
p2085
aS"''"
p2086
asg36
(lp2087
g481
aV'm
p2088
aVhalf
p2089
aVdead
p2090
aVfor
p2091
ag120
aVpipe
p2092
ag53
aV''
p2093
asg54
(lp2094
g56
ag56
ag56
ag56
ag56
ag56
ag56
ag56
ag56
asg58
(lp2095
g288
ag442
ag64
ag143
ag60
ag64
ag65
ag67
ag528
asg68
VI'm half dead for a pipe."
p2096
sba(i__main__
Sentence
p2097
(dp2098
g17
I59
sg18
(lp2099
S'The'
p2100
aS'bound'
p2101
aS'travelers'
p2102
aS'rose'
p2103
aS'to'
p2104
aS'their'
p2105
aS'feet'
p2106
aS','
p2107
aS'Easton'
p2108
aS'with'
p2109
aS'the'
p2110
aS'same'
p2111
aS'slow'
p2112
aS'smile'
p2113
aS'on'
p2114
aS'his'
p2115
aS'face'
p2116
aS'.'
p2117
asg36
(lp2118
VThe
p2119
aVbound
p2120
aVtraveler
p2121
aVrise
p2122
aVto
p2123
aVtheir
p2124
aVfoot
p2125
ag192
aVEaston
p2126
aVwith
p2127
aVthe
p2128
aVsame
p2129
aVslow
p2130
aVsmile
p2131
aVon
p2132
aVhis
p2133
aVface
p2134
ag53
asg54
(lp2135
g56
ag56
ag56
ag56
ag56
ag56
ag56
ag56
aVPERSON
p2136
ag56
ag56
ag56
ag56
ag56
ag56
ag56
ag56
ag56
asg58
(lp2137
g64
ag65
ag66
ag63
ag445
ag443
ag65
ag216
ag61
ag60
ag64
ag143
ag65
ag65
ag60
ag443
ag65
ag67
asg68
VThe bound travelers rose to their feet, Easton with the same slow smile on his face.
p2138
sba(i__main__
Sentence
p2139
(dp2140
g17
I60
sg18
(lp2141
S'``'
p2142
aS'I'
p2143
aS'ca'
p2144
aS"n't"
p2145
aS'deny'
p2146
aS'a'
p2147
aS'petition'
p2148
aS'for'
p2149
aS'tobacco'
p2150
aS','
p2151
aS"''"
p2152
aS'he'
p2153
aS'said'
p2154
aS','
p2155
aS'lightly'
p2156
aS'.'
p2157
asg36
(lp2158
V``
p2159
ag481
aVca
p2160
aVn't
p2161
aVdeny
p2162
ag120
aVpetition
p2163
aVfor
p2164
aVtobacco
p2165
ag192
aV''
p2166
aVhe
p2167
ag632
ag192
aVlightly
p2168
ag53
asg54
(lp2169
g56
ag56
ag56
ag56
ag56
ag56
ag56
ag56
ag56
ag56
ag56
ag56
ag56
ag56
ag56
ag56
asg58
(lp2170
g487
ag288
ag488
ag62
ag444
ag64
ag65
ag60
ag65
ag216
ag528
ag288
ag63
ag216
ag62
ag67
asg68
V"I can't deny a petition for tobacco," he said, lightly.
p2171
sba(i__main__
Sentence
p2172
(dp2173
g17
I61
sg18
(lp2174
S'``'
p2175
aS'It'
p2176
aS"'s"
p2177
aS'the'
p2178
aS'one'
p2179
aS'friend'
p2180
aS'of'
p2181
aS'the'
p2182
aS'unfortunate'
p2183
aS'.'
p2184
asg36
(lp2185
V``
p2186
aVIt
p2187
aV's
p2188
aVthe
p2189
aVone
p2190
aVfriend
p2191
aVof
p2192
aVthe
p2193
aVunfortunate
p2194
ag53
asg54
(lp2195
g56
ag56
ag56
ag56
ag56
ag56
ag56
ag56
ag56
ag56
asg58
(lp2196
g487
ag288
ag637
ag64
ag142
ag65
ag60
ag64
ag65
ag67
asg68
V"It's the one friend of the unfortunate.
p2197
sba(i__main__
Sentence
p2198
(dp2199
g17
I62
sg18
(lp2200
S'Good-bye'
p2201
aS','
p2202
aS'Miss'
p2203
aS'Fairchild'
p2204
aS'.'
p2205
asg36
(lp2206
VGood-bye
p2207
ag192
aVMiss
p2208
aVFairchild
p2209
ag53
asg54
(lp2210
g56
ag56
ag56
ag56
ag56
asg58
(lp2211
g143
ag216
ag61
ag61
ag67
asg68
VGood-bye, Miss Fairchild.
p2212
sba(i__main__
Sentence
p2213
(dp2214
g17
I63
sg18
(lp2215
S'Duty'
p2216
aS'calls'
p2217
aS','
p2218
aS'you'
p2219
aS'know'
p2220
aS'.'
p2221
aS"''"
p2222
asg36
(lp2223
VDuty
p2224
aVcall
p2225
ag192
aVyou
p2226
aVknow
p2227
ag53
aV''
p2228
asg54
(lp2229
g56
ag56
ag56
ag56
ag56
ag56
ag56
asg58
(lp2230
g65
ag637
ag216
ag288
ag442
ag67
ag528
asg68
VDuty calls, you know."
p2231
sba(i__main__
Sentence
p2232
(dp2233
g17
I64
sg18
(lp2234
S'He'
p2235
aS'held'
p2236
aS'out'
p2237
aS'his'
p2238
aS'hand'
p2239
aS'for'
p2240
aS'a'
p2241
aS'farewell'
p2242
aS'.'
p2243
asg36
(lp2244
VHe
p2245
ag382
aVout
p2246
aVhis
p2247
aVhand
p2248
aVfor
p2249
ag120
aVfarewell
p2250
ag53
asg54
(lp2251
g56
ag56
ag56
ag56
ag56
ag56
ag56
ag56
ag56
asg58
(lp2252
g288
ag63
ag235
ag443
ag65
ag60
ag64
ag65
ag67
asg68
VHe held out his hand for a farewell.
p2253
sba(i__main__
Sentence
p2254
(dp2255
g17
I65
sg18
(lp2256
S'``'
p2257
aS'It'
p2258
aS"'s"
p2259
aS'too'
p2260
aS'bad'
p2261
aS'you'
p2262
aS'are'
p2263
aS'not'
p2264
aS'going'
p2265
aS'East'
p2266
aS','
p2267
aS"''"
p2268
aS'she'
p2269
aS'said'
p2270
aS','
p2271
aS'reclothing'
p2272
aS'herself'
p2273
aS'with'
p2274
aS'manner'
p2275
aS'and'
p2276
aS'style'
p2277
aS'.'
p2278
asg36
(lp2279
V``
p2280
aVIt
p2281
aV's
p2282
aVtoo
p2283
aVbad
p2284
aVyou
p2285
ag1133
aVnot
p2286
aVgo
p2287
aVEast
p2288
ag192
aV''
p2289
aVshe
p2290
ag632
ag192
aVreclothing
p2291
aVherself
p2292
aVwith
p2293
aVmanner
p2294
aVand
p2295
aVstyle
p2296
ag53
asg54
(lp2297
g56
ag56
ag56
ag56
ag56
ag56
ag56
ag56
ag56
aVLOCATION
p2298
ag56
ag56
ag56
ag56
ag56
ag56
ag56
ag56
ag56
ag56
ag56
ag56
asg58
(lp2299
g487
ag288
ag637
ag62
ag143
ag288
ag442
ag62
ag289
ag61
ag216
ag528
ag288
ag63
ag216
ag65
ag288
ag60
ag65
ag83
ag65
ag67
asg68
V"It's too bad you are not going East," she said, reclothing herself with manner and style.
p2300
sba(i__main__
Sentence
p2301
(dp2302
g17
I66
sg18
(lp2303
S'``'
p2304
aS'But'
p2305
aS'you'
p2306
aS'must'
p2307
aS'go'
p2308
aS'on'
p2309
aS'to'
p2310
aS'Leavenworth'
p2311
aS','
p2312
aS'I'
p2313
aS'suppose'
p2314
aS'?'
p2315
aS"''"
p2316
asg36
(lp2317
V``
p2318
aVBut
p2319
aVyou
p2320
aVmust
p2321
aVgo
p2322
aVon
p2323
aVto
p2324
aVLeavenworth
p2325
ag192
ag481
aVsuppose
p2326
ag524
aV''
p2327
asg54
(lp2328
g56
ag56
ag56
ag56
ag56
ag56
ag56
aVLOCATION
p2329
ag56
ag56
ag56
ag56
ag56
asg58
(lp2330
g487
ag83
ag288
ag488
ag444
ag60
ag445
ag61
ag216
ag288
ag442
ag67
ag528
asg68
V"But you must go on to Leavenworth, I suppose?"
p2331
sba(i__main__
Sentence
p2332
(dp2333
g17
I67
sg18
(lp2334
S'``'
p2335
aS'Yes'
p2336
aS','
p2337
aS"''"
p2338
aS'said'
p2339
aS'Easton'
p2340
aS','
p2341
aS'``'
p2342
aS'I'
p2343
aS'must'
p2344
aS'go'
p2345
aS'on'
p2346
aS'to'
p2347
aS'Leavenworth'
p2348
aS'.'
p2349
aS"''"
p2350
asg36
(lp2351
V``
p2352
aVYes
p2353
ag192
aV''
p2354
ag632
aVEaston
p2355
ag192
aV``
p2356
ag481
aVmust
p2357
aVgo
p2358
aVon
p2359
aVto
p2360
aVLeavenworth
p2361
ag53
aV''
p2362
asg54
(lp2363
g56
ag56
ag56
ag56
ag56
aVPERSON
p2364
ag56
ag56
ag56
ag56
ag56
ag56
ag56
aVLOCATION
p2365
ag56
ag56
asg58
(lp2366
g487
ag637
ag216
ag528
ag63
ag61
ag216
ag487
ag288
ag488
ag444
ag60
ag445
ag61
ag67
ag528
asg68
V"Yes," said Easton, "I must go on to Leavenworth."
p2367
sba(i__main__
Sentence
p2368
(dp2369
g17
I68
sg18
(lp2370
S'The'
p2371
aS'two'
p2372
aS'men'
p2373
aS'sidled'
p2374
aS'down'
p2375
aS'the'
p2376
aS'aisle'
p2377
aS'into'
p2378
aS'the'
p2379
aS'smoker'
p2380
aS'.'
p2381
asg36
(lp2382
VThe
p2383
aVtwo
p2384
aVmen
p2385
aVsidle
p2386
aVdown
p2387
aVthe
p2388
aVaisle
p2389
aVinto
p2390
aVthe
p2391
aVsmoker
p2392
ag53
asg54
(lp2393
g56
ag56
ag56
ag56
ag56
ag56
ag56
ag56
ag56
ag56
ag56
asg58
(lp2394
g64
ag142
ag66
ag63
ag60
ag64
ag65
ag60
ag64
ag65
ag67
asg68
VThe two men sidled down the aisle into the smoker.
p2395
sba(i__main__
Sentence
p2396
(dp2397
g17
I69
sg18
(lp2398
S'The'
p2399
aS'two'
p2400
aS'passengers'
p2401
aS'in'
p2402
aS'a'
p2403
aS'seat'
p2404
aS'near'
p2405
aS'by'
p2406
aS'had'
p2407
aS'heard'
p2408
aS'most'
p2409
aS'of'
p2410
aS'the'
p2411
aS'conversation'
p2412
aS'.'
p2413
asg36
(lp2414
VThe
p2415
aVtwo
p2416
aVpassenger
p2417
aVin
p2418
ag120
aVseat
p2419
aVnear
p2420
aVby
p2421
ag891
ag438
aVmost
p2422
aVof
p2423
aVthe
p2424
aVconversation
p2425
ag53
asg54
(lp2426
g56
ag56
ag56
ag56
ag56
ag56
ag56
ag56
ag56
ag56
ag56
ag56
ag56
ag56
ag56
asg58
(lp2427
g64
ag142
ag66
ag60
ag64
ag65
ag60
ag60
ag63
ag144
aS'JJS'
p2428
ag60
ag64
ag65
ag67
asg68
VThe two passengers in a seat near by had heard most of the conversation.
p2429
sba(i__main__
Sentence
p2430
(dp2431
g17
I70
sg18
(lp2432
S'Said'
p2433
aS'one'
p2434
aS'of'
p2435
aS'them'
p2436
aS':'
p2437
aS'``'
p2438
aS'That'
p2439
aS'marshal'
p2440
aS"'s"
p2441
aS'a'
p2442
aS'good'
p2443
aS'sort'
p2444
aS'of'
p2445
aS'chap'
p2446
aS'.'
p2447
asg36
(lp2448
VSaid
p2449
aVone
p2450
aVof
p2451
aVthem
p2452
ag1817
aV``
p2453
aVThat
p2454
aVmarshal
p2455
aV's
p2456
ag120
aVgood
p2457
aVsort
p2458
aVof
p2459
aVchap
p2460
ag53
asg54
(lp2461
g56
ag56
ag56
ag56
ag56
ag56
ag56
ag56
ag56
ag56
ag56
ag56
ag56
ag56
ag56
asg58
(lp2462
g61
ag142
ag60
ag288
ag217
ag487
ag64
ag143
ag389
ag64
ag143
ag65
ag60
ag65
ag67
asg68
VSaid one of them: "That marshal's a good sort of chap.
p2463
sba(i__main__
Sentence
p2464
(dp2465
g17
I71
sg18
(lp2466
S'Some'
p2467
aS'of'
p2468
aS'these'
p2469
aS'Western'
p2470
aS'fellows'
p2471
aS'are'
p2472
aS'all'
p2473
aS'right'
p2474
aS'.'
p2475
aS"''"
p2476
asg36
(lp2477
VSome
p2478
aVof
p2479
aVthese
p2480
aVWestern
p2481
aVfellows
p2482
ag1133
aVall
p2483
aVright
p2484
ag53
aV''
p2485
asg54
(lp2486
g56
ag56
ag56
ag56
ag56
ag56
ag56
ag56
ag56
ag56
asg58
(lp2487
g64
ag60
ag64
ag61
ag637
ag442
ag64
ag65
ag67
ag528
asg68
VSome of these Western fellows are all right."
p2488
sba(i__main__
Sentence
p2489
(dp2490
g17
I72
sg18
(lp2491
S'``'
p2492
aS'Pretty'
p2493
aS'young'
p2494
aS'to'
p2495
aS'hold'
p2496
aS'an'
p2497
aS'office'
p2498
aS'like'
p2499
aS'that'
p2500
aS','
p2501
aS'is'
p2502
aS"n't"
p2503
aS'he'
p2504
aS'?'
p2505
aS"''"
p2506
asg36
(lp2507
V``
p2508
aVPretty
p2509
aVyoung
p2510
aVto
p2511
aVhold
p2512
aVan
p2513
aVoffice
p2514
aVlike
p2515
aVthat
p2516
ag192
ag1130
aVn't
p2517
aVhe
p2518
ag524
aV''
p2519
asg54
(lp2520
g56
ag56
ag56
ag56
ag56
ag56
ag56
ag56
ag56
ag56
ag56
ag56
ag56
ag56
ag56
asg58
(lp2521
g487
ag62
ag143
ag445
ag444
ag64
ag65
ag60
ag64
ag216
ag637
ag62
ag288
ag67
ag528
asg68
V"Pretty young to hold an office like that, isn't he?"
p2522
sba(i__main__
Sentence
p2523
(dp2524
g17
I73
sg18
(lp2525
S'asked'
p2526
aS'the'
p2527
aS'other'
p2528
aS'.'
p2529
asg36
(lp2530
Vask
p2531
aVthe
p2532
aVother
p2533
ag53
asg54
(lp2534
g56
ag56
ag56
ag56
asg58
(lp2535
g63
ag64
ag143
ag67
asg68
Vasked the other.
p2536
sba(i__main__
Sentence
p2537
(dp2538
g17
I74
sg18
(lp2539
S'``'
p2540
aS'Young'
p2541
aS'!'
p2542
aS"''"
p2543
asg36
(lp2544
V``
p2545
aVYoung
p2546
ag1079
aV''
p2547
asg54
(lp2548
g56
aVPERSON
p2549
ag56
ag56
asg58
(lp2550
g487
ag61
ag67
ag528
asg68
V"Young!"
p2551
sba(i__main__
Sentence
p2552
(dp2553
g17
I75
sg18
(lp2554
S'exclaimed'
p2555
aS'the'
p2556
aS'first'
p2557
aS'speaker'
p2558
aS','
p2559
aS'``'
p2560
aS'why'
p2561
aS'--'
p2562
aS'Oh'
p2563
aS'!'
p2564
asg36
(lp2565
Vexclaim
p2566
aVthe
p2567
aVfirst
p2568
aVspeaker
p2569
ag192
aV``
p2570
aVwhy
p2571
aV--
p2572
aVOh
p2573
ag1079
asg54
(lp2574
g56
ag56
ag56
ag56
ag56
ag56
ag56
ag56
ag56
ag56
asg58
(lp2575
g63
ag64
ag143
ag65
ag216
ag487
ag441
ag217
ag61
ag67
asg68
Vexclaimed the first speaker, "why--Oh!
p2576
sba(i__main__
Sentence
p2577
(dp2578
g17
I76
sg18
(lp2579
S'did'
p2580
aS"n't"
p2581
aS'you'
p2582
aS'catch'
p2583
aS'on'
p2584
aS'?'
p2585
asg36
(lp2586
Vdo
p2587
aVn't
p2588
aVyou
p2589
aVcatch
p2590
aVon
p2591
ag524
asg54
(lp2592
g56
ag56
ag56
ag56
ag56
ag56
asg58
(lp2593
g63
ag62
ag288
ag442
ag60
ag67
asg68
Vdidn't you catch on?
p2594
sba(i__main__
Sentence
p2595
(dp2596
g17
I77
sg18
(lp2597
S'Say'
p2598
aS'--'
p2599
aS'did'
p2600
aS'you'
p2601
aS'ever'
p2602
aS'know'
p2603
aS'an'
p2604
aS'officer'
p2605
aS'to'
p2606
aS'handcuff'
p2607
aS'a'
p2608
aS'prisoner'
p2609
aS'to'
p2610
aS'his'
p2611
aS'right'
p2612
aS'hand'
p2613
aS'?'
p2614
aS"''"
p2615
asg36
(lp2616
VSay
p2617
aV--
p2618
ag2587
aVyou
p2619
aVever
p2620
aVknow
p2621
aVan
p2622
aVofficer
p2623
aVto
p2624
aVhandcuff
p2625
ag120
aVprisoner
p2626
aVto
p2627
aVhis
p2628
aVright
p2629
aVhand
p2630
ag524
aV''
p2631
asg54
(lp2632
g56
ag56
ag56
ag56
ag56
ag56
ag56
ag56
ag56
ag56
ag56
ag56
ag56
ag56
ag56
ag56
ag56
ag56
asg58
(lp2633
g61
ag217
ag63
ag288
ag62
ag442
ag64
ag65
ag445
ag65
ag64
ag65
ag445
ag443
ag65
ag65
ag67
ag528
asg68
VSay--did you ever know an officer to handcuff a prisoner to his right hand?"
p2634
sbasbsS'summary'
p2635
g0
(g7
g2
Ntp2636
Rp2637
(dp2638
g11
S'A perfect combination of subtlety and wit make this story worth reading. OHenrys talent lies in his remarkable ability to express matters with such a graceful delicacy that only an attentive reader can understand their true meaning. An extensive use of symbols spares him the need of saying things directly. In Hearts and Hands, explicit statements are scarce and therefore the storys actual meaning cannot be described as straightforward.\n\n\n\nA couple of men enter a train and place themselves on the only remaining seats; that is how the narration begins. Suddenly, the fine and beautiful woman sitting in front of them raises her head and addresses the younger of them with a certain degree of annoyance. She was evidently very well acquainted with him. When that happens, an explanation had to be made, for the handcuffs linking his right hand to his partners left could not possibly pass unnoticed.\n\n\n\nBeing a marshal, he had to resign his hands freedom in compliment of his duty. His companion was a prisoner in transit to jail. Surprisingly, though, the marshal did not need to account for that, since the prisoner had already done it for him.\n\n\n\nThe woman finds it a bit hard to believe and shows herself astonished at such piece of information. Her sudden encounter with an old friend recalls in her mind, nostalgic memories from the past. Feelings of yearning and melancholy are also present on the tone of her speech.\n\n\n\nThe marshals answers are, however, brief and laconic. There is a certain hint of disinterest on his words, which makes him look almost disdainful.\n\n\n\nEventually, the prisoner makes a rather impolite remark, interrupting the conversation. In a surprisingly authoritarian manner, he utters his wish to have a drink and a cigarette. It is just a mere euphemism for expressing his desire to leave that place.\n\n\n\nAgainst all expectations, the marshal agrees and they both walk away leaving the woman alone. Their sudden departure is made without so much as a farewell, which causes an utterly awkward atmosphere on the place. Even the other passengers know that there is something wrong.\n\n\n\nThe events that have just occurred on the train do not make any sense and many issues remain unresolved. Why did the young man show himself so reluctant to speak with an old friend? For what reason did he yield so quickly to the prisoners request? What was the true relationship between the marshal and the woman?\n\n\n\nAs the story approaches its end, the reader might fear that such questions will not be clarified. Nevertheless, a huge revelation arises at the very last paragraph. Only two sentences suffice to make the whole narration acquire a new and unexpected significance. Love, deceit and pride are then manifested to be the main themes in Hearts and Hands.'
p2639
sg13
(lp2640
(i__main__
Sentence
p2641
(dp2642
g17
I0
sg18
(lp2643
S'A'
p2644
aS'perfect'
p2645
aS'combination'
p2646
aS'of'
p2647
aS'subtlety'
p2648
aS'and'
p2649
aS'wit'
p2650
aS'make'
p2651
aS'this'
p2652
aS'story'
p2653
aS'worth'
p2654
aS'reading'
p2655
aS'.'
p2656
asg36
(lp2657
g1149
aVperfect
p2658
aVcombination
p2659
aVof
p2660
aVsubtlety
p2661
aVand
p2662
aVwit
p2663
aVmake
p2664
aVthis
p2665
aVstory
p2666
aVworth
p2667
aVreading
p2668
ag53
asg54
(lp2669
g56
ag56
ag56
ag56
ag56
ag56
ag56
ag56
ag56
ag56
ag56
ag56
ag56
asg58
(lp2670
g64
ag65
ag65
ag60
ag65
ag83
ag65
ag444
ag64
ag65
ag65
ag65
ag67
asg68
VA perfect combination of subtlety and wit make this story worth reading.
p2671
sba(i__main__
Sentence
p2672
(dp2673
g17
I1
sg18
(lp2674
S'OHenrys'
p2675
aS'talent'
p2676
aS'lies'
p2677
aS'in'
p2678
aS'his'
p2679
aS'remarkable'
p2680
aS'ability'
p2681
aS'to'
p2682
aS'express'
p2683
aS'matters'
p2684
aS'with'
p2685
aS'such'
p2686
aS'a'
p2687
aS'graceful'
p2688
aS'delicacy'
p2689
aS'that'
p2690
aS'only'
p2691
aS'an'
p2692
aS'attentive'
p2693
aS'reader'
p2694
aS'can'
p2695
aS'understand'
p2696
aS'their'
p2697
aS'true'
p2698
aS'meaning'
p2699
aS'.'
p2700
asg36
(lp2701
VOHenrys
p2702
aVtalent
p2703
aVlie
p2704
aVin
p2705
aVhis
p2706
aVremarkable
p2707
aVability
p2708
aVto
p2709
aVexpress
p2710
aVmatter
p2711
aVwith
p2712
aVsuch
p2713
ag120
aVgraceful
p2714
aVdelicacy
p2715
aVthat
p2716
aVonly
p2717
aVan
p2718
aVattentive
p2719
aVreader
p2720
aVcan
p2721
aVunderstand
p2722
aVtheir
p2723
aVtrue
p2724
aVmeaning
p2725
ag53
asg54
(lp2726
g56
ag56
ag56
ag56
ag56
ag56
ag56
ag56
ag56
ag56
ag56
ag56
ag56
ag56
ag56
ag56
ag56
ag56
ag56
ag56
ag56
ag56
ag56
ag56
ag56
ag56
asg58
(lp2727
g66
ag63
ag66
ag60
ag443
ag143
ag65
ag445
ag65
ag66
ag60
ag143
ag64
ag143
ag65
ag605
ag62
ag64
ag143
ag65
ag488
ag444
ag443
ag143
ag65
ag67
asg68
VOHenrys talent lies in his remarkable ability to express matters with such a graceful delicacy that only an attentive reader can understand their true meaning.
p2728
sba(i__main__
Sentence
p2729
(dp2730
g17
I2
sg18
(lp2731
S'An'
p2732
aS'extensive'
p2733
aS'use'
p2734
aS'of'
p2735
aS'symbols'
p2736
aS'spares'
p2737
aS'him'
p2738
aS'the'
p2739
aS'need'
p2740
aS'of'
p2741
aS'saying'
p2742
aS'things'
p2743
aS'directly'
p2744
aS'.'
p2745
asg36
(lp2746
VAn
p2747
aVextensive
p2748
aVuse
p2749
aVof
p2750
aVsymbol
p2751
aVspare
p2752
aVhim
p2753
aVthe
p2754
aVneed
p2755
aVof
p2756
aVsay
p2757
aVthing
p2758
aVdirectly
p2759
ag53
asg54
(lp2760
g56
ag56
ag56
ag56
ag56
ag56
ag56
ag56
ag56
ag56
ag56
ag56
ag56
ag56
asg58
(lp2761
g64
ag143
ag65
ag60
ag66
ag66
ag288
ag64
ag65
ag60
ag289
ag66
ag62
ag67
asg68
VAn extensive use of symbols spares him the need of saying things directly.
p2762
sba(i__main__
Sentence
p2763
(dp2764
g17
I3
sg18
(lp2765
S'In'
p2766
aS'Hearts'
p2767
aS'and'
p2768
aS'Hands'
p2769
aS','
p2770
aS'explicit'
p2771
aS'statements'
p2772
aS'are'
p2773
aS'scarce'
p2774
aS'and'
p2775
aS'therefore'
p2776
aS'the'
p2777
aS'storys'
p2778
aS'actual'
p2779
aS'meaning'
p2780
aS'can'
p2781
aS'not'
p2782
aS'be'
p2783
aS'described'
p2784
aS'as'
p2785
aS'straightforward'
p2786
aS'.'
p2787
asg36
(lp2788
VIn
p2789
aVHearts
p2790
aVand
p2791
aVHands
p2792
ag192
aVexplicit
p2793
aVstatement
p2794
ag1133
aVscarce
p2795
aVand
p2796
aVtherefore
p2797
aVthe
p2798
aVstory
p2799
aVactual
p2800
aVmeaning
p2801
aVcan
p2802
aVnot
p2803
aVbe
p2804
aVdescribe
p2805
ag120
aVstraightforward
p2806
ag53
asg54
(lp2807
g56
ag56
ag56
ag56
ag56
ag56
ag56
ag56
ag56
ag56
ag56
ag56
ag56
ag56
ag56
ag56
ag56
ag56
ag56
ag56
ag56
ag56
asg58
(lp2808
g60
ag66
ag83
ag66
ag216
ag65
ag66
ag442
ag143
ag83
ag62
ag64
ag66
ag143
ag65
ag488
ag62
ag444
ag144
ag60
ag65
ag67
asg68
VIn Hearts and Hands, explicit statements are scarce and therefore the storys actual meaning cannot be described as straightforward.
p2809
sba(i__main__
Sentence
p2810
(dp2811
g17
I4
sg18
(lp2812
S'A'
p2813
aS'couple'
p2814
aS'of'
p2815
aS'men'
p2816
aS'enter'
p2817
aS'a'
p2818
aS'train'
p2819
aS'and'
p2820
aS'place'
p2821
aS'themselves'
p2822
aS'on'
p2823
aS'the'
p2824
aS'only'
p2825
aS'remaining'
p2826
aS'seats'
p2827
aS';'
p2828
aS'that'
p2829
aS'is'
p2830
aS'how'
p2831
aS'the'
p2832
aS'narration'
p2833
aS'begins'
p2834
aS'.'
p2835
asg36
(lp2836
g1149
aVcouple
p2837
aVof
p2838
aVmen
p2839
aVenter
p2840
ag120
aVtrain
p2841
aVand
p2842
aVplace
p2843
aVthemselves
p2844
aVon
p2845
aVthe
p2846
aVonly
p2847
aVremain
p2848
aVseat
p2849
ag203
aVthat
p2850
ag1130
aVhow
p2851
aVthe
p2852
aVnarration
p2853
aVbegin
p2854
ag53
asg54
(lp2855
g56
ag56
ag56
ag56
ag56
ag56
ag56
ag56
ag56
ag56
ag56
ag56
ag56
ag56
ag56
ag56
ag56
ag56
ag56
ag56
ag56
ag56
ag56
asg58
(lp2856
g64
ag65
ag60
ag66
ag604
ag64
ag65
ag83
ag65
ag66
ag60
ag64
ag143
ag289
ag66
ag217
ag64
ag637
ag441
ag64
ag65
ag637
ag67
asg68
VA couple of men enter a train and place themselves on the only remaining seats; that is how the narration begins.
p2857
sba(i__main__
Sentence
p2858
(dp2859
g17
I5
sg18
(lp2860
S'Suddenly'
p2861
aS','
p2862
aS'the'
p2863
aS'fine'
p2864
aS'and'
p2865
aS'beautiful'
p2866
aS'woman'
p2867
aS'sitting'
p2868
aS'in'
p2869
aS'front'
p2870
aS'of'
p2871
aS'them'
p2872
aS'raises'
p2873
aS'her'
p2874
aS'head'
p2875
aS'and'
p2876
aS'addresses'
p2877
aS'the'
p2878
aS'younger'
p2879
aS'of'
p2880
aS'them'
p2881
aS'with'
p2882
aS'a'
p2883
aS'certain'
p2884
aS'degree'
p2885
aS'of'
p2886
aS'annoyance'
p2887
aS'.'
p2888
asg36
(lp2889
VSuddenly
p2890
ag192
aVthe
p2891
aVfine
p2892
aVand
p2893
aVbeautiful
p2894
aVwoman
p2895
aVsit
p2896
aVin
p2897
aVfront
p2898
aVof
p2899
aVthem
p2900
aVraise
p2901
aVher
p2902
aVhead
p2903
aVand
p2904
aVaddress
p2905
aVthe
p2906
ag571
aVof
p2907
aVthem
p2908
aVwith
p2909
ag120
aVcertain
p2910
aVdegree
p2911
aVof
p2912
aVannoyance
p2913
ag53
asg54
(lp2914
g56
ag56
ag56
ag56
ag56
ag56
ag56
ag56
ag56
ag56
ag56
ag56
ag56
ag56
ag56
ag56
ag56
ag56
ag56
ag56
ag56
ag56
ag56
ag56
ag56
ag56
ag56
ag56
asg58
(lp2915
g62
ag216
ag64
ag65
ag83
ag143
ag65
ag289
ag60
ag65
ag60
ag288
ag637
ag443
ag65
ag83
ag66
ag64
ag604
ag60
ag288
ag60
ag64
ag143
ag65
ag60
ag65
ag67
asg68
VSuddenly, the fine and beautiful woman sitting in front of them raises her head and addresses the younger of them with a certain degree of annoyance.
p2916
sba(i__main__
Sentence
p2917
(dp2918
g17
I6
sg18
(lp2919
S'She'
p2920
aS'was'
p2921
aS'evidently'
p2922
aS'very'
p2923
aS'well'
p2924
aS'acquainted'
p2925
aS'with'
p2926
aS'him'
p2927
aS'.'
p2928
asg36
(lp2929
VShe
p2930
ag41
aVevidently
p2931
aVvery
p2932
aVwell
p2933
aVacquaint
p2934
aVwith
p2935
aVhim
p2936
ag53
asg54
(lp2937
g56
ag56
ag56
ag56
ag56
ag56
ag56
ag56
ag56
asg58
(lp2938
g288
ag63
ag62
ag62
ag62
ag144
ag60
ag288
ag67
asg68
VShe was evidently very well acquainted with him.
p2939
sba(i__main__
Sentence
p2940
(dp2941
g17
I7
sg18
(lp2942
S'When'
p2943
aS'that'
p2944
aS'happens'
p2945
aS','
p2946
aS'an'
p2947
aS'explanation'
p2948
aS'had'
p2949
aS'to'
p2950
aS'be'
p2951
aS'made'
p2952
aS','
p2953
aS'for'
p2954
aS'the'
p2955
aS'handcuffs'
p2956
aS'linking'
p2957
aS'his'
p2958
aS'right'
p2959
aS'hand'
p2960
aS'to'
p2961
aS'his'
p2962
aS'partners'
p2963
aS'left'
p2964
aS'could'
p2965
aS'not'
p2966
aS'possibly'
p2967
aS'pass'
p2968
aS'unnoticed'
p2969
aS'.'
p2970
asg36
(lp2971
VWhen
p2972
aVthat
p2973
aVhappen
p2974
ag192
aVan
p2975
aVexplanation
p2976
ag891
aVto
p2977
aVbe
p2978
aVmake
p2979
ag192
aVfor
p2980
aVthe
p2981
aVhandcuff
p2982
aVlink
p2983
aVhis
p2984
aVright
p2985
aVhand
p2986
aVto
p2987
aVhis
p2988
aVpartner
p2989
ag600
aVcould
p2990
aVnot
p2991
aVpossibly
p2992
aVpass
p2993
aVunnoticed
p2994
ag53
asg54
(lp2995
g56
ag56
ag56
ag56
ag56
ag56
ag56
ag56
ag56
ag56
ag56
ag56
ag56
ag56
ag56
ag56
ag56
ag56
ag56
ag56
ag56
ag56
ag56
ag56
ag56
ag56
ag56
ag56
asg58
(lp2996
g441
ag64
ag637
ag216
ag64
ag65
ag63
ag445
ag444
ag144
ag216
ag60
ag64
ag66
ag289
ag443
ag65
ag65
ag445
ag443
ag66
ag144
ag488
ag62
ag62
ag444
ag144
ag67
asg68
VWhen that happens, an explanation had to be made, for the handcuffs linking his right hand to his partners left could not possibly pass unnoticed.
p2997
sba(i__main__
Sentence
p2998
(dp2999
g17
I8
sg18
(lp3000
S'Being'
p3001
aS'a'
p3002
aS'marshal'
p3003
aS','
p3004
aS'he'
p3005
aS'had'
p3006
aS'to'
p3007
aS'resign'
p3008
aS'his'
p3009
aS'hands'
p3010
aS'freedom'
p3011
aS'in'
p3012
aS'compliment'
p3013
aS'of'
p3014
aS'his'
p3015
aS'duty'
p3016
aS'.'
p3017
asg36
(lp3018
VBeing
p3019
ag120
aVmarshal
p3020
ag192
aVhe
p3021
ag891
aVto
p3022
aVresign
p3023
aVhis
p3024
aVhand
p3025
aVfreedom
p3026
aVin
p3027
aVcompliment
p3028
aVof
p3029
aVhis
p3030
aVduty
p3031
ag53
asg54
(lp3032
g56
ag56
ag56
ag56
ag56
ag56
ag56
ag56
ag56
ag56
ag56
ag56
ag56
ag56
ag56
ag56
ag56
asg58
(lp3033
g289
ag64
ag143
ag216
ag288
ag63
ag445
ag444
ag443
ag66
ag65
ag60
ag65
ag60
ag443
ag65
ag67
asg68
VBeing a marshal, he had to resign his hands freedom in compliment of his duty.
p3034
sba(i__main__
Sentence
p3035
(dp3036
g17
I9
sg18
(lp3037
S'His'
p3038
aS'companion'
p3039
aS'was'
p3040
aS'a'
p3041
aS'prisoner'
p3042
aS'in'
p3043
aS'transit'
p3044
aS'to'
p3045
aS'jail'
p3046
aS'.'
p3047
asg36
(lp3048
VHis
p3049
aVcompanion
p3050
ag41
ag120
aVprisoner
p3051
aVin
p3052
aVtransit
p3053
aVto
p3054
aVjail
p3055
ag53
asg54
(lp3056
g56
ag56
ag56
ag56
ag56
ag56
ag56
ag56
ag56
ag56
asg58
(lp3057
g443
ag65
ag63
ag64
ag65
ag60
ag65
ag445
ag65
ag67
asg68
VHis companion was a prisoner in transit to jail.
p3058
sba(i__main__
Sentence
p3059
(dp3060
g17
I10
sg18
(lp3061
S'Surprisingly'
p3062
aS','
p3063
aS'though'
p3064
aS','
p3065
aS'the'
p3066
aS'marshal'
p3067
aS'did'
p3068
aS'not'
p3069
aS'need'
p3070
aS'to'
p3071
aS'account'
p3072
aS'for'
p3073
aS'that'
p3074
aS','
p3075
aS'since'
p3076
aS'the'
p3077
aS'prisoner'
p3078
aS'had'
p3079
aS'already'
p3080
aS'done'
p3081
aS'it'
p3082
aS'for'
p3083
aS'him'
p3084
aS'.'
p3085
asg36
(lp3086
VSurprisingly
p3087
ag192
aVthough
p3088
ag192
aVthe
p3089
aVmarshal
p3090
ag2587
aVnot
p3091
aVneed
p3092
aVto
p3093
aVaccount
p3094
aVfor
p3095
aVthat
p3096
ag192
aVsince
p3097
aVthe
p3098
aVprisoner
p3099
ag891
aValready
p3100
ag1355
aVit
p3101
aVfor
p3102
aVhim
p3103
ag53
asg54
(lp3104
g56
ag56
ag56
ag56
ag56
ag56
ag56
ag56
ag56
ag56
ag56
ag56
ag56
ag56
ag56
ag56
ag56
ag56
ag56
ag56
ag56
ag56
ag56
ag56
asg58
(lp3105
g62
ag216
ag60
ag216
ag64
ag143
ag63
ag62
ag144
ag445
ag65
ag60
ag64
ag216
ag60
ag64
ag65
ag63
ag62
ag144
ag288
ag60
ag288
ag67
asg68
VSurprisingly, though, the marshal did not need to account for that, since the prisoner had already done it for him.
p3106
sba(i__main__
Sentence
p3107
(dp3108
g17
I11
sg18
(lp3109
S'The'
p3110
aS'woman'
p3111
aS'finds'
p3112
aS'it'
p3113
aS'a'
p3114
aS'bit'
p3115
aS'hard'
p3116
aS'to'
p3117
aS'believe'
p3118
aS'and'
p3119
aS'shows'
p3120
aS'herself'
p3121
aS'astonished'
p3122
aS'at'
p3123
aS'such'
p3124
aS'piece'
p3125
aS'of'
p3126
aS'information'
p3127
aS'.'
p3128
asg36
(lp3129
VThe
p3130
aVwoman
p3131
aVfind
p3132
aVit
p3133
ag120
aVbit
p3134
aVhard
p3135
aVto
p3136
aVbelieve
p3137
aVand
p3138
aVshow
p3139
aVherself
p3140
aVastonish
p3141
aVat
p3142
aVsuch
p3143
aVpiece
p3144
aVof
p3145
aVinformation
p3146
ag53
asg54
(lp3147
g56
ag56
ag56
ag56
ag56
ag56
ag56
ag56
ag56
ag56
ag56
ag56
ag56
ag56
ag56
ag56
ag56
ag56
ag56
asg58
(lp3148
g64
ag65
ag66
ag288
ag64
ag65
ag65
ag445
ag444
ag83
ag66
ag288
ag63
ag60
ag143
ag65
ag60
ag65
ag67
asg68
VThe woman finds it a bit hard to believe and shows herself astonished at such piece of information.
p3149
sba(i__main__
Sentence
p3150
(dp3151
g17
I12
sg18
(lp3152
S'Her'
p3153
aS'sudden'
p3154
aS'encounter'
p3155
aS'with'
p3156
aS'an'
p3157
aS'old'
p3158
aS'friend'
p3159
aS'recalls'
p3160
aS'in'
p3161
aS'her'
p3162
aS'mind'
p3163
aS','
p3164
aS'nostalgic'
p3165
aS'memories'
p3166
aS'from'
p3167
aS'the'
p3168
aS'past'
p3169
aS'.'
p3170
asg36
(lp3171
VHer
p3172
aVsudden
p3173
aVencounter
p3174
aVwith
p3175
aVan
p3176
aVold
p3177
aVfriend
p3178
aVrecall
p3179
aVin
p3180
aVher
p3181
aVmind
p3182
ag192
aVnostalgic
p3183
aVmemory
p3184
aVfrom
p3185
aVthe
p3186
aVpast
p3187
ag53
asg54
(lp3188
g56
ag56
ag56
ag56
ag56
ag56
ag56
ag56
ag56
ag56
ag56
ag56
ag56
ag56
ag56
ag56
ag56
ag56
asg58
(lp3189
g443
ag144
ag65
ag60
ag64
ag143
ag65
ag66
ag60
ag443
ag65
ag216
ag143
ag66
ag60
ag64
ag143
ag67
asg68
VHer sudden encounter with an old friend recalls in her mind, nostalgic memories from the past.
p3190
sba(i__main__
Sentence
p3191
(dp3192
g17
I13
sg18
(lp3193
S'Feelings'
p3194
aS'of'
p3195
aS'yearning'
p3196
aS'and'
p3197
aS'melancholy'
p3198
aS'are'
p3199
aS'also'
p3200
aS'present'
p3201
aS'on'
p3202
aS'the'
p3203
aS'tone'
p3204
aS'of'
p3205
aS'her'
p3206
aS'speech'
p3207
aS'.'
p3208
asg36
(lp3209
VFeelings
p3210
aVof
p3211
aVyearn
p3212
aVand
p3213
aVmelancholy
p3214
ag1133
aValso
p3215
aVpresent
p3216
aVon
p3217
aVthe
p3218
aVtone
p3219
aVof
p3220
aVher
p3221
aVspeech
p3222
ag53
asg54
(lp3223
g56
ag56
ag56
ag56
ag56
ag56
ag56
ag56
ag56
ag56
ag56
ag56
ag56
ag56
ag56
asg58
(lp3224
g66
ag60
ag289
ag83
ag62
ag442
ag62
ag143
ag60
ag64
ag65
ag60
ag443
ag65
ag67
asg68
VFeelings of yearning and melancholy are also present on the tone of her speech.
p3225
sba(i__main__
Sentence
p3226
(dp3227
g17
I14
sg18
(lp3228
S'The'
p3229
aS'marshals'
p3230
aS'answers'
p3231
aS'are'
p3232
aS','
p3233
aS'however'
p3234
aS','
p3235
aS'brief'
p3236
aS'and'
p3237
aS'laconic'
p3238
aS'.'
p3239
asg36
(lp3240
VThe
p3241
aVmarshal
p3242
aVanswer
p3243
ag1133
ag192
aVhowever
p3244
ag192
aVbrief
p3245
aVand
p3246
aVlaconic
p3247
ag53
asg54
(lp3248
g56
ag56
ag56
ag56
ag56
ag56
ag56
ag56
ag56
ag56
ag56
asg58
(lp3249
g64
ag66
ag66
ag442
ag216
ag62
ag216
ag143
ag83
ag143
ag67
asg68
VThe marshals answers are, however, brief and laconic.
p3250
sba(i__main__
Sentence
p3251
(dp3252
g17
I15
sg18
(lp3253
S'There'
p3254
aS'is'
p3255
aS'a'
p3256
aS'certain'
p3257
aS'hint'
p3258
aS'of'
p3259
aS'disinterest'
p3260
aS'on'
p3261
aS'his'
p3262
aS'words'
p3263
aS','
p3264
aS'which'
p3265
aS'makes'
p3266
aS'him'
p3267
aS'look'
p3268
aS'almost'
p3269
aS'disdainful'
p3270
aS'.'
p3271
asg36
(lp3272
VThere
p3273
ag1130
ag120
aVcertain
p3274
aVhint
p3275
aVof
p3276
aVdisinterest
p3277
aVon
p3278
aVhis
p3279
aVword
p3280
ag192
aVwhich
p3281
aVmake
p3282
aVhim
p3283
aVlook
p3284
aValmost
p3285
aVdisdainful
p3286
ag53
asg54
(lp3287
g56
ag56
ag56
ag56
ag56
ag56
ag56
ag56
ag56
ag56
ag56
ag56
ag56
ag56
ag56
ag56
ag56
ag56
asg58
(lp3288
g1022
ag637
ag64
ag143
ag65
ag60
ag65
ag60
ag443
ag66
ag216
ag605
ag637
ag288
ag442
ag62
ag143
ag67
asg68
VThere is a certain hint of disinterest on his words, which makes him look almost disdainful.
p3289
sba(i__main__
Sentence
p3290
(dp3291
g17
I16
sg18
(lp3292
S'Eventually'
p3293
aS','
p3294
aS'the'
p3295
aS'prisoner'
p3296
aS'makes'
p3297
aS'a'
p3298
aS'rather'
p3299
aS'impolite'
p3300
aS'remark'
p3301
aS','
p3302
aS'interrupting'
p3303
aS'the'
p3304
aS'conversation'
p3305
aS'.'
p3306
asg36
(lp3307
VEventually
p3308
ag192
aVthe
p3309
aVprisoner
p3310
aVmake
p3311
ag120
aVrather
p3312
aVimpolite
p3313
aVremark
p3314
ag192
aVinterrupt
p3315
aVthe
p3316
aVconversation
p3317
ag53
asg54
(lp3318
g56
ag56
ag56
ag56
ag56
ag56
ag56
ag56
ag56
ag56
ag56
ag56
ag56
ag56
asg58
(lp3319
g62
ag216
ag64
ag65
ag637
ag64
ag62
ag143
ag65
ag216
ag289
ag64
ag65
ag67
asg68
VEventually, the prisoner makes a rather impolite remark, interrupting the conversation.
p3320
sba(i__main__
Sentence
p3321
(dp3322
g17
I17
sg18
(lp3323
S'In'
p3324
aS'a'
p3325
aS'surprisingly'
p3326
aS'authoritarian'
p3327
aS'manner'
p3328
aS','
p3329
aS'he'
p3330
aS'utters'
p3331
aS'his'
p3332
aS'wish'
p3333
aS'to'
p3334
aS'have'
p3335
aS'a'
p3336
aS'drink'
p3337
aS'and'
p3338
aS'a'
p3339
aS'cigarette'
p3340
aS'.'
p3341
asg36
(lp3342
VIn
p3343
ag120
aVsurprisingly
p3344
aVauthoritarian
p3345
aVmanner
p3346
ag192
aVhe
p3347
aVutter
p3348
aVhis
p3349
aVwish
p3350
aVto
p3351
aVhave
p3352
ag120
aVdrink
p3353
aVand
p3354
ag120
aVcigarette
p3355
ag53
asg54
(lp3356
g56
ag56
ag56
ag56
ag56
ag56
ag56
ag56
ag56
ag56
ag56
ag56
ag56
ag56
ag56
ag56
ag56
ag56
asg58
(lp3357
g60
ag64
ag62
ag143
ag65
ag216
ag288
ag637
ag443
ag65
ag445
ag444
ag64
ag65
ag83
ag64
ag65
ag67
asg68
VIn a surprisingly authoritarian manner, he utters his wish to have a drink and a cigarette.
p3358
sba(i__main__
Sentence
p3359
(dp3360
g17
I18
sg18
(lp3361
S'It'
p3362
aS'is'
p3363
aS'just'
p3364
aS'a'
p3365
aS'mere'
p3366
aS'euphemism'
p3367
aS'for'
p3368
aS'expressing'
p3369
aS'his'
p3370
aS'desire'
p3371
aS'to'
p3372
aS'leave'
p3373
aS'that'
p3374
aS'place'
p3375
aS'.'
p3376
asg36
(lp3377
VIt
p3378
ag1130
aVjust
p3379
ag120
aVmere
p3380
aVeuphemism
p3381
aVfor
p3382
aVexpress
p3383
aVhis
p3384
aVdesire
p3385
aVto
p3386
aVleave
p3387
aVthat
p3388
aVplace
p3389
ag53
asg54
(lp3390
g56
ag56
ag56
ag56
ag56
ag56
ag56
ag56
ag56
ag56
ag56
ag56
ag56
ag56
ag56
asg58
(lp3391
g288
ag637
ag62
ag64
ag143
ag65
ag60
ag289
ag443
ag65
ag445
ag444
ag60
ag65
ag67
asg68
VIt is just a mere euphemism for expressing his desire to leave that place.
p3392
sba(i__main__
Sentence
p3393
(dp3394
g17
I19
sg18
(lp3395
S'Against'
p3396
aS'all'
p3397
aS'expectations'
p3398
aS','
p3399
aS'the'
p3400
aS'marshal'
p3401
aS'agrees'
p3402
aS'and'
p3403
aS'they'
p3404
aS'both'
p3405
aS'walk'
p3406
aS'away'
p3407
aS'leaving'
p3408
aS'the'
p3409
aS'woman'
p3410
aS'alone'
p3411
aS'.'
p3412
asg36
(lp3413
VAgainst
p3414
aVall
p3415
aVexpectation
p3416
ag192
aVthe
p3417
aVmarshal
p3418
aVagrees
p3419
aVand
p3420
aVthey
p3421
aVboth
p3422
aVwalk
p3423
aVaway
p3424
aVleave
p3425
aVthe
p3426
aVwoman
p3427
aValone
p3428
ag53
asg54
(lp3429
g56
ag56
ag56
ag56
ag56
ag56
ag56
ag56
ag56
ag56
ag56
ag56
ag56
ag56
ag56
ag56
ag56
asg58
(lp3430
g60
ag64
ag66
ag216
ag64
ag143
ag66
ag83
ag288
ag64
ag65
ag62
ag289
ag64
ag65
ag65
ag67
asg68
VAgainst all expectations, the marshal agrees and they both walk away leaving the woman alone.
p3431
sba(i__main__
Sentence
p3432
(dp3433
g17
I20
sg18
(lp3434
S'Their'
p3435
aS'sudden'
p3436
aS'departure'
p3437
aS'is'
p3438
aS'made'
p3439
aS'without'
p3440
aS'so'
p3441
aS'much'
p3442
aS'as'
p3443
aS'a'
p3444
aS'farewell'
p3445
aS','
p3446
aS'which'
p3447
aS'causes'
p3448
aS'an'
p3449
aS'utterly'
p3450
aS'awkward'
p3451
aS'atmosphere'
p3452
aS'on'
p3453
aS'the'
p3454
aS'place'
p3455
aS'.'
p3456
asg36
(lp3457
VTheir
p3458
aVsudden
p3459
aVdeparture
p3460
ag1130
ag2979
aVwithout
p3461
aVso
p3462
aVmuch
p3463
ag120
ag120
aVfarewell
p3464
ag192
aVwhich
p3465
aVcause
p3466
aVan
p3467
aVutterly
p3468
aVawkward
p3469
aVatmosphere
p3470
aVon
p3471
aVthe
p3472
aVplace
p3473
ag53
asg54
(lp3474
g56
ag56
ag56
ag56
ag56
ag56
ag56
ag56
ag56
ag56
ag56
ag56
ag56
ag56
ag56
ag56
ag56
ag56
ag56
ag56
ag56
ag56
asg58
(lp3475
g443
ag144
ag65
ag637
ag144
ag60
ag62
ag62
ag60
ag64
ag65
ag216
ag605
ag66
ag64
ag62
ag143
ag65
ag60
ag64
ag65
ag67
asg68
VTheir sudden departure is made without so much as a farewell, which causes an utterly awkward atmosphere on the place.
p3476
sba(i__main__
Sentence
p3477
(dp3478
g17
I21
sg18
(lp3479
S'Even'
p3480
aS'the'
p3481
aS'other'
p3482
aS'passengers'
p3483
aS'know'
p3484
aS'that'
p3485
aS'there'
p3486
aS'is'
p3487
aS'something'
p3488
aS'wrong'
p3489
aS'.'
p3490
asg36
(lp3491
VEven
p3492
aVthe
p3493
aVother
p3494
aVpassenger
p3495
aVknow
p3496
aVthat
p3497
aVthere
p3498
ag1130
aVsomething
p3499
aVwrong
p3500
ag53
asg54
(lp3501
g56
ag56
ag56
ag56
ag56
ag56
ag56
ag56
ag56
ag56
ag56
asg58
(lp3502
g62
ag64
ag143
ag66
ag442
ag60
ag1022
ag637
ag65
ag143
ag67
asg68
VEven the other passengers know that there is something wrong.
p3503
sba(i__main__
Sentence
p3504
(dp3505
g17
I22
sg18
(lp3506
S'The'
p3507
aS'events'
p3508
aS'that'
p3509
aS'have'
p3510
aS'just'
p3511
aS'occurred'
p3512
aS'on'
p3513
aS'the'
p3514
aS'train'
p3515
aS'do'
p3516
aS'not'
p3517
aS'make'
p3518
aS'any'
p3519
aS'sense'
p3520
aS'and'
p3521
aS'many'
p3522
aS'issues'
p3523
aS'remain'
p3524
aS'unresolved'
p3525
aS'.'
p3526
asg36
(lp3527
VThe
p3528
aVevent
p3529
aVthat
p3530
aVhave
p3531
aVjust
p3532
aVoccur
p3533
aVon
p3534
aVthe
p3535
aVtrain
p3536
aVdo
p3537
aVnot
p3538
aVmake
p3539
aVany
p3540
aVsense
p3541
aVand
p3542
aVmany
p3543
aVissue
p3544
aVremain
p3545
aVunresolved
p3546
ag53
asg54
(lp3547
g56
ag56
ag56
ag56
ag56
ag56
ag56
ag56
ag56
ag56
ag56
ag56
ag56
ag56
ag56
ag56
ag56
ag56
ag56
ag56
asg58
(lp3548
g64
ag66
ag605
ag442
ag62
ag144
ag60
ag64
ag65
ag442
ag62
ag444
ag64
ag65
ag83
ag143
ag66
ag442
ag144
ag67
asg68
VThe events that have just occurred on the train do not make any sense and many issues remain unresolved.
p3549
sba(i__main__
Sentence
p3550
(dp3551
g17
I23
sg18
(lp3552
S'Why'
p3553
aS'did'
p3554
aS'the'
p3555
aS'young'
p3556
aS'man'
p3557
aS'show'
p3558
aS'himself'
p3559
aS'so'
p3560
aS'reluctant'
p3561
aS'to'
p3562
aS'speak'
p3563
aS'with'
p3564
aS'an'
p3565
aS'old'
p3566
aS'friend'
p3567
aS'?'
p3568
asg36
(lp3569
VWhy
p3570
ag2587
aVthe
p3571
aVyoung
p3572
aVman
p3573
aVshow
p3574
aVhimself
p3575
aVso
p3576
aVreluctant
p3577
aVto
p3578
aVspeak
p3579
aVwith
p3580
aVan
p3581
aVold
p3582
aVfriend
p3583
ag524
asg54
(lp3584
g56
ag56
ag56
ag56
ag56
ag56
ag56
ag56
ag56
ag56
ag56
ag56
ag56
ag56
ag56
ag56
asg58
(lp3585
g441
ag63
ag64
ag143
ag65
ag65
ag288
ag62
ag143
ag445
ag444
ag60
ag64
ag143
ag65
ag67
asg68
VWhy did the young man show himself so reluctant to speak with an old friend?
p3586
sba(i__main__
Sentence
p3587
(dp3588
g17
I24
sg18
(lp3589
S'For'
p3590
aS'what'
p3591
aS'reason'
p3592
aS'did'
p3593
aS'he'
p3594
aS'yield'
p3595
aS'so'
p3596
aS'quickly'
p3597
aS'to'
p3598
aS'the'
p3599
aS'prisoners'
p3600
aS'request'
p3601
aS'?'
p3602
asg36
(lp3603
VFor
p3604
aVwhat
p3605
aVreason
p3606
ag2587
aVhe
p3607
aVyield
p3608
aVso
p3609
aVquickly
p3610
aVto
p3611
aVthe
p3612
aVprisoner
p3613
aVrequest
p3614
ag524
asg54
(lp3615
g56
ag56
ag56
ag56
ag56
ag56
ag56
ag56
ag56
ag56
ag56
ag56
ag56
asg58
(lp3616
g60
ag1139
ag65
ag63
ag288
ag63
ag62
ag62
ag445
ag64
ag66
ag442
ag67
asg68
VFor what reason did he yield so quickly to the prisoners request?
p3617
sba(i__main__
Sentence
p3618
(dp3619
g17
I25
sg18
(lp3620
S'What'
p3621
aS'was'
p3622
aS'the'
p3623
aS'true'
p3624
aS'relationship'
p3625
aS'between'
p3626
aS'the'
p3627
aS'marshal'
p3628
aS'and'
p3629
aS'the'
p3630
aS'woman'
p3631
aS'?'
p3632
asg36
(lp3633
VWhat
p3634
ag41
aVthe
p3635
aVtrue
p3636
aVrelationship
p3637
aVbetween
p3638
aVthe
p3639
aVmarshal
p3640
aVand
p3641
aVthe
p3642
aVwoman
p3643
ag524
asg54
(lp3644
g56
ag56
ag56
ag56
ag56
ag56
ag56
ag56
ag56
ag56
ag56
ag56
asg58
(lp3645
g1139
ag63
ag64
ag143
ag65
ag60
ag64
ag143
ag83
ag64
ag65
ag67
asg68
VWhat was the true relationship between the marshal and the woman?
p3646
sba(i__main__
Sentence
p3647
(dp3648
g17
I26
sg18
(lp3649
S'As'
p3650
aS'the'
p3651
aS'story'
p3652
aS'approaches'
p3653
aS'its'
p3654
aS'end'
p3655
aS','
p3656
aS'the'
p3657
aS'reader'
p3658
aS'might'
p3659
aS'fear'
p3660
aS'that'
p3661
aS'such'
p3662
aS'questions'
p3663
aS'will'
p3664
aS'not'
p3665
aS'be'
p3666
aS'clarified'
p3667
aS'.'
p3668
asg36
(lp3669
VAs
p3670
aVthe
p3671
aVstory
p3672
aVapproach
p3673
aVit
p3674
aVend
p3675
ag192
aVthe
p3676
aVreader
p3677
aVmight
p3678
aVfear
p3679
aVthat
p3680
aVsuch
p3681
aVquestion
p3682
aVwill
p3683
aVnot
p3684
aVbe
p3685
aVclarify
p3686
ag53
asg54
(lp3687
g56
ag56
ag56
ag56
ag56
ag56
ag56
ag56
ag56
ag56
ag56
ag56
ag56
ag56
ag56
ag56
ag56
ag56
ag56
asg58
(lp3688
g60
ag64
ag65
ag637
ag443
ag65
ag216
ag64
ag65
ag488
ag444
ag60
ag143
ag66
ag488
ag62
ag444
ag144
ag67
asg68
VAs the story approaches its end, the reader might fear that such questions will not be clarified.
p3689
sba(i__main__
Sentence
p3690
(dp3691
g17
I27
sg18
(lp3692
S'Nevertheless'
p3693
aS','
p3694
aS'a'
p3695
aS'huge'
p3696
aS'revelation'
p3697
aS'arises'
p3698
aS'at'
p3699
aS'the'
p3700
aS'very'
p3701
aS'last'
p3702
aS'paragraph'
p3703
aS'.'
p3704
asg36
(lp3705
VNevertheless
p3706
ag192
ag120
aVhuge
p3707
aVrevelation
p3708
aVarises
p3709
aVat
p3710
aVthe
p3711
aVvery
p3712
aVlast
p3713
aVparagraph
p3714
ag53
asg54
(lp3715
g56
ag56
ag56
ag56
ag56
ag56
ag56
ag56
ag56
ag56
ag56
ag56
asg58
(lp3716
g62
ag216
ag64
ag143
ag65
ag66
ag60
ag64
ag62
ag143
ag65
ag67
asg68
VNevertheless, a huge revelation arises at the very last paragraph.
p3717
sba(i__main__
Sentence
p3718
(dp3719
g17
I28
sg18
(lp3720
S'Only'
p3721
aS'two'
p3722
aS'sentences'
p3723
aS'suffice'
p3724
aS'to'
p3725
aS'make'
p3726
aS'the'
p3727
aS'whole'
p3728
aS'narration'
p3729
aS'acquire'
p3730
aS'a'
p3731
aS'new'
p3732
aS'and'
p3733
aS'unexpected'
p3734
aS'significance'
p3735
aS'.'
p3736
asg36
(lp3737
VOnly
p3738
aVtwo
p3739
aVsentence
p3740
aVsuffice
p3741
aVto
p3742
aVmake
p3743
aVthe
p3744
aVwhole
p3745
aVnarration
p3746
aVacquire
p3747
ag120
aVnew
p3748
aVand
p3749
aVunexpected
p3750
aVsignificance
p3751
ag53
asg54
(lp3752
g56
ag56
ag56
ag56
ag56
ag56
ag56
ag56
ag56
ag56
ag56
ag56
ag56
ag56
ag56
ag56
asg58
(lp3753
g62
ag142
ag66
ag65
ag445
ag444
ag64
ag143
ag65
ag65
ag64
ag143
ag83
ag144
ag65
ag67
asg68
VOnly two sentences suffice to make the whole narration acquire a new and unexpected significance.
p3754
sba(i__main__
Sentence
p3755
(dp3756
g17
I29
sg18
(lp3757
S'Love'
p3758
aS','
p3759
aS'deceit'
p3760
aS'and'
p3761
aS'pride'
p3762
aS'are'
p3763
aS'then'
p3764
aS'manifested'
p3765
aS'to'
p3766
aS'be'
p3767
aS'the'
p3768
aS'main'
p3769
aS'themes'
p3770
aS'in'
p3771
aS'Hearts'
p3772
aS'and'
p3773
aS'Hands'
p3774
aS'.'
p3775
asg36
(lp3776
VLove
p3777
ag192
aVdeceit
p3778
aVand
p3779
aVpride
p3780
ag1133
aVthen
p3781
aVmanifest
p3782
aVto
p3783
aVbe
p3784
aVthe
p3785
aVmain
p3786
aVtheme
p3787
aVin
p3788
aVHearts
p3789
aVand
p3790
aVHands
p3791
ag53
asg54
(lp3792
g56
ag56
ag56
ag56
ag56
ag56
ag56
ag56
ag56
ag56
ag56
ag56
ag56
ag56
ag56
ag56
ag56
ag56
asg58
(lp3793
g61
ag216
ag65
ag83
ag444
ag442
ag62
ag144
ag445
ag444
ag64
ag143
ag66
ag60
ag66
ag83
ag66
ag67
asg68
VLove, deceit and pride are then manifested to be the main themes in Hearts and Hands.
p3794
sbasbsS'name'
p3795
S'Hearts And Hands'
p3796
sS'summaries'
p3797
(lp3798
g2637
asb.