ccopy_reg
_reconstructor
p0
(c__main__
Story
p1
c__builtin__
object
p2
Ntp3
Rp4
(dp5
S'text'
p6
g0
(c__main__
Document
p7
g2
Ntp8
Rp9
(dp10
S'_Document__initialContent'
p11
S'In former times, when God himself still walked the earth, the\nfruitfulness of the soil was much greater than it is now.  Then\nthe ears of corn did not bear fifty or sixty, but four or five\nhundred-fold.  Then the corn grew from the bottom to the very top\nof the stalk, and according to the length of the stalk was the\nlength of the ear.  Men however are so made, that when they are\ntoo well off they no longer value the blessings which come from\nGod, but grow indifferent and careless.  One day a woman was\npassing by a corn-field when her little child, who was running\nbeside her, fell into a puddle, and dirtied her frock.  On this\nthe mother tore up a handful of the beautiful ears of corn, and\ncleaned the frock with them.\nWhen the Lord, who just then came by, saw that, he was angry,\nand said, henceforth shall the stalks of corn bear no more ears,\nmen are no longer worthy of heavenly gifts.  The by-standers who\nheard this, were terrified, and fell on their knees and prayed\nthat he would still leave something on the stalks, even if the\npeople were undeserving of it, for the sake of the innocent\nchickens which would otherwise have to starve.  The Lord, who\nforesaw their suffering, had pity on them, and granted the\nrequest.  So the ears were left as they now grow.\n'
p12
sS'sentences'
p13
(lp14
(i__main__
Sentence
p15
(dp16
S'index'
p17
I0
sS'words'
p18
(lp19
S'In'
p20
aS'former'
p21
aS'times'
p22
aS','
p23
aS'when'
p24
aS'God'
p25
aS'himself'
p26
aS'still'
p27
aS'walked'
p28
aS'the'
p29
aS'earth'
p30
aS','
p31
aS'the'
p32
aS'fruitfulness'
p33
aS'of'
p34
aS'the'
p35
aS'soil'
p36
aS'was'
p37
aS'much'
p38
aS'greater'
p39
aS'than'
p40
aS'it'
p41
aS'is'
p42
aS'now'
p43
aS'.'
p44
asS'lemmas'
p45
(lp46
VIn
p47
aVformer
p48
aVtime
p49
aV,
p50
aVwhen
p51
aVGod
p52
aVhimself
p53
aVstill
p54
aVwalk
p55
aVthe
p56
aVearth
p57
ag50
aVthe
p58
aVfruitfulness
p59
aVof
p60
aVthe
p61
aVsoil
p62
aVbe
p63
aVmuch
p64
aVgreat
p65
aVthan
p66
aVit
p67
aVbe
p68
aVnow
p69
aV.
p70
asS'nerTags'
p71
(lp72
VO
p73
ag73
ag73
ag73
ag73
ag73
ag73
ag73
ag73
ag73
ag73
ag73
ag73
ag73
ag73
ag73
ag73
ag73
ag73
ag73
ag73
ag73
ag73
ag73
ag73
asS'posTags'
p74
(lp75
S'IN'
p76
aS'JJ'
p77
aS'NNS'
p78
aS','
p79
aS'WRB'
p80
aS'NNP'
p81
aS'PRP'
p82
aS'RB'
p83
aS'VBD'
p84
aS'DT'
p85
aS'NN'
p86
ag79
ag85
ag86
ag76
ag85
ag86
ag84
ag83
aS'JJR'
p87
ag76
ag82
aS'VBZ'
p88
ag83
aS'.'
p89
asS'_Sentence__initialContent'
p90
VIn former times, when God himself still walked the earth, the fruitfulness of the soil was much greater than it is now.
p91
sba(i__main__
Sentence
p92
(dp93
g17
I1
sg18
(lp94
S'Then'
p95
aS'the'
p96
aS'ears'
p97
aS'of'
p98
aS'corn'
p99
aS'did'
p100
aS'not'
p101
aS'bear'
p102
aS'fifty'
p103
aS'or'
p104
aS'sixty'
p105
aS','
p106
aS'but'
p107
aS'four'
p108
aS'or'
p109
aS'five'
p110
aS'hundred-fold'
p111
aS'.'
p112
asg45
(lp113
VThen
p114
aVthe
p115
aVear
p116
aVof
p117
aVcorn
p118
aVdo
p119
aVnot
p120
aVbear
p121
aVfifty
p122
aVor
p123
aVsixty
p124
ag50
aVbut
p125
aVfour
p126
aVor
p127
aVfive
p128
aVhundred-fold
p129
ag70
asg71
(lp130
g73
ag73
ag73
ag73
ag73
ag73
ag73
ag73
ag73
ag73
ag73
ag73
ag73
ag73
ag73
ag73
ag73
ag73
asg74
(lp131
g83
ag85
ag78
ag76
ag86
ag84
ag83
aS'VB'
p132
ag77
aS'CC'
p133
ag86
ag79
ag133
aS'CD'
p134
ag133
ag134
ag77
ag89
asg90
VThen the ears of corn did not bear fifty or sixty, but four or five hundred-fold.
p135
sba(i__main__
Sentence
p136
(dp137
g17
I2
sg18
(lp138
S'Then'
p139
aS'the'
p140
aS'corn'
p141
aS'grew'
p142
aS'from'
p143
aS'the'
p144
aS'bottom'
p145
aS'to'
p146
aS'the'
p147
aS'very'
p148
aS'top'
p149
aS'of'
p150
aS'the'
p151
aS'stalk'
p152
aS','
p153
aS'and'
p154
aS'according'
p155
aS'to'
p156
aS'the'
p157
aS'length'
p158
aS'of'
p159
aS'the'
p160
aS'stalk'
p161
aS'was'
p162
aS'the'
p163
aS'length'
p164
aS'of'
p165
aS'the'
p166
aS'ear'
p167
aS'.'
p168
asg45
(lp169
VThen
p170
aVthe
p171
aVcorn
p172
aVgrow
p173
aVfrom
p174
aVthe
p175
aVbottom
p176
aVto
p177
aVthe
p178
aVvery
p179
aVtop
p180
aVof
p181
aVthe
p182
aVstalk
p183
ag50
aVand
p184
aVaccord
p185
aVto
p186
aVthe
p187
aVlength
p188
aVof
p189
aVthe
p190
aVstalk
p191
ag63
aVthe
p192
aVlength
p193
aVof
p194
aVthe
p195
aVear
p196
ag70
asg71
(lp197
g73
ag73
ag73
ag73
ag73
ag73
ag73
ag73
ag73
ag73
ag73
ag73
ag73
ag73
ag73
ag73
ag73
ag73
ag73
ag73
ag73
ag73
ag73
ag73
ag73
ag73
ag73
ag73
ag73
ag73
asg74
(lp198
g83
ag85
ag86
ag84
ag76
ag85
ag86
aS'TO'
p199
ag85
ag77
ag77
ag76
ag85
ag86
ag79
ag133
aS'VBG'
p200
ag199
ag85
ag86
ag76
ag85
ag86
ag84
ag85
ag86
ag76
ag85
ag77
ag89
asg90
VThen the corn grew from the bottom to the very top of the stalk, and according to the length of the stalk was the length of the ear.
p201
sba(i__main__
Sentence
p202
(dp203
g17
I3
sg18
(lp204
S'Men'
p205
aS'however'
p206
aS'are'
p207
aS'so'
p208
aS'made'
p209
aS','
p210
aS'that'
p211
aS'when'
p212
aS'they'
p213
aS'are'
p214
aS'too'
p215
aS'well'
p216
aS'off'
p217
aS'they'
p218
aS'no'
p219
aS'longer'
p220
aS'value'
p221
aS'the'
p222
aS'blessings'
p223
aS'which'
p224
aS'come'
p225
aS'from'
p226
aS'God'
p227
aS','
p228
aS'but'
p229
aS'grow'
p230
aS'indifferent'
p231
aS'and'
p232
aS'careless'
p233
aS'.'
p234
asg45
(lp235
VMen
p236
aVhowever
p237
aVbe
p238
aVso
p239
aVmake
p240
ag50
aVthat
p241
aVwhen
p242
aVthey
p243
ag238
aVtoo
p244
aVwell
p245
aVoff
p246
aVthey
p247
aVno
p248
aVlonger
p249
aVvalue
p250
aVthe
p251
aVblessing
p252
aVwhich
p253
aVcome
p254
aVfrom
p255
aVGod
p256
ag50
aVbut
p257
aVgrow
p258
aVindifferent
p259
aVand
p260
aVcareless
p261
ag70
asg71
(lp262
g73
ag73
ag73
ag73
ag73
ag73
ag73
ag73
ag73
ag73
ag73
ag73
ag73
ag73
ag73
ag73
ag73
ag73
ag73
ag73
ag73
ag73
ag73
ag73
ag73
ag73
ag73
ag73
ag73
ag73
asg74
(lp263
g78
ag83
aS'VBP'
p264
ag83
aS'VBN'
p265
ag79
ag76
ag80
ag82
ag264
ag83
ag83
ag76
ag82
ag85
ag86
ag86
ag85
ag78
aS'WDT'
p266
ag265
ag76
ag81
ag79
ag133
ag86
ag86
ag133
ag86
ag89
asg90
VMen however are so made, that when they are too well off they no longer value the blessings which come from God, but grow indifferent and careless.
p267
sba(i__main__
Sentence
p268
(dp269
g17
I4
sg18
(lp270
S'One'
p271
aS'day'
p272
aS'a'
p273
aS'woman'
p274
aS'was'
p275
aS'passing'
p276
aS'by'
p277
aS'a'
p278
aS'corn-field'
p279
aS'when'
p280
aS'her'
p281
aS'little'
p282
aS'child'
p283
aS','
p284
aS'who'
p285
aS'was'
p286
aS'running'
p287
aS'beside'
p288
aS'her'
p289
aS','
p290
aS'fell'
p291
aS'into'
p292
aS'a'
p293
aS'puddle'
p294
aS','
p295
aS'and'
p296
aS'dirtied'
p297
aS'her'
p298
aS'frock'
p299
aS'.'
p300
asg45
(lp301
VOne
p302
aVday
p303
aVa
p304
aVwoman
p305
ag63
aVpass
p306
aVby
p307
ag304
aVcorn-field
p308
aVwhen
p309
aVher
p310
aVlittle
p311
aVchild
p312
ag50
aVwho
p313
ag63
aVrun
p314
aVbeside
p315
aVher
p316
ag50
aVfell
p317
aVinto
p318
ag304
aVpuddle
p319
ag50
aVand
p320
aVdirty
p321
aVher
p322
aVfrock
p323
ag70
asg71
(lp324
g73
ag73
ag73
ag73
ag73
ag73
ag73
ag73
ag73
ag73
ag73
ag73
ag73
ag73
ag73
ag73
ag73
ag73
ag73
ag73
ag73
ag73
ag73
ag73
ag73
ag73
ag73
ag73
ag73
ag73
asg74
(lp325
g134
ag86
ag85
ag86
ag84
ag200
ag76
ag85
ag77
ag80
ag82
ag83
ag264
ag79
aS'WP'
p326
ag84
ag200
ag86
aS'PRP$'
p327
ag79
ag84
ag76
ag85
ag77
ag79
ag133
ag84
ag82
ag86
ag89
asg90
VOne day a woman was passing by a corn-field when her little child, who was running beside her, fell into a puddle, and dirtied her frock.
p328
sba(i__main__
Sentence
p329
(dp330
g17
I5
sg18
(lp331
S'On'
p332
aS'this'
p333
aS'the'
p334
aS'mother'
p335
aS'tore'
p336
aS'up'
p337
aS'a'
p338
aS'handful'
p339
aS'of'
p340
aS'the'
p341
aS'beautiful'
p342
aS'ears'
p343
aS'of'
p344
aS'corn'
p345
aS','
p346
aS'and'
p347
aS'cleaned'
p348
aS'the'
p349
aS'frock'
p350
aS'with'
p351
aS'them'
p352
aS'.'
p353
asg45
(lp354
VOn
p355
aVthis
p356
aVthe
p357
aVmother
p358
aVtore
p359
aVup
p360
ag304
aVhandful
p361
aVof
p362
aVthe
p363
aVbeautiful
p364
aVear
p365
aVof
p366
aVcorn
p367
ag50
aVand
p368
aVclean
p369
aVthe
p370
aVfrock
p371
aVwith
p372
aVthem
p373
ag70
asg71
(lp374
g73
ag73
ag73
ag73
ag73
ag73
ag73
ag73
ag73
ag73
ag73
ag73
ag73
ag73
ag73
ag73
ag73
ag73
ag73
ag73
ag73
ag73
asg74
(lp375
g76
ag85
ag85
ag86
ag86
ag76
ag85
ag86
ag76
ag85
ag77
ag78
ag76
ag86
ag79
ag133
ag84
ag85
ag86
ag76
ag82
ag89
asg90
VOn this the mother tore up a handful of the beautiful ears of corn, and cleaned the frock with them.
p376
sba(i__main__
Sentence
p377
(dp378
g17
I6
sg18
(lp379
S'When'
p380
aS'the'
p381
aS'Lord'
p382
aS','
p383
aS'who'
p384
aS'just'
p385
aS'then'
p386
aS'came'
p387
aS'by'
p388
aS','
p389
aS'saw'
p390
aS'that'
p391
aS','
p392
aS'he'
p393
aS'was'
p394
aS'angry'
p395
aS','
p396
aS'and'
p397
aS'said'
p398
aS','
p399
aS'henceforth'
p400
aS'shall'
p401
aS'the'
p402
aS'stalks'
p403
aS'of'
p404
aS'corn'
p405
aS'bear'
p406
aS'no'
p407
aS'more'
p408
aS'ears'
p409
aS','
p410
aS'men'
p411
aS'are'
p412
aS'no'
p413
aS'longer'
p414
aS'worthy'
p415
aS'of'
p416
aS'heavenly'
p417
aS'gifts'
p418
aS'.'
p419
asg45
(lp420
VWhen
p421
aVthe
p422
aVLord
p423
ag50
aVwho
p424
aVjust
p425
aVthen
p426
aVcome
p427
aVby
p428
ag50
aVsaw
p429
aVthat
p430
ag50
aVhe
p431
ag63
aVangry
p432
ag50
aVand
p433
aVsay
p434
ag50
aVhenceforth
p435
aVshall
p436
aVthe
p437
aVstalk
p438
aVof
p439
aVcorn
p440
aVbear
p441
aVno
p442
aVmore
p443
aVear
p444
ag50
aVmen
p445
ag238
aVno
p446
aVlong
p447
aVworthy
p448
aVof
p449
aVheavenly
p450
aVgift
p451
ag70
asg71
(lp452
g73
ag73
ag73
ag73
ag73
ag73
ag73
ag73
ag73
ag73
ag73
ag73
ag73
ag73
ag73
ag73
ag73
ag73
ag73
ag73
ag73
ag73
ag73
ag73
ag73
ag73
ag73
ag73
ag73
ag73
ag73
ag73
ag73
ag73
ag73
ag73
ag73
ag73
ag73
ag73
asg74
(lp453
g80
ag85
ag81
ag79
ag326
ag83
ag83
ag84
ag76
ag79
ag84
ag76
ag79
ag82
ag84
ag77
ag79
ag133
ag84
ag79
ag77
ag86
ag85
ag78
ag76
ag86
ag86
ag85
aS'RBR'
p454
ag78
ag79
ag78
ag264
ag85
ag87
ag77
ag76
ag83
ag88
ag89
asg90
VWhen the Lord, who just then came by, saw that, he was angry, and said, henceforth shall the stalks of corn bear no more ears, men are no longer worthy of heavenly gifts.
p455
sba(i__main__
Sentence
p456
(dp457
g17
I7
sg18
(lp458
S'The'
p459
aS'by-standers'
p460
aS'who'
p461
aS'heard'
p462
aS'this'
p463
aS','
p464
aS'were'
p465
aS'terrified'
p466
aS','
p467
aS'and'
p468
aS'fell'
p469
aS'on'
p470
aS'their'
p471
aS'knees'
p472
aS'and'
p473
aS'prayed'
p474
aS'that'
p475
aS'he'
p476
aS'would'
p477
aS'still'
p478
aS'leave'
p479
aS'something'
p480
aS'on'
p481
aS'the'
p482
aS'stalks'
p483
aS','
p484
aS'even'
p485
aS'if'
p486
aS'the'
p487
aS'people'
p488
aS'were'
p489
aS'undeserving'
p490
aS'of'
p491
aS'it'
p492
aS','
p493
aS'for'
p494
aS'the'
p495
aS'sake'
p496
aS'of'
p497
aS'the'
p498
aS'innocent'
p499
aS'chickens'
p500
aS'which'
p501
aS'would'
p502
aS'otherwise'
p503
aS'have'
p504
aS'to'
p505
aS'starve'
p506
aS'.'
p507
asg45
(lp508
VThe
p509
aVby-standers
p510
aVwho
p511
aVheard
p512
aVthis
p513
ag50
aVbe
p514
aVterrify
p515
ag50
aVand
p516
aVfell
p517
aVon
p518
aVtheir
p519
aVknee
p520
aVand
p521
aVpray
p522
aVthat
p523
aVhe
p524
aVwould
p525
aVstill
p526
aVleave
p527
aVsomething
p528
aVon
p529
aVthe
p530
aVstalk
p531
ag50
aVeven
p532
aVif
p533
aVthe
p534
aVpeople
p535
ag514
aVundeserving
p536
aVof
p537
aVit
p538
ag50
aVfor
p539
aVthe
p540
aVsake
p541
aVof
p542
aVthe
p543
aVinnocent
p544
aVchickens
p545
aVwhich
p546
aVwould
p547
aVotherwise
p548
aVhave
p549
aVto
p550
aVstarve
p551
ag70
asg71
(lp552
g73
ag73
ag73
ag73
ag73
ag73
ag73
ag73
ag73
ag73
ag73
ag73
ag73
ag73
ag73
ag73
ag73
ag73
ag73
ag73
ag73
ag73
ag73
ag73
ag73
ag73
ag73
ag73
ag73
ag73
ag73
ag73
ag73
ag73
ag73
ag73
ag73
ag73
ag73
ag73
ag73
ag73
ag73
ag73
ag73
ag73
ag73
ag73
ag73
asg74
(lp553
g85
ag78
ag326
ag83
ag85
ag79
ag84
ag265
ag79
ag133
ag84
ag76
ag327
ag78
ag133
ag84
ag76
ag82
aS'MD'
p554
ag83
ag132
ag86
ag76
ag85
ag78
ag79
ag83
ag76
ag85
ag78
ag84
ag200
ag76
ag82
ag79
ag76
ag85
ag86
ag76
ag85
ag86
ag88
ag266
ag554
ag132
ag132
ag199
ag132
ag89
asg90
VThe by-standers who heard this, were terrified, and fell on their knees and prayed that he would still leave something on the stalks, even if the people were undeserving of it, for the sake of the innocent chickens which would otherwise have to starve.
p555
sba(i__main__
Sentence
p556
(dp557
g17
I8
sg18
(lp558
S'The'
p559
aS'Lord'
p560
aS','
p561
aS'who'
p562
aS'foresaw'
p563
aS'their'
p564
aS'suffering'
p565
aS','
p566
aS'had'
p567
aS'pity'
p568
aS'on'
p569
aS'them'
p570
aS','
p571
aS'and'
p572
aS'granted'
p573
aS'the'
p574
aS'request'
p575
aS'.'
p576
asg45
(lp577
VThe
p578
aVLord
p579
ag50
aVwho
p580
aVforesaw
p581
aVtheir
p582
aVsuffering
p583
ag50
aVhave
p584
aVpity
p585
aVon
p586
aVthem
p587
ag50
aVand
p588
aVgrant
p589
aVthe
p590
aVrequest
p591
ag70
asg71
(lp592
g73
ag73
ag73
ag73
ag73
ag73
ag73
ag73
ag73
ag73
ag73
ag73
ag73
ag73
ag73
ag73
ag73
ag73
asg74
(lp593
g85
ag81
ag79
ag326
ag86
ag327
ag86
ag79
ag84
ag86
ag76
ag82
ag79
ag133
ag84
ag85
ag86
ag89
asg90
VThe Lord, who foresaw their suffering, had pity on them, and granted the request.
p594
sba(i__main__
Sentence
p595
(dp596
g17
I9
sg18
(lp597
S'So'
p598
aS'the'
p599
aS'ears'
p600
aS'were'
p601
aS'left'
p602
aS'as'
p603
aS'they'
p604
aS'now'
p605
aS'grow'
p606
aS'.'
p607
asg45
(lp608
VSo
p609
aVthe
p610
aVear
p611
ag514
aVleave
p612
ag304
aVthey
p613
aVnow
p614
aVgrow
p615
ag70
asg71
(lp616
g73
ag73
ag73
ag73
ag73
ag73
ag73
ag73
ag73
ag73
asg74
(lp617
g76
ag85
ag78
ag84
ag265
ag76
ag82
ag83
ag264
ag89
asg90
VSo the ears were left as they now grow. 
p618
sbasbsS'summary'
p619
g0
(g7
g2
Ntp620
Rp621
(dp622
g11
S"In olden times, hundreds of kernels of corn grew on one stalk instead of the fifty or sixty that grow today. One day the Lord witnessed a woman thoughtlessly tear off a handful of ears of corn to clean her child's dress. At that time the Lord commanded no more corn would grow. When the people prayed and begged for corn for food, the Lord allowed corn to grow, but only in the scanty ears on which it grows today."
p623
sg13
(lp624
(i__main__
Sentence
p625
(dp626
g17
I0
sg18
(lp627
S'In'
p628
aS'olden'
p629
aS'times'
p630
aS','
p631
aS'hundreds'
p632
aS'of'
p633
aS'kernels'
p634
aS'of'
p635
aS'corn'
p636
aS'grew'
p637
aS'on'
p638
aS'one'
p639
aS'stalk'
p640
aS'instead'
p641
aS'of'
p642
aS'the'
p643
aS'fifty'
p644
aS'or'
p645
aS'sixty'
p646
aS'that'
p647
aS'grow'
p648
aS'today'
p649
aS'.'
p650
asg45
(lp651
VIn
p652
aVolden
p653
aVtime
p654
ag50
aVhundred
p655
aVof
p656
aVkernel
p657
aVof
p658
aVcorn
p659
ag173
aVon
p660
aVone
p661
aVstalk
p662
aVinstead
p663
aVof
p664
aVthe
p665
aVfifty
p666
aVor
p667
aVsixty
p668
aVthat
p669
aVgrow
p670
aVtoday
p671
ag70
asg71
(lp672
g73
ag73
ag73
ag73
ag73
ag73
ag73
ag73
ag73
ag73
ag73
ag73
ag73
ag73
ag73
ag73
ag73
ag73
ag73
ag73
ag73
ag73
ag73
asg74
(lp673
g76
ag265
ag78
ag79
ag78
ag76
ag78
ag76
ag86
ag84
ag76
ag134
ag86
ag83
ag76
ag85
ag86
ag133
ag86
ag76
ag86
ag86
ag89
asg90
VIn olden times, hundreds of kernels of corn grew on one stalk instead of the fifty or sixty that grow today.
p674
sba(i__main__
Sentence
p675
(dp676
g17
I1
sg18
(lp677
S'One'
p678
aS'day'
p679
aS'the'
p680
aS'Lord'
p681
aS'witnessed'
p682
aS'a'
p683
aS'woman'
p684
aS'thoughtlessly'
p685
aS'tear'
p686
aS'off'
p687
aS'a'
p688
aS'handful'
p689
aS'of'
p690
aS'ears'
p691
aS'of'
p692
aS'corn'
p693
aS'to'
p694
aS'clean'
p695
aS'her'
p696
aS'child'
p697
aS"'s"
p698
aS'dress'
p699
aS'.'
p700
asg45
(lp701
VOne
p702
aVday
p703
aVthe
p704
aVLord
p705
aVwitness
p706
ag304
aVwoman
p707
aVthoughtlessly
p708
aVtear
p709
aVoff
p710
ag304
aVhandful
p711
aVof
p712
aVear
p713
aVof
p714
aVcorn
p715
aVto
p716
aVclean
p717
aVher
p718
aVchild
p719
aV's
p720
aVdress
p721
ag70
asg71
(lp722
g73
ag73
ag73
ag73
ag73
ag73
ag73
ag73
ag73
ag73
ag73
ag73
ag73
ag73
ag73
ag73
ag73
ag73
ag73
ag73
ag73
ag73
ag73
asg74
(lp723
g134
ag86
ag85
ag81
ag84
ag85
ag86
ag83
ag77
ag76
ag85
ag86
ag76
ag78
ag76
ag86
ag199
ag132
ag327
ag86
aS'POS'
p724
ag86
ag89
asg90
VOne day the Lord witnessed a woman thoughtlessly tear off a handful of ears of corn to clean her child's dress.
p725
sba(i__main__
Sentence
p726
(dp727
g17
I2
sg18
(lp728
S'At'
p729
aS'that'
p730
aS'time'
p731
aS'the'
p732
aS'Lord'
p733
aS'commanded'
p734
aS'no'
p735
aS'more'
p736
aS'corn'
p737
aS'would'
p738
aS'grow'
p739
aS'.'
p740
asg45
(lp741
VAt
p742
aVthat
p743
aVtime
p744
aVthe
p745
aVLord
p746
aVcommand
p747
aVno
p748
aVmore
p749
aVcorn
p750
aVwould
p751
aVgrow
p752
ag70
asg71
(lp753
g73
ag73
ag73
ag73
ag73
ag73
ag73
ag73
ag73
ag73
ag73
ag73
asg74
(lp754
g76
ag85
ag86
ag85
ag81
ag84
ag85
ag454
ag86
ag554
ag132
ag89
asg90
VAt that time the Lord commanded no more corn would grow.
p755
sba(i__main__
Sentence
p756
(dp757
g17
I3
sg18
(lp758
S'When'
p759
aS'the'
p760
aS'people'
p761
aS'prayed'
p762
aS'and'
p763
aS'begged'
p764
aS'for'
p765
aS'corn'
p766
aS'for'
p767
aS'food'
p768
aS','
p769
aS'the'
p770
aS'Lord'
p771
aS'allowed'
p772
aS'corn'
p773
aS'to'
p774
aS'grow'
p775
aS','
p776
aS'but'
p777
aS'only'
p778
aS'in'
p779
aS'the'
p780
aS'scanty'
p781
aS'ears'
p782
aS'on'
p783
aS'which'
p784
aS'it'
p785
aS'grows'
p786
aS'today'
p787
aS'.'
p788
asg45
(lp789
VWhen
p790
aVthe
p791
aVpeople
p792
aVpray
p793
aVand
p794
aVbeg
p795
aVfor
p796
aVcorn
p797
aVfor
p798
aVfood
p799
ag50
aVthe
p800
aVLord
p801
aVallow
p802
aVcorn
p803
aVto
p804
aVgrow
p805
ag50
aVbut
p806
aVonly
p807
aVin
p808
aVthe
p809
aVscanty
p810
aVear
p811
aVon
p812
aVwhich
p813
aVit
p814
aVgrow
p815
aVtoday
p816
ag70
asg71
(lp817
g73
ag73
ag73
ag73
ag73
ag73
ag73
ag73
ag73
ag73
ag73
ag73
ag73
ag73
ag73
ag73
ag73
ag73
ag73
ag73
ag73
ag73
ag73
ag73
ag73
ag73
ag73
ag73
ag73
ag73
asg74
(lp818
g80
ag85
ag78
ag84
ag133
ag265
ag76
ag86
ag76
ag86
ag79
ag85
ag81
ag84
ag86
ag199
ag132
ag79
ag133
ag83
ag76
ag85
ag86
ag78
ag76
ag266
ag82
ag88
ag86
ag89
asg90
VWhen the people prayed and begged for corn for food, the Lord allowed corn to grow, but only in the scanty ears on which it grows today.
p819
sbasbsS'name'
p820
S'The Ear of Corn'
p821
sS'summaries'
p822
(lp823
g621
asb.