ccopy_reg
_reconstructor
p0
(c__main__
Story
p1
c__builtin__
object
p2
Ntp3
Rp4
(dp5
S'text'
p6
g0
(c__main__
Document
p7
g2
Ntp8
Rp9
(dp10
S'_Document__initialContent'
p11
S'\n\nI suppose that the high-water mark of my youth in Columbus, Ohio, was the night the bed fell on my father. It makes a better recitation (unless, as some friends of mine have said, one has heard it five or six times) than it does a piece of writing, for it is almost necessary to throw furniture around, shake doors, and bark like a dog, to lend the proper atmosphere and verisimilitude to what is admittedly a somewhat incredible tale. Still, it did take place.\n\n\n\nIt happened, then, that my father had decided to sleep in the attic one night, to be away where he could think. My mother opposed the notion strongly because, she said, the old wooden bed up there was unsafe- it was wobbly and the heavy headboard would crash down on father\'s head in case the bed fell, and kill him. There was no dissuading him, however, and at a quarter past ten he closed the attic door behind him and went up the narrow twisting stairs. We later heard ominous creakings as he crawled into bed. Grandfather, who usually slept in the attic bed when he was with us, had disappeared some days before. (On these occasions he was usually gone six or seven days and returned growling and out of temper, with the news that the federal Union was run by a passel of blockheads and that the Army of the Potomac didn\'t have any more chance than a fiddler\'s bitch.)\n\n\n\nWe had visiting us at this time a nervous first cousin of mine named Briggs Beall, who believed that he was likely to cease breathing when he was asleep. It was his feeling that if he were not awakened every hour during the night, he might die of suffocation. He had been accustomed to setting an alarm clock to ring at intervals until morning, but I persuaded him to abandon this. He slept in my room and I told him that I was such a light sleeper that if anybody quit breathing in the same room with me, I would wake Instantly. He tested me the first night-which I had suspected he would by holding his breath after my regular breathing had convinced him I was asleep. I was not asleep, however, and called to him. This seemed to allay his fears a little, but he took the precaution of putting a class of spirits of camphor on a little table at the head of his bed. In case I didn\'t arouse him until he was almost gone, he said, he would sniff the camphor, a powerful reviver.\n\n\n\nBriggs was not the only member of his family who had his crotchets. Old Aunt Alelissa Beall (who could whistle like a man, with two fingers in her mouth) suffered under the premonition that she was destined to die on South High Street, because she had been born on South High Street and married on South High Street. Then there was Aunt Sarah Shoaf, who never went to bed at night without the fear that a burglar was going to get in and blow chloroform under her door through a tube. To avert this calamity -for she was in greater dread of anesthetics than of losing her household goods-she always piled her money, silverware, and other valuables in a neat stack just outside her bedroom, with a note reading,: "This is all I have. Please take it and do not use your chloroform, as this is all I have." Aunt Gracie Shoaf also had a burglar phobia, but she met it with more fortitude. She was confident that burglars had been getting into her house every night for four years. The fact that she never missed anything was to her no proof to the contrary. She always claimed that she scared them off before they could take anything, by throwing shoes down the hallway. When she went to bed she piled, where she could get at them handily, all the shoes there were about her house. Five minutes after she had turned off the light, she would sit up in bed and say "Hark!" Her husband, who had learned to ignore the whole situation as long ago as 1903, would either be sound asleep or pretend to be sound asleep. In either case he would not respond to her tugging and pulling, so that presently she would arise, tiptoe to the door, open it slightly and heave a shoe down the hall in one direction, and its mate down the hall in the other direction. Some nights she threw them all, some nights only a couple of pair.\n\n\n\nBut I am straying from the remarkable incidents that took place during the night that the bed fell on father. By midnight we were all in bed. The layout of the rooms and the disposition of their occupants is important to an understanding of what later occurred. In the front room upstairs (just under father\'s attic bedroom) were my mother and my brother Terry, who sometimes sang in his sleep, usually "Marching Through Georgia" or "Onward, Christian Soldiers." Briggs Beall and myself were in a room adjoining this one. My brother Roy was in a room across the hall from ours. Our bull terrier, Rex, slept in the hall.\n\n\n\nMy bed was an army cot, one of those affairs which are made wide enough to sleep on comfortably only by putting up, flat with the middle section, the two sides which ordinarily hang down like the sideboards of a drop-leaf table. When these sides are up, it is perilous to roll too far toward the edge, for then the cot is likely to tip completely over, bringing the whole bed down on top of one, with a tremendous banging crash. This, in fact, is precisely what happened, about two o\'clock in the morning. (It was my mother who, in recalling the scene later, first referred to it as "the night the bed fell on your father.")\n\n\n\nAlways a deep sleeper, slow to arouse (I had lied to Briggs), I was at first unconscious of what had happened when the iron cot rolled me onto the floor and toppled over on me. It left me still warmly bundled up and unhurt, for the bed rested above me like a canopy. Hence I did not wake up, only reached-the edge of consciousness and went back. The racket, however, instantly awakened my mother, in the next room, who came to the immediate conclusion that her worst dread was realized: the big wooden bed upstairs had fallen on father. She therefore screamed, "Let\'s go to your poor father!" It was this shout, rather, than the noise of my cot falling, that awakened Herman, in the same room with her. He thought that mother had become, for no apparent reason, hysterical. "You\'re all right, Mamma!" He shouted, trying, to calm her. They exchanged shout for shout for perhaps ten seconds: "Let\'s go to your poor father!" and "You\'re all right! " That woke up Briggs. By this time I was conscious of what was going on, in a vague way, but did not yet realize that I was under my bed instead of on it. Briggs, awakening in the midst of loud shouts of fear and apprehension, came to the quick conclusion that he was suffocating and that we were all trying to "bring him out." With a low moan, he grasped the glass of camphor at the head of his bed and instead of sniffing it poured it over himself. The room reeked of camphor. "Ugh, ugh," choked Briggs, like a drowning man, for he had almost succeeded in stopping his breathing under the deluge of pungent spirits. He leaped out of bed and groped toward the open window, but he came up against one that was closed. With his hand, he beat out the glass, and I could hear it crash and tinkle on the alleyway below. It was at this juncture that I, in trying to get up, had the uncanny sensation of feeling my bed above me. Foggy with sleep, I now suspected, in my turn, that the whole uproar was being made in a frantic endeavor to extricate me from what must be an unheard-of and perilous situation. "Get me out of this!" I bawled. "Get me out!" I think I had the nightmarish belief that I was entombed in a mine. "Ugh," gasped Briggs, floundering in his camphor.\n\n\n\nBy this time my mother, still shouting, pursued by Herman, still shouting, was trying to open the door to the attic, in order to\' go up and get my father\'s body out of the wreckage. The door was stuck, however, and wouldn\'t yield. Her frantic pulls on it only added to the general banging and confusion. Roy and the dog were now up, the one shouting questions, the other barking.\n\n\n\nFather, farthest away and soundest sleeper of all, had by this time been awakened by the battering on the attic door. He decided that the house was on fire. "I\'m coming, I\'m coming,!" be wailed in a slow, sleepy voice-it took him many minutes to regain full consciousness. My mother, still believing he was caught under the bed, detected in his "I\'m coming!" the mournful, resigned note of one who is preparing to meet his Maker. "He\'s dying!" she shouted.\n\n\n\n"I\'m all right!" Briggs yelled to reassure her. "I\'m all right!" He still believed that it was his own closeness to death that was worrying mother. I found at last the light switch in my room, unlocked the door, and Briggs and I joined the others at the attic door. The dog, who never did like Briggs, jumped for him assuming that he was the culprit in whatever was going on and Roy had to throw Rex and hold him. We could hear father crawling out of bed upstairs. Roy pulled the attic door open, with a mighty jerk, and father came down the stairs, sleepy and irritable but safe and sound. My mother began to weep when she saw him. Rex began to-howl. "What in the name of God "s going on here?" asked father.\n\n\n\nThe situation was finally put together like a gigantic jig-saw puzzle. Father caught a cold from prowling around in his bare feet but there were no other bad results. "I\'m glad," said mother, who always looked on the bright side of things, "that your grandfather wasn\'t here."'
p12
sS'sentences'
p13
(lp14
(i__main__
Sentence
p15
(dp16
S'index'
p17
I0
sS'words'
p18
(lp19
S'I'
p20
aS'suppose'
p21
aS'that'
p22
aS'the'
p23
aS'high-water'
p24
aS'mark'
p25
aS'of'
p26
aS'my'
p27
aS'youth'
p28
aS'in'
p29
aS'Columbus'
p30
aS','
p31
aS'Ohio'
p32
aS','
p33
aS'was'
p34
aS'the'
p35
aS'night'
p36
aS'the'
p37
aS'bed'
p38
aS'fell'
p39
aS'on'
p40
aS'my'
p41
aS'father'
p42
aS'.'
p43
asS'lemmas'
p44
(lp45
VI
p46
aVsuppose
p47
aVthat
p48
aVthe
p49
aVhigh-water
p50
aVmark
p51
aVof
p52
aVmy
p53
aVyouth
p54
aVin
p55
aVColumbus
p56
aV,
p57
aVOhio
p58
ag57
aVbe
p59
aVthe
p60
aVnight
p61
aVthe
p62
aVbed
p63
aVfell
p64
aVon
p65
aVmy
p66
aVfather
p67
aV.
p68
asS'nerTags'
p69
(lp70
VO
p71
ag71
ag71
ag71
ag71
ag71
ag71
ag71
ag71
ag71
aVLOCATION
p72
ag71
aVLOCATION
p73
ag71
ag71
ag71
ag71
ag71
ag71
ag71
ag71
ag71
ag71
ag71
asS'posTags'
p74
(lp75
S'PRP'
p76
aS'VBP'
p77
aS'IN'
p78
aS'DT'
p79
aS'JJ'
p80
aS'NN'
p81
ag78
aS'PRP$'
p82
ag81
ag78
aS'NNP'
p83
aS','
p84
ag83
ag84
aS'VBD'
p85
ag79
ag81
ag79
aS'VBN'
p86
ag85
ag78
ag82
ag81
aS'.'
p87
asS'_Sentence__initialContent'
p88
V  I suppose that the high-water mark of my youth in Columbus, Ohio, was the night the bed fell on my father.
p89
sba(i__main__
Sentence
p90
(dp91
g17
I1
sg18
(lp92
S'It'
p93
aS'makes'
p94
aS'a'
p95
aS'better'
p96
aS'recitation'
p97
aS'('
p98
aS'unless'
p99
aS','
p100
aS'as'
p101
aS'some'
p102
aS'friends'
p103
aS'of'
p104
aS'mine'
p105
aS'have'
p106
aS'said'
p107
aS','
p108
aS'one'
p109
aS'has'
p110
aS'heard'
p111
aS'it'
p112
aS'five'
p113
aS'or'
p114
aS'six'
p115
aS'times'
p116
aS')'
p117
aS'than'
p118
aS'it'
p119
aS'does'
p120
aS'a'
p121
aS'piece'
p122
aS'of'
p123
aS'writing'
p124
aS','
p125
aS'for'
p126
aS'it'
p127
aS'is'
p128
aS'almost'
p129
aS'necessary'
p130
aS'to'
p131
aS'throw'
p132
aS'furniture'
p133
aS'around'
p134
aS','
p135
aS'shake'
p136
aS'doors'
p137
aS','
p138
aS'and'
p139
aS'bark'
p140
aS'like'
p141
aS'a'
p142
aS'dog'
p143
aS','
p144
aS'to'
p145
aS'lend'
p146
aS'the'
p147
aS'proper'
p148
aS'atmosphere'
p149
aS'and'
p150
aS'verisimilitude'
p151
aS'to'
p152
aS'what'
p153
aS'is'
p154
aS'admittedly'
p155
aS'a'
p156
aS'somewhat'
p157
aS'incredible'
p158
aS'tale'
p159
aS'.'
p160
asg44
(lp161
VIt
p162
aVmake
p163
aVa
p164
aVgood
p165
aVrecitation
p166
aV(
p167
aVunless
p168
ag57
ag164
aVsome
p169
aVfriend
p170
aVof
p171
aVmine
p172
aVhave
p173
aVsay
p174
ag57
aVone
p175
aVhave
p176
aVhear
p177
aVit
p178
aVfive
p179
aVor
p180
aVsix
p181
aVtime
p182
aV)
p183
aVthan
p184
aVit
p185
aVdo
p186
ag164
aVpiece
p187
aVof
p188
aVwrite
p189
ag57
aVfor
p190
aVit
p191
aVbe
p192
aValmost
p193
aVnecessary
p194
aVto
p195
aVthrow
p196
aVfurniture
p197
aVaround
p198
ag57
aVshake
p199
aVdoor
p200
ag57
aVand
p201
aVbark
p202
aVlike
p203
ag164
aVdog
p204
ag57
aVto
p205
aVlend
p206
aVthe
p207
aVproper
p208
aVatmosphere
p209
aVand
p210
aVverisimilitude
p211
aVto
p212
aVwhat
p213
ag192
aVadmittedly
p214
ag164
aVsomewhat
p215
aVincredible
p216
aVtale
p217
ag68
asg69
(lp218
g71
ag71
ag71
ag71
ag71
ag71
ag71
ag71
ag71
ag71
ag71
ag71
ag71
ag71
ag71
ag71
ag71
ag71
ag71
ag71
ag71
ag71
ag71
ag71
ag71
ag71
ag71
ag71
ag71
ag71
ag71
ag71
ag71
ag71
ag71
ag71
ag71
ag71
ag71
ag71
ag71
ag71
ag71
ag71
ag71
ag71
ag71
ag71
ag71
ag71
ag71
ag71
ag71
ag71
ag71
ag71
ag71
ag71
ag71
ag71
ag71
ag71
ag71
ag71
ag71
ag71
ag71
ag71
asg74
(lp219
g76
aS'VBZ'
p220
ag79
aS'JJR'
p221
ag81
aS':'
p222
ag78
ag84
ag78
ag79
aS'NNS'
p223
ag78
ag80
ag77
ag86
ag84
aS'CD'
p224
ag220
ag86
ag76
ag224
aS'CC'
p225
ag224
ag223
ag222
ag78
ag76
ag220
ag79
ag81
ag78
aS'VBG'
p226
ag84
ag78
ag76
ag220
aS'RB'
p227
ag80
aS'TO'
p228
aS'VB'
p229
ag81
ag78
ag84
ag81
ag223
ag84
ag225
ag229
ag78
ag79
ag81
ag84
ag228
ag229
ag79
ag81
ag227
ag225
ag229
ag228
aS'WP'
p230
ag220
ag227
ag79
ag227
ag80
ag81
ag87
asg88
VIt makes a better recitation (unless, as some friends of mine have said, one has heard it five or six times) than it does a piece of writing, for it is almost necessary to throw furniture around, shake doors, and bark like a dog, to lend the proper atmosphere and verisimilitude to what is admittedly a somewhat incredible tale.
p231
sba(i__main__
Sentence
p232
(dp233
g17
I2
sg18
(lp234
S'Still'
p235
aS','
p236
aS'it'
p237
aS'did'
p238
aS'take'
p239
aS'place'
p240
aS'.'
p241
asg44
(lp242
VStill
p243
ag57
aVit
p244
aVdo
p245
aVtake
p246
aVplace
p247
ag68
asg69
(lp248
g71
ag71
ag71
ag71
ag71
ag71
ag71
asg74
(lp249
g227
ag84
ag76
ag85
ag229
ag81
ag87
asg88
VStill, it did take place.
p250
sba(i__main__
Sentence
p251
(dp252
g17
I3
sg18
(lp253
S'It'
p254
aS'happened'
p255
aS','
p256
aS'then'
p257
aS','
p258
aS'that'
p259
aS'my'
p260
aS'father'
p261
aS'had'
p262
aS'decided'
p263
aS'to'
p264
aS'sleep'
p265
aS'in'
p266
aS'the'
p267
aS'attic'
p268
aS'one'
p269
aS'night'
p270
aS','
p271
aS'to'
p272
aS'be'
p273
aS'away'
p274
aS'where'
p275
aS'he'
p276
aS'could'
p277
aS'think'
p278
aS'.'
p279
asg44
(lp280
VIt
p281
aVhappen
p282
ag57
aVthen
p283
ag57
aVthat
p284
aVmy
p285
aVfather
p286
aVhave
p287
aVdecide
p288
aVto
p289
aVsleep
p290
aVin
p291
aVthe
p292
aVattic
p293
aVone
p294
aVnight
p295
ag57
aVto
p296
aVbe
p297
aVaway
p298
aVwhere
p299
aVhe
p300
aVcould
p301
aVthink
p302
ag68
asg69
(lp303
g71
ag71
ag71
ag71
ag71
ag71
ag71
ag71
ag71
ag71
ag71
ag71
ag71
ag71
ag71
ag71
ag71
ag71
ag71
ag71
ag71
ag71
ag71
ag71
ag71
ag71
asg74
(lp304
g76
ag85
ag84
ag227
ag84
ag78
ag82
ag81
ag85
ag86
ag228
ag229
ag78
ag79
ag80
ag224
ag81
ag84
ag228
ag229
ag227
aS'WRB'
p305
ag76
aS'MD'
p306
ag229
ag87
asg88
VIt happened, then, that my father had decided to sleep in the attic one night, to be away where he could think.
p307
sba(i__main__
Sentence
p308
(dp309
g17
I4
sg18
(lp310
S'My'
p311
aS'mother'
p312
aS'opposed'
p313
aS'the'
p314
aS'notion'
p315
aS'strongly'
p316
aS'because'
p317
aS','
p318
aS'she'
p319
aS'said'
p320
aS','
p321
aS'the'
p322
aS'old'
p323
aS'wooden'
p324
aS'bed'
p325
aS'up'
p326
aS'there'
p327
aS'was'
p328
aS'unsafe-'
p329
aS'it'
p330
aS'was'
p331
aS'wobbly'
p332
aS'and'
p333
aS'the'
p334
aS'heavy'
p335
aS'headboard'
p336
aS'would'
p337
aS'crash'
p338
aS'down'
p339
aS'on'
p340
aS'father'
p341
aS"'s"
p342
aS'head'
p343
aS'in'
p344
aS'case'
p345
aS'the'
p346
aS'bed'
p347
aS'fell'
p348
aS','
p349
aS'and'
p350
aS'kill'
p351
aS'him'
p352
aS'.'
p353
asg44
(lp354
VMy
p355
aVmother
p356
aVoppose
p357
aVthe
p358
aVnotion
p359
aVstrongly
p360
aVbecause
p361
ag57
aVshe
p362
ag174
ag57
aVthe
p363
aVold
p364
aVwooden
p365
aVbed
p366
aVup
p367
aVthere
p368
ag59
aVunsafe-
p369
aVit
p370
ag59
aVwobbly
p371
aVand
p372
aVthe
p373
aVheavy
p374
aVheadboard
p375
aVwould
p376
aVcrash
p377
aVdown
p378
aVon
p379
aVfather
p380
aV's
p381
aVhead
p382
aVin
p383
aVcase
p384
aVthe
p385
aVbed
p386
aVfell
p387
ag57
aVand
p388
aVkill
p389
aVhim
p390
ag68
asg69
(lp391
g71
ag71
ag71
ag71
ag71
ag71
ag71
ag71
ag71
ag71
ag71
ag71
ag71
ag71
ag71
ag71
ag71
ag71
ag71
ag71
ag71
ag71
ag71
ag71
ag71
ag71
ag71
ag71
ag71
ag71
ag71
ag71
ag71
ag71
ag71
ag71
ag71
ag71
ag71
ag71
ag71
ag71
ag71
asg74
(lp392
g82
ag81
ag85
ag79
ag81
ag227
ag78
ag84
ag76
ag85
ag84
ag79
ag80
ag81
ag85
aS'RP'
p393
aS'EX'
p394
ag85
ag80
ag76
ag85
ag227
ag225
ag79
ag80
ag81
ag306
ag229
ag78
ag78
ag81
aS'POS'
p395
ag81
ag78
ag81
ag79
ag86
ag85
ag84
ag225
ag81
ag76
ag87
asg88
VMy mother opposed the notion strongly because, she said, the old wooden bed up there was unsafe- it was wobbly and the heavy headboard would crash down on father's head in case the bed fell, and kill him.
p396
sba(i__main__
Sentence
p397
(dp398
g17
I5
sg18
(lp399
S'There'
p400
aS'was'
p401
aS'no'
p402
aS'dissuading'
p403
aS'him'
p404
aS','
p405
aS'however'
p406
aS','
p407
aS'and'
p408
aS'at'
p409
aS'a'
p410
aS'quarter'
p411
aS'past'
p412
aS'ten'
p413
aS'he'
p414
aS'closed'
p415
aS'the'
p416
aS'attic'
p417
aS'door'
p418
aS'behind'
p419
aS'him'
p420
aS'and'
p421
aS'went'
p422
aS'up'
p423
aS'the'
p424
aS'narrow'
p425
aS'twisting'
p426
aS'stairs'
p427
aS'.'
p428
asg44
(lp429
VThere
p430
ag59
aVno
p431
aVdissuading
p432
aVhim
p433
ag57
aVhowever
p434
ag57
aVand
p435
aVat
p436
ag164
aVquarter
p437
aVpast
p438
aVten
p439
aVhe
p440
aVclose
p441
aVthe
p442
aVattic
p443
aVdoor
p444
aVbehind
p445
aVhim
p446
aVand
p447
aVgo
p448
aVup
p449
aVthe
p450
aVnarrow
p451
aVtwist
p452
aVstair
p453
ag68
asg69
(lp454
g71
ag71
ag71
ag71
ag71
ag71
ag71
ag71
ag71
ag71
ag71
ag71
ag71
ag71
ag71
ag71
ag71
ag71
ag71
ag71
ag71
ag71
ag71
ag71
ag71
ag71
ag71
ag71
ag71
asg74
(lp455
g394
ag85
ag79
ag81
ag76
ag84
ag227
ag84
ag225
ag78
ag79
ag81
ag81
ag227
ag76
ag85
ag79
ag80
ag81
ag78
ag76
ag225
ag85
ag393
ag79
ag81
ag226
ag223
ag87
asg88
VThere was no dissuading him, however, and at a quarter past ten he closed the attic door behind him and went up the narrow twisting stairs.
p456
sba(i__main__
Sentence
p457
(dp458
g17
I6
sg18
(lp459
S'We'
p460
aS'later'
p461
aS'heard'
p462
aS'ominous'
p463
aS'creakings'
p464
aS'as'
p465
aS'he'
p466
aS'crawled'
p467
aS'into'
p468
aS'bed'
p469
aS'.'
p470
asg44
(lp471
VWe
p472
aVlater
p473
ag177
aVominous
p474
aVcreaking
p475
ag164
aVhe
p476
aVcrawl
p477
aVinto
p478
aVbed
p479
ag68
asg69
(lp480
g71
ag71
ag71
ag71
ag71
ag71
ag71
ag71
ag71
ag71
ag71
asg74
(lp481
g76
ag77
ag86
ag80
ag223
ag78
ag76
ag85
ag78
ag86
ag87
asg88
VWe later heard ominous creakings as he crawled into bed.
p482
sba(i__main__
Sentence
p483
(dp484
g17
I7
sg18
(lp485
S'Grandfather'
p486
aS','
p487
aS'who'
p488
aS'usually'
p489
aS'slept'
p490
aS'in'
p491
aS'the'
p492
aS'attic'
p493
aS'bed'
p494
aS'when'
p495
aS'he'
p496
aS'was'
p497
aS'with'
p498
aS'us'
p499
aS','
p500
aS'had'
p501
aS'disappeared'
p502
aS'some'
p503
aS'days'
p504
aS'before'
p505
aS'.'
p506
asg44
(lp507
VGrandfather
p508
ag57
aVwho
p509
aVusually
p510
aVsleep
p511
aVin
p512
aVthe
p513
aVattic
p514
aVbed
p515
aVwhen
p516
aVhe
p517
ag59
aVwith
p518
aVu
p519
ag57
ag287
aVdisappear
p520
aVsome
p521
aVday
p522
aVbefore
p523
ag68
asg69
(lp524
g71
ag71
ag71
ag71
ag71
ag71
ag71
ag71
ag71
ag71
ag71
ag71
ag71
ag71
ag71
ag71
ag71
ag71
ag71
ag71
ag71
asg74
(lp525
g83
ag84
ag230
ag227
ag85
ag78
ag79
ag80
ag86
ag305
ag76
ag85
ag78
ag76
ag84
ag85
ag86
ag79
ag223
ag78
ag87
asg88
VGrandfather, who usually slept in the attic bed when he was with us, had disappeared some days before.
p526
sba(i__main__
Sentence
p527
(dp528
g17
I8
sg18
(lp529
S'('
p530
aS'On'
p531
aS'these'
p532
aS'occasions'
p533
aS'he'
p534
aS'was'
p535
aS'usually'
p536
aS'gone'
p537
aS'six'
p538
aS'or'
p539
aS'seven'
p540
aS'days'
p541
aS'and'
p542
aS'returned'
p543
aS'growling'
p544
aS'and'
p545
aS'out'
p546
aS'of'
p547
aS'temper'
p548
aS','
p549
aS'with'
p550
aS'the'
p551
aS'news'
p552
aS'that'
p553
aS'the'
p554
aS'federal'
p555
aS'Union'
p556
aS'was'
p557
aS'run'
p558
aS'by'
p559
aS'a'
p560
aS'passel'
p561
aS'of'
p562
aS'blockheads'
p563
aS'and'
p564
aS'that'
p565
aS'the'
p566
aS'Army'
p567
aS'of'
p568
aS'the'
p569
aS'Potomac'
p570
aS'did'
p571
aS"n't"
p572
aS'have'
p573
aS'any'
p574
aS'more'
p575
aS'chance'
p576
aS'than'
p577
aS'a'
p578
aS'fiddler'
p579
aS"'s"
p580
aS'bitch'
p581
aS'.'
p582
aS')'
p583
asg44
(lp584
g167
aVOn
p585
aVthese
p586
aVoccasion
p587
aVhe
p588
ag59
aVusually
p589
aVgo
p590
aVsix
p591
aVor
p592
aVseven
p593
aVday
p594
aVand
p595
aVreturn
p596
aVgrowl
p597
aVand
p598
aVout
p599
aVof
p600
aVtemper
p601
ag57
aVwith
p602
aVthe
p603
aVnews
p604
aVthat
p605
aVthe
p606
aVfederal
p607
aVUnion
p608
ag59
aVrun
p609
aVby
p610
ag164
aVpassel
p611
aVof
p612
aVblockhead
p613
aVand
p614
aVthat
p615
aVthe
p616
aVArmy
p617
aVof
p618
aVthe
p619
aVPotomac
p620
ag245
aVn't
p621
aVhave
p622
aVany
p623
aVmore
p624
aVchance
p625
aVthan
p626
ag164
aVfiddler
p627
aV's
p628
aVbitch
p629
ag68
ag183
asg69
(lp630
g71
ag71
ag71
ag71
ag71
ag71
ag71
ag71
ag71
ag71
ag71
ag71
ag71
ag71
ag71
ag71
ag71
ag71
ag71
ag71
ag71
ag71
ag71
ag71
ag71
ag71
ag71
ag71
ag71
ag71
ag71
ag71
ag71
ag71
ag71
ag71
ag71
aVORGANIZATION
p631
aVORGANIZATION
p632
aVORGANIZATION
p633
aVORGANIZATION
p634
ag71
ag71
ag71
ag71
ag71
ag71
ag71
ag71
ag71
ag71
ag71
ag71
ag71
asg74
(lp635
g81
ag78
ag79
ag223
ag76
ag85
ag227
ag86
ag224
ag225
ag224
ag223
ag225
ag85
ag226
ag225
ag78
ag78
ag81
ag84
ag78
ag79
ag81
ag78
ag79
ag80
ag83
ag85
ag86
ag78
ag79
ag81
ag78
ag223
ag225
ag78
ag79
ag83
ag78
ag79
ag83
ag85
ag227
ag229
ag79
aS'RBR'
p636
ag81
ag78
ag79
ag81
ag395
ag81
ag87
ag81
asg88
V(On these occasions he was usually gone six or seven days and returned growling and out of temper, with the news that the federal Union was run by a passel of blockheads and that the Army of the Potomac didn't have any more chance than a fiddler's bitch.)
p637
sba(i__main__
Sentence
p638
(dp639
g17
I9
sg18
(lp640
S'We'
p641
aS'had'
p642
aS'visiting'
p643
aS'us'
p644
aS'at'
p645
aS'this'
p646
aS'time'
p647
aS'a'
p648
aS'nervous'
p649
aS'first'
p650
aS'cousin'
p651
aS'of'
p652
aS'mine'
p653
aS'named'
p654
aS'Briggs'
p655
aS'Beall'
p656
aS','
p657
aS'who'
p658
aS'believed'
p659
aS'that'
p660
aS'he'
p661
aS'was'
p662
aS'likely'
p663
aS'to'
p664
aS'cease'
p665
aS'breathing'
p666
aS'when'
p667
aS'he'
p668
aS'was'
p669
aS'asleep'
p670
aS'.'
p671
asg44
(lp672
VWe
p673
ag287
aVvisit
p674
ag519
aVat
p675
aVthis
p676
aVtime
p677
ag164
aVnervous
p678
aVfirst
p679
aVcousin
p680
aVof
p681
aVmine
p682
aVname
p683
aVBriggs
p684
aVBeall
p685
ag57
aVwho
p686
aVbelieve
p687
aVthat
p688
aVhe
p689
ag59
aVlikely
p690
aVto
p691
aVcease
p692
aVbreathing
p693
aVwhen
p694
aVhe
p695
ag59
aVasleep
p696
ag68
asg69
(lp697
g71
ag71
ag71
ag71
ag71
ag71
ag71
ag71
ag71
ag71
ag71
ag71
ag71
ag71
aVPERSON
p698
aVPERSON
p699
ag71
ag71
ag71
ag71
ag71
ag71
ag71
ag71
ag71
ag71
ag71
ag71
ag71
ag71
ag71
asg74
(lp700
g76
ag85
ag226
ag76
ag78
ag79
ag81
ag79
ag80
ag80
ag81
ag78
ag80
ag86
ag83
ag83
ag84
ag230
ag85
ag78
ag76
ag85
ag80
ag228
ag229
ag81
ag305
ag76
ag85
ag229
ag87
asg88
VWe had visiting us at this time a nervous first cousin of mine named Briggs Beall, who believed that he was likely to cease breathing when he was asleep.
p701
sba(i__main__
Sentence
p702
(dp703
g17
I10
sg18
(lp704
S'It'
p705
aS'was'
p706
aS'his'
p707
aS'feeling'
p708
aS'that'
p709
aS'if'
p710
aS'he'
p711
aS'were'
p712
aS'not'
p713
aS'awakened'
p714
aS'every'
p715
aS'hour'
p716
aS'during'
p717
aS'the'
p718
aS'night'
p719
aS','
p720
aS'he'
p721
aS'might'
p722
aS'die'
p723
aS'of'
p724
aS'suffocation'
p725
aS'.'
p726
asg44
(lp727
VIt
p728
ag59
aVhis
p729
aVfeeling
p730
aVthat
p731
aVif
p732
aVhe
p733
aVbe
p734
aVnot
p735
aVawaken
p736
aVevery
p737
aVhour
p738
aVduring
p739
aVthe
p740
aVnight
p741
ag57
aVhe
p742
aVmight
p743
aVdie
p744
aVof
p745
aVsuffocation
p746
ag68
asg69
(lp747
g71
ag71
ag71
ag71
ag71
ag71
ag71
ag71
ag71
ag71
ag71
ag71
ag71
ag71
ag71
ag71
ag71
ag71
ag71
ag71
ag71
ag71
asg74
(lp748
g76
ag85
ag82
ag81
ag78
ag78
ag76
ag85
ag227
ag86
ag79
ag81
ag78
ag79
ag81
ag84
ag76
ag306
ag229
ag78
ag81
ag87
asg88
VIt was his feeling that if he were not awakened every hour during the night, he might die of suffocation.
p749
sba(i__main__
Sentence
p750
(dp751
g17
I11
sg18
(lp752
S'He'
p753
aS'had'
p754
aS'been'
p755
aS'accustomed'
p756
aS'to'
p757
aS'setting'
p758
aS'an'
p759
aS'alarm'
p760
aS'clock'
p761
aS'to'
p762
aS'ring'
p763
aS'at'
p764
aS'intervals'
p765
aS'until'
p766
aS'morning'
p767
aS','
p768
aS'but'
p769
aS'I'
p770
aS'persuaded'
p771
aS'him'
p772
aS'to'
p773
aS'abandon'
p774
aS'this'
p775
aS'.'
p776
asg44
(lp777
VHe
p778
ag287
aVbe
p779
aVaccustom
p780
aVto
p781
aVsetting
p782
aVan
p783
aValarm
p784
aVclock
p785
aVto
p786
aVring
p787
aVat
p788
aVinterval
p789
aVuntil
p790
aVmorning
p791
ag57
aVbut
p792
ag46
aVpersuade
p793
aVhim
p794
aVto
p795
aVabandon
p796
aVthis
p797
ag68
asg69
(lp798
g71
ag71
ag71
ag71
ag71
ag71
ag71
ag71
ag71
ag71
ag71
ag71
ag71
ag71
ag71
ag71
ag71
ag71
ag71
ag71
ag71
ag71
ag71
ag71
asg74
(lp799
g76
ag85
ag86
ag86
ag228
ag81
ag79
ag81
ag81
ag228
ag229
ag78
ag223
ag78
ag81
ag84
ag225
ag76
ag85
ag76
ag228
ag229
ag79
ag87
asg88
VHe had been accustomed to setting an alarm clock to ring at intervals until morning, but I persuaded him to abandon this.
p800
sba(i__main__
Sentence
p801
(dp802
g17
I12
sg18
(lp803
S'He'
p804
aS'slept'
p805
aS'in'
p806
aS'my'
p807
aS'room'
p808
aS'and'
p809
aS'I'
p810
aS'told'
p811
aS'him'
p812
aS'that'
p813
aS'I'
p814
aS'was'
p815
aS'such'
p816
aS'a'
p817
aS'light'
p818
aS'sleeper'
p819
aS'that'
p820
aS'if'
p821
aS'anybody'
p822
aS'quit'
p823
aS'breathing'
p824
aS'in'
p825
aS'the'
p826
aS'same'
p827
aS'room'
p828
aS'with'
p829
aS'me'
p830
aS','
p831
aS'I'
p832
aS'would'
p833
aS'wake'
p834
aS'Instantly'
p835
aS'.'
p836
asg44
(lp837
VHe
p838
ag511
aVin
p839
aVmy
p840
aVroom
p841
aVand
p842
ag46
aVtell
p843
aVhim
p844
aVthat
p845
ag46
ag59
aVsuch
p846
ag164
aVlight
p847
aVsleeper
p848
aVthat
p849
aVif
p850
aVanybody
p851
aVquit
p852
aVbreathe
p853
aVin
p854
aVthe
p855
aVsame
p856
aVroom
p857
aVwith
p858
aVme
p859
ag57
ag46
aVwould
p860
aVwake
p861
aVInstantly
p862
ag68
asg69
(lp863
g71
ag71
ag71
ag71
ag71
ag71
ag71
ag71
ag71
ag71
ag71
ag71
ag71
ag71
ag71
ag71
ag71
ag71
ag71
ag71
ag71
ag71
ag71
ag71
ag71
ag71
ag71
ag71
ag71
ag71
ag71
ag71
ag71
asg74
(lp864
g76
ag85
ag78
ag82
ag81
ag225
ag76
ag85
ag76
ag78
ag76
ag85
ag80
ag79
ag81
ag81
aS'WDT'
p865
ag78
ag81
ag81
ag226
ag78
ag79
ag80
ag81
ag78
ag76
ag84
ag76
ag306
ag229
ag83
ag87
asg88
VHe slept in my room and I told him that I was such a light sleeper that if anybody quit breathing in the same room with me, I would wake Instantly.
p866
sba(i__main__
Sentence
p867
(dp868
g17
I13
sg18
(lp869
S'He'
p870
aS'tested'
p871
aS'me'
p872
aS'the'
p873
aS'first'
p874
aS'night-which'
p875
aS'I'
p876
aS'had'
p877
aS'suspected'
p878
aS'he'
p879
aS'would'
p880
aS'by'
p881
aS'holding'
p882
aS'his'
p883
aS'breath'
p884
aS'after'
p885
aS'my'
p886
aS'regular'
p887
aS'breathing'
p888
aS'had'
p889
aS'convinced'
p890
aS'him'
p891
aS'I'
p892
aS'was'
p893
aS'asleep'
p894
aS'.'
p895
asg44
(lp896
VHe
p897
aVtest
p898
aVme
p899
aVthe
p900
aVfirst
p901
aVnight-which
p902
ag46
ag287
aVsuspect
p903
aVhe
p904
aVwould
p905
aVby
p906
aVhold
p907
aVhis
p908
aVbreath
p909
aVafter
p910
aVmy
p911
aVregular
p912
aVbreathing
p913
ag287
aVconvince
p914
aVhim
p915
ag46
ag59
aVasleep
p916
ag68
asg69
(lp917
g71
ag71
ag71
ag71
ag71
ag71
ag71
ag71
ag71
ag71
ag71
ag71
ag71
ag71
ag71
ag71
ag71
ag71
ag71
ag71
ag71
ag71
ag71
ag71
ag71
ag71
asg74
(lp918
g76
ag85
ag76
ag79
ag80
ag80
ag76
ag85
ag86
ag76
ag306
ag229
ag226
ag82
ag81
ag78
ag82
ag80
ag81
ag85
ag86
ag76
ag76
ag85
ag80
ag87
asg88
VHe tested me the first night-which I had suspected he would by holding his breath after my regular breathing had convinced him I was asleep.
p919
sba(i__main__
Sentence
p920
(dp921
g17
I14
sg18
(lp922
S'I'
p923
aS'was'
p924
aS'not'
p925
aS'asleep'
p926
aS','
p927
aS'however'
p928
aS','
p929
aS'and'
p930
aS'called'
p931
aS'to'
p932
aS'him'
p933
aS'.'
p934
asg44
(lp935
g46
ag59
aVnot
p936
aVasleep
p937
ag57
aVhowever
p938
ag57
aVand
p939
aVcall
p940
aVto
p941
aVhim
p942
ag68
asg69
(lp943
g71
ag71
ag71
ag71
ag71
ag71
ag71
ag71
ag71
ag71
ag71
ag71
asg74
(lp944
g76
ag85
ag227
ag229
ag84
ag227
ag84
ag225
ag86
ag228
ag76
ag87
asg88
VI was not asleep, however, and called to him.
p945
sba(i__main__
Sentence
p946
(dp947
g17
I15
sg18
(lp948
S'This'
p949
aS'seemed'
p950
aS'to'
p951
aS'allay'
p952
aS'his'
p953
aS'fears'
p954
aS'a'
p955
aS'little'
p956
aS','
p957
aS'but'
p958
aS'he'
p959
aS'took'
p960
aS'the'
p961
aS'precaution'
p962
aS'of'
p963
aS'putting'
p964
aS'a'
p965
aS'class'
p966
aS'of'
p967
aS'spirits'
p968
aS'of'
p969
aS'camphor'
p970
aS'on'
p971
aS'a'
p972
aS'little'
p973
aS'table'
p974
aS'at'
p975
aS'the'
p976
aS'head'
p977
aS'of'
p978
aS'his'
p979
aS'bed'
p980
aS'.'
p981
asg44
(lp982
VThis
p983
aVseem
p984
aVto
p985
aVallay
p986
aVhis
p987
aVfear
p988
ag164
aVlittle
p989
ag57
aVbut
p990
aVhe
p991
aVtake
p992
aVthe
p993
aVprecaution
p994
aVof
p995
aVput
p996
ag164
aVclass
p997
aVof
p998
aVspirit
p999
aVof
p1000
aVcamphor
p1001
aVon
p1002
ag164
aVlittle
p1003
aVtable
p1004
aVat
p1005
aVthe
p1006
aVhead
p1007
aVof
p1008
aVhis
p1009
aVbed
p1010
ag68
asg69
(lp1011
g71
ag71
ag71
ag71
ag71
ag71
ag71
ag71
ag71
ag71
ag71
ag71
ag71
ag71
ag71
ag71
ag71
ag71
ag71
ag71
ag71
ag71
ag71
ag71
ag71
ag71
ag71
ag71
ag71
ag71
ag71
ag71
ag71
asg74
(lp1012
g79
ag85
ag228
ag229
ag82
ag223
ag79
ag227
ag84
ag225
ag76
ag85
ag79
ag81
ag78
ag226
ag79
ag81
ag78
ag223
ag78
ag81
ag78
ag79
ag80
ag81
ag78
ag79
ag81
ag78
ag82
ag86
ag87
asg88
VThis seemed to allay his fears a little, but he took the precaution of putting a class of spirits of camphor on a little table at the head of his bed.
p1013
sba(i__main__
Sentence
p1014
(dp1015
g17
I16
sg18
(lp1016
S'In'
p1017
aS'case'
p1018
aS'I'
p1019
aS'did'
p1020
aS"n't"
p1021
aS'arouse'
p1022
aS'him'
p1023
aS'until'
p1024
aS'he'
p1025
aS'was'
p1026
aS'almost'
p1027
aS'gone'
p1028
aS','
p1029
aS'he'
p1030
aS'said'
p1031
aS','
p1032
aS'he'
p1033
aS'would'
p1034
aS'sniff'
p1035
aS'the'
p1036
aS'camphor'
p1037
aS','
p1038
aS'a'
p1039
aS'powerful'
p1040
aS'reviver'
p1041
aS'.'
p1042
asg44
(lp1043
VIn
p1044
aVcase
p1045
ag46
ag245
aVn't
p1046
aVarouse
p1047
aVhim
p1048
aVuntil
p1049
aVhe
p1050
ag59
aValmost
p1051
ag590
ag57
aVhe
p1052
ag174
ag57
aVhe
p1053
aVwould
p1054
aVsniff
p1055
aVthe
p1056
aVcamphor
p1057
ag57
ag164
aVpowerful
p1058
aVreviver
p1059
ag68
asg69
(lp1060
g71
ag71
ag71
ag71
ag71
ag71
ag71
ag71
ag71
ag71
ag71
ag71
ag71
ag71
ag71
ag71
ag71
ag71
ag71
ag71
ag71
ag71
ag71
ag71
ag71
ag71
asg74
(lp1061
g78
ag81
ag76
ag85
ag227
ag229
ag76
ag78
ag76
ag85
ag227
ag86
ag84
ag76
ag85
ag84
ag76
ag306
ag229
ag79
ag81
ag84
ag79
ag80
ag81
ag87
asg88
VIn case I didn't arouse him until he was almost gone, he said, he would sniff the camphor, a powerful reviver.
p1062
sba(i__main__
Sentence
p1063
(dp1064
g17
I17
sg18
(lp1065
S'Briggs'
p1066
aS'was'
p1067
aS'not'
p1068
aS'the'
p1069
aS'only'
p1070
aS'member'
p1071
aS'of'
p1072
aS'his'
p1073
aS'family'
p1074
aS'who'
p1075
aS'had'
p1076
aS'his'
p1077
aS'crotchets'
p1078
aS'.'
p1079
asg44
(lp1080
VBriggs
p1081
ag59
aVnot
p1082
aVthe
p1083
aVonly
p1084
aVmember
p1085
aVof
p1086
aVhis
p1087
aVfamily
p1088
aVwho
p1089
ag287
aVhis
p1090
aVcrotchet
p1091
ag68
asg69
(lp1092
VPERSON
p1093
ag71
ag71
ag71
ag71
ag71
ag71
ag71
ag71
ag71
ag71
ag71
ag71
ag71
asg74
(lp1094
g223
ag85
ag227
ag79
ag80
ag81
ag78
ag82
ag81
ag230
ag85
ag82
ag223
ag87
asg88
VBriggs was not the only member of his family who had his crotchets.
p1095
sba(i__main__
Sentence
p1096
(dp1097
g17
I18
sg18
(lp1098
S'Old'
p1099
aS'Aunt'
p1100
aS'Alelissa'
p1101
aS'Beall'
p1102
aS'('
p1103
aS'who'
p1104
aS'could'
p1105
aS'whistle'
p1106
aS'like'
p1107
aS'a'
p1108
aS'man'
p1109
aS','
p1110
aS'with'
p1111
aS'two'
p1112
aS'fingers'
p1113
aS'in'
p1114
aS'her'
p1115
aS'mouth'
p1116
aS')'
p1117
aS'suffered'
p1118
aS'under'
p1119
aS'the'
p1120
aS'premonition'
p1121
aS'that'
p1122
aS'she'
p1123
aS'was'
p1124
aS'destined'
p1125
aS'to'
p1126
aS'die'
p1127
aS'on'
p1128
aS'South'
p1129
aS'High'
p1130
aS'Street'
p1131
aS','
p1132
aS'because'
p1133
aS'she'
p1134
aS'had'
p1135
aS'been'
p1136
aS'born'
p1137
aS'on'
p1138
aS'South'
p1139
aS'High'
p1140
aS'Street'
p1141
aS'and'
p1142
aS'married'
p1143
aS'on'
p1144
aS'South'
p1145
aS'High'
p1146
aS'Street'
p1147
aS'.'
p1148
asg44
(lp1149
VOld
p1150
aVAunt
p1151
aVAlelissa
p1152
aVBeall
p1153
ag167
aVwho
p1154
aVcould
p1155
aVwhistle
p1156
aVlike
p1157
ag164
aVman
p1158
ag57
aVwith
p1159
aVtwo
p1160
aVfinger
p1161
aVin
p1162
aVher
p1163
aVmouth
p1164
ag183
aVsuffer
p1165
aVunder
p1166
aVthe
p1167
aVpremonition
p1168
aVthat
p1169
aVshe
p1170
ag59
aVdestine
p1171
aVto
p1172
aVdie
p1173
aVon
p1174
aVSouth
p1175
aVHigh
p1176
aVStreet
p1177
ag57
aVbecause
p1178
aVshe
p1179
ag287
ag779
aVbear
p1180
aVon
p1181
aVSouth
p1182
aVHigh
p1183
aVStreet
p1184
aVand
p1185
aVmarry
p1186
aVon
p1187
aVSouth
p1188
aVHigh
p1189
aVStreet
p1190
ag68
asg69
(lp1191
g71
ag71
aVPERSON
p1192
aVPERSON
p1193
ag71
ag71
ag71
ag71
ag71
ag71
ag71
ag71
ag71
ag71
ag71
ag71
ag71
ag71
ag71
ag71
ag71
ag71
ag71
ag71
ag71
ag71
ag71
ag71
ag71
ag71
aVLOCATION
p1194
aVLOCATION
p1195
aVLOCATION
p1196
ag71
ag71
ag71
ag71
ag71
ag71
ag71
aVLOCATION
p1197
aVLOCATION
p1198
aVLOCATION
p1199
ag71
ag71
ag71
aVLOCATION
p1200
aVLOCATION
p1201
aVLOCATION
p1202
ag71
asg74
(lp1203
g83
ag83
ag83
ag83
ag83
ag230
ag306
ag229
ag78
ag79
ag81
ag84
ag78
ag224
ag223
ag78
ag82
ag81
ag222
ag85
ag78
ag79
ag81
ag78
ag76
ag85
ag86
ag228
ag229
ag78
ag83
ag83
ag83
ag84
ag78
ag76
ag85
ag86
ag86
ag78
ag83
ag83
ag83
ag225
ag85
ag78
ag83
ag83
ag83
ag87
asg88
VOld Aunt Alelissa Beall (who could whistle like a man, with two fingers in her mouth) suffered under the premonition that she was destined to die on South High Street, because she had been born on South High Street and married on South High Street.
p1204
sba(i__main__
Sentence
p1205
(dp1206
g17
I19
sg18
(lp1207
S'Then'
p1208
aS'there'
p1209
aS'was'
p1210
aS'Aunt'
p1211
aS'Sarah'
p1212
aS'Shoaf'
p1213
aS','
p1214
aS'who'
p1215
aS'never'
p1216
aS'went'
p1217
aS'to'
p1218
aS'bed'
p1219
aS'at'
p1220
aS'night'
p1221
aS'without'
p1222
aS'the'
p1223
aS'fear'
p1224
aS'that'
p1225
aS'a'
p1226
aS'burglar'
p1227
aS'was'
p1228
aS'going'
p1229
aS'to'
p1230
aS'get'
p1231
aS'in'
p1232
aS'and'
p1233
aS'blow'
p1234
aS'chloroform'
p1235
aS'under'
p1236
aS'her'
p1237
aS'door'
p1238
aS'through'
p1239
aS'a'
p1240
aS'tube'
p1241
aS'.'
p1242
asg44
(lp1243
VThen
p1244
aVthere
p1245
ag59
aVAunt
p1246
aVSarah
p1247
aVShoaf
p1248
ag57
aVwho
p1249
aVnever
p1250
ag448
aVto
p1251
aVbed
p1252
aVat
p1253
aVnight
p1254
aVwithout
p1255
aVthe
p1256
aVfear
p1257
aVthat
p1258
ag164
aVburglar
p1259
ag59
aVgo
p1260
aVto
p1261
aVget
p1262
aVin
p1263
aVand
p1264
aVblow
p1265
aVchloroform
p1266
aVunder
p1267
aVher
p1268
aVdoor
p1269
aVthrough
p1270
ag164
aVtube
p1271
ag68
asg69
(lp1272
g71
ag71
ag71
ag71
aVPERSON
p1273
aVPERSON
p1274
ag71
ag71
ag71
ag71
ag71
ag71
ag71
ag71
ag71
ag71
ag71
ag71
ag71
ag71
ag71
ag71
ag71
ag71
ag71
ag71
ag71
ag71
ag71
ag71
ag71
ag71
ag71
ag71
ag71
asg74
(lp1275
g227
ag394
ag85
ag83
ag83
ag83
ag84
ag230
ag227
ag85
ag228
ag86
ag78
ag81
ag78
ag79
ag81
ag78
ag79
ag80
ag85
ag226
ag228
ag229
ag78
ag225
ag81
ag81
ag78
ag82
ag81
ag78
ag79
ag81
ag87
asg88
VThen there was Aunt Sarah Shoaf, who never went to bed at night without the fear that a burglar was going to get in and blow chloroform under her door through a tube.
p1276
sba(i__main__
Sentence
p1277
(dp1278
g17
I20
sg18
(lp1279
S'To'
p1280
aS'avert'
p1281
aS'this'
p1282
aS'calamity'
p1283
aS'-for'
p1284
aS'she'
p1285
aS'was'
p1286
aS'in'
p1287
aS'greater'
p1288
aS'dread'
p1289
aS'of'
p1290
aS'anesthetics'
p1291
aS'than'
p1292
aS'of'
p1293
aS'losing'
p1294
aS'her'
p1295
aS'household'
p1296
aS'goods-she'
p1297
aS'always'
p1298
aS'piled'
p1299
aS'her'
p1300
aS'money'
p1301
aS','
p1302
aS'silverware'
p1303
aS','
p1304
aS'and'
p1305
aS'other'
p1306
aS'valuables'
p1307
aS'in'
p1308
aS'a'
p1309
aS'neat'
p1310
aS'stack'
p1311
aS'just'
p1312
aS'outside'
p1313
aS'her'
p1314
aS'bedroom'
p1315
aS','
p1316
aS'with'
p1317
aS'a'
p1318
aS'note'
p1319
aS'reading'
p1320
aS','
p1321
aS':'
p1322
aS'``'
p1323
aS'This'
p1324
aS'is'
p1325
aS'all'
p1326
aS'I'
p1327
aS'have'
p1328
aS'.'
p1329
asg44
(lp1330
VTo
p1331
aVavert
p1332
aVthis
p1333
aVcalamity
p1334
aV-for
p1335
aVshe
p1336
ag59
aVin
p1337
aVgreat
p1338
aVdread
p1339
aVof
p1340
aVanesthetic
p1341
aVthan
p1342
aVof
p1343
aVlose
p1344
aVher
p1345
aVhousehold
p1346
aVgoods-she
p1347
aValways
p1348
aVpile
p1349
aVher
p1350
aVmoney
p1351
ag57
aVsilverware
p1352
ag57
aVand
p1353
aVother
p1354
aVvaluable
p1355
aVin
p1356
ag164
aVneat
p1357
aVstack
p1358
aVjust
p1359
aVoutside
p1360
aVher
p1361
aVbedroom
p1362
ag57
aVwith
p1363
ag164
aVnote
p1364
aVreading
p1365
ag57
aV:
p1366
aV``
p1367
aVThis
p1368
ag192
aVall
p1369
ag46
aVhave
p1370
ag68
asg69
(lp1371
g71
ag71
ag71
ag71
ag71
ag71
ag71
ag71
ag71
ag71
ag71
ag71
ag71
ag71
ag71
ag71
ag71
ag71
ag71
ag71
ag71
ag71
ag71
ag71
ag71
ag71
ag71
ag71
ag71
ag71
ag71
ag71
ag71
ag71
ag71
ag71
ag71
ag71
ag71
ag71
ag71
ag71
ag71
ag71
ag71
ag71
ag71
ag71
ag71
ag71
asg74
(lp1372
g228
ag229
ag79
ag81
ag81
ag76
ag85
ag78
ag221
ag81
ag78
ag223
ag78
ag78
ag226
ag82
ag81
ag81
ag227
ag86
ag82
ag81
ag84
ag77
ag84
ag225
ag80
ag223
ag78
ag79
ag81
ag81
ag227
ag78
ag82
ag81
ag84
ag78
ag79
ag81
ag81
ag84
ag222
aS'``'
p1373
ag79
ag220
ag79
ag76
ag77
ag87
asg88
VTo avert this calamity -for she was in greater dread of anesthetics than of losing her household goods-she always piled her money, silverware, and other valuables in a neat stack just outside her bedroom, with a note reading,: "This is all I have.
p1374
sba(i__main__
Sentence
p1375
(dp1376
g17
I21
sg18
(lp1377
S'Please'
p1378
aS'take'
p1379
aS'it'
p1380
aS'and'
p1381
aS'do'
p1382
aS'not'
p1383
aS'use'
p1384
aS'your'
p1385
aS'chloroform'
p1386
aS','
p1387
aS'as'
p1388
aS'this'
p1389
aS'is'
p1390
aS'all'
p1391
aS'I'
p1392
aS'have'
p1393
aS'.'
p1394
aS"''"
p1395
asg44
(lp1396
VPlease
p1397
aVtake
p1398
aVit
p1399
aVand
p1400
aVdo
p1401
aVnot
p1402
aVuse
p1403
aVyour
p1404
aVchloroform
p1405
ag57
ag164
aVthis
p1406
ag192
aVall
p1407
ag46
aVhave
p1408
ag68
aV''
p1409
asg69
(lp1410
g71
ag71
ag71
ag71
ag71
ag71
ag71
ag71
ag71
ag71
ag71
ag71
ag71
ag71
ag71
ag71
ag71
ag71
asg74
(lp1411
g81
ag77
ag76
ag225
ag77
ag227
ag229
ag82
ag81
ag84
ag78
ag79
ag220
ag79
ag76
ag77
ag87
aS"''"
p1412
asg88
VPlease take it and do not use your chloroform, as this is all I have."
p1413
sba(i__main__
Sentence
p1414
(dp1415
g17
I22
sg18
(lp1416
S'Aunt'
p1417
aS'Gracie'
p1418
aS'Shoaf'
p1419
aS'also'
p1420
aS'had'
p1421
aS'a'
p1422
aS'burglar'
p1423
aS'phobia'
p1424
aS','
p1425
aS'but'
p1426
aS'she'
p1427
aS'met'
p1428
aS'it'
p1429
aS'with'
p1430
aS'more'
p1431
aS'fortitude'
p1432
aS'.'
p1433
asg44
(lp1434
VAunt
p1435
aVGracie
p1436
aVShoaf
p1437
aValso
p1438
ag287
ag164
aVburglar
p1439
aVphobia
p1440
ag57
aVbut
p1441
aVshe
p1442
aVmeet
p1443
aVit
p1444
aVwith
p1445
aVmore
p1446
aVfortitude
p1447
ag68
asg69
(lp1448
VPERSON
p1449
aVPERSON
p1450
aVPERSON
p1451
ag71
ag71
ag71
ag71
ag71
ag71
ag71
ag71
ag71
ag71
ag71
ag71
ag71
ag71
asg74
(lp1452
g83
ag83
ag83
ag227
ag85
ag79
ag80
ag81
ag84
ag225
ag76
ag85
ag76
ag78
ag221
ag80
ag87
asg88
VAunt Gracie Shoaf also had a burglar phobia, but she met it with more fortitude.
p1453
sba(i__main__
Sentence
p1454
(dp1455
g17
I23
sg18
(lp1456
S'She'
p1457
aS'was'
p1458
aS'confident'
p1459
aS'that'
p1460
aS'burglars'
p1461
aS'had'
p1462
aS'been'
p1463
aS'getting'
p1464
aS'into'
p1465
aS'her'
p1466
aS'house'
p1467
aS'every'
p1468
aS'night'
p1469
aS'for'
p1470
aS'four'
p1471
aS'years'
p1472
aS'.'
p1473
asg44
(lp1474
VShe
p1475
ag59
aVconfident
p1476
aVthat
p1477
aVburglar
p1478
ag287
ag779
aVget
p1479
aVinto
p1480
aVher
p1481
aVhouse
p1482
aVevery
p1483
aVnight
p1484
aVfor
p1485
aVfour
p1486
aVyear
p1487
ag68
asg69
(lp1488
g71
ag71
ag71
ag71
ag71
ag71
ag71
ag71
ag71
ag71
ag71
ag71
ag71
ag71
ag71
ag71
ag71
asg74
(lp1489
g76
ag85
ag80
ag78
ag223
ag85
ag86
ag226
ag78
ag82
ag81
ag81
ag81
ag78
ag224
ag223
ag87
asg88
VShe was confident that burglars had been getting into her house every night for four years.
p1490
sba(i__main__
Sentence
p1491
(dp1492
g17
I24
sg18
(lp1493
S'The'
p1494
aS'fact'
p1495
aS'that'
p1496
aS'she'
p1497
aS'never'
p1498
aS'missed'
p1499
aS'anything'
p1500
aS'was'
p1501
aS'to'
p1502
aS'her'
p1503
aS'no'
p1504
aS'proof'
p1505
aS'to'
p1506
aS'the'
p1507
aS'contrary'
p1508
aS'.'
p1509
asg44
(lp1510
VThe
p1511
aVfact
p1512
aVthat
p1513
aVshe
p1514
aVnever
p1515
aVmiss
p1516
aVanything
p1517
ag59
aVto
p1518
aVher
p1519
aVno
p1520
aVproof
p1521
aVto
p1522
aVthe
p1523
aVcontrary
p1524
ag68
asg69
(lp1525
g71
ag71
ag71
ag71
ag71
ag71
ag71
ag71
ag71
ag71
ag71
ag71
ag71
ag71
ag71
ag71
asg74
(lp1526
g79
ag81
ag78
ag76
ag227
ag85
ag81
ag85
ag228
ag82
ag79
ag81
ag228
ag79
ag81
ag87
asg88
VThe fact that she never missed anything was to her no proof to the contrary.
p1527
sba(i__main__
Sentence
p1528
(dp1529
g17
I25
sg18
(lp1530
S'She'
p1531
aS'always'
p1532
aS'claimed'
p1533
aS'that'
p1534
aS'she'
p1535
aS'scared'
p1536
aS'them'
p1537
aS'off'
p1538
aS'before'
p1539
aS'they'
p1540
aS'could'
p1541
aS'take'
p1542
aS'anything'
p1543
aS','
p1544
aS'by'
p1545
aS'throwing'
p1546
aS'shoes'
p1547
aS'down'
p1548
aS'the'
p1549
aS'hallway'
p1550
aS'.'
p1551
asg44
(lp1552
VShe
p1553
aValways
p1554
aVclaim
p1555
aVthat
p1556
aVshe
p1557
aVscar
p1558
aVthem
p1559
aVoff
p1560
aVbefore
p1561
aVthey
p1562
aVcould
p1563
aVtake
p1564
aVanything
p1565
ag57
aVby
p1566
aVthrowing
p1567
aVshoe
p1568
aVdown
p1569
aVthe
p1570
aVhallway
p1571
ag68
asg69
(lp1572
g71
ag71
ag71
ag71
ag71
ag71
ag71
ag71
ag71
ag71
ag71
ag71
ag71
ag71
ag71
ag71
ag71
ag71
ag71
ag71
ag71
asg74
(lp1573
g76
ag227
ag85
ag78
ag76
ag85
ag76
ag393
ag78
ag76
ag306
ag229
ag81
ag84
ag78
ag81
ag220
ag78
ag79
ag81
ag87
asg88
VShe always claimed that she scared them off before they could take anything, by throwing shoes down the hallway.
p1574
sba(i__main__
Sentence
p1575
(dp1576
g17
I26
sg18
(lp1577
S'When'
p1578
aS'she'
p1579
aS'went'
p1580
aS'to'
p1581
aS'bed'
p1582
aS'she'
p1583
aS'piled'
p1584
aS','
p1585
aS'where'
p1586
aS'she'
p1587
aS'could'
p1588
aS'get'
p1589
aS'at'
p1590
aS'them'
p1591
aS'handily'
p1592
aS','
p1593
aS'all'
p1594
aS'the'
p1595
aS'shoes'
p1596
aS'there'
p1597
aS'were'
p1598
aS'about'
p1599
aS'her'
p1600
aS'house'
p1601
aS'.'
p1602
asg44
(lp1603
VWhen
p1604
aVshe
p1605
ag448
aVto
p1606
aVbed
p1607
aVshe
p1608
aVpile
p1609
ag57
aVwhere
p1610
aVshe
p1611
aVcould
p1612
aVget
p1613
aVat
p1614
aVthem
p1615
aVhandily
p1616
ag57
aVall
p1617
aVthe
p1618
aVshoe
p1619
aVthere
p1620
ag734
aVabout
p1621
aVher
p1622
aVhouse
p1623
ag68
asg69
(lp1624
g71
ag71
ag71
ag71
ag71
ag71
ag71
ag71
ag71
ag71
ag71
ag71
ag71
ag71
ag71
ag71
ag71
ag71
ag71
ag71
ag71
ag71
ag71
ag71
ag71
asg74
(lp1625
g305
ag76
ag85
ag228
ag86
ag76
ag85
ag84
ag305
ag76
ag306
ag229
ag78
ag76
ag227
ag84
ag79
ag79
ag223
ag227
ag85
ag78
ag82
ag81
ag87
asg88
VWhen she went to bed she piled, where she could get at them handily, all the shoes there were about her house.
p1626
sba(i__main__
Sentence
p1627
(dp1628
g17
I27
sg18
(lp1629
S'Five'
p1630
aS'minutes'
p1631
aS'after'
p1632
aS'she'
p1633
aS'had'
p1634
aS'turned'
p1635
aS'off'
p1636
aS'the'
p1637
aS'light'
p1638
aS','
p1639
aS'she'
p1640
aS'would'
p1641
aS'sit'
p1642
aS'up'
p1643
aS'in'
p1644
aS'bed'
p1645
aS'and'
p1646
aS'say'
p1647
aS'``'
p1648
aS'Hark'
p1649
aS'!'
p1650
aS"''"
p1651
asg44
(lp1652
VFive
p1653
aVminute
p1654
aVafter
p1655
aVshe
p1656
ag287
aVturn
p1657
aVoff
p1658
aVthe
p1659
aVlight
p1660
ag57
aVshe
p1661
aVwould
p1662
aVsit
p1663
aVup
p1664
aVin
p1665
aVbed
p1666
aVand
p1667
aVsay
p1668
aV``
p1669
aVHark
p1670
aV!
p1671
aV''
p1672
asg69
(lp1673
g71
ag71
ag71
ag71
ag71
ag71
ag71
ag71
ag71
ag71
ag71
ag71
ag71
ag71
ag71
ag71
ag71
ag71
ag71
ag71
ag71
ag71
asg74
(lp1674
g224
ag223
ag78
ag76
ag85
ag86
ag393
ag79
ag80
ag84
ag76
ag306
ag229
ag393
ag78
ag86
ag225
ag229
ag1373
ag83
ag87
ag1412
asg88
VFive minutes after she had turned off the light, she would sit up in bed and say "Hark!"
p1675
sba(i__main__
Sentence
p1676
(dp1677
g17
I28
sg18
(lp1678
S'Her'
p1679
aS'husband'
p1680
aS','
p1681
aS'who'
p1682
aS'had'
p1683
aS'learned'
p1684
aS'to'
p1685
aS'ignore'
p1686
aS'the'
p1687
aS'whole'
p1688
aS'situation'
p1689
aS'as'
p1690
aS'long'
p1691
aS'ago'
p1692
aS'as'
p1693
aS'1903'
p1694
aS','
p1695
aS'would'
p1696
aS'either'
p1697
aS'be'
p1698
aS'sound'
p1699
aS'asleep'
p1700
aS'or'
p1701
aS'pretend'
p1702
aS'to'
p1703
aS'be'
p1704
aS'sound'
p1705
aS'asleep'
p1706
aS'.'
p1707
asg44
(lp1708
VHer
p1709
aVhusband
p1710
ag57
aVwho
p1711
ag287
aVlearn
p1712
aVto
p1713
aVignore
p1714
aVthe
p1715
aVwhole
p1716
aVsituation
p1717
ag164
aVlong
p1718
aVago
p1719
ag164
aV1903
p1720
ag57
aVwould
p1721
aVeither
p1722
aVbe
p1723
aVsound
p1724
aVasleep
p1725
aVor
p1726
aVpretend
p1727
aVto
p1728
aVbe
p1729
aVsound
p1730
aVasleep
p1731
ag68
asg69
(lp1732
g71
ag71
ag71
ag71
ag71
ag71
ag71
ag71
ag71
ag71
ag71
ag71
ag71
ag71
ag71
ag71
ag71
ag71
ag71
ag71
ag71
ag71
ag71
ag71
ag71
ag71
ag71
ag71
ag71
asg74
(lp1733
g82
ag81
ag84
ag230
ag85
ag86
ag228
ag229
ag79
ag80
ag81
ag78
ag227
ag227
ag78
ag224
ag84
ag306
ag229
ag229
ag86
ag229
ag225
ag229
ag228
ag229
ag86
ag229
ag87
asg88
VHer husband, who had learned to ignore the whole situation as long ago as 1903, would either be sound asleep or pretend to be sound asleep.
p1734
sba(i__main__
Sentence
p1735
(dp1736
g17
I29
sg18
(lp1737
S'In'
p1738
aS'either'
p1739
aS'case'
p1740
aS'he'
p1741
aS'would'
p1742
aS'not'
p1743
aS'respond'
p1744
aS'to'
p1745
aS'her'
p1746
aS'tugging'
p1747
aS'and'
p1748
aS'pulling'
p1749
aS','
p1750
aS'so'
p1751
aS'that'
p1752
aS'presently'
p1753
aS'she'
p1754
aS'would'
p1755
aS'arise'
p1756
aS','
p1757
aS'tiptoe'
p1758
aS'to'
p1759
aS'the'
p1760
aS'door'
p1761
aS','
p1762
aS'open'
p1763
aS'it'
p1764
aS'slightly'
p1765
aS'and'
p1766
aS'heave'
p1767
aS'a'
p1768
aS'shoe'
p1769
aS'down'
p1770
aS'the'
p1771
aS'hall'
p1772
aS'in'
p1773
aS'one'
p1774
aS'direction'
p1775
aS','
p1776
aS'and'
p1777
aS'its'
p1778
aS'mate'
p1779
aS'down'
p1780
aS'the'
p1781
aS'hall'
p1782
aS'in'
p1783
aS'the'
p1784
aS'other'
p1785
aS'direction'
p1786
aS'.'
p1787
asg44
(lp1788
VIn
p1789
aVeither
p1790
aVcase
p1791
aVhe
p1792
aVwould
p1793
aVnot
p1794
aVrespond
p1795
aVto
p1796
aVher
p1797
aVtugging
p1798
aVand
p1799
aVpull
p1800
ag57
aVso
p1801
aVthat
p1802
aVpresently
p1803
aVshe
p1804
aVwould
p1805
aVarise
p1806
ag57
aVtiptoe
p1807
aVto
p1808
aVthe
p1809
aVdoor
p1810
ag57
aVopen
p1811
aVit
p1812
aVslightly
p1813
aVand
p1814
aVheave
p1815
ag164
aVshoe
p1816
aVdown
p1817
aVthe
p1818
aVhall
p1819
aVin
p1820
aVone
p1821
aVdirection
p1822
ag57
aVand
p1823
aVit
p1824
aVmate
p1825
aVdown
p1826
aVthe
p1827
aVhall
p1828
aVin
p1829
aVthe
p1830
aVother
p1831
aVdirection
p1832
ag68
asg69
(lp1833
g71
ag71
ag71
ag71
ag71
ag71
ag71
ag71
ag71
ag71
ag71
ag71
ag71
ag71
ag71
ag71
ag71
ag71
ag71
ag71
ag71
ag71
ag71
ag71
ag71
ag71
ag71
ag71
ag71
ag71
ag71
ag71
ag71
ag71
ag71
ag71
ag71
ag71
ag71
ag71
ag71
ag71
ag71
ag71
ag71
ag71
ag71
ag71
ag71
ag71
asg74
(lp1834
g78
ag79
ag81
ag76
ag306
ag227
ag229
ag228
ag82
ag81
ag225
ag226
ag84
ag227
ag78
ag227
ag76
ag306
ag229
ag84
ag81
ag228
ag79
ag81
ag84
ag80
ag76
ag227
ag225
ag229
ag79
ag81
ag78
ag79
ag81
ag78
ag224
ag81
ag84
ag225
ag82
ag81
ag78
ag79
ag81
ag78
ag79
ag80
ag81
ag87
asg88
VIn either case he would not respond to her tugging and pulling, so that presently she would arise, tiptoe to the door, open it slightly and heave a shoe down the hall in one direction, and its mate down the hall in the other direction.
p1835
sba(i__main__
Sentence
p1836
(dp1837
g17
I30
sg18
(lp1838
S'Some'
p1839
aS'nights'
p1840
aS'she'
p1841
aS'threw'
p1842
aS'them'
p1843
aS'all'
p1844
aS','
p1845
aS'some'
p1846
aS'nights'
p1847
aS'only'
p1848
aS'a'
p1849
aS'couple'
p1850
aS'of'
p1851
aS'pair'
p1852
aS'.'
p1853
asg44
(lp1854
VSome
p1855
aVnight
p1856
aVshe
p1857
aVthrow
p1858
aVthem
p1859
aVall
p1860
ag57
aVsome
p1861
aVnight
p1862
aVonly
p1863
ag164
aVcouple
p1864
aVof
p1865
aVpair
p1866
ag68
asg69
(lp1867
g71
ag71
ag71
ag71
ag71
ag71
ag71
ag71
ag71
ag71
ag71
ag71
ag71
ag71
ag71
asg74
(lp1868
g79
ag223
ag76
ag85
ag76
ag79
ag84
ag79
ag223
ag227
ag79
ag81
ag78
ag81
ag87
asg88
VSome nights she threw them all, some nights only a couple of pair.
p1869
sba(i__main__
Sentence
p1870
(dp1871
g17
I31
sg18
(lp1872
S'But'
p1873
aS'I'
p1874
aS'am'
p1875
aS'straying'
p1876
aS'from'
p1877
aS'the'
p1878
aS'remarkable'
p1879
aS'incidents'
p1880
aS'that'
p1881
aS'took'
p1882
aS'place'
p1883
aS'during'
p1884
aS'the'
p1885
aS'night'
p1886
aS'that'
p1887
aS'the'
p1888
aS'bed'
p1889
aS'fell'
p1890
aS'on'
p1891
aS'father'
p1892
aS'.'
p1893
asg44
(lp1894
VBut
p1895
ag46
aVbe
p1896
aVstray
p1897
aVfrom
p1898
aVthe
p1899
aVremarkable
p1900
aVincident
p1901
aVthat
p1902
ag992
aVplace
p1903
aVduring
p1904
aVthe
p1905
aVnight
p1906
aVthat
p1907
aVthe
p1908
aVbed
p1909
aVfell
p1910
aVon
p1911
aVfather
p1912
ag68
asg69
(lp1913
g71
ag71
ag71
ag71
ag71
ag71
ag71
ag71
ag71
ag71
ag71
ag71
ag71
ag71
ag71
ag71
ag71
ag71
ag71
ag71
ag71
asg74
(lp1914
g225
ag76
ag77
ag226
ag78
ag79
ag80
ag223
ag865
ag85
ag81
ag78
ag79
ag81
ag78
ag79
ag86
ag85
ag78
ag81
ag87
asg88
VBut I am straying from the remarkable incidents that took place during the night that the bed fell on father.
p1915
sba(i__main__
Sentence
p1916
(dp1917
g17
I32
sg18
(lp1918
S'By'
p1919
aS'midnight'
p1920
aS'we'
p1921
aS'were'
p1922
aS'all'
p1923
aS'in'
p1924
aS'bed'
p1925
aS'.'
p1926
asg44
(lp1927
VBy
p1928
aVmidnight
p1929
aVwe
p1930
ag734
aVall
p1931
aVin
p1932
aVbed
p1933
ag68
asg69
(lp1934
g71
ag71
ag71
ag71
ag71
ag71
ag71
ag71
asg74
(lp1935
g78
ag81
ag76
ag85
aS'PDT'
p1936
ag78
ag86
ag87
asg88
VBy midnight we were all in bed.
p1937
sba(i__main__
Sentence
p1938
(dp1939
g17
I33
sg18
(lp1940
S'The'
p1941
aS'layout'
p1942
aS'of'
p1943
aS'the'
p1944
aS'rooms'
p1945
aS'and'
p1946
aS'the'
p1947
aS'disposition'
p1948
aS'of'
p1949
aS'their'
p1950
aS'occupants'
p1951
aS'is'
p1952
aS'important'
p1953
aS'to'
p1954
aS'an'
p1955
aS'understanding'
p1956
aS'of'
p1957
aS'what'
p1958
aS'later'
p1959
aS'occurred'
p1960
aS'.'
p1961
asg44
(lp1962
VThe
p1963
aVlayout
p1964
aVof
p1965
aVthe
p1966
aVroom
p1967
aVand
p1968
aVthe
p1969
aVdisposition
p1970
aVof
p1971
aVtheir
p1972
aVoccupant
p1973
ag192
aVimportant
p1974
aVto
p1975
aVan
p1976
aVunderstanding
p1977
aVof
p1978
aVwhat
p1979
aVlate
p1980
aVoccur
p1981
ag68
asg69
(lp1982
g71
ag71
ag71
ag71
ag71
ag71
ag71
ag71
ag71
ag71
ag71
ag71
ag71
ag71
ag71
ag71
ag71
ag71
ag71
ag71
ag71
asg74
(lp1983
g79
ag81
ag78
ag79
ag223
ag225
ag79
ag81
ag78
ag82
ag223
ag220
ag80
ag228
ag79
ag81
ag78
ag230
ag80
ag85
ag87
asg88
VThe layout of the rooms and the disposition of their occupants is important to an understanding of what later occurred.
p1984
sba(i__main__
Sentence
p1985
(dp1986
g17
I34
sg18
(lp1987
S'In'
p1988
aS'the'
p1989
aS'front'
p1990
aS'room'
p1991
aS'upstairs'
p1992
aS'('
p1993
aS'just'
p1994
aS'under'
p1995
aS'father'
p1996
aS"'s"
p1997
aS'attic'
p1998
aS'bedroom'
p1999
aS')'
p2000
aS'were'
p2001
aS'my'
p2002
aS'mother'
p2003
aS'and'
p2004
aS'my'
p2005
aS'brother'
p2006
aS'Terry'
p2007
aS','
p2008
aS'who'
p2009
aS'sometimes'
p2010
aS'sang'
p2011
aS'in'
p2012
aS'his'
p2013
aS'sleep'
p2014
aS','
p2015
aS'usually'
p2016
aS'``'
p2017
aS'Marching'
p2018
aS'Through'
p2019
aS'Georgia'
p2020
aS"''"
p2021
aS'or'
p2022
aS'``'
p2023
aS'Onward'
p2024
aS','
p2025
aS'Christian'
p2026
aS'Soldiers'
p2027
aS'.'
p2028
aS"''"
p2029
asg44
(lp2030
VIn
p2031
aVthe
p2032
aVfront
p2033
aVroom
p2034
aVupstairs
p2035
ag167
aVjust
p2036
aVunder
p2037
aVfather
p2038
aV's
p2039
aVattic
p2040
aVbedroom
p2041
ag183
ag734
aVmy
p2042
aVmother
p2043
aVand
p2044
aVmy
p2045
aVbrother
p2046
aVTerry
p2047
ag57
aVwho
p2048
aVsometimes
p2049
aVsing
p2050
aVin
p2051
aVhis
p2052
aVsleep
p2053
ag57
aVusually
p2054
aV``
p2055
aVMarching
p2056
aVThrough
p2057
aVGeorgia
p2058
aV''
p2059
aVor
p2060
aV``
p2061
aVOnward
p2062
ag57
aVChristian
p2063
aVSoldiers
p2064
ag68
aV''
p2065
asg69
(lp2066
g71
ag71
ag71
ag71
ag71
ag71
ag71
ag71
ag71
ag71
ag71
ag71
ag71
ag71
ag71
ag71
ag71
ag71
ag71
aVPERSON
p2067
ag71
ag71
ag71
ag71
ag71
ag71
ag71
ag71
ag71
ag71
ag71
ag71
aVLOCATION
p2068
ag71
ag71
ag71
ag71
ag71
ag71
ag71
ag71
ag71
asg74
(lp2069
g78
ag79
ag81
ag81
ag223
ag222
ag227
ag78
ag81
ag395
ag80
ag81
ag222
ag85
ag82
ag81
ag225
ag82
ag81
ag83
ag84
ag230
ag227
ag77
ag78
ag82
ag81
ag84
ag227
ag1373
ag83
ag83
ag83
ag1412
ag225
ag1373
ag83
ag84
ag83
ag83
ag87
ag1412
asg88
VIn the front room upstairs (just under father's attic bedroom) were my mother and my brother Terry, who sometimes sang in his sleep, usually "Marching Through Georgia" or "Onward, Christian Soldiers."
p2070
sba(i__main__
Sentence
p2071
(dp2072
g17
I35
sg18
(lp2073
S'Briggs'
p2074
aS'Beall'
p2075
aS'and'
p2076
aS'myself'
p2077
aS'were'
p2078
aS'in'
p2079
aS'a'
p2080
aS'room'
p2081
aS'adjoining'
p2082
aS'this'
p2083
aS'one'
p2084
aS'.'
p2085
asg44
(lp2086
VBriggs
p2087
aVBeall
p2088
aVand
p2089
aVmyself
p2090
ag734
aVin
p2091
ag164
aVroom
p2092
aVadjoin
p2093
aVthis
p2094
aVone
p2095
ag68
asg69
(lp2096
VPERSON
p2097
aVPERSON
p2098
ag71
ag71
ag71
ag71
ag71
ag71
ag71
ag71
ag71
ag71
asg74
(lp2099
g223
ag83
ag225
ag76
ag85
ag78
ag79
ag81
ag226
ag79
ag224
ag87
asg88
VBriggs Beall and myself were in a room adjoining this one.
p2100
sba(i__main__
Sentence
p2101
(dp2102
g17
I36
sg18
(lp2103
S'My'
p2104
aS'brother'
p2105
aS'Roy'
p2106
aS'was'
p2107
aS'in'
p2108
aS'a'
p2109
aS'room'
p2110
aS'across'
p2111
aS'the'
p2112
aS'hall'
p2113
aS'from'
p2114
aS'ours'
p2115
aS'.'
p2116
asg44
(lp2117
VMy
p2118
aVbrother
p2119
aVRoy
p2120
ag59
aVin
p2121
ag164
aVroom
p2122
aVacross
p2123
aVthe
p2124
aVhall
p2125
aVfrom
p2126
aVours
p2127
ag68
asg69
(lp2128
g71
ag71
aVPERSON
p2129
ag71
ag71
ag71
ag71
ag71
ag71
ag71
ag71
ag71
ag71
asg74
(lp2130
g82
ag81
ag83
ag85
ag78
ag79
ag81
ag78
ag79
ag81
ag78
ag223
ag87
asg88
VMy brother Roy was in a room across the hall from ours.
p2131
sba(i__main__
Sentence
p2132
(dp2133
g17
I37
sg18
(lp2134
S'Our'
p2135
aS'bull'
p2136
aS'terrier'
p2137
aS','
p2138
aS'Rex'
p2139
aS','
p2140
aS'slept'
p2141
aS'in'
p2142
aS'the'
p2143
aS'hall'
p2144
aS'.'
p2145
asg44
(lp2146
VOur
p2147
aVbull
p2148
aVterrier
p2149
ag57
aVRex
p2150
ag57
ag511
aVin
p2151
aVthe
p2152
aVhall
p2153
ag68
asg69
(lp2154
g71
ag71
ag71
ag71
aVPERSON
p2155
ag71
ag71
ag71
ag71
ag71
ag71
asg74
(lp2156
g82
ag81
ag81
ag84
ag83
ag84
ag85
ag78
ag79
ag81
ag87
asg88
VOur bull terrier, Rex, slept in the hall.
p2157
sba(i__main__
Sentence
p2158
(dp2159
g17
I38
sg18
(lp2160
S'My'
p2161
aS'bed'
p2162
aS'was'
p2163
aS'an'
p2164
aS'army'
p2165
aS'cot'
p2166
aS','
p2167
aS'one'
p2168
aS'of'
p2169
aS'those'
p2170
aS'affairs'
p2171
aS'which'
p2172
aS'are'
p2173
aS'made'
p2174
aS'wide'
p2175
aS'enough'
p2176
aS'to'
p2177
aS'sleep'
p2178
aS'on'
p2179
aS'comfortably'
p2180
aS'only'
p2181
aS'by'
p2182
aS'putting'
p2183
aS'up'
p2184
aS','
p2185
aS'flat'
p2186
aS'with'
p2187
aS'the'
p2188
aS'middle'
p2189
aS'section'
p2190
aS','
p2191
aS'the'
p2192
aS'two'
p2193
aS'sides'
p2194
aS'which'
p2195
aS'ordinarily'
p2196
aS'hang'
p2197
aS'down'
p2198
aS'like'
p2199
aS'the'
p2200
aS'sideboards'
p2201
aS'of'
p2202
aS'a'
p2203
aS'drop-leaf'
p2204
aS'table'
p2205
aS'.'
p2206
asg44
(lp2207
VMy
p2208
aVbed
p2209
ag59
aVan
p2210
aVarmy
p2211
aVcot
p2212
ag57
aVone
p2213
aVof
p2214
aVthose
p2215
aVaffair
p2216
aVwhich
p2217
aVbe
p2218
aVmake
p2219
aVwide
p2220
aVenough
p2221
aVto
p2222
aVsleep
p2223
aVon
p2224
aVcomfortably
p2225
aVonly
p2226
aVby
p2227
aVputting
p2228
aVup
p2229
ag57
aVflat
p2230
aVwith
p2231
aVthe
p2232
aVmiddle
p2233
aVsection
p2234
ag57
aVthe
p2235
aVtwo
p2236
aVside
p2237
aVwhich
p2238
aVordinarily
p2239
aVhang
p2240
aVdown
p2241
aVlike
p2242
aVthe
p2243
aVsideboard
p2244
aVof
p2245
ag164
aVdrop-leaf
p2246
aVtable
p2247
ag68
asg69
(lp2248
g71
ag71
ag71
ag71
ag71
ag71
ag71
ag71
ag71
ag71
ag71
ag71
ag71
ag71
ag71
ag71
ag71
ag71
ag71
ag71
ag71
ag71
ag71
ag71
ag71
ag71
ag71
ag71
ag71
ag71
ag71
ag71
ag71
ag71
ag71
ag71
ag71
ag71
ag71
ag71
ag71
ag71
ag71
ag71
ag71
ag71
asg74
(lp2249
g82
ag86
ag85
ag79
ag81
ag81
ag84
ag224
ag78
ag79
ag223
ag865
ag77
ag86
ag80
ag227
ag228
ag229
ag78
ag227
ag227
ag78
ag81
ag78
ag84
ag80
ag78
ag79
ag81
ag81
ag84
ag79
ag224
ag223
ag865
ag227
ag77
ag78
ag78
ag79
ag223
ag78
ag79
ag80
ag81
ag87
asg88
VMy bed was an army cot, one of those affairs which are made wide enough to sleep on comfortably only by putting up, flat with the middle section, the two sides which ordinarily hang down like the sideboards of a drop-leaf table.
p2250
sba(i__main__
Sentence
p2251
(dp2252
g17
I39
sg18
(lp2253
S'When'
p2254
aS'these'
p2255
aS'sides'
p2256
aS'are'
p2257
aS'up'
p2258
aS','
p2259
aS'it'
p2260
aS'is'
p2261
aS'perilous'
p2262
aS'to'
p2263
aS'roll'
p2264
aS'too'
p2265
aS'far'
p2266
aS'toward'
p2267
aS'the'
p2268
aS'edge'
p2269
aS','
p2270
aS'for'
p2271
aS'then'
p2272
aS'the'
p2273
aS'cot'
p2274
aS'is'
p2275
aS'likely'
p2276
aS'to'
p2277
aS'tip'
p2278
aS'completely'
p2279
aS'over'
p2280
aS','
p2281
aS'bringing'
p2282
aS'the'
p2283
aS'whole'
p2284
aS'bed'
p2285
aS'down'
p2286
aS'on'
p2287
aS'top'
p2288
aS'of'
p2289
aS'one'
p2290
aS','
p2291
aS'with'
p2292
aS'a'
p2293
aS'tremendous'
p2294
aS'banging'
p2295
aS'crash'
p2296
aS'.'
p2297
asg44
(lp2298
VWhen
p2299
aVthese
p2300
aVside
p2301
ag2218
aVup
p2302
ag57
aVit
p2303
ag192
aVperilous
p2304
aVto
p2305
aVroll
p2306
aVtoo
p2307
aVfar
p2308
aVtoward
p2309
aVthe
p2310
aVedge
p2311
ag57
aVfor
p2312
aVthen
p2313
aVthe
p2314
aVcot
p2315
ag192
aVlikely
p2316
aVto
p2317
aVtip
p2318
aVcompletely
p2319
aVover
p2320
ag57
aVbring
p2321
aVthe
p2322
aVwhole
p2323
aVbed
p2324
aVdown
p2325
aVon
p2326
aVtop
p2327
aVof
p2328
aVone
p2329
ag57
aVwith
p2330
ag164
aVtremendous
p2331
aVbanging
p2332
aVcrash
p2333
ag68
asg69
(lp2334
g71
ag71
ag71
ag71
ag71
ag71
ag71
ag71
ag71
ag71
ag71
ag71
ag71
ag71
ag71
ag71
ag71
ag71
ag71
ag71
ag71
ag71
ag71
ag71
ag71
ag71
ag71
ag71
ag71
ag71
ag71
ag71
ag71
ag71
ag71
ag71
ag71
ag71
ag71
ag71
ag71
ag71
ag71
ag71
asg74
(lp2335
g305
ag79
ag223
ag77
ag393
ag84
ag76
ag220
ag80
ag228
ag229
ag227
ag227
ag78
ag79
ag81
ag84
ag78
ag227
ag79
ag81
ag220
ag80
ag228
ag229
ag227
ag78
ag84
ag226
ag79
ag80
ag86
ag393
ag78
ag80
ag78
ag224
ag84
ag78
ag79
ag80
ag81
ag81
ag87
asg88
VWhen these sides are up, it is perilous to roll too far toward the edge, for then the cot is likely to tip completely over, bringing the whole bed down on top of one, with a tremendous banging crash.
p2336
sba(i__main__
Sentence
p2337
(dp2338
g17
I40
sg18
(lp2339
S'This'
p2340
aS','
p2341
aS'in'
p2342
aS'fact'
p2343
aS','
p2344
aS'is'
p2345
aS'precisely'
p2346
aS'what'
p2347
aS'happened'
p2348
aS','
p2349
aS'about'
p2350
aS'two'
p2351
aS"o'clock"
p2352
aS'in'
p2353
aS'the'
p2354
aS'morning'
p2355
aS'.'
p2356
asg44
(lp2357
VThis
p2358
ag57
aVin
p2359
aVfact
p2360
ag57
ag192
aVprecisely
p2361
aVwhat
p2362
aVhappen
p2363
ag57
aVabout
p2364
aVtwo
p2365
aVo'clock
p2366
aVin
p2367
aVthe
p2368
aVmorning
p2369
ag68
asg69
(lp2370
g71
ag71
ag71
ag71
ag71
ag71
ag71
ag71
ag71
ag71
ag71
ag71
ag71
ag71
ag71
ag71
ag71
asg74
(lp2371
g79
ag84
ag78
ag81
ag84
ag220
ag227
ag230
ag86
ag84
ag78
ag224
ag80
ag78
ag79
ag81
ag87
asg88
VThis, in fact, is precisely what happened, about two o'clock in the morning.
p2372
sba(i__main__
Sentence
p2373
(dp2374
g17
I41
sg18
(lp2375
S'('
p2376
aS'It'
p2377
aS'was'
p2378
aS'my'
p2379
aS'mother'
p2380
aS'who'
p2381
aS','
p2382
aS'in'
p2383
aS'recalling'
p2384
aS'the'
p2385
aS'scene'
p2386
aS'later'
p2387
aS','
p2388
aS'first'
p2389
aS'referred'
p2390
aS'to'
p2391
aS'it'
p2392
aS'as'
p2393
aS'``'
p2394
aS'the'
p2395
aS'night'
p2396
aS'the'
p2397
aS'bed'
p2398
aS'fell'
p2399
aS'on'
p2400
aS'your'
p2401
aS'father'
p2402
aS'.'
p2403
aS"''"
p2404
aS')'
p2405
asg44
(lp2406
g167
aVIt
p2407
ag59
aVmy
p2408
aVmother
p2409
aVwho
p2410
ag57
aVin
p2411
aVrecalling
p2412
aVthe
p2413
aVscene
p2414
aVlate
p2415
ag57
aVfirst
p2416
aVrefer
p2417
aVto
p2418
aVit
p2419
ag164
aV``
p2420
aVthe
p2421
aVnight
p2422
aVthe
p2423
aVbed
p2424
aVfell
p2425
aVon
p2426
aVyour
p2427
aVfather
p2428
ag68
aV''
p2429
ag183
asg69
(lp2430
g71
ag71
ag71
ag71
ag71
ag71
ag71
ag71
ag71
ag71
ag71
ag71
ag71
ag71
ag71
ag71
ag71
ag71
ag71
ag71
ag71
ag71
ag71
ag71
ag71
ag71
ag71
ag71
ag71
ag71
asg74
(lp2431
g81
ag76
ag85
ag82
ag81
ag230
ag84
ag78
ag81
ag79
ag81
ag80
ag84
ag80
ag85
ag228
ag76
ag78
ag1373
ag79
ag81
ag79
ag86
ag85
ag78
ag82
ag81
ag87
ag1412
ag222
asg88
V(It was my mother who, in recalling the scene later, first referred to it as "the night the bed fell on your father.")
p2432
sba(i__main__
Sentence
p2433
(dp2434
g17
I42
sg18
(lp2435
S'Always'
p2436
aS'a'
p2437
aS'deep'
p2438
aS'sleeper'
p2439
aS','
p2440
aS'slow'
p2441
aS'to'
p2442
aS'arouse'
p2443
aS'('
p2444
aS'I'
p2445
aS'had'
p2446
aS'lied'
p2447
aS'to'
p2448
aS'Briggs'
p2449
aS')'
p2450
aS','
p2451
aS'I'
p2452
aS'was'
p2453
aS'at'
p2454
aS'first'
p2455
aS'unconscious'
p2456
aS'of'
p2457
aS'what'
p2458
aS'had'
p2459
aS'happened'
p2460
aS'when'
p2461
aS'the'
p2462
aS'iron'
p2463
aS'cot'
p2464
aS'rolled'
p2465
aS'me'
p2466
aS'onto'
p2467
aS'the'
p2468
aS'floor'
p2469
aS'and'
p2470
aS'toppled'
p2471
aS'over'
p2472
aS'on'
p2473
aS'me'
p2474
aS'.'
p2475
asg44
(lp2476
VAlways
p2477
ag164
aVdeep
p2478
aVsleeper
p2479
ag57
aVslow
p2480
aVto
p2481
aVarouse
p2482
ag167
ag46
ag287
aVlie
p2483
aVto
p2484
aVBriggs
p2485
ag183
ag57
ag46
ag59
aVat
p2486
aVfirst
p2487
aVunconscious
p2488
aVof
p2489
aVwhat
p2490
ag287
aVhappen
p2491
aVwhen
p2492
aVthe
p2493
aViron
p2494
aVcot
p2495
aVroll
p2496
aVme
p2497
aVonto
p2498
aVthe
p2499
aVfloor
p2500
aVand
p2501
aVtopple
p2502
aVover
p2503
aVon
p2504
aVme
p2505
ag68
asg69
(lp2506
g71
ag71
ag71
ag71
ag71
ag71
ag71
ag71
ag71
ag71
ag71
ag71
ag71
aVPERSON
p2507
ag71
ag71
ag71
ag71
ag71
ag71
ag71
ag71
ag71
ag71
ag71
ag71
ag71
ag71
ag71
ag71
ag71
ag71
ag71
ag71
ag71
ag71
ag71
ag71
ag71
ag71
asg74
(lp2508
g227
ag79
ag81
ag81
ag84
ag80
ag228
ag229
ag222
ag76
ag85
ag86
ag228
ag83
ag83
ag84
ag76
ag85
ag78
ag80
ag80
ag78
ag230
ag85
ag86
ag305
ag79
ag81
ag81
ag85
ag76
ag78
ag79
ag81
ag225
ag85
ag393
ag78
ag76
ag87
asg88
VAlways a deep sleeper, slow to arouse (I had lied to Briggs), I was at first unconscious of what had happened when the iron cot rolled me onto the floor and toppled over on me.
p2509
sba(i__main__
Sentence
p2510
(dp2511
g17
I43
sg18
(lp2512
S'It'
p2513
aS'left'
p2514
aS'me'
p2515
aS'still'
p2516
aS'warmly'
p2517
aS'bundled'
p2518
aS'up'
p2519
aS'and'
p2520
aS'unhurt'
p2521
aS','
p2522
aS'for'
p2523
aS'the'
p2524
aS'bed'
p2525
aS'rested'
p2526
aS'above'
p2527
aS'me'
p2528
aS'like'
p2529
aS'a'
p2530
aS'canopy'
p2531
aS'.'
p2532
asg44
(lp2533
VIt
p2534
aVleave
p2535
aVme
p2536
aVstill
p2537
aVwarmly
p2538
aVbundle
p2539
aVup
p2540
aVand
p2541
aVunhurt
p2542
ag57
aVfor
p2543
aVthe
p2544
aVbed
p2545
aVrest
p2546
aVabove
p2547
aVme
p2548
aVlike
p2549
ag164
aVcanopy
p2550
ag68
asg69
(lp2551
g71
ag71
ag71
ag71
ag71
ag71
ag71
ag71
ag71
ag71
ag71
ag71
ag71
ag71
ag71
ag71
ag71
ag71
ag71
ag71
asg74
(lp2552
g76
ag85
ag76
ag227
ag227
ag86
ag393
ag225
ag81
ag84
ag78
ag79
ag86
ag86
ag78
ag76
ag78
ag79
ag81
ag87
asg88
VIt left me still warmly bundled up and unhurt, for the bed rested above me like a canopy.
p2553
sba(i__main__
Sentence
p2554
(dp2555
g17
I44
sg18
(lp2556
S'Hence'
p2557
aS'I'
p2558
aS'did'
p2559
aS'not'
p2560
aS'wake'
p2561
aS'up'
p2562
aS','
p2563
aS'only'
p2564
aS'reached-the'
p2565
aS'edge'
p2566
aS'of'
p2567
aS'consciousness'
p2568
aS'and'
p2569
aS'went'
p2570
aS'back'
p2571
aS'.'
p2572
asg44
(lp2573
VHence
p2574
ag46
ag245
aVnot
p2575
aVwake
p2576
aVup
p2577
ag57
aVonly
p2578
aVreached-the
p2579
aVedge
p2580
aVof
p2581
aVconsciousness
p2582
aVand
p2583
ag448
aVback
p2584
ag68
asg69
(lp2585
g71
ag71
ag71
ag71
ag71
ag71
ag71
ag71
ag71
ag71
ag71
ag71
ag71
ag71
ag71
ag71
asg74
(lp2586
g81
ag76
ag85
ag227
ag229
ag393
ag84
ag227
ag80
ag81
ag78
ag81
ag225
ag85
ag393
ag87
asg88
VHence I did not wake up, only reached-the edge of consciousness and went back.
p2587
sba(i__main__
Sentence
p2588
(dp2589
g17
I45
sg18
(lp2590
S'The'
p2591
aS'racket'
p2592
aS','
p2593
aS'however'
p2594
aS','
p2595
aS'instantly'
p2596
aS'awakened'
p2597
aS'my'
p2598
aS'mother'
p2599
aS','
p2600
aS'in'
p2601
aS'the'
p2602
aS'next'
p2603
aS'room'
p2604
aS','
p2605
aS'who'
p2606
aS'came'
p2607
aS'to'
p2608
aS'the'
p2609
aS'immediate'
p2610
aS'conclusion'
p2611
aS'that'
p2612
aS'her'
p2613
aS'worst'
p2614
aS'dread'
p2615
aS'was'
p2616
aS'realized'
p2617
aS':'
p2618
aS'the'
p2619
aS'big'
p2620
aS'wooden'
p2621
aS'bed'
p2622
aS'upstairs'
p2623
aS'had'
p2624
aS'fallen'
p2625
aS'on'
p2626
aS'father'
p2627
aS'.'
p2628
asg44
(lp2629
VThe
p2630
aVracket
p2631
ag57
aVhowever
p2632
ag57
aVinstantly
p2633
aVawaken
p2634
aVmy
p2635
aVmother
p2636
ag57
aVin
p2637
aVthe
p2638
aVnext
p2639
aVroom
p2640
ag57
aVwho
p2641
aVcome
p2642
aVto
p2643
aVthe
p2644
aVimmediate
p2645
aVconclusion
p2646
aVthat
p2647
aVher
p2648
aVworst
p2649
aVdread
p2650
ag59
aVrealize
p2651
ag1366
aVthe
p2652
aVbig
p2653
aVwooden
p2654
aVbed
p2655
aVupstairs
p2656
ag287
aVfall
p2657
aVon
p2658
aVfather
p2659
ag68
asg69
(lp2660
g71
ag71
ag71
ag71
ag71
ag71
ag71
ag71
ag71
ag71
ag71
ag71
ag71
ag71
ag71
ag71
ag71
ag71
ag71
ag71
ag71
ag71
ag71
ag71
ag71
ag71
ag71
ag71
ag71
ag71
ag71
ag71
ag71
ag71
ag71
ag71
ag71
ag71
asg74
(lp2661
g79
ag81
ag84
ag227
ag84
ag227
ag86
ag82
ag81
ag84
ag78
ag79
ag80
ag81
ag84
ag230
ag85
ag228
ag79
ag80
ag81
ag865
ag82
ag81
ag81
ag85
ag86
ag222
ag79
ag80
ag81
ag85
ag223
ag85
ag86
ag78
ag81
ag87
asg88
VThe racket, however, instantly awakened my mother, in the next room, who came to the immediate conclusion that her worst dread was realized: the big wooden bed upstairs had fallen on father.
p2662
sba(i__main__
Sentence
p2663
(dp2664
g17
I46
sg18
(lp2665
S'She'
p2666
aS'therefore'
p2667
aS'screamed'
p2668
aS','
p2669
aS'``'
p2670
aS'Let'
p2671
aS"'s"
p2672
aS'go'
p2673
aS'to'
p2674
aS'your'
p2675
aS'poor'
p2676
aS'father'
p2677
aS'!'
p2678
aS"''"
p2679
asg44
(lp2680
VShe
p2681
aVtherefore
p2682
aVscream
p2683
ag57
aV``
p2684
aVLet
p2685
aV's
p2686
aVgo
p2687
aVto
p2688
aVyour
p2689
aVpoor
p2690
aVfather
p2691
ag1671
aV''
p2692
asg69
(lp2693
g71
ag71
ag71
ag71
ag71
ag71
ag71
ag71
ag71
ag71
ag71
ag71
ag71
ag71
asg74
(lp2694
g76
ag85
ag86
ag84
ag1373
ag83
ag395
ag81
ag228
ag82
ag81
ag81
ag87
ag1412
asg88
VShe therefore screamed, "Let's go to your poor father!"
p2695
sba(i__main__
Sentence
p2696
(dp2697
g17
I47
sg18
(lp2698
S'It'
p2699
aS'was'
p2700
aS'this'
p2701
aS'shout'
p2702
aS','
p2703
aS'rather'
p2704
aS','
p2705
aS'than'
p2706
aS'the'
p2707
aS'noise'
p2708
aS'of'
p2709
aS'my'
p2710
aS'cot'
p2711
aS'falling'
p2712
aS','
p2713
aS'that'
p2714
aS'awakened'
p2715
aS'Herman'
p2716
aS','
p2717
aS'in'
p2718
aS'the'
p2719
aS'same'
p2720
aS'room'
p2721
aS'with'
p2722
aS'her'
p2723
aS'.'
p2724
asg44
(lp2725
VIt
p2726
ag59
aVthis
p2727
aVshout
p2728
ag57
aVrather
p2729
ag57
aVthan
p2730
aVthe
p2731
aVnoise
p2732
aVof
p2733
aVmy
p2734
aVcot
p2735
aVfall
p2736
ag57
aVthat
p2737
aVawaken
p2738
aVHerman
p2739
ag57
aVin
p2740
aVthe
p2741
aVsame
p2742
aVroom
p2743
aVwith
p2744
aVher
p2745
ag68
asg69
(lp2746
g71
ag71
ag71
ag71
ag71
ag71
ag71
ag71
ag71
ag71
ag71
ag71
ag71
ag71
ag71
ag71
ag71
aVPERSON
p2747
ag71
ag71
ag71
ag71
ag71
ag71
ag71
ag71
asg74
(lp2748
g76
ag85
ag79
ag81
ag84
ag227
ag84
ag78
ag79
ag81
ag78
ag82
ag81
ag226
ag84
ag78
ag86
ag83
ag84
ag78
ag79
ag80
ag81
ag78
ag82
ag87
asg88
VIt was this shout, rather, than the noise of my cot falling, that awakened Herman, in the same room with her.
p2749
sba(i__main__
Sentence
p2750
(dp2751
g17
I48
sg18
(lp2752
S'He'
p2753
aS'thought'
p2754
aS'that'
p2755
aS'mother'
p2756
aS'had'
p2757
aS'become'
p2758
aS','
p2759
aS'for'
p2760
aS'no'
p2761
aS'apparent'
p2762
aS'reason'
p2763
aS','
p2764
aS'hysterical'
p2765
aS'.'
p2766
asg44
(lp2767
VHe
p2768
aVthink
p2769
aVthat
p2770
aVmother
p2771
ag287
aVbecome
p2772
ag57
aVfor
p2773
aVno
p2774
aVapparent
p2775
aVreason
p2776
ag57
aVhysterical
p2777
ag68
asg69
(lp2778
g71
ag71
ag71
ag71
ag71
ag71
ag71
ag71
ag71
ag71
ag71
ag71
ag71
ag71
asg74
(lp2779
g76
ag85
ag78
ag81
ag85
ag86
ag84
ag78
ag79
ag81
ag81
ag84
ag80
ag87
asg88
VHe thought that mother had become, for no apparent reason, hysterical.
p2780
sba(i__main__
Sentence
p2781
(dp2782
g17
I49
sg18
(lp2783
S'``'
p2784
aS'You'
p2785
aS"'re"
p2786
aS'all'
p2787
aS'right'
p2788
aS','
p2789
aS'Mamma'
p2790
aS'!'
p2791
aS"''"
p2792
asg44
(lp2793
V``
p2794
aVYou
p2795
aV're
p2796
aVall
p2797
aVright
p2798
ag57
aVMamma
p2799
ag1671
aV''
p2800
asg69
(lp2801
g71
ag71
ag71
ag71
ag71
ag71
ag71
ag71
ag71
asg74
(lp2802
g1373
ag76
ag77
ag79
ag81
ag84
ag83
ag87
ag1412
asg88
V"You're all right, Mamma!"
p2803
sba(i__main__
Sentence
p2804
(dp2805
g17
I50
sg18
(lp2806
S'He'
p2807
aS'shouted'
p2808
aS','
p2809
aS'trying'
p2810
aS','
p2811
aS'to'
p2812
aS'calm'
p2813
aS'her'
p2814
aS'.'
p2815
asg44
(lp2816
VHe
p2817
aVshout
p2818
ag57
aVtry
p2819
ag57
aVto
p2820
aVcalm
p2821
aVher
p2822
ag68
asg69
(lp2823
g71
ag71
ag71
ag71
ag71
ag71
ag71
ag71
ag71
asg74
(lp2824
g76
ag85
ag84
ag226
ag84
ag228
ag229
ag82
ag87
asg88
VHe shouted, trying, to calm her.
p2825
sba(i__main__
Sentence
p2826
(dp2827
g17
I51
sg18
(lp2828
S'They'
p2829
aS'exchanged'
p2830
aS'shout'
p2831
aS'for'
p2832
aS'shout'
p2833
aS'for'
p2834
aS'perhaps'
p2835
aS'ten'
p2836
aS'seconds'
p2837
aS':'
p2838
aS'``'
p2839
aS'Let'
p2840
aS"'s"
p2841
aS'go'
p2842
aS'to'
p2843
aS'your'
p2844
aS'poor'
p2845
aS'father'
p2846
aS'!'
p2847
aS"''"
p2848
asg44
(lp2849
VThey
p2850
aVexchange
p2851
aVshout
p2852
aVfor
p2853
aVshout
p2854
aVfor
p2855
aVperhaps
p2856
aVten
p2857
aVsecond
p2858
ag1366
aV``
p2859
aVLet
p2860
aV's
p2861
aVgo
p2862
aVto
p2863
aVyour
p2864
aVpoor
p2865
aVfather
p2866
ag1671
aV''
p2867
asg69
(lp2868
g71
ag71
ag71
ag71
ag71
ag71
ag71
ag71
ag71
ag71
ag71
ag71
ag71
ag71
ag71
ag71
ag71
ag71
ag71
ag71
asg74
(lp2869
g76
ag85
ag78
ag78
ag78
ag78
ag227
ag86
ag223
ag222
ag1373
ag229
ag220
ag229
ag228
ag82
ag81
ag81
ag87
ag1412
asg88
VThey exchanged shout for shout for perhaps ten seconds: "Let's go to your poor father!"
p2870
sba(i__main__
Sentence
p2871
(dp2872
g17
I52
sg18
(lp2873
S'and'
p2874
aS'``'
p2875
aS'You'
p2876
aS"'re"
p2877
aS'all'
p2878
aS'right'
p2879
aS'!'
p2880
aS'``'
p2881
asg44
(lp2882
Vand
p2883
aV``
p2884
aVYou
p2885
aV're
p2886
aVall
p2887
aVright
p2888
ag1671
aV``
p2889
asg69
(lp2890
g71
ag71
ag71
ag71
ag71
ag71
ag71
ag71
asg74
(lp2891
g225
ag1373
ag76
ag77
ag79
ag81
ag87
ag1373
asg88
Vand "You're all right! "
p2892
sba(i__main__
Sentence
p2893
(dp2894
g17
I53
sg18
(lp2895
S'That'
p2896
aS'woke'
p2897
aS'up'
p2898
aS'Briggs'
p2899
aS'.'
p2900
asg44
(lp2901
VThat
p2902
aVwoke
p2903
aVup
p2904
aVBriggs
p2905
ag68
asg69
(lp2906
g71
ag71
ag71
aVPERSON
p2907
ag71
asg74
(lp2908
g79
ag81
ag393
ag83
ag87
asg88
VThat woke up Briggs.
p2909
sba(i__main__
Sentence
p2910
(dp2911
g17
I54
sg18
(lp2912
S'By'
p2913
aS'this'
p2914
aS'time'
p2915
aS'I'
p2916
aS'was'
p2917
aS'conscious'
p2918
aS'of'
p2919
aS'what'
p2920
aS'was'
p2921
aS'going'
p2922
aS'on'
p2923
aS','
p2924
aS'in'
p2925
aS'a'
p2926
aS'vague'
p2927
aS'way'
p2928
aS','
p2929
aS'but'
p2930
aS'did'
p2931
aS'not'
p2932
aS'yet'
p2933
aS'realize'
p2934
aS'that'
p2935
aS'I'
p2936
aS'was'
p2937
aS'under'
p2938
aS'my'
p2939
aS'bed'
p2940
aS'instead'
p2941
aS'of'
p2942
aS'on'
p2943
aS'it'
p2944
aS'.'
p2945
asg44
(lp2946
VBy
p2947
aVthis
p2948
aVtime
p2949
ag46
ag59
aVconscious
p2950
aVof
p2951
aVwhat
p2952
ag59
aVgo
p2953
aVon
p2954
ag57
aVin
p2955
ag164
aVvague
p2956
aVway
p2957
ag57
aVbut
p2958
ag245
aVnot
p2959
aVyet
p2960
aVrealize
p2961
aVthat
p2962
ag46
ag59
aVunder
p2963
aVmy
p2964
aVbed
p2965
aVinstead
p2966
aVof
p2967
aVon
p2968
aVit
p2969
ag68
asg69
(lp2970
g71
ag71
ag71
ag71
ag71
ag71
ag71
ag71
ag71
ag71
ag71
ag71
ag71
ag71
ag71
ag71
ag71
ag71
ag71
ag71
ag71
ag71
ag71
ag71
ag71
ag71
ag71
ag71
ag71
ag71
ag71
ag71
ag71
asg74
(lp2971
g78
ag79
ag81
ag76
ag85
ag80
ag78
ag230
ag85
ag226
ag78
ag84
ag78
ag79
ag81
ag81
ag84
ag225
ag85
ag227
ag227
ag229
ag78
ag76
ag85
ag78
ag82
ag86
ag227
ag78
ag78
ag76
ag87
asg88
VBy this time I was conscious of what was going on, in a vague way, but did not yet realize that I was under my bed instead of on it.
p2972
sba(i__main__
Sentence
p2973
(dp2974
g17
I55
sg18
(lp2975
S'Briggs'
p2976
aS','
p2977
aS'awakening'
p2978
aS'in'
p2979
aS'the'
p2980
aS'midst'
p2981
aS'of'
p2982
aS'loud'
p2983
aS'shouts'
p2984
aS'of'
p2985
aS'fear'
p2986
aS'and'
p2987
aS'apprehension'
p2988
aS','
p2989
aS'came'
p2990
aS'to'
p2991
aS'the'
p2992
aS'quick'
p2993
aS'conclusion'
p2994
aS'that'
p2995
aS'he'
p2996
aS'was'
p2997
aS'suffocating'
p2998
aS'and'
p2999
aS'that'
p3000
aS'we'
p3001
aS'were'
p3002
aS'all'
p3003
aS'trying'
p3004
aS'to'
p3005
aS'``'
p3006
aS'bring'
p3007
aS'him'
p3008
aS'out'
p3009
aS'.'
p3010
aS"''"
p3011
asg44
(lp3012
VBriggs
p3013
ag57
aVawaken
p3014
aVin
p3015
aVthe
p3016
aVmidst
p3017
aVof
p3018
aVloud
p3019
aVshout
p3020
aVof
p3021
aVfear
p3022
aVand
p3023
aVapprehension
p3024
ag57
ag2642
aVto
p3025
aVthe
p3026
aVquick
p3027
aVconclusion
p3028
aVthat
p3029
aVhe
p3030
ag59
aVsuffocate
p3031
aVand
p3032
aVthat
p3033
aVwe
p3034
ag734
aVall
p3035
aVtry
p3036
aVto
p3037
aV``
p3038
aVbring
p3039
aVhim
p3040
aVout
p3041
ag68
aV''
p3042
asg69
(lp3043
VPERSON
p3044
ag71
ag71
ag71
ag71
ag71
ag71
ag71
ag71
ag71
ag71
ag71
ag71
ag71
ag71
ag71
ag71
ag71
ag71
ag71
ag71
ag71
ag71
ag71
ag71
ag71
ag71
ag71
ag71
ag71
ag71
ag71
ag71
ag71
ag71
ag71
asg74
(lp3045
g223
ag84
ag226
ag78
ag79
ag81
ag78
ag81
ag223
ag78
ag81
ag225
ag81
ag84
ag85
ag228
ag79
ag81
ag81
ag865
ag76
ag85
ag226
ag225
ag78
ag76
ag85
ag1936
ag226
ag228
ag1373
ag81
ag76
ag393
ag87
ag1412
asg88
VBriggs, awakening in the midst of loud shouts of fear and apprehension, came to the quick conclusion that he was suffocating and that we were all trying to "bring him out."
p3046
sba(i__main__
Sentence
p3047
(dp3048
g17
I56
sg18
(lp3049
S'With'
p3050
aS'a'
p3051
aS'low'
p3052
aS'moan'
p3053
aS','
p3054
aS'he'
p3055
aS'grasped'
p3056
aS'the'
p3057
aS'glass'
p3058
aS'of'
p3059
aS'camphor'
p3060
aS'at'
p3061
aS'the'
p3062
aS'head'
p3063
aS'of'
p3064
aS'his'
p3065
aS'bed'
p3066
aS'and'
p3067
aS'instead'
p3068
aS'of'
p3069
aS'sniffing'
p3070
aS'it'
p3071
aS'poured'
p3072
aS'it'
p3073
aS'over'
p3074
aS'himself'
p3075
aS'.'
p3076
asg44
(lp3077
VWith
p3078
ag164
aVlow
p3079
aVmoan
p3080
ag57
aVhe
p3081
aVgrasp
p3082
aVthe
p3083
aVglass
p3084
aVof
p3085
aVcamphor
p3086
aVat
p3087
aVthe
p3088
aVhead
p3089
aVof
p3090
aVhis
p3091
aVbed
p3092
aVand
p3093
aVinstead
p3094
aVof
p3095
aVsniff
p3096
aVit
p3097
aVpour
p3098
aVit
p3099
aVover
p3100
aVhimself
p3101
ag68
asg69
(lp3102
g71
ag71
ag71
ag71
ag71
ag71
ag71
ag71
ag71
ag71
ag71
ag71
ag71
ag71
ag71
ag71
ag71
ag71
ag71
ag71
ag71
ag71
ag71
ag71
ag71
ag71
ag71
asg74
(lp3103
g78
ag79
ag80
ag81
ag84
ag76
ag85
ag79
ag81
ag78
ag81
ag78
ag79
ag81
ag78
ag82
ag86
ag225
ag227
ag78
ag226
ag76
ag85
ag76
ag78
ag76
ag87
asg88
VWith a low moan, he grasped the glass of camphor at the head of his bed and instead of sniffing it poured it over himself.
p3104
sba(i__main__
Sentence
p3105
(dp3106
g17
I57
sg18
(lp3107
S'The'
p3108
aS'room'
p3109
aS'reeked'
p3110
aS'of'
p3111
aS'camphor'
p3112
aS'.'
p3113
asg44
(lp3114
VThe
p3115
aVroom
p3116
aVreek
p3117
aVof
p3118
aVcamphor
p3119
ag68
asg69
(lp3120
g71
ag71
ag71
ag71
ag71
ag71
asg74
(lp3121
g79
ag81
ag85
ag78
ag81
ag87
asg88
VThe room reeked of camphor.
p3122
sba(i__main__
Sentence
p3123
(dp3124
g17
I58
sg18
(lp3125
S'``'
p3126
aS'Ugh'
p3127
aS','
p3128
aS'ugh'
p3129
aS','
p3130
aS"''"
p3131
aS'choked'
p3132
aS'Briggs'
p3133
aS','
p3134
aS'like'
p3135
aS'a'
p3136
aS'drowning'
p3137
aS'man'
p3138
aS','
p3139
aS'for'
p3140
aS'he'
p3141
aS'had'
p3142
aS'almost'
p3143
aS'succeeded'
p3144
aS'in'
p3145
aS'stopping'
p3146
aS'his'
p3147
aS'breathing'
p3148
aS'under'
p3149
aS'the'
p3150
aS'deluge'
p3151
aS'of'
p3152
aS'pungent'
p3153
aS'spirits'
p3154
aS'.'
p3155
asg44
(lp3156
V``
p3157
aVUgh
p3158
ag57
aVugh
p3159
ag57
aV''
p3160
aVchoke
p3161
aVBriggs
p3162
ag57
aVlike
p3163
ag164
aVdrowning
p3164
aVman
p3165
ag57
aVfor
p3166
aVhe
p3167
ag287
aValmost
p3168
aVsucceed
p3169
aVin
p3170
aVstopping
p3171
aVhis
p3172
aVbreathing
p3173
aVunder
p3174
aVthe
p3175
aVdeluge
p3176
aVof
p3177
aVpungent
p3178
aVspirit
p3179
ag68
asg69
(lp3180
g71
ag71
ag71
ag71
ag71
ag71
ag71
aVPERSON
p3181
ag71
ag71
ag71
ag71
ag71
ag71
ag71
ag71
ag71
ag71
ag71
ag71
ag71
ag71
ag71
ag71
ag71
ag71
ag71
ag71
ag71
ag71
asg74
(lp3182
g1373
ag78
ag84
ag78
ag84
ag1412
ag85
ag83
ag84
ag78
ag79
ag81
ag81
ag84
ag78
ag76
ag85
ag227
ag86
ag78
ag81
ag82
ag81
ag78
ag79
ag81
ag78
ag81
ag223
ag87
asg88
V"Ugh, ugh," choked Briggs, like a drowning man, for he had almost succeeded in stopping his breathing under the deluge of pungent spirits.
p3183
sba(i__main__
Sentence
p3184
(dp3185
g17
I59
sg18
(lp3186
S'He'
p3187
aS'leaped'
p3188
aS'out'
p3189
aS'of'
p3190
aS'bed'
p3191
aS'and'
p3192
aS'groped'
p3193
aS'toward'
p3194
aS'the'
p3195
aS'open'
p3196
aS'window'
p3197
aS','
p3198
aS'but'
p3199
aS'he'
p3200
aS'came'
p3201
aS'up'
p3202
aS'against'
p3203
aS'one'
p3204
aS'that'
p3205
aS'was'
p3206
aS'closed'
p3207
aS'.'
p3208
asg44
(lp3209
VHe
p3210
aVleap
p3211
aVout
p3212
aVof
p3213
aVbed
p3214
aVand
p3215
aVgrope
p3216
aVtoward
p3217
aVthe
p3218
aVopen
p3219
aVwindow
p3220
ag57
aVbut
p3221
aVhe
p3222
ag2642
aVup
p3223
aVagainst
p3224
aVone
p3225
aVthat
p3226
ag59
aVclose
p3227
ag68
asg69
(lp3228
g71
ag71
ag71
ag71
ag71
ag71
ag71
ag71
ag71
ag71
ag71
ag71
ag71
ag71
ag71
ag71
ag71
ag71
ag71
ag71
ag71
ag71
asg74
(lp3229
g76
ag85
ag393
ag78
ag86
ag225
ag85
ag78
ag79
ag80
ag81
ag84
ag225
ag76
ag85
ag393
ag78
ag224
ag865
ag85
ag86
ag87
asg88
VHe leaped out of bed and groped toward the open window, but he came up against one that was closed.
p3230
sba(i__main__
Sentence
p3231
(dp3232
g17
I60
sg18
(lp3233
S'With'
p3234
aS'his'
p3235
aS'hand'
p3236
aS','
p3237
aS'he'
p3238
aS'beat'
p3239
aS'out'
p3240
aS'the'
p3241
aS'glass'
p3242
aS','
p3243
aS'and'
p3244
aS'I'
p3245
aS'could'
p3246
aS'hear'
p3247
aS'it'
p3248
aS'crash'
p3249
aS'and'
p3250
aS'tinkle'
p3251
aS'on'
p3252
aS'the'
p3253
aS'alleyway'
p3254
aS'below'
p3255
aS'.'
p3256
asg44
(lp3257
VWith
p3258
aVhis
p3259
aVhand
p3260
ag57
aVhe
p3261
aVbeat
p3262
aVout
p3263
aVthe
p3264
aVglass
p3265
ag57
aVand
p3266
ag46
aVcould
p3267
aVhear
p3268
aVit
p3269
aVcrash
p3270
aVand
p3271
aVtinkle
p3272
aVon
p3273
aVthe
p3274
aValleyway
p3275
aVbelow
p3276
ag68
asg69
(lp3277
g71
ag71
ag71
ag71
ag71
ag71
ag71
ag71
ag71
ag71
ag71
ag71
ag71
ag71
ag71
ag71
ag71
ag71
ag71
ag71
ag71
ag71
ag71
asg74
(lp3278
g78
ag82
ag81
ag84
ag76
ag85
ag393
ag79
ag81
ag84
ag225
ag76
ag306
ag229
ag76
ag229
ag225
ag229
ag78
ag79
ag81
ag78
ag87
asg88
VWith his hand, he beat out the glass, and I could hear it crash and tinkle on the alleyway below.
p3279
sba(i__main__
Sentence
p3280
(dp3281
g17
I61
sg18
(lp3282
S'It'
p3283
aS'was'
p3284
aS'at'
p3285
aS'this'
p3286
aS'juncture'
p3287
aS'that'
p3288
aS'I'
p3289
aS','
p3290
aS'in'
p3291
aS'trying'
p3292
aS'to'
p3293
aS'get'
p3294
aS'up'
p3295
aS','
p3296
aS'had'
p3297
aS'the'
p3298
aS'uncanny'
p3299
aS'sensation'
p3300
aS'of'
p3301
aS'feeling'
p3302
aS'my'
p3303
aS'bed'
p3304
aS'above'
p3305
aS'me'
p3306
aS'.'
p3307
asg44
(lp3308
VIt
p3309
ag59
aVat
p3310
aVthis
p3311
aVjuncture
p3312
aVthat
p3313
ag46
ag57
aVin
p3314
aVtry
p3315
aVto
p3316
aVget
p3317
aVup
p3318
ag57
ag287
aVthe
p3319
aVuncanny
p3320
aVsensation
p3321
aVof
p3322
aVfeel
p3323
aVmy
p3324
aVbed
p3325
aVabove
p3326
aVme
p3327
ag68
asg69
(lp3328
g71
ag71
ag71
ag71
ag71
ag71
ag71
ag71
ag71
ag71
ag71
ag71
ag71
ag71
ag71
ag71
ag71
ag71
ag71
ag71
ag71
ag71
ag71
ag71
ag71
asg74
(lp3329
g76
ag85
ag78
ag79
ag81
ag78
ag76
ag84
ag78
ag226
ag228
ag229
ag78
ag84
ag85
ag79
ag80
ag81
ag78
ag226
ag82
ag86
ag78
ag76
ag87
asg88
VIt was at this juncture that I, in trying to get up, had the uncanny sensation of feeling my bed above me.
p3330
sba(i__main__
Sentence
p3331
(dp3332
g17
I62
sg18
(lp3333
S'Foggy'
p3334
aS'with'
p3335
aS'sleep'
p3336
aS','
p3337
aS'I'
p3338
aS'now'
p3339
aS'suspected'
p3340
aS','
p3341
aS'in'
p3342
aS'my'
p3343
aS'turn'
p3344
aS','
p3345
aS'that'
p3346
aS'the'
p3347
aS'whole'
p3348
aS'uproar'
p3349
aS'was'
p3350
aS'being'
p3351
aS'made'
p3352
aS'in'
p3353
aS'a'
p3354
aS'frantic'
p3355
aS'endeavor'
p3356
aS'to'
p3357
aS'extricate'
p3358
aS'me'
p3359
aS'from'
p3360
aS'what'
p3361
aS'must'
p3362
aS'be'
p3363
aS'an'
p3364
aS'unheard-of'
p3365
aS'and'
p3366
aS'perilous'
p3367
aS'situation'
p3368
aS'.'
p3369
asg44
(lp3370
VFoggy
p3371
aVwith
p3372
aVsleep
p3373
ag57
ag46
aVnow
p3374
aVsuspect
p3375
ag57
aVin
p3376
aVmy
p3377
aVturn
p3378
ag57
aVthat
p3379
aVthe
p3380
aVwhole
p3381
aVuproar
p3382
ag59
aVbe
p3383
ag2219
aVin
p3384
ag164
aVfrantic
p3385
aVendeavor
p3386
aVto
p3387
aVextricate
p3388
aVme
p3389
aVfrom
p3390
aVwhat
p3391
aVmust
p3392
aVbe
p3393
aVan
p3394
aVunheard-of
p3395
aVand
p3396
aVperilous
p3397
aVsituation
p3398
ag68
asg69
(lp3399
g71
ag71
ag71
ag71
ag71
ag71
ag71
ag71
ag71
ag71
ag71
ag71
ag71
ag71
ag71
ag71
ag71
ag71
ag71
ag71
ag71
ag71
ag71
ag71
ag71
ag71
ag71
ag71
ag71
ag71
ag71
ag71
ag71
ag71
ag71
ag71
asg74
(lp3400
g83
ag78
ag81
ag84
ag76
ag227
ag85
ag84
ag78
ag82
ag81
ag84
ag78
ag79
ag80
ag81
ag85
ag226
ag86
ag78
ag79
ag80
ag81
ag228
ag229
ag76
ag78
ag230
ag306
ag229
ag79
ag80
ag225
ag80
ag81
ag87
asg88
VFoggy with sleep, I now suspected, in my turn, that the whole uproar was being made in a frantic endeavor to extricate me from what must be an unheard-of and perilous situation.
p3401
sba(i__main__
Sentence
p3402
(dp3403
g17
I63
sg18
(lp3404
S'``'
p3405
aS'Get'
p3406
aS'me'
p3407
aS'out'
p3408
aS'of'
p3409
aS'this'
p3410
aS'!'
p3411
aS"''"
p3412
asg44
(lp3413
V``
p3414
aVGet
p3415
aVme
p3416
aVout
p3417
aVof
p3418
aVthis
p3419
ag1671
aV''
p3420
asg69
(lp3421
g71
ag71
ag71
ag71
ag71
ag71
ag71
ag71
asg74
(lp3422
g1373
ag81
ag76
ag393
ag78
ag79
ag87
ag1412
asg88
V"Get me out of this!"
p3423
sba(i__main__
Sentence
p3424
(dp3425
g17
I64
sg18
(lp3426
S'I'
p3427
aS'bawled'
p3428
aS'.'
p3429
asg44
(lp3430
g46
aVbawl
p3431
ag68
asg69
(lp3432
g71
ag71
ag71
asg74
(lp3433
g76
ag85
ag87
asg88
VI bawled.
p3434
sba(i__main__
Sentence
p3435
(dp3436
g17
I65
sg18
(lp3437
S'``'
p3438
aS'Get'
p3439
aS'me'
p3440
aS'out'
p3441
aS'!'
p3442
aS"''"
p3443
asg44
(lp3444
V``
p3445
aVGet
p3446
aVme
p3447
aVout
p3448
ag1671
aV''
p3449
asg69
(lp3450
g71
ag71
ag71
ag71
ag71
ag71
asg74
(lp3451
g1373
ag81
ag76
ag393
ag87
ag1412
asg88
V"Get me out!"
p3452
sba(i__main__
Sentence
p3453
(dp3454
g17
I66
sg18
(lp3455
S'I'
p3456
aS'think'
p3457
aS'I'
p3458
aS'had'
p3459
aS'the'
p3460
aS'nightmarish'
p3461
aS'belief'
p3462
aS'that'
p3463
aS'I'
p3464
aS'was'
p3465
aS'entombed'
p3466
aS'in'
p3467
aS'a'
p3468
aS'mine'
p3469
aS'.'
p3470
asg44
(lp3471
g46
aVthink
p3472
ag46
ag287
aVthe
p3473
aVnightmarish
p3474
aVbelief
p3475
aVthat
p3476
ag46
ag59
aVentomb
p3477
aVin
p3478
ag164
aVmine
p3479
ag68
asg69
(lp3480
g71
ag71
ag71
ag71
ag71
ag71
ag71
ag71
ag71
ag71
ag71
ag71
ag71
ag71
ag71
asg74
(lp3481
g76
ag77
ag76
ag85
ag79
ag80
ag81
ag865
ag76
ag85
ag86
ag78
ag79
ag81
ag87
asg88
VI think I had the nightmarish belief that I was entombed in a mine.
p3482
sba(i__main__
Sentence
p3483
(dp3484
g17
I67
sg18
(lp3485
S'``'
p3486
aS'Ugh'
p3487
aS','
p3488
aS"''"
p3489
aS'gasped'
p3490
aS'Briggs'
p3491
aS','
p3492
aS'floundering'
p3493
aS'in'
p3494
aS'his'
p3495
aS'camphor'
p3496
aS'.'
p3497
asg44
(lp3498
V``
p3499
aVUgh
p3500
ag57
aV''
p3501
aVgasp
p3502
aVBriggs
p3503
ag57
aVflounder
p3504
aVin
p3505
aVhis
p3506
aVcamphor
p3507
ag68
asg69
(lp3508
g71
ag71
ag71
ag71
ag71
aVPERSON
p3509
ag71
ag71
ag71
ag71
ag71
ag71
asg74
(lp3510
g1373
ag78
ag84
ag1412
ag85
ag83
ag84
ag226
ag78
ag82
ag81
ag87
asg88
V"Ugh," gasped Briggs, floundering in his camphor.
p3511
sba(i__main__
Sentence
p3512
(dp3513
g17
I68
sg18
(lp3514
S'By'
p3515
aS'this'
p3516
aS'time'
p3517
aS'my'
p3518
aS'mother'
p3519
aS','
p3520
aS'still'
p3521
aS'shouting'
p3522
aS','
p3523
aS'pursued'
p3524
aS'by'
p3525
aS'Herman'
p3526
aS','
p3527
aS'still'
p3528
aS'shouting'
p3529
aS','
p3530
aS'was'
p3531
aS'trying'
p3532
aS'to'
p3533
aS'open'
p3534
aS'the'
p3535
aS'door'
p3536
aS'to'
p3537
aS'the'
p3538
aS'attic'
p3539
aS','
p3540
aS'in'
p3541
aS'order'
p3542
aS'to'
p3543
aS"'"
p3544
aS'go'
p3545
aS'up'
p3546
aS'and'
p3547
aS'get'
p3548
aS'my'
p3549
aS'father'
p3550
aS"'s"
p3551
aS'body'
p3552
aS'out'
p3553
aS'of'
p3554
aS'the'
p3555
aS'wreckage'
p3556
aS'.'
p3557
asg44
(lp3558
VBy
p3559
aVthis
p3560
aVtime
p3561
aVmy
p3562
aVmother
p3563
ag57
aVstill
p3564
aVshout
p3565
ag57
aVpursue
p3566
aVby
p3567
aVHerman
p3568
ag57
aVstill
p3569
aVshout
p3570
ag57
ag59
aVtry
p3571
aVto
p3572
aVopen
p3573
aVthe
p3574
aVdoor
p3575
aVto
p3576
aVthe
p3577
aVattic
p3578
ag57
aVin
p3579
aVorder
p3580
aVto
p3581
aV'
p3582
aVgo
p3583
aVup
p3584
aVand
p3585
aVget
p3586
aVmy
p3587
aVfather
p3588
aV's
p3589
aVbody
p3590
aVout
p3591
aVof
p3592
aVthe
p3593
aVwreckage
p3594
ag68
asg69
(lp3595
g71
ag71
ag71
ag71
ag71
ag71
ag71
ag71
ag71
ag71
ag71
aVPERSON
p3596
ag71
ag71
ag71
ag71
ag71
ag71
ag71
ag71
ag71
ag71
ag71
ag71
ag71
ag71
ag71
ag71
ag71
ag71
ag71
ag71
ag71
ag71
ag71
ag71
ag71
ag71
ag71
ag71
ag71
ag71
ag71
asg74
(lp3597
g78
ag79
ag81
ag82
ag81
ag84
ag227
ag226
ag84
ag86
ag78
ag83
ag84
ag227
ag226
ag84
ag85
ag226
ag228
ag229
ag79
ag81
ag228
ag79
ag80
ag84
ag78
ag81
ag228
ag1412
ag229
ag393
ag225
ag229
ag82
ag81
ag395
ag81
ag78
ag78
ag79
ag81
ag87
asg88
VBy this time my mother, still shouting, pursued by Herman, still shouting, was trying to open the door to the attic, in order to' go up and get my father's body out of the wreckage.
p3598
sba(i__main__
Sentence
p3599
(dp3600
g17
I69
sg18
(lp3601
S'The'
p3602
aS'door'
p3603
aS'was'
p3604
aS'stuck'
p3605
aS','
p3606
aS'however'
p3607
aS','
p3608
aS'and'
p3609
aS'would'
p3610
aS"n't"
p3611
aS'yield'
p3612
aS'.'
p3613
asg44
(lp3614
VThe
p3615
aVdoor
p3616
ag59
aVstuck
p3617
ag57
aVhowever
p3618
ag57
aVand
p3619
aVwould
p3620
aVn't
p3621
aVyield
p3622
ag68
asg69
(lp3623
g71
ag71
ag71
ag71
ag71
ag71
ag71
ag71
ag71
ag71
ag71
ag71
asg74
(lp3624
g79
ag81
ag85
ag81
ag84
ag227
ag84
ag225
ag306
ag227
ag229
ag87
asg88
VThe door was stuck, however, and wouldn't yield.
p3625
sba(i__main__
Sentence
p3626
(dp3627
g17
I70
sg18
(lp3628
S'Her'
p3629
aS'frantic'
p3630
aS'pulls'
p3631
aS'on'
p3632
aS'it'
p3633
aS'only'
p3634
aS'added'
p3635
aS'to'
p3636
aS'the'
p3637
aS'general'
p3638
aS'banging'
p3639
aS'and'
p3640
aS'confusion'
p3641
aS'.'
p3642
asg44
(lp3643
VHer
p3644
aVfrantic
p3645
aVpull
p3646
aVon
p3647
aVit
p3648
aVonly
p3649
aVadd
p3650
aVto
p3651
aVthe
p3652
aVgeneral
p3653
aVbanging
p3654
aVand
p3655
aVconfusion
p3656
ag68
asg69
(lp3657
g71
ag71
ag71
ag71
ag71
ag71
ag71
ag71
ag71
ag71
ag71
ag71
ag71
ag71
asg74
(lp3658
g82
ag80
ag223
ag78
ag76
ag227
ag85
ag228
ag79
ag80
ag81
ag225
ag81
ag87
asg88
VHer frantic pulls on it only added to the general banging and confusion.
p3659
sba(i__main__
Sentence
p3660
(dp3661
g17
I71
sg18
(lp3662
S'Roy'
p3663
aS'and'
p3664
aS'the'
p3665
aS'dog'
p3666
aS'were'
p3667
aS'now'
p3668
aS'up'
p3669
aS','
p3670
aS'the'
p3671
aS'one'
p3672
aS'shouting'
p3673
aS'questions'
p3674
aS','
p3675
aS'the'
p3676
aS'other'
p3677
aS'barking'
p3678
aS'.'
p3679
asg44
(lp3680
VRoy
p3681
aVand
p3682
aVthe
p3683
aVdog
p3684
ag734
aVnow
p3685
aVup
p3686
ag57
aVthe
p3687
aVone
p3688
aVshout
p3689
aVquestion
p3690
ag57
aVthe
p3691
aVother
p3692
aVbarking
p3693
ag68
asg69
(lp3694
VPERSON
p3695
ag71
ag71
ag71
ag71
ag71
ag71
ag71
ag71
ag71
ag71
ag71
ag71
ag71
ag71
ag71
ag71
asg74
(lp3696
g83
ag225
ag79
ag81
ag85
ag227
ag78
ag84
ag79
ag224
ag226
ag223
ag84
ag79
ag80
ag81
ag87
asg88
VRoy and the dog were now up, the one shouting questions, the other barking.
p3697
sba(i__main__
Sentence
p3698
(dp3699
g17
I72
sg18
(lp3700
S'Father'
p3701
aS','
p3702
aS'farthest'
p3703
aS'away'
p3704
aS'and'
p3705
aS'soundest'
p3706
aS'sleeper'
p3707
aS'of'
p3708
aS'all'
p3709
aS','
p3710
aS'had'
p3711
aS'by'
p3712
aS'this'
p3713
aS'time'
p3714
aS'been'
p3715
aS'awakened'
p3716
aS'by'
p3717
aS'the'
p3718
aS'battering'
p3719
aS'on'
p3720
aS'the'
p3721
aS'attic'
p3722
aS'door'
p3723
aS'.'
p3724
asg44
(lp3725
VFather
p3726
ag57
aVfarthest
p3727
aVaway
p3728
aVand
p3729
aVsound
p3730
aVsleeper
p3731
aVof
p3732
aVall
p3733
ag57
ag287
aVby
p3734
aVthis
p3735
aVtime
p3736
ag779
aVawaken
p3737
aVby
p3738
aVthe
p3739
aVbatter
p3740
aVon
p3741
aVthe
p3742
aVattic
p3743
aVdoor
p3744
ag68
asg69
(lp3745
g71
ag71
ag71
ag71
ag71
ag71
ag71
ag71
ag71
ag71
ag71
ag71
ag71
ag71
ag71
ag71
ag71
ag71
ag71
ag71
ag71
ag71
ag71
ag71
asg74
(lp3746
g83
ag84
aS'JJS'
p3747
ag227
ag225
ag3747
ag81
ag78
ag79
ag84
ag85
ag78
ag79
ag81
ag86
ag86
ag78
ag79
ag226
ag78
ag79
ag80
ag81
ag87
asg88
VFather, farthest away and soundest sleeper of all, had by this time been awakened by the battering on the attic door.
p3748
sba(i__main__
Sentence
p3749
(dp3750
g17
I73
sg18
(lp3751
S'He'
p3752
aS'decided'
p3753
aS'that'
p3754
aS'the'
p3755
aS'house'
p3756
aS'was'
p3757
aS'on'
p3758
aS'fire'
p3759
aS'.'
p3760
asg44
(lp3761
VHe
p3762
aVdecide
p3763
aVthat
p3764
aVthe
p3765
aVhouse
p3766
ag59
aVon
p3767
aVfire
p3768
ag68
asg69
(lp3769
g71
ag71
ag71
ag71
ag71
ag71
ag71
ag71
ag71
asg74
(lp3770
g76
ag85
ag78
ag79
ag81
ag85
ag78
ag81
ag87
asg88
VHe decided that the house was on fire.
p3771
sba(i__main__
Sentence
p3772
(dp3773
g17
I74
sg18
(lp3774
S'``'
p3775
aS'I'
p3776
aS"'m"
p3777
aS'coming'
p3778
aS','
p3779
aS'I'
p3780
aS"'m"
p3781
aS'coming'
p3782
aS','
p3783
aS'!'
p3784
aS"''"
p3785
asg44
(lp3786
V``
p3787
ag46
aV'm
p3788
aVcome
p3789
ag57
ag46
aV'm
p3790
aVcome
p3791
ag57
ag1671
aV''
p3792
asg69
(lp3793
g71
ag71
ag71
ag71
ag71
ag71
ag71
ag71
ag71
ag71
ag71
asg74
(lp3794
g1373
ag76
ag77
ag226
ag84
ag76
ag77
ag226
ag84
ag87
ag1412
asg88
V"I'm coming, I'm coming,!"
p3795
sba(i__main__
Sentence
p3796
(dp3797
g17
I75
sg18
(lp3798
S'be'
p3799
aS'wailed'
p3800
aS'in'
p3801
aS'a'
p3802
aS'slow'
p3803
aS','
p3804
aS'sleepy'
p3805
aS'voice-it'
p3806
aS'took'
p3807
aS'him'
p3808
aS'many'
p3809
aS'minutes'
p3810
aS'to'
p3811
aS'regain'
p3812
aS'full'
p3813
aS'consciousness'
p3814
aS'.'
p3815
asg44
(lp3816
Vbe
p3817
aVwail
p3818
aVin
p3819
ag164
aVslow
p3820
ag57
aVsleepy
p3821
aVvoice-it
p3822
ag992
aVhim
p3823
aVmany
p3824
aVminute
p3825
aVto
p3826
aVregain
p3827
aVfull
p3828
aVconsciousness
p3829
ag68
asg69
(lp3830
g71
ag71
ag71
ag71
ag71
ag71
ag71
ag71
ag71
ag71
ag71
ag71
ag71
ag71
ag71
ag71
ag71
asg74
(lp3831
g229
ag86
ag78
ag79
ag80
ag84
ag81
ag81
ag85
ag76
ag80
ag223
ag228
ag229
ag80
ag81
ag87
asg88
Vbe wailed in a slow, sleepy voice-it took him many minutes to regain full consciousness.
p3832
sba(i__main__
Sentence
p3833
(dp3834
g17
I76
sg18
(lp3835
S'My'
p3836
aS'mother'
p3837
aS','
p3838
aS'still'
p3839
aS'believing'
p3840
aS'he'
p3841
aS'was'
p3842
aS'caught'
p3843
aS'under'
p3844
aS'the'
p3845
aS'bed'
p3846
aS','
p3847
aS'detected'
p3848
aS'in'
p3849
aS'his'
p3850
aS'``'
p3851
aS'I'
p3852
aS"'m"
p3853
aS'coming'
p3854
aS'!'
p3855
aS"''"
p3856
asg44
(lp3857
VMy
p3858
aVmother
p3859
ag57
aVstill
p3860
aVbelieve
p3861
aVhe
p3862
ag59
aVcatch
p3863
aVunder
p3864
aVthe
p3865
aVbed
p3866
ag57
aVdetect
p3867
aVin
p3868
aVhis
p3869
aV``
p3870
ag46
aV'm
p3871
aVcome
p3872
ag1671
aV''
p3873
asg69
(lp3874
g71
ag71
ag71
ag71
ag71
ag71
ag71
ag71
ag71
ag71
ag71
ag71
ag71
ag71
ag71
ag71
ag71
ag71
ag71
ag71
ag71
asg74
(lp3875
g82
ag81
ag84
ag227
ag226
ag76
ag85
ag86
ag78
ag79
ag86
ag84
ag86
ag78
ag82
ag1373
ag76
ag77
ag226
ag87
ag1412
asg88
VMy mother, still believing he was caught under the bed, detected in his "I'm coming!"
p3876
sba(i__main__
Sentence
p3877
(dp3878
g17
I77
sg18
(lp3879
S'the'
p3880
aS'mournful'
p3881
aS','
p3882
aS'resigned'
p3883
aS'note'
p3884
aS'of'
p3885
aS'one'
p3886
aS'who'
p3887
aS'is'
p3888
aS'preparing'
p3889
aS'to'
p3890
aS'meet'
p3891
aS'his'
p3892
aS'Maker'
p3893
aS'.'
p3894
asg44
(lp3895
Vthe
p3896
aVmournful
p3897
ag57
aVresigned
p3898
aVnote
p3899
aVof
p3900
aVone
p3901
aVwho
p3902
ag192
aVprepare
p3903
aVto
p3904
aVmeet
p3905
aVhis
p3906
aVMaker
p3907
ag68
asg69
(lp3908
g71
ag71
ag71
ag71
ag71
ag71
ag71
ag71
ag71
ag71
ag71
ag71
ag71
ag71
ag71
asg74
(lp3909
g79
ag80
ag84
ag80
ag81
ag78
ag224
ag230
ag220
ag226
ag228
ag229
ag82
ag83
ag87
asg88
Vthe mournful, resigned note of one who is preparing to meet his Maker.
p3910
sba(i__main__
Sentence
p3911
(dp3912
g17
I78
sg18
(lp3913
S'``'
p3914
aS'He'
p3915
aS"'s"
p3916
aS'dying'
p3917
aS'!'
p3918
aS"''"
p3919
asg44
(lp3920
V``
p3921
aVHe
p3922
aV's
p3923
aVdie
p3924
ag1671
aV''
p3925
asg69
(lp3926
g71
ag71
ag71
ag71
ag71
ag71
asg74
(lp3927
g1373
ag76
ag220
ag226
ag87
ag1412
asg88
V"He's dying!"
p3928
sba(i__main__
Sentence
p3929
(dp3930
g17
I79
sg18
(lp3931
S'she'
p3932
aS'shouted'
p3933
aS'.'
p3934
asg44
(lp3935
Vshe
p3936
aVshout
p3937
ag68
asg69
(lp3938
g71
ag71
ag71
asg74
(lp3939
g76
ag85
ag87
asg88
Vshe shouted.
p3940
sba(i__main__
Sentence
p3941
(dp3942
g17
I80
sg18
(lp3943
S'``'
p3944
aS'I'
p3945
aS"'m"
p3946
aS'all'
p3947
aS'right'
p3948
aS'!'
p3949
aS"''"
p3950
asg44
(lp3951
V``
p3952
ag46
aV'm
p3953
aVall
p3954
aVright
p3955
ag1671
aV''
p3956
asg69
(lp3957
g71
ag71
ag71
ag71
ag71
ag71
ag71
asg74
(lp3958
g1373
ag76
ag77
ag79
ag81
ag87
ag1412
asg88
V"I'm all right!"
p3959
sba(i__main__
Sentence
p3960
(dp3961
g17
I81
sg18
(lp3962
S'Briggs'
p3963
aS'yelled'
p3964
aS'to'
p3965
aS'reassure'
p3966
aS'her'
p3967
aS'.'
p3968
asg44
(lp3969
VBriggs
p3970
aVyell
p3971
aVto
p3972
aVreassure
p3973
aVher
p3974
ag68
asg69
(lp3975
VPERSON
p3976
ag71
ag71
ag71
ag71
ag71
asg74
(lp3977
g223
ag85
ag228
ag229
ag82
ag87
asg88
VBriggs yelled to reassure her.
p3978
sba(i__main__
Sentence
p3979
(dp3980
g17
I82
sg18
(lp3981
S'``'
p3982
aS'I'
p3983
aS"'m"
p3984
aS'all'
p3985
aS'right'
p3986
aS'!'
p3987
aS"''"
p3988
asg44
(lp3989
V``
p3990
ag46
aV'm
p3991
aVall
p3992
aVright
p3993
ag1671
aV''
p3994
asg69
(lp3995
g71
ag71
ag71
ag71
ag71
ag71
ag71
asg74
(lp3996
g1373
ag76
ag77
ag79
ag81
ag87
ag1412
asg88
V"I'm all right!"
p3997
sba(i__main__
Sentence
p3998
(dp3999
g17
I83
sg18
(lp4000
S'He'
p4001
aS'still'
p4002
aS'believed'
p4003
aS'that'
p4004
aS'it'
p4005
aS'was'
p4006
aS'his'
p4007
aS'own'
p4008
aS'closeness'
p4009
aS'to'
p4010
aS'death'
p4011
aS'that'
p4012
aS'was'
p4013
aS'worrying'
p4014
aS'mother'
p4015
aS'.'
p4016
asg44
(lp4017
VHe
p4018
aVstill
p4019
aVbelieve
p4020
aVthat
p4021
aVit
p4022
ag59
aVhis
p4023
aVown
p4024
aVcloseness
p4025
aVto
p4026
aVdeath
p4027
aVthat
p4028
ag59
aVworry
p4029
aVmother
p4030
ag68
asg69
(lp4031
g71
ag71
ag71
ag71
ag71
ag71
ag71
ag71
ag71
ag71
ag71
ag71
ag71
ag71
ag71
ag71
asg74
(lp4032
g76
ag227
ag85
ag78
ag76
ag85
ag82
ag80
ag81
ag228
ag81
ag78
ag85
ag226
ag81
ag87
asg88
VHe still believed that it was his own closeness to death that was worrying mother.
p4033
sba(i__main__
Sentence
p4034
(dp4035
g17
I84
sg18
(lp4036
S'I'
p4037
aS'found'
p4038
aS'at'
p4039
aS'last'
p4040
aS'the'
p4041
aS'light'
p4042
aS'switch'
p4043
aS'in'
p4044
aS'my'
p4045
aS'room'
p4046
aS','
p4047
aS'unlocked'
p4048
aS'the'
p4049
aS'door'
p4050
aS','
p4051
aS'and'
p4052
aS'Briggs'
p4053
aS'and'
p4054
aS'I'
p4055
aS'joined'
p4056
aS'the'
p4057
aS'others'
p4058
aS'at'
p4059
aS'the'
p4060
aS'attic'
p4061
aS'door'
p4062
aS'.'
p4063
asg44
(lp4064
g46
aVfind
p4065
aVat
p4066
aVlast
p4067
aVthe
p4068
aVlight
p4069
aVswitch
p4070
aVin
p4071
aVmy
p4072
aVroom
p4073
ag57
aVunlock
p4074
aVthe
p4075
aVdoor
p4076
ag57
aVand
p4077
aVBriggs
p4078
aVand
p4079
ag46
aVjoin
p4080
aVthe
p4081
aVothers
p4082
aVat
p4083
aVthe
p4084
aVattic
p4085
aVdoor
p4086
ag68
asg69
(lp4087
g71
ag71
ag71
ag71
ag71
ag71
ag71
ag71
ag71
ag71
ag71
ag71
ag71
ag71
ag71
ag71
aVPERSON
p4088
ag71
ag71
ag71
ag71
ag71
ag71
ag71
ag71
ag71
ag71
asg74
(lp4089
g76
ag85
ag78
ag80
ag79
ag81
ag81
ag78
ag82
ag81
ag84
ag85
ag79
ag81
ag84
ag225
ag83
ag225
ag76
ag85
ag79
ag223
ag78
ag79
ag80
ag81
ag87
asg88
VI found at last the light switch in my room, unlocked the door, and Briggs and I joined the others at the attic door.
p4090
sba(i__main__
Sentence
p4091
(dp4092
g17
I85
sg18
(lp4093
S'The'
p4094
aS'dog'
p4095
aS','
p4096
aS'who'
p4097
aS'never'
p4098
aS'did'
p4099
aS'like'
p4100
aS'Briggs'
p4101
aS','
p4102
aS'jumped'
p4103
aS'for'
p4104
aS'him'
p4105
aS'assuming'
p4106
aS'that'
p4107
aS'he'
p4108
aS'was'
p4109
aS'the'
p4110
aS'culprit'
p4111
aS'in'
p4112
aS'whatever'
p4113
aS'was'
p4114
aS'going'
p4115
aS'on'
p4116
aS'and'
p4117
aS'Roy'
p4118
aS'had'
p4119
aS'to'
p4120
aS'throw'
p4121
aS'Rex'
p4122
aS'and'
p4123
aS'hold'
p4124
aS'him'
p4125
aS'.'
p4126
asg44
(lp4127
VThe
p4128
aVdog
p4129
ag57
aVwho
p4130
aVnever
p4131
ag245
aVlike
p4132
aVBriggs
p4133
ag57
aVjump
p4134
aVfor
p4135
aVhim
p4136
aVassume
p4137
aVthat
p4138
aVhe
p4139
ag59
aVthe
p4140
aVculprit
p4141
aVin
p4142
aVwhatever
p4143
ag59
aVgo
p4144
aVon
p4145
aVand
p4146
aVRoy
p4147
ag287
aVto
p4148
aVthrow
p4149
aVRex
p4150
aVand
p4151
aVhold
p4152
aVhim
p4153
ag68
asg69
(lp4154
g71
ag71
ag71
ag71
ag71
ag71
ag71
aVPERSON
p4155
ag71
ag71
ag71
ag71
ag71
ag71
ag71
ag71
ag71
ag71
ag71
ag71
ag71
ag71
ag71
ag71
aVPERSON
p4156
ag71
ag71
ag71
aVPERSON
p4157
ag71
ag71
ag71
ag71
asg74
(lp4158
g79
ag81
ag84
ag230
ag227
ag85
ag78
ag83
ag84
ag85
ag78
ag76
ag226
ag78
ag76
ag85
ag79
ag81
ag78
ag81
ag85
ag226
ag78
ag225
ag83
ag85
ag228
ag229
ag83
ag225
ag85
ag76
ag87
asg88
VThe dog, who never did like Briggs, jumped for him assuming that he was the culprit in whatever was going on and Roy had to throw Rex and hold him.
p4159
sba(i__main__
Sentence
p4160
(dp4161
g17
I86
sg18
(lp4162
S'We'
p4163
aS'could'
p4164
aS'hear'
p4165
aS'father'
p4166
aS'crawling'
p4167
aS'out'
p4168
aS'of'
p4169
aS'bed'
p4170
aS'upstairs'
p4171
aS'.'
p4172
asg44
(lp4173
VWe
p4174
aVcould
p4175
aVhear
p4176
aVfather
p4177
aVcrawl
p4178
aVout
p4179
aVof
p4180
aVbed
p4181
aVupstairs
p4182
ag68
asg69
(lp4183
g71
ag71
ag71
ag71
ag71
ag71
ag71
ag71
ag71
ag71
asg74
(lp4184
g76
ag306
ag229
ag81
ag226
ag393
ag78
ag86
ag223
ag87
asg88
VWe could hear father crawling out of bed upstairs.
p4185
sba(i__main__
Sentence
p4186
(dp4187
g17
I87
sg18
(lp4188
S'Roy'
p4189
aS'pulled'
p4190
aS'the'
p4191
aS'attic'
p4192
aS'door'
p4193
aS'open'
p4194
aS','
p4195
aS'with'
p4196
aS'a'
p4197
aS'mighty'
p4198
aS'jerk'
p4199
aS','
p4200
aS'and'
p4201
aS'father'
p4202
aS'came'
p4203
aS'down'
p4204
aS'the'
p4205
aS'stairs'
p4206
aS','
p4207
aS'sleepy'
p4208
aS'and'
p4209
aS'irritable'
p4210
aS'but'
p4211
aS'safe'
p4212
aS'and'
p4213
aS'sound'
p4214
aS'.'
p4215
asg44
(lp4216
VRoy
p4217
aVpull
p4218
aVthe
p4219
aVattic
p4220
aVdoor
p4221
aVopen
p4222
ag57
aVwith
p4223
ag164
aVmighty
p4224
aVjerk
p4225
ag57
aVand
p4226
aVfather
p4227
ag2642
aVdown
p4228
aVthe
p4229
aVstair
p4230
ag57
aVsleepy
p4231
aVand
p4232
aVirritable
p4233
aVbut
p4234
aVsafe
p4235
aVand
p4236
aVsound
p4237
ag68
asg69
(lp4238
VPERSON
p4239
ag71
ag71
ag71
ag71
ag71
ag71
ag71
ag71
ag71
ag71
ag71
ag71
ag71
ag71
ag71
ag71
ag71
ag71
ag71
ag71
ag71
ag71
ag71
ag71
ag71
ag71
asg74
(lp4240
g83
ag85
ag79
ag80
ag81
ag80
ag84
ag78
ag79
ag81
ag81
ag84
ag225
ag81
ag85
ag78
ag79
ag223
ag84
ag81
ag225
ag80
ag225
ag80
ag225
ag229
ag87
asg88
VRoy pulled the attic door open, with a mighty jerk, and father came down the stairs, sleepy and irritable but safe and sound.
p4241
sba(i__main__
Sentence
p4242
(dp4243
g17
I88
sg18
(lp4244
S'My'
p4245
aS'mother'
p4246
aS'began'
p4247
aS'to'
p4248
aS'weep'
p4249
aS'when'
p4250
aS'she'
p4251
aS'saw'
p4252
aS'him'
p4253
aS'.'
p4254
asg44
(lp4255
VMy
p4256
aVmother
p4257
aVbegin
p4258
aVto
p4259
aVweep
p4260
aVwhen
p4261
aVshe
p4262
aVsaw
p4263
aVhim
p4264
ag68
asg69
(lp4265
g71
ag71
ag71
ag71
ag71
ag71
ag71
ag71
ag71
ag71
asg74
(lp4266
g82
ag81
ag85
ag228
ag229
ag305
ag76
ag85
ag76
ag87
asg88
VMy mother began to weep when she saw him.
p4267
sba(i__main__
Sentence
p4268
(dp4269
g17
I89
sg18
(lp4270
S'Rex'
p4271
aS'began'
p4272
aS'to-howl'
p4273
aS'.'
p4274
asg44
(lp4275
VRex
p4276
ag4258
aVto-howl
p4277
ag68
asg69
(lp4278
VPERSON
p4279
ag71
ag71
ag71
asg74
(lp4280
g83
ag85
ag80
ag87
asg88
VRex began to-howl.
p4281
sba(i__main__
Sentence
p4282
(dp4283
g17
I90
sg18
(lp4284
S'``'
p4285
aS'What'
p4286
aS'in'
p4287
aS'the'
p4288
aS'name'
p4289
aS'of'
p4290
aS'God'
p4291
aS'``'
p4292
aS's'
p4293
aS'going'
p4294
aS'on'
p4295
aS'here'
p4296
aS'?'
p4297
aS"''"
p4298
asg44
(lp4299
V``
p4300
aVWhat
p4301
aVin
p4302
aVthe
p4303
aVname
p4304
aVof
p4305
aVGod
p4306
aV``
p4307
aVs
p4308
aVgo
p4309
aVon
p4310
aVhere
p4311
aV?
p4312
aV''
p4313
asg69
(lp4314
g71
ag71
ag71
ag71
ag71
ag71
ag71
ag71
ag71
ag71
ag71
ag71
ag71
ag71
asg74
(lp4315
g1373
ag230
ag78
ag79
ag81
ag78
ag83
ag1373
ag220
ag226
ag78
ag227
ag87
ag1412
asg88
V"What in the name of God "s going on here?"
p4316
sba(i__main__
Sentence
p4317
(dp4318
g17
I91
sg18
(lp4319
S'asked'
p4320
aS'father'
p4321
aS'.'
p4322
asg44
(lp4323
Vask
p4324
aVfather
p4325
ag68
asg69
(lp4326
g71
ag71
ag71
asg74
(lp4327
g85
ag81
ag87
asg88
Vasked father.
p4328
sba(i__main__
Sentence
p4329
(dp4330
g17
I92
sg18
(lp4331
S'The'
p4332
aS'situation'
p4333
aS'was'
p4334
aS'finally'
p4335
aS'put'
p4336
aS'together'
p4337
aS'like'
p4338
aS'a'
p4339
aS'gigantic'
p4340
aS'jig-saw'
p4341
aS'puzzle'
p4342
aS'.'
p4343
asg44
(lp4344
VThe
p4345
aVsituation
p4346
ag59
aVfinally
p4347
aVput
p4348
aVtogether
p4349
aVlike
p4350
ag164
aVgigantic
p4351
aVjig-saw
p4352
aVpuzzle
p4353
ag68
asg69
(lp4354
g71
ag71
ag71
ag71
ag71
ag71
ag71
ag71
ag71
ag71
ag71
ag71
asg74
(lp4355
g79
ag81
ag85
ag227
ag86
ag393
ag78
ag79
ag80
ag81
ag81
ag87
asg88
VThe situation was finally put together like a gigantic jig-saw puzzle.
p4356
sba(i__main__
Sentence
p4357
(dp4358
g17
I93
sg18
(lp4359
S'Father'
p4360
aS'caught'
p4361
aS'a'
p4362
aS'cold'
p4363
aS'from'
p4364
aS'prowling'
p4365
aS'around'
p4366
aS'in'
p4367
aS'his'
p4368
aS'bare'
p4369
aS'feet'
p4370
aS'but'
p4371
aS'there'
p4372
aS'were'
p4373
aS'no'
p4374
aS'other'
p4375
aS'bad'
p4376
aS'results'
p4377
aS'.'
p4378
asg44
(lp4379
VFather
p4380
ag3863
ag164
aVcold
p4381
aVfrom
p4382
aVprowl
p4383
aVaround
p4384
aVin
p4385
aVhis
p4386
aVbare
p4387
aVfoot
p4388
aVbut
p4389
aVthere
p4390
ag734
aVno
p4391
aVother
p4392
aVbad
p4393
aVresult
p4394
ag68
asg69
(lp4395
g71
ag71
ag71
ag71
ag71
ag71
ag71
ag71
ag71
ag71
ag71
ag71
ag71
ag71
ag71
ag71
ag71
ag71
ag71
asg74
(lp4396
g83
ag85
ag79
ag81
ag78
ag226
ag78
ag78
ag82
ag81
ag81
ag225
ag394
ag85
ag79
ag80
ag80
ag223
ag87
asg88
VFather caught a cold from prowling around in his bare feet but there were no other bad results.
p4397
sba(i__main__
Sentence
p4398
(dp4399
g17
I94
sg18
(lp4400
S'``'
p4401
aS'I'
p4402
aS"'m"
p4403
aS'glad'
p4404
aS','
p4405
aS"''"
p4406
aS'said'
p4407
aS'mother'
p4408
aS','
p4409
aS'who'
p4410
aS'always'
p4411
aS'looked'
p4412
aS'on'
p4413
aS'the'
p4414
aS'bright'
p4415
aS'side'
p4416
aS'of'
p4417
aS'things'
p4418
aS','
p4419
aS'``'
p4420
aS'that'
p4421
aS'your'
p4422
aS'grandfather'
p4423
aS'was'
p4424
aS"n't"
p4425
aS'here'
p4426
aS'.'
p4427
aS"''"
p4428
asg44
(lp4429
V``
p4430
ag46
aV'm
p4431
aVglad
p4432
ag57
aV''
p4433
ag174
aVmother
p4434
ag57
aVwho
p4435
aValways
p4436
aVlook
p4437
aVon
p4438
aVthe
p4439
aVbright
p4440
aVside
p4441
aVof
p4442
aVthing
p4443
ag57
aV``
p4444
aVthat
p4445
aVyour
p4446
aVgrandfather
p4447
ag59
aVn't
p4448
aVhere
p4449
ag68
aV''
p4450
asg69
(lp4451
g71
ag71
ag71
ag71
ag71
ag71
ag71
ag71
ag71
ag71
ag71
ag71
ag71
ag71
ag71
ag71
ag71
ag71
ag71
ag71
ag71
ag71
ag71
ag71
ag71
ag71
ag71
ag71
asg74
(lp4452
g1373
ag76
ag77
ag80
ag84
ag1412
ag85
ag227
ag84
ag230
ag227
ag85
ag78
ag79
ag80
ag81
ag78
ag223
ag84
ag1373
ag78
ag82
ag81
ag85
ag227
ag227
ag87
ag1412
asg88
V"I'm glad," said mother, who always looked on the bright side of things, "that your grandfather wasn't here."
p4453
sbasbsS'summary'
p4454
g0
(g7
g2
Ntp4455
Rp4456
(dp4457
g11
S"The narrate relates an incident of his youth when a bed fell on his father.  The father occasionally slept in the attic where he would think and eventually sleep on an old wooden bed.  The house is filled with an eclectic range of family members including a nervous cousin who is afraid of falling asleep and stopping breathing.  He shares a room with the narrator who promises the cousin that he will keep an ear open for breathing.  One of his aunts fears the day when someone will chloroform her bedroom to get her belongs.  By midnight of the particular night, everyone was in bed.  At two in the morning, the narrator's own bed (an army cot) tipped over, which he all but slept through.  The noise awoke his mother who thought that the wobbly headboard on the bed in the attic had fallen on the father.  His cousin awoke during the shouting from the mother believing that he was not breathing and he poured a glass of camphor over his head and begins to chock.  It's at this point, the narrator awoke believing people were trying to awake him to get him out of perilous situation.  The mother rushed to open the attic door but it was stuck.  The battering on the attic door awoke the father who thought the house was on fire.  He yells that he's coming but they all believe it is him dying.  The narrator and the brother finally emerge from the room and the dog alarmed by all the noise leaps at the cousin believing him an intruder.  Finally, the father opens the attic door to ask what's happening at which point they piece together all the things that happened. "
p4458
sg13
(lp4459
(i__main__
Sentence
p4460
(dp4461
g17
I0
sg18
(lp4462
S'The'
p4463
aS'narrate'
p4464
aS'relates'
p4465
aS'an'
p4466
aS'incident'
p4467
aS'of'
p4468
aS'his'
p4469
aS'youth'
p4470
aS'when'
p4471
aS'a'
p4472
aS'bed'
p4473
aS'fell'
p4474
aS'on'
p4475
aS'his'
p4476
aS'father'
p4477
aS'.'
p4478
asg44
(lp4479
VThe
p4480
aVnarrate
p4481
aVrelate
p4482
aVan
p4483
aVincident
p4484
aVof
p4485
aVhis
p4486
aVyouth
p4487
aVwhen
p4488
ag164
aVbed
p4489
aVfell
p4490
aVon
p4491
aVhis
p4492
aVfather
p4493
ag68
asg69
(lp4494
g71
ag71
ag71
ag71
ag71
ag71
ag71
ag71
ag71
ag71
ag71
ag71
ag71
ag71
ag71
ag71
asg74
(lp4495
g79
ag81
ag220
ag79
ag81
ag78
ag82
ag81
ag305
ag79
ag86
ag81
ag78
ag82
ag81
ag87
asg88
VThe narrate relates an incident of his youth when a bed fell on his father.
p4496
sba(i__main__
Sentence
p4497
(dp4498
g17
I1
sg18
(lp4499
S'The'
p4500
aS'father'
p4501
aS'occasionally'
p4502
aS'slept'
p4503
aS'in'
p4504
aS'the'
p4505
aS'attic'
p4506
aS'where'
p4507
aS'he'
p4508
aS'would'
p4509
aS'think'
p4510
aS'and'
p4511
aS'eventually'
p4512
aS'sleep'
p4513
aS'on'
p4514
aS'an'
p4515
aS'old'
p4516
aS'wooden'
p4517
aS'bed'
p4518
aS'.'
p4519
asg44
(lp4520
VThe
p4521
aVfather
p4522
aVoccasionally
p4523
ag511
aVin
p4524
aVthe
p4525
aVattic
p4526
aVwhere
p4527
aVhe
p4528
aVwould
p4529
aVthink
p4530
aVand
p4531
aVeventually
p4532
aVsleep
p4533
aVon
p4534
aVan
p4535
aVold
p4536
aVwooden
p4537
aVbed
p4538
ag68
asg69
(lp4539
g71
ag71
ag71
ag71
ag71
ag71
ag71
ag71
ag71
ag71
ag71
ag71
ag71
ag71
ag71
ag71
ag71
ag71
ag71
ag71
asg74
(lp4540
g79
ag81
ag227
ag85
ag78
ag79
ag80
ag305
ag76
ag306
ag229
ag225
ag227
ag229
ag78
ag79
ag80
ag81
ag85
ag87
asg88
VThe father occasionally slept in the attic where he would think and eventually sleep on an old wooden bed.
p4541
sba(i__main__
Sentence
p4542
(dp4543
g17
I2
sg18
(lp4544
S'The'
p4545
aS'house'
p4546
aS'is'
p4547
aS'filled'
p4548
aS'with'
p4549
aS'an'
p4550
aS'eclectic'
p4551
aS'range'
p4552
aS'of'
p4553
aS'family'
p4554
aS'members'
p4555
aS'including'
p4556
aS'a'
p4557
aS'nervous'
p4558
aS'cousin'
p4559
aS'who'
p4560
aS'is'
p4561
aS'afraid'
p4562
aS'of'
p4563
aS'falling'
p4564
aS'asleep'
p4565
aS'and'
p4566
aS'stopping'
p4567
aS'breathing'
p4568
aS'.'
p4569
asg44
(lp4570
VThe
p4571
aVhouse
p4572
ag192
aVfill
p4573
aVwith
p4574
aVan
p4575
aVeclectic
p4576
aVrange
p4577
aVof
p4578
aVfamily
p4579
aVmember
p4580
aVinclude
p4581
ag164
aVnervous
p4582
aVcousin
p4583
aVwho
p4584
ag192
aVafraid
p4585
aVof
p4586
aVfall
p4587
aVasleep
p4588
aVand
p4589
aVstop
p4590
aVbreathing
p4591
ag68
asg69
(lp4592
g71
ag71
ag71
ag71
ag71
ag71
ag71
ag71
ag71
ag71
ag71
ag71
ag71
ag71
ag71
ag71
ag71
ag71
ag71
ag71
ag71
ag71
ag71
ag71
ag71
asg74
(lp4593
g79
ag81
ag220
ag86
ag78
ag79
ag80
ag81
ag78
ag81
ag223
ag226
ag79
ag80
ag81
ag230
ag220
ag86
ag78
ag226
ag81
ag225
ag226
ag81
ag87
asg88
VThe house is filled with an eclectic range of family members including a nervous cousin who is afraid of falling asleep and stopping breathing.
p4594
sba(i__main__
Sentence
p4595
(dp4596
g17
I3
sg18
(lp4597
S'He'
p4598
aS'shares'
p4599
aS'a'
p4600
aS'room'
p4601
aS'with'
p4602
aS'the'
p4603
aS'narrator'
p4604
aS'who'
p4605
aS'promises'
p4606
aS'the'
p4607
aS'cousin'
p4608
aS'that'
p4609
aS'he'
p4610
aS'will'
p4611
aS'keep'
p4612
aS'an'
p4613
aS'ear'
p4614
aS'open'
p4615
aS'for'
p4616
aS'breathing'
p4617
aS'.'
p4618
asg44
(lp4619
VHe
p4620
aVshare
p4621
ag164
aVroom
p4622
aVwith
p4623
aVthe
p4624
aVnarrator
p4625
aVwho
p4626
aVpromise
p4627
aVthe
p4628
aVcousin
p4629
aVthat
p4630
aVhe
p4631
aVwill
p4632
aVkeep
p4633
aVan
p4634
aVear
p4635
aVopen
p4636
aVfor
p4637
aVbreathing
p4638
ag68
asg69
(lp4639
g71
ag71
ag71
ag71
ag71
ag71
ag71
ag71
ag71
ag71
ag71
ag71
ag71
ag71
ag71
ag71
ag71
ag71
ag71
ag71
ag71
asg74
(lp4640
g76
ag220
ag79
ag81
ag78
ag79
ag81
ag230
ag220
ag79
ag81
ag78
ag76
ag306
ag229
ag79
ag80
ag80
ag78
ag81
ag87
asg88
VHe shares a room with the narrator who promises the cousin that he will keep an ear open for breathing.
p4641
sba(i__main__
Sentence
p4642
(dp4643
g17
I4
sg18
(lp4644
S'One'
p4645
aS'of'
p4646
aS'his'
p4647
aS'aunts'
p4648
aS'fears'
p4649
aS'the'
p4650
aS'day'
p4651
aS'when'
p4652
aS'someone'
p4653
aS'will'
p4654
aS'chloroform'
p4655
aS'her'
p4656
aS'bedroom'
p4657
aS'to'
p4658
aS'get'
p4659
aS'her'
p4660
aS'belongs'
p4661
aS'.'
p4662
asg44
(lp4663
VOne
p4664
aVof
p4665
aVhis
p4666
aVaunt
p4667
aVfear
p4668
aVthe
p4669
aVday
p4670
aVwhen
p4671
aVsomeone
p4672
aVwill
p4673
aVchloroform
p4674
aVher
p4675
aVbedroom
p4676
aVto
p4677
aVget
p4678
aVher
p4679
aVbelongs
p4680
ag68
asg69
(lp4681
g71
ag71
ag71
ag71
ag71
ag71
ag71
ag71
ag71
ag71
ag71
ag71
ag71
ag71
ag71
ag71
ag71
ag71
asg74
(lp4682
g224
ag78
ag82
ag223
ag223
ag79
ag81
ag305
ag81
ag306
ag229
ag76
ag229
ag228
ag229
ag82
ag223
ag87
asg88
VOne of his aunts fears the day when someone will chloroform her bedroom to get her belongs.
p4683
sba(i__main__
Sentence
p4684
(dp4685
g17
I5
sg18
(lp4686
S'By'
p4687
aS'midnight'
p4688
aS'of'
p4689
aS'the'
p4690
aS'particular'
p4691
aS'night'
p4692
aS','
p4693
aS'everyone'
p4694
aS'was'
p4695
aS'in'
p4696
aS'bed'
p4697
aS'.'
p4698
asg44
(lp4699
VBy
p4700
aVmidnight
p4701
aVof
p4702
aVthe
p4703
aVparticular
p4704
aVnight
p4705
ag57
aVeveryone
p4706
ag59
aVin
p4707
aVbed
p4708
ag68
asg69
(lp4709
g71
ag71
ag71
ag71
ag71
ag71
ag71
ag71
ag71
ag71
ag71
ag71
asg74
(lp4710
g78
ag81
ag78
ag79
ag80
ag81
ag84
ag81
ag85
ag78
ag86
ag87
asg88
VBy midnight of the particular night, everyone was in bed.
p4711
sba(i__main__
Sentence
p4712
(dp4713
g17
I6
sg18
(lp4714
S'At'
p4715
aS'two'
p4716
aS'in'
p4717
aS'the'
p4718
aS'morning'
p4719
aS','
p4720
aS'the'
p4721
aS'narrator'
p4722
aS"'s"
p4723
aS'own'
p4724
aS'bed'
p4725
aS'('
p4726
aS'an'
p4727
aS'army'
p4728
aS'cot'
p4729
aS')'
p4730
aS'tipped'
p4731
aS'over'
p4732
aS','
p4733
aS'which'
p4734
aS'he'
p4735
aS'all'
p4736
aS'but'
p4737
aS'slept'
p4738
aS'through'
p4739
aS'.'
p4740
asg44
(lp4741
VAt
p4742
aVtwo
p4743
aVin
p4744
aVthe
p4745
aVmorning
p4746
ag57
aVthe
p4747
aVnarrator
p4748
aV's
p4749
aVown
p4750
aVbed
p4751
ag167
aVan
p4752
aVarmy
p4753
aVcot
p4754
ag183
aVtip
p4755
aVover
p4756
ag57
aVwhich
p4757
aVhe
p4758
aVall
p4759
aVbut
p4760
aVslept
p4761
aVthrough
p4762
ag68
asg69
(lp4763
g71
ag71
ag71
ag71
ag71
ag71
ag71
ag71
ag71
ag71
ag71
ag71
ag71
ag71
ag71
ag71
ag71
ag71
ag71
ag71
ag71
ag71
ag71
ag71
ag71
ag71
asg74
(lp4764
g78
ag224
ag78
ag79
ag81
ag84
ag79
ag81
ag395
ag80
ag86
aS'-NONE-'
p4765
ag79
ag81
ag81
ag222
ag85
ag78
ag84
ag865
ag76
ag79
ag225
ag78
ag78
ag87
asg88
VAt two in the morning, the narrator's own bed (an army cot) tipped over, which he all but slept through.
p4766
sba(i__main__
Sentence
p4767
(dp4768
g17
I7
sg18
(lp4769
S'The'
p4770
aS'noise'
p4771
aS'awoke'
p4772
aS'his'
p4773
aS'mother'
p4774
aS'who'
p4775
aS'thought'
p4776
aS'that'
p4777
aS'the'
p4778
aS'wobbly'
p4779
aS'headboard'
p4780
aS'on'
p4781
aS'the'
p4782
aS'bed'
p4783
aS'in'
p4784
aS'the'
p4785
aS'attic'
p4786
aS'had'
p4787
aS'fallen'
p4788
aS'on'
p4789
aS'the'
p4790
aS'father'
p4791
aS'.'
p4792
asg44
(lp4793
VThe
p4794
aVnoise
p4795
aVawoke
p4796
aVhis
p4797
aVmother
p4798
aVwho
p4799
aVthought
p4800
aVthat
p4801
aVthe
p4802
aVwobbly
p4803
aVheadboard
p4804
aVon
p4805
aVthe
p4806
aVbed
p4807
aVin
p4808
aVthe
p4809
aVattic
p4810
ag287
ag2657
aVon
p4811
aVthe
p4812
aVfather
p4813
ag68
asg69
(lp4814
g71
ag71
ag71
ag71
ag71
ag71
ag71
ag71
ag71
ag71
ag71
ag71
ag71
ag71
ag71
ag71
ag71
ag71
ag71
ag71
ag71
ag71
ag71
asg74
(lp4815
g79
ag81
ag81
ag82
ag81
ag230
ag227
ag78
ag79
ag227
ag80
ag78
ag79
ag86
ag78
ag79
ag80
ag85
ag86
ag78
ag79
ag81
ag87
asg88
VThe noise awoke his mother who thought that the wobbly headboard on the bed in the attic had fallen on the father.
p4816
sba(i__main__
Sentence
p4817
(dp4818
g17
I8
sg18
(lp4819
S'His'
p4820
aS'cousin'
p4821
aS'awoke'
p4822
aS'during'
p4823
aS'the'
p4824
aS'shouting'
p4825
aS'from'
p4826
aS'the'
p4827
aS'mother'
p4828
aS'believing'
p4829
aS'that'
p4830
aS'he'
p4831
aS'was'
p4832
aS'not'
p4833
aS'breathing'
p4834
aS'and'
p4835
aS'he'
p4836
aS'poured'
p4837
aS'a'
p4838
aS'glass'
p4839
aS'of'
p4840
aS'camphor'
p4841
aS'over'
p4842
aS'his'
p4843
aS'head'
p4844
aS'and'
p4845
aS'begins'
p4846
aS'to'
p4847
aS'chock'
p4848
aS'.'
p4849
asg44
(lp4850
VHis
p4851
aVcousin
p4852
aVawoke
p4853
aVduring
p4854
aVthe
p4855
aVshouting
p4856
aVfrom
p4857
aVthe
p4858
aVmother
p4859
aVbelieve
p4860
aVthat
p4861
aVhe
p4862
ag59
aVnot
p4863
aVbreathe
p4864
aVand
p4865
aVhe
p4866
aVpour
p4867
ag164
aVglass
p4868
aVof
p4869
aVcamphor
p4870
aVover
p4871
aVhis
p4872
aVhead
p4873
aVand
p4874
aVbegin
p4875
aVto
p4876
aVchock
p4877
ag68
asg69
(lp4878
g71
ag71
ag71
ag71
ag71
ag71
ag71
ag71
ag71
ag71
ag71
ag71
ag71
ag71
ag71
ag71
ag71
ag71
ag71
ag71
ag71
ag71
ag71
ag71
ag71
ag71
ag71
ag71
ag71
ag71
asg74
(lp4879
g82
ag81
ag81
ag78
ag79
ag81
ag78
ag79
ag81
ag226
ag78
ag76
ag85
ag227
ag226
ag225
ag76
ag85
ag79
ag81
ag78
ag81
ag78
ag82
ag81
ag225
ag220
ag228
ag229
ag87
asg88
VHis cousin awoke during the shouting from the mother believing that he was not breathing and he poured a glass of camphor over his head and begins to chock.
p4880
sba(i__main__
Sentence
p4881
(dp4882
g17
I9
sg18
(lp4883
S'It'
p4884
aS"'s"
p4885
aS'at'
p4886
aS'this'
p4887
aS'point'
p4888
aS','
p4889
aS'the'
p4890
aS'narrator'
p4891
aS'awoke'
p4892
aS'believing'
p4893
aS'people'
p4894
aS'were'
p4895
aS'trying'
p4896
aS'to'
p4897
aS'awake'
p4898
aS'him'
p4899
aS'to'
p4900
aS'get'
p4901
aS'him'
p4902
aS'out'
p4903
aS'of'
p4904
aS'perilous'
p4905
aS'situation'
p4906
aS'.'
p4907
asg44
(lp4908
VIt
p4909
aV's
p4910
aVat
p4911
aVthis
p4912
aVpoint
p4913
ag57
aVthe
p4914
aVnarrator
p4915
aVawoke
p4916
aVbelieve
p4917
aVpeople
p4918
ag734
aVtry
p4919
aVto
p4920
aVawake
p4921
aVhim
p4922
aVto
p4923
aVget
p4924
aVhim
p4925
aVout
p4926
aVof
p4927
aVperilous
p4928
aVsituation
p4929
ag68
asg69
(lp4930
g71
ag71
ag71
ag71
ag71
ag71
ag71
ag71
ag71
ag71
ag71
ag71
ag71
ag71
ag71
ag71
ag71
ag71
ag71
ag71
ag71
ag71
ag71
ag71
asg74
(lp4931
g76
ag220
ag78
ag79
ag81
ag84
ag79
ag81
ag81
ag226
ag223
ag85
ag226
ag228
ag229
ag76
ag228
ag229
ag76
ag393
ag78
ag80
ag81
ag87
asg88
VIt's at this point, the narrator awoke believing people were trying to awake him to get him out of perilous situation.
p4932
sba(i__main__
Sentence
p4933
(dp4934
g17
I10
sg18
(lp4935
S'The'
p4936
aS'mother'
p4937
aS'rushed'
p4938
aS'to'
p4939
aS'open'
p4940
aS'the'
p4941
aS'attic'
p4942
aS'door'
p4943
aS'but'
p4944
aS'it'
p4945
aS'was'
p4946
aS'stuck'
p4947
aS'.'
p4948
asg44
(lp4949
VThe
p4950
aVmother
p4951
aVrush
p4952
aVto
p4953
aVopen
p4954
aVthe
p4955
aVattic
p4956
aVdoor
p4957
aVbut
p4958
aVit
p4959
ag59
aVstuck
p4960
ag68
asg69
(lp4961
g71
ag71
ag71
ag71
ag71
ag71
ag71
ag71
ag71
ag71
ag71
ag71
ag71
asg74
(lp4962
g79
ag81
ag85
ag228
ag229
ag79
ag80
ag81
ag225
ag76
ag85
ag81
ag87
asg88
VThe mother rushed to open the attic door but it was stuck.
p4963
sba(i__main__
Sentence
p4964
(dp4965
g17
I11
sg18
(lp4966
S'The'
p4967
aS'battering'
p4968
aS'on'
p4969
aS'the'
p4970
aS'attic'
p4971
aS'door'
p4972
aS'awoke'
p4973
aS'the'
p4974
aS'father'
p4975
aS'who'
p4976
aS'thought'
p4977
aS'the'
p4978
aS'house'
p4979
aS'was'
p4980
aS'on'
p4981
aS'fire'
p4982
aS'.'
p4983
asg44
(lp4984
VThe
p4985
aVbattering
p4986
aVon
p4987
aVthe
p4988
aVattic
p4989
aVdoor
p4990
aVawoke
p4991
aVthe
p4992
aVfather
p4993
aVwho
p4994
aVthought
p4995
aVthe
p4996
aVhouse
p4997
ag59
aVon
p4998
aVfire
p4999
ag68
asg69
(lp5000
g71
ag71
ag71
ag71
ag71
ag71
ag71
ag71
ag71
ag71
ag71
ag71
ag71
ag71
ag71
ag71
ag71
asg74
(lp5001
g79
ag81
ag78
ag79
ag80
ag81
ag81
ag79
ag81
ag230
ag227
ag79
ag81
ag85
ag78
ag81
ag87
asg88
VThe battering on the attic door awoke the father who thought the house was on fire.
p5002
sba(i__main__
Sentence
p5003
(dp5004
g17
I12
sg18
(lp5005
S'He'
p5006
aS'yells'
p5007
aS'that'
p5008
aS'he'
p5009
aS"'s"
p5010
aS'coming'
p5011
aS'but'
p5012
aS'they'
p5013
aS'all'
p5014
aS'believe'
p5015
aS'it'
p5016
aS'is'
p5017
aS'him'
p5018
aS'dying'
p5019
aS'.'
p5020
asg44
(lp5021
VHe
p5022
aVyell
p5023
aVthat
p5024
aVhe
p5025
aV's
p5026
aVcome
p5027
aVbut
p5028
aVthey
p5029
aVall
p5030
aVbelieve
p5031
aVit
p5032
ag192
aVhim
p5033
ag3924
ag68
asg69
(lp5034
g71
ag71
ag71
ag71
ag71
ag71
ag71
ag71
ag71
ag71
ag71
ag71
ag71
ag71
ag71
asg74
(lp5035
g76
ag220
ag78
ag76
ag220
ag226
ag225
ag76
ag77
ag77
ag76
ag220
ag76
ag226
ag87
asg88
VHe yells that he's coming but they all believe it is him dying.
p5036
sba(i__main__
Sentence
p5037
(dp5038
g17
I13
sg18
(lp5039
S'The'
p5040
aS'narrator'
p5041
aS'and'
p5042
aS'the'
p5043
aS'brother'
p5044
aS'finally'
p5045
aS'emerge'
p5046
aS'from'
p5047
aS'the'
p5048
aS'room'
p5049
aS'and'
p5050
aS'the'
p5051
aS'dog'
p5052
aS'alarmed'
p5053
aS'by'
p5054
aS'all'
p5055
aS'the'
p5056
aS'noise'
p5057
aS'leaps'
p5058
aS'at'
p5059
aS'the'
p5060
aS'cousin'
p5061
aS'believing'
p5062
aS'him'
p5063
aS'an'
p5064
aS'intruder'
p5065
aS'.'
p5066
asg44
(lp5067
VThe
p5068
aVnarrator
p5069
aVand
p5070
aVthe
p5071
aVbrother
p5072
aVfinally
p5073
aVemerge
p5074
aVfrom
p5075
aVthe
p5076
aVroom
p5077
aVand
p5078
aVthe
p5079
aVdog
p5080
aValarm
p5081
aVby
p5082
aVall
p5083
aVthe
p5084
aVnoise
p5085
aVleap
p5086
aVat
p5087
aVthe
p5088
aVcousin
p5089
aVbelieve
p5090
aVhim
p5091
aVan
p5092
aVintruder
p5093
ag68
asg69
(lp5094
g71
ag71
ag71
ag71
ag71
ag71
ag71
ag71
ag71
ag71
ag71
ag71
ag71
ag71
ag71
ag71
ag71
ag71
ag71
ag71
ag71
ag71
ag71
ag71
ag71
ag71
ag71
asg74
(lp5095
g79
ag81
ag225
ag79
ag81
ag227
ag229
ag78
ag79
ag81
ag225
ag79
ag81
ag85
ag78
ag79
ag79
ag81
ag220
ag78
ag79
ag81
ag226
ag76
ag79
ag81
ag87
asg88
VThe narrator and the brother finally emerge from the room and the dog alarmed by all the noise leaps at the cousin believing him an intruder.
p5096
sba(i__main__
Sentence
p5097
(dp5098
g17
I14
sg18
(lp5099
S'Finally'
p5100
aS','
p5101
aS'the'
p5102
aS'father'
p5103
aS'opens'
p5104
aS'the'
p5105
aS'attic'
p5106
aS'door'
p5107
aS'to'
p5108
aS'ask'
p5109
aS'what'
p5110
aS"'s"
p5111
aS'happening'
p5112
aS'at'
p5113
aS'which'
p5114
aS'point'
p5115
aS'they'
p5116
aS'piece'
p5117
aS'together'
p5118
aS'all'
p5119
aS'the'
p5120
aS'things'
p5121
aS'that'
p5122
aS'happened'
p5123
aS'.'
p5124
asg44
(lp5125
VFinally
p5126
ag57
aVthe
p5127
aVfather
p5128
aVopen
p5129
aVthe
p5130
aVattic
p5131
aVdoor
p5132
aVto
p5133
aVask
p5134
aVwhat
p5135
aV's
p5136
aVhappen
p5137
aVat
p5138
aVwhich
p5139
aVpoint
p5140
aVthey
p5141
aVpiece
p5142
aVtogether
p5143
aVall
p5144
aVthe
p5145
aVthing
p5146
aVthat
p5147
aVhappen
p5148
ag68
asg69
(lp5149
g71
ag71
ag71
ag71
ag71
ag71
ag71
ag71
ag71
ag71
ag71
ag71
ag71
ag71
ag71
ag71
ag71
ag71
ag71
ag71
ag71
ag71
ag71
ag71
ag71
asg74
(lp5150
g227
ag84
ag79
ag81
ag220
ag79
ag80
ag81
ag228
ag229
ag230
ag395
ag226
ag78
ag865
ag81
ag76
ag77
ag393
ag79
ag79
ag223
ag78
ag86
ag87
asg88
VFinally, the father opens the attic door to ask what's happening at which point they piece together all the things that happened. 
p5151
sbasbsS'name'
p5152
S'The Night the Bed Fell'
p5153
sS'summaries'
p5154
(lp5155
g4456
asb.