ccopy_reg
_reconstructor
p0
(c__main__
Story
p1
c__builtin__
object
p2
Ntp3
Rp4
(dp5
S'text'
p6
g0
(c__main__
Document
p7
g2
Ntp8
Rp9
(dp10
S'_Document__initialContent'
p11
S"There was a man who had three sons, the youngest of whom was called\nDummling, and was despised, mocked, and sneered at on every occasion.\n\nIt happened that the eldest wanted to go into the forest to hew wood,\nand before he went his mother gave him a beautiful sweet cake and a\nbottle of wine in order that he might not suffer from hunger or\nthirst.\n\nWhen he entered the forest he met a little grey-haired old man who\nbade him good-day, and said, do give me a piece of cake out of your\npocket, and let me have a draught of your wine, I am so hungry and\nthirsty.  But the clever son answered, if I give you my cake and\nwine, I shall have none for myself, be off with you, and he left the\nlittle man standing and went on.\n\nBut when he began to hew down a tree, it was not long before he made\na false stroke, and the axe cut him in the arm, so that he had to go\nhome and have it bound up.  And this was the little grey man's doing.\n\nAfter this the second son went into the forest, and his mother gave\nhim, like the eldest, a cake and a bottle of wine.  The little old\ngrey man met him likewise, and asked him for a piece of cake and a\ndrink of wine.  But the second son, too, said sensibly enough, what I\ngive you will be taken away from myself, be off, and he left the\nlittle man standing and went on.  His punishment, however, was not\ndelayed, when he had made a few blows at the tree he struck himself\nin the leg, so that he had to be carried home.\n\nThen Dummling said, father, do let me go and cut wood.  The father\nanswered, your brothers have hurt themselves with it, leave it alone,\nyou do not understand anything about it.  But Dummling begged so long\nthat at last he said, just go then, you will get wiser by hurting\nyourself.  His mother gave him a cake made with water and baked in\nthe cinders, and with it a bottle of sour beer.\n\nWhen he came to the forest the little old grey man met him likewise,\nand greeting him, said, give me a piece of your cake and a drink out\nof your bottle, I am so hungry and thirsty.\n\nDummling answered, I have only cinder-cake and sour beer, if that\npleases you, we will sit down and eat.  So they sat down, and when\nDummling pulled out his cinder-cake, it was a fine sweet cake, and\nthe sour beer had become good wine.  So they ate and drank, and after\nthat the little man said, since you have a good heart, and are\nwilling to divide what you have, I will give you good luck. There\nstands an old tree, cut it down, and you will find something at the\nroots.  Then the little man took leave of him.\n\nDummling went and cut down the tree, and when it fell there was a\ngoose sitting in the roots with feathers of pure gold. He lifted her\nup, and taking her with him, went to an inn where he thought he would\nstay the night.  Now the host had three daughters, who saw the goose\nand were curious to know what such a wonderful bird might be, and\nwould have liked to have one of its golden feathers.\n\nThe eldest thought, I shall soon find an opportunity of pulling out a\nfeather, and as soon as Dummling had gone out she seized the goose by\nthe wing, but her finger and hand remained sticking fast to it.\n\nThe second came soon afterwards, thinking only of how she might get a\nfeather for herself, but she had scarcely touched her sister than she\nwas held fast.\n\nAt last the third also came with the like intent, and the others\nscreamed out, keep away, for goodness, sake keep away.  But she did\nnot understand why she was to keep away.  The others are there, she\nthought, I may as well be there too, and ran to them, but as soon as\nshe had touched her sister, she remained sticking fast to her.  So\nthey had to spend the night with the goose.\n\nThe next morning Dummling took the goose under his arm and set out,\nwithout troubling himself about the three girls who were hanging on\nto it.  They were obliged to run after him continually, now left, now\nright, wherever his legs took him.\n\nIn the middle of the fields the parson met them, and when he saw the\nprocession he said, for shame, you good-for-nothing girls, why are\nyou running across the fields after this young man.  Is that seemly?\nAt the same time he seized the youngest by the hand in order to pull\nher away, but as soon as he touched her he likewise stuck fast, and\nwas himself obliged to run behind.\n\nBefore long the sexton came by and saw his master, the parson,\nrunning behind three girls.  He was astonished at this and called\nout, hi, your reverence, whither away so quickly.  Do not forget that\nwe have a christening to-day, and running after him he took him by\nthe sleeve, but was also held fast to it. Whilst the five were\ntrotting thus one behind the other, two laborers came with their hoes\nfrom the fields, the parson called out to them and begged that they\nwould set him and the sexton free.  But they had scarcely touched the\nsexton when they were held fast, and now there were seven of them\nrunning behind Dummling and the goose.\n\nSoon afterwards he came to a city, where a king ruled who had a\ndaughter who was so serious that no one could make her laugh.  So he\nhad put forth a decree that whosoever should be able to make her\nlaugh should marry her.  When Dummling heard this, he went with his\ngoose and all her train before the king's daughter, and as soon as\nshe saw the seven people running on and on, one behind the other, she\nbegan to laugh quite loudly, and as if she would never stop.\n\nThereupon Dummling asked to have her for his wife, but the king did\nnot like the son-in-law, and made all manner of excuses and said he\nmust first produce a man who could drink a cellarful of wine.\n\nDummling thought of the little grey man, who could certainly help\nhim, so he went into the forest, and in the same place where he had\nfelled the tree, he saw a man sitting, who had a very sorrowful face.\nDummling asked him what he was taking to heart so sorely, and he\nanswered, I have such a great thirst and cannot quench it, cold water\nI cannot stand, a barrel of wine I have just emptied, but that to me\nis like a drop on a hot stone.\n\nThere, I can help you, said Dummling, just come with me and you shall\nbe satisfied.\n\nHe led him into the king's cellar, and the man bent over the huge\nbarrels, and drank and drank till his loins hurt, and before the day\nwas out he had emptied all the barrels.  Then Dummling asked once\nmore for his bride, but the king was vexed that such an ugly fellow,\nwhom everyone called Dummling, should take away his daughter, and he\nmade a new condition, he must first find a man who could eat a whole\nmountain of bread.  Dummling did not think long, but went straight\ninto the forest, where in the same place there sat a man who was\ntying up his body with a strap, and making an awful face, and saying,\nI have eaten a whole ovenful of rolls, but what good is that when one\nhas such a hunger as I.  My stomach remains empty, and I must tie\nmyself up if I am not to die of hunger.\n\nAt this Dummling was glad, and said, get up and come with me, you\nshall eat yourself full.  He led him to the king's palace, where all\nthe flour in the whole kingdom was collected, and from it he caused a\nhuge mountain of bread to be baked.  The man from the forest stood\nbefore it, began to eat, and by the end of one day the whole mountain\nhad vanished.  Then Dummling for the third time asked for his bride,\nbut the king again sought a way out, and ordered a ship which could\nsail on land and on water.  As soon as you come sailing back in it,\nsaid he, you shall have my daughter for wife.\n\nDummling went straight into the forest, and there sat the little grey\nman to whom he had given his cake.  When he heard what Dummling\nwanted, he said, since you have given me to eat and to drink, I will\ngive you the ship, and I do all this because you once were kind to\nme.  Then he gave him the ship which could sail on land and water,\nand when the king saw that, he could no longer prevent him from\nhaving his daughter.  The wedding was celebrated, and after the\nking's death, Dummling inherited his kingdom and lived for a long\ntime contentedly with his wife.\n"
p12
sS'sentences'
p13
(lp14
(i__main__
Sentence
p15
(dp16
S'index'
p17
I0
sS'words'
p18
(lp19
S'There'
p20
aS'was'
p21
aS'a'
p22
aS'man'
p23
aS'who'
p24
aS'had'
p25
aS'three'
p26
aS'sons'
p27
aS','
p28
aS'the'
p29
aS'youngest'
p30
aS'of'
p31
aS'whom'
p32
aS'was'
p33
aS'called'
p34
aS'Dummling'
p35
aS','
p36
aS'and'
p37
aS'was'
p38
aS'despised'
p39
aS','
p40
aS'mocked'
p41
aS','
p42
aS'and'
p43
aS'sneered'
p44
aS'at'
p45
aS'on'
p46
aS'every'
p47
aS'occasion'
p48
aS'.'
p49
asS'lemmas'
p50
(lp51
VThere
p52
aVbe
p53
aVa
p54
aVman
p55
aVwho
p56
aVhave
p57
aVthree
p58
aVson
p59
aV,
p60
aVthe
p61
aVyoung
p62
aVof
p63
aVwhom
p64
ag53
aVcall
p65
aVDummling
p66
ag60
aVand
p67
ag53
aVdespise
p68
ag60
aVmock
p69
ag60
aVand
p70
aVsneer
p71
aVat
p72
aVon
p73
aVevery
p74
aVoccasion
p75
aV.
p76
asS'nerTags'
p77
(lp78
VO
p79
ag79
ag79
ag79
ag79
ag79
ag79
ag79
ag79
ag79
ag79
ag79
ag79
ag79
ag79
ag79
ag79
ag79
ag79
ag79
ag79
ag79
ag79
ag79
ag79
ag79
ag79
ag79
ag79
ag79
asS'posTags'
p80
(lp81
S'EX'
p82
aS'VBD'
p83
aS'DT'
p84
aS'NN'
p85
aS'WP'
p86
ag83
aS'CD'
p87
aS'NNS'
p88
aS','
p89
ag84
aS'JJS'
p90
aS'IN'
p91
ag86
ag83
aS'VBN'
p92
aS'NNP'
p93
ag89
aS'CC'
p94
ag83
ag92
ag89
ag92
ag89
ag94
ag83
ag91
ag91
ag84
ag85
aS'.'
p95
asS'_Sentence__initialContent'
p96
VThere was a man who had three sons, the youngest of whom was called Dummling, and was despised, mocked, and sneered at on every occasion.
p97
sba(i__main__
Sentence
p98
(dp99
g17
I1
sg18
(lp100
S'It'
p101
aS'happened'
p102
aS'that'
p103
aS'the'
p104
aS'eldest'
p105
aS'wanted'
p106
aS'to'
p107
aS'go'
p108
aS'into'
p109
aS'the'
p110
aS'forest'
p111
aS'to'
p112
aS'hew'
p113
aS'wood'
p114
aS','
p115
aS'and'
p116
aS'before'
p117
aS'he'
p118
aS'went'
p119
aS'his'
p120
aS'mother'
p121
aS'gave'
p122
aS'him'
p123
aS'a'
p124
aS'beautiful'
p125
aS'sweet'
p126
aS'cake'
p127
aS'and'
p128
aS'a'
p129
aS'bottle'
p130
aS'of'
p131
aS'wine'
p132
aS'in'
p133
aS'order'
p134
aS'that'
p135
aS'he'
p136
aS'might'
p137
aS'not'
p138
aS'suffer'
p139
aS'from'
p140
aS'hunger'
p141
aS'or'
p142
aS'thirst'
p143
aS'.'
p144
asg50
(lp145
VIt
p146
aVhappen
p147
aVthat
p148
aVthe
p149
aVeldest
p150
aVwant
p151
aVto
p152
aVgo
p153
aVinto
p154
aVthe
p155
aVforest
p156
aVto
p157
aVhew
p158
aVwood
p159
ag60
aVand
p160
aVbefore
p161
aVhe
p162
aVgo
p163
aVhis
p164
aVmother
p165
aVgive
p166
aVhim
p167
ag54
aVbeautiful
p168
aVsweet
p169
aVcake
p170
aVand
p171
ag54
aVbottle
p172
aVof
p173
aVwine
p174
aVin
p175
aVorder
p176
aVthat
p177
aVhe
p178
aVmight
p179
aVnot
p180
aVsuffer
p181
aVfrom
p182
aVhunger
p183
aVor
p184
aVthirst
p185
ag76
asg77
(lp186
g79
ag79
ag79
ag79
ag79
ag79
ag79
ag79
ag79
ag79
ag79
ag79
ag79
ag79
ag79
ag79
ag79
ag79
ag79
ag79
ag79
ag79
ag79
ag79
ag79
ag79
ag79
ag79
ag79
ag79
ag79
ag79
ag79
ag79
ag79
ag79
ag79
ag79
ag79
ag79
ag79
ag79
ag79
ag79
asg80
(lp187
S'PRP'
p188
ag83
ag91
ag84
ag90
ag83
aS'TO'
p189
aS'VB'
p190
ag91
ag84
ag90
ag189
ag190
ag85
ag89
ag94
ag91
ag188
ag83
aS'PRP$'
p191
ag85
ag83
ag188
ag84
aS'JJ'
p192
ag85
ag85
ag94
ag84
ag85
ag91
ag85
ag91
ag85
ag91
ag188
aS'MD'
p193
aS'RB'
p194
ag190
ag91
aS'JJR'
p195
ag94
ag192
ag95
asg96
VIt happened that the eldest wanted to go into the forest to hew wood, and before he went his mother gave him a beautiful sweet cake and a bottle of wine in order that he might not suffer from hunger or thirst.
p196
sba(i__main__
Sentence
p197
(dp198
g17
I2
sg18
(lp199
S'When'
p200
aS'he'
p201
aS'entered'
p202
aS'the'
p203
aS'forest'
p204
aS'he'
p205
aS'met'
p206
aS'a'
p207
aS'little'
p208
aS'grey-haired'
p209
aS'old'
p210
aS'man'
p211
aS'who'
p212
aS'bade'
p213
aS'him'
p214
aS'good-day'
p215
aS','
p216
aS'and'
p217
aS'said'
p218
aS','
p219
aS'do'
p220
aS'give'
p221
aS'me'
p222
aS'a'
p223
aS'piece'
p224
aS'of'
p225
aS'cake'
p226
aS'out'
p227
aS'of'
p228
aS'your'
p229
aS'pocket'
p230
aS','
p231
aS'and'
p232
aS'let'
p233
aS'me'
p234
aS'have'
p235
aS'a'
p236
aS'draught'
p237
aS'of'
p238
aS'your'
p239
aS'wine'
p240
aS','
p241
aS'I'
p242
aS'am'
p243
aS'so'
p244
aS'hungry'
p245
aS'and'
p246
aS'thirsty'
p247
aS'.'
p248
asg50
(lp249
VWhen
p250
aVhe
p251
aVenter
p252
aVthe
p253
aVforest
p254
aVhe
p255
aVmeet
p256
ag54
aVlittle
p257
aVgrey-haired
p258
aVold
p259
aVman
p260
aVwho
p261
aVbade
p262
aVhim
p263
aVgood-day
p264
ag60
aVand
p265
aVsay
p266
ag60
aVdo
p267
aVgive
p268
aVme
p269
ag54
aVpiece
p270
aVof
p271
aVcake
p272
aVout
p273
aVof
p274
aVyour
p275
aVpocket
p276
ag60
aVand
p277
aVlet
p278
aVme
p279
aVhave
p280
ag54
aVdraught
p281
aVof
p282
aVyour
p283
aVwine
p284
ag60
aVI
p285
aVbe
p286
aVso
p287
aVhungry
p288
aVand
p289
aVthirsty
p290
ag76
asg77
(lp291
g79
ag79
ag79
ag79
ag79
ag79
ag79
ag79
ag79
ag79
ag79
ag79
ag79
ag79
ag79
ag79
ag79
ag79
ag79
ag79
ag79
ag79
ag79
ag79
ag79
ag79
ag79
ag79
ag79
ag79
ag79
ag79
ag79
ag79
ag79
ag79
ag79
ag79
ag79
ag79
ag79
ag79
ag79
ag79
ag79
ag79
ag79
ag79
ag79
asg80
(lp292
S'WRB'
p293
ag188
ag83
ag84
ag90
ag188
ag83
ag84
ag194
ag192
ag192
ag85
ag86
ag85
ag188
ag192
ag89
ag94
ag83
ag89
aS'VBP'
p294
ag192
ag188
ag84
ag85
ag91
ag85
ag91
ag91
ag191
ag85
ag89
ag94
ag190
ag188
ag190
ag84
ag85
ag91
ag191
ag85
ag89
ag188
ag294
ag194
ag192
ag94
ag85
ag95
asg96
VWhen he entered the forest he met a little grey-haired old man who bade him good-day, and said, do give me a piece of cake out of your pocket, and let me have a draught of your wine, I am so hungry and thirsty.
p295
sba(i__main__
Sentence
p296
(dp297
g17
I3
sg18
(lp298
S'But'
p299
aS'the'
p300
aS'clever'
p301
aS'son'
p302
aS'answered'
p303
aS','
p304
aS'if'
p305
aS'I'
p306
aS'give'
p307
aS'you'
p308
aS'my'
p309
aS'cake'
p310
aS'and'
p311
aS'wine'
p312
aS','
p313
aS'I'
p314
aS'shall'
p315
aS'have'
p316
aS'none'
p317
aS'for'
p318
aS'myself'
p319
aS','
p320
aS'be'
p321
aS'off'
p322
aS'with'
p323
aS'you'
p324
aS','
p325
aS'and'
p326
aS'he'
p327
aS'left'
p328
aS'the'
p329
aS'little'
p330
aS'man'
p331
aS'standing'
p332
aS'and'
p333
aS'went'
p334
aS'on'
p335
aS'.'
p336
asg50
(lp337
VBut
p338
aVthe
p339
aVclever
p340
aVson
p341
aVanswer
p342
ag60
aVif
p343
ag285
aVgive
p344
aVyou
p345
aVmy
p346
aVcake
p347
aVand
p348
aVwine
p349
ag60
ag285
aVshall
p350
aVhave
p351
aVnone
p352
aVfor
p353
aVmyself
p354
ag60
aVbe
p355
aVoff
p356
aVwith
p357
aVyou
p358
ag60
aVand
p359
aVhe
p360
aVleave
p361
aVthe
p362
aVlittle
p363
aVman
p364
aVstanding
p365
aVand
p366
ag163
aVon
p367
ag76
asg77
(lp368
g79
ag79
ag79
ag79
ag79
ag79
ag79
ag79
ag79
ag79
ag79
ag79
ag79
ag79
ag79
ag79
ag79
ag79
ag79
ag79
ag79
ag79
ag79
ag79
ag79
ag79
ag79
ag79
ag79
ag79
ag79
ag79
ag79
ag79
ag79
ag79
ag79
ag79
asg80
(lp369
g94
ag84
ag85
ag85
ag83
ag89
ag91
ag188
ag294
ag188
ag191
ag85
ag94
ag85
ag89
ag188
ag193
ag190
ag85
ag91
ag188
ag89
ag190
aS'RP'
p370
ag91
ag188
ag89
ag94
ag188
ag83
ag84
ag192
ag85
ag85
ag94
ag83
ag91
ag95
asg96
VBut the clever son answered, if I give you my cake and wine, I shall have none for myself, be off with you, and he left the little man standing and went on.
p371
sba(i__main__
Sentence
p372
(dp373
g17
I4
sg18
(lp374
S'But'
p375
aS'when'
p376
aS'he'
p377
aS'began'
p378
aS'to'
p379
aS'hew'
p380
aS'down'
p381
aS'a'
p382
aS'tree'
p383
aS','
p384
aS'it'
p385
aS'was'
p386
aS'not'
p387
aS'long'
p388
aS'before'
p389
aS'he'
p390
aS'made'
p391
aS'a'
p392
aS'false'
p393
aS'stroke'
p394
aS','
p395
aS'and'
p396
aS'the'
p397
aS'axe'
p398
aS'cut'
p399
aS'him'
p400
aS'in'
p401
aS'the'
p402
aS'arm'
p403
aS','
p404
aS'so'
p405
aS'that'
p406
aS'he'
p407
aS'had'
p408
aS'to'
p409
aS'go'
p410
aS'home'
p411
aS'and'
p412
aS'have'
p413
aS'it'
p414
aS'bound'
p415
aS'up'
p416
aS'.'
p417
asg50
(lp418
VBut
p419
aVwhen
p420
aVhe
p421
aVbegin
p422
aVto
p423
aVhew
p424
aVdown
p425
ag54
aVtree
p426
ag60
aVit
p427
ag53
aVnot
p428
aVlong
p429
aVbefore
p430
aVhe
p431
aVmake
p432
ag54
aVfalse
p433
aVstroke
p434
ag60
aVand
p435
aVthe
p436
aVaxe
p437
aVcut
p438
aVhim
p439
aVin
p440
aVthe
p441
aVarm
p442
ag60
aVso
p443
aVthat
p444
aVhe
p445
ag57
aVto
p446
aVgo
p447
aVhome
p448
aVand
p449
aVhave
p450
aVit
p451
aVbind
p452
aVup
p453
ag76
asg77
(lp454
g79
ag79
ag79
ag79
ag79
ag79
ag79
ag79
ag79
ag79
ag79
ag79
ag79
ag79
ag79
ag79
ag79
ag79
ag79
ag79
ag79
ag79
ag79
ag79
ag79
ag79
ag79
ag79
ag79
ag79
ag79
ag79
ag79
ag79
ag79
ag79
ag79
ag79
ag79
ag79
ag79
ag79
ag79
asg80
(lp455
g94
ag293
ag188
ag83
ag189
ag190
ag370
ag84
ag85
ag89
ag188
ag83
ag194
ag194
ag91
ag188
ag83
ag84
ag85
ag85
ag89
ag94
ag84
ag85
ag83
ag188
ag91
ag84
ag85
ag89
ag194
ag91
ag188
ag83
ag189
ag190
ag194
ag94
ag190
ag188
ag190
ag370
ag95
asg96
VBut when he began to hew down a tree, it was not long before he made a false stroke, and the axe cut him in the arm, so that he had to go home and have it bound up.
p456
sba(i__main__
Sentence
p457
(dp458
g17
I5
sg18
(lp459
S'And'
p460
aS'this'
p461
aS'was'
p462
aS'the'
p463
aS'little'
p464
aS'grey'
p465
aS'man'
p466
aS"'s"
p467
aS'doing'
p468
aS'.'
p469
asg50
(lp470
VAnd
p471
aVthis
p472
ag53
aVthe
p473
aVlittle
p474
aVgrey
p475
aVman
p476
aV's
p477
aVdoing
p478
ag76
asg77
(lp479
g79
ag79
ag79
ag79
ag79
ag79
ag79
ag79
ag79
ag79
asg80
(lp480
g94
ag84
ag83
ag84
ag192
ag85
ag85
aS'POS'
p481
ag85
ag95
asg96
VAnd this was the little grey man's doing.
p482
sba(i__main__
Sentence
p483
(dp484
g17
I6
sg18
(lp485
S'After'
p486
aS'this'
p487
aS'the'
p488
aS'second'
p489
aS'son'
p490
aS'went'
p491
aS'into'
p492
aS'the'
p493
aS'forest'
p494
aS','
p495
aS'and'
p496
aS'his'
p497
aS'mother'
p498
aS'gave'
p499
aS'him'
p500
aS','
p501
aS'like'
p502
aS'the'
p503
aS'eldest'
p504
aS','
p505
aS'a'
p506
aS'cake'
p507
aS'and'
p508
aS'a'
p509
aS'bottle'
p510
aS'of'
p511
aS'wine'
p512
aS'.'
p513
asg50
(lp514
VAfter
p515
aVthis
p516
aVthe
p517
aVsecond
p518
aVson
p519
ag163
aVinto
p520
aVthe
p521
aVforest
p522
ag60
aVand
p523
aVhis
p524
aVmother
p525
ag166
aVhim
p526
ag60
aVlike
p527
aVthe
p528
aVeldest
p529
ag60
ag54
aVcake
p530
aVand
p531
ag54
aVbottle
p532
aVof
p533
aVwine
p534
ag76
asg77
(lp535
g79
ag79
ag79
ag79
ag79
ag79
ag79
ag79
ag79
ag79
ag79
ag79
ag79
ag79
ag79
ag79
ag79
ag79
ag79
ag79
ag79
ag79
ag79
ag79
ag79
ag79
ag79
ag79
asg80
(lp536
g91
ag84
ag84
ag192
ag85
ag83
ag91
ag84
ag90
ag89
ag94
ag191
ag85
ag83
ag188
ag89
ag91
ag84
ag90
ag89
ag84
ag85
ag94
ag84
ag85
ag91
ag85
ag95
asg96
VAfter this the second son went into the forest, and his mother gave him, like the eldest, a cake and a bottle of wine.
p537
sba(i__main__
Sentence
p538
(dp539
g17
I7
sg18
(lp540
S'The'
p541
aS'little'
p542
aS'old'
p543
aS'grey'
p544
aS'man'
p545
aS'met'
p546
aS'him'
p547
aS'likewise'
p548
aS','
p549
aS'and'
p550
aS'asked'
p551
aS'him'
p552
aS'for'
p553
aS'a'
p554
aS'piece'
p555
aS'of'
p556
aS'cake'
p557
aS'and'
p558
aS'a'
p559
aS'drink'
p560
aS'of'
p561
aS'wine'
p562
aS'.'
p563
asg50
(lp564
VThe
p565
aVlittle
p566
aVold
p567
aVgrey
p568
aVman
p569
aVmet
p570
aVhim
p571
aVlikewise
p572
ag60
aVand
p573
aVask
p574
aVhim
p575
aVfor
p576
ag54
aVpiece
p577
aVof
p578
aVcake
p579
aVand
p580
ag54
aVdrink
p581
aVof
p582
aVwine
p583
ag76
asg77
(lp584
g79
ag79
ag79
ag79
ag79
ag79
ag79
ag79
ag79
ag79
ag79
ag79
ag79
ag79
ag79
ag79
ag79
ag79
ag79
ag79
ag79
ag79
ag79
asg80
(lp585
g84
ag192
ag192
ag85
ag85
ag85
ag188
ag294
ag89
ag94
ag83
ag188
ag91
ag84
ag85
ag91
ag85
ag94
ag84
ag85
ag91
ag85
ag95
asg96
VThe little old grey man met him likewise, and asked him for a piece of cake and a drink of wine.
p586
sba(i__main__
Sentence
p587
(dp588
g17
I8
sg18
(lp589
S'But'
p590
aS'the'
p591
aS'second'
p592
aS'son'
p593
aS','
p594
aS'too'
p595
aS','
p596
aS'said'
p597
aS'sensibly'
p598
aS'enough'
p599
aS','
p600
aS'what'
p601
aS'I'
p602
aS'give'
p603
aS'you'
p604
aS'will'
p605
aS'be'
p606
aS'taken'
p607
aS'away'
p608
aS'from'
p609
aS'myself'
p610
aS','
p611
aS'be'
p612
aS'off'
p613
aS','
p614
aS'and'
p615
aS'he'
p616
aS'left'
p617
aS'the'
p618
aS'little'
p619
aS'man'
p620
aS'standing'
p621
aS'and'
p622
aS'went'
p623
aS'on'
p624
aS'.'
p625
asg50
(lp626
VBut
p627
aVthe
p628
aVsecond
p629
aVson
p630
ag60
aVtoo
p631
ag60
ag266
aVsensibly
p632
aVenough
p633
ag60
aVwhat
p634
ag285
aVgive
p635
aVyou
p636
aVwill
p637
aVbe
p638
aVtake
p639
aVaway
p640
aVfrom
p641
aVmyself
p642
ag60
aVbe
p643
aVoff
p644
ag60
aVand
p645
aVhe
p646
ag361
aVthe
p647
aVlittle
p648
aVman
p649
aVstanding
p650
aVand
p651
ag163
aVon
p652
ag76
asg77
(lp653
g79
ag79
ag79
ag79
ag79
ag79
ag79
ag79
ag79
ag79
ag79
ag79
ag79
ag79
ag79
ag79
ag79
ag79
ag79
ag79
ag79
ag79
ag79
ag79
ag79
ag79
ag79
ag79
ag79
ag79
ag79
ag79
ag79
ag79
ag79
ag79
asg80
(lp654
g94
ag84
ag192
ag85
ag89
ag194
ag89
ag83
ag194
ag194
ag89
aS'WDT'
p655
ag188
ag294
ag188
ag193
ag190
ag92
ag194
ag91
ag188
ag89
ag190
ag370
ag89
ag94
ag188
ag83
ag84
ag192
ag85
ag85
ag94
ag83
ag91
ag95
asg96
VBut the second son, too, said sensibly enough, what I give you will be taken away from myself, be off, and he left the little man standing and went on.
p656
sba(i__main__
Sentence
p657
(dp658
g17
I9
sg18
(lp659
S'His'
p660
aS'punishment'
p661
aS','
p662
aS'however'
p663
aS','
p664
aS'was'
p665
aS'not'
p666
aS'delayed'
p667
aS','
p668
aS'when'
p669
aS'he'
p670
aS'had'
p671
aS'made'
p672
aS'a'
p673
aS'few'
p674
aS'blows'
p675
aS'at'
p676
aS'the'
p677
aS'tree'
p678
aS'he'
p679
aS'struck'
p680
aS'himself'
p681
aS'in'
p682
aS'the'
p683
aS'leg'
p684
aS','
p685
aS'so'
p686
aS'that'
p687
aS'he'
p688
aS'had'
p689
aS'to'
p690
aS'be'
p691
aS'carried'
p692
aS'home'
p693
aS'.'
p694
asg50
(lp695
VHis
p696
aVpunishment
p697
ag60
aVhowever
p698
ag60
ag53
aVnot
p699
aVdelay
p700
ag60
aVwhen
p701
aVhe
p702
ag57
ag432
ag54
aVfew
p703
aVblow
p704
aVat
p705
aVthe
p706
aVtree
p707
aVhe
p708
aVstrike
p709
aVhimself
p710
aVin
p711
aVthe
p712
aVleg
p713
ag60
aVso
p714
aVthat
p715
aVhe
p716
ag57
aVto
p717
aVbe
p718
aVcarry
p719
aVhome
p720
ag76
asg77
(lp721
g79
ag79
ag79
ag79
ag79
ag79
ag79
ag79
ag79
ag79
ag79
ag79
ag79
ag79
ag79
ag79
ag79
ag79
ag79
ag79
ag79
ag79
ag79
ag79
ag79
ag79
ag79
ag79
ag79
ag79
ag79
ag79
ag79
ag79
ag79
asg80
(lp722
g191
ag85
ag89
ag194
ag89
ag83
ag194
ag92
ag89
ag293
ag188
ag83
ag92
ag84
ag192
ag88
ag91
ag84
ag85
ag188
ag83
ag188
ag91
ag84
ag85
ag89
ag194
ag91
ag188
ag83
ag189
ag190
ag92
ag85
ag95
asg96
VHis punishment, however, was not delayed, when he had made a few blows at the tree he struck himself in the leg, so that he had to be carried home.
p723
sba(i__main__
Sentence
p724
(dp725
g17
I10
sg18
(lp726
S'Then'
p727
aS'Dummling'
p728
aS'said'
p729
aS','
p730
aS'father'
p731
aS','
p732
aS'do'
p733
aS'let'
p734
aS'me'
p735
aS'go'
p736
aS'and'
p737
aS'cut'
p738
aS'wood'
p739
aS'.'
p740
asg50
(lp741
VThen
p742
aVDummling
p743
ag266
ag60
aVfather
p744
ag60
aVdo
p745
aVlet
p746
aVme
p747
aVgo
p748
aVand
p749
aVcut
p750
aVwood
p751
ag76
asg77
(lp752
g79
aVPERSON
p753
ag79
ag79
ag79
ag79
ag79
ag79
ag79
ag79
ag79
ag79
ag79
ag79
asg80
(lp754
g194
aS'VBG'
p755
ag83
ag89
ag85
ag89
ag294
ag190
ag188
ag190
ag94
ag190
ag85
ag95
asg96
VThen Dummling said, father, do let me go and cut wood.
p756
sba(i__main__
Sentence
p757
(dp758
g17
I11
sg18
(lp759
S'The'
p760
aS'father'
p761
aS'answered'
p762
aS','
p763
aS'your'
p764
aS'brothers'
p765
aS'have'
p766
aS'hurt'
p767
aS'themselves'
p768
aS'with'
p769
aS'it'
p770
aS','
p771
aS'leave'
p772
aS'it'
p773
aS'alone'
p774
aS','
p775
aS'you'
p776
aS'do'
p777
aS'not'
p778
aS'understand'
p779
aS'anything'
p780
aS'about'
p781
aS'it'
p782
aS'.'
p783
asg50
(lp784
VThe
p785
aVfather
p786
aVanswer
p787
ag60
aVyour
p788
aVbrother
p789
aVhave
p790
aVhurt
p791
aVthemselves
p792
aVwith
p793
aVit
p794
ag60
aVleave
p795
aVit
p796
aValone
p797
ag60
aVyou
p798
aVdo
p799
aVnot
p800
aVunderstand
p801
aVanything
p802
aVabout
p803
aVit
p804
ag76
asg77
(lp805
g79
ag79
ag79
ag79
ag79
ag79
ag79
ag79
ag79
ag79
ag79
ag79
ag79
ag79
ag79
ag79
ag79
ag79
ag79
ag79
ag79
ag79
ag79
ag79
asg80
(lp806
g84
ag85
ag83
ag89
ag191
ag88
ag294
ag92
ag188
ag91
ag188
ag89
ag294
ag188
ag194
ag89
ag188
ag294
ag194
ag190
ag85
ag91
ag188
ag95
asg96
VThe father answered, your brothers have hurt themselves with it, leave it alone, you do not understand anything about it.
p807
sba(i__main__
Sentence
p808
(dp809
g17
I12
sg18
(lp810
S'But'
p811
aS'Dummling'
p812
aS'begged'
p813
aS'so'
p814
aS'long'
p815
aS'that'
p816
aS'at'
p817
aS'last'
p818
aS'he'
p819
aS'said'
p820
aS','
p821
aS'just'
p822
aS'go'
p823
aS'then'
p824
aS','
p825
aS'you'
p826
aS'will'
p827
aS'get'
p828
aS'wiser'
p829
aS'by'
p830
aS'hurting'
p831
aS'yourself'
p832
aS'.'
p833
asg50
(lp834
VBut
p835
aVDummling
p836
aVbeg
p837
aVso
p838
aVlong
p839
aVthat
p840
aVat
p841
aVlast
p842
aVhe
p843
ag266
ag60
aVjust
p844
aVgo
p845
aVthen
p846
ag60
aVyou
p847
aVwill
p848
aVget
p849
aVwiser
p850
aVby
p851
aVhurting
p852
aVyourself
p853
ag76
asg77
(lp854
g79
aVPERSON
p855
ag79
ag79
ag79
ag79
ag79
ag79
ag79
ag79
ag79
ag79
ag79
ag79
ag79
ag79
ag79
ag79
ag79
ag79
ag79
ag79
ag79
asg80
(lp856
g94
ag93
ag83
ag194
ag194
ag91
ag91
ag192
ag188
ag83
ag89
ag194
ag294
ag194
ag89
ag188
ag193
ag190
ag85
ag91
ag85
ag188
ag95
asg96
VBut Dummling begged so long that at last he said, just go then, you will get wiser by hurting yourself.
p857
sba(i__main__
Sentence
p858
(dp859
g17
I13
sg18
(lp860
S'His'
p861
aS'mother'
p862
aS'gave'
p863
aS'him'
p864
aS'a'
p865
aS'cake'
p866
aS'made'
p867
aS'with'
p868
aS'water'
p869
aS'and'
p870
aS'baked'
p871
aS'in'
p872
aS'the'
p873
aS'cinders'
p874
aS','
p875
aS'and'
p876
aS'with'
p877
aS'it'
p878
aS'a'
p879
aS'bottle'
p880
aS'of'
p881
aS'sour'
p882
aS'beer'
p883
aS'.'
p884
asg50
(lp885
VHis
p886
aVmother
p887
ag166
aVhim
p888
ag54
aVcake
p889
ag432
aVwith
p890
aVwater
p891
aVand
p892
aVbake
p893
aVin
p894
aVthe
p895
aVcinder
p896
ag60
aVand
p897
aVwith
p898
aVit
p899
ag54
aVbottle
p900
aVof
p901
aVsour
p902
aVbeer
p903
ag76
asg77
(lp904
g79
ag79
ag79
ag79
ag79
ag79
ag79
ag79
ag79
ag79
ag79
ag79
ag79
ag79
ag79
ag79
ag79
ag79
ag79
ag79
ag79
ag79
ag79
ag79
asg80
(lp905
g191
ag85
ag83
ag188
ag84
ag85
ag92
ag91
ag85
ag94
ag83
ag91
ag84
ag88
ag89
ag94
ag91
ag188
ag84
ag85
ag91
ag191
ag85
ag95
asg96
VHis mother gave him a cake made with water and baked in the cinders, and with it a bottle of sour beer.
p906
sba(i__main__
Sentence
p907
(dp908
g17
I14
sg18
(lp909
S'When'
p910
aS'he'
p911
aS'came'
p912
aS'to'
p913
aS'the'
p914
aS'forest'
p915
aS'the'
p916
aS'little'
p917
aS'old'
p918
aS'grey'
p919
aS'man'
p920
aS'met'
p921
aS'him'
p922
aS'likewise'
p923
aS','
p924
aS'and'
p925
aS'greeting'
p926
aS'him'
p927
aS','
p928
aS'said'
p929
aS','
p930
aS'give'
p931
aS'me'
p932
aS'a'
p933
aS'piece'
p934
aS'of'
p935
aS'your'
p936
aS'cake'
p937
aS'and'
p938
aS'a'
p939
aS'drink'
p940
aS'out'
p941
aS'of'
p942
aS'your'
p943
aS'bottle'
p944
aS','
p945
aS'I'
p946
aS'am'
p947
aS'so'
p948
aS'hungry'
p949
aS'and'
p950
aS'thirsty'
p951
aS'.'
p952
asg50
(lp953
VWhen
p954
aVhe
p955
aVcome
p956
aVto
p957
aVthe
p958
aVforest
p959
aVthe
p960
aVlittle
p961
aVold
p962
aVgrey
p963
aVman
p964
aVmet
p965
aVhim
p966
aVlikewise
p967
ag60
aVand
p968
aVgreet
p969
aVhim
p970
ag60
ag266
ag60
aVgive
p971
aVme
p972
ag54
aVpiece
p973
aVof
p974
aVyour
p975
aVcake
p976
aVand
p977
ag54
aVdrink
p978
aVout
p979
aVof
p980
aVyour
p981
aVbottle
p982
ag60
ag285
ag286
aVso
p983
aVhungry
p984
aVand
p985
aVthirsty
p986
ag76
asg77
(lp987
g79
ag79
ag79
ag79
ag79
ag79
ag79
ag79
ag79
ag79
ag79
ag79
ag79
ag79
ag79
ag79
ag79
ag79
ag79
ag79
ag79
ag79
ag79
ag79
ag79
ag79
ag79
ag79
ag79
ag79
ag79
ag79
ag79
ag79
ag79
ag79
ag79
ag79
ag79
ag79
ag79
ag79
ag79
asg80
(lp988
g293
ag188
ag83
ag189
ag84
ag90
ag84
ag192
ag192
ag85
ag85
ag85
ag188
ag294
ag89
ag94
ag755
ag188
ag89
ag83
ag89
ag192
ag188
ag84
ag85
ag91
ag191
ag85
ag94
ag84
ag85
ag91
ag91
ag191
ag85
ag89
ag188
ag294
ag194
ag192
ag94
ag85
ag95
asg96
VWhen he came to the forest the little old grey man met him likewise, and greeting him, said, give me a piece of your cake and a drink out of your bottle, I am so hungry and thirsty.
p989
sba(i__main__
Sentence
p990
(dp991
g17
I15
sg18
(lp992
S'Dummling'
p993
aS'answered'
p994
aS','
p995
aS'I'
p996
aS'have'
p997
aS'only'
p998
aS'cinder-cake'
p999
aS'and'
p1000
aS'sour'
p1001
aS'beer'
p1002
aS','
p1003
aS'if'
p1004
aS'that'
p1005
aS'pleases'
p1006
aS'you'
p1007
aS','
p1008
aS'we'
p1009
aS'will'
p1010
aS'sit'
p1011
aS'down'
p1012
aS'and'
p1013
aS'eat'
p1014
aS'.'
p1015
asg50
(lp1016
VDummling
p1017
aVanswer
p1018
ag60
ag285
aVhave
p1019
aVonly
p1020
aVcinder-cake
p1021
aVand
p1022
aVsour
p1023
aVbeer
p1024
ag60
aVif
p1025
aVthat
p1026
aVplease
p1027
aVyou
p1028
ag60
aVwe
p1029
aVwill
p1030
aVsit
p1031
aVdown
p1032
aVand
p1033
aVeat
p1034
ag76
asg77
(lp1035
VPERSON
p1036
ag79
ag79
ag79
ag79
ag79
ag79
ag79
ag79
ag79
ag79
ag79
ag79
ag79
ag79
ag79
ag79
ag79
ag79
ag79
ag79
ag79
ag79
asg80
(lp1037
g755
ag92
ag89
ag188
ag294
ag194
ag192
ag94
ag191
ag85
ag89
ag91
ag84
aS'VBZ'
p1038
ag188
ag89
ag188
ag193
ag190
ag194
ag94
ag190
ag95
asg96
VDummling answered, I have only cinder-cake and sour beer, if that pleases you, we will sit down and eat.
p1039
sba(i__main__
Sentence
p1040
(dp1041
g17
I16
sg18
(lp1042
S'So'
p1043
aS'they'
p1044
aS'sat'
p1045
aS'down'
p1046
aS','
p1047
aS'and'
p1048
aS'when'
p1049
aS'Dummling'
p1050
aS'pulled'
p1051
aS'out'
p1052
aS'his'
p1053
aS'cinder-cake'
p1054
aS','
p1055
aS'it'
p1056
aS'was'
p1057
aS'a'
p1058
aS'fine'
p1059
aS'sweet'
p1060
aS'cake'
p1061
aS','
p1062
aS'and'
p1063
aS'the'
p1064
aS'sour'
p1065
aS'beer'
p1066
aS'had'
p1067
aS'become'
p1068
aS'good'
p1069
aS'wine'
p1070
aS'.'
p1071
asg50
(lp1072
VSo
p1073
aVthey
p1074
aVsit
p1075
aVdown
p1076
ag60
aVand
p1077
aVwhen
p1078
aVDummling
p1079
aVpull
p1080
aVout
p1081
aVhis
p1082
aVcinder-cake
p1083
ag60
aVit
p1084
ag53
ag54
aVfine
p1085
aVsweet
p1086
aVcake
p1087
ag60
aVand
p1088
aVthe
p1089
aVsour
p1090
aVbeer
p1091
ag57
aVbecome
p1092
aVgood
p1093
aVwine
p1094
ag76
asg77
(lp1095
g79
ag79
ag79
ag79
ag79
ag79
ag79
aVPERSON
p1096
ag79
ag79
ag79
ag79
ag79
ag79
ag79
ag79
ag79
ag79
ag79
ag79
ag79
ag79
ag79
ag79
ag79
ag79
ag79
ag79
ag79
asg80
(lp1097
g91
ag188
ag294
ag370
ag89
ag94
ag293
ag93
ag83
ag91
ag191
ag192
ag89
ag188
ag83
ag84
ag85
ag85
ag85
ag89
ag94
ag84
ag85
ag85
ag83
ag92
ag192
ag85
ag95
asg96
VSo they sat down, and when Dummling pulled out his cinder-cake, it was a fine sweet cake, and the sour beer had become good wine.
p1098
sba(i__main__
Sentence
p1099
(dp1100
g17
I17
sg18
(lp1101
S'So'
p1102
aS'they'
p1103
aS'ate'
p1104
aS'and'
p1105
aS'drank'
p1106
aS','
p1107
aS'and'
p1108
aS'after'
p1109
aS'that'
p1110
aS'the'
p1111
aS'little'
p1112
aS'man'
p1113
aS'said'
p1114
aS','
p1115
aS'since'
p1116
aS'you'
p1117
aS'have'
p1118
aS'a'
p1119
aS'good'
p1120
aS'heart'
p1121
aS','
p1122
aS'and'
p1123
aS'are'
p1124
aS'willing'
p1125
aS'to'
p1126
aS'divide'
p1127
aS'what'
p1128
aS'you'
p1129
aS'have'
p1130
aS','
p1131
aS'I'
p1132
aS'will'
p1133
aS'give'
p1134
aS'you'
p1135
aS'good'
p1136
aS'luck'
p1137
aS'.'
p1138
asg50
(lp1139
VSo
p1140
aVthey
p1141
aVeat
p1142
aVand
p1143
aVdrank
p1144
ag60
aVand
p1145
aVafter
p1146
aVthat
p1147
aVthe
p1148
aVlittle
p1149
aVman
p1150
ag266
ag60
aVsince
p1151
aVyou
p1152
aVhave
p1153
ag54
aVgood
p1154
aVheart
p1155
ag60
aVand
p1156
aVbe
p1157
aVwilling
p1158
aVto
p1159
aVdivide
p1160
aVwhat
p1161
aVyou
p1162
aVhave
p1163
ag60
ag285
aVwill
p1164
aVgive
p1165
aVyou
p1166
aVgood
p1167
aVluck
p1168
ag76
asg77
(lp1169
g79
ag79
ag79
ag79
ag79
ag79
ag79
ag79
ag79
ag79
ag79
ag79
ag79
ag79
ag79
ag79
ag79
ag79
ag79
ag79
ag79
ag79
ag79
ag79
ag79
ag79
ag79
ag79
ag79
ag79
ag79
ag79
ag79
ag79
ag79
ag79
ag79
asg80
(lp1170
g91
ag188
ag294
ag94
ag85
ag89
ag94
ag91
ag84
ag84
ag192
ag85
ag83
ag89
ag91
ag188
ag294
ag84
ag192
ag85
ag89
ag94
ag294
ag192
ag189
ag190
ag86
ag188
ag294
ag89
ag188
ag193
ag190
ag188
ag192
ag85
ag95
asg96
VSo they ate and drank, and after that the little man said, since you have a good heart, and are willing to divide what you have, I will give you good luck.
p1171
sba(i__main__
Sentence
p1172
(dp1173
g17
I18
sg18
(lp1174
S'There'
p1175
aS'stands'
p1176
aS'an'
p1177
aS'old'
p1178
aS'tree'
p1179
aS','
p1180
aS'cut'
p1181
aS'it'
p1182
aS'down'
p1183
aS','
p1184
aS'and'
p1185
aS'you'
p1186
aS'will'
p1187
aS'find'
p1188
aS'something'
p1189
aS'at'
p1190
aS'the'
p1191
aS'roots'
p1192
aS'.'
p1193
asg50
(lp1194
VThere
p1195
aVstand
p1196
aVan
p1197
aVold
p1198
aVtree
p1199
ag60
aVcut
p1200
aVit
p1201
aVdown
p1202
ag60
aVand
p1203
aVyou
p1204
aVwill
p1205
aVfind
p1206
aVsomething
p1207
aVat
p1208
aVthe
p1209
aVroot
p1210
ag76
asg77
(lp1211
g79
ag79
ag79
ag79
ag79
ag79
ag79
ag79
ag79
ag79
ag79
ag79
ag79
ag79
ag79
ag79
ag79
ag79
ag79
asg80
(lp1212
g82
ag1038
ag84
ag192
ag85
ag89
ag83
ag188
ag91
ag89
ag94
ag188
ag193
ag190
ag85
ag91
ag84
ag88
ag95
asg96
VThere stands an old tree, cut it down, and you will find something at the roots.
p1213
sba(i__main__
Sentence
p1214
(dp1215
g17
I19
sg18
(lp1216
S'Then'
p1217
aS'the'
p1218
aS'little'
p1219
aS'man'
p1220
aS'took'
p1221
aS'leave'
p1222
aS'of'
p1223
aS'him'
p1224
aS'.'
p1225
asg50
(lp1226
VThen
p1227
aVthe
p1228
aVlittle
p1229
aVman
p1230
aVtake
p1231
aVleave
p1232
aVof
p1233
aVhim
p1234
ag76
asg77
(lp1235
g79
ag79
ag79
ag79
ag79
ag79
ag79
ag79
ag79
asg80
(lp1236
g194
ag84
ag192
ag85
ag83
ag85
ag91
ag188
ag95
asg96
VThen the little man took leave of him.
p1237
sba(i__main__
Sentence
p1238
(dp1239
g17
I20
sg18
(lp1240
S'Dummling'
p1241
aS'went'
p1242
aS'and'
p1243
aS'cut'
p1244
aS'down'
p1245
aS'the'
p1246
aS'tree'
p1247
aS','
p1248
aS'and'
p1249
aS'when'
p1250
aS'it'
p1251
aS'fell'
p1252
aS'there'
p1253
aS'was'
p1254
aS'a'
p1255
aS'goose'
p1256
aS'sitting'
p1257
aS'in'
p1258
aS'the'
p1259
aS'roots'
p1260
aS'with'
p1261
aS'feathers'
p1262
aS'of'
p1263
aS'pure'
p1264
aS'gold'
p1265
aS'.'
p1266
asg50
(lp1267
VDummling
p1268
ag163
aVand
p1269
aVcut
p1270
aVdown
p1271
aVthe
p1272
aVtree
p1273
ag60
aVand
p1274
aVwhen
p1275
aVit
p1276
aVfell
p1277
aVthere
p1278
ag53
ag54
aVgoose
p1279
aVsit
p1280
aVin
p1281
aVthe
p1282
aVroot
p1283
aVwith
p1284
aVfeather
p1285
aVof
p1286
aVpure
p1287
aVgold
p1288
ag76
asg77
(lp1289
g79
ag79
ag79
ag79
ag79
ag79
ag79
ag79
ag79
ag79
ag79
ag79
ag79
ag79
ag79
ag79
ag79
ag79
ag79
ag79
ag79
ag79
ag79
ag79
ag79
ag79
asg80
(lp1290
g755
ag83
ag94
ag190
ag370
ag84
ag85
ag89
ag94
ag293
ag188
ag83
ag194
ag83
ag84
ag85
ag755
ag91
ag84
ag88
ag91
ag88
ag91
ag85
ag85
ag95
asg96
VDummling went and cut down the tree, and when it fell there was a goose sitting in the roots with feathers of pure gold.
p1291
sba(i__main__
Sentence
p1292
(dp1293
g17
I21
sg18
(lp1294
S'He'
p1295
aS'lifted'
p1296
aS'her'
p1297
aS'up'
p1298
aS','
p1299
aS'and'
p1300
aS'taking'
p1301
aS'her'
p1302
aS'with'
p1303
aS'him'
p1304
aS','
p1305
aS'went'
p1306
aS'to'
p1307
aS'an'
p1308
aS'inn'
p1309
aS'where'
p1310
aS'he'
p1311
aS'thought'
p1312
aS'he'
p1313
aS'would'
p1314
aS'stay'
p1315
aS'the'
p1316
aS'night'
p1317
aS'.'
p1318
asg50
(lp1319
VHe
p1320
aVlift
p1321
aVher
p1322
aVup
p1323
ag60
aVand
p1324
aVtake
p1325
aVher
p1326
aVwith
p1327
aVhim
p1328
ag60
ag163
aVto
p1329
aVan
p1330
aVinn
p1331
aVwhere
p1332
aVhe
p1333
aVthink
p1334
aVhe
p1335
aVwould
p1336
aVstay
p1337
aVthe
p1338
aVnight
p1339
ag76
asg77
(lp1340
g79
ag79
ag79
ag79
ag79
ag79
ag79
ag79
ag79
ag79
ag79
ag79
ag79
ag79
ag79
ag79
ag79
ag79
ag79
ag79
ag79
ag79
ag79
ag79
asg80
(lp1341
g188
ag83
ag188
ag370
ag89
ag94
ag755
ag191
ag91
ag188
ag89
ag83
ag189
ag84
ag85
ag293
ag188
ag83
ag188
ag193
ag190
ag84
ag85
ag95
asg96
VHe lifted her up, and taking her with him, went to an inn where he thought he would stay the night.
p1342
sba(i__main__
Sentence
p1343
(dp1344
g17
I22
sg18
(lp1345
S'Now'
p1346
aS'the'
p1347
aS'host'
p1348
aS'had'
p1349
aS'three'
p1350
aS'daughters'
p1351
aS','
p1352
aS'who'
p1353
aS'saw'
p1354
aS'the'
p1355
aS'goose'
p1356
aS'and'
p1357
aS'were'
p1358
aS'curious'
p1359
aS'to'
p1360
aS'know'
p1361
aS'what'
p1362
aS'such'
p1363
aS'a'
p1364
aS'wonderful'
p1365
aS'bird'
p1366
aS'might'
p1367
aS'be'
p1368
aS','
p1369
aS'and'
p1370
aS'would'
p1371
aS'have'
p1372
aS'liked'
p1373
aS'to'
p1374
aS'have'
p1375
aS'one'
p1376
aS'of'
p1377
aS'its'
p1378
aS'golden'
p1379
aS'feathers'
p1380
aS'.'
p1381
asg50
(lp1382
VNow
p1383
aVthe
p1384
aVhost
p1385
ag57
aVthree
p1386
aVdaughter
p1387
ag60
aVwho
p1388
aVsaw
p1389
aVthe
p1390
aVgoose
p1391
aVand
p1392
aVbe
p1393
aVcurious
p1394
aVto
p1395
aVknow
p1396
aVwhat
p1397
aVsuch
p1398
ag54
aVwonderful
p1399
aVbird
p1400
aVmight
p1401
aVbe
p1402
ag60
aVand
p1403
aVwould
p1404
aVhave
p1405
aVlike
p1406
aVto
p1407
aVhave
p1408
aVone
p1409
aVof
p1410
aVit
p1411
aVgolden
p1412
aVfeather
p1413
ag76
asg77
(lp1414
g79
ag79
ag79
ag79
ag79
ag79
ag79
ag79
ag79
ag79
ag79
ag79
ag79
ag79
ag79
ag79
ag79
ag79
ag79
ag79
ag79
ag79
ag79
ag79
ag79
ag79
ag79
ag79
ag79
ag79
ag79
ag79
ag79
ag79
ag79
ag79
asg80
(lp1415
g194
ag84
ag85
ag83
ag87
ag88
ag89
ag86
ag83
ag84
ag85
ag94
ag83
ag192
ag189
ag190
ag86
ag192
ag84
ag192
ag85
ag193
ag190
ag89
ag94
ag193
ag190
ag92
ag189
ag190
ag87
ag91
ag191
ag192
ag88
ag95
asg96
VNow the host had three daughters, who saw the goose and were curious to know what such a wonderful bird might be, and would have liked to have one of its golden feathers.
p1416
sba(i__main__
Sentence
p1417
(dp1418
g17
I23
sg18
(lp1419
S'The'
p1420
aS'eldest'
p1421
aS'thought'
p1422
aS','
p1423
aS'I'
p1424
aS'shall'
p1425
aS'soon'
p1426
aS'find'
p1427
aS'an'
p1428
aS'opportunity'
p1429
aS'of'
p1430
aS'pulling'
p1431
aS'out'
p1432
aS'a'
p1433
aS'feather'
p1434
aS','
p1435
aS'and'
p1436
aS'as'
p1437
aS'soon'
p1438
aS'as'
p1439
aS'Dummling'
p1440
aS'had'
p1441
aS'gone'
p1442
aS'out'
p1443
aS'she'
p1444
aS'seized'
p1445
aS'the'
p1446
aS'goose'
p1447
aS'by'
p1448
aS'the'
p1449
aS'wing'
p1450
aS','
p1451
aS'but'
p1452
aS'her'
p1453
aS'finger'
p1454
aS'and'
p1455
aS'hand'
p1456
aS'remained'
p1457
aS'sticking'
p1458
aS'fast'
p1459
aS'to'
p1460
aS'it'
p1461
aS'.'
p1462
asg50
(lp1463
VThe
p1464
aVeldest
p1465
aVthought
p1466
ag60
ag285
aVshall
p1467
aVsoon
p1468
aVfind
p1469
aVan
p1470
aVopportunity
p1471
aVof
p1472
aVpull
p1473
aVout
p1474
ag54
aVfeather
p1475
ag60
aVand
p1476
ag54
aVsoon
p1477
ag54
aVDummling
p1478
ag57
aVgo
p1479
aVout
p1480
aVshe
p1481
aVseize
p1482
aVthe
p1483
aVgoose
p1484
aVby
p1485
aVthe
p1486
aVwing
p1487
ag60
aVbut
p1488
aVher
p1489
aVfinger
p1490
aVand
p1491
aVhand
p1492
aVremain
p1493
aVstick
p1494
aVfast
p1495
aVto
p1496
aVit
p1497
ag76
asg77
(lp1498
g79
ag79
ag79
ag79
ag79
ag79
ag79
ag79
ag79
ag79
ag79
ag79
ag79
ag79
ag79
ag79
ag79
ag79
ag79
ag79
aVPERSON
p1499
ag79
ag79
ag79
ag79
ag79
ag79
ag79
ag79
ag79
ag79
ag79
ag79
ag79
ag79
ag79
ag79
ag79
ag79
ag79
ag79
ag79
ag79
asg80
(lp1500
g84
ag90
ag85
ag89
ag188
ag193
ag194
ag190
ag84
ag85
ag91
ag755
ag91
ag84
ag85
ag89
ag94
ag91
ag194
ag91
ag93
ag83
ag92
ag370
ag188
ag83
ag84
ag85
ag91
ag84
ag755
ag89
ag94
ag191
ag85
ag94
ag85
ag83
ag755
ag85
ag189
ag188
ag95
asg96
VThe eldest thought, I shall soon find an opportunity of pulling out a feather, and as soon as Dummling had gone out she seized the goose by the wing, but her finger and hand remained sticking fast to it.
p1501
sba(i__main__
Sentence
p1502
(dp1503
g17
I24
sg18
(lp1504
S'The'
p1505
aS'second'
p1506
aS'came'
p1507
aS'soon'
p1508
aS'afterwards'
p1509
aS','
p1510
aS'thinking'
p1511
aS'only'
p1512
aS'of'
p1513
aS'how'
p1514
aS'she'
p1515
aS'might'
p1516
aS'get'
p1517
aS'a'
p1518
aS'feather'
p1519
aS'for'
p1520
aS'herself'
p1521
aS','
p1522
aS'but'
p1523
aS'she'
p1524
aS'had'
p1525
aS'scarcely'
p1526
aS'touched'
p1527
aS'her'
p1528
aS'sister'
p1529
aS'than'
p1530
aS'she'
p1531
aS'was'
p1532
aS'held'
p1533
aS'fast'
p1534
aS'.'
p1535
asg50
(lp1536
VThe
p1537
aVsecond
p1538
aVcame
p1539
aVsoon
p1540
aVafterwards
p1541
ag60
aVthink
p1542
aVonly
p1543
aVof
p1544
aVhow
p1545
aVshe
p1546
aVmight
p1547
aVget
p1548
ag54
aVfeather
p1549
aVfor
p1550
aVherself
p1551
ag60
aVbut
p1552
aVshe
p1553
ag57
aVscarcely
p1554
aVtouch
p1555
aVher
p1556
aVsister
p1557
aVthan
p1558
aVshe
p1559
ag53
aVhold
p1560
aVfast
p1561
ag76
asg77
(lp1562
g79
ag79
ag79
ag79
ag79
ag79
ag79
ag79
ag79
ag79
ag79
ag79
ag79
ag79
ag79
ag79
ag79
ag79
ag79
ag79
ag79
ag79
ag79
ag79
ag79
ag79
ag79
ag79
ag79
ag79
ag79
asg80
(lp1563
g84
ag192
ag85
ag194
ag1038
ag89
ag755
ag194
ag91
ag293
ag188
ag193
ag190
ag84
ag85
ag91
ag188
ag89
ag94
ag188
ag83
ag194
ag92
ag191
ag85
ag91
ag188
ag83
ag92
ag194
ag95
asg96
VThe second came soon afterwards, thinking only of how she might get a feather for herself, but she had scarcely touched her sister than she was held fast.
p1564
sba(i__main__
Sentence
p1565
(dp1566
g17
I25
sg18
(lp1567
S'At'
p1568
aS'last'
p1569
aS'the'
p1570
aS'third'
p1571
aS'also'
p1572
aS'came'
p1573
aS'with'
p1574
aS'the'
p1575
aS'like'
p1576
aS'intent'
p1577
aS','
p1578
aS'and'
p1579
aS'the'
p1580
aS'others'
p1581
aS'screamed'
p1582
aS'out'
p1583
aS','
p1584
aS'keep'
p1585
aS'away'
p1586
aS','
p1587
aS'for'
p1588
aS'goodness'
p1589
aS','
p1590
aS'sake'
p1591
aS'keep'
p1592
aS'away'
p1593
aS'.'
p1594
asg50
(lp1595
VAt
p1596
aVlast
p1597
aVthe
p1598
aVthird
p1599
aValso
p1600
ag956
aVwith
p1601
aVthe
p1602
aVlike
p1603
aVintent
p1604
ag60
aVand
p1605
aVthe
p1606
aVothers
p1607
aVscream
p1608
aVout
p1609
ag60
aVkeep
p1610
aVaway
p1611
ag60
aVfor
p1612
aVgoodness
p1613
ag60
aVsake
p1614
aVkeep
p1615
aVaway
p1616
ag76
asg77
(lp1617
g79
ag79
ag79
ag79
ag79
ag79
ag79
ag79
ag79
ag79
ag79
ag79
ag79
ag79
ag79
ag79
ag79
ag79
ag79
ag79
ag79
ag79
ag79
ag79
ag79
ag79
ag79
asg80
(lp1618
g91
ag192
ag84
ag192
ag194
ag83
ag91
ag84
ag85
ag85
ag89
ag94
ag84
ag88
ag83
ag91
ag89
ag190
ag194
ag89
ag91
ag85
ag89
ag85
ag190
ag194
ag95
asg96
VAt last the third also came with the like intent, and the others screamed out, keep away, for goodness, sake keep away.
p1619
sba(i__main__
Sentence
p1620
(dp1621
g17
I26
sg18
(lp1622
S'But'
p1623
aS'she'
p1624
aS'did'
p1625
aS'not'
p1626
aS'understand'
p1627
aS'why'
p1628
aS'she'
p1629
aS'was'
p1630
aS'to'
p1631
aS'keep'
p1632
aS'away'
p1633
aS'.'
p1634
asg50
(lp1635
VBut
p1636
aVshe
p1637
aVdo
p1638
aVnot
p1639
aVunderstand
p1640
aVwhy
p1641
aVshe
p1642
ag53
aVto
p1643
aVkeep
p1644
aVaway
p1645
ag76
asg77
(lp1646
g79
ag79
ag79
ag79
ag79
ag79
ag79
ag79
ag79
ag79
ag79
ag79
asg80
(lp1647
g94
ag188
ag83
ag194
ag190
ag293
ag188
ag83
ag189
ag190
ag370
ag95
asg96
VBut she did not understand why she was to keep away.
p1648
sba(i__main__
Sentence
p1649
(dp1650
g17
I27
sg18
(lp1651
S'The'
p1652
aS'others'
p1653
aS'are'
p1654
aS'there'
p1655
aS','
p1656
aS'she'
p1657
aS'thought'
p1658
aS','
p1659
aS'I'
p1660
aS'may'
p1661
aS'as'
p1662
aS'well'
p1663
aS'be'
p1664
aS'there'
p1665
aS'too'
p1666
aS','
p1667
aS'and'
p1668
aS'ran'
p1669
aS'to'
p1670
aS'them'
p1671
aS','
p1672
aS'but'
p1673
aS'as'
p1674
aS'soon'
p1675
aS'as'
p1676
aS'she'
p1677
aS'had'
p1678
aS'touched'
p1679
aS'her'
p1680
aS'sister'
p1681
aS','
p1682
aS'she'
p1683
aS'remained'
p1684
aS'sticking'
p1685
aS'fast'
p1686
aS'to'
p1687
aS'her'
p1688
aS'.'
p1689
asg50
(lp1690
VThe
p1691
aVothers
p1692
ag1157
aVthere
p1693
ag60
aVshe
p1694
ag1334
ag60
ag285
aVmay
p1695
aVas
p1696
aVwell
p1697
aVbe
p1698
aVthere
p1699
aVtoo
p1700
ag60
aVand
p1701
aVrun
p1702
aVto
p1703
aVthem
p1704
ag60
aVbut
p1705
ag54
aVsoon
p1706
ag54
aVshe
p1707
ag57
aVtouch
p1708
aVher
p1709
aVsister
p1710
ag60
aVshe
p1711
aVremain
p1712
aVstick
p1713
aVfast
p1714
aVto
p1715
aVher
p1716
ag76
asg77
(lp1717
g79
ag79
ag79
ag79
ag79
ag79
ag79
ag79
ag79
ag79
ag79
ag79
ag79
ag79
ag79
ag79
ag79
ag79
ag79
ag79
ag79
ag79
ag79
ag79
ag79
ag79
ag79
ag79
ag79
ag79
ag79
ag79
ag79
ag79
ag79
ag79
ag79
ag79
asg80
(lp1718
g84
ag88
ag294
ag194
ag89
ag188
ag83
ag89
ag188
ag193
ag194
ag194
ag190
ag82
ag194
ag89
ag94
ag83
ag189
ag188
ag89
ag94
ag91
ag194
ag91
ag188
ag83
ag92
ag191
ag85
ag89
ag188
ag83
ag755
ag85
ag189
ag191
ag95
asg96
VThe others are there, she thought, I may as well be there too, and ran to them, but as soon as she had touched her sister, she remained sticking fast to her.
p1719
sba(i__main__
Sentence
p1720
(dp1721
g17
I28
sg18
(lp1722
S'So'
p1723
aS'they'
p1724
aS'had'
p1725
aS'to'
p1726
aS'spend'
p1727
aS'the'
p1728
aS'night'
p1729
aS'with'
p1730
aS'the'
p1731
aS'goose'
p1732
aS'.'
p1733
asg50
(lp1734
VSo
p1735
aVthey
p1736
ag57
aVto
p1737
aVspend
p1738
aVthe
p1739
aVnight
p1740
aVwith
p1741
aVthe
p1742
aVgoose
p1743
ag76
asg77
(lp1744
g79
ag79
ag79
ag79
ag79
ag79
ag79
ag79
ag79
ag79
ag79
asg80
(lp1745
g91
ag188
ag83
ag189
ag190
ag84
ag85
ag91
ag84
ag85
ag95
asg96
VSo they had to spend the night with the goose.
p1746
sba(i__main__
Sentence
p1747
(dp1748
g17
I29
sg18
(lp1749
S'The'
p1750
aS'next'
p1751
aS'morning'
p1752
aS'Dummling'
p1753
aS'took'
p1754
aS'the'
p1755
aS'goose'
p1756
aS'under'
p1757
aS'his'
p1758
aS'arm'
p1759
aS'and'
p1760
aS'set'
p1761
aS'out'
p1762
aS','
p1763
aS'without'
p1764
aS'troubling'
p1765
aS'himself'
p1766
aS'about'
p1767
aS'the'
p1768
aS'three'
p1769
aS'girls'
p1770
aS'who'
p1771
aS'were'
p1772
aS'hanging'
p1773
aS'on'
p1774
aS'to'
p1775
aS'it'
p1776
aS'.'
p1777
asg50
(lp1778
VThe
p1779
aVnext
p1780
aVmorning
p1781
aVDummling
p1782
ag1231
aVthe
p1783
aVgoose
p1784
aVunder
p1785
aVhis
p1786
aVarm
p1787
aVand
p1788
aVset
p1789
aVout
p1790
ag60
aVwithout
p1791
aVtroubling
p1792
aVhimself
p1793
aVabout
p1794
aVthe
p1795
aVthree
p1796
aVgirl
p1797
aVwho
p1798
ag1393
aVhang
p1799
aVon
p1800
aVto
p1801
aVit
p1802
ag76
asg77
(lp1803
g79
ag79
ag79
ag79
ag79
ag79
ag79
ag79
ag79
ag79
ag79
ag79
ag79
ag79
ag79
ag79
ag79
ag79
ag79
ag79
ag79
ag79
ag79
ag79
ag79
ag79
ag79
ag79
asg80
(lp1804
g84
ag192
ag85
ag93
ag83
ag84
ag85
ag91
ag191
ag85
ag94
ag83
ag370
ag89
ag91
ag85
ag188
ag91
ag84
ag87
ag88
ag86
ag83
ag755
ag91
ag189
ag188
ag95
asg96
VThe next morning Dummling took the goose under his arm and set out, without troubling himself about the three girls who were hanging on to it.
p1805
sba(i__main__
Sentence
p1806
(dp1807
g17
I30
sg18
(lp1808
S'They'
p1809
aS'were'
p1810
aS'obliged'
p1811
aS'to'
p1812
aS'run'
p1813
aS'after'
p1814
aS'him'
p1815
aS'continually'
p1816
aS','
p1817
aS'now'
p1818
aS'left'
p1819
aS','
p1820
aS'now'
p1821
aS'right'
p1822
aS','
p1823
aS'wherever'
p1824
aS'his'
p1825
aS'legs'
p1826
aS'took'
p1827
aS'him'
p1828
aS'.'
p1829
asg50
(lp1830
VThey
p1831
ag1393
aVoblige
p1832
aVto
p1833
aVrun
p1834
aVafter
p1835
aVhim
p1836
aVcontinually
p1837
ag60
aVnow
p1838
ag361
ag60
aVnow
p1839
aVright
p1840
ag60
aVwherever
p1841
aVhis
p1842
aVleg
p1843
ag1231
aVhim
p1844
ag76
asg77
(lp1845
g79
ag79
ag79
ag79
ag79
ag79
ag79
ag79
ag79
ag79
ag79
ag79
ag79
ag79
ag79
ag79
ag79
ag79
ag79
ag79
ag79
asg80
(lp1846
g188
ag83
ag92
ag189
ag190
ag91
ag188
ag194
ag89
ag194
ag92
ag89
ag194
ag194
ag89
ag194
ag191
ag88
ag83
ag188
ag95
asg96
VThey were obliged to run after him continually, now left, now right, wherever his legs took him.
p1847
sba(i__main__
Sentence
p1848
(dp1849
g17
I31
sg18
(lp1850
S'In'
p1851
aS'the'
p1852
aS'middle'
p1853
aS'of'
p1854
aS'the'
p1855
aS'fields'
p1856
aS'the'
p1857
aS'parson'
p1858
aS'met'
p1859
aS'them'
p1860
aS','
p1861
aS'and'
p1862
aS'when'
p1863
aS'he'
p1864
aS'saw'
p1865
aS'the'
p1866
aS'procession'
p1867
aS'he'
p1868
aS'said'
p1869
aS','
p1870
aS'for'
p1871
aS'shame'
p1872
aS','
p1873
aS'you'
p1874
aS'good-for-nothing'
p1875
aS'girls'
p1876
aS','
p1877
aS'why'
p1878
aS'are'
p1879
aS'you'
p1880
aS'running'
p1881
aS'across'
p1882
aS'the'
p1883
aS'fields'
p1884
aS'after'
p1885
aS'this'
p1886
aS'young'
p1887
aS'man'
p1888
aS'.'
p1889
asg50
(lp1890
VIn
p1891
aVthe
p1892
aVmiddle
p1893
aVof
p1894
aVthe
p1895
aVfield
p1896
aVthe
p1897
aVparson
p1898
aVmet
p1899
aVthem
p1900
ag60
aVand
p1901
aVwhen
p1902
aVhe
p1903
aVsaw
p1904
aVthe
p1905
aVprocession
p1906
aVhe
p1907
ag266
ag60
aVfor
p1908
aVshame
p1909
ag60
aVyou
p1910
aVgood-for-nothing
p1911
aVgirl
p1912
ag60
aVwhy
p1913
ag1157
aVyou
p1914
aVrun
p1915
aVacross
p1916
aVthe
p1917
aVfield
p1918
aVafter
p1919
aVthis
p1920
aVyoung
p1921
aVman
p1922
ag76
asg77
(lp1923
g79
ag79
ag79
ag79
ag79
ag79
ag79
ag79
ag79
ag79
ag79
ag79
ag79
ag79
ag79
ag79
ag79
ag79
ag79
ag79
ag79
ag79
ag79
ag79
ag79
ag79
ag79
ag79
ag79
ag79
ag79
ag79
ag79
ag79
ag79
ag79
ag79
ag79
ag79
asg80
(lp1924
g91
ag84
ag85
ag91
ag84
ag88
ag84
ag85
ag85
ag188
ag89
ag94
ag293
ag188
ag83
ag84
ag85
ag188
ag83
ag89
ag91
ag85
ag89
ag188
ag192
ag88
ag89
ag293
ag294
ag188
ag755
ag91
ag84
ag88
ag91
ag84
ag192
ag85
ag95
asg96
VIn the middle of the fields the parson met them, and when he saw the procession he said, for shame, you good-for-nothing girls, why are you running across the fields after this young man.
p1925
sba(i__main__
Sentence
p1926
(dp1927
g17
I32
sg18
(lp1928
S'Is'
p1929
aS'that'
p1930
aS'seemly'
p1931
aS'?'
p1932
asg50
(lp1933
VIs
p1934
aVthat
p1935
aVseemly
p1936
aV?
p1937
asg77
(lp1938
g79
ag79
ag79
ag79
asg80
(lp1939
g1038
ag91
ag194
ag95
asg96
VIs that seemly?
p1940
sba(i__main__
Sentence
p1941
(dp1942
g17
I33
sg18
(lp1943
S'At'
p1944
aS'the'
p1945
aS'same'
p1946
aS'time'
p1947
aS'he'
p1948
aS'seized'
p1949
aS'the'
p1950
aS'youngest'
p1951
aS'by'
p1952
aS'the'
p1953
aS'hand'
p1954
aS'in'
p1955
aS'order'
p1956
aS'to'
p1957
aS'pull'
p1958
aS'her'
p1959
aS'away'
p1960
aS','
p1961
aS'but'
p1962
aS'as'
p1963
aS'soon'
p1964
aS'as'
p1965
aS'he'
p1966
aS'touched'
p1967
aS'her'
p1968
aS'he'
p1969
aS'likewise'
p1970
aS'stuck'
p1971
aS'fast'
p1972
aS','
p1973
aS'and'
p1974
aS'was'
p1975
aS'himself'
p1976
aS'obliged'
p1977
aS'to'
p1978
aS'run'
p1979
aS'behind'
p1980
aS'.'
p1981
asg50
(lp1982
VAt
p1983
aVthe
p1984
aVsame
p1985
aVtime
p1986
aVhe
p1987
aVseize
p1988
aVthe
p1989
ag62
aVby
p1990
aVthe
p1991
aVhand
p1992
aVin
p1993
aVorder
p1994
aVto
p1995
aVpull
p1996
aVher
p1997
aVaway
p1998
ag60
aVbut
p1999
ag54
aVsoon
p2000
ag54
aVhe
p2001
aVtouch
p2002
aVher
p2003
aVhe
p2004
aVlikewise
p2005
aVstuck
p2006
aVfast
p2007
ag60
aVand
p2008
ag53
aVhimself
p2009
aVoblige
p2010
aVto
p2011
aVrun
p2012
aVbehind
p2013
ag76
asg77
(lp2014
g79
ag79
ag79
ag79
ag79
ag79
ag79
ag79
ag79
ag79
ag79
ag79
ag79
ag79
ag79
ag79
ag79
ag79
ag79
ag79
ag79
ag79
ag79
ag79
ag79
ag79
ag79
ag79
ag79
ag79
ag79
ag79
ag79
ag79
ag79
ag79
ag79
ag79
asg80
(lp2015
g91
ag84
ag192
ag85
ag188
ag83
ag84
ag90
ag91
ag84
ag85
ag91
ag85
ag189
ag190
ag191
ag85
ag89
ag94
ag91
ag194
ag91
ag188
ag83
ag188
ag188
ag294
ag85
ag194
ag89
ag94
ag83
ag188
ag83
ag189
ag190
ag91
ag95
asg96
VAt the same time he seized the youngest by the hand in order to pull her away, but as soon as he touched her he likewise stuck fast, and was himself obliged to run behind.
p2016
sba(i__main__
Sentence
p2017
(dp2018
g17
I34
sg18
(lp2019
S'Before'
p2020
aS'long'
p2021
aS'the'
p2022
aS'sexton'
p2023
aS'came'
p2024
aS'by'
p2025
aS'and'
p2026
aS'saw'
p2027
aS'his'
p2028
aS'master'
p2029
aS','
p2030
aS'the'
p2031
aS'parson'
p2032
aS','
p2033
aS'running'
p2034
aS'behind'
p2035
aS'three'
p2036
aS'girls'
p2037
aS'.'
p2038
asg50
(lp2039
VBefore
p2040
aVlong
p2041
aVthe
p2042
aVsexton
p2043
ag956
aVby
p2044
aVand
p2045
aVsaw
p2046
aVhis
p2047
aVmaster
p2048
ag60
aVthe
p2049
aVparson
p2050
ag60
ag1915
aVbehind
p2051
aVthree
p2052
aVgirl
p2053
ag76
asg77
(lp2054
g79
ag79
ag79
ag79
ag79
ag79
ag79
ag79
ag79
ag79
ag79
ag79
ag79
ag79
ag79
ag79
ag79
ag79
ag79
asg80
(lp2055
g91
ag194
ag84
ag85
ag83
ag91
ag94
ag83
ag191
ag85
ag89
ag84
ag85
ag89
ag755
ag91
ag87
ag88
ag95
asg96
VBefore long the sexton came by and saw his master, the parson, running behind three girls.
p2056
sba(i__main__
Sentence
p2057
(dp2058
g17
I35
sg18
(lp2059
S'He'
p2060
aS'was'
p2061
aS'astonished'
p2062
aS'at'
p2063
aS'this'
p2064
aS'and'
p2065
aS'called'
p2066
aS'out'
p2067
aS','
p2068
aS'hi'
p2069
aS','
p2070
aS'your'
p2071
aS'reverence'
p2072
aS','
p2073
aS'whither'
p2074
aS'away'
p2075
aS'so'
p2076
aS'quickly'
p2077
aS'.'
p2078
asg50
(lp2079
VHe
p2080
ag53
aVastonish
p2081
aVat
p2082
aVthis
p2083
aVand
p2084
aVcall
p2085
aVout
p2086
ag60
aVhi
p2087
ag60
aVyour
p2088
aVreverence
p2089
ag60
aVwhither
p2090
aVaway
p2091
aVso
p2092
aVquickly
p2093
ag76
asg77
(lp2094
g79
ag79
ag79
ag79
ag79
ag79
ag79
ag79
ag79
ag79
ag79
ag79
ag79
ag79
ag79
ag79
ag79
ag79
ag79
asg80
(lp2095
g188
ag83
ag92
ag91
ag84
ag94
ag83
ag370
ag89
ag85
ag89
ag191
ag85
ag89
ag194
ag194
ag194
ag194
ag95
asg96
VHe was astonished at this and called out, hi, your reverence, whither away so quickly.
p2096
sba(i__main__
Sentence
p2097
(dp2098
g17
I36
sg18
(lp2099
S'Do'
p2100
aS'not'
p2101
aS'forget'
p2102
aS'that'
p2103
aS'we'
p2104
aS'have'
p2105
aS'a'
p2106
aS'christening'
p2107
aS'to-day'
p2108
aS','
p2109
aS'and'
p2110
aS'running'
p2111
aS'after'
p2112
aS'him'
p2113
aS'he'
p2114
aS'took'
p2115
aS'him'
p2116
aS'by'
p2117
aS'the'
p2118
aS'sleeve'
p2119
aS','
p2120
aS'but'
p2121
aS'was'
p2122
aS'also'
p2123
aS'held'
p2124
aS'fast'
p2125
aS'to'
p2126
aS'it'
p2127
aS'.'
p2128
asg50
(lp2129
VDo
p2130
aVnot
p2131
aVforget
p2132
aVthat
p2133
aVwe
p2134
aVhave
p2135
ag54
aVchristen
p2136
aVto-day
p2137
ag60
aVand
p2138
ag1915
aVafter
p2139
aVhim
p2140
aVhe
p2141
ag1231
aVhim
p2142
aVby
p2143
aVthe
p2144
aVsleeve
p2145
ag60
aVbut
p2146
ag53
aValso
p2147
ag1560
aVfast
p2148
aVto
p2149
aVit
p2150
ag76
asg77
(lp2151
g79
ag79
ag79
ag79
ag79
ag79
ag79
ag79
ag79
ag79
ag79
ag79
ag79
ag79
ag79
ag79
ag79
ag79
ag79
ag79
ag79
ag79
ag79
ag79
ag79
ag79
ag79
ag79
ag79
asg80
(lp2152
g93
ag194
ag190
ag91
ag188
ag294
ag84
ag755
ag192
ag89
ag94
ag755
ag91
ag188
ag188
ag83
ag188
ag91
ag84
ag85
ag89
ag94
ag83
ag194
ag92
ag194
ag189
ag188
ag95
asg96
VDo not forget that we have a christening to-day, and running after him he took him by the sleeve, but was also held fast to it.
p2153
sba(i__main__
Sentence
p2154
(dp2155
g17
I37
sg18
(lp2156
S'Whilst'
p2157
aS'the'
p2158
aS'five'
p2159
aS'were'
p2160
aS'trotting'
p2161
aS'thus'
p2162
aS'one'
p2163
aS'behind'
p2164
aS'the'
p2165
aS'other'
p2166
aS','
p2167
aS'two'
p2168
aS'laborers'
p2169
aS'came'
p2170
aS'with'
p2171
aS'their'
p2172
aS'hoes'
p2173
aS'from'
p2174
aS'the'
p2175
aS'fields'
p2176
aS','
p2177
aS'the'
p2178
aS'parson'
p2179
aS'called'
p2180
aS'out'
p2181
aS'to'
p2182
aS'them'
p2183
aS'and'
p2184
aS'begged'
p2185
aS'that'
p2186
aS'they'
p2187
aS'would'
p2188
aS'set'
p2189
aS'him'
p2190
aS'and'
p2191
aS'the'
p2192
aS'sexton'
p2193
aS'free'
p2194
aS'.'
p2195
asg50
(lp2196
VWhilst
p2197
aVthe
p2198
aVfive
p2199
ag1393
aVtrot
p2200
aVthus
p2201
aVone
p2202
aVbehind
p2203
aVthe
p2204
aVother
p2205
ag60
aVtwo
p2206
aVlaborer
p2207
ag956
aVwith
p2208
aVtheir
p2209
aVhoe
p2210
aVfrom
p2211
aVthe
p2212
aVfield
p2213
ag60
aVthe
p2214
aVparson
p2215
aVcall
p2216
aVout
p2217
aVto
p2218
aVthem
p2219
aVand
p2220
ag837
aVthat
p2221
aVthey
p2222
aVwould
p2223
aVset
p2224
aVhim
p2225
aVand
p2226
aVthe
p2227
aVsexton
p2228
aVfree
p2229
ag76
asg77
(lp2230
g79
ag79
ag79
ag79
ag79
ag79
ag79
ag79
ag79
ag79
ag79
ag79
ag79
ag79
ag79
ag79
ag79
ag79
ag79
ag79
ag79
ag79
ag79
ag79
ag79
ag79
ag79
ag79
ag79
ag79
ag79
ag79
ag79
ag79
ag79
ag79
ag79
ag79
ag79
asg80
(lp2231
g93
ag84
ag87
ag83
ag755
ag194
ag87
ag91
ag84
ag192
ag89
ag87
ag88
ag83
ag91
ag191
ag88
ag91
ag84
ag88
ag89
ag84
ag85
ag83
ag370
ag189
ag188
ag94
ag83
ag91
ag188
ag193
ag190
ag188
ag94
ag84
ag85
ag192
ag95
asg96
VWhilst the five were trotting thus one behind the other, two laborers came with their hoes from the fields, the parson called out to them and begged that they would set him and the sexton free.
p2232
sba(i__main__
Sentence
p2233
(dp2234
g17
I38
sg18
(lp2235
S'But'
p2236
aS'they'
p2237
aS'had'
p2238
aS'scarcely'
p2239
aS'touched'
p2240
aS'the'
p2241
aS'sexton'
p2242
aS'when'
p2243
aS'they'
p2244
aS'were'
p2245
aS'held'
p2246
aS'fast'
p2247
aS','
p2248
aS'and'
p2249
aS'now'
p2250
aS'there'
p2251
aS'were'
p2252
aS'seven'
p2253
aS'of'
p2254
aS'them'
p2255
aS'running'
p2256
aS'behind'
p2257
aS'Dummling'
p2258
aS'and'
p2259
aS'the'
p2260
aS'goose'
p2261
aS'.'
p2262
asg50
(lp2263
VBut
p2264
aVthey
p2265
ag57
aVscarcely
p2266
aVtouch
p2267
aVthe
p2268
aVsexton
p2269
aVwhen
p2270
aVthey
p2271
ag1393
ag1560
aVfast
p2272
ag60
aVand
p2273
aVnow
p2274
aVthere
p2275
ag1393
aVseven
p2276
aVof
p2277
aVthem
p2278
ag1915
aVbehind
p2279
aVDummling
p2280
aVand
p2281
aVthe
p2282
aVgoose
p2283
ag76
asg77
(lp2284
g79
ag79
ag79
ag79
ag79
ag79
ag79
ag79
ag79
ag79
ag79
ag79
ag79
ag79
ag79
ag79
ag79
ag79
ag79
ag79
ag79
ag79
ag79
ag79
ag79
ag79
ag79
asg80
(lp2285
g94
ag188
ag83
ag194
ag92
ag84
ag85
ag293
ag188
ag83
ag92
ag192
ag89
ag94
ag194
ag82
ag83
ag87
ag91
ag188
ag755
ag91
ag93
ag94
ag84
ag85
ag95
asg96
VBut they had scarcely touched the sexton when they were held fast, and now there were seven of them running behind Dummling and the goose.
p2286
sba(i__main__
Sentence
p2287
(dp2288
g17
I39
sg18
(lp2289
S'Soon'
p2290
aS'afterwards'
p2291
aS'he'
p2292
aS'came'
p2293
aS'to'
p2294
aS'a'
p2295
aS'city'
p2296
aS','
p2297
aS'where'
p2298
aS'a'
p2299
aS'king'
p2300
aS'ruled'
p2301
aS'who'
p2302
aS'had'
p2303
aS'a'
p2304
aS'daughter'
p2305
aS'who'
p2306
aS'was'
p2307
aS'so'
p2308
aS'serious'
p2309
aS'that'
p2310
aS'no'
p2311
aS'one'
p2312
aS'could'
p2313
aS'make'
p2314
aS'her'
p2315
aS'laugh'
p2316
aS'.'
p2317
asg50
(lp2318
VSoon
p2319
aVafterwards
p2320
aVhe
p2321
ag956
aVto
p2322
ag54
aVcity
p2323
ag60
aVwhere
p2324
ag54
aVking
p2325
aVrule
p2326
aVwho
p2327
ag57
ag54
aVdaughter
p2328
aVwho
p2329
ag53
aVso
p2330
aVserious
p2331
aVthat
p2332
aVno
p2333
aVone
p2334
aVcould
p2335
aVmake
p2336
aVher
p2337
aVlaugh
p2338
ag76
asg77
(lp2339
g79
ag79
ag79
ag79
ag79
ag79
ag79
ag79
ag79
ag79
ag79
ag79
ag79
ag79
ag79
ag79
ag79
ag79
ag79
ag79
ag79
ag79
ag79
ag79
ag79
ag79
ag79
ag79
asg80
(lp2340
g194
ag194
ag188
ag83
ag189
ag84
ag85
ag89
ag293
ag84
ag85
ag92
ag86
ag83
ag84
ag85
ag86
ag83
ag194
ag192
ag91
ag84
ag85
ag193
ag190
ag188
ag91
ag95
asg96
VSoon afterwards he came to a city, where a king ruled who had a daughter who was so serious that no one could make her laugh.
p2341
sba(i__main__
Sentence
p2342
(dp2343
g17
I40
sg18
(lp2344
S'So'
p2345
aS'he'
p2346
aS'had'
p2347
aS'put'
p2348
aS'forth'
p2349
aS'a'
p2350
aS'decree'
p2351
aS'that'
p2352
aS'whosoever'
p2353
aS'should'
p2354
aS'be'
p2355
aS'able'
p2356
aS'to'
p2357
aS'make'
p2358
aS'her'
p2359
aS'laugh'
p2360
aS'should'
p2361
aS'marry'
p2362
aS'her'
p2363
aS'.'
p2364
asg50
(lp2365
VSo
p2366
aVhe
p2367
ag57
aVput
p2368
aVforth
p2369
ag54
aVdecree
p2370
aVthat
p2371
aVwhosoever
p2372
aVshould
p2373
aVbe
p2374
aVable
p2375
aVto
p2376
aVmake
p2377
aVher
p2378
aVlaugh
p2379
aVshould
p2380
aVmarry
p2381
aVher
p2382
ag76
asg77
(lp2383
g79
ag79
ag79
ag79
ag79
ag79
ag79
ag79
ag79
ag79
ag79
ag79
ag79
ag79
ag79
ag79
ag79
ag79
ag79
ag79
asg80
(lp2384
g91
ag188
ag83
ag92
ag192
ag84
ag192
ag91
ag85
ag193
ag190
ag192
ag189
ag190
ag191
ag192
ag193
ag190
ag188
ag95
asg96
VSo he had put forth a decree that whosoever should be able to make her laugh should marry her.
p2385
sba(i__main__
Sentence
p2386
(dp2387
g17
I41
sg18
(lp2388
S'When'
p2389
aS'Dummling'
p2390
aS'heard'
p2391
aS'this'
p2392
aS','
p2393
aS'he'
p2394
aS'went'
p2395
aS'with'
p2396
aS'his'
p2397
aS'goose'
p2398
aS'and'
p2399
aS'all'
p2400
aS'her'
p2401
aS'train'
p2402
aS'before'
p2403
aS'the'
p2404
aS'king'
p2405
aS"'s"
p2406
aS'daughter'
p2407
aS','
p2408
aS'and'
p2409
aS'as'
p2410
aS'soon'
p2411
aS'as'
p2412
aS'she'
p2413
aS'saw'
p2414
aS'the'
p2415
aS'seven'
p2416
aS'people'
p2417
aS'running'
p2418
aS'on'
p2419
aS'and'
p2420
aS'on'
p2421
aS','
p2422
aS'one'
p2423
aS'behind'
p2424
aS'the'
p2425
aS'other'
p2426
aS','
p2427
aS'she'
p2428
aS'began'
p2429
aS'to'
p2430
aS'laugh'
p2431
aS'quite'
p2432
aS'loudly'
p2433
aS','
p2434
aS'and'
p2435
aS'as'
p2436
aS'if'
p2437
aS'she'
p2438
aS'would'
p2439
aS'never'
p2440
aS'stop'
p2441
aS'.'
p2442
asg50
(lp2443
VWhen
p2444
aVDummling
p2445
aVheard
p2446
aVthis
p2447
ag60
aVhe
p2448
ag163
aVwith
p2449
aVhis
p2450
aVgoose
p2451
aVand
p2452
aVall
p2453
aVher
p2454
aVtrain
p2455
aVbefore
p2456
aVthe
p2457
aVking
p2458
aV's
p2459
aVdaughter
p2460
ag60
aVand
p2461
ag54
aVsoon
p2462
ag54
aVshe
p2463
aVsaw
p2464
aVthe
p2465
aVseven
p2466
aVpeople
p2467
ag1915
aVon
p2468
aVand
p2469
aVon
p2470
ag60
aVone
p2471
aVbehind
p2472
aVthe
p2473
aVother
p2474
ag60
aVshe
p2475
ag422
aVto
p2476
aVlaugh
p2477
aVquite
p2478
aVloudly
p2479
ag60
aVand
p2480
ag54
aVif
p2481
aVshe
p2482
aVwould
p2483
aVnever
p2484
aVstop
p2485
ag76
asg77
(lp2486
g79
aVPERSON
p2487
ag79
ag79
ag79
ag79
ag79
ag79
ag79
ag79
ag79
ag79
ag79
ag79
ag79
ag79
ag79
ag79
ag79
ag79
ag79
ag79
ag79
ag79
ag79
ag79
ag79
ag79
ag79
ag79
ag79
ag79
ag79
ag79
ag79
ag79
ag79
ag79
ag79
ag79
ag79
ag79
ag79
ag79
ag79
ag79
ag79
ag79
ag79
ag79
ag79
ag79
ag79
ag79
asg80
(lp2488
g293
ag93
ag85
ag84
ag89
ag188
ag83
ag91
ag191
ag85
ag94
ag84
ag191
ag85
ag91
ag84
ag85
ag481
ag85
ag89
ag94
ag91
ag194
ag91
ag188
ag83
ag84
ag87
ag88
ag755
ag91
ag94
ag91
ag89
ag87
ag85
ag84
ag192
ag89
ag188
ag83
ag189
ag190
ag194
ag194
ag89
ag94
ag91
ag91
ag188
ag193
ag194
ag190
ag95
asg96
VWhen Dummling heard this, he went with his goose and all her train before the king's daughter, and as soon as she saw the seven people running on and on, one behind the other, she began to laugh quite loudly, and as if she would never stop.
p2489
sba(i__main__
Sentence
p2490
(dp2491
g17
I42
sg18
(lp2492
S'Thereupon'
p2493
aS'Dummling'
p2494
aS'asked'
p2495
aS'to'
p2496
aS'have'
p2497
aS'her'
p2498
aS'for'
p2499
aS'his'
p2500
aS'wife'
p2501
aS','
p2502
aS'but'
p2503
aS'the'
p2504
aS'king'
p2505
aS'did'
p2506
aS'not'
p2507
aS'like'
p2508
aS'the'
p2509
aS'son-in-law'
p2510
aS','
p2511
aS'and'
p2512
aS'made'
p2513
aS'all'
p2514
aS'manner'
p2515
aS'of'
p2516
aS'excuses'
p2517
aS'and'
p2518
aS'said'
p2519
aS'he'
p2520
aS'must'
p2521
aS'first'
p2522
aS'produce'
p2523
aS'a'
p2524
aS'man'
p2525
aS'who'
p2526
aS'could'
p2527
aS'drink'
p2528
aS'a'
p2529
aS'cellarful'
p2530
aS'of'
p2531
aS'wine'
p2532
aS'.'
p2533
asg50
(lp2534
VThereupon
p2535
aVDummling
p2536
aVask
p2537
aVto
p2538
aVhave
p2539
aVher
p2540
aVfor
p2541
aVhis
p2542
aVwife
p2543
ag60
aVbut
p2544
aVthe
p2545
aVking
p2546
ag1638
aVnot
p2547
aVlike
p2548
aVthe
p2549
aVson-in-law
p2550
ag60
aVand
p2551
ag432
aVall
p2552
aVmanner
p2553
aVof
p2554
aVexcuse
p2555
aVand
p2556
ag266
aVhe
p2557
aVmust
p2558
aVfirst
p2559
aVproduce
p2560
ag54
aVman
p2561
aVwho
p2562
aVcould
p2563
aVdrink
p2564
ag54
aVcellarful
p2565
aVof
p2566
aVwine
p2567
ag76
asg77
(lp2568
g79
ag79
ag79
ag79
ag79
ag79
ag79
ag79
ag79
ag79
ag79
ag79
ag79
ag79
ag79
ag79
ag79
ag79
ag79
ag79
ag79
ag79
ag79
ag79
ag79
ag79
ag79
ag79
ag79
ag79
ag79
ag79
ag79
ag79
ag79
ag79
ag79
ag79
ag79
ag79
ag79
asg80
(lp2569
g93
ag93
ag83
ag189
ag190
ag191
ag91
ag191
ag85
ag89
ag94
ag84
ag85
ag83
ag194
ag91
ag84
ag192
ag89
ag94
ag83
ag84
ag85
ag91
ag88
ag94
ag83
ag188
ag193
ag194
ag190
ag84
ag85
ag86
ag193
ag190
ag84
ag192
ag91
ag85
ag95
asg96
VThereupon Dummling asked to have her for his wife, but the king did not like the son-in-law, and made all manner of excuses and said he must first produce a man who could drink a cellarful of wine.
p2570
sba(i__main__
Sentence
p2571
(dp2572
g17
I43
sg18
(lp2573
S'Dummling'
p2574
aS'thought'
p2575
aS'of'
p2576
aS'the'
p2577
aS'little'
p2578
aS'grey'
p2579
aS'man'
p2580
aS','
p2581
aS'who'
p2582
aS'could'
p2583
aS'certainly'
p2584
aS'help'
p2585
aS'him'
p2586
aS','
p2587
aS'so'
p2588
aS'he'
p2589
aS'went'
p2590
aS'into'
p2591
aS'the'
p2592
aS'forest'
p2593
aS','
p2594
aS'and'
p2595
aS'in'
p2596
aS'the'
p2597
aS'same'
p2598
aS'place'
p2599
aS'where'
p2600
aS'he'
p2601
aS'had'
p2602
aS'felled'
p2603
aS'the'
p2604
aS'tree'
p2605
aS','
p2606
aS'he'
p2607
aS'saw'
p2608
aS'a'
p2609
aS'man'
p2610
aS'sitting'
p2611
aS','
p2612
aS'who'
p2613
aS'had'
p2614
aS'a'
p2615
aS'very'
p2616
aS'sorrowful'
p2617
aS'face'
p2618
aS'.'
p2619
asg50
(lp2620
VDummling
p2621
ag1334
aVof
p2622
aVthe
p2623
aVlittle
p2624
aVgrey
p2625
aVman
p2626
ag60
aVwho
p2627
aVcould
p2628
aVcertainly
p2629
aVhelp
p2630
aVhim
p2631
ag60
aVso
p2632
aVhe
p2633
ag163
aVinto
p2634
aVthe
p2635
aVforest
p2636
ag60
aVand
p2637
aVin
p2638
aVthe
p2639
aVsame
p2640
aVplace
p2641
aVwhere
p2642
aVhe
p2643
ag57
aVfell
p2644
aVthe
p2645
aVtree
p2646
ag60
aVhe
p2647
aVsaw
p2648
ag54
aVman
p2649
ag1280
ag60
aVwho
p2650
ag57
ag54
aVvery
p2651
aVsorrowful
p2652
aVface
p2653
ag76
asg77
(lp2654
g79
ag79
ag79
ag79
ag79
ag79
ag79
ag79
ag79
ag79
ag79
ag79
ag79
ag79
ag79
ag79
ag79
ag79
ag79
ag79
ag79
ag79
ag79
ag79
ag79
ag79
ag79
ag79
ag79
ag79
ag79
ag79
ag79
ag79
ag79
ag79
ag79
ag79
ag79
ag79
ag79
ag79
ag79
ag79
ag79
ag79
asg80
(lp2655
g755
ag83
ag91
ag84
ag192
ag85
ag85
ag89
ag86
ag193
ag194
ag190
ag188
ag89
ag194
ag188
ag83
ag91
ag84
ag90
ag89
ag94
ag91
ag84
ag192
ag85
ag293
ag188
ag83
ag92
ag84
ag85
ag89
ag188
ag83
ag84
ag85
ag755
ag89
ag86
ag83
ag84
ag194
ag192
ag85
ag95
asg96
VDummling thought of the little grey man, who could certainly help him, so he went into the forest, and in the same place where he had felled the tree, he saw a man sitting, who had a very sorrowful face.
p2656
sba(i__main__
Sentence
p2657
(dp2658
g17
I44
sg18
(lp2659
S'Dummling'
p2660
aS'asked'
p2661
aS'him'
p2662
aS'what'
p2663
aS'he'
p2664
aS'was'
p2665
aS'taking'
p2666
aS'to'
p2667
aS'heart'
p2668
aS'so'
p2669
aS'sorely'
p2670
aS','
p2671
aS'and'
p2672
aS'he'
p2673
aS'answered'
p2674
aS','
p2675
aS'I'
p2676
aS'have'
p2677
aS'such'
p2678
aS'a'
p2679
aS'great'
p2680
aS'thirst'
p2681
aS'and'
p2682
aS'can'
p2683
aS'not'
p2684
aS'quench'
p2685
aS'it'
p2686
aS','
p2687
aS'cold'
p2688
aS'water'
p2689
aS'I'
p2690
aS'can'
p2691
aS'not'
p2692
aS'stand'
p2693
aS','
p2694
aS'a'
p2695
aS'barrel'
p2696
aS'of'
p2697
aS'wine'
p2698
aS'I'
p2699
aS'have'
p2700
aS'just'
p2701
aS'emptied'
p2702
aS','
p2703
aS'but'
p2704
aS'that'
p2705
aS'to'
p2706
aS'me'
p2707
aS'is'
p2708
aS'like'
p2709
aS'a'
p2710
aS'drop'
p2711
aS'on'
p2712
aS'a'
p2713
aS'hot'
p2714
aS'stone'
p2715
aS'.'
p2716
asg50
(lp2717
VDummling
p2718
aVask
p2719
aVhim
p2720
aVwhat
p2721
aVhe
p2722
ag53
aVtake
p2723
aVto
p2724
aVheart
p2725
aVso
p2726
aVsorely
p2727
ag60
aVand
p2728
aVhe
p2729
aVanswer
p2730
ag60
ag285
aVhave
p2731
aVsuch
p2732
ag54
aVgreat
p2733
aVthirst
p2734
aVand
p2735
aVcan
p2736
aVnot
p2737
aVquench
p2738
aVit
p2739
ag60
aVcold
p2740
aVwater
p2741
ag285
aVcan
p2742
aVnot
p2743
aVstand
p2744
ag60
ag54
aVbarrel
p2745
aVof
p2746
aVwine
p2747
ag285
aVhave
p2748
aVjust
p2749
aVempty
p2750
ag60
aVbut
p2751
aVthat
p2752
aVto
p2753
aVme
p2754
aVbe
p2755
aVlike
p2756
ag54
aVdrop
p2757
aVon
p2758
ag54
aVhot
p2759
aVstone
p2760
ag76
asg77
(lp2761
VPERSON
p2762
ag79
ag79
ag79
ag79
ag79
ag79
ag79
ag79
ag79
ag79
ag79
ag79
ag79
ag79
ag79
ag79
ag79
ag79
ag79
ag79
ag79
ag79
ag79
ag79
ag79
ag79
ag79
ag79
ag79
ag79
ag79
ag79
ag79
ag79
ag79
ag79
ag79
ag79
ag79
ag79
ag79
ag79
ag79
ag79
ag79
ag79
ag79
ag79
ag79
ag79
ag79
ag79
ag79
ag79
ag79
ag79
asg80
(lp2763
g755
ag83
ag188
ag86
ag188
ag83
ag755
ag189
ag190
ag194
ag194
ag89
ag94
ag188
ag83
ag89
ag188
ag294
ag192
ag84
ag192
ag85
ag94
ag193
ag194
ag190
ag188
ag89
ag83
ag85
ag188
ag193
ag194
ag190
ag89
ag84
ag85
ag91
ag85
ag188
ag294
ag194
ag92
ag89
ag94
ag91
ag189
ag188
ag1038
ag91
ag84
ag85
ag91
ag84
ag192
ag85
ag95
asg96
VDummling asked him what he was taking to heart so sorely, and he answered, I have such a great thirst and cannot quench it, cold water I cannot stand, a barrel of wine I have just emptied, but that to me is like a drop on a hot stone.
p2764
sba(i__main__
Sentence
p2765
(dp2766
g17
I45
sg18
(lp2767
S'There'
p2768
aS','
p2769
aS'I'
p2770
aS'can'
p2771
aS'help'
p2772
aS'you'
p2773
aS','
p2774
aS'said'
p2775
aS'Dummling'
p2776
aS','
p2777
aS'just'
p2778
aS'come'
p2779
aS'with'
p2780
aS'me'
p2781
aS'and'
p2782
aS'you'
p2783
aS'shall'
p2784
aS'be'
p2785
aS'satisfied'
p2786
aS'.'
p2787
asg50
(lp2788
VThere
p2789
ag60
ag285
aVcan
p2790
aVhelp
p2791
aVyou
p2792
ag60
ag266
aVDummling
p2793
ag60
aVjust
p2794
aVcome
p2795
aVwith
p2796
aVme
p2797
aVand
p2798
aVyou
p2799
aVshall
p2800
aVbe
p2801
aVsatisfy
p2802
ag76
asg77
(lp2803
g79
ag79
ag79
ag79
ag79
ag79
ag79
ag79
aVPERSON
p2804
ag79
ag79
ag79
ag79
ag79
ag79
ag79
ag79
ag79
ag79
ag79
asg80
(lp2805
g82
ag89
ag188
ag193
ag190
ag188
ag89
ag83
ag93
ag89
ag194
ag92
ag91
ag188
ag94
ag188
ag193
ag190
ag92
ag95
asg96
VThere, I can help you, said Dummling, just come with me and you shall be satisfied.
p2806
sba(i__main__
Sentence
p2807
(dp2808
g17
I46
sg18
(lp2809
S'He'
p2810
aS'led'
p2811
aS'him'
p2812
aS'into'
p2813
aS'the'
p2814
aS'king'
p2815
aS"'s"
p2816
aS'cellar'
p2817
aS','
p2818
aS'and'
p2819
aS'the'
p2820
aS'man'
p2821
aS'bent'
p2822
aS'over'
p2823
aS'the'
p2824
aS'huge'
p2825
aS'barrels'
p2826
aS','
p2827
aS'and'
p2828
aS'drank'
p2829
aS'and'
p2830
aS'drank'
p2831
aS'till'
p2832
aS'his'
p2833
aS'loins'
p2834
aS'hurt'
p2835
aS','
p2836
aS'and'
p2837
aS'before'
p2838
aS'the'
p2839
aS'day'
p2840
aS'was'
p2841
aS'out'
p2842
aS'he'
p2843
aS'had'
p2844
aS'emptied'
p2845
aS'all'
p2846
aS'the'
p2847
aS'barrels'
p2848
aS'.'
p2849
asg50
(lp2850
VHe
p2851
aVlead
p2852
aVhim
p2853
aVinto
p2854
aVthe
p2855
aVking
p2856
aV's
p2857
aVcellar
p2858
ag60
aVand
p2859
aVthe
p2860
aVman
p2861
aVbent
p2862
aVover
p2863
aVthe
p2864
aVhuge
p2865
aVbarrel
p2866
ag60
aVand
p2867
aVdrank
p2868
aVand
p2869
aVdrank
p2870
aVtill
p2871
aVhis
p2872
aVloin
p2873
aVhurt
p2874
ag60
aVand
p2875
aVbefore
p2876
aVthe
p2877
aVday
p2878
ag53
aVout
p2879
aVhe
p2880
ag57
ag2750
aVall
p2881
aVthe
p2882
aVbarrel
p2883
ag76
asg77
(lp2884
g79
ag79
ag79
ag79
ag79
ag79
ag79
ag79
ag79
ag79
ag79
ag79
ag79
ag79
ag79
ag79
ag79
ag79
ag79
ag79
ag79
ag79
ag79
ag79
ag79
ag79
ag79
ag79
ag79
ag79
ag79
ag79
ag79
ag79
ag79
ag79
ag79
ag79
ag79
ag79
asg80
(lp2885
g188
ag83
ag188
ag91
ag84
ag85
ag481
ag192
ag89
ag94
ag84
ag85
ag85
ag91
ag84
ag192
ag88
ag89
ag94
ag85
ag94
ag85
ag91
ag191
ag88
ag92
ag89
ag94
ag91
ag84
ag85
ag83
ag370
ag188
ag83
ag92
ag84
ag84
ag88
ag95
asg96
VHe led him into the king's cellar, and the man bent over the huge barrels, and drank and drank till his loins hurt, and before the day was out he had emptied all the barrels.
p2886
sba(i__main__
Sentence
p2887
(dp2888
g17
I47
sg18
(lp2889
S'Then'
p2890
aS'Dummling'
p2891
aS'asked'
p2892
aS'once'
p2893
aS'more'
p2894
aS'for'
p2895
aS'his'
p2896
aS'bride'
p2897
aS','
p2898
aS'but'
p2899
aS'the'
p2900
aS'king'
p2901
aS'was'
p2902
aS'vexed'
p2903
aS'that'
p2904
aS'such'
p2905
aS'an'
p2906
aS'ugly'
p2907
aS'fellow'
p2908
aS','
p2909
aS'whom'
p2910
aS'everyone'
p2911
aS'called'
p2912
aS'Dummling'
p2913
aS','
p2914
aS'should'
p2915
aS'take'
p2916
aS'away'
p2917
aS'his'
p2918
aS'daughter'
p2919
aS','
p2920
aS'and'
p2921
aS'he'
p2922
aS'made'
p2923
aS'a'
p2924
aS'new'
p2925
aS'condition'
p2926
aS','
p2927
aS'he'
p2928
aS'must'
p2929
aS'first'
p2930
aS'find'
p2931
aS'a'
p2932
aS'man'
p2933
aS'who'
p2934
aS'could'
p2935
aS'eat'
p2936
aS'a'
p2937
aS'whole'
p2938
aS'mountain'
p2939
aS'of'
p2940
aS'bread'
p2941
aS'.'
p2942
asg50
(lp2943
VThen
p2944
aVDummling
p2945
aVask
p2946
aVonce
p2947
aVmore
p2948
aVfor
p2949
aVhis
p2950
aVbride
p2951
ag60
aVbut
p2952
aVthe
p2953
aVking
p2954
ag53
aVvex
p2955
aVthat
p2956
aVsuch
p2957
aVan
p2958
aVugly
p2959
aVfellow
p2960
ag60
aVwhom
p2961
aVeveryone
p2962
aVcall
p2963
aVDummling
p2964
ag60
aVshould
p2965
aVtake
p2966
aVaway
p2967
aVhis
p2968
aVdaughter
p2969
ag60
aVand
p2970
aVhe
p2971
ag432
ag54
aVnew
p2972
aVcondition
p2973
ag60
aVhe
p2974
aVmust
p2975
aVfirst
p2976
aVfind
p2977
ag54
aVman
p2978
aVwho
p2979
aVcould
p2980
aVeat
p2981
ag54
aVwhole
p2982
aVmountain
p2983
aVof
p2984
aVbread
p2985
ag76
asg77
(lp2986
g79
aVPERSON
p2987
ag79
ag79
ag79
ag79
ag79
ag79
ag79
ag79
ag79
ag79
ag79
ag79
ag79
ag79
ag79
ag79
ag79
ag79
ag79
ag79
ag79
aVPERSON
p2988
ag79
ag79
ag79
ag79
ag79
ag79
ag79
ag79
ag79
ag79
ag79
ag79
ag79
ag79
ag79
ag79
ag79
ag79
ag79
ag79
ag79
ag79
ag79
ag79
ag79
ag79
ag79
ag79
ag79
asg80
(lp2989
g194
ag755
ag92
ag194
aS'RBR'
p2990
ag91
ag191
ag85
ag89
ag94
ag84
ag85
ag83
ag92
ag91
ag192
ag84
ag192
ag85
ag89
ag86
ag85
ag83
ag93
ag89
ag193
ag190
ag370
ag191
ag85
ag89
ag94
ag188
ag83
ag84
ag192
ag85
ag89
ag188
ag193
ag194
ag190
ag84
ag85
ag86
ag193
ag190
ag84
ag192
ag85
ag91
ag85
ag95
asg96
VThen Dummling asked once more for his bride, but the king was vexed that such an ugly fellow, whom everyone called Dummling, should take away his daughter, and he made a new condition, he must first find a man who could eat a whole mountain of bread.
p2991
sba(i__main__
Sentence
p2992
(dp2993
g17
I48
sg18
(lp2994
S'Dummling'
p2995
aS'did'
p2996
aS'not'
p2997
aS'think'
p2998
aS'long'
p2999
aS','
p3000
aS'but'
p3001
aS'went'
p3002
aS'straight'
p3003
aS'into'
p3004
aS'the'
p3005
aS'forest'
p3006
aS','
p3007
aS'where'
p3008
aS'in'
p3009
aS'the'
p3010
aS'same'
p3011
aS'place'
p3012
aS'there'
p3013
aS'sat'
p3014
aS'a'
p3015
aS'man'
p3016
aS'who'
p3017
aS'was'
p3018
aS'tying'
p3019
aS'up'
p3020
aS'his'
p3021
aS'body'
p3022
aS'with'
p3023
aS'a'
p3024
aS'strap'
p3025
aS','
p3026
aS'and'
p3027
aS'making'
p3028
aS'an'
p3029
aS'awful'
p3030
aS'face'
p3031
aS','
p3032
aS'and'
p3033
aS'saying'
p3034
aS','
p3035
aS'I'
p3036
aS'have'
p3037
aS'eaten'
p3038
aS'a'
p3039
aS'whole'
p3040
aS'ovenful'
p3041
aS'of'
p3042
aS'rolls'
p3043
aS','
p3044
aS'but'
p3045
aS'what'
p3046
aS'good'
p3047
aS'is'
p3048
aS'that'
p3049
aS'when'
p3050
aS'one'
p3051
aS'has'
p3052
aS'such'
p3053
aS'a'
p3054
aS'hunger'
p3055
aS'as'
p3056
aS'I'
p3057
aS'.'
p3058
asg50
(lp3059
VDummling
p3060
ag1638
aVnot
p3061
aVthink
p3062
aVlong
p3063
ag60
aVbut
p3064
ag163
aVstraight
p3065
aVinto
p3066
aVthe
p3067
aVforest
p3068
ag60
aVwhere
p3069
aVin
p3070
aVthe
p3071
aVsame
p3072
aVplace
p3073
aVthere
p3074
aVsat
p3075
ag54
aVman
p3076
aVwho
p3077
ag53
aVtie
p3078
aVup
p3079
aVhis
p3080
aVbody
p3081
aVwith
p3082
ag54
aVstrap
p3083
ag60
aVand
p3084
aVmake
p3085
aVan
p3086
aVawful
p3087
aVface
p3088
ag60
aVand
p3089
aVsay
p3090
ag60
ag285
aVhave
p3091
aVeat
p3092
ag54
aVwhole
p3093
aVovenful
p3094
aVof
p3095
aVroll
p3096
ag60
aVbut
p3097
aVwhat
p3098
aVgood
p3099
ag2755
aVthat
p3100
aVwhen
p3101
aVone
p3102
aVhave
p3103
aVsuch
p3104
ag54
aVhunger
p3105
ag54
ag285
ag76
asg77
(lp3106
VPERSON
p3107
ag79
ag79
ag79
ag79
ag79
ag79
ag79
ag79
ag79
ag79
ag79
ag79
ag79
ag79
ag79
ag79
ag79
ag79
ag79
ag79
ag79
ag79
ag79
ag79
ag79
ag79
ag79
ag79
ag79
ag79
ag79
ag79
ag79
ag79
ag79
ag79
ag79
ag79
ag79
ag79
ag79
ag79
ag79
ag79
ag79
ag79
ag79
ag79
ag79
ag79
ag79
ag79
ag79
ag79
ag79
ag79
ag79
ag79
ag79
ag79
ag79
ag79
ag79
asg80
(lp3108
g755
ag83
ag194
ag190
ag192
ag89
ag94
ag83
ag194
ag91
ag84
ag90
ag89
ag293
ag91
ag84
ag192
ag85
ag82
ag85
ag84
ag85
ag86
ag83
ag755
ag370
ag191
ag85
ag91
ag84
ag85
ag89
ag94
ag755
ag84
ag192
ag85
ag89
ag94
ag755
ag89
ag188
ag294
ag92
ag84
ag192
ag192
ag91
ag88
ag89
ag94
ag86
ag192
ag1038
ag91
ag293
ag87
ag1038
ag192
ag84
ag85
ag91
ag188
ag95
asg96
VDummling did not think long, but went straight into the forest, where in the same place there sat a man who was tying up his body with a strap, and making an awful face, and saying, I have eaten a whole ovenful of rolls, but what good is that when one has such a hunger as I.
p3109
sba(i__main__
Sentence
p3110
(dp3111
g17
I49
sg18
(lp3112
S'My'
p3113
aS'stomach'
p3114
aS'remains'
p3115
aS'empty'
p3116
aS','
p3117
aS'and'
p3118
aS'I'
p3119
aS'must'
p3120
aS'tie'
p3121
aS'myself'
p3122
aS'up'
p3123
aS'if'
p3124
aS'I'
p3125
aS'am'
p3126
aS'not'
p3127
aS'to'
p3128
aS'die'
p3129
aS'of'
p3130
aS'hunger'
p3131
aS'.'
p3132
asg50
(lp3133
VMy
p3134
aVstomach
p3135
aVremain
p3136
aVempty
p3137
ag60
aVand
p3138
ag285
aVmust
p3139
aVtie
p3140
aVmyself
p3141
aVup
p3142
aVif
p3143
ag285
ag286
aVnot
p3144
aVto
p3145
aVdie
p3146
aVof
p3147
aVhunger
p3148
ag76
asg77
(lp3149
g79
ag79
ag79
ag79
ag79
ag79
ag79
ag79
ag79
ag79
ag79
ag79
ag79
ag79
ag79
ag79
ag79
ag79
ag79
ag79
asg80
(lp3150
g191
ag85
ag1038
ag192
ag89
ag94
ag188
ag193
ag190
ag188
ag370
ag91
ag188
ag294
ag194
ag189
ag190
ag91
ag195
ag95
asg96
VMy stomach remains empty, and I must tie myself up if I am not to die of hunger.
p3151
sba(i__main__
Sentence
p3152
(dp3153
g17
I50
sg18
(lp3154
S'At'
p3155
aS'this'
p3156
aS'Dummling'
p3157
aS'was'
p3158
aS'glad'
p3159
aS','
p3160
aS'and'
p3161
aS'said'
p3162
aS','
p3163
aS'get'
p3164
aS'up'
p3165
aS'and'
p3166
aS'come'
p3167
aS'with'
p3168
aS'me'
p3169
aS','
p3170
aS'you'
p3171
aS'shall'
p3172
aS'eat'
p3173
aS'yourself'
p3174
aS'full'
p3175
aS'.'
p3176
asg50
(lp3177
VAt
p3178
aVthis
p3179
aVDummling
p3180
ag53
aVglad
p3181
ag60
aVand
p3182
ag266
ag60
aVget
p3183
aVup
p3184
aVand
p3185
aVcome
p3186
aVwith
p3187
aVme
p3188
ag60
aVyou
p3189
aVshall
p3190
aVeat
p3191
aVyourself
p3192
aVfull
p3193
ag76
asg77
(lp3194
g79
ag79
ag79
ag79
ag79
ag79
ag79
ag79
ag79
ag79
ag79
ag79
ag79
ag79
ag79
ag79
ag79
ag79
ag79
ag79
ag79
ag79
asg80
(lp3195
g91
ag84
ag93
ag83
ag92
ag89
ag94
ag83
ag89
ag85
ag194
ag94
ag190
ag91
ag188
ag89
ag188
ag193
ag190
ag188
ag192
ag95
asg96
VAt this Dummling was glad, and said, get up and come with me, you shall eat yourself full.
p3196
sba(i__main__
Sentence
p3197
(dp3198
g17
I51
sg18
(lp3199
S'He'
p3200
aS'led'
p3201
aS'him'
p3202
aS'to'
p3203
aS'the'
p3204
aS'king'
p3205
aS"'s"
p3206
aS'palace'
p3207
aS','
p3208
aS'where'
p3209
aS'all'
p3210
aS'the'
p3211
aS'flour'
p3212
aS'in'
p3213
aS'the'
p3214
aS'whole'
p3215
aS'kingdom'
p3216
aS'was'
p3217
aS'collected'
p3218
aS','
p3219
aS'and'
p3220
aS'from'
p3221
aS'it'
p3222
aS'he'
p3223
aS'caused'
p3224
aS'a'
p3225
aS'huge'
p3226
aS'mountain'
p3227
aS'of'
p3228
aS'bread'
p3229
aS'to'
p3230
aS'be'
p3231
aS'baked'
p3232
aS'.'
p3233
asg50
(lp3234
VHe
p3235
ag2852
aVhim
p3236
aVto
p3237
aVthe
p3238
aVking
p3239
aV's
p3240
aVpalace
p3241
ag60
aVwhere
p3242
aVall
p3243
aVthe
p3244
aVflour
p3245
aVin
p3246
aVthe
p3247
aVwhole
p3248
aVkingdom
p3249
ag53
aVcollect
p3250
ag60
aVand
p3251
aVfrom
p3252
aVit
p3253
aVhe
p3254
aVcause
p3255
ag54
aVhuge
p3256
aVmountain
p3257
aVof
p3258
aVbread
p3259
aVto
p3260
aVbe
p3261
aVbake
p3262
ag76
asg77
(lp3263
g79
ag79
ag79
ag79
ag79
ag79
ag79
ag79
ag79
ag79
ag79
ag79
ag79
ag79
ag79
ag79
ag79
ag79
ag79
ag79
ag79
ag79
ag79
ag79
ag79
ag79
ag79
ag79
ag79
ag79
ag79
ag79
ag79
ag79
asg80
(lp3264
g188
ag83
ag188
ag189
ag84
ag85
ag481
ag85
ag89
ag293
ag84
ag84
ag85
ag91
ag84
ag192
ag85
ag83
ag92
ag89
ag94
ag91
ag188
ag188
ag83
ag84
ag192
ag85
ag91
ag85
ag189
ag190
ag92
ag95
asg96
VHe led him to the king's palace, where all the flour in the whole kingdom was collected, and from it he caused a huge mountain of bread to be baked.
p3265
sba(i__main__
Sentence
p3266
(dp3267
g17
I52
sg18
(lp3268
S'The'
p3269
aS'man'
p3270
aS'from'
p3271
aS'the'
p3272
aS'forest'
p3273
aS'stood'
p3274
aS'before'
p3275
aS'it'
p3276
aS','
p3277
aS'began'
p3278
aS'to'
p3279
aS'eat'
p3280
aS','
p3281
aS'and'
p3282
aS'by'
p3283
aS'the'
p3284
aS'end'
p3285
aS'of'
p3286
aS'one'
p3287
aS'day'
p3288
aS'the'
p3289
aS'whole'
p3290
aS'mountain'
p3291
aS'had'
p3292
aS'vanished'
p3293
aS'.'
p3294
asg50
(lp3295
VThe
p3296
aVman
p3297
aVfrom
p3298
aVthe
p3299
aVforest
p3300
aVstood
p3301
aVbefore
p3302
aVit
p3303
ag60
ag422
aVto
p3304
aVeat
p3305
ag60
aVand
p3306
aVby
p3307
aVthe
p3308
aVend
p3309
aVof
p3310
aVone
p3311
aVday
p3312
aVthe
p3313
aVwhole
p3314
aVmountain
p3315
ag57
aVvanish
p3316
ag76
asg77
(lp3317
g79
ag79
ag79
ag79
ag79
ag79
ag79
ag79
ag79
ag79
ag79
ag79
ag79
ag79
ag79
ag79
ag79
ag79
ag79
ag79
ag79
ag79
ag79
ag79
ag79
ag79
asg80
(lp3318
g84
ag85
ag91
ag84
ag90
ag85
ag91
ag188
ag89
ag83
ag189
ag190
ag89
ag94
ag91
ag84
ag85
ag91
ag87
ag85
ag84
ag192
ag85
ag83
ag92
ag95
asg96
VThe man from the forest stood before it, began to eat, and by the end of one day the whole mountain had vanished.
p3319
sba(i__main__
Sentence
p3320
(dp3321
g17
I53
sg18
(lp3322
S'Then'
p3323
aS'Dummling'
p3324
aS'for'
p3325
aS'the'
p3326
aS'third'
p3327
aS'time'
p3328
aS'asked'
p3329
aS'for'
p3330
aS'his'
p3331
aS'bride'
p3332
aS','
p3333
aS'but'
p3334
aS'the'
p3335
aS'king'
p3336
aS'again'
p3337
aS'sought'
p3338
aS'a'
p3339
aS'way'
p3340
aS'out'
p3341
aS','
p3342
aS'and'
p3343
aS'ordered'
p3344
aS'a'
p3345
aS'ship'
p3346
aS'which'
p3347
aS'could'
p3348
aS'sail'
p3349
aS'on'
p3350
aS'land'
p3351
aS'and'
p3352
aS'on'
p3353
aS'water'
p3354
aS'.'
p3355
asg50
(lp3356
VThen
p3357
aVDummling
p3358
aVfor
p3359
aVthe
p3360
aVthird
p3361
aVtime
p3362
aVask
p3363
aVfor
p3364
aVhis
p3365
aVbride
p3366
ag60
aVbut
p3367
aVthe
p3368
aVking
p3369
aVagain
p3370
aVseek
p3371
ag54
aVway
p3372
aVout
p3373
ag60
aVand
p3374
aVorder
p3375
ag54
aVship
p3376
aVwhich
p3377
aVcould
p3378
aVsail
p3379
aVon
p3380
aVland
p3381
aVand
p3382
aVon
p3383
aVwater
p3384
ag76
asg77
(lp3385
g79
ag79
ag79
ag79
ag79
ag79
ag79
ag79
ag79
ag79
ag79
ag79
ag79
ag79
ag79
ag79
ag79
ag79
ag79
ag79
ag79
ag79
ag79
ag79
ag79
ag79
ag79
ag79
ag79
ag79
ag79
ag79
ag79
asg80
(lp3386
g194
ag755
ag91
ag84
ag192
ag85
ag83
ag91
ag191
ag85
ag89
ag94
ag84
ag85
ag194
ag92
ag84
ag85
ag91
ag89
ag94
ag83
ag84
ag85
ag655
ag193
ag190
ag91
ag85
ag94
ag91
ag85
ag95
asg96
VThen Dummling for the third time asked for his bride, but the king again sought a way out, and ordered a ship which could sail on land and on water.
p3387
sba(i__main__
Sentence
p3388
(dp3389
g17
I54
sg18
(lp3390
S'As'
p3391
aS'soon'
p3392
aS'as'
p3393
aS'you'
p3394
aS'come'
p3395
aS'sailing'
p3396
aS'back'
p3397
aS'in'
p3398
aS'it'
p3399
aS','
p3400
aS'said'
p3401
aS'he'
p3402
aS','
p3403
aS'you'
p3404
aS'shall'
p3405
aS'have'
p3406
aS'my'
p3407
aS'daughter'
p3408
aS'for'
p3409
aS'wife'
p3410
aS'.'
p3411
asg50
(lp3412
VAs
p3413
aVsoon
p3414
ag54
aVyou
p3415
aVcome
p3416
aVsail
p3417
aVback
p3418
aVin
p3419
aVit
p3420
ag60
ag266
aVhe
p3421
ag60
aVyou
p3422
aVshall
p3423
aVhave
p3424
aVmy
p3425
aVdaughter
p3426
aVfor
p3427
aVwife
p3428
ag76
asg77
(lp3429
g79
ag79
ag79
ag79
ag79
ag79
ag79
ag79
ag79
ag79
ag79
ag79
ag79
ag79
ag79
ag79
ag79
ag79
ag79
ag79
ag79
asg80
(lp3430
g91
ag194
ag91
ag188
ag294
ag755
ag194
ag91
ag188
ag89
ag83
ag188
ag89
ag188
ag193
ag190
ag191
ag85
ag91
ag85
ag95
asg96
VAs soon as you come sailing back in it, said he, you shall have my daughter for wife.
p3431
sba(i__main__
Sentence
p3432
(dp3433
g17
I55
sg18
(lp3434
S'Dummling'
p3435
aS'went'
p3436
aS'straight'
p3437
aS'into'
p3438
aS'the'
p3439
aS'forest'
p3440
aS','
p3441
aS'and'
p3442
aS'there'
p3443
aS'sat'
p3444
aS'the'
p3445
aS'little'
p3446
aS'grey'
p3447
aS'man'
p3448
aS'to'
p3449
aS'whom'
p3450
aS'he'
p3451
aS'had'
p3452
aS'given'
p3453
aS'his'
p3454
aS'cake'
p3455
aS'.'
p3456
asg50
(lp3457
VDummling
p3458
ag163
aVstraight
p3459
aVinto
p3460
aVthe
p3461
aVforest
p3462
ag60
aVand
p3463
aVthere
p3464
aVsat
p3465
aVthe
p3466
aVlittle
p3467
aVgrey
p3468
aVman
p3469
aVto
p3470
aVwhom
p3471
aVhe
p3472
ag57
aVgive
p3473
aVhis
p3474
aVcake
p3475
ag76
asg77
(lp3476
g79
ag79
ag79
ag79
ag79
ag79
ag79
ag79
ag79
ag79
ag79
ag79
ag79
ag79
ag79
ag79
ag79
ag79
ag79
ag79
ag79
ag79
asg80
(lp3477
g755
ag83
ag194
ag91
ag84
ag90
ag89
ag94
ag82
ag85
ag84
ag192
ag85
ag85
ag189
ag190
ag188
ag83
ag92
ag191
ag85
ag95
asg96
VDummling went straight into the forest, and there sat the little grey man to whom he had given his cake.
p3478
sba(i__main__
Sentence
p3479
(dp3480
g17
I56
sg18
(lp3481
S'When'
p3482
aS'he'
p3483
aS'heard'
p3484
aS'what'
p3485
aS'Dummling'
p3486
aS'wanted'
p3487
aS','
p3488
aS'he'
p3489
aS'said'
p3490
aS','
p3491
aS'since'
p3492
aS'you'
p3493
aS'have'
p3494
aS'given'
p3495
aS'me'
p3496
aS'to'
p3497
aS'eat'
p3498
aS'and'
p3499
aS'to'
p3500
aS'drink'
p3501
aS','
p3502
aS'I'
p3503
aS'will'
p3504
aS'give'
p3505
aS'you'
p3506
aS'the'
p3507
aS'ship'
p3508
aS','
p3509
aS'and'
p3510
aS'I'
p3511
aS'do'
p3512
aS'all'
p3513
aS'this'
p3514
aS'because'
p3515
aS'you'
p3516
aS'once'
p3517
aS'were'
p3518
aS'kind'
p3519
aS'to'
p3520
aS'me'
p3521
aS'.'
p3522
asg50
(lp3523
VWhen
p3524
aVhe
p3525
aVhear
p3526
aVwhat
p3527
aVDummling
p3528
aVwant
p3529
ag60
aVhe
p3530
ag266
ag60
aVsince
p3531
aVyou
p3532
aVhave
p3533
ag3473
aVme
p3534
aVto
p3535
aVeat
p3536
aVand
p3537
aVto
p3538
aVdrink
p3539
ag60
ag285
aVwill
p3540
aVgive
p3541
aVyou
p3542
aVthe
p3543
aVship
p3544
ag60
aVand
p3545
ag285
aVdo
p3546
aVall
p3547
aVthis
p3548
aVbecause
p3549
aVyou
p3550
aVonce
p3551
ag1393
aVkind
p3552
aVto
p3553
aVme
p3554
ag76
asg77
(lp3555
g79
ag79
ag79
ag79
aVPERSON
p3556
ag79
ag79
ag79
ag79
ag79
ag79
ag79
ag79
ag79
ag79
ag79
ag79
ag79
ag79
ag79
ag79
ag79
ag79
ag79
ag79
ag79
ag79
ag79
ag79
ag79
ag79
ag79
ag79
ag79
ag79
ag79
ag79
ag79
ag79
ag79
ag79
asg80
(lp3557
g293
ag188
ag83
ag86
ag93
ag83
ag89
ag188
ag83
ag89
ag91
ag188
ag294
ag92
ag188
ag189
ag190
ag94
ag189
ag190
ag89
ag188
ag193
ag190
ag188
ag84
ag85
ag89
ag94
ag188
ag294
ag84
ag84
ag91
ag188
ag194
ag83
ag92
ag189
ag188
ag95
asg96
VWhen he heard what Dummling wanted, he said, since you have given me to eat and to drink, I will give you the ship, and I do all this because you once were kind to me.
p3558
sba(i__main__
Sentence
p3559
(dp3560
g17
I57
sg18
(lp3561
S'Then'
p3562
aS'he'
p3563
aS'gave'
p3564
aS'him'
p3565
aS'the'
p3566
aS'ship'
p3567
aS'which'
p3568
aS'could'
p3569
aS'sail'
p3570
aS'on'
p3571
aS'land'
p3572
aS'and'
p3573
aS'water'
p3574
aS','
p3575
aS'and'
p3576
aS'when'
p3577
aS'the'
p3578
aS'king'
p3579
aS'saw'
p3580
aS'that'
p3581
aS','
p3582
aS'he'
p3583
aS'could'
p3584
aS'no'
p3585
aS'longer'
p3586
aS'prevent'
p3587
aS'him'
p3588
aS'from'
p3589
aS'having'
p3590
aS'his'
p3591
aS'daughter'
p3592
aS'.'
p3593
asg50
(lp3594
VThen
p3595
aVhe
p3596
ag166
aVhim
p3597
aVthe
p3598
aVship
p3599
aVwhich
p3600
aVcould
p3601
aVsail
p3602
aVon
p3603
aVland
p3604
aVand
p3605
aVwater
p3606
ag60
aVand
p3607
aVwhen
p3608
aVthe
p3609
aVking
p3610
aVsaw
p3611
aVthat
p3612
ag60
aVhe
p3613
aVcould
p3614
aVno
p3615
aVlonger
p3616
aVprevent
p3617
aVhim
p3618
aVfrom
p3619
aVhave
p3620
aVhis
p3621
aVdaughter
p3622
ag76
asg77
(lp3623
g79
ag79
ag79
ag79
ag79
ag79
ag79
ag79
ag79
ag79
ag79
ag79
ag79
ag79
ag79
ag79
ag79
ag79
ag79
ag79
ag79
ag79
ag79
ag79
ag79
ag79
ag79
ag79
ag79
ag79
ag79
ag79
asg80
(lp3624
g194
ag188
ag83
ag188
ag84
ag85
ag655
ag193
ag190
ag91
ag85
ag94
ag85
ag89
ag94
ag293
ag84
ag85
ag83
ag91
ag89
ag188
ag193
ag194
ag2990
ag192
ag188
ag91
ag755
ag191
ag85
ag95
asg96
VThen he gave him the ship which could sail on land and water, and when the king saw that, he could no longer prevent him from having his daughter.
p3625
sba(i__main__
Sentence
p3626
(dp3627
g17
I58
sg18
(lp3628
S'The'
p3629
aS'wedding'
p3630
aS'was'
p3631
aS'celebrated'
p3632
aS','
p3633
aS'and'
p3634
aS'after'
p3635
aS'the'
p3636
aS'king'
p3637
aS"'s"
p3638
aS'death'
p3639
aS','
p3640
aS'Dummling'
p3641
aS'inherited'
p3642
aS'his'
p3643
aS'kingdom'
p3644
aS'and'
p3645
aS'lived'
p3646
aS'for'
p3647
aS'a'
p3648
aS'long'
p3649
aS'time'
p3650
aS'contentedly'
p3651
aS'with'
p3652
aS'his'
p3653
aS'wife'
p3654
aS'.'
p3655
asg50
(lp3656
VThe
p3657
aVwedding
p3658
ag53
aVcelebrate
p3659
ag60
aVand
p3660
aVafter
p3661
aVthe
p3662
aVking
p3663
aV's
p3664
aVdeath
p3665
ag60
aVDummling
p3666
aVinherit
p3667
aVhis
p3668
aVkingdom
p3669
aVand
p3670
aVlive
p3671
aVfor
p3672
ag54
aVlong
p3673
aVtime
p3674
aVcontentedly
p3675
aVwith
p3676
aVhis
p3677
aVwife
p3678
ag76
asg77
(lp3679
g79
ag79
ag79
ag79
ag79
ag79
ag79
ag79
ag79
ag79
ag79
ag79
aVPERSON
p3680
ag79
ag79
ag79
ag79
ag79
ag79
ag79
ag79
ag79
ag79
ag79
ag79
ag79
ag79
asg80
(lp3681
g84
ag85
ag83
ag92
ag89
ag94
ag91
ag84
ag85
ag481
ag85
ag89
ag93
ag83
ag191
ag85
ag94
ag83
ag91
ag84
ag192
ag85
ag194
ag91
ag191
ag85
ag95
asg96
VThe wedding was celebrated, and after the king's death, Dummling inherited his kingdom and lived for a long time contentedly with his wife. 
p3682
sbasbsS'summary'
p3683
g0
(g7
g2
Ntp3684
Rp3685
(dp3686
g11
S"Three brothers go into a forest to cut down trees. The oldest is sent off with cake and wine. In the forest he meets a man who asks for food, but the oldest brother refuses to share. As a result, the oldest son cuts himself in the arm and has to go home. The middle brother also refuses to share his food and likewise injures himself and must go home. The youngest son is sent off with cinder cake and sour beer. When he encounters the man, he happily shares. The man grants him good luck. This the youngest son cuts down a tree and finds a golden goose. He takes the goose with him to an inn. The goose attracts the attention of the innkeeper's daughters. The first tries to pull a feather from the goose but becomes stuck to the goose..."
p3687
sg13
(lp3688
(i__main__
Sentence
p3689
(dp3690
g17
I0
sg18
(lp3691
S'Three'
p3692
aS'brothers'
p3693
aS'go'
p3694
aS'into'
p3695
aS'a'
p3696
aS'forest'
p3697
aS'to'
p3698
aS'cut'
p3699
aS'down'
p3700
aS'trees'
p3701
aS'.'
p3702
asg50
(lp3703
VThree
p3704
aVbrother
p3705
aVgo
p3706
aVinto
p3707
ag54
aVforest
p3708
aVto
p3709
aVcut
p3710
aVdown
p3711
aVtree
p3712
ag76
asg77
(lp3713
g79
ag79
ag79
ag79
ag79
ag79
ag79
ag79
ag79
ag79
ag79
asg80
(lp3714
g87
ag88
ag294
ag91
ag84
ag192
ag189
ag190
ag370
ag88
ag95
asg96
VThree brothers go into a forest to cut down trees.
p3715
sba(i__main__
Sentence
p3716
(dp3717
g17
I1
sg18
(lp3718
S'The'
p3719
aS'oldest'
p3720
aS'is'
p3721
aS'sent'
p3722
aS'off'
p3723
aS'with'
p3724
aS'cake'
p3725
aS'and'
p3726
aS'wine'
p3727
aS'.'
p3728
asg50
(lp3729
VThe
p3730
aVold
p3731
ag2755
aVsend
p3732
aVoff
p3733
aVwith
p3734
aVcake
p3735
aVand
p3736
aVwine
p3737
ag76
asg77
(lp3738
g79
ag79
ag79
ag79
ag79
ag79
ag79
ag79
ag79
ag79
asg80
(lp3739
g84
ag90
ag1038
ag92
ag370
ag91
ag85
ag94
ag85
ag95
asg96
VThe oldest is sent off with cake and wine.
p3740
sba(i__main__
Sentence
p3741
(dp3742
g17
I2
sg18
(lp3743
S'In'
p3744
aS'the'
p3745
aS'forest'
p3746
aS'he'
p3747
aS'meets'
p3748
aS'a'
p3749
aS'man'
p3750
aS'who'
p3751
aS'asks'
p3752
aS'for'
p3753
aS'food'
p3754
aS','
p3755
aS'but'
p3756
aS'the'
p3757
aS'oldest'
p3758
aS'brother'
p3759
aS'refuses'
p3760
aS'to'
p3761
aS'share'
p3762
aS'.'
p3763
asg50
(lp3764
VIn
p3765
aVthe
p3766
aVforest
p3767
aVhe
p3768
aVmeet
p3769
ag54
aVman
p3770
aVwho
p3771
aVask
p3772
aVfor
p3773
aVfood
p3774
ag60
aVbut
p3775
aVthe
p3776
aVold
p3777
aVbrother
p3778
aVrefuse
p3779
aVto
p3780
aVshare
p3781
ag76
asg77
(lp3782
g79
ag79
ag79
ag79
ag79
ag79
ag79
ag79
ag79
ag79
ag79
ag79
ag79
ag79
ag79
ag79
ag79
ag79
ag79
ag79
asg80
(lp3783
g91
ag84
ag85
ag188
ag1038
ag84
ag85
ag86
ag1038
ag91
ag85
ag89
ag94
ag84
ag90
ag85
ag88
ag189
ag190
ag95
asg96
VIn the forest he meets a man who asks for food, but the oldest brother refuses to share.
p3784
sba(i__main__
Sentence
p3785
(dp3786
g17
I3
sg18
(lp3787
S'As'
p3788
aS'a'
p3789
aS'result'
p3790
aS','
p3791
aS'the'
p3792
aS'oldest'
p3793
aS'son'
p3794
aS'cuts'
p3795
aS'himself'
p3796
aS'in'
p3797
aS'the'
p3798
aS'arm'
p3799
aS'and'
p3800
aS'has'
p3801
aS'to'
p3802
aS'go'
p3803
aS'home'
p3804
aS'.'
p3805
asg50
(lp3806
VAs
p3807
ag54
aVresult
p3808
ag60
aVthe
p3809
aVold
p3810
aVson
p3811
aVcut
p3812
aVhimself
p3813
aVin
p3814
aVthe
p3815
aVarm
p3816
aVand
p3817
ag3103
aVto
p3818
aVgo
p3819
aVhome
p3820
ag76
asg77
(lp3821
g79
ag79
ag79
ag79
ag79
ag79
ag79
ag79
ag79
ag79
ag79
ag79
ag79
ag79
ag79
ag79
ag79
ag79
asg80
(lp3822
g91
ag84
ag85
ag89
ag84
ag90
ag85
ag88
ag188
ag91
ag84
ag85
ag94
ag1038
ag189
ag190
ag194
ag95
asg96
VAs a result, the oldest son cuts himself in the arm and has to go home.
p3823
sba(i__main__
Sentence
p3824
(dp3825
g17
I4
sg18
(lp3826
S'The'
p3827
aS'middle'
p3828
aS'brother'
p3829
aS'also'
p3830
aS'refuses'
p3831
aS'to'
p3832
aS'share'
p3833
aS'his'
p3834
aS'food'
p3835
aS'and'
p3836
aS'likewise'
p3837
aS'injures'
p3838
aS'himself'
p3839
aS'and'
p3840
aS'must'
p3841
aS'go'
p3842
aS'home'
p3843
aS'.'
p3844
asg50
(lp3845
VThe
p3846
aVmiddle
p3847
aVbrother
p3848
aValso
p3849
aVrefuse
p3850
aVto
p3851
aVshare
p3852
aVhis
p3853
aVfood
p3854
aVand
p3855
aVlikewise
p3856
aVinjures
p3857
aVhimself
p3858
aVand
p3859
aVmust
p3860
aVgo
p3861
aVhome
p3862
ag76
asg77
(lp3863
g79
ag79
ag79
ag79
ag79
ag79
ag79
ag79
ag79
ag79
ag79
ag79
ag79
ag79
ag79
ag79
ag79
ag79
asg80
(lp3864
g84
ag85
ag85
ag194
ag1038
ag189
ag190
ag191
ag85
ag94
ag190
ag88
ag188
ag94
ag193
ag190
ag194
ag95
asg96
VThe middle brother also refuses to share his food and likewise injures himself and must go home.
p3865
sba(i__main__
Sentence
p3866
(dp3867
g17
I5
sg18
(lp3868
S'The'
p3869
aS'youngest'
p3870
aS'son'
p3871
aS'is'
p3872
aS'sent'
p3873
aS'off'
p3874
aS'with'
p3875
aS'cinder'
p3876
aS'cake'
p3877
aS'and'
p3878
aS'sour'
p3879
aS'beer'
p3880
aS'.'
p3881
asg50
(lp3882
VThe
p3883
ag62
aVson
p3884
ag2755
ag3732
aVoff
p3885
aVwith
p3886
aVcinder
p3887
aVcake
p3888
aVand
p3889
aVsour
p3890
aVbeer
p3891
ag76
asg77
(lp3892
g79
ag79
ag79
ag79
ag79
ag79
ag79
ag79
ag79
ag79
ag79
ag79
ag79
asg80
(lp3893
g84
ag90
ag85
ag1038
ag92
ag370
ag91
ag85
ag85
ag94
ag191
ag85
ag95
asg96
VThe youngest son is sent off with cinder cake and sour beer.
p3894
sba(i__main__
Sentence
p3895
(dp3896
g17
I6
sg18
(lp3897
S'When'
p3898
aS'he'
p3899
aS'encounters'
p3900
aS'the'
p3901
aS'man'
p3902
aS','
p3903
aS'he'
p3904
aS'happily'
p3905
aS'shares'
p3906
aS'.'
p3907
asg50
(lp3908
VWhen
p3909
aVhe
p3910
aVencounter
p3911
aVthe
p3912
aVman
p3913
ag60
aVhe
p3914
aVhappily
p3915
aVshare
p3916
ag76
asg77
(lp3917
g79
ag79
ag79
ag79
ag79
ag79
ag79
ag79
ag79
ag79
asg80
(lp3918
g293
ag188
ag1038
ag84
ag85
ag89
ag188
ag194
ag88
ag95
asg96
VWhen he encounters the man, he happily shares.
p3919
sba(i__main__
Sentence
p3920
(dp3921
g17
I7
sg18
(lp3922
S'The'
p3923
aS'man'
p3924
aS'grants'
p3925
aS'him'
p3926
aS'good'
p3927
aS'luck'
p3928
aS'.'
p3929
asg50
(lp3930
VThe
p3931
aVman
p3932
aVgrant
p3933
aVhim
p3934
aVgood
p3935
aVluck
p3936
ag76
asg77
(lp3937
g79
ag79
ag79
ag79
ag79
ag79
ag79
asg80
(lp3938
g84
ag85
ag88
ag188
ag83
ag85
ag95
asg96
VThe man grants him good luck.
p3939
sba(i__main__
Sentence
p3940
(dp3941
g17
I8
sg18
(lp3942
S'This'
p3943
aS'the'
p3944
aS'youngest'
p3945
aS'son'
p3946
aS'cuts'
p3947
aS'down'
p3948
aS'a'
p3949
aS'tree'
p3950
aS'and'
p3951
aS'finds'
p3952
aS'a'
p3953
aS'golden'
p3954
aS'goose'
p3955
aS'.'
p3956
asg50
(lp3957
VThis
p3958
aVthe
p3959
ag62
aVson
p3960
aVcut
p3961
aVdown
p3962
ag54
aVtree
p3963
aVand
p3964
aVfind
p3965
ag54
aVgolden
p3966
aVgoose
p3967
ag76
asg77
(lp3968
g79
ag79
ag79
ag79
ag79
ag79
ag79
ag79
ag79
ag79
ag79
ag79
ag79
ag79
asg80
(lp3969
g84
ag84
ag90
ag85
ag88
ag91
ag84
ag85
ag94
ag88
ag84
ag192
ag85
ag95
asg96
VThis the youngest son cuts down a tree and finds a golden goose.
p3970
sba(i__main__
Sentence
p3971
(dp3972
g17
I9
sg18
(lp3973
S'He'
p3974
aS'takes'
p3975
aS'the'
p3976
aS'goose'
p3977
aS'with'
p3978
aS'him'
p3979
aS'to'
p3980
aS'an'
p3981
aS'inn'
p3982
aS'.'
p3983
asg50
(lp3984
VHe
p3985
aVtake
p3986
aVthe
p3987
aVgoose
p3988
aVwith
p3989
aVhim
p3990
aVto
p3991
aVan
p3992
aVinn
p3993
ag76
asg77
(lp3994
g79
ag79
ag79
ag79
ag79
ag79
ag79
ag79
ag79
ag79
asg80
(lp3995
g188
ag1038
ag84
ag85
ag91
ag188
ag189
ag84
ag85
ag95
asg96
VHe takes the goose with him to an inn.
p3996
sba(i__main__
Sentence
p3997
(dp3998
g17
I10
sg18
(lp3999
S'The'
p4000
aS'goose'
p4001
aS'attracts'
p4002
aS'the'
p4003
aS'attention'
p4004
aS'of'
p4005
aS'the'
p4006
aS'innkeeper'
p4007
aS"'s"
p4008
aS'daughters'
p4009
aS'.'
p4010
asg50
(lp4011
VThe
p4012
aVgoose
p4013
aVattract
p4014
aVthe
p4015
aVattention
p4016
aVof
p4017
aVthe
p4018
aVinnkeeper
p4019
aV's
p4020
aVdaughter
p4021
ag76
asg77
(lp4022
g79
ag79
ag79
ag79
ag79
ag79
ag79
ag79
ag79
ag79
ag79
asg80
(lp4023
g84
ag85
ag1038
ag84
ag85
ag91
ag84
ag85
ag481
ag88
ag95
asg96
VThe goose attracts the attention of the innkeeper's daughters.
p4024
sba(i__main__
Sentence
p4025
(dp4026
g17
I11
sg18
(lp4027
S'The'
p4028
aS'first'
p4029
aS'tries'
p4030
aS'to'
p4031
aS'pull'
p4032
aS'a'
p4033
aS'feather'
p4034
aS'from'
p4035
aS'the'
p4036
aS'goose'
p4037
aS'but'
p4038
aS'becomes'
p4039
aS'stuck'
p4040
aS'to'
p4041
aS'the'
p4042
aS'goose'
p4043
aS'...'
p4044
asg50
(lp4045
VThe
p4046
aVfirst
p4047
aVtry
p4048
aVto
p4049
aVpull
p4050
ag54
aVfeather
p4051
aVfrom
p4052
aVthe
p4053
aVgoose
p4054
aVbut
p4055
aVbecome
p4056
aVstuck
p4057
aVto
p4058
aVthe
p4059
aVgoose
p4060
aV...
p4061
asg77
(lp4062
g79
ag79
ag79
ag79
ag79
ag79
ag79
ag79
ag79
ag79
ag79
ag79
ag79
ag79
ag79
ag79
ag79
asg80
(lp4063
g84
ag192
ag88
ag189
ag190
ag84
ag85
ag91
ag84
ag85
ag94
ag1038
ag85
ag189
ag84
ag85
aS':'
p4064
asg96
VThe first tries to pull a feather from the goose but becomes stuck to the goose...
p4065
sbasbsS'name'
p4066
S'The Golden Goose'
p4067
sS'summaries'
p4068
(lp4069
g3685
asb.