ccopy_reg
_reconstructor
p0
(c__main__
Story
p1
c__builtin__
object
p2
Ntp3
Rp4
(dp5
S'text'
p6
g0
(c__main__
Document
p7
g2
Ntp8
Rp9
(dp10
S'_Document__initialContent'
p11
S"There was once a poor man and a poor woman who had nothing but a\nlittle cottage, and who earned their bread by fishing, and always\nlived from hand to mouth.  But it came to pass one day when the man\nwas sitting by the water-side, and casting his net, that he drew out\na fish entirely of gold.  As he was looking at the fish, full of\nastonishment, it began to speak and said, listen, fisherman, if you\nwill throw me back again into the water, I will change your little\nhut into a splendid castle.\n\nThen the fisherman answered, of what use is a castle to me, if I have\nnothing to eat.  The gold fish continued, that shall be taken care\nof, there will be a cupboard in the castle in which, when you open\nit, shall be dishes of the most delicate meats, and as many of them\nas you can desire.  If that be true, said the man, then I can well do\nyou a favor.  Yes, said the fish, there is, however, the condition\nthat you shall disclose to no one in the world, whosoever he may be,\nwhence your good luck has come, if you speak but one single word, all\nwill be over.  Then the man threw the wonderful fish back again into\nthe water, and went home.\n\nBut where his hovel had formerly stood, now stood a great castle. He\nopened wide his eyes, entered, and saw his wife dressed in beautiful\nclothes, sitting in a splendid room, and she was quite delighted, and\nsaid, husband, how has all this come to pass.  It suits me very well.\nYes, said the man, it suits me too, but I am frightfully hungry, just\ngive me something to eat.  Said the wife, but I have got nothing and\ndon't know where to find anything in this new house.  There is no\nneed of your knowing, said the man, for I see yonder a great\ncupboard, just unlock it. When she opened it, there stood cakes,\nmeat, fruit, wine, quite a bright prospect.\n\nThen the woman cried joyfully, what more can you want, my dear. And\nthey sat down, and ate and drank together.  When they had had enough,\nthe woman said, but husband, whence come all these riches. Alas,\nanswered he, do not question me about it, for I dare not tell you\nanything.  If I disclose it to anyone, then all our good fortune will\ndisappear.  Very good, said she, if I am not to know anything, then I\ndo not want to know anything.  However, she was not in earnest.  She\nnever rested day or night, and she goaded her husband until in his\nimpatience he revealed that all was owing to a wonderful golden fish\nwhich he had caught, and to which in return he had given its liberty.\nAnd as soon as the secret was out, the splendid castle with the\ncupboard immediately disappeared, they were once more in the old\nfisherman's hut, and the man was obliged to follow his former trade\nand fish.\n\nBut fortune would so have it, that he once more drew out the golden\nfish.  Listen, said the fish, if you will throw me back into the\nwater again, I will once more give you the castle with the cupboard\nfull of roast and boiled meats.  Only be firm, for your life's sake\ndon't reveal from whom you have it, or you will lose it all again.  I\nwill take good care, answered the fisherman, and threw the fish back\ninto the water.  Now at home everything was once more in its former\nmagnificence, and the wife was overjoyed at their good fortune, but\ncuriosity left her no peace, so that after a couple of days she began\nto ask again how it had come to pass, and how he had managed to\nsecure it.  The man kept silence for a short time, but at last she\nmade him so angry that he broke out, and betrayed the secret.\n\nIn an instant the castle disappeared, and they were back again in\ntheir old hut.  Now you have got what you want, said he, and we can\ngnaw at a bare bone again.  Ah, said the woman, I had rather not have\nriches if I am not to know from whom they come, for then I have no\npeace.\n\nThe man went back to fish, and after a while he chanced to draw out\nthe gold fish for a third time.  Listen, said the fish, I see very\nwell that I am fated to fall into your hands, take me home and cut me\ninto six pieces.  Give your wife two of them to eat, two to your\nhorse and bury two of them in the ground, then they will bring you a\nblessing.  The fisherman took the fish home with him, and did as it\nhad bidden him.  It came to pass, however, that from the two pieces\nthat were buried in the ground two golden lilies sprang up, that the\nhorse had two golden foals, and the fisherman's wife bore two\nchildren who were made entirely of gold.  The children grew up,\nbecame tall and handsome, and the lilies and horses grew likewise.\nThen they said, father, we want to mount our golden steeds and travel\nout in the world.  But he answered sorrowfully, how shall I bear it\nif you go away, and I know not how it fares with you.  Then they\nsaid, the two golden lilies remain here.  By them you can see how it\nis with us.  If they are fresh, then we are in health.  If they are\nwithered, we are ill.  If they perish, then we are dead.\n\nSo they rode forth and came to an inn, in which were many people, and\nwhen they perceived the gold-children they began to laugh, and jeer.\nWhen one of them heard the mocking he felt ashamed and would not go\nout into the world, but turned back and went home again to his\nfather.  But the other rode forward and reached a great forest. As he\nwas about to enter it, the people said, it is not safe for you to\nride through, the wood is full of robbers who would treat you badly.\nYou will fare ill, and when they see that you are all of gold, and\nyour horse likewise, they will assuredly kill you.\n\nBut he would not allow himself to be frightened, and said, I must and\nwill ride through it.  Then he took bear-skins and covered himself\nand his horse with them, so that the gold was no more to be seen, and\nrode fearlessly into the forest.  When he had ridden onward a little\nhe heard a rustling in the bushes, and heard voices speaking\ntogether.  From one side came cries of, there is one, but from the\nother, let him go, 'tis a bearskin, as poor and bare as a\nchurch-mouse, what should we gain from him.  So the gold-child rode\njoyfully through the forest, and no evil befell him.\n\nOne day he entered a village wherein he saw a maiden, who was so\nbeautiful that he did not believe that any more beautiful than she\nexisted in the world.  And as such a mighty love took possession of\nhim, he went up to her and said, I love you with my whole heart, will\nyou be my wife.  He, too, pleased the maiden so much that she agreed\nand said, yes, I will be your wife, and be true to you my whole life\nlong.\n\nThen they were married, and just as they were in the greatest\nhappiness, home came the father of the bride, and when he saw that\nhis daughter's wedding was being celebrated, he was astonished, and\nsaid, where is the bridegroom.  They showed him the gold-child, who,\nhowever, still wore his bear-skins.  Then the father said wrathfully,\na bearskin shall never have my daughter.  And was about to kill him.\nThen the bride begged as hard as she could, and said, he is my\nhusband, and I love him with all my heart.  Until at last he allowed\nhimself to be appeased.  Nevertheless the idea never left his\nthoughts, so that next morning he rose early, wishing to see whether\nhis daughter's husband was a common ragged beggar.  But when he\npeeped in, he saw a magnificent golden man in the bed, and the\ncast-off bear-skins lying on the ground.  Then he went back and\nthought, what a good thing it was that I restrained my anger.  I\nwould have committed a great crime.\n\nBut the gold-child dreamed that he rode out to hunt a splendid stag,\nand when he awoke in the morning, he said to his wife, I must go out\nhunting.  She was uneasy, and begged him to stay there, and said, you\nmight easily meet with a great misfortune.  But he answered, I must\nand will go.\n\nThereupon he got up, and rode forth into the forest, and it was not\nlong before a fine stag crossed his path exactly according to his\ndream.  He aimed and was about to shoot it, when the stag ran away.\nHe gave chase over hedges and ditches for the whole day without\nfeeling tired, but in the evening the stag vanished from his sight,\nand when the gold-child looked round him, he was standing before a\nlittle house, wherein sat a witch.\n\nHe knocked and a little old woman came out and asked, what are you\ndoing so late in the midst of the great forest.  Have you not seen a\nstag. Yes, answered she, I know the stag well.  And thereupon a\nlittle dog which had come out of the house with her, barked at the\nman violently.  Will you be silent, you odious toad, said he, or I\nwill shoot you dead.  Then the witch cried out in a passion, what\nwill you slay my little dog.  And immediately transformed him, so\nthat he lay like a stone, and his bride awaited him in vain and\nthought, that which I so greatly dreaded, which lay so heavily on my\nheart, has come upon him.\n\nBut at home the other brother was standing by the gold-lilies, when\none of them suddenly drooped. Good heavens, said he, my brother has\nmet with some great misfortune I must away to see if I can possibly\nrescue him.  Then the father said, stay here, if I lose you also,\nwhat shall I do. But he answered, I must and will go forth.\n\nThen he mounted his golden horse, and rode forth and entered the\ngreat forest, where his brother lay turned to stone.  The old witch\ncame out of her house and called him, wishing to entrap him also, but\nhe did not go near her, and said, I will shoot you, if you will not\nbring my brother to life again.  She touched the stone, though very\nunwillingly, with her forefinger, and he was immediately restored to\nhis human shape.  And the two gold-children rejoiced when they saw\neach other again, kissed and caressed each other, and rode away\ntogether out of the forest the one home to his bride, and the other\nto his father.\n\nThe father then said, I knew well that you had rescued your brother,\nfor the golden lily suddenly rose up and blossomed out again. Then\nthey lived happily, and they prospered until their death.\n"
p12
sS'sentences'
p13
(lp14
(i__main__
Sentence
p15
(dp16
S'index'
p17
I0
sS'words'
p18
(lp19
S'There'
p20
aS'was'
p21
aS'once'
p22
aS'a'
p23
aS'poor'
p24
aS'man'
p25
aS'and'
p26
aS'a'
p27
aS'poor'
p28
aS'woman'
p29
aS'who'
p30
aS'had'
p31
aS'nothing'
p32
aS'but'
p33
aS'a'
p34
aS'little'
p35
aS'cottage'
p36
aS','
p37
aS'and'
p38
aS'who'
p39
aS'earned'
p40
aS'their'
p41
aS'bread'
p42
aS'by'
p43
aS'fishing'
p44
aS','
p45
aS'and'
p46
aS'always'
p47
aS'lived'
p48
aS'from'
p49
aS'hand'
p50
aS'to'
p51
aS'mouth'
p52
aS'.'
p53
asS'lemmas'
p54
(lp55
VThere
p56
aVbe
p57
aVonce
p58
aVa
p59
aVpoor
p60
aVman
p61
aVand
p62
ag59
aVpoor
p63
aVwoman
p64
aVwho
p65
aVhave
p66
aVnothing
p67
aVbut
p68
ag59
aVlittle
p69
aVcottage
p70
aV,
p71
aVand
p72
aVwho
p73
aVearn
p74
aVtheir
p75
aVbread
p76
aVby
p77
aVfishing
p78
ag71
aVand
p79
aValways
p80
aVlive
p81
aVfrom
p82
aVhand
p83
aVto
p84
aVmouth
p85
aV.
p86
asS'nerTags'
p87
(lp88
VO
p89
ag89
ag89
ag89
ag89
ag89
ag89
ag89
ag89
ag89
ag89
ag89
ag89
ag89
ag89
ag89
ag89
ag89
ag89
ag89
ag89
ag89
ag89
ag89
ag89
ag89
ag89
ag89
ag89
ag89
ag89
ag89
ag89
ag89
asS'posTags'
p90
(lp91
S'EX'
p92
aS'VBD'
p93
aS'RB'
p94
aS'DT'
p95
aS'JJ'
p96
aS'NN'
p97
aS'CC'
p98
ag95
ag96
ag97
aS'WP'
p99
ag93
aS'VBG'
p100
ag98
ag95
ag94
ag97
aS','
p101
ag98
ag99
ag93
aS'PRP$'
p102
ag97
aS'IN'
p103
ag97
ag101
ag98
ag94
ag93
ag103
ag97
aS'TO'
p104
aS'VB'
p105
aS'.'
p106
asS'_Sentence__initialContent'
p107
VThere was once a poor man and a poor woman who had nothing but a little cottage, and who earned their bread by fishing, and always lived from hand to mouth.
p108
sba(i__main__
Sentence
p109
(dp110
g17
I1
sg18
(lp111
S'But'
p112
aS'it'
p113
aS'came'
p114
aS'to'
p115
aS'pass'
p116
aS'one'
p117
aS'day'
p118
aS'when'
p119
aS'the'
p120
aS'man'
p121
aS'was'
p122
aS'sitting'
p123
aS'by'
p124
aS'the'
p125
aS'water-side'
p126
aS','
p127
aS'and'
p128
aS'casting'
p129
aS'his'
p130
aS'net'
p131
aS','
p132
aS'that'
p133
aS'he'
p134
aS'drew'
p135
aS'out'
p136
aS'a'
p137
aS'fish'
p138
aS'entirely'
p139
aS'of'
p140
aS'gold'
p141
aS'.'
p142
asg54
(lp143
VBut
p144
aVit
p145
aVcome
p146
aVto
p147
aVpass
p148
aVone
p149
aVday
p150
aVwhen
p151
aVthe
p152
aVman
p153
ag57
aVsit
p154
aVby
p155
aVthe
p156
aVwater-side
p157
ag71
aVand
p158
aVcast
p159
aVhis
p160
aVnet
p161
ag71
aVthat
p162
aVhe
p163
aVdraw
p164
aVout
p165
ag59
aVfish
p166
aVentirely
p167
aVof
p168
aVgold
p169
ag86
asg87
(lp170
g89
ag89
ag89
ag89
ag89
ag89
ag89
ag89
ag89
ag89
ag89
ag89
ag89
ag89
ag89
ag89
ag89
ag89
ag89
ag89
ag89
ag89
ag89
ag89
ag89
ag89
ag89
ag89
ag89
ag89
ag89
asg90
(lp171
g98
aS'PRP'
p172
ag93
ag104
ag105
aS'CD'
p173
ag97
aS'WRB'
p174
ag95
ag97
ag93
ag100
ag103
ag95
ag96
ag101
ag98
ag100
ag102
ag96
ag101
ag103
ag172
ag93
aS'RP'
p175
ag95
ag96
ag94
ag103
ag97
ag106
asg107
VBut it came to pass one day when the man was sitting by the water-side, and casting his net, that he drew out a fish entirely of gold.
p176
sba(i__main__
Sentence
p177
(dp178
g17
I2
sg18
(lp179
S'As'
p180
aS'he'
p181
aS'was'
p182
aS'looking'
p183
aS'at'
p184
aS'the'
p185
aS'fish'
p186
aS','
p187
aS'full'
p188
aS'of'
p189
aS'astonishment'
p190
aS','
p191
aS'it'
p192
aS'began'
p193
aS'to'
p194
aS'speak'
p195
aS'and'
p196
aS'said'
p197
aS','
p198
aS'listen'
p199
aS','
p200
aS'fisherman'
p201
aS','
p202
aS'if'
p203
aS'you'
p204
aS'will'
p205
aS'throw'
p206
aS'me'
p207
aS'back'
p208
aS'again'
p209
aS'into'
p210
aS'the'
p211
aS'water'
p212
aS','
p213
aS'I'
p214
aS'will'
p215
aS'change'
p216
aS'your'
p217
aS'little'
p218
aS'hut'
p219
aS'into'
p220
aS'a'
p221
aS'splendid'
p222
aS'castle'
p223
aS'.'
p224
asg54
(lp225
VAs
p226
aVhe
p227
ag57
aVlook
p228
aVat
p229
aVthe
p230
aVfish
p231
ag71
aVfull
p232
aVof
p233
aVastonishment
p234
ag71
aVit
p235
aVbegin
p236
aVto
p237
aVspeak
p238
aVand
p239
aVsay
p240
ag71
aVlisten
p241
ag71
aVfisherman
p242
ag71
aVif
p243
aVyou
p244
aVwill
p245
aVthrow
p246
aVme
p247
aVback
p248
aVagain
p249
aVinto
p250
aVthe
p251
aVwater
p252
ag71
aVI
p253
aVwill
p254
aVchange
p255
aVyour
p256
aVlittle
p257
aVhut
p258
aVinto
p259
ag59
aVsplendid
p260
aVcastle
p261
ag86
asg87
(lp262
g89
ag89
ag89
ag89
ag89
ag89
ag89
ag89
ag89
ag89
ag89
ag89
ag89
ag89
ag89
ag89
ag89
ag89
ag89
ag89
ag89
ag89
ag89
ag89
ag89
ag89
ag89
ag89
ag89
ag89
ag89
ag89
ag89
ag89
ag89
ag89
ag89
ag89
ag89
ag89
ag89
ag89
ag89
ag89
ag89
asg90
(lp263
g103
ag172
ag93
ag100
ag103
ag95
ag96
ag101
ag96
ag103
ag97
ag101
ag172
ag93
ag104
ag105
ag98
ag93
ag101
aS'VBN'
p264
ag101
ag97
ag101
ag103
ag172
aS'MD'
p265
ag105
ag172
ag94
ag94
ag103
ag95
ag97
ag101
ag172
ag265
ag105
ag102
ag96
ag97
ag103
ag95
ag96
ag97
ag106
asg107
VAs he was looking at the fish, full of astonishment, it began to speak and said, listen, fisherman, if you will throw me back again into the water, I will change your little hut into a splendid castle.
p266
sba(i__main__
Sentence
p267
(dp268
g17
I3
sg18
(lp269
S'Then'
p270
aS'the'
p271
aS'fisherman'
p272
aS'answered'
p273
aS','
p274
aS'of'
p275
aS'what'
p276
aS'use'
p277
aS'is'
p278
aS'a'
p279
aS'castle'
p280
aS'to'
p281
aS'me'
p282
aS','
p283
aS'if'
p284
aS'I'
p285
aS'have'
p286
aS'nothing'
p287
aS'to'
p288
aS'eat'
p289
aS'.'
p290
asg54
(lp291
VThen
p292
aVthe
p293
aVfisherman
p294
aVanswer
p295
ag71
aVof
p296
aVwhat
p297
aVuse
p298
aVbe
p299
ag59
aVcastle
p300
aVto
p301
aVme
p302
ag71
aVif
p303
ag253
aVhave
p304
aVnothing
p305
aVto
p306
aVeat
p307
ag86
asg87
(lp308
g89
ag89
ag89
ag89
ag89
ag89
ag89
ag89
ag89
ag89
ag89
ag89
ag89
ag89
ag89
ag89
ag89
ag89
ag89
ag89
ag89
asg90
(lp309
g94
ag95
ag97
ag93
ag101
ag103
ag99
ag97
aS'VBZ'
p310
ag95
ag97
ag104
ag172
ag101
ag103
ag172
aS'VBP'
p311
ag97
ag104
ag105
ag106
asg107
VThen the fisherman answered, of what use is a castle to me, if I have nothing to eat.
p312
sba(i__main__
Sentence
p313
(dp314
g17
I4
sg18
(lp315
S'The'
p316
aS'gold'
p317
aS'fish'
p318
aS'continued'
p319
aS','
p320
aS'that'
p321
aS'shall'
p322
aS'be'
p323
aS'taken'
p324
aS'care'
p325
aS'of'
p326
aS','
p327
aS'there'
p328
aS'will'
p329
aS'be'
p330
aS'a'
p331
aS'cupboard'
p332
aS'in'
p333
aS'the'
p334
aS'castle'
p335
aS'in'
p336
aS'which'
p337
aS','
p338
aS'when'
p339
aS'you'
p340
aS'open'
p341
aS'it'
p342
aS','
p343
aS'shall'
p344
aS'be'
p345
aS'dishes'
p346
aS'of'
p347
aS'the'
p348
aS'most'
p349
aS'delicate'
p350
aS'meats'
p351
aS','
p352
aS'and'
p353
aS'as'
p354
aS'many'
p355
aS'of'
p356
aS'them'
p357
aS'as'
p358
aS'you'
p359
aS'can'
p360
aS'desire'
p361
aS'.'
p362
asg54
(lp363
VThe
p364
aVgold
p365
aVfish
p366
aVcontinue
p367
ag71
aVthat
p368
aVshall
p369
aVbe
p370
aVtake
p371
aVcare
p372
aVof
p373
ag71
aVthere
p374
aVwill
p375
aVbe
p376
ag59
aVcupboard
p377
aVin
p378
aVthe
p379
aVcastle
p380
aVin
p381
aVwhich
p382
ag71
aVwhen
p383
aVyou
p384
aVopen
p385
aVit
p386
ag71
aVshall
p387
aVbe
p388
aVdish
p389
aVof
p390
aVthe
p391
aVmost
p392
aVdelicate
p393
aVmeat
p394
ag71
aVand
p395
ag59
aVmany
p396
aVof
p397
aVthem
p398
ag59
aVyou
p399
aVcan
p400
aVdesire
p401
ag86
asg87
(lp402
g89
ag89
ag89
ag89
ag89
ag89
ag89
ag89
ag89
ag89
ag89
ag89
ag89
ag89
ag89
ag89
ag89
ag89
ag89
ag89
ag89
ag89
ag89
ag89
ag89
ag89
ag89
ag89
ag89
ag89
ag89
ag89
ag89
ag89
ag89
ag89
ag89
ag89
ag89
ag89
ag89
ag89
ag89
ag89
ag89
ag89
ag89
asg90
(lp403
g95
ag97
ag97
ag93
ag101
ag103
ag265
ag105
ag264
ag97
ag103
ag101
ag92
ag265
ag105
ag95
ag97
ag103
ag95
ag97
ag103
aS'WDT'
p404
ag101
ag174
ag172
ag311
ag172
ag101
ag265
ag105
aS'NNS'
p405
ag103
ag95
aS'RBS'
p406
ag96
ag405
ag101
ag98
ag103
ag96
ag103
ag172
ag103
ag172
ag265
ag105
ag106
asg107
VThe gold fish continued, that shall be taken care of, there will be a cupboard in the castle in which, when you open it, shall be dishes of the most delicate meats, and as many of them as you can desire.
p407
sba(i__main__
Sentence
p408
(dp409
g17
I5
sg18
(lp410
S'If'
p411
aS'that'
p412
aS'be'
p413
aS'true'
p414
aS','
p415
aS'said'
p416
aS'the'
p417
aS'man'
p418
aS','
p419
aS'then'
p420
aS'I'
p421
aS'can'
p422
aS'well'
p423
aS'do'
p424
aS'you'
p425
aS'a'
p426
aS'favor'
p427
aS'.'
p428
asg54
(lp429
VIf
p430
aVthat
p431
aVbe
p432
aVtrue
p433
ag71
ag240
aVthe
p434
aVman
p435
ag71
aVthen
p436
ag253
aVcan
p437
aVwell
p438
aVdo
p439
aVyou
p440
ag59
aVfavor
p441
ag86
asg87
(lp442
g89
ag89
ag89
ag89
ag89
ag89
ag89
ag89
ag89
ag89
ag89
ag89
ag89
ag89
ag89
ag89
ag89
ag89
asg90
(lp443
g103
ag95
ag105
ag96
ag101
ag93
ag95
ag97
ag101
ag94
ag172
ag265
ag94
ag105
ag172
ag95
ag97
ag106
asg107
VIf that be true, said the man, then I can well do you a favor.
p444
sba(i__main__
Sentence
p445
(dp446
g17
I6
sg18
(lp447
S'Yes'
p448
aS','
p449
aS'said'
p450
aS'the'
p451
aS'fish'
p452
aS','
p453
aS'there'
p454
aS'is'
p455
aS','
p456
aS'however'
p457
aS','
p458
aS'the'
p459
aS'condition'
p460
aS'that'
p461
aS'you'
p462
aS'shall'
p463
aS'disclose'
p464
aS'to'
p465
aS'no'
p466
aS'one'
p467
aS'in'
p468
aS'the'
p469
aS'world'
p470
aS','
p471
aS'whosoever'
p472
aS'he'
p473
aS'may'
p474
aS'be'
p475
aS','
p476
aS'whence'
p477
aS'your'
p478
aS'good'
p479
aS'luck'
p480
aS'has'
p481
aS'come'
p482
aS','
p483
aS'if'
p484
aS'you'
p485
aS'speak'
p486
aS'but'
p487
aS'one'
p488
aS'single'
p489
aS'word'
p490
aS','
p491
aS'all'
p492
aS'will'
p493
aS'be'
p494
aS'over'
p495
aS'.'
p496
asg54
(lp497
VYes
p498
ag71
ag240
aVthe
p499
aVfish
p500
ag71
aVthere
p501
ag299
ag71
aVhowever
p502
ag71
aVthe
p503
aVcondition
p504
aVthat
p505
aVyou
p506
aVshall
p507
aVdisclose
p508
aVto
p509
aVno
p510
aVone
p511
aVin
p512
aVthe
p513
aVworld
p514
ag71
aVwhosoever
p515
aVhe
p516
aVmay
p517
aVbe
p518
ag71
aVwhence
p519
aVyour
p520
aVgood
p521
aVluck
p522
aVhave
p523
aVcome
p524
ag71
aVif
p525
aVyou
p526
aVspeak
p527
aVbut
p528
aVone
p529
aVsingle
p530
aVword
p531
ag71
aVall
p532
aVwill
p533
aVbe
p534
aVover
p535
ag86
asg87
(lp536
g89
ag89
ag89
ag89
ag89
ag89
ag89
ag89
ag89
ag89
ag89
ag89
ag89
ag89
ag89
ag89
ag89
ag89
ag89
ag89
ag89
ag89
ag89
ag89
ag89
ag89
ag89
ag89
ag89
ag89
ag89
ag89
ag89
ag89
ag89
ag89
ag89
ag89
ag89
ag89
ag89
ag89
ag89
ag89
ag89
ag89
ag89
ag89
ag89
asg90
(lp537
g405
ag101
ag93
ag95
ag96
ag101
ag92
ag310
ag101
ag94
ag101
ag95
ag97
ag103
ag172
ag265
ag105
ag104
ag95
ag97
ag103
ag95
ag97
ag101
ag94
ag172
ag265
ag105
ag101
ag97
ag102
ag96
ag97
ag310
ag264
ag101
ag103
ag172
ag311
ag98
ag173
ag96
ag97
ag101
ag95
ag265
ag105
ag103
ag106
asg107
VYes, said the fish, there is, however, the condition that you shall disclose to no one in the world, whosoever he may be, whence your good luck has come, if you speak but one single word, all will be over.
p538
sba(i__main__
Sentence
p539
(dp540
g17
I7
sg18
(lp541
S'Then'
p542
aS'the'
p543
aS'man'
p544
aS'threw'
p545
aS'the'
p546
aS'wonderful'
p547
aS'fish'
p548
aS'back'
p549
aS'again'
p550
aS'into'
p551
aS'the'
p552
aS'water'
p553
aS','
p554
aS'and'
p555
aS'went'
p556
aS'home'
p557
aS'.'
p558
asg54
(lp559
VThen
p560
aVthe
p561
aVman
p562
aVthrow
p563
aVthe
p564
aVwonderful
p565
aVfish
p566
aVback
p567
aVagain
p568
aVinto
p569
aVthe
p570
aVwater
p571
ag71
aVand
p572
aVgo
p573
aVhome
p574
ag86
asg87
(lp575
g89
ag89
ag89
ag89
ag89
ag89
ag89
ag89
ag89
ag89
ag89
ag89
ag89
ag89
ag89
ag89
ag89
asg90
(lp576
g94
ag95
ag97
ag93
ag95
ag96
ag97
ag94
ag94
ag103
ag95
ag97
ag101
ag98
ag93
ag97
ag106
asg107
VThen the man threw the wonderful fish back again into the water, and went home.
p577
sba(i__main__
Sentence
p578
(dp579
g17
I8
sg18
(lp580
S'But'
p581
aS'where'
p582
aS'his'
p583
aS'hovel'
p584
aS'had'
p585
aS'formerly'
p586
aS'stood'
p587
aS','
p588
aS'now'
p589
aS'stood'
p590
aS'a'
p591
aS'great'
p592
aS'castle'
p593
aS'.'
p594
asg54
(lp595
VBut
p596
aVwhere
p597
aVhis
p598
aVhovel
p599
ag66
aVformerly
p600
aVstand
p601
ag71
aVnow
p602
ag601
ag59
aVgreat
p603
aVcastle
p604
ag86
asg87
(lp605
g89
ag89
ag89
ag89
ag89
ag89
ag89
ag89
ag89
ag89
ag89
ag89
ag89
ag89
asg90
(lp606
g98
ag174
ag102
ag97
ag93
ag94
ag264
ag101
ag94
ag93
ag95
ag96
ag97
ag106
asg107
VBut where his hovel had formerly stood, now stood a great castle.
p607
sba(i__main__
Sentence
p608
(dp609
g17
I9
sg18
(lp610
S'He'
p611
aS'opened'
p612
aS'wide'
p613
aS'his'
p614
aS'eyes'
p615
aS','
p616
aS'entered'
p617
aS','
p618
aS'and'
p619
aS'saw'
p620
aS'his'
p621
aS'wife'
p622
aS'dressed'
p623
aS'in'
p624
aS'beautiful'
p625
aS'clothes'
p626
aS','
p627
aS'sitting'
p628
aS'in'
p629
aS'a'
p630
aS'splendid'
p631
aS'room'
p632
aS','
p633
aS'and'
p634
aS'she'
p635
aS'was'
p636
aS'quite'
p637
aS'delighted'
p638
aS','
p639
aS'and'
p640
aS'said'
p641
aS','
p642
aS'husband'
p643
aS','
p644
aS'how'
p645
aS'has'
p646
aS'all'
p647
aS'this'
p648
aS'come'
p649
aS'to'
p650
aS'pass'
p651
aS'.'
p652
asg54
(lp653
VHe
p654
aVopen
p655
aVwide
p656
aVhis
p657
aVeye
p658
ag71
aVenter
p659
ag71
aVand
p660
aVsaw
p661
aVhis
p662
aVwife
p663
aVdress
p664
aVin
p665
aVbeautiful
p666
aVclothes
p667
ag71
ag154
aVin
p668
ag59
aVsplendid
p669
aVroom
p670
ag71
aVand
p671
aVshe
p672
ag57
aVquite
p673
aVdelight
p674
ag71
aVand
p675
ag240
ag71
aVhusband
p676
ag71
aVhow
p677
ag523
aVall
p678
aVthis
p679
aVcome
p680
aVto
p681
aVpass
p682
ag86
asg87
(lp683
g89
ag89
ag89
ag89
ag89
ag89
ag89
ag89
ag89
ag89
ag89
ag89
ag89
ag89
ag89
ag89
ag89
ag89
ag89
ag89
ag89
ag89
ag89
ag89
ag89
ag89
ag89
ag89
ag89
ag89
ag89
ag89
ag89
ag89
ag89
ag89
ag89
ag89
ag89
ag89
ag89
ag89
asg90
(lp684
g172
ag93
ag96
ag102
ag405
ag101
ag93
ag101
ag98
ag93
ag102
ag97
ag93
ag103
ag96
ag405
ag101
ag100
ag103
ag95
ag97
ag97
ag101
ag98
ag172
ag93
ag94
ag264
ag101
ag98
ag93
ag101
ag97
ag101
ag174
ag310
ag95
ag95
ag97
ag104
ag105
ag106
asg107
VHe opened wide his eyes, entered, and saw his wife dressed in beautiful clothes, sitting in a splendid room, and she was quite delighted, and said, husband, how has all this come to pass.
p685
sba(i__main__
Sentence
p686
(dp687
g17
I10
sg18
(lp688
S'It'
p689
aS'suits'
p690
aS'me'
p691
aS'very'
p692
aS'well'
p693
aS'.'
p694
asg54
(lp695
VIt
p696
aVsuit
p697
aVme
p698
aVvery
p699
aVwell
p700
ag86
asg87
(lp701
g89
ag89
ag89
ag89
ag89
ag89
asg90
(lp702
g172
ag310
ag172
ag94
ag94
ag106
asg107
VIt suits me very well.
p703
sba(i__main__
Sentence
p704
(dp705
g17
I11
sg18
(lp706
S'Yes'
p707
aS','
p708
aS'said'
p709
aS'the'
p710
aS'man'
p711
aS','
p712
aS'it'
p713
aS'suits'
p714
aS'me'
p715
aS'too'
p716
aS','
p717
aS'but'
p718
aS'I'
p719
aS'am'
p720
aS'frightfully'
p721
aS'hungry'
p722
aS','
p723
aS'just'
p724
aS'give'
p725
aS'me'
p726
aS'something'
p727
aS'to'
p728
aS'eat'
p729
aS'.'
p730
asg54
(lp731
VYes
p732
ag71
ag240
aVthe
p733
aVman
p734
ag71
aVit
p735
aVsuit
p736
aVme
p737
aVtoo
p738
ag71
aVbut
p739
ag253
aVbe
p740
aVfrightfully
p741
aVhungry
p742
ag71
aVjust
p743
aVgive
p744
aVme
p745
aVsomething
p746
aVto
p747
aVeat
p748
ag86
asg87
(lp749
g89
ag89
ag89
ag89
ag89
ag89
ag89
ag89
ag89
ag89
ag89
ag89
ag89
ag89
ag89
ag89
ag89
ag89
ag89
ag89
ag89
ag89
ag89
ag89
asg90
(lp750
g405
ag101
ag93
ag95
ag97
ag101
ag172
ag310
ag172
ag94
ag101
ag98
ag172
ag311
ag94
ag96
ag101
ag94
ag105
ag172
ag97
ag104
ag105
ag106
asg107
VYes, said the man, it suits me too, but I am frightfully hungry, just give me something to eat.
p751
sba(i__main__
Sentence
p752
(dp753
g17
I12
sg18
(lp754
S'Said'
p755
aS'the'
p756
aS'wife'
p757
aS','
p758
aS'but'
p759
aS'I'
p760
aS'have'
p761
aS'got'
p762
aS'nothing'
p763
aS'and'
p764
aS'do'
p765
aS"n't"
p766
aS'know'
p767
aS'where'
p768
aS'to'
p769
aS'find'
p770
aS'anything'
p771
aS'in'
p772
aS'this'
p773
aS'new'
p774
aS'house'
p775
aS'.'
p776
asg54
(lp777
VSaid
p778
aVthe
p779
aVwife
p780
ag71
aVbut
p781
ag253
aVhave
p782
aVget
p783
aVnothing
p784
aVand
p785
aVdo
p786
aVn't
p787
aVknow
p788
aVwhere
p789
aVto
p790
aVfind
p791
aVanything
p792
aVin
p793
aVthis
p794
aVnew
p795
aVhouse
p796
ag86
asg87
(lp797
g89
ag89
ag89
ag89
ag89
ag89
ag89
ag89
ag89
ag89
ag89
ag89
ag89
ag89
ag89
ag89
ag89
ag89
ag89
ag89
ag89
ag89
asg90
(lp798
S'NNP'
p799
ag95
ag97
ag101
ag98
ag172
ag311
ag264
ag97
ag98
ag311
ag94
ag105
ag174
ag104
ag105
ag97
ag103
ag95
ag96
ag97
ag106
asg107
VSaid the wife, but I have got nothing and don't know where to find anything in this new house.
p800
sba(i__main__
Sentence
p801
(dp802
g17
I13
sg18
(lp803
S'There'
p804
aS'is'
p805
aS'no'
p806
aS'need'
p807
aS'of'
p808
aS'your'
p809
aS'knowing'
p810
aS','
p811
aS'said'
p812
aS'the'
p813
aS'man'
p814
aS','
p815
aS'for'
p816
aS'I'
p817
aS'see'
p818
aS'yonder'
p819
aS'a'
p820
aS'great'
p821
aS'cupboard'
p822
aS','
p823
aS'just'
p824
aS'unlock'
p825
aS'it'
p826
aS'.'
p827
asg54
(lp828
VThere
p829
ag299
aVno
p830
aVneed
p831
aVof
p832
aVyour
p833
aVknowing
p834
ag71
ag240
aVthe
p835
aVman
p836
ag71
aVfor
p837
ag253
aVsee
p838
aVyonder
p839
ag59
aVgreat
p840
aVcupboard
p841
ag71
aVjust
p842
aVunlock
p843
aVit
p844
ag86
asg87
(lp845
g89
ag89
ag89
ag89
ag89
ag89
ag89
ag89
ag89
ag89
ag89
ag89
ag89
ag89
ag89
ag89
ag89
ag89
ag89
ag89
ag89
ag89
ag89
ag89
asg90
(lp846
g92
ag310
ag95
ag97
ag103
ag102
ag97
ag101
ag93
ag95
ag97
ag101
ag103
ag172
ag311
ag97
ag95
ag96
ag97
ag101
ag94
ag97
ag172
ag106
asg107
VThere is no need of your knowing, said the man, for I see yonder a great cupboard, just unlock it.
p847
sba(i__main__
Sentence
p848
(dp849
g17
I14
sg18
(lp850
S'When'
p851
aS'she'
p852
aS'opened'
p853
aS'it'
p854
aS','
p855
aS'there'
p856
aS'stood'
p857
aS'cakes'
p858
aS','
p859
aS'meat'
p860
aS','
p861
aS'fruit'
p862
aS','
p863
aS'wine'
p864
aS','
p865
aS'quite'
p866
aS'a'
p867
aS'bright'
p868
aS'prospect'
p869
aS'.'
p870
asg54
(lp871
VWhen
p872
aVshe
p873
aVopen
p874
aVit
p875
ag71
aVthere
p876
aVstood
p877
aVcake
p878
ag71
aVmeat
p879
ag71
aVfruit
p880
ag71
aVwine
p881
ag71
aVquite
p882
ag59
aVbright
p883
aVprospect
p884
ag86
asg87
(lp885
g89
ag89
ag89
ag89
ag89
ag89
ag89
ag89
ag89
ag89
ag89
ag89
ag89
ag89
ag89
ag89
ag89
ag89
ag89
ag89
asg90
(lp886
g174
ag172
ag93
ag172
ag101
ag92
ag97
ag310
ag101
ag97
ag101
ag97
ag101
ag97
ag101
ag94
ag95
ag96
ag97
ag106
asg107
VWhen she opened it, there stood cakes, meat, fruit, wine, quite a bright prospect.
p887
sba(i__main__
Sentence
p888
(dp889
g17
I15
sg18
(lp890
S'Then'
p891
aS'the'
p892
aS'woman'
p893
aS'cried'
p894
aS'joyfully'
p895
aS','
p896
aS'what'
p897
aS'more'
p898
aS'can'
p899
aS'you'
p900
aS'want'
p901
aS','
p902
aS'my'
p903
aS'dear'
p904
aS'.'
p905
asg54
(lp906
VThen
p907
aVthe
p908
aVwoman
p909
aVcry
p910
aVjoyfully
p911
ag71
aVwhat
p912
aVmore
p913
aVcan
p914
aVyou
p915
aVwant
p916
ag71
aVmy
p917
aVdear
p918
ag86
asg87
(lp919
g89
ag89
ag89
ag89
ag89
ag89
ag89
ag89
ag89
ag89
ag89
ag89
ag89
ag89
ag89
asg90
(lp920
g94
ag95
ag97
ag93
ag94
ag101
ag404
aS'JJR'
p921
ag265
ag172
ag105
ag101
ag102
ag97
ag106
asg107
VThen the woman cried joyfully, what more can you want, my dear.
p922
sba(i__main__
Sentence
p923
(dp924
g17
I16
sg18
(lp925
S'And'
p926
aS'they'
p927
aS'sat'
p928
aS'down'
p929
aS','
p930
aS'and'
p931
aS'ate'
p932
aS'and'
p933
aS'drank'
p934
aS'together'
p935
aS'.'
p936
asg54
(lp937
VAnd
p938
aVthey
p939
aVsit
p940
aVdown
p941
ag71
aVand
p942
aVeat
p943
aVand
p944
aVdrink
p945
aVtogether
p946
ag86
asg87
(lp947
g89
ag89
ag89
ag89
ag89
ag89
ag89
ag89
ag89
ag89
ag89
asg90
(lp948
g98
ag172
ag311
ag175
ag101
ag98
ag105
ag98
ag105
ag175
ag106
asg107
VAnd they sat down, and ate and drank together.
p949
sba(i__main__
Sentence
p950
(dp951
g17
I17
sg18
(lp952
S'When'
p953
aS'they'
p954
aS'had'
p955
aS'had'
p956
aS'enough'
p957
aS','
p958
aS'the'
p959
aS'woman'
p960
aS'said'
p961
aS','
p962
aS'but'
p963
aS'husband'
p964
aS','
p965
aS'whence'
p966
aS'come'
p967
aS'all'
p968
aS'these'
p969
aS'riches'
p970
aS'.'
p971
asg54
(lp972
VWhen
p973
aVthey
p974
ag66
ag66
aVenough
p975
ag71
aVthe
p976
aVwoman
p977
ag240
ag71
aVbut
p978
aVhusband
p979
ag71
aVwhence
p980
aVcome
p981
aVall
p982
aVthese
p983
aVrich
p984
ag86
asg87
(lp985
g89
ag89
ag89
ag89
ag89
ag89
ag89
ag89
ag89
ag89
ag89
ag89
ag89
ag89
ag89
ag89
ag89
ag89
ag89
asg90
(lp986
g174
ag172
ag93
ag264
ag96
ag101
ag95
ag97
ag93
ag101
ag98
ag97
ag101
ag97
ag97
ag95
ag95
ag405
ag106
asg107
VWhen they had had enough, the woman said, but husband, whence come all these riches.
p987
sba(i__main__
Sentence
p988
(dp989
g17
I18
sg18
(lp990
S'Alas'
p991
aS','
p992
aS'answered'
p993
aS'he'
p994
aS','
p995
aS'do'
p996
aS'not'
p997
aS'question'
p998
aS'me'
p999
aS'about'
p1000
aS'it'
p1001
aS','
p1002
aS'for'
p1003
aS'I'
p1004
aS'dare'
p1005
aS'not'
p1006
aS'tell'
p1007
aS'you'
p1008
aS'anything'
p1009
aS'.'
p1010
asg54
(lp1011
VAlas
p1012
ag71
aVanswer
p1013
aVhe
p1014
ag71
aVdo
p1015
aVnot
p1016
aVquestion
p1017
aVme
p1018
aVabout
p1019
aVit
p1020
ag71
aVfor
p1021
ag253
aVdare
p1022
aVnot
p1023
aVtell
p1024
aVyou
p1025
aVanything
p1026
ag86
asg87
(lp1027
g89
ag89
ag89
ag89
ag89
ag89
ag89
ag89
ag89
ag89
ag89
ag89
ag89
ag89
ag89
ag89
ag89
ag89
ag89
ag89
asg90
(lp1028
g799
ag101
ag93
ag172
ag101
ag311
ag94
ag105
ag172
ag103
ag172
ag101
ag103
ag172
ag311
ag94
ag94
ag172
ag97
ag106
asg107
VAlas, answered he, do not question me about it, for I dare not tell you anything.
p1029
sba(i__main__
Sentence
p1030
(dp1031
g17
I19
sg18
(lp1032
S'If'
p1033
aS'I'
p1034
aS'disclose'
p1035
aS'it'
p1036
aS'to'
p1037
aS'anyone'
p1038
aS','
p1039
aS'then'
p1040
aS'all'
p1041
aS'our'
p1042
aS'good'
p1043
aS'fortune'
p1044
aS'will'
p1045
aS'disappear'
p1046
aS'.'
p1047
asg54
(lp1048
VIf
p1049
ag253
aVdisclose
p1050
aVit
p1051
aVto
p1052
aVanyone
p1053
ag71
aVthen
p1054
aVall
p1055
aVour
p1056
aVgood
p1057
aVfortune
p1058
aVwill
p1059
aVdisappear
p1060
ag86
asg87
(lp1061
g89
ag89
ag89
ag89
ag89
ag89
ag89
ag89
ag89
ag89
ag89
ag89
ag89
ag89
ag89
asg90
(lp1062
g103
ag172
ag311
ag172
ag104
ag97
ag101
ag94
ag95
ag102
ag96
ag97
ag265
ag105
ag106
asg107
VIf I disclose it to anyone, then all our good fortune will disappear.
p1063
sba(i__main__
Sentence
p1064
(dp1065
g17
I20
sg18
(lp1066
S'Very'
p1067
aS'good'
p1068
aS','
p1069
aS'said'
p1070
aS'she'
p1071
aS','
p1072
aS'if'
p1073
aS'I'
p1074
aS'am'
p1075
aS'not'
p1076
aS'to'
p1077
aS'know'
p1078
aS'anything'
p1079
aS','
p1080
aS'then'
p1081
aS'I'
p1082
aS'do'
p1083
aS'not'
p1084
aS'want'
p1085
aS'to'
p1086
aS'know'
p1087
aS'anything'
p1088
aS'.'
p1089
asg54
(lp1090
VVery
p1091
aVgood
p1092
ag71
ag240
aVshe
p1093
ag71
aVif
p1094
ag253
ag740
aVnot
p1095
aVto
p1096
aVknow
p1097
aVanything
p1098
ag71
aVthen
p1099
ag253
aVdo
p1100
aVnot
p1101
aVwant
p1102
aVto
p1103
aVknow
p1104
aVanything
p1105
ag86
asg87
(lp1106
g89
ag89
ag89
ag89
ag89
ag89
ag89
ag89
ag89
ag89
ag89
ag89
ag89
ag89
ag89
ag89
ag89
ag89
ag89
ag89
ag89
ag89
ag89
asg90
(lp1107
g799
ag93
ag101
ag93
ag172
ag101
ag103
ag172
ag311
ag94
ag104
ag105
ag97
ag101
ag94
ag172
ag311
ag94
ag105
ag104
ag105
ag97
ag106
asg107
VVery good, said she, if I am not to know anything, then I do not want to know anything.
p1108
sba(i__main__
Sentence
p1109
(dp1110
g17
I21
sg18
(lp1111
S'However'
p1112
aS','
p1113
aS'she'
p1114
aS'was'
p1115
aS'not'
p1116
aS'in'
p1117
aS'earnest'
p1118
aS'.'
p1119
asg54
(lp1120
VHowever
p1121
ag71
aVshe
p1122
ag57
aVnot
p1123
aVin
p1124
aVearnest
p1125
ag86
asg87
(lp1126
g89
ag89
ag89
ag89
ag89
ag89
ag89
ag89
asg90
(lp1127
g94
ag101
ag172
ag93
ag94
ag103
aS'JJS'
p1128
ag106
asg107
VHowever, she was not in earnest.
p1129
sba(i__main__
Sentence
p1130
(dp1131
g17
I22
sg18
(lp1132
S'She'
p1133
aS'never'
p1134
aS'rested'
p1135
aS'day'
p1136
aS'or'
p1137
aS'night'
p1138
aS','
p1139
aS'and'
p1140
aS'she'
p1141
aS'goaded'
p1142
aS'her'
p1143
aS'husband'
p1144
aS'until'
p1145
aS'in'
p1146
aS'his'
p1147
aS'impatience'
p1148
aS'he'
p1149
aS'revealed'
p1150
aS'that'
p1151
aS'all'
p1152
aS'was'
p1153
aS'owing'
p1154
aS'to'
p1155
aS'a'
p1156
aS'wonderful'
p1157
aS'golden'
p1158
aS'fish'
p1159
aS'which'
p1160
aS'he'
p1161
aS'had'
p1162
aS'caught'
p1163
aS','
p1164
aS'and'
p1165
aS'to'
p1166
aS'which'
p1167
aS'in'
p1168
aS'return'
p1169
aS'he'
p1170
aS'had'
p1171
aS'given'
p1172
aS'its'
p1173
aS'liberty'
p1174
aS'.'
p1175
asg54
(lp1176
VShe
p1177
aVnever
p1178
aVrest
p1179
aVday
p1180
aVor
p1181
aVnight
p1182
ag71
aVand
p1183
aVshe
p1184
aVgoad
p1185
aVher
p1186
aVhusband
p1187
aVuntil
p1188
aVin
p1189
aVhis
p1190
aVimpatience
p1191
aVhe
p1192
aVreveal
p1193
aVthat
p1194
aVall
p1195
ag57
aVowe
p1196
aVto
p1197
ag59
aVwonderful
p1198
aVgolden
p1199
aVfish
p1200
aVwhich
p1201
aVhe
p1202
ag66
aVcatch
p1203
ag71
aVand
p1204
aVto
p1205
aVwhich
p1206
aVin
p1207
aVreturn
p1208
aVhe
p1209
ag66
aVgive
p1210
aVit
p1211
aVliberty
p1212
ag86
asg87
(lp1213
g89
ag89
ag89
ag89
ag89
ag89
ag89
ag89
ag89
ag89
ag89
ag89
ag89
ag89
ag89
ag89
ag89
ag89
ag89
ag89
ag89
ag89
ag89
ag89
ag89
ag89
ag89
ag89
ag89
ag89
ag89
ag89
ag89
ag89
ag89
ag89
ag89
ag89
ag89
ag89
ag89
ag89
ag89
asg90
(lp1214
g172
ag94
ag93
ag97
ag98
ag97
ag101
ag98
ag172
ag93
ag102
ag97
ag103
ag103
ag102
ag97
ag172
ag93
ag103
ag95
ag93
ag100
ag104
ag95
ag96
ag97
ag97
ag404
ag172
ag93
ag264
ag101
ag98
ag104
ag404
ag103
ag97
ag172
ag93
ag264
ag102
ag97
ag106
asg107
VShe never rested day or night, and she goaded her husband until in his impatience he revealed that all was owing to a wonderful golden fish which he had caught, and to which in return he had given its liberty.
p1215
sba(i__main__
Sentence
p1216
(dp1217
g17
I23
sg18
(lp1218
S'And'
p1219
aS'as'
p1220
aS'soon'
p1221
aS'as'
p1222
aS'the'
p1223
aS'secret'
p1224
aS'was'
p1225
aS'out'
p1226
aS','
p1227
aS'the'
p1228
aS'splendid'
p1229
aS'castle'
p1230
aS'with'
p1231
aS'the'
p1232
aS'cupboard'
p1233
aS'immediately'
p1234
aS'disappeared'
p1235
aS','
p1236
aS'they'
p1237
aS'were'
p1238
aS'once'
p1239
aS'more'
p1240
aS'in'
p1241
aS'the'
p1242
aS'old'
p1243
aS'fisherman'
p1244
aS"'s"
p1245
aS'hut'
p1246
aS','
p1247
aS'and'
p1248
aS'the'
p1249
aS'man'
p1250
aS'was'
p1251
aS'obliged'
p1252
aS'to'
p1253
aS'follow'
p1254
aS'his'
p1255
aS'former'
p1256
aS'trade'
p1257
aS'and'
p1258
aS'fish'
p1259
aS'.'
p1260
asg54
(lp1261
VAnd
p1262
ag59
aVsoon
p1263
ag59
aVthe
p1264
aVsecret
p1265
ag57
aVout
p1266
ag71
aVthe
p1267
aVsplendid
p1268
aVcastle
p1269
aVwith
p1270
aVthe
p1271
aVcupboard
p1272
aVimmediately
p1273
aVdisappear
p1274
ag71
aVthey
p1275
aVbe
p1276
aVonce
p1277
aVmore
p1278
aVin
p1279
aVthe
p1280
aVold
p1281
aVfisherman
p1282
aV's
p1283
aVhut
p1284
ag71
aVand
p1285
aVthe
p1286
aVman
p1287
ag57
aVoblige
p1288
aVto
p1289
aVfollow
p1290
aVhis
p1291
aVformer
p1292
aVtrade
p1293
aVand
p1294
aVfish
p1295
ag86
asg87
(lp1296
g89
ag89
ag89
ag89
ag89
ag89
ag89
ag89
ag89
ag89
ag89
ag89
ag89
ag89
ag89
ag89
ag89
ag89
ag89
ag89
ag89
ag89
ag89
ag89
ag89
ag89
ag89
ag89
ag89
ag89
ag89
ag89
ag89
ag89
ag89
ag89
ag89
ag89
ag89
ag89
ag89
ag89
asg90
(lp1297
g98
ag103
ag94
ag103
ag95
ag97
ag93
ag103
ag101
ag95
ag97
ag97
ag103
ag95
ag97
ag94
ag93
ag101
ag172
ag93
ag94
aS'RBR'
p1298
ag103
ag95
ag96
ag97
aS'POS'
p1299
ag97
ag101
ag98
ag95
ag97
ag93
ag264
ag104
ag105
ag102
ag96
ag97
ag98
ag96
ag106
asg107
VAnd as soon as the secret was out, the splendid castle with the cupboard immediately disappeared, they were once more in the old fisherman's hut, and the man was obliged to follow his former trade and fish.
p1300
sba(i__main__
Sentence
p1301
(dp1302
g17
I24
sg18
(lp1303
S'But'
p1304
aS'fortune'
p1305
aS'would'
p1306
aS'so'
p1307
aS'have'
p1308
aS'it'
p1309
aS','
p1310
aS'that'
p1311
aS'he'
p1312
aS'once'
p1313
aS'more'
p1314
aS'drew'
p1315
aS'out'
p1316
aS'the'
p1317
aS'golden'
p1318
aS'fish'
p1319
aS'.'
p1320
asg54
(lp1321
VBut
p1322
aVfortune
p1323
aVwould
p1324
aVso
p1325
aVhave
p1326
aVit
p1327
ag71
aVthat
p1328
aVhe
p1329
aVonce
p1330
aVmore
p1331
aVdrew
p1332
aVout
p1333
aVthe
p1334
aVgolden
p1335
aVfish
p1336
ag86
asg87
(lp1337
g89
ag89
ag89
ag89
ag89
ag89
ag89
ag89
ag89
ag89
ag89
ag89
ag89
ag89
ag89
ag89
ag89
asg90
(lp1338
g98
ag97
ag265
ag94
ag105
ag172
ag101
ag103
ag172
ag94
ag1298
ag96
ag103
ag95
ag96
ag97
ag106
asg107
VBut fortune would so have it, that he once more drew out the golden fish.
p1339
sba(i__main__
Sentence
p1340
(dp1341
g17
I25
sg18
(lp1342
S'Listen'
p1343
aS','
p1344
aS'said'
p1345
aS'the'
p1346
aS'fish'
p1347
aS','
p1348
aS'if'
p1349
aS'you'
p1350
aS'will'
p1351
aS'throw'
p1352
aS'me'
p1353
aS'back'
p1354
aS'into'
p1355
aS'the'
p1356
aS'water'
p1357
aS'again'
p1358
aS','
p1359
aS'I'
p1360
aS'will'
p1361
aS'once'
p1362
aS'more'
p1363
aS'give'
p1364
aS'you'
p1365
aS'the'
p1366
aS'castle'
p1367
aS'with'
p1368
aS'the'
p1369
aS'cupboard'
p1370
aS'full'
p1371
aS'of'
p1372
aS'roast'
p1373
aS'and'
p1374
aS'boiled'
p1375
aS'meats'
p1376
aS'.'
p1377
asg54
(lp1378
VListen
p1379
ag71
ag240
aVthe
p1380
aVfish
p1381
ag71
aVif
p1382
aVyou
p1383
aVwill
p1384
aVthrow
p1385
aVme
p1386
aVback
p1387
aVinto
p1388
aVthe
p1389
aVwater
p1390
aVagain
p1391
ag71
ag253
aVwill
p1392
aVonce
p1393
aVmore
p1394
aVgive
p1395
aVyou
p1396
aVthe
p1397
aVcastle
p1398
aVwith
p1399
aVthe
p1400
aVcupboard
p1401
aVfull
p1402
aVof
p1403
aVroast
p1404
aVand
p1405
aVboil
p1406
aVmeat
p1407
ag86
asg87
(lp1408
g89
ag89
ag89
ag89
ag89
ag89
ag89
ag89
ag89
ag89
ag89
ag89
ag89
ag89
ag89
ag89
ag89
ag89
ag89
ag89
ag89
ag89
ag89
ag89
ag89
ag89
ag89
ag89
ag89
ag89
ag89
ag89
ag89
ag89
ag89
asg90
(lp1409
g799
ag101
ag93
ag95
ag96
ag101
ag103
ag172
ag265
ag105
ag172
ag94
ag103
ag95
ag97
ag94
ag101
ag172
ag265
ag94
ag1298
ag96
ag172
ag95
ag97
ag103
ag95
ag97
ag96
ag103
ag96
ag98
ag93
ag405
ag106
asg107
VListen, said the fish, if you will throw me back into the water again, I will once more give you the castle with the cupboard full of roast and boiled meats.
p1410
sba(i__main__
Sentence
p1411
(dp1412
g17
I26
sg18
(lp1413
S'Only'
p1414
aS'be'
p1415
aS'firm'
p1416
aS','
p1417
aS'for'
p1418
aS'your'
p1419
aS'life'
p1420
aS"'s"
p1421
aS'sake'
p1422
aS'do'
p1423
aS"n't"
p1424
aS'reveal'
p1425
aS'from'
p1426
aS'whom'
p1427
aS'you'
p1428
aS'have'
p1429
aS'it'
p1430
aS','
p1431
aS'or'
p1432
aS'you'
p1433
aS'will'
p1434
aS'lose'
p1435
aS'it'
p1436
aS'all'
p1437
aS'again'
p1438
aS'.'
p1439
asg54
(lp1440
VOnly
p1441
aVbe
p1442
aVfirm
p1443
ag71
aVfor
p1444
aVyour
p1445
aVlife
p1446
aV's
p1447
aVsake
p1448
aVdo
p1449
aVn't
p1450
aVreveal
p1451
aVfrom
p1452
aVwhom
p1453
aVyou
p1454
aVhave
p1455
aVit
p1456
ag71
aVor
p1457
aVyou
p1458
aVwill
p1459
aVlose
p1460
aVit
p1461
aVall
p1462
aVagain
p1463
ag86
asg87
(lp1464
g89
ag89
ag89
ag89
ag89
ag89
ag89
ag89
ag89
ag89
ag89
ag89
ag89
ag89
ag89
ag89
ag89
ag89
ag89
ag89
ag89
ag89
ag89
ag89
ag89
ag89
asg90
(lp1465
g94
ag105
ag97
ag101
ag103
ag102
ag97
ag1299
ag97
ag311
ag94
ag105
ag103
ag99
ag172
ag311
ag172
ag101
ag98
ag172
ag265
ag105
ag172
ag95
ag94
ag106
asg107
VOnly be firm, for your life's sake don't reveal from whom you have it, or you will lose it all again.
p1466
sba(i__main__
Sentence
p1467
(dp1468
g17
I27
sg18
(lp1469
S'I'
p1470
aS'will'
p1471
aS'take'
p1472
aS'good'
p1473
aS'care'
p1474
aS','
p1475
aS'answered'
p1476
aS'the'
p1477
aS'fisherman'
p1478
aS','
p1479
aS'and'
p1480
aS'threw'
p1481
aS'the'
p1482
aS'fish'
p1483
aS'back'
p1484
aS'into'
p1485
aS'the'
p1486
aS'water'
p1487
aS'.'
p1488
asg54
(lp1489
g253
aVwill
p1490
aVtake
p1491
aVgood
p1492
aVcare
p1493
ag71
aVanswer
p1494
aVthe
p1495
aVfisherman
p1496
ag71
aVand
p1497
ag563
aVthe
p1498
aVfish
p1499
aVback
p1500
aVinto
p1501
aVthe
p1502
aVwater
p1503
ag86
asg87
(lp1504
g89
ag89
ag89
ag89
ag89
ag89
ag89
ag89
ag89
ag89
ag89
ag89
ag89
ag89
ag89
ag89
ag89
ag89
ag89
asg90
(lp1505
g172
ag265
ag105
ag96
ag97
ag101
ag93
ag95
ag97
ag101
ag98
ag93
ag95
ag96
ag97
ag103
ag95
ag97
ag106
asg107
VI will take good care, answered the fisherman, and threw the fish back into the water.
p1506
sba(i__main__
Sentence
p1507
(dp1508
g17
I28
sg18
(lp1509
S'Now'
p1510
aS'at'
p1511
aS'home'
p1512
aS'everything'
p1513
aS'was'
p1514
aS'once'
p1515
aS'more'
p1516
aS'in'
p1517
aS'its'
p1518
aS'former'
p1519
aS'magnificence'
p1520
aS','
p1521
aS'and'
p1522
aS'the'
p1523
aS'wife'
p1524
aS'was'
p1525
aS'overjoyed'
p1526
aS'at'
p1527
aS'their'
p1528
aS'good'
p1529
aS'fortune'
p1530
aS','
p1531
aS'but'
p1532
aS'curiosity'
p1533
aS'left'
p1534
aS'her'
p1535
aS'no'
p1536
aS'peace'
p1537
aS','
p1538
aS'so'
p1539
aS'that'
p1540
aS'after'
p1541
aS'a'
p1542
aS'couple'
p1543
aS'of'
p1544
aS'days'
p1545
aS'she'
p1546
aS'began'
p1547
aS'to'
p1548
aS'ask'
p1549
aS'again'
p1550
aS'how'
p1551
aS'it'
p1552
aS'had'
p1553
aS'come'
p1554
aS'to'
p1555
aS'pass'
p1556
aS','
p1557
aS'and'
p1558
aS'how'
p1559
aS'he'
p1560
aS'had'
p1561
aS'managed'
p1562
aS'to'
p1563
aS'secure'
p1564
aS'it'
p1565
aS'.'
p1566
asg54
(lp1567
VNow
p1568
aVat
p1569
aVhome
p1570
aVeverything
p1571
ag57
aVonce
p1572
aVmore
p1573
aVin
p1574
aVit
p1575
aVformer
p1576
aVmagnificence
p1577
ag71
aVand
p1578
aVthe
p1579
aVwife
p1580
ag57
aVoverjoy
p1581
aVat
p1582
aVtheir
p1583
aVgood
p1584
aVfortune
p1585
ag71
aVbut
p1586
aVcuriosity
p1587
aVleave
p1588
aVher
p1589
aVno
p1590
aVpeace
p1591
ag71
aVso
p1592
aVthat
p1593
aVafter
p1594
ag59
aVcouple
p1595
aVof
p1596
aVday
p1597
aVshe
p1598
ag236
aVto
p1599
aVask
p1600
aVagain
p1601
aVhow
p1602
aVit
p1603
ag66
aVcome
p1604
aVto
p1605
aVpass
p1606
ag71
aVand
p1607
aVhow
p1608
aVhe
p1609
ag66
aVmanage
p1610
aVto
p1611
aVsecure
p1612
aVit
p1613
ag86
asg87
(lp1614
g89
ag89
ag89
ag89
ag89
ag89
ag89
ag89
ag89
ag89
ag89
ag89
ag89
ag89
ag89
ag89
ag89
ag89
ag89
ag89
ag89
ag89
ag89
ag89
ag89
ag89
ag89
ag89
ag89
ag89
ag89
ag89
ag89
ag89
ag89
ag89
ag89
ag89
ag89
ag89
ag89
ag89
ag89
ag89
ag89
ag89
ag89
ag89
ag89
ag89
ag89
ag89
ag89
ag89
ag89
ag89
ag89
asg90
(lp1615
g94
ag103
ag97
ag97
ag93
ag94
ag921
ag103
ag102
ag96
ag97
ag101
ag98
ag95
ag97
ag93
ag264
ag103
ag102
ag96
ag97
ag101
ag98
ag97
ag93
ag172
ag95
ag97
ag101
ag94
ag103
ag103
ag95
ag97
ag103
ag405
ag172
ag93
ag104
ag105
ag94
ag174
ag172
ag93
ag264
ag104
ag105
ag101
ag98
ag174
ag172
ag93
ag264
ag104
ag105
ag172
ag106
asg107
VNow at home everything was once more in its former magnificence, and the wife was overjoyed at their good fortune, but curiosity left her no peace, so that after a couple of days she began to ask again how it had come to pass, and how he had managed to secure it.
p1616
sba(i__main__
Sentence
p1617
(dp1618
g17
I29
sg18
(lp1619
S'The'
p1620
aS'man'
p1621
aS'kept'
p1622
aS'silence'
p1623
aS'for'
p1624
aS'a'
p1625
aS'short'
p1626
aS'time'
p1627
aS','
p1628
aS'but'
p1629
aS'at'
p1630
aS'last'
p1631
aS'she'
p1632
aS'made'
p1633
aS'him'
p1634
aS'so'
p1635
aS'angry'
p1636
aS'that'
p1637
aS'he'
p1638
aS'broke'
p1639
aS'out'
p1640
aS','
p1641
aS'and'
p1642
aS'betrayed'
p1643
aS'the'
p1644
aS'secret'
p1645
aS'.'
p1646
asg54
(lp1647
VThe
p1648
aVman
p1649
aVkeep
p1650
aVsilence
p1651
aVfor
p1652
ag59
aVshort
p1653
aVtime
p1654
ag71
aVbut
p1655
aVat
p1656
aVlast
p1657
aVshe
p1658
aVmake
p1659
aVhim
p1660
aVso
p1661
aVangry
p1662
aVthat
p1663
aVhe
p1664
aVbreak
p1665
aVout
p1666
ag71
aVand
p1667
aVbetray
p1668
aVthe
p1669
aVsecret
p1670
ag86
asg87
(lp1671
g89
ag89
ag89
ag89
ag89
ag89
ag89
ag89
ag89
ag89
ag89
ag89
ag89
ag89
ag89
ag89
ag89
ag89
ag89
ag89
ag89
ag89
ag89
ag89
ag89
ag89
ag89
asg90
(lp1672
g95
ag97
ag93
ag97
ag103
ag95
ag96
ag97
ag101
ag98
ag103
ag96
ag172
ag93
ag172
ag94
ag96
ag103
ag172
ag93
ag175
ag101
ag98
ag93
ag95
ag97
ag106
asg107
VThe man kept silence for a short time, but at last she made him so angry that he broke out, and betrayed the secret.
p1673
sba(i__main__
Sentence
p1674
(dp1675
g17
I30
sg18
(lp1676
S'In'
p1677
aS'an'
p1678
aS'instant'
p1679
aS'the'
p1680
aS'castle'
p1681
aS'disappeared'
p1682
aS','
p1683
aS'and'
p1684
aS'they'
p1685
aS'were'
p1686
aS'back'
p1687
aS'again'
p1688
aS'in'
p1689
aS'their'
p1690
aS'old'
p1691
aS'hut'
p1692
aS'.'
p1693
asg54
(lp1694
VIn
p1695
aVan
p1696
aVinstant
p1697
aVthe
p1698
aVcastle
p1699
aVdisappear
p1700
ag71
aVand
p1701
aVthey
p1702
ag1276
aVback
p1703
aVagain
p1704
aVin
p1705
aVtheir
p1706
aVold
p1707
aVhut
p1708
ag86
asg87
(lp1709
g89
ag89
ag89
ag89
ag89
ag89
ag89
ag89
ag89
ag89
ag89
ag89
ag89
ag89
ag89
ag89
ag89
asg90
(lp1710
g103
ag95
ag96
ag95
ag97
ag93
ag101
ag98
ag172
ag93
ag94
ag94
ag103
ag102
ag96
ag97
ag106
asg107
VIn an instant the castle disappeared, and they were back again in their old hut.
p1711
sba(i__main__
Sentence
p1712
(dp1713
g17
I31
sg18
(lp1714
S'Now'
p1715
aS'you'
p1716
aS'have'
p1717
aS'got'
p1718
aS'what'
p1719
aS'you'
p1720
aS'want'
p1721
aS','
p1722
aS'said'
p1723
aS'he'
p1724
aS','
p1725
aS'and'
p1726
aS'we'
p1727
aS'can'
p1728
aS'gnaw'
p1729
aS'at'
p1730
aS'a'
p1731
aS'bare'
p1732
aS'bone'
p1733
aS'again'
p1734
aS'.'
p1735
asg54
(lp1736
VNow
p1737
aVyou
p1738
aVhave
p1739
ag783
aVwhat
p1740
aVyou
p1741
aVwant
p1742
ag71
ag240
aVhe
p1743
ag71
aVand
p1744
aVwe
p1745
aVcan
p1746
aVgnaw
p1747
aVat
p1748
ag59
aVbare
p1749
aVbone
p1750
aVagain
p1751
ag86
asg87
(lp1752
g89
ag89
ag89
ag89
ag89
ag89
ag89
ag89
ag89
ag89
ag89
ag89
ag89
ag89
ag89
ag89
ag89
ag89
ag89
ag89
ag89
asg90
(lp1753
g94
ag172
ag311
ag264
ag99
ag172
ag311
ag101
ag93
ag172
ag101
ag98
ag172
ag265
ag105
ag103
ag95
ag97
ag97
ag94
ag106
asg107
VNow you have got what you want, said he, and we can gnaw at a bare bone again.
p1754
sba(i__main__
Sentence
p1755
(dp1756
g17
I32
sg18
(lp1757
S'Ah'
p1758
aS','
p1759
aS'said'
p1760
aS'the'
p1761
aS'woman'
p1762
aS','
p1763
aS'I'
p1764
aS'had'
p1765
aS'rather'
p1766
aS'not'
p1767
aS'have'
p1768
aS'riches'
p1769
aS'if'
p1770
aS'I'
p1771
aS'am'
p1772
aS'not'
p1773
aS'to'
p1774
aS'know'
p1775
aS'from'
p1776
aS'whom'
p1777
aS'they'
p1778
aS'come'
p1779
aS','
p1780
aS'for'
p1781
aS'then'
p1782
aS'I'
p1783
aS'have'
p1784
aS'no'
p1785
aS'peace'
p1786
aS'.'
p1787
asg54
(lp1788
VAh
p1789
ag71
ag240
aVthe
p1790
aVwoman
p1791
ag71
ag253
ag66
aVrather
p1792
aVnot
p1793
aVhave
p1794
aVrich
p1795
aVif
p1796
ag253
ag740
aVnot
p1797
aVto
p1798
aVknow
p1799
aVfrom
p1800
aVwhom
p1801
aVthey
p1802
aVcome
p1803
ag71
aVfor
p1804
aVthen
p1805
ag253
aVhave
p1806
aVno
p1807
aVpeace
p1808
ag86
asg87
(lp1809
g89
ag89
ag89
ag89
ag89
ag89
ag89
ag89
ag89
ag89
ag89
ag89
ag89
ag89
ag89
ag89
ag89
ag89
ag89
ag89
ag89
ag89
ag89
ag89
ag89
ag89
ag89
ag89
ag89
ag89
asg90
(lp1810
g799
ag101
ag93
ag95
ag97
ag101
ag172
ag93
ag94
ag94
ag105
ag405
ag103
ag172
ag311
ag94
ag104
ag105
ag103
ag99
ag172
ag311
ag101
ag103
ag94
ag172
ag311
ag95
ag97
ag106
asg107
VAh, said the woman, I had rather not have riches if I am not to know from whom they come, for then I have no peace.
p1811
sba(i__main__
Sentence
p1812
(dp1813
g17
I33
sg18
(lp1814
S'The'
p1815
aS'man'
p1816
aS'went'
p1817
aS'back'
p1818
aS'to'
p1819
aS'fish'
p1820
aS','
p1821
aS'and'
p1822
aS'after'
p1823
aS'a'
p1824
aS'while'
p1825
aS'he'
p1826
aS'chanced'
p1827
aS'to'
p1828
aS'draw'
p1829
aS'out'
p1830
aS'the'
p1831
aS'gold'
p1832
aS'fish'
p1833
aS'for'
p1834
aS'a'
p1835
aS'third'
p1836
aS'time'
p1837
aS'.'
p1838
asg54
(lp1839
VThe
p1840
aVman
p1841
ag573
aVback
p1842
aVto
p1843
aVfish
p1844
ag71
aVand
p1845
aVafter
p1846
ag59
aVwhile
p1847
aVhe
p1848
aVchance
p1849
aVto
p1850
aVdraw
p1851
aVout
p1852
aVthe
p1853
aVgold
p1854
aVfish
p1855
aVfor
p1856
ag59
aVthird
p1857
aVtime
p1858
ag86
asg87
(lp1859
g89
ag89
ag89
ag89
ag89
ag89
ag89
ag89
ag89
ag89
ag89
ag89
ag89
ag89
ag89
ag89
ag89
ag89
ag89
ag89
ag89
ag89
ag89
ag89
asg90
(lp1860
g95
ag97
ag93
ag94
ag104
ag105
ag101
ag98
ag103
ag95
ag97
ag172
ag93
ag104
ag105
ag175
ag95
ag97
ag97
ag103
ag95
ag96
ag97
ag106
asg107
VThe man went back to fish, and after a while he chanced to draw out the gold fish for a third time.
p1861
sba(i__main__
Sentence
p1862
(dp1863
g17
I34
sg18
(lp1864
S'Listen'
p1865
aS','
p1866
aS'said'
p1867
aS'the'
p1868
aS'fish'
p1869
aS','
p1870
aS'I'
p1871
aS'see'
p1872
aS'very'
p1873
aS'well'
p1874
aS'that'
p1875
aS'I'
p1876
aS'am'
p1877
aS'fated'
p1878
aS'to'
p1879
aS'fall'
p1880
aS'into'
p1881
aS'your'
p1882
aS'hands'
p1883
aS','
p1884
aS'take'
p1885
aS'me'
p1886
aS'home'
p1887
aS'and'
p1888
aS'cut'
p1889
aS'me'
p1890
aS'into'
p1891
aS'six'
p1892
aS'pieces'
p1893
aS'.'
p1894
asg54
(lp1895
VListen
p1896
ag71
ag240
aVthe
p1897
aVfish
p1898
ag71
ag253
aVsee
p1899
aVvery
p1900
aVwell
p1901
aVthat
p1902
ag253
ag740
aVfat
p1903
aVto
p1904
aVfall
p1905
aVinto
p1906
aVyour
p1907
aVhand
p1908
ag71
aVtake
p1909
aVme
p1910
aVhome
p1911
aVand
p1912
aVcut
p1913
aVme
p1914
aVinto
p1915
aVsix
p1916
aVpiece
p1917
ag86
asg87
(lp1918
g89
ag89
ag89
ag89
ag89
ag89
ag89
ag89
ag89
ag89
ag89
ag89
ag89
ag89
ag89
ag89
ag89
ag89
ag89
ag89
ag89
ag89
ag89
ag89
ag89
ag89
ag89
ag89
ag89
ag89
asg90
(lp1919
g799
ag101
ag93
ag95
ag96
ag101
ag172
ag311
ag94
ag94
ag103
ag172
ag311
ag264
ag104
ag105
ag103
ag102
ag405
ag101
ag311
ag172
ag97
ag98
ag93
ag172
ag103
ag173
ag405
ag106
asg107
VListen, said the fish, I see very well that I am fated to fall into your hands, take me home and cut me into six pieces.
p1920
sba(i__main__
Sentence
p1921
(dp1922
g17
I35
sg18
(lp1923
S'Give'
p1924
aS'your'
p1925
aS'wife'
p1926
aS'two'
p1927
aS'of'
p1928
aS'them'
p1929
aS'to'
p1930
aS'eat'
p1931
aS','
p1932
aS'two'
p1933
aS'to'
p1934
aS'your'
p1935
aS'horse'
p1936
aS'and'
p1937
aS'bury'
p1938
aS'two'
p1939
aS'of'
p1940
aS'them'
p1941
aS'in'
p1942
aS'the'
p1943
aS'ground'
p1944
aS','
p1945
aS'then'
p1946
aS'they'
p1947
aS'will'
p1948
aS'bring'
p1949
aS'you'
p1950
aS'a'
p1951
aS'blessing'
p1952
aS'.'
p1953
asg54
(lp1954
VGive
p1955
aVyour
p1956
aVwife
p1957
aVtwo
p1958
aVof
p1959
aVthem
p1960
aVto
p1961
aVeat
p1962
ag71
aVtwo
p1963
aVto
p1964
aVyour
p1965
aVhorse
p1966
aVand
p1967
aVbury
p1968
aVtwo
p1969
aVof
p1970
aVthem
p1971
aVin
p1972
aVthe
p1973
aVground
p1974
ag71
aVthen
p1975
aVthey
p1976
aVwill
p1977
aVbring
p1978
aVyou
p1979
ag59
aVblessing
p1980
ag86
asg87
(lp1981
g89
ag89
ag89
ag89
ag89
ag89
ag89
ag89
ag89
ag89
ag89
ag89
ag89
ag89
ag89
ag89
ag89
ag89
ag89
ag89
ag89
ag89
ag89
ag89
ag89
ag89
ag89
ag89
ag89
ag89
asg90
(lp1982
g96
ag102
ag97
ag173
ag103
ag172
ag104
ag105
ag101
ag173
ag104
ag102
ag97
ag98
ag97
ag173
ag103
ag172
ag103
ag95
ag97
ag101
ag94
ag172
ag265
ag105
ag172
ag95
ag97
ag106
asg107
VGive your wife two of them to eat, two to your horse and bury two of them in the ground, then they will bring you a blessing.
p1983
sba(i__main__
Sentence
p1984
(dp1985
g17
I36
sg18
(lp1986
S'The'
p1987
aS'fisherman'
p1988
aS'took'
p1989
aS'the'
p1990
aS'fish'
p1991
aS'home'
p1992
aS'with'
p1993
aS'him'
p1994
aS','
p1995
aS'and'
p1996
aS'did'
p1997
aS'as'
p1998
aS'it'
p1999
aS'had'
p2000
aS'bidden'
p2001
aS'him'
p2002
aS'.'
p2003
asg54
(lp2004
VThe
p2005
aVfisherman
p2006
aVtake
p2007
aVthe
p2008
aVfish
p2009
aVhome
p2010
aVwith
p2011
aVhim
p2012
ag71
aVand
p2013
aVdo
p2014
ag59
aVit
p2015
ag66
aVbid
p2016
aVhim
p2017
ag86
asg87
(lp2018
g89
ag89
ag89
ag89
ag89
ag89
ag89
ag89
ag89
ag89
ag89
ag89
ag89
ag89
ag89
ag89
ag89
asg90
(lp2019
g95
ag97
ag93
ag95
ag96
ag97
ag103
ag172
ag101
ag98
ag93
ag103
ag172
ag93
ag264
ag172
ag106
asg107
VThe fisherman took the fish home with him, and did as it had bidden him.
p2020
sba(i__main__
Sentence
p2021
(dp2022
g17
I37
sg18
(lp2023
S'It'
p2024
aS'came'
p2025
aS'to'
p2026
aS'pass'
p2027
aS','
p2028
aS'however'
p2029
aS','
p2030
aS'that'
p2031
aS'from'
p2032
aS'the'
p2033
aS'two'
p2034
aS'pieces'
p2035
aS'that'
p2036
aS'were'
p2037
aS'buried'
p2038
aS'in'
p2039
aS'the'
p2040
aS'ground'
p2041
aS'two'
p2042
aS'golden'
p2043
aS'lilies'
p2044
aS'sprang'
p2045
aS'up'
p2046
aS','
p2047
aS'that'
p2048
aS'the'
p2049
aS'horse'
p2050
aS'had'
p2051
aS'two'
p2052
aS'golden'
p2053
aS'foals'
p2054
aS','
p2055
aS'and'
p2056
aS'the'
p2057
aS'fisherman'
p2058
aS"'s"
p2059
aS'wife'
p2060
aS'bore'
p2061
aS'two'
p2062
aS'children'
p2063
aS'who'
p2064
aS'were'
p2065
aS'made'
p2066
aS'entirely'
p2067
aS'of'
p2068
aS'gold'
p2069
aS'.'
p2070
asg54
(lp2071
VIt
p2072
ag146
aVto
p2073
aVpass
p2074
ag71
aVhowever
p2075
ag71
aVthat
p2076
aVfrom
p2077
aVthe
p2078
aVtwo
p2079
aVpiece
p2080
aVthat
p2081
ag1276
aVbury
p2082
aVin
p2083
aVthe
p2084
aVground
p2085
aVtwo
p2086
aVgolden
p2087
aVlily
p2088
aVspring
p2089
aVup
p2090
ag71
aVthat
p2091
aVthe
p2092
aVhorse
p2093
ag66
aVtwo
p2094
aVgolden
p2095
aVfoal
p2096
ag71
aVand
p2097
aVthe
p2098
aVfisherman
p2099
aV's
p2100
aVwife
p2101
aVbore
p2102
aVtwo
p2103
aVchild
p2104
aVwho
p2105
ag1276
ag1659
aVentirely
p2106
aVof
p2107
aVgold
p2108
ag86
asg87
(lp2109
g89
ag89
ag89
ag89
ag89
ag89
ag89
ag89
ag89
ag89
ag89
ag89
ag89
ag89
ag89
ag89
ag89
ag89
ag89
ag89
ag89
ag89
ag89
ag89
ag89
ag89
ag89
ag89
ag89
ag89
ag89
ag89
ag89
ag89
ag89
ag89
ag89
ag89
ag89
ag89
ag89
ag89
ag89
ag89
ag89
ag89
ag89
asg90
(lp2110
g172
ag93
ag104
ag105
ag101
ag94
ag101
ag103
ag103
ag95
ag173
ag405
ag404
ag93
ag264
ag103
ag95
ag97
ag173
ag96
ag405
ag311
ag175
ag101
ag103
ag95
ag97
ag93
ag173
ag264
ag405
ag101
ag98
ag95
ag97
ag1299
ag97
ag97
ag173
ag405
ag99
ag93
ag264
ag94
ag103
ag97
ag106
asg107
VIt came to pass, however, that from the two pieces that were buried in the ground two golden lilies sprang up, that the horse had two golden foals, and the fisherman's wife bore two children who were made entirely of gold.
p2111
sba(i__main__
Sentence
p2112
(dp2113
g17
I38
sg18
(lp2114
S'The'
p2115
aS'children'
p2116
aS'grew'
p2117
aS'up'
p2118
aS','
p2119
aS'became'
p2120
aS'tall'
p2121
aS'and'
p2122
aS'handsome'
p2123
aS','
p2124
aS'and'
p2125
aS'the'
p2126
aS'lilies'
p2127
aS'and'
p2128
aS'horses'
p2129
aS'grew'
p2130
aS'likewise'
p2131
aS'.'
p2132
asg54
(lp2133
VThe
p2134
ag2104
aVgrow
p2135
aVup
p2136
ag71
aVbecome
p2137
aVtall
p2138
aVand
p2139
aVhandsome
p2140
ag71
aVand
p2141
aVthe
p2142
aVlily
p2143
aVand
p2144
aVhorse
p2145
ag2135
aVlikewise
p2146
ag86
asg87
(lp2147
g89
ag89
ag89
ag89
ag89
ag89
ag89
ag89
ag89
ag89
ag89
ag89
ag89
ag89
ag89
ag89
ag89
ag89
asg90
(lp2148
g95
ag405
ag93
ag175
ag101
ag93
ag96
ag98
ag97
ag101
ag98
ag95
ag405
ag98
ag405
ag93
ag97
ag106
asg107
VThe children grew up, became tall and handsome, and the lilies and horses grew likewise.
p2149
sba(i__main__
Sentence
p2150
(dp2151
g17
I39
sg18
(lp2152
S'Then'
p2153
aS'they'
p2154
aS'said'
p2155
aS','
p2156
aS'father'
p2157
aS','
p2158
aS'we'
p2159
aS'want'
p2160
aS'to'
p2161
aS'mount'
p2162
aS'our'
p2163
aS'golden'
p2164
aS'steeds'
p2165
aS'and'
p2166
aS'travel'
p2167
aS'out'
p2168
aS'in'
p2169
aS'the'
p2170
aS'world'
p2171
aS'.'
p2172
asg54
(lp2173
VThen
p2174
aVthey
p2175
ag240
ag71
aVfather
p2176
ag71
aVwe
p2177
aVwant
p2178
aVto
p2179
aVmount
p2180
aVour
p2181
aVgolden
p2182
aVsteed
p2183
aVand
p2184
aVtravel
p2185
aVout
p2186
aVin
p2187
aVthe
p2188
aVworld
p2189
ag86
asg87
(lp2190
g89
ag89
ag89
ag89
ag89
ag89
ag89
ag89
ag89
ag89
ag89
ag89
ag89
ag89
ag89
ag89
ag89
ag89
ag89
ag89
asg90
(lp2191
g94
ag172
ag93
ag101
ag97
ag101
ag172
ag311
ag104
ag105
ag102
ag96
ag405
ag98
ag97
ag175
ag103
ag95
ag97
ag106
asg107
VThen they said, father, we want to mount our golden steeds and travel out in the world.
p2192
sba(i__main__
Sentence
p2193
(dp2194
g17
I40
sg18
(lp2195
S'But'
p2196
aS'he'
p2197
aS'answered'
p2198
aS'sorrowfully'
p2199
aS','
p2200
aS'how'
p2201
aS'shall'
p2202
aS'I'
p2203
aS'bear'
p2204
aS'it'
p2205
aS'if'
p2206
aS'you'
p2207
aS'go'
p2208
aS'away'
p2209
aS','
p2210
aS'and'
p2211
aS'I'
p2212
aS'know'
p2213
aS'not'
p2214
aS'how'
p2215
aS'it'
p2216
aS'fares'
p2217
aS'with'
p2218
aS'you'
p2219
aS'.'
p2220
asg54
(lp2221
VBut
p2222
aVhe
p2223
aVanswer
p2224
aVsorrowfully
p2225
ag71
aVhow
p2226
aVshall
p2227
ag253
aVbear
p2228
aVit
p2229
aVif
p2230
aVyou
p2231
aVgo
p2232
aVaway
p2233
ag71
aVand
p2234
ag253
aVknow
p2235
aVnot
p2236
aVhow
p2237
aVit
p2238
aVfare
p2239
aVwith
p2240
aVyou
p2241
ag86
asg87
(lp2242
g89
ag89
ag89
ag89
ag89
ag89
ag89
ag89
ag89
ag89
ag89
ag89
ag89
ag89
ag89
ag89
ag89
ag89
ag89
ag89
ag89
ag89
ag89
ag89
ag89
asg90
(lp2243
g98
ag172
ag93
ag94
ag101
ag174
ag265
ag172
ag105
ag172
ag103
ag172
ag311
ag94
ag101
ag98
ag172
ag311
ag94
ag174
ag172
ag310
ag103
ag172
ag106
asg107
VBut he answered sorrowfully, how shall I bear it if you go away, and I know not how it fares with you.
p2244
sba(i__main__
Sentence
p2245
(dp2246
g17
I41
sg18
(lp2247
S'Then'
p2248
aS'they'
p2249
aS'said'
p2250
aS','
p2251
aS'the'
p2252
aS'two'
p2253
aS'golden'
p2254
aS'lilies'
p2255
aS'remain'
p2256
aS'here'
p2257
aS'.'
p2258
asg54
(lp2259
VThen
p2260
aVthey
p2261
ag240
ag71
aVthe
p2262
aVtwo
p2263
aVgolden
p2264
aVlily
p2265
aVremain
p2266
aVhere
p2267
ag86
asg87
(lp2268
g89
ag89
ag89
ag89
ag89
ag89
ag89
ag89
ag89
ag89
ag89
asg90
(lp2269
g94
ag172
ag93
ag101
ag95
ag173
ag96
ag405
ag311
ag94
ag106
asg107
VThen they said, the two golden lilies remain here.
p2270
sba(i__main__
Sentence
p2271
(dp2272
g17
I42
sg18
(lp2273
S'By'
p2274
aS'them'
p2275
aS'you'
p2276
aS'can'
p2277
aS'see'
p2278
aS'how'
p2279
aS'it'
p2280
aS'is'
p2281
aS'with'
p2282
aS'us'
p2283
aS'.'
p2284
asg54
(lp2285
VBy
p2286
aVthem
p2287
aVyou
p2288
aVcan
p2289
aVsee
p2290
aVhow
p2291
aVit
p2292
ag299
aVwith
p2293
aVu
p2294
ag86
asg87
(lp2295
g89
ag89
ag89
ag89
ag89
ag89
ag89
ag89
ag89
ag89
ag89
asg90
(lp2296
g103
ag172
ag172
ag265
ag105
ag174
ag172
ag310
ag103
ag172
ag106
asg107
VBy them you can see how it is with us.
p2297
sba(i__main__
Sentence
p2298
(dp2299
g17
I43
sg18
(lp2300
S'If'
p2301
aS'they'
p2302
aS'are'
p2303
aS'fresh'
p2304
aS','
p2305
aS'then'
p2306
aS'we'
p2307
aS'are'
p2308
aS'in'
p2309
aS'health'
p2310
aS'.'
p2311
asg54
(lp2312
VIf
p2313
aVthey
p2314
aVbe
p2315
aVfresh
p2316
ag71
aVthen
p2317
aVwe
p2318
ag2315
aVin
p2319
aVhealth
p2320
ag86
asg87
(lp2321
g89
ag89
ag89
ag89
ag89
ag89
ag89
ag89
ag89
ag89
ag89
asg90
(lp2322
g103
ag172
ag311
ag96
ag101
ag94
ag172
ag311
ag103
ag97
ag106
asg107
VIf they are fresh, then we are in health.
p2323
sba(i__main__
Sentence
p2324
(dp2325
g17
I44
sg18
(lp2326
S'If'
p2327
aS'they'
p2328
aS'are'
p2329
aS'withered'
p2330
aS','
p2331
aS'we'
p2332
aS'are'
p2333
aS'ill'
p2334
aS'.'
p2335
asg54
(lp2336
VIf
p2337
aVthey
p2338
ag2315
aVwither
p2339
ag71
aVwe
p2340
ag2315
aVill
p2341
ag86
asg87
(lp2342
g89
ag89
ag89
ag89
ag89
ag89
ag89
ag89
ag89
asg90
(lp2343
g103
ag172
ag311
ag264
ag101
ag172
ag311
ag94
ag106
asg107
VIf they are withered, we are ill.
p2344
sba(i__main__
Sentence
p2345
(dp2346
g17
I45
sg18
(lp2347
S'If'
p2348
aS'they'
p2349
aS'perish'
p2350
aS','
p2351
aS'then'
p2352
aS'we'
p2353
aS'are'
p2354
aS'dead'
p2355
aS'.'
p2356
asg54
(lp2357
VIf
p2358
aVthey
p2359
aVperish
p2360
ag71
aVthen
p2361
aVwe
p2362
ag2315
aVdead
p2363
ag86
asg87
(lp2364
g89
ag89
ag89
ag89
ag89
ag89
ag89
ag89
ag89
asg90
(lp2365
g103
ag172
ag311
ag101
ag94
ag172
ag311
ag96
ag106
asg107
VIf they perish, then we are dead.
p2366
sba(i__main__
Sentence
p2367
(dp2368
g17
I46
sg18
(lp2369
S'So'
p2370
aS'they'
p2371
aS'rode'
p2372
aS'forth'
p2373
aS'and'
p2374
aS'came'
p2375
aS'to'
p2376
aS'an'
p2377
aS'inn'
p2378
aS','
p2379
aS'in'
p2380
aS'which'
p2381
aS'were'
p2382
aS'many'
p2383
aS'people'
p2384
aS','
p2385
aS'and'
p2386
aS'when'
p2387
aS'they'
p2388
aS'perceived'
p2389
aS'the'
p2390
aS'gold-children'
p2391
aS'they'
p2392
aS'began'
p2393
aS'to'
p2394
aS'laugh'
p2395
aS','
p2396
aS'and'
p2397
aS'jeer'
p2398
aS'.'
p2399
asg54
(lp2400
VSo
p2401
aVthey
p2402
aVride
p2403
aVforth
p2404
aVand
p2405
ag146
aVto
p2406
aVan
p2407
aVinn
p2408
ag71
aVin
p2409
aVwhich
p2410
ag1276
aVmany
p2411
aVpeople
p2412
ag71
aVand
p2413
aVwhen
p2414
aVthey
p2415
aVperceive
p2416
aVthe
p2417
aVgold-children
p2418
aVthey
p2419
ag236
aVto
p2420
aVlaugh
p2421
ag71
aVand
p2422
aVjeer
p2423
ag86
asg87
(lp2424
g89
ag89
ag89
ag89
ag89
ag89
ag89
ag89
ag89
ag89
ag89
ag89
ag89
ag89
ag89
ag89
ag89
ag89
ag89
ag89
ag89
ag89
ag89
ag89
ag89
ag89
ag89
ag89
ag89
ag89
asg90
(lp2425
g103
ag172
ag311
ag96
ag98
ag93
ag104
ag95
ag97
ag101
ag103
ag404
ag93
ag96
ag405
ag101
ag98
ag174
ag172
ag93
ag95
ag96
ag172
ag93
ag104
ag105
ag101
ag98
ag97
ag106
asg107
VSo they rode forth and came to an inn, in which were many people, and when they perceived the gold-children they began to laugh, and jeer.
p2426
sba(i__main__
Sentence
p2427
(dp2428
g17
I47
sg18
(lp2429
S'When'
p2430
aS'one'
p2431
aS'of'
p2432
aS'them'
p2433
aS'heard'
p2434
aS'the'
p2435
aS'mocking'
p2436
aS'he'
p2437
aS'felt'
p2438
aS'ashamed'
p2439
aS'and'
p2440
aS'would'
p2441
aS'not'
p2442
aS'go'
p2443
aS'out'
p2444
aS'into'
p2445
aS'the'
p2446
aS'world'
p2447
aS','
p2448
aS'but'
p2449
aS'turned'
p2450
aS'back'
p2451
aS'and'
p2452
aS'went'
p2453
aS'home'
p2454
aS'again'
p2455
aS'to'
p2456
aS'his'
p2457
aS'father'
p2458
aS'.'
p2459
asg54
(lp2460
VWhen
p2461
aVone
p2462
aVof
p2463
aVthem
p2464
aVhear
p2465
aVthe
p2466
aVmock
p2467
aVhe
p2468
aVfelt
p2469
aVashamed
p2470
aVand
p2471
aVwould
p2472
aVnot
p2473
aVgo
p2474
aVout
p2475
aVinto
p2476
aVthe
p2477
aVworld
p2478
ag71
aVbut
p2479
aVturn
p2480
aVback
p2481
aVand
p2482
ag573
aVhome
p2483
aVagain
p2484
aVto
p2485
aVhis
p2486
aVfather
p2487
ag86
asg87
(lp2488
g89
ag89
ag89
ag89
ag89
ag89
ag89
ag89
ag89
ag89
ag89
ag89
ag89
ag89
ag89
ag89
ag89
ag89
ag89
ag89
ag89
ag89
ag89
ag89
ag89
ag89
ag89
ag89
ag89
ag89
asg90
(lp2489
g174
ag173
ag103
ag172
ag311
ag95
ag100
ag172
ag93
ag264
ag98
ag265
ag94
ag105
ag175
ag103
ag95
ag97
ag101
ag98
ag93
ag175
ag98
ag93
ag97
ag94
ag104
ag102
ag97
ag106
asg107
VWhen one of them heard the mocking he felt ashamed and would not go out into the world, but turned back and went home again to his father.
p2490
sba(i__main__
Sentence
p2491
(dp2492
g17
I48
sg18
(lp2493
S'But'
p2494
aS'the'
p2495
aS'other'
p2496
aS'rode'
p2497
aS'forward'
p2498
aS'and'
p2499
aS'reached'
p2500
aS'a'
p2501
aS'great'
p2502
aS'forest'
p2503
aS'.'
p2504
asg54
(lp2505
VBut
p2506
aVthe
p2507
aVother
p2508
aVrode
p2509
aVforward
p2510
aVand
p2511
aVreach
p2512
ag59
aVgreat
p2513
aVforest
p2514
ag86
asg87
(lp2515
g89
ag89
ag89
ag89
ag89
ag89
ag89
ag89
ag89
ag89
ag89
asg90
(lp2516
g98
ag95
ag96
ag97
ag94
ag98
ag93
ag95
ag96
ag97
ag106
asg107
VBut the other rode forward and reached a great forest.
p2517
sba(i__main__
Sentence
p2518
(dp2519
g17
I49
sg18
(lp2520
S'As'
p2521
aS'he'
p2522
aS'was'
p2523
aS'about'
p2524
aS'to'
p2525
aS'enter'
p2526
aS'it'
p2527
aS','
p2528
aS'the'
p2529
aS'people'
p2530
aS'said'
p2531
aS','
p2532
aS'it'
p2533
aS'is'
p2534
aS'not'
p2535
aS'safe'
p2536
aS'for'
p2537
aS'you'
p2538
aS'to'
p2539
aS'ride'
p2540
aS'through'
p2541
aS','
p2542
aS'the'
p2543
aS'wood'
p2544
aS'is'
p2545
aS'full'
p2546
aS'of'
p2547
aS'robbers'
p2548
aS'who'
p2549
aS'would'
p2550
aS'treat'
p2551
aS'you'
p2552
aS'badly'
p2553
aS'.'
p2554
asg54
(lp2555
VAs
p2556
aVhe
p2557
ag57
aVabout
p2558
aVto
p2559
aVenter
p2560
aVit
p2561
ag71
aVthe
p2562
aVpeople
p2563
ag240
ag71
aVit
p2564
ag299
aVnot
p2565
aVsafe
p2566
aVfor
p2567
aVyou
p2568
aVto
p2569
aVride
p2570
aVthrough
p2571
ag71
aVthe
p2572
aVwood
p2573
ag299
aVfull
p2574
aVof
p2575
aVrobber
p2576
aVwho
p2577
aVwould
p2578
aVtreat
p2579
aVyou
p2580
aVbadly
p2581
ag86
asg87
(lp2582
g89
ag89
ag89
ag89
ag89
ag89
ag89
ag89
ag89
ag89
ag89
ag89
ag89
ag89
ag89
ag89
ag89
ag89
ag89
ag89
ag89
ag89
ag89
ag89
ag89
ag89
ag89
ag89
ag89
ag89
ag89
ag89
ag89
ag89
asg90
(lp2583
g103
ag172
ag93
ag103
ag104
ag105
ag172
ag101
ag95
ag405
ag93
ag101
ag172
ag310
ag94
ag96
ag103
ag172
ag104
ag105
ag103
ag101
ag95
ag97
ag310
ag96
ag103
ag405
ag99
ag265
ag105
ag172
ag94
ag106
asg107
VAs he was about to enter it, the people said, it is not safe for you to ride through, the wood is full of robbers who would treat you badly.
p2584
sba(i__main__
Sentence
p2585
(dp2586
g17
I50
sg18
(lp2587
S'You'
p2588
aS'will'
p2589
aS'fare'
p2590
aS'ill'
p2591
aS','
p2592
aS'and'
p2593
aS'when'
p2594
aS'they'
p2595
aS'see'
p2596
aS'that'
p2597
aS'you'
p2598
aS'are'
p2599
aS'all'
p2600
aS'of'
p2601
aS'gold'
p2602
aS','
p2603
aS'and'
p2604
aS'your'
p2605
aS'horse'
p2606
aS'likewise'
p2607
aS','
p2608
aS'they'
p2609
aS'will'
p2610
aS'assuredly'
p2611
aS'kill'
p2612
aS'you'
p2613
aS'.'
p2614
asg54
(lp2615
VYou
p2616
aVwill
p2617
aVfare
p2618
aVill
p2619
ag71
aVand
p2620
aVwhen
p2621
aVthey
p2622
aVsee
p2623
aVthat
p2624
aVyou
p2625
ag2315
aVall
p2626
aVof
p2627
aVgold
p2628
ag71
aVand
p2629
aVyour
p2630
aVhorse
p2631
aVlikewise
p2632
ag71
aVthey
p2633
aVwill
p2634
aVassuredly
p2635
aVkill
p2636
aVyou
p2637
ag86
asg87
(lp2638
g89
ag89
ag89
ag89
ag89
ag89
ag89
ag89
ag89
ag89
ag89
ag89
ag89
ag89
ag89
ag89
ag89
ag89
ag89
ag89
ag89
ag89
ag89
ag89
ag89
ag89
ag89
asg90
(lp2639
g172
ag265
ag105
ag97
ag101
ag98
ag174
ag172
ag311
ag103
ag172
ag311
ag95
ag103
ag97
ag101
ag98
ag102
ag97
ag97
ag101
ag172
ag265
ag94
ag105
ag172
ag106
asg107
VYou will fare ill, and when they see that you are all of gold, and your horse likewise, they will assuredly kill you.
p2640
sba(i__main__
Sentence
p2641
(dp2642
g17
I51
sg18
(lp2643
S'But'
p2644
aS'he'
p2645
aS'would'
p2646
aS'not'
p2647
aS'allow'
p2648
aS'himself'
p2649
aS'to'
p2650
aS'be'
p2651
aS'frightened'
p2652
aS','
p2653
aS'and'
p2654
aS'said'
p2655
aS','
p2656
aS'I'
p2657
aS'must'
p2658
aS'and'
p2659
aS'will'
p2660
aS'ride'
p2661
aS'through'
p2662
aS'it'
p2663
aS'.'
p2664
asg54
(lp2665
VBut
p2666
aVhe
p2667
aVwould
p2668
aVnot
p2669
aVallow
p2670
aVhimself
p2671
aVto
p2672
aVbe
p2673
aVfrighten
p2674
ag71
aVand
p2675
ag240
ag71
ag253
aVmust
p2676
aVand
p2677
aVwill
p2678
aVride
p2679
aVthrough
p2680
aVit
p2681
ag86
asg87
(lp2682
g89
ag89
ag89
ag89
ag89
ag89
ag89
ag89
ag89
ag89
ag89
ag89
ag89
ag89
ag89
ag89
ag89
ag89
ag89
ag89
ag89
asg90
(lp2683
g98
ag172
ag265
ag94
ag105
ag172
ag104
ag105
ag264
ag101
ag98
ag93
ag101
ag172
ag265
ag98
ag265
ag105
ag103
ag172
ag106
asg107
VBut he would not allow himself to be frightened, and said, I must and will ride through it.
p2684
sba(i__main__
Sentence
p2685
(dp2686
g17
I52
sg18
(lp2687
S'Then'
p2688
aS'he'
p2689
aS'took'
p2690
aS'bear-skins'
p2691
aS'and'
p2692
aS'covered'
p2693
aS'himself'
p2694
aS'and'
p2695
aS'his'
p2696
aS'horse'
p2697
aS'with'
p2698
aS'them'
p2699
aS','
p2700
aS'so'
p2701
aS'that'
p2702
aS'the'
p2703
aS'gold'
p2704
aS'was'
p2705
aS'no'
p2706
aS'more'
p2707
aS'to'
p2708
aS'be'
p2709
aS'seen'
p2710
aS','
p2711
aS'and'
p2712
aS'rode'
p2713
aS'fearlessly'
p2714
aS'into'
p2715
aS'the'
p2716
aS'forest'
p2717
aS'.'
p2718
asg54
(lp2719
VThen
p2720
aVhe
p2721
ag2007
aVbear-skins
p2722
aVand
p2723
aVcover
p2724
aVhimself
p2725
aVand
p2726
aVhis
p2727
aVhorse
p2728
aVwith
p2729
aVthem
p2730
ag71
aVso
p2731
aVthat
p2732
aVthe
p2733
aVgold
p2734
ag57
aVno
p2735
aVmore
p2736
aVto
p2737
aVbe
p2738
aVsee
p2739
ag71
aVand
p2740
ag2403
aVfearlessly
p2741
aVinto
p2742
aVthe
p2743
aVforest
p2744
ag86
asg87
(lp2745
g89
ag89
ag89
ag89
ag89
ag89
ag89
ag89
ag89
ag89
ag89
ag89
ag89
ag89
ag89
ag89
ag89
ag89
ag89
ag89
ag89
ag89
ag89
ag89
ag89
ag89
ag89
ag89
ag89
ag89
ag89
asg90
(lp2746
g94
ag172
ag93
ag405
ag98
ag93
ag172
ag98
ag102
ag97
ag103
ag172
ag101
ag94
ag103
ag95
ag97
ag93
ag95
ag1298
ag104
ag105
ag264
ag101
ag98
ag105
ag94
ag103
ag95
ag1128
ag106
asg107
VThen he took bear-skins and covered himself and his horse with them, so that the gold was no more to be seen, and rode fearlessly into the forest.
p2747
sba(i__main__
Sentence
p2748
(dp2749
g17
I53
sg18
(lp2750
S'When'
p2751
aS'he'
p2752
aS'had'
p2753
aS'ridden'
p2754
aS'onward'
p2755
aS'a'
p2756
aS'little'
p2757
aS'he'
p2758
aS'heard'
p2759
aS'a'
p2760
aS'rustling'
p2761
aS'in'
p2762
aS'the'
p2763
aS'bushes'
p2764
aS','
p2765
aS'and'
p2766
aS'heard'
p2767
aS'voices'
p2768
aS'speaking'
p2769
aS'together'
p2770
aS'.'
p2771
asg54
(lp2772
VWhen
p2773
aVhe
p2774
ag66
aVride
p2775
aVonward
p2776
ag59
aVlittle
p2777
aVhe
p2778
ag2465
ag59
aVrustling
p2779
aVin
p2780
aVthe
p2781
aVbush
p2782
ag71
aVand
p2783
aVheard
p2784
aVvoice
p2785
aVspeak
p2786
aVtogether
p2787
ag86
asg87
(lp2788
g89
ag89
ag89
ag89
ag89
ag89
ag89
ag89
ag89
ag89
ag89
ag89
ag89
ag89
ag89
ag89
ag89
ag89
ag89
ag89
ag89
asg90
(lp2789
g174
ag172
ag93
ag264
ag97
ag95
ag94
ag172
ag93
ag95
ag97
ag103
ag95
ag405
ag101
ag98
ag97
ag405
ag100
ag94
ag106
asg107
VWhen he had ridden onward a little he heard a rustling in the bushes, and heard voices speaking together.
p2790
sba(i__main__
Sentence
p2791
(dp2792
g17
I54
sg18
(lp2793
S'From'
p2794
aS'one'
p2795
aS'side'
p2796
aS'came'
p2797
aS'cries'
p2798
aS'of'
p2799
aS','
p2800
aS'there'
p2801
aS'is'
p2802
aS'one'
p2803
aS','
p2804
aS'but'
p2805
aS'from'
p2806
aS'the'
p2807
aS'other'
p2808
aS','
p2809
aS'let'
p2810
aS'him'
p2811
aS'go'
p2812
aS','
p2813
aS"'t"
p2814
aS'is'
p2815
aS'a'
p2816
aS'bearskin'
p2817
aS','
p2818
aS'as'
p2819
aS'poor'
p2820
aS'and'
p2821
aS'bare'
p2822
aS'as'
p2823
aS'a'
p2824
aS'church-mouse'
p2825
aS','
p2826
aS'what'
p2827
aS'should'
p2828
aS'we'
p2829
aS'gain'
p2830
aS'from'
p2831
aS'him'
p2832
aS'.'
p2833
asg54
(lp2834
VFrom
p2835
aVone
p2836
aVside
p2837
ag146
aVcry
p2838
aVof
p2839
ag71
aVthere
p2840
ag299
aVone
p2841
ag71
aVbut
p2842
aVfrom
p2843
aVthe
p2844
aVother
p2845
ag71
aVlet
p2846
aVhim
p2847
aVgo
p2848
ag71
aV't
p2849
ag299
ag59
aVbearskin
p2850
ag71
ag59
aVpoor
p2851
aVand
p2852
aVbare
p2853
ag59
ag59
aVchurch-mouse
p2854
ag71
aVwhat
p2855
aVshould
p2856
aVwe
p2857
aVgain
p2858
aVfrom
p2859
aVhim
p2860
ag86
asg87
(lp2861
g89
ag89
ag89
ag89
ag89
ag89
ag89
ag89
ag89
ag89
ag89
ag89
ag89
ag89
ag89
ag89
ag89
ag89
ag89
ag89
ag89
ag89
ag89
ag89
ag89
ag89
ag89
ag89
ag89
ag89
ag89
ag89
ag89
ag89
ag89
ag89
ag89
ag89
ag89
ag89
asg90
(lp2862
g103
ag173
ag97
ag93
ag405
ag103
ag101
ag92
ag310
ag173
ag101
ag98
ag103
ag95
ag96
ag101
ag105
ag172
ag105
ag101
ag96
ag310
ag95
ag97
ag101
ag103
ag96
ag98
ag97
ag103
ag95
ag96
ag101
ag99
ag265
ag172
ag105
ag103
ag172
ag106
asg107
VFrom one side came cries of, there is one, but from the other, let him go, 'tis a bearskin, as poor and bare as a church-mouse, what should we gain from him.
p2863
sba(i__main__
Sentence
p2864
(dp2865
g17
I55
sg18
(lp2866
S'So'
p2867
aS'the'
p2868
aS'gold-child'
p2869
aS'rode'
p2870
aS'joyfully'
p2871
aS'through'
p2872
aS'the'
p2873
aS'forest'
p2874
aS','
p2875
aS'and'
p2876
aS'no'
p2877
aS'evil'
p2878
aS'befell'
p2879
aS'him'
p2880
aS'.'
p2881
asg54
(lp2882
VSo
p2883
aVthe
p2884
aVgold-child
p2885
aVrode
p2886
aVjoyfully
p2887
aVthrough
p2888
aVthe
p2889
aVforest
p2890
ag71
aVand
p2891
aVno
p2892
aVevil
p2893
aVbefell
p2894
aVhim
p2895
ag86
asg87
(lp2896
g89
ag89
ag89
ag89
ag89
ag89
ag89
ag89
ag89
ag89
ag89
ag89
ag89
ag89
ag89
asg90
(lp2897
g103
ag95
ag96
ag97
ag94
ag103
ag95
ag1128
ag101
ag98
ag95
ag97
ag97
ag172
ag106
asg107
VSo the gold-child rode joyfully through the forest, and no evil befell him.
p2898
sba(i__main__
Sentence
p2899
(dp2900
g17
I56
sg18
(lp2901
S'One'
p2902
aS'day'
p2903
aS'he'
p2904
aS'entered'
p2905
aS'a'
p2906
aS'village'
p2907
aS'wherein'
p2908
aS'he'
p2909
aS'saw'
p2910
aS'a'
p2911
aS'maiden'
p2912
aS','
p2913
aS'who'
p2914
aS'was'
p2915
aS'so'
p2916
aS'beautiful'
p2917
aS'that'
p2918
aS'he'
p2919
aS'did'
p2920
aS'not'
p2921
aS'believe'
p2922
aS'that'
p2923
aS'any'
p2924
aS'more'
p2925
aS'beautiful'
p2926
aS'than'
p2927
aS'she'
p2928
aS'existed'
p2929
aS'in'
p2930
aS'the'
p2931
aS'world'
p2932
aS'.'
p2933
asg54
(lp2934
VOne
p2935
aVday
p2936
aVhe
p2937
aVenter
p2938
ag59
aVvillage
p2939
aVwherein
p2940
aVhe
p2941
aVsaw
p2942
ag59
aVmaiden
p2943
ag71
aVwho
p2944
ag57
aVso
p2945
aVbeautiful
p2946
aVthat
p2947
aVhe
p2948
ag2014
aVnot
p2949
aVbelieve
p2950
aVthat
p2951
aVany
p2952
aVmore
p2953
aVbeautiful
p2954
aVthan
p2955
aVshe
p2956
aVexist
p2957
aVin
p2958
aVthe
p2959
aVworld
p2960
ag86
asg87
(lp2961
g89
ag89
ag89
ag89
ag89
ag89
ag89
ag89
ag89
ag89
ag89
ag89
ag89
ag89
ag89
ag89
ag89
ag89
ag89
ag89
ag89
ag89
ag89
ag89
ag89
ag89
ag89
ag89
ag89
ag89
ag89
ag89
asg90
(lp2962
g173
ag97
ag172
ag93
ag95
ag97
ag97
ag172
ag93
ag95
ag97
ag101
ag99
ag93
ag94
ag96
ag103
ag172
ag93
ag94
ag105
ag103
ag95
ag1298
ag96
ag103
ag172
ag93
ag103
ag95
ag97
ag106
asg107
VOne day he entered a village wherein he saw a maiden, who was so beautiful that he did not believe that any more beautiful than she existed in the world.
p2963
sba(i__main__
Sentence
p2964
(dp2965
g17
I57
sg18
(lp2966
S'And'
p2967
aS'as'
p2968
aS'such'
p2969
aS'a'
p2970
aS'mighty'
p2971
aS'love'
p2972
aS'took'
p2973
aS'possession'
p2974
aS'of'
p2975
aS'him'
p2976
aS','
p2977
aS'he'
p2978
aS'went'
p2979
aS'up'
p2980
aS'to'
p2981
aS'her'
p2982
aS'and'
p2983
aS'said'
p2984
aS','
p2985
aS'I'
p2986
aS'love'
p2987
aS'you'
p2988
aS'with'
p2989
aS'my'
p2990
aS'whole'
p2991
aS'heart'
p2992
aS','
p2993
aS'will'
p2994
aS'you'
p2995
aS'be'
p2996
aS'my'
p2997
aS'wife'
p2998
aS'.'
p2999
asg54
(lp3000
VAnd
p3001
ag59
aVsuch
p3002
ag59
aVmighty
p3003
aVlove
p3004
ag2007
aVpossession
p3005
aVof
p3006
aVhim
p3007
ag71
aVhe
p3008
ag573
aVup
p3009
aVto
p3010
aVher
p3011
aVand
p3012
ag240
ag71
ag253
aVlove
p3013
aVyou
p3014
aVwith
p3015
aVmy
p3016
aVwhole
p3017
aVheart
p3018
ag71
aVwill
p3019
aVyou
p3020
aVbe
p3021
aVmy
p3022
aVwife
p3023
ag86
asg87
(lp3024
g89
ag89
ag89
ag89
ag89
ag89
ag89
ag89
ag89
ag89
ag89
ag89
ag89
ag89
ag89
ag89
ag89
ag89
ag89
ag89
ag89
ag89
ag89
ag89
ag89
ag89
ag89
ag89
ag89
ag89
ag89
ag89
ag89
asg90
(lp3025
g98
ag103
ag96
ag95
ag97
ag97
ag93
ag97
ag103
ag172
ag101
ag172
ag93
ag175
ag104
ag102
ag98
ag93
ag101
ag172
ag311
ag172
ag103
ag102
ag96
ag97
ag101
ag265
ag172
ag105
ag102
ag97
ag106
asg107
VAnd as such a mighty love took possession of him, he went up to her and said, I love you with my whole heart, will you be my wife.
p3026
sba(i__main__
Sentence
p3027
(dp3028
g17
I58
sg18
(lp3029
S'He'
p3030
aS','
p3031
aS'too'
p3032
aS','
p3033
aS'pleased'
p3034
aS'the'
p3035
aS'maiden'
p3036
aS'so'
p3037
aS'much'
p3038
aS'that'
p3039
aS'she'
p3040
aS'agreed'
p3041
aS'and'
p3042
aS'said'
p3043
aS','
p3044
aS'yes'
p3045
aS','
p3046
aS'I'
p3047
aS'will'
p3048
aS'be'
p3049
aS'your'
p3050
aS'wife'
p3051
aS','
p3052
aS'and'
p3053
aS'be'
p3054
aS'true'
p3055
aS'to'
p3056
aS'you'
p3057
aS'my'
p3058
aS'whole'
p3059
aS'life'
p3060
aS'long'
p3061
aS'.'
p3062
asg54
(lp3063
VHe
p3064
ag71
aVtoo
p3065
ag71
aVplease
p3066
aVthe
p3067
aVmaiden
p3068
aVso
p3069
aVmuch
p3070
aVthat
p3071
aVshe
p3072
aVagree
p3073
aVand
p3074
ag240
ag71
aVyes
p3075
ag71
ag253
aVwill
p3076
aVbe
p3077
aVyour
p3078
aVwife
p3079
ag71
aVand
p3080
aVbe
p3081
aVtrue
p3082
aVto
p3083
aVyou
p3084
aVmy
p3085
aVwhole
p3086
aVlife
p3087
aVlong
p3088
ag86
asg87
(lp3089
g89
ag89
ag89
ag89
ag89
ag89
ag89
ag89
ag89
ag89
ag89
ag89
ag89
ag89
ag89
ag89
ag89
ag89
ag89
ag89
ag89
ag89
ag89
ag89
ag89
ag89
ag89
ag89
ag89
ag89
ag89
ag89
ag89
asg90
(lp3090
g172
ag101
ag94
ag101
ag264
ag95
ag97
ag94
ag94
ag103
ag172
ag93
ag98
ag93
ag101
ag405
ag101
ag172
ag265
ag105
ag102
ag97
ag101
ag98
ag105
ag96
ag104
ag172
ag102
ag97
ag97
ag94
ag106
asg107
VHe, too, pleased the maiden so much that she agreed and said, yes, I will be your wife, and be true to you my whole life long.
p3091
sba(i__main__
Sentence
p3092
(dp3093
g17
I59
sg18
(lp3094
S'Then'
p3095
aS'they'
p3096
aS'were'
p3097
aS'married'
p3098
aS','
p3099
aS'and'
p3100
aS'just'
p3101
aS'as'
p3102
aS'they'
p3103
aS'were'
p3104
aS'in'
p3105
aS'the'
p3106
aS'greatest'
p3107
aS'happiness'
p3108
aS','
p3109
aS'home'
p3110
aS'came'
p3111
aS'the'
p3112
aS'father'
p3113
aS'of'
p3114
aS'the'
p3115
aS'bride'
p3116
aS','
p3117
aS'and'
p3118
aS'when'
p3119
aS'he'
p3120
aS'saw'
p3121
aS'that'
p3122
aS'his'
p3123
aS'daughter'
p3124
aS"'s"
p3125
aS'wedding'
p3126
aS'was'
p3127
aS'being'
p3128
aS'celebrated'
p3129
aS','
p3130
aS'he'
p3131
aS'was'
p3132
aS'astonished'
p3133
aS','
p3134
aS'and'
p3135
aS'said'
p3136
aS','
p3137
aS'where'
p3138
aS'is'
p3139
aS'the'
p3140
aS'bridegroom'
p3141
aS'.'
p3142
asg54
(lp3143
VThen
p3144
aVthey
p3145
ag1276
aVmarry
p3146
ag71
aVand
p3147
aVjust
p3148
ag59
aVthey
p3149
ag1276
aVin
p3150
aVthe
p3151
aVgreat
p3152
aVhappiness
p3153
ag71
aVhome
p3154
ag146
aVthe
p3155
aVfather
p3156
aVof
p3157
aVthe
p3158
aVbride
p3159
ag71
aVand
p3160
aVwhen
p3161
aVhe
p3162
aVsaw
p3163
aVthat
p3164
aVhis
p3165
aVdaughter
p3166
aV's
p3167
aVwedding
p3168
ag57
aVbe
p3169
aVcelebrate
p3170
ag71
aVhe
p3171
ag57
aVastonish
p3172
ag71
aVand
p3173
ag240
ag71
aVwhere
p3174
ag299
aVthe
p3175
aVbridegroom
p3176
ag86
asg87
(lp3177
g89
ag89
ag89
ag89
ag89
ag89
ag89
ag89
ag89
ag89
ag89
ag89
ag89
ag89
ag89
ag89
ag89
ag89
ag89
ag89
ag89
ag89
ag89
ag89
ag89
ag89
ag89
ag89
ag89
ag89
ag89
ag89
ag89
ag89
ag89
ag89
ag89
ag89
ag89
ag89
ag89
ag89
ag89
ag89
ag89
ag89
ag89
ag89
asg90
(lp3178
g94
ag172
ag93
ag264
ag101
ag98
ag94
ag103
ag172
ag93
ag103
ag95
ag1128
ag97
ag101
ag97
ag93
ag95
ag97
ag103
ag95
ag97
ag101
ag98
ag174
ag172
ag93
ag103
ag102
ag97
ag1299
ag97
ag93
ag100
ag264
ag101
ag172
ag93
ag264
ag101
ag98
ag93
ag101
ag174
ag310
ag95
ag97
ag106
asg107
VThen they were married, and just as they were in the greatest happiness, home came the father of the bride, and when he saw that his daughter's wedding was being celebrated, he was astonished, and said, where is the bridegroom.
p3179
sba(i__main__
Sentence
p3180
(dp3181
g17
I60
sg18
(lp3182
S'They'
p3183
aS'showed'
p3184
aS'him'
p3185
aS'the'
p3186
aS'gold-child'
p3187
aS','
p3188
aS'who'
p3189
aS','
p3190
aS'however'
p3191
aS','
p3192
aS'still'
p3193
aS'wore'
p3194
aS'his'
p3195
aS'bear-skins'
p3196
aS'.'
p3197
asg54
(lp3198
VThey
p3199
aVshow
p3200
aVhim
p3201
aVthe
p3202
aVgold-child
p3203
ag71
aVwho
p3204
ag71
aVhowever
p3205
ag71
aVstill
p3206
aVwear
p3207
aVhis
p3208
aVbear-skins
p3209
ag86
asg87
(lp3210
g89
ag89
ag89
ag89
ag89
ag89
ag89
ag89
ag89
ag89
ag89
ag89
ag89
ag89
ag89
asg90
(lp3211
g172
ag93
ag172
ag95
ag96
ag101
ag99
ag101
ag94
ag101
ag94
ag311
ag102
ag405
ag106
asg107
VThey showed him the gold-child, who, however, still wore his bear-skins.
p3212
sba(i__main__
Sentence
p3213
(dp3214
g17
I61
sg18
(lp3215
S'Then'
p3216
aS'the'
p3217
aS'father'
p3218
aS'said'
p3219
aS'wrathfully'
p3220
aS','
p3221
aS'a'
p3222
aS'bearskin'
p3223
aS'shall'
p3224
aS'never'
p3225
aS'have'
p3226
aS'my'
p3227
aS'daughter'
p3228
aS'.'
p3229
asg54
(lp3230
VThen
p3231
aVthe
p3232
aVfather
p3233
ag240
aVwrathfully
p3234
ag71
ag59
aVbearskin
p3235
aVshall
p3236
aVnever
p3237
aVhave
p3238
aVmy
p3239
aVdaughter
p3240
ag86
asg87
(lp3241
g89
ag89
ag89
ag89
ag89
ag89
ag89
ag89
ag89
ag89
ag89
ag89
ag89
ag89
asg90
(lp3242
g94
ag95
ag97
ag93
ag94
ag101
ag95
ag97
ag265
ag94
ag105
ag102
ag97
ag106
asg107
VThen the father said wrathfully, a bearskin shall never have my daughter.
p3243
sba(i__main__
Sentence
p3244
(dp3245
g17
I62
sg18
(lp3246
S'And'
p3247
aS'was'
p3248
aS'about'
p3249
aS'to'
p3250
aS'kill'
p3251
aS'him'
p3252
aS'.'
p3253
asg54
(lp3254
VAnd
p3255
ag57
aVabout
p3256
aVto
p3257
aVkill
p3258
aVhim
p3259
ag86
asg87
(lp3260
g89
ag89
ag89
ag89
ag89
ag89
ag89
asg90
(lp3261
g98
ag93
ag103
ag104
ag105
ag172
ag106
asg107
VAnd was about to kill him.
p3262
sba(i__main__
Sentence
p3263
(dp3264
g17
I63
sg18
(lp3265
S'Then'
p3266
aS'the'
p3267
aS'bride'
p3268
aS'begged'
p3269
aS'as'
p3270
aS'hard'
p3271
aS'as'
p3272
aS'she'
p3273
aS'could'
p3274
aS','
p3275
aS'and'
p3276
aS'said'
p3277
aS','
p3278
aS'he'
p3279
aS'is'
p3280
aS'my'
p3281
aS'husband'
p3282
aS','
p3283
aS'and'
p3284
aS'I'
p3285
aS'love'
p3286
aS'him'
p3287
aS'with'
p3288
aS'all'
p3289
aS'my'
p3290
aS'heart'
p3291
aS'.'
p3292
asg54
(lp3293
VThen
p3294
aVthe
p3295
aVbride
p3296
aVbeg
p3297
ag59
aVhard
p3298
ag59
aVshe
p3299
aVcould
p3300
ag71
aVand
p3301
ag240
ag71
aVhe
p3302
ag299
aVmy
p3303
aVhusband
p3304
ag71
aVand
p3305
ag253
aVlove
p3306
aVhim
p3307
aVwith
p3308
aVall
p3309
aVmy
p3310
aVheart
p3311
ag86
asg87
(lp3312
g89
ag89
ag89
ag89
ag89
ag89
ag89
ag89
ag89
ag89
ag89
ag89
ag89
ag89
ag89
ag89
ag89
ag89
ag89
ag89
ag89
ag89
ag89
ag89
ag89
ag89
ag89
asg90
(lp3313
g94
ag95
ag97
ag93
ag103
ag96
ag103
ag172
ag265
ag101
ag98
ag93
ag101
ag172
ag310
ag102
ag97
ag101
ag98
ag172
ag311
ag172
ag103
ag95
ag102
ag97
ag106
asg107
VThen the bride begged as hard as she could, and said, he is my husband, and I love him with all my heart.
p3314
sba(i__main__
Sentence
p3315
(dp3316
g17
I64
sg18
(lp3317
S'Until'
p3318
aS'at'
p3319
aS'last'
p3320
aS'he'
p3321
aS'allowed'
p3322
aS'himself'
p3323
aS'to'
p3324
aS'be'
p3325
aS'appeased'
p3326
aS'.'
p3327
asg54
(lp3328
VUntil
p3329
aVat
p3330
aVlast
p3331
aVhe
p3332
aVallow
p3333
aVhimself
p3334
aVto
p3335
aVbe
p3336
aVappease
p3337
ag86
asg87
(lp3338
g89
ag89
ag89
ag89
ag89
ag89
ag89
ag89
ag89
ag89
asg90
(lp3339
g103
ag103
ag96
ag172
ag93
ag172
ag104
ag105
ag264
ag106
asg107
VUntil at last he allowed himself to be appeased.
p3340
sba(i__main__
Sentence
p3341
(dp3342
g17
I65
sg18
(lp3343
S'Nevertheless'
p3344
aS'the'
p3345
aS'idea'
p3346
aS'never'
p3347
aS'left'
p3348
aS'his'
p3349
aS'thoughts'
p3350
aS','
p3351
aS'so'
p3352
aS'that'
p3353
aS'next'
p3354
aS'morning'
p3355
aS'he'
p3356
aS'rose'
p3357
aS'early'
p3358
aS','
p3359
aS'wishing'
p3360
aS'to'
p3361
aS'see'
p3362
aS'whether'
p3363
aS'his'
p3364
aS'daughter'
p3365
aS"'s"
p3366
aS'husband'
p3367
aS'was'
p3368
aS'a'
p3369
aS'common'
p3370
aS'ragged'
p3371
aS'beggar'
p3372
aS'.'
p3373
asg54
(lp3374
VNevertheless
p3375
aVthe
p3376
aVidea
p3377
aVnever
p3378
ag1588
aVhis
p3379
aVthought
p3380
ag71
aVso
p3381
aVthat
p3382
aVnext
p3383
aVmorning
p3384
aVhe
p3385
aVrise
p3386
aVearly
p3387
ag71
aVwish
p3388
aVto
p3389
aVsee
p3390
aVwhether
p3391
aVhis
p3392
aVdaughter
p3393
aV's
p3394
aVhusband
p3395
ag57
ag59
aVcommon
p3396
aVragged
p3397
aVbeggar
p3398
ag86
asg87
(lp3399
g89
ag89
ag89
ag89
ag89
ag89
ag89
ag89
ag89
ag89
ag89
ag89
ag89
ag89
ag89
ag89
ag89
ag89
ag89
ag89
ag89
ag89
ag89
ag89
ag89
ag89
ag89
ag89
ag89
ag89
asg90
(lp3400
g94
ag95
ag97
ag94
ag264
ag102
ag405
ag101
ag94
ag103
ag96
ag97
ag172
ag93
ag94
ag101
ag100
ag104
ag105
ag103
ag102
ag97
ag1299
ag97
ag93
ag95
ag96
ag96
ag97
ag106
asg107
VNevertheless the idea never left his thoughts, so that next morning he rose early, wishing to see whether his daughter's husband was a common ragged beggar.
p3401
sba(i__main__
Sentence
p3402
(dp3403
g17
I66
sg18
(lp3404
S'But'
p3405
aS'when'
p3406
aS'he'
p3407
aS'peeped'
p3408
aS'in'
p3409
aS','
p3410
aS'he'
p3411
aS'saw'
p3412
aS'a'
p3413
aS'magnificent'
p3414
aS'golden'
p3415
aS'man'
p3416
aS'in'
p3417
aS'the'
p3418
aS'bed'
p3419
aS','
p3420
aS'and'
p3421
aS'the'
p3422
aS'cast-off'
p3423
aS'bear-skins'
p3424
aS'lying'
p3425
aS'on'
p3426
aS'the'
p3427
aS'ground'
p3428
aS'.'
p3429
asg54
(lp3430
VBut
p3431
aVwhen
p3432
aVhe
p3433
aVpeep
p3434
aVin
p3435
ag71
aVhe
p3436
aVsaw
p3437
ag59
aVmagnificent
p3438
aVgolden
p3439
aVman
p3440
aVin
p3441
aVthe
p3442
aVbed
p3443
ag71
aVand
p3444
aVthe
p3445
aVcast-off
p3446
aVbear-skins
p3447
aVlie
p3448
aVon
p3449
aVthe
p3450
aVground
p3451
ag86
asg87
(lp3452
g89
ag89
ag89
ag89
ag89
ag89
ag89
ag89
ag89
ag89
ag89
ag89
ag89
ag89
ag89
ag89
ag89
ag89
ag89
ag89
ag89
ag89
ag89
ag89
ag89
asg90
(lp3453
g98
ag174
ag172
ag93
ag103
ag101
ag172
ag93
ag95
ag97
ag97
ag97
ag103
ag95
ag264
ag101
ag98
ag95
ag96
ag405
ag100
ag103
ag95
ag97
ag106
asg107
VBut when he peeped in, he saw a magnificent golden man in the bed, and the cast-off bear-skins lying on the ground.
p3454
sba(i__main__
Sentence
p3455
(dp3456
g17
I67
sg18
(lp3457
S'Then'
p3458
aS'he'
p3459
aS'went'
p3460
aS'back'
p3461
aS'and'
p3462
aS'thought'
p3463
aS','
p3464
aS'what'
p3465
aS'a'
p3466
aS'good'
p3467
aS'thing'
p3468
aS'it'
p3469
aS'was'
p3470
aS'that'
p3471
aS'I'
p3472
aS'restrained'
p3473
aS'my'
p3474
aS'anger'
p3475
aS'.'
p3476
asg54
(lp3477
VThen
p3478
aVhe
p3479
ag573
aVback
p3480
aVand
p3481
aVthink
p3482
ag71
aVwhat
p3483
ag59
aVgood
p3484
aVthing
p3485
aVit
p3486
ag57
aVthat
p3487
ag253
aVrestrain
p3488
aVmy
p3489
aVanger
p3490
ag86
asg87
(lp3491
g89
ag89
ag89
ag89
ag89
ag89
ag89
ag89
ag89
ag89
ag89
ag89
ag89
ag89
ag89
ag89
ag89
ag89
ag89
asg90
(lp3492
g94
ag172
ag93
ag94
ag98
ag93
ag101
ag99
ag95
ag96
ag97
ag172
ag93
ag103
ag172
ag93
ag102
ag97
ag106
asg107
VThen he went back and thought, what a good thing it was that I restrained my anger.
p3493
sba(i__main__
Sentence
p3494
(dp3495
g17
I68
sg18
(lp3496
S'I'
p3497
aS'would'
p3498
aS'have'
p3499
aS'committed'
p3500
aS'a'
p3501
aS'great'
p3502
aS'crime'
p3503
aS'.'
p3504
asg54
(lp3505
g253
aVwould
p3506
aVhave
p3507
aVcommit
p3508
ag59
aVgreat
p3509
aVcrime
p3510
ag86
asg87
(lp3511
g89
ag89
ag89
ag89
ag89
ag89
ag89
ag89
asg90
(lp3512
g172
ag265
ag105
ag264
ag95
ag96
ag97
ag106
asg107
VI would have committed a great crime.
p3513
sba(i__main__
Sentence
p3514
(dp3515
g17
I69
sg18
(lp3516
S'But'
p3517
aS'the'
p3518
aS'gold-child'
p3519
aS'dreamed'
p3520
aS'that'
p3521
aS'he'
p3522
aS'rode'
p3523
aS'out'
p3524
aS'to'
p3525
aS'hunt'
p3526
aS'a'
p3527
aS'splendid'
p3528
aS'stag'
p3529
aS','
p3530
aS'and'
p3531
aS'when'
p3532
aS'he'
p3533
aS'awoke'
p3534
aS'in'
p3535
aS'the'
p3536
aS'morning'
p3537
aS','
p3538
aS'he'
p3539
aS'said'
p3540
aS'to'
p3541
aS'his'
p3542
aS'wife'
p3543
aS','
p3544
aS'I'
p3545
aS'must'
p3546
aS'go'
p3547
aS'out'
p3548
aS'hunting'
p3549
aS'.'
p3550
asg54
(lp3551
VBut
p3552
aVthe
p3553
aVgold-child
p3554
aVdream
p3555
aVthat
p3556
aVhe
p3557
ag2403
aVout
p3558
aVto
p3559
aVhunt
p3560
ag59
aVsplendid
p3561
aVstag
p3562
ag71
aVand
p3563
aVwhen
p3564
aVhe
p3565
aVawake
p3566
aVin
p3567
aVthe
p3568
aVmorning
p3569
ag71
aVhe
p3570
ag240
aVto
p3571
aVhis
p3572
aVwife
p3573
ag71
ag253
aVmust
p3574
aVgo
p3575
aVout
p3576
aVhunt
p3577
ag86
asg87
(lp3578
g89
ag89
ag89
ag89
ag89
ag89
ag89
ag89
ag89
ag89
ag89
ag89
ag89
ag89
ag89
ag89
ag89
ag89
ag89
ag89
ag89
ag89
ag89
ag89
ag89
ag89
ag89
ag89
ag89
ag89
ag89
ag89
ag89
ag89
asg90
(lp3579
g98
ag95
ag96
ag264
ag103
ag172
ag311
ag175
ag104
ag105
ag95
ag96
ag97
ag101
ag98
ag174
ag172
ag311
ag103
ag95
ag97
ag101
ag172
ag93
ag104
ag102
ag97
ag101
ag172
ag265
ag105
ag175
ag100
ag106
asg107
VBut the gold-child dreamed that he rode out to hunt a splendid stag, and when he awoke in the morning, he said to his wife, I must go out hunting.
p3580
sba(i__main__
Sentence
p3581
(dp3582
g17
I70
sg18
(lp3583
S'She'
p3584
aS'was'
p3585
aS'uneasy'
p3586
aS','
p3587
aS'and'
p3588
aS'begged'
p3589
aS'him'
p3590
aS'to'
p3591
aS'stay'
p3592
aS'there'
p3593
aS','
p3594
aS'and'
p3595
aS'said'
p3596
aS','
p3597
aS'you'
p3598
aS'might'
p3599
aS'easily'
p3600
aS'meet'
p3601
aS'with'
p3602
aS'a'
p3603
aS'great'
p3604
aS'misfortune'
p3605
aS'.'
p3606
asg54
(lp3607
VShe
p3608
ag57
aVuneasy
p3609
ag71
aVand
p3610
ag3297
aVhim
p3611
aVto
p3612
aVstay
p3613
aVthere
p3614
ag71
aVand
p3615
ag240
ag71
aVyou
p3616
aVmight
p3617
aVeasily
p3618
aVmeet
p3619
aVwith
p3620
ag59
aVgreat
p3621
aVmisfortune
p3622
ag86
asg87
(lp3623
g89
ag89
ag89
ag89
ag89
ag89
ag89
ag89
ag89
ag89
ag89
ag89
ag89
ag89
ag89
ag89
ag89
ag89
ag89
ag89
ag89
ag89
ag89
asg90
(lp3624
g172
ag93
ag96
ag101
ag98
ag93
ag172
ag104
ag105
ag94
ag101
ag98
ag93
ag101
ag172
ag265
ag94
ag105
ag103
ag95
ag96
ag97
ag106
asg107
VShe was uneasy, and begged him to stay there, and said, you might easily meet with a great misfortune.
p3625
sba(i__main__
Sentence
p3626
(dp3627
g17
I71
sg18
(lp3628
S'But'
p3629
aS'he'
p3630
aS'answered'
p3631
aS','
p3632
aS'I'
p3633
aS'must'
p3634
aS'and'
p3635
aS'will'
p3636
aS'go'
p3637
aS'.'
p3638
asg54
(lp3639
VBut
p3640
aVhe
p3641
aVanswer
p3642
ag71
ag253
aVmust
p3643
aVand
p3644
aVwill
p3645
aVgo
p3646
ag86
asg87
(lp3647
g89
ag89
ag89
ag89
ag89
ag89
ag89
ag89
ag89
ag89
asg90
(lp3648
g98
ag172
ag93
ag101
ag172
ag265
ag98
ag265
ag105
ag106
asg107
VBut he answered, I must and will go.
p3649
sba(i__main__
Sentence
p3650
(dp3651
g17
I72
sg18
(lp3652
S'Thereupon'
p3653
aS'he'
p3654
aS'got'
p3655
aS'up'
p3656
aS','
p3657
aS'and'
p3658
aS'rode'
p3659
aS'forth'
p3660
aS'into'
p3661
aS'the'
p3662
aS'forest'
p3663
aS','
p3664
aS'and'
p3665
aS'it'
p3666
aS'was'
p3667
aS'not'
p3668
aS'long'
p3669
aS'before'
p3670
aS'a'
p3671
aS'fine'
p3672
aS'stag'
p3673
aS'crossed'
p3674
aS'his'
p3675
aS'path'
p3676
aS'exactly'
p3677
aS'according'
p3678
aS'to'
p3679
aS'his'
p3680
aS'dream'
p3681
aS'.'
p3682
asg54
(lp3683
VThereupon
p3684
aVhe
p3685
ag783
aVup
p3686
ag71
aVand
p3687
ag2403
aVforth
p3688
aVinto
p3689
aVthe
p3690
aVforest
p3691
ag71
aVand
p3692
aVit
p3693
ag57
aVnot
p3694
aVlong
p3695
aVbefore
p3696
ag59
aVfine
p3697
aVstag
p3698
aVcross
p3699
aVhis
p3700
aVpath
p3701
aVexactly
p3702
aVaccord
p3703
aVto
p3704
aVhis
p3705
aVdream
p3706
ag86
asg87
(lp3707
g89
ag89
ag89
ag89
ag89
ag89
ag89
ag89
ag89
ag89
ag89
ag89
ag89
ag89
ag89
ag89
ag89
ag89
ag89
ag89
ag89
ag89
ag89
ag89
ag89
ag89
ag89
ag89
ag89
ag89
asg90
(lp3708
g799
ag172
ag93
ag175
ag101
ag98
ag105
ag96
ag103
ag95
ag1128
ag101
ag98
ag172
ag93
ag94
ag94
ag103
ag95
ag97
ag97
ag93
ag102
ag97
ag94
ag100
ag104
ag102
ag97
ag106
asg107
VThereupon he got up, and rode forth into the forest, and it was not long before a fine stag crossed his path exactly according to his dream.
p3709
sba(i__main__
Sentence
p3710
(dp3711
g17
I73
sg18
(lp3712
S'He'
p3713
aS'aimed'
p3714
aS'and'
p3715
aS'was'
p3716
aS'about'
p3717
aS'to'
p3718
aS'shoot'
p3719
aS'it'
p3720
aS','
p3721
aS'when'
p3722
aS'the'
p3723
aS'stag'
p3724
aS'ran'
p3725
aS'away'
p3726
aS'.'
p3727
asg54
(lp3728
VHe
p3729
aVaim
p3730
aVand
p3731
ag57
aVabout
p3732
aVto
p3733
aVshoot
p3734
aVit
p3735
ag71
aVwhen
p3736
aVthe
p3737
aVstag
p3738
aVrun
p3739
aVaway
p3740
ag86
asg87
(lp3741
g89
ag89
ag89
ag89
ag89
ag89
ag89
ag89
ag89
ag89
ag89
ag89
ag89
ag89
ag89
asg90
(lp3742
g172
ag93
ag98
ag93
ag103
ag104
ag97
ag172
ag101
ag174
ag95
ag97
ag93
ag94
ag106
asg107
VHe aimed and was about to shoot it, when the stag ran away.
p3743
sba(i__main__
Sentence
p3744
(dp3745
g17
I74
sg18
(lp3746
S'He'
p3747
aS'gave'
p3748
aS'chase'
p3749
aS'over'
p3750
aS'hedges'
p3751
aS'and'
p3752
aS'ditches'
p3753
aS'for'
p3754
aS'the'
p3755
aS'whole'
p3756
aS'day'
p3757
aS'without'
p3758
aS'feeling'
p3759
aS'tired'
p3760
aS','
p3761
aS'but'
p3762
aS'in'
p3763
aS'the'
p3764
aS'evening'
p3765
aS'the'
p3766
aS'stag'
p3767
aS'vanished'
p3768
aS'from'
p3769
aS'his'
p3770
aS'sight'
p3771
aS','
p3772
aS'and'
p3773
aS'when'
p3774
aS'the'
p3775
aS'gold-child'
p3776
aS'looked'
p3777
aS'round'
p3778
aS'him'
p3779
aS','
p3780
aS'he'
p3781
aS'was'
p3782
aS'standing'
p3783
aS'before'
p3784
aS'a'
p3785
aS'little'
p3786
aS'house'
p3787
aS','
p3788
aS'wherein'
p3789
aS'sat'
p3790
aS'a'
p3791
aS'witch'
p3792
aS'.'
p3793
asg54
(lp3794
VHe
p3795
aVgive
p3796
aVchase
p3797
aVover
p3798
aVhedge
p3799
aVand
p3800
aVditch
p3801
aVfor
p3802
aVthe
p3803
aVwhole
p3804
aVday
p3805
aVwithout
p3806
aVfeel
p3807
aVtire
p3808
ag71
aVbut
p3809
aVin
p3810
aVthe
p3811
aVevening
p3812
aVthe
p3813
aVstag
p3814
aVvanish
p3815
aVfrom
p3816
aVhis
p3817
aVsight
p3818
ag71
aVand
p3819
aVwhen
p3820
aVthe
p3821
aVgold-child
p3822
aVlook
p3823
aVround
p3824
aVhim
p3825
ag71
aVhe
p3826
ag57
aVstand
p3827
aVbefore
p3828
ag59
aVlittle
p3829
aVhouse
p3830
ag71
aVwherein
p3831
aVsat
p3832
ag59
aVwitch
p3833
ag86
asg87
(lp3834
g89
ag89
ag89
ag89
ag89
ag89
ag89
ag89
ag89
ag89
ag89
ag89
ag89
ag89
ag89
ag89
ag89
ag89
ag89
ag89
ag89
ag89
ag89
ag89
ag89
ag89
ag89
ag89
ag89
ag89
ag89
ag89
ag89
ag89
ag89
ag89
ag89
ag89
ag89
ag89
ag89
ag89
ag89
ag89
ag89
ag89
ag89
asg90
(lp3835
g172
ag93
ag105
ag103
ag405
ag98
ag405
ag103
ag95
ag96
ag97
ag103
ag100
ag264
ag101
ag98
ag103
ag95
ag97
ag95
ag97
ag93
ag103
ag102
ag97
ag101
ag98
ag174
ag95
ag799
ag93
ag97
ag172
ag101
ag172
ag93
ag100
ag94
ag95
ag94
ag97
ag101
ag97
ag97
ag95
ag97
ag106
asg107
VHe gave chase over hedges and ditches for the whole day without feeling tired, but in the evening the stag vanished from his sight, and when the gold-child looked round him, he was standing before a little house, wherein sat a witch.
p3836
sba(i__main__
Sentence
p3837
(dp3838
g17
I75
sg18
(lp3839
S'He'
p3840
aS'knocked'
p3841
aS'and'
p3842
aS'a'
p3843
aS'little'
p3844
aS'old'
p3845
aS'woman'
p3846
aS'came'
p3847
aS'out'
p3848
aS'and'
p3849
aS'asked'
p3850
aS','
p3851
aS'what'
p3852
aS'are'
p3853
aS'you'
p3854
aS'doing'
p3855
aS'so'
p3856
aS'late'
p3857
aS'in'
p3858
aS'the'
p3859
aS'midst'
p3860
aS'of'
p3861
aS'the'
p3862
aS'great'
p3863
aS'forest'
p3864
aS'.'
p3865
asg54
(lp3866
VHe
p3867
aVknock
p3868
aVand
p3869
ag59
aVlittle
p3870
aVold
p3871
aVwoman
p3872
ag146
aVout
p3873
aVand
p3874
aVask
p3875
ag71
aVwhat
p3876
ag2315
aVyou
p3877
aVdo
p3878
aVso
p3879
aVlate
p3880
aVin
p3881
aVthe
p3882
aVmidst
p3883
aVof
p3884
aVthe
p3885
aVgreat
p3886
aVforest
p3887
ag86
asg87
(lp3888
g89
ag89
ag89
ag89
ag89
ag89
ag89
ag89
ag89
ag89
ag89
ag89
ag89
ag89
ag89
ag89
ag89
ag89
ag89
ag89
ag89
ag89
ag89
ag89
ag89
ag89
asg90
(lp3889
g172
ag93
ag98
ag95
ag94
ag96
ag97
ag93
ag175
ag98
ag93
ag101
ag99
ag311
ag172
ag100
ag94
ag96
ag103
ag95
ag97
ag103
ag95
ag96
ag97
ag106
asg107
VHe knocked and a little old woman came out and asked, what are you doing so late in the midst of the great forest.
p3890
sba(i__main__
Sentence
p3891
(dp3892
g17
I76
sg18
(lp3893
S'Have'
p3894
aS'you'
p3895
aS'not'
p3896
aS'seen'
p3897
aS'a'
p3898
aS'stag'
p3899
aS'.'
p3900
asg54
(lp3901
VHave
p3902
aVyou
p3903
aVnot
p3904
ag2739
ag59
aVstag
p3905
ag86
asg87
(lp3906
g89
ag89
ag89
ag89
ag89
ag89
ag89
asg90
(lp3907
g799
ag172
ag94
ag264
ag95
ag97
ag106
asg107
VHave you not seen a stag.
p3908
sba(i__main__
Sentence
p3909
(dp3910
g17
I77
sg18
(lp3911
S'Yes'
p3912
aS','
p3913
aS'answered'
p3914
aS'she'
p3915
aS','
p3916
aS'I'
p3917
aS'know'
p3918
aS'the'
p3919
aS'stag'
p3920
aS'well'
p3921
aS'.'
p3922
asg54
(lp3923
VYes
p3924
ag71
aVanswer
p3925
aVshe
p3926
ag71
ag253
aVknow
p3927
aVthe
p3928
aVstag
p3929
aVwell
p3930
ag86
asg87
(lp3931
g89
ag89
ag89
ag89
ag89
ag89
ag89
ag89
ag89
ag89
ag89
asg90
(lp3932
g405
ag101
ag93
ag172
ag101
ag172
ag311
ag95
ag97
ag94
ag106
asg107
VYes, answered she, I know the stag well.
p3933
sba(i__main__
Sentence
p3934
(dp3935
g17
I78
sg18
(lp3936
S'And'
p3937
aS'thereupon'
p3938
aS'a'
p3939
aS'little'
p3940
aS'dog'
p3941
aS'which'
p3942
aS'had'
p3943
aS'come'
p3944
aS'out'
p3945
aS'of'
p3946
aS'the'
p3947
aS'house'
p3948
aS'with'
p3949
aS'her'
p3950
aS','
p3951
aS'barked'
p3952
aS'at'
p3953
aS'the'
p3954
aS'man'
p3955
aS'violently'
p3956
aS'.'
p3957
asg54
(lp3958
VAnd
p3959
aVthereupon
p3960
ag59
aVlittle
p3961
aVdog
p3962
aVwhich
p3963
ag66
aVcome
p3964
aVout
p3965
aVof
p3966
aVthe
p3967
aVhouse
p3968
aVwith
p3969
aVher
p3970
ag71
aVbark
p3971
aVat
p3972
aVthe
p3973
aVman
p3974
aVviolently
p3975
ag86
asg87
(lp3976
g89
ag89
ag89
ag89
ag89
ag89
ag89
ag89
ag89
ag89
ag89
ag89
ag89
ag89
ag89
ag89
ag89
ag89
ag89
ag89
ag89
asg90
(lp3977
g98
ag93
ag95
ag94
ag96
ag404
ag93
ag264
ag175
ag103
ag95
ag97
ag103
ag102
ag101
ag264
ag103
ag95
ag97
ag94
ag106
asg107
VAnd thereupon a little dog which had come out of the house with her, barked at the man violently.
p3978
sba(i__main__
Sentence
p3979
(dp3980
g17
I79
sg18
(lp3981
S'Will'
p3982
aS'you'
p3983
aS'be'
p3984
aS'silent'
p3985
aS','
p3986
aS'you'
p3987
aS'odious'
p3988
aS'toad'
p3989
aS','
p3990
aS'said'
p3991
aS'he'
p3992
aS','
p3993
aS'or'
p3994
aS'I'
p3995
aS'will'
p3996
aS'shoot'
p3997
aS'you'
p3998
aS'dead'
p3999
aS'.'
p4000
asg54
(lp4001
VWill
p4002
aVyou
p4003
aVbe
p4004
aVsilent
p4005
ag71
aVyou
p4006
aVodious
p4007
aVtoad
p4008
ag71
ag240
aVhe
p4009
ag71
aVor
p4010
ag253
aVwill
p4011
aVshoot
p4012
aVyou
p4013
aVdead
p4014
ag86
asg87
(lp4015
g89
ag89
ag89
ag89
ag89
ag89
ag89
ag89
ag89
ag89
ag89
ag89
ag89
ag89
ag89
ag89
ag89
ag89
ag89
asg90
(lp4016
g799
ag172
ag105
ag96
ag101
ag172
ag310
ag96
ag101
ag93
ag172
ag101
ag98
ag172
ag265
ag105
ag172
ag105
ag106
asg107
VWill you be silent, you odious toad, said he, or I will shoot you dead.
p4017
sba(i__main__
Sentence
p4018
(dp4019
g17
I80
sg18
(lp4020
S'Then'
p4021
aS'the'
p4022
aS'witch'
p4023
aS'cried'
p4024
aS'out'
p4025
aS'in'
p4026
aS'a'
p4027
aS'passion'
p4028
aS','
p4029
aS'what'
p4030
aS'will'
p4031
aS'you'
p4032
aS'slay'
p4033
aS'my'
p4034
aS'little'
p4035
aS'dog'
p4036
aS'.'
p4037
asg54
(lp4038
VThen
p4039
aVthe
p4040
aVwitch
p4041
ag910
aVout
p4042
aVin
p4043
ag59
aVpassion
p4044
ag71
aVwhat
p4045
aVwill
p4046
aVyou
p4047
aVslay
p4048
aVmy
p4049
aVlittle
p4050
aVdog
p4051
ag86
asg87
(lp4052
g89
ag89
ag89
ag89
ag89
ag89
ag89
ag89
ag89
ag89
ag89
ag89
ag89
ag89
ag89
ag89
ag89
asg90
(lp4053
g94
ag95
ag97
ag93
ag175
ag103
ag95
ag97
ag101
ag99
ag265
ag172
ag105
ag102
ag96
ag97
ag106
asg107
VThen the witch cried out in a passion, what will you slay my little dog.
p4054
sba(i__main__
Sentence
p4055
(dp4056
g17
I81
sg18
(lp4057
S'And'
p4058
aS'immediately'
p4059
aS'transformed'
p4060
aS'him'
p4061
aS','
p4062
aS'so'
p4063
aS'that'
p4064
aS'he'
p4065
aS'lay'
p4066
aS'like'
p4067
aS'a'
p4068
aS'stone'
p4069
aS','
p4070
aS'and'
p4071
aS'his'
p4072
aS'bride'
p4073
aS'awaited'
p4074
aS'him'
p4075
aS'in'
p4076
aS'vain'
p4077
aS'and'
p4078
aS'thought'
p4079
aS','
p4080
aS'that'
p4081
aS'which'
p4082
aS'I'
p4083
aS'so'
p4084
aS'greatly'
p4085
aS'dreaded'
p4086
aS','
p4087
aS'which'
p4088
aS'lay'
p4089
aS'so'
p4090
aS'heavily'
p4091
aS'on'
p4092
aS'my'
p4093
aS'heart'
p4094
aS','
p4095
aS'has'
p4096
aS'come'
p4097
aS'upon'
p4098
aS'him'
p4099
aS'.'
p4100
asg54
(lp4101
VAnd
p4102
aVimmediately
p4103
aVtransform
p4104
aVhim
p4105
ag71
aVso
p4106
aVthat
p4107
aVhe
p4108
aVlay
p4109
aVlike
p4110
ag59
aVstone
p4111
ag71
aVand
p4112
aVhis
p4113
aVbride
p4114
aVawait
p4115
aVhim
p4116
aVin
p4117
aVvain
p4118
aVand
p4119
ag3482
ag71
aVthat
p4120
aVwhich
p4121
ag253
aVso
p4122
aVgreatly
p4123
aVdread
p4124
ag71
aVwhich
p4125
aVlay
p4126
aVso
p4127
aVheavily
p4128
aVon
p4129
aVmy
p4130
aVheart
p4131
ag71
ag523
aVcome
p4132
aVupon
p4133
aVhim
p4134
ag86
asg87
(lp4135
g89
ag89
ag89
ag89
ag89
ag89
ag89
ag89
ag89
ag89
ag89
ag89
ag89
ag89
ag89
ag89
ag89
ag89
ag89
ag89
ag89
ag89
ag89
ag89
ag89
ag89
ag89
ag89
ag89
ag89
ag89
ag89
ag89
ag89
ag89
ag89
ag89
ag89
ag89
ag89
ag89
ag89
ag89
asg90
(lp4136
g98
ag94
ag93
ag172
ag101
ag94
ag103
ag172
ag93
ag103
ag95
ag97
ag101
ag98
ag102
ag97
ag93
ag172
ag103
ag97
ag98
ag93
ag101
ag103
ag404
ag172
ag94
ag94
ag264
ag101
ag404
ag97
ag94
ag94
ag103
ag102
ag97
ag101
ag310
ag264
ag103
ag172
ag106
asg107
VAnd immediately transformed him, so that he lay like a stone, and his bride awaited him in vain and thought, that which I so greatly dreaded, which lay so heavily on my heart, has come upon him.
p4137
sba(i__main__
Sentence
p4138
(dp4139
g17
I82
sg18
(lp4140
S'But'
p4141
aS'at'
p4142
aS'home'
p4143
aS'the'
p4144
aS'other'
p4145
aS'brother'
p4146
aS'was'
p4147
aS'standing'
p4148
aS'by'
p4149
aS'the'
p4150
aS'gold-lilies'
p4151
aS','
p4152
aS'when'
p4153
aS'one'
p4154
aS'of'
p4155
aS'them'
p4156
aS'suddenly'
p4157
aS'drooped'
p4158
aS'.'
p4159
asg54
(lp4160
VBut
p4161
aVat
p4162
aVhome
p4163
aVthe
p4164
aVother
p4165
aVbrother
p4166
ag57
aVstand
p4167
aVby
p4168
aVthe
p4169
aVgold-lilies
p4170
ag71
aVwhen
p4171
aVone
p4172
aVof
p4173
aVthem
p4174
aVsuddenly
p4175
aVdroop
p4176
ag86
asg87
(lp4177
g89
ag89
ag89
ag89
ag89
ag89
ag89
ag89
ag89
ag89
ag89
ag89
ag89
ag89
ag89
ag89
ag89
ag89
ag89
asg90
(lp4178
g98
ag103
ag97
ag95
ag96
ag97
ag93
ag100
ag103
ag95
ag405
ag101
ag174
ag173
ag103
ag172
ag94
ag93
ag106
asg107
VBut at home the other brother was standing by the gold-lilies, when one of them suddenly drooped.
p4179
sba(i__main__
Sentence
p4180
(dp4181
g17
I83
sg18
(lp4182
S'Good'
p4183
aS'heavens'
p4184
aS','
p4185
aS'said'
p4186
aS'he'
p4187
aS','
p4188
aS'my'
p4189
aS'brother'
p4190
aS'has'
p4191
aS'met'
p4192
aS'with'
p4193
aS'some'
p4194
aS'great'
p4195
aS'misfortune'
p4196
aS'I'
p4197
aS'must'
p4198
aS'away'
p4199
aS'to'
p4200
aS'see'
p4201
aS'if'
p4202
aS'I'
p4203
aS'can'
p4204
aS'possibly'
p4205
aS'rescue'
p4206
aS'him'
p4207
aS'.'
p4208
asg54
(lp4209
VGood
p4210
aVheavens
p4211
ag71
ag240
aVhe
p4212
ag71
aVmy
p4213
aVbrother
p4214
ag523
aVmeet
p4215
aVwith
p4216
aVsome
p4217
aVgreat
p4218
aVmisfortune
p4219
ag253
aVmust
p4220
aVaway
p4221
aVto
p4222
aVsee
p4223
aVif
p4224
ag253
aVcan
p4225
aVpossibly
p4226
aVrescue
p4227
aVhim
p4228
ag86
asg87
(lp4229
g89
ag89
ag89
ag89
ag89
ag89
ag89
ag89
ag89
ag89
ag89
ag89
ag89
ag89
ag89
ag89
ag89
ag89
ag89
ag89
ag89
ag89
ag89
ag89
ag89
ag89
asg90
(lp4230
g799
ag310
ag101
ag93
ag172
ag101
ag102
ag97
ag310
ag264
ag103
ag95
ag96
ag97
ag172
ag265
ag94
ag104
ag105
ag103
ag172
ag265
ag94
ag105
ag172
ag106
asg107
VGood heavens, said he, my brother has met with some great misfortune I must away to see if I can possibly rescue him.
p4231
sba(i__main__
Sentence
p4232
(dp4233
g17
I84
sg18
(lp4234
S'Then'
p4235
aS'the'
p4236
aS'father'
p4237
aS'said'
p4238
aS','
p4239
aS'stay'
p4240
aS'here'
p4241
aS','
p4242
aS'if'
p4243
aS'I'
p4244
aS'lose'
p4245
aS'you'
p4246
aS'also'
p4247
aS','
p4248
aS'what'
p4249
aS'shall'
p4250
aS'I'
p4251
aS'do'
p4252
aS'.'
p4253
asg54
(lp4254
VThen
p4255
aVthe
p4256
aVfather
p4257
ag240
ag71
aVstay
p4258
aVhere
p4259
ag71
aVif
p4260
ag253
aVlose
p4261
aVyou
p4262
aValso
p4263
ag71
aVwhat
p4264
aVshall
p4265
ag253
aVdo
p4266
ag86
asg87
(lp4267
g89
ag89
ag89
ag89
ag89
ag89
ag89
ag89
ag89
ag89
ag89
ag89
ag89
ag89
ag89
ag89
ag89
ag89
ag89
asg90
(lp4268
g94
ag95
ag97
ag93
ag101
ag97
ag94
ag101
ag103
ag172
ag311
ag172
ag94
ag101
ag404
ag265
ag172
ag311
ag106
asg107
VThen the father said, stay here, if I lose you also, what shall I do.
p4269
sba(i__main__
Sentence
p4270
(dp4271
g17
I85
sg18
(lp4272
S'But'
p4273
aS'he'
p4274
aS'answered'
p4275
aS','
p4276
aS'I'
p4277
aS'must'
p4278
aS'and'
p4279
aS'will'
p4280
aS'go'
p4281
aS'forth'
p4282
aS'.'
p4283
asg54
(lp4284
VBut
p4285
aVhe
p4286
aVanswer
p4287
ag71
ag253
aVmust
p4288
aVand
p4289
aVwill
p4290
aVgo
p4291
aVforth
p4292
ag86
asg87
(lp4293
g89
ag89
ag89
ag89
ag89
ag89
ag89
ag89
ag89
ag89
ag89
asg90
(lp4294
g98
ag172
ag93
ag101
ag172
ag265
ag98
ag265
ag105
ag96
ag106
asg107
VBut he answered, I must and will go forth.
p4295
sba(i__main__
Sentence
p4296
(dp4297
g17
I86
sg18
(lp4298
S'Then'
p4299
aS'he'
p4300
aS'mounted'
p4301
aS'his'
p4302
aS'golden'
p4303
aS'horse'
p4304
aS','
p4305
aS'and'
p4306
aS'rode'
p4307
aS'forth'
p4308
aS'and'
p4309
aS'entered'
p4310
aS'the'
p4311
aS'great'
p4312
aS'forest'
p4313
aS','
p4314
aS'where'
p4315
aS'his'
p4316
aS'brother'
p4317
aS'lay'
p4318
aS'turned'
p4319
aS'to'
p4320
aS'stone'
p4321
aS'.'
p4322
asg54
(lp4323
VThen
p4324
aVhe
p4325
aVmount
p4326
aVhis
p4327
aVgolden
p4328
aVhorse
p4329
ag71
aVand
p4330
ag2403
aVforth
p4331
aVand
p4332
aVenter
p4333
aVthe
p4334
aVgreat
p4335
aVforest
p4336
ag71
aVwhere
p4337
aVhis
p4338
aVbrother
p4339
aVlay
p4340
aVturn
p4341
aVto
p4342
aVstone
p4343
ag86
asg87
(lp4344
g89
ag89
ag89
ag89
ag89
ag89
ag89
ag89
ag89
ag89
ag89
ag89
ag89
ag89
ag89
ag89
ag89
ag89
ag89
ag89
ag89
ag89
ag89
ag89
asg90
(lp4345
g94
ag172
ag93
ag102
ag97
ag97
ag101
ag98
ag105
ag96
ag98
ag93
ag95
ag96
ag97
ag101
ag174
ag102
ag97
ag97
ag93
ag104
ag97
ag106
asg107
VThen he mounted his golden horse, and rode forth and entered the great forest, where his brother lay turned to stone.
p4346
sba(i__main__
Sentence
p4347
(dp4348
g17
I87
sg18
(lp4349
S'The'
p4350
aS'old'
p4351
aS'witch'
p4352
aS'came'
p4353
aS'out'
p4354
aS'of'
p4355
aS'her'
p4356
aS'house'
p4357
aS'and'
p4358
aS'called'
p4359
aS'him'
p4360
aS','
p4361
aS'wishing'
p4362
aS'to'
p4363
aS'entrap'
p4364
aS'him'
p4365
aS'also'
p4366
aS','
p4367
aS'but'
p4368
aS'he'
p4369
aS'did'
p4370
aS'not'
p4371
aS'go'
p4372
aS'near'
p4373
aS'her'
p4374
aS','
p4375
aS'and'
p4376
aS'said'
p4377
aS','
p4378
aS'I'
p4379
aS'will'
p4380
aS'shoot'
p4381
aS'you'
p4382
aS','
p4383
aS'if'
p4384
aS'you'
p4385
aS'will'
p4386
aS'not'
p4387
aS'bring'
p4388
aS'my'
p4389
aS'brother'
p4390
aS'to'
p4391
aS'life'
p4392
aS'again'
p4393
aS'.'
p4394
asg54
(lp4395
VThe
p4396
aVold
p4397
aVwitch
p4398
ag146
aVout
p4399
aVof
p4400
aVher
p4401
aVhouse
p4402
aVand
p4403
aVcall
p4404
aVhim
p4405
ag71
aVwish
p4406
aVto
p4407
aVentrap
p4408
aVhim
p4409
aValso
p4410
ag71
aVbut
p4411
aVhe
p4412
ag2014
aVnot
p4413
aVgo
p4414
aVnear
p4415
aVher
p4416
ag71
aVand
p4417
ag240
ag71
ag253
aVwill
p4418
aVshoot
p4419
aVyou
p4420
ag71
aVif
p4421
aVyou
p4422
aVwill
p4423
aVnot
p4424
aVbring
p4425
aVmy
p4426
aVbrother
p4427
aVto
p4428
aVlife
p4429
aVagain
p4430
ag86
asg87
(lp4431
g89
ag89
ag89
ag89
ag89
ag89
ag89
ag89
ag89
ag89
ag89
ag89
ag89
ag89
ag89
ag89
ag89
ag89
ag89
ag89
ag89
ag89
ag89
ag89
ag89
ag89
ag89
ag89
ag89
ag89
ag89
ag89
ag89
ag89
ag89
ag89
ag89
ag89
ag89
ag89
ag89
ag89
ag89
ag89
ag89
asg90
(lp4432
g95
ag96
ag97
ag93
ag175
ag103
ag102
ag97
ag98
ag264
ag172
ag101
ag100
ag104
ag105
ag172
ag94
ag101
ag98
ag172
ag93
ag94
ag105
ag103
ag102
ag101
ag98
ag93
ag101
ag172
ag265
ag105
ag172
ag101
ag103
ag172
ag265
ag94
ag105
ag102
ag97
ag104
ag105
ag94
ag106
asg107
VThe old witch came out of her house and called him, wishing to entrap him also, but he did not go near her, and said, I will shoot you, if you will not bring my brother to life again.
p4433
sba(i__main__
Sentence
p4434
(dp4435
g17
I88
sg18
(lp4436
S'She'
p4437
aS'touched'
p4438
aS'the'
p4439
aS'stone'
p4440
aS','
p4441
aS'though'
p4442
aS'very'
p4443
aS'unwillingly'
p4444
aS','
p4445
aS'with'
p4446
aS'her'
p4447
aS'forefinger'
p4448
aS','
p4449
aS'and'
p4450
aS'he'
p4451
aS'was'
p4452
aS'immediately'
p4453
aS'restored'
p4454
aS'to'
p4455
aS'his'
p4456
aS'human'
p4457
aS'shape'
p4458
aS'.'
p4459
asg54
(lp4460
VShe
p4461
aVtouch
p4462
aVthe
p4463
aVstone
p4464
ag71
aVthough
p4465
aVvery
p4466
aVunwillingly
p4467
ag71
aVwith
p4468
aVher
p4469
aVforefinger
p4470
ag71
aVand
p4471
aVhe
p4472
ag57
aVimmediately
p4473
aVrestore
p4474
aVto
p4475
aVhis
p4476
aVhuman
p4477
aVshape
p4478
ag86
asg87
(lp4479
g89
ag89
ag89
ag89
ag89
ag89
ag89
ag89
ag89
ag89
ag89
ag89
ag89
ag89
ag89
ag89
ag89
ag89
ag89
ag89
ag89
ag89
ag89
asg90
(lp4480
g172
ag93
ag95
ag97
ag101
ag103
ag94
ag94
ag101
ag103
ag102
ag97
ag101
ag98
ag172
ag93
ag94
ag264
ag104
ag102
ag97
ag97
ag106
asg107
VShe touched the stone, though very unwillingly, with her forefinger, and he was immediately restored to his human shape.
p4481
sba(i__main__
Sentence
p4482
(dp4483
g17
I89
sg18
(lp4484
S'And'
p4485
aS'the'
p4486
aS'two'
p4487
aS'gold-children'
p4488
aS'rejoiced'
p4489
aS'when'
p4490
aS'they'
p4491
aS'saw'
p4492
aS'each'
p4493
aS'other'
p4494
aS'again'
p4495
aS','
p4496
aS'kissed'
p4497
aS'and'
p4498
aS'caressed'
p4499
aS'each'
p4500
aS'other'
p4501
aS','
p4502
aS'and'
p4503
aS'rode'
p4504
aS'away'
p4505
aS'together'
p4506
aS'out'
p4507
aS'of'
p4508
aS'the'
p4509
aS'forest'
p4510
aS'the'
p4511
aS'one'
p4512
aS'home'
p4513
aS'to'
p4514
aS'his'
p4515
aS'bride'
p4516
aS','
p4517
aS'and'
p4518
aS'the'
p4519
aS'other'
p4520
aS'to'
p4521
aS'his'
p4522
aS'father'
p4523
aS'.'
p4524
asg54
(lp4525
VAnd
p4526
aVthe
p4527
aVtwo
p4528
aVgold-children
p4529
aVrejoice
p4530
aVwhen
p4531
aVthey
p4532
aVsaw
p4533
aVeach
p4534
aVother
p4535
aVagain
p4536
ag71
aVkiss
p4537
aVand
p4538
aVcaress
p4539
aVeach
p4540
aVother
p4541
ag71
aVand
p4542
ag2403
aVaway
p4543
aVtogether
p4544
aVout
p4545
aVof
p4546
aVthe
p4547
aVforest
p4548
aVthe
p4549
aVone
p4550
aVhome
p4551
aVto
p4552
aVhis
p4553
aVbride
p4554
ag71
aVand
p4555
aVthe
p4556
aVother
p4557
aVto
p4558
aVhis
p4559
aVfather
p4560
ag86
asg87
(lp4561
g89
ag89
ag89
ag89
ag89
ag89
ag89
ag89
ag89
ag89
ag89
ag89
ag89
ag89
ag89
ag89
ag89
ag89
ag89
ag89
ag89
ag89
ag89
ag89
ag89
ag89
ag89
ag89
ag89
ag89
ag89
ag89
ag89
ag89
ag89
ag89
ag89
ag89
ag89
ag89
asg90
(lp4562
g98
ag95
ag173
ag96
ag264
ag174
ag172
ag311
ag95
ag96
ag97
ag101
ag93
ag98
ag264
ag95
ag96
ag101
ag98
ag105
ag175
ag94
ag103
ag103
ag95
ag1128
ag95
ag173
ag97
ag104
ag102
ag97
ag101
ag98
ag95
ag96
ag104
ag102
ag97
ag106
asg107
VAnd the two gold-children rejoiced when they saw each other again, kissed and caressed each other, and rode away together out of the forest the one home to his bride, and the other to his father.
p4563
sba(i__main__
Sentence
p4564
(dp4565
g17
I90
sg18
(lp4566
S'The'
p4567
aS'father'
p4568
aS'then'
p4569
aS'said'
p4570
aS','
p4571
aS'I'
p4572
aS'knew'
p4573
aS'well'
p4574
aS'that'
p4575
aS'you'
p4576
aS'had'
p4577
aS'rescued'
p4578
aS'your'
p4579
aS'brother'
p4580
aS','
p4581
aS'for'
p4582
aS'the'
p4583
aS'golden'
p4584
aS'lily'
p4585
aS'suddenly'
p4586
aS'rose'
p4587
aS'up'
p4588
aS'and'
p4589
aS'blossomed'
p4590
aS'out'
p4591
aS'again'
p4592
aS'.'
p4593
asg54
(lp4594
VThe
p4595
aVfather
p4596
aVthen
p4597
ag240
ag71
ag253
aVknow
p4598
aVwell
p4599
aVthat
p4600
aVyou
p4601
ag66
aVrescue
p4602
aVyour
p4603
aVbrother
p4604
ag71
aVfor
p4605
aVthe
p4606
aVgolden
p4607
aVlily
p4608
aVsuddenly
p4609
ag3386
aVup
p4610
aVand
p4611
aVblossom
p4612
aVout
p4613
aVagain
p4614
ag86
asg87
(lp4615
g89
ag89
ag89
ag89
ag89
ag89
ag89
ag89
ag89
ag89
ag89
ag89
ag89
ag89
ag89
ag89
ag89
ag89
ag89
ag89
ag89
ag89
ag89
ag89
ag89
ag89
ag89
asg90
(lp4616
g95
ag97
ag94
ag93
ag101
ag172
ag93
ag94
ag103
ag172
ag93
ag264
ag102
ag97
ag101
ag103
ag95
ag96
ag97
ag94
ag93
ag175
ag98
ag93
ag175
ag94
ag106
asg107
VThe father then said, I knew well that you had rescued your brother, for the golden lily suddenly rose up and blossomed out again.
p4617
sba(i__main__
Sentence
p4618
(dp4619
g17
I91
sg18
(lp4620
S'Then'
p4621
aS'they'
p4622
aS'lived'
p4623
aS'happily'
p4624
aS','
p4625
aS'and'
p4626
aS'they'
p4627
aS'prospered'
p4628
aS'until'
p4629
aS'their'
p4630
aS'death'
p4631
aS'.'
p4632
asg54
(lp4633
VThen
p4634
aVthey
p4635
aVlive
p4636
aVhappily
p4637
ag71
aVand
p4638
aVthey
p4639
aVprosper
p4640
aVuntil
p4641
aVtheir
p4642
aVdeath
p4643
ag86
asg87
(lp4644
g89
ag89
ag89
ag89
ag89
ag89
ag89
ag89
ag89
ag89
ag89
ag89
asg90
(lp4645
g94
ag172
ag93
ag94
ag101
ag98
ag172
ag93
ag103
ag102
ag97
ag106
asg107
VThen they lived happily, and they prospered until their death. 
p4646
sbasbsS'summary'
p4647
g0
(g7
g2
Ntp4648
Rp4649
(dp4650
g11
S'A man has two golden children, one of whom marries a beautiful girl. One day as he is hunting, this gold child is turned into stone by a witch. He is saved by his brother. '
p4651
sg13
(lp4652
(i__main__
Sentence
p4653
(dp4654
g17
I0
sg18
(lp4655
S'A'
p4656
aS'man'
p4657
aS'has'
p4658
aS'two'
p4659
aS'golden'
p4660
aS'children'
p4661
aS','
p4662
aS'one'
p4663
aS'of'
p4664
aS'whom'
p4665
aS'marries'
p4666
aS'a'
p4667
aS'beautiful'
p4668
aS'girl'
p4669
aS'.'
p4670
asg54
(lp4671
VA
p4672
aVman
p4673
ag523
aVtwo
p4674
aVgolden
p4675
ag2104
ag71
aVone
p4676
aVof
p4677
aVwhom
p4678
aVmarries
p4679
ag59
aVbeautiful
p4680
aVgirl
p4681
ag86
asg87
(lp4682
g89
ag89
ag89
ag89
ag89
ag89
ag89
ag89
ag89
ag89
ag89
ag89
ag89
ag89
ag89
asg90
(lp4683
g95
ag97
ag310
ag173
ag96
ag405
ag101
ag173
ag103
ag99
ag405
ag95
ag96
ag97
ag106
asg107
VA man has two golden children, one of whom marries a beautiful girl.
p4684
sba(i__main__
Sentence
p4685
(dp4686
g17
I1
sg18
(lp4687
S'One'
p4688
aS'day'
p4689
aS'as'
p4690
aS'he'
p4691
aS'is'
p4692
aS'hunting'
p4693
aS','
p4694
aS'this'
p4695
aS'gold'
p4696
aS'child'
p4697
aS'is'
p4698
aS'turned'
p4699
aS'into'
p4700
aS'stone'
p4701
aS'by'
p4702
aS'a'
p4703
aS'witch'
p4704
aS'.'
p4705
asg54
(lp4706
VOne
p4707
aVday
p4708
ag59
aVhe
p4709
ag299
aVhunt
p4710
ag71
aVthis
p4711
aVgold
p4712
aVchild
p4713
ag299
aVturn
p4714
aVinto
p4715
aVstone
p4716
aVby
p4717
ag59
aVwitch
p4718
ag86
asg87
(lp4719
g89
ag89
ag89
ag89
ag89
ag89
ag89
ag89
ag89
ag89
ag89
ag89
ag89
ag89
ag89
ag89
ag89
ag89
asg90
(lp4720
g173
ag97
ag103
ag172
ag310
ag100
ag101
ag95
ag97
ag97
ag310
ag264
ag103
ag97
ag103
ag95
ag97
ag106
asg107
VOne day as he is hunting, this gold child is turned into stone by a witch.
p4721
sba(i__main__
Sentence
p4722
(dp4723
g17
I2
sg18
(lp4724
S'He'
p4725
aS'is'
p4726
aS'saved'
p4727
aS'by'
p4728
aS'his'
p4729
aS'brother'
p4730
aS'.'
p4731
asg54
(lp4732
VHe
p4733
ag299
aVsave
p4734
aVby
p4735
aVhis
p4736
aVbrother
p4737
ag86
asg87
(lp4738
g89
ag89
ag89
ag89
ag89
ag89
ag89
asg90
(lp4739
g172
ag310
ag264
ag103
ag102
ag97
ag106
asg107
VHe is saved by his brother. 
p4740
sbasbsS'name'
p4741
S'The Gold-Children'
p4742
sS'summaries'
p4743
(lp4744
g4649
asb.