ccopy_reg
_reconstructor
p0
(c__main__
Story
p1
c__builtin__
object
p2
Ntp3
Rp4
(dp5
S'text'
p6
g0
(c__main__
Document
p7
g2
Ntp8
Rp9
(dp10
S'_Document__initialContent'
p11
S"A father was one day sitting at dinner with his wife and his\nchildren, and a good friend who had come on a visit ate with\nthem.  And as they thus sat, and it was striking twelve o'clock,\nthe stranger saw the door open, and a very pale child dressed\nin snow-white clothes came in.  It did not look around, and it\ndid not speak, but went straight into the next room.  Soon\nafterwards it came back, and went out at the door again in the\nsame quiet manner.  On the second and on the third day, it came\nalso exactly in the same way.  At last the stranger asked the\nfather to whom the beautiful child that went into the next room\nevery day at noon belonged.  I have never seen it, said he,\nneither did he know to whom it could belong.  The next day when\nit again came, the stranger pointed it out to the father, who\nhowever did not see it, and the mother and the children also\nall saw nothing.  At this the stranger got up, went to the room\ndoor, opened it a little, and peeped in.  Then he saw the child\nsitting on the ground, and busily digging and seeking about\nbetween the boards of the floor, but\nwhen it saw the stranger, it disappeared.  He now told what\nhe had seen and described the child exactly, and the mother\nrecognized it, and said, ah, it is my dear child who died a\nmonth ago.  They took up the boards and found two farthings\nwhich the child had once received from its mother that it\nmight give them to a poor man.  It, however, had thought, you\ncan buy yourself a biscuit for that, and had kept the farthings,\nand hidden them in the openings between the boards.  And therefore\nit had had no rest in its grave, and had come every day at noon\nto seek for these farthings.  The parents gave the money at\nonce to a poor man, and after that the child was never seen again.\n"
p12
sS'sentences'
p13
(lp14
(i__main__
Sentence
p15
(dp16
S'index'
p17
I0
sS'words'
p18
(lp19
S'A'
p20
aS'father'
p21
aS'was'
p22
aS'one'
p23
aS'day'
p24
aS'sitting'
p25
aS'at'
p26
aS'dinner'
p27
aS'with'
p28
aS'his'
p29
aS'wife'
p30
aS'and'
p31
aS'his'
p32
aS'children'
p33
aS','
p34
aS'and'
p35
aS'a'
p36
aS'good'
p37
aS'friend'
p38
aS'who'
p39
aS'had'
p40
aS'come'
p41
aS'on'
p42
aS'a'
p43
aS'visit'
p44
aS'ate'
p45
aS'with'
p46
aS'them'
p47
aS'.'
p48
asS'lemmas'
p49
(lp50
VA
p51
aVfather
p52
aVbe
p53
aVone
p54
aVday
p55
aVsit
p56
aVat
p57
aVdinner
p58
aVwith
p59
aVhis
p60
aVwife
p61
aVand
p62
aVhis
p63
aVchild
p64
aV,
p65
aVand
p66
aVa
p67
aVgood
p68
aVfriend
p69
aVwho
p70
aVhave
p71
aVcome
p72
aVon
p73
ag67
aVvisit
p74
aVate
p75
aVwith
p76
aVthem
p77
aV.
p78
asS'nerTags'
p79
(lp80
VO
p81
ag81
ag81
ag81
ag81
ag81
ag81
ag81
ag81
ag81
ag81
ag81
ag81
ag81
ag81
ag81
ag81
ag81
ag81
ag81
ag81
ag81
ag81
ag81
ag81
ag81
ag81
ag81
ag81
asS'posTags'
p82
(lp83
S'DT'
p84
aS'NN'
p85
aS'VBD'
p86
aS'CD'
p87
ag85
aS'VBG'
p88
aS'IN'
p89
ag85
ag89
aS'PRP$'
p90
ag85
aS'CC'
p91
ag90
aS'NNS'
p92
aS','
p93
ag91
ag84
aS'JJ'
p94
ag85
aS'WP'
p95
ag86
aS'VBN'
p96
ag89
ag84
ag85
ag85
ag89
aS'PRP'
p97
aS'.'
p98
asS'_Sentence__initialContent'
p99
VA father was one day sitting at dinner with his wife and his children, and a good friend who had come on a visit ate with them.
p100
sba(i__main__
Sentence
p101
(dp102
g17
I1
sg18
(lp103
S'And'
p104
aS'as'
p105
aS'they'
p106
aS'thus'
p107
aS'sat'
p108
aS','
p109
aS'and'
p110
aS'it'
p111
aS'was'
p112
aS'striking'
p113
aS'twelve'
p114
aS"o'clock"
p115
aS','
p116
aS'the'
p117
aS'stranger'
p118
aS'saw'
p119
aS'the'
p120
aS'door'
p121
aS'open'
p122
aS','
p123
aS'and'
p124
aS'a'
p125
aS'very'
p126
aS'pale'
p127
aS'child'
p128
aS'dressed'
p129
aS'in'
p130
aS'snow-white'
p131
aS'clothes'
p132
aS'came'
p133
aS'in'
p134
aS'.'
p135
asg49
(lp136
VAnd
p137
ag67
aVthey
p138
aVthus
p139
aVsat
p140
ag65
aVand
p141
aVit
p142
ag53
aVstrike
p143
aVtwelve
p144
aVo'clock
p145
ag65
aVthe
p146
aVstranger
p147
aVsaw
p148
aVthe
p149
aVdoor
p150
aVopen
p151
ag65
aVand
p152
ag67
aVvery
p153
aVpale
p154
aVchild
p155
aVdress
p156
aVin
p157
aVsnow-white
p158
aVclothes
p159
aVcome
p160
aVin
p161
ag78
asg79
(lp162
g81
ag81
ag81
ag81
ag81
ag81
ag81
ag81
ag81
ag81
ag81
ag81
ag81
ag81
ag81
ag81
ag81
ag81
ag81
ag81
ag81
ag81
ag81
ag81
ag81
ag81
ag81
ag81
ag81
ag81
ag81
ag81
asg82
(lp163
g91
ag89
ag97
aS'RB'
p164
ag94
ag93
ag91
ag97
ag86
ag88
ag85
ag85
ag93
ag84
ag85
ag86
ag84
ag85
ag94
ag93
ag91
ag84
ag164
ag94
ag85
ag96
ag89
ag94
ag92
ag86
ag89
ag98
asg99
VAnd as they thus sat, and it was striking twelve o'clock, the stranger saw the door open, and a very pale child dressed in snow-white clothes came in.
p165
sba(i__main__
Sentence
p166
(dp167
g17
I2
sg18
(lp168
S'It'
p169
aS'did'
p170
aS'not'
p171
aS'look'
p172
aS'around'
p173
aS','
p174
aS'and'
p175
aS'it'
p176
aS'did'
p177
aS'not'
p178
aS'speak'
p179
aS','
p180
aS'but'
p181
aS'went'
p182
aS'straight'
p183
aS'into'
p184
aS'the'
p185
aS'next'
p186
aS'room'
p187
aS'.'
p188
asg49
(lp189
VIt
p190
aVdo
p191
aVnot
p192
aVlook
p193
aVaround
p194
ag65
aVand
p195
aVit
p196
ag191
aVnot
p197
aVspeak
p198
ag65
aVbut
p199
aVgo
p200
aVstraight
p201
aVinto
p202
aVthe
p203
aVnext
p204
aVroom
p205
ag78
asg79
(lp206
g81
ag81
ag81
ag81
ag81
ag81
ag81
ag81
ag81
ag81
ag81
ag81
ag81
ag81
ag81
ag81
ag81
ag81
ag81
ag81
asg82
(lp207
g97
ag86
ag164
aS'VB'
p208
ag89
ag93
ag91
ag97
ag86
ag164
ag208
ag93
ag91
ag86
ag164
ag89
ag84
ag94
ag85
ag98
asg99
VIt did not look around, and it did not speak, but went straight into the next room.
p209
sba(i__main__
Sentence
p210
(dp211
g17
I3
sg18
(lp212
S'Soon'
p213
aS'afterwards'
p214
aS'it'
p215
aS'came'
p216
aS'back'
p217
aS','
p218
aS'and'
p219
aS'went'
p220
aS'out'
p221
aS'at'
p222
aS'the'
p223
aS'door'
p224
aS'again'
p225
aS'in'
p226
aS'the'
p227
aS'same'
p228
aS'quiet'
p229
aS'manner'
p230
aS'.'
p231
asg49
(lp232
VSoon
p233
aVafterwards
p234
aVit
p235
ag160
aVback
p236
ag65
aVand
p237
ag200
aVout
p238
aVat
p239
aVthe
p240
aVdoor
p241
aVagain
p242
aVin
p243
aVthe
p244
aVsame
p245
aVquiet
p246
aVmanner
p247
ag78
asg79
(lp248
g81
ag81
ag81
ag81
ag81
ag81
ag81
ag81
ag81
ag81
ag81
ag81
ag81
ag81
ag81
ag81
ag81
ag81
ag81
asg82
(lp249
g164
ag164
ag97
ag86
ag164
ag93
ag91
ag86
ag89
ag89
ag84
ag85
ag164
ag89
ag84
ag94
ag85
ag85
ag98
asg99
VSoon afterwards it came back, and went out at the door again in the same quiet manner.
p250
sba(i__main__
Sentence
p251
(dp252
g17
I4
sg18
(lp253
S'On'
p254
aS'the'
p255
aS'second'
p256
aS'and'
p257
aS'on'
p258
aS'the'
p259
aS'third'
p260
aS'day'
p261
aS','
p262
aS'it'
p263
aS'came'
p264
aS'also'
p265
aS'exactly'
p266
aS'in'
p267
aS'the'
p268
aS'same'
p269
aS'way'
p270
aS'.'
p271
asg49
(lp272
VOn
p273
aVthe
p274
aVsecond
p275
aVand
p276
aVon
p277
aVthe
p278
aVthird
p279
aVday
p280
ag65
aVit
p281
ag160
aValso
p282
aVexactly
p283
aVin
p284
aVthe
p285
aVsame
p286
aVway
p287
ag78
asg79
(lp288
g81
ag81
ag81
ag81
ag81
ag81
ag81
ag81
ag81
ag81
ag81
ag81
ag81
ag81
ag81
ag81
ag81
ag81
asg82
(lp289
g89
ag84
ag94
ag91
ag89
ag84
ag94
ag85
ag93
ag97
ag86
ag164
ag164
ag89
ag84
ag94
ag85
ag98
asg99
VOn the second and on the third day, it came also exactly in the same way.
p290
sba(i__main__
Sentence
p291
(dp292
g17
I5
sg18
(lp293
S'At'
p294
aS'last'
p295
aS'the'
p296
aS'stranger'
p297
aS'asked'
p298
aS'the'
p299
aS'father'
p300
aS'to'
p301
aS'whom'
p302
aS'the'
p303
aS'beautiful'
p304
aS'child'
p305
aS'that'
p306
aS'went'
p307
aS'into'
p308
aS'the'
p309
aS'next'
p310
aS'room'
p311
aS'every'
p312
aS'day'
p313
aS'at'
p314
aS'noon'
p315
aS'belonged'
p316
aS'.'
p317
asg49
(lp318
VAt
p319
aVlast
p320
aVthe
p321
aVstranger
p322
aVask
p323
aVthe
p324
aVfather
p325
aVto
p326
aVwhom
p327
aVthe
p328
aVbeautiful
p329
aVchild
p330
aVthat
p331
ag200
aVinto
p332
aVthe
p333
aVnext
p334
aVroom
p335
aVevery
p336
aVday
p337
aVat
p338
aVnoon
p339
aVbelong
p340
ag78
asg79
(lp341
g81
ag81
ag81
ag81
ag81
ag81
ag81
ag81
ag81
ag81
ag81
ag81
ag81
ag81
ag81
ag81
ag81
ag81
ag81
ag81
ag81
ag81
ag81
ag81
asg82
(lp342
g89
ag94
ag84
ag85
ag86
ag84
ag85
aS'TO'
p343
ag208
ag84
ag94
ag85
aS'WDT'
p344
ag86
ag89
ag84
ag94
ag85
ag84
ag85
ag89
ag85
ag86
ag98
asg99
VAt last the stranger asked the father to whom the beautiful child that went into the next room every day at noon belonged.
p345
sba(i__main__
Sentence
p346
(dp347
g17
I6
sg18
(lp348
S'I'
p349
aS'have'
p350
aS'never'
p351
aS'seen'
p352
aS'it'
p353
aS','
p354
aS'said'
p355
aS'he'
p356
aS','
p357
aS'neither'
p358
aS'did'
p359
aS'he'
p360
aS'know'
p361
aS'to'
p362
aS'whom'
p363
aS'it'
p364
aS'could'
p365
aS'belong'
p366
aS'.'
p367
asg49
(lp368
VI
p369
aVhave
p370
aVnever
p371
aVsee
p372
aVit
p373
ag65
aVsay
p374
aVhe
p375
ag65
aVneither
p376
ag191
aVhe
p377
aVknow
p378
aVto
p379
aVwhom
p380
aVit
p381
aVcould
p382
aVbelong
p383
ag78
asg79
(lp384
g81
ag81
ag81
ag81
ag81
ag81
ag81
ag81
ag81
ag81
ag81
ag81
ag81
ag81
ag81
ag81
ag81
ag81
ag81
asg82
(lp385
g97
aS'VBP'
p386
ag164
ag96
ag97
ag93
ag86
ag97
ag93
ag84
ag86
ag97
ag208
ag343
ag208
ag97
aS'MD'
p387
ag208
ag98
asg99
VI have never seen it, said he, neither did he know to whom it could belong.
p388
sba(i__main__
Sentence
p389
(dp390
g17
I7
sg18
(lp391
S'The'
p392
aS'next'
p393
aS'day'
p394
aS'when'
p395
aS'it'
p396
aS'again'
p397
aS'came'
p398
aS','
p399
aS'the'
p400
aS'stranger'
p401
aS'pointed'
p402
aS'it'
p403
aS'out'
p404
aS'to'
p405
aS'the'
p406
aS'father'
p407
aS','
p408
aS'who'
p409
aS'however'
p410
aS'did'
p411
aS'not'
p412
aS'see'
p413
aS'it'
p414
aS','
p415
aS'and'
p416
aS'the'
p417
aS'mother'
p418
aS'and'
p419
aS'the'
p420
aS'children'
p421
aS'also'
p422
aS'all'
p423
aS'saw'
p424
aS'nothing'
p425
aS'.'
p426
asg49
(lp427
VThe
p428
aVnext
p429
aVday
p430
aVwhen
p431
aVit
p432
aVagain
p433
ag160
ag65
aVthe
p434
aVstranger
p435
aVpoint
p436
aVit
p437
aVout
p438
aVto
p439
aVthe
p440
aVfather
p441
ag65
aVwho
p442
aVhowever
p443
ag191
aVnot
p444
aVsee
p445
aVit
p446
ag65
aVand
p447
aVthe
p448
aVmother
p449
aVand
p450
aVthe
p451
ag64
aValso
p452
aVall
p453
aVsaw
p454
aVnothing
p455
ag78
asg79
(lp456
g81
ag81
ag81
ag81
ag81
ag81
ag81
ag81
ag81
ag81
ag81
ag81
ag81
ag81
ag81
ag81
ag81
ag81
ag81
ag81
ag81
ag81
ag81
ag81
ag81
ag81
ag81
ag81
ag81
ag81
ag81
ag81
ag81
ag81
ag81
asg82
(lp457
g84
ag94
ag85
aS'WRB'
p458
ag97
ag164
ag86
ag93
ag84
ag85
ag86
ag97
ag89
ag343
ag84
ag85
ag93
ag95
ag164
ag86
ag164
ag208
ag97
ag93
ag91
ag84
ag85
ag91
ag84
ag92
ag164
ag84
ag85
ag85
ag98
asg99
VThe next day when it again came, the stranger pointed it out to the father, who however did not see it, and the mother and the children also all saw nothing.
p459
sba(i__main__
Sentence
p460
(dp461
g17
I8
sg18
(lp462
S'At'
p463
aS'this'
p464
aS'the'
p465
aS'stranger'
p466
aS'got'
p467
aS'up'
p468
aS','
p469
aS'went'
p470
aS'to'
p471
aS'the'
p472
aS'room'
p473
aS'door'
p474
aS','
p475
aS'opened'
p476
aS'it'
p477
aS'a'
p478
aS'little'
p479
aS','
p480
aS'and'
p481
aS'peeped'
p482
aS'in'
p483
aS'.'
p484
asg49
(lp485
VAt
p486
aVthis
p487
aVthe
p488
aVstranger
p489
aVget
p490
aVup
p491
ag65
ag200
aVto
p492
aVthe
p493
aVroom
p494
aVdoor
p495
ag65
aVopen
p496
aVit
p497
ag67
aVlittle
p498
ag65
aVand
p499
aVpeep
p500
aVin
p501
ag78
asg79
(lp502
g81
ag81
ag81
ag81
ag81
ag81
ag81
ag81
ag81
ag81
ag81
ag81
ag81
ag81
ag81
ag81
ag81
ag81
ag81
ag81
ag81
ag81
asg82
(lp503
g89
ag84
ag84
ag85
ag86
aS'RP'
p504
ag93
ag86
ag343
ag84
ag85
ag85
ag93
ag86
ag97
ag84
ag164
ag93
ag91
ag86
ag89
ag98
asg99
VAt this the stranger got up, went to the room door, opened it a little, and peeped in.
p505
sba(i__main__
Sentence
p506
(dp507
g17
I9
sg18
(lp508
S'Then'
p509
aS'he'
p510
aS'saw'
p511
aS'the'
p512
aS'child'
p513
aS'sitting'
p514
aS'on'
p515
aS'the'
p516
aS'ground'
p517
aS','
p518
aS'and'
p519
aS'busily'
p520
aS'digging'
p521
aS'and'
p522
aS'seeking'
p523
aS'about'
p524
aS'between'
p525
aS'the'
p526
aS'boards'
p527
aS'of'
p528
aS'the'
p529
aS'floor'
p530
aS','
p531
aS'but'
p532
aS'when'
p533
aS'it'
p534
aS'saw'
p535
aS'the'
p536
aS'stranger'
p537
aS','
p538
aS'it'
p539
aS'disappeared'
p540
aS'.'
p541
asg49
(lp542
VThen
p543
aVhe
p544
aVsaw
p545
aVthe
p546
aVchild
p547
ag56
aVon
p548
aVthe
p549
aVground
p550
ag65
aVand
p551
aVbusily
p552
aVdig
p553
aVand
p554
aVseek
p555
aVabout
p556
aVbetween
p557
aVthe
p558
aVboard
p559
aVof
p560
aVthe
p561
aVfloor
p562
ag65
aVbut
p563
aVwhen
p564
aVit
p565
aVsaw
p566
aVthe
p567
aVstranger
p568
ag65
aVit
p569
aVdisappear
p570
ag78
asg79
(lp571
g81
ag81
ag81
ag81
ag81
ag81
ag81
ag81
ag81
ag81
ag81
ag81
ag81
ag81
ag81
ag81
ag81
ag81
ag81
ag81
ag81
ag81
ag81
ag81
ag81
ag81
ag81
ag81
ag81
ag81
ag81
ag81
ag81
asg82
(lp572
g164
ag97
ag86
ag84
ag85
ag88
ag89
ag84
ag85
ag93
ag91
ag164
ag88
ag91
ag88
ag89
ag89
ag84
ag92
ag89
ag84
ag85
ag93
ag91
ag458
ag97
ag86
ag84
ag85
ag93
ag97
ag86
ag98
asg99
VThen he saw the child sitting on the ground, and busily digging and seeking about between the boards of the floor, but when it saw the stranger, it disappeared.
p573
sba(i__main__
Sentence
p574
(dp575
g17
I10
sg18
(lp576
S'He'
p577
aS'now'
p578
aS'told'
p579
aS'what'
p580
aS'he'
p581
aS'had'
p582
aS'seen'
p583
aS'and'
p584
aS'described'
p585
aS'the'
p586
aS'child'
p587
aS'exactly'
p588
aS','
p589
aS'and'
p590
aS'the'
p591
aS'mother'
p592
aS'recognized'
p593
aS'it'
p594
aS','
p595
aS'and'
p596
aS'said'
p597
aS','
p598
aS'ah'
p599
aS','
p600
aS'it'
p601
aS'is'
p602
aS'my'
p603
aS'dear'
p604
aS'child'
p605
aS'who'
p606
aS'died'
p607
aS'a'
p608
aS'month'
p609
aS'ago'
p610
aS'.'
p611
asg49
(lp612
VHe
p613
aVnow
p614
aVtell
p615
aVwhat
p616
aVhe
p617
ag71
ag372
aVand
p618
aVdescribe
p619
aVthe
p620
aVchild
p621
aVexactly
p622
ag65
aVand
p623
aVthe
p624
aVmother
p625
aVrecognize
p626
aVit
p627
ag65
aVand
p628
ag374
ag65
aVah
p629
ag65
aVit
p630
aVbe
p631
aVmy
p632
aVdear
p633
aVchild
p634
aVwho
p635
aVdie
p636
ag67
aVmonth
p637
aVago
p638
ag78
asg79
(lp639
g81
ag81
ag81
ag81
ag81
ag81
ag81
ag81
ag81
ag81
ag81
ag81
ag81
ag81
ag81
ag81
ag81
ag81
ag81
ag81
ag81
ag81
ag81
ag81
ag81
ag81
ag81
ag81
ag81
ag81
ag81
ag81
ag81
ag81
ag81
asg82
(lp640
g97
ag164
ag86
ag95
ag97
ag86
ag96
ag91
ag96
ag84
ag85
ag164
ag93
ag91
ag84
ag85
ag86
ag97
ag93
ag91
ag86
ag93
ag85
ag93
ag97
aS'VBZ'
p641
ag90
ag85
ag85
ag95
ag86
ag84
ag85
ag164
ag98
asg99
VHe now told what he had seen and described the child exactly, and the mother recognized it, and said, ah, it is my dear child who died a month ago.
p642
sba(i__main__
Sentence
p643
(dp644
g17
I11
sg18
(lp645
S'They'
p646
aS'took'
p647
aS'up'
p648
aS'the'
p649
aS'boards'
p650
aS'and'
p651
aS'found'
p652
aS'two'
p653
aS'farthings'
p654
aS'which'
p655
aS'the'
p656
aS'child'
p657
aS'had'
p658
aS'once'
p659
aS'received'
p660
aS'from'
p661
aS'its'
p662
aS'mother'
p663
aS'that'
p664
aS'it'
p665
aS'might'
p666
aS'give'
p667
aS'them'
p668
aS'to'
p669
aS'a'
p670
aS'poor'
p671
aS'man'
p672
aS'.'
p673
asg49
(lp674
VThey
p675
aVtake
p676
aVup
p677
aVthe
p678
aVboard
p679
aVand
p680
aVfind
p681
aVtwo
p682
aVfarthing
p683
aVwhich
p684
aVthe
p685
aVchild
p686
ag71
aVonce
p687
aVreceive
p688
aVfrom
p689
aVit
p690
aVmother
p691
aVthat
p692
aVit
p693
aVmight
p694
aVgive
p695
aVthem
p696
aVto
p697
ag67
aVpoor
p698
aVman
p699
ag78
asg79
(lp700
g81
ag81
ag81
ag81
ag81
ag81
ag81
ag81
ag81
ag81
ag81
ag81
ag81
ag81
ag81
ag81
ag81
ag81
ag81
ag81
ag81
ag81
ag81
ag81
ag81
ag81
ag81
ag81
asg82
(lp701
g97
ag86
ag504
ag84
ag92
ag91
ag96
ag87
ag92
ag344
ag84
ag85
ag86
ag164
ag96
ag89
ag90
ag85
ag344
ag97
ag387
ag208
ag97
ag343
ag84
ag94
ag85
ag98
asg99
VThey took up the boards and found two farthings which the child had once received from its mother that it might give them to a poor man.
p702
sba(i__main__
Sentence
p703
(dp704
g17
I12
sg18
(lp705
S'It'
p706
aS','
p707
aS'however'
p708
aS','
p709
aS'had'
p710
aS'thought'
p711
aS','
p712
aS'you'
p713
aS'can'
p714
aS'buy'
p715
aS'yourself'
p716
aS'a'
p717
aS'biscuit'
p718
aS'for'
p719
aS'that'
p720
aS','
p721
aS'and'
p722
aS'had'
p723
aS'kept'
p724
aS'the'
p725
aS'farthings'
p726
aS','
p727
aS'and'
p728
aS'hidden'
p729
aS'them'
p730
aS'in'
p731
aS'the'
p732
aS'openings'
p733
aS'between'
p734
aS'the'
p735
aS'boards'
p736
aS'.'
p737
asg49
(lp738
VIt
p739
ag65
aVhowever
p740
ag65
ag71
aVthink
p741
ag65
aVyou
p742
aVcan
p743
aVbuy
p744
aVyourself
p745
ag67
aVbiscuit
p746
aVfor
p747
aVthat
p748
ag65
aVand
p749
ag71
aVkeep
p750
aVthe
p751
aVfarthing
p752
ag65
aVand
p753
aVhide
p754
aVthem
p755
aVin
p756
aVthe
p757
aVopening
p758
aVbetween
p759
aVthe
p760
aVboard
p761
ag78
asg79
(lp762
g81
ag81
ag81
ag81
ag81
ag81
ag81
ag81
ag81
ag81
ag81
ag81
ag81
ag81
ag81
ag81
ag81
ag81
ag81
ag81
ag81
ag81
ag81
ag81
ag81
ag81
ag81
ag81
ag81
ag81
ag81
ag81
asg82
(lp763
g97
ag93
ag164
ag93
ag86
ag96
ag93
ag97
ag387
ag208
ag97
ag84
ag85
ag89
ag84
ag93
ag91
ag86
ag96
ag84
ag92
ag93
ag91
ag96
ag97
ag89
ag84
ag92
ag89
ag84
ag92
ag98
asg99
VIt, however, had thought, you can buy yourself a biscuit for that, and had kept the farthings, and hidden them in the openings between the boards.
p764
sba(i__main__
Sentence
p765
(dp766
g17
I13
sg18
(lp767
S'And'
p768
aS'therefore'
p769
aS'it'
p770
aS'had'
p771
aS'had'
p772
aS'no'
p773
aS'rest'
p774
aS'in'
p775
aS'its'
p776
aS'grave'
p777
aS','
p778
aS'and'
p779
aS'had'
p780
aS'come'
p781
aS'every'
p782
aS'day'
p783
aS'at'
p784
aS'noon'
p785
aS'to'
p786
aS'seek'
p787
aS'for'
p788
aS'these'
p789
aS'farthings'
p790
aS'.'
p791
asg49
(lp792
VAnd
p793
aVtherefore
p794
aVit
p795
ag71
ag71
aVno
p796
aVrest
p797
aVin
p798
aVit
p799
aVgrave
p800
ag65
aVand
p801
ag71
aVcome
p802
aVevery
p803
aVday
p804
aVat
p805
aVnoon
p806
aVto
p807
aVseek
p808
aVfor
p809
aVthese
p810
aVfarthing
p811
ag78
asg79
(lp812
g81
ag81
ag81
ag81
ag81
ag81
ag81
ag81
ag81
ag81
ag81
ag81
ag81
ag81
ag81
ag81
ag81
ag81
ag81
ag81
ag81
ag81
ag81
ag81
asg82
(lp813
g91
ag164
ag97
ag86
ag96
ag84
ag85
ag89
ag90
ag85
ag93
ag91
ag86
ag96
ag84
ag85
ag89
ag85
ag343
ag208
ag89
ag84
ag92
ag98
asg99
VAnd therefore it had had no rest in its grave, and had come every day at noon to seek for these farthings.
p814
sba(i__main__
Sentence
p815
(dp816
g17
I14
sg18
(lp817
S'The'
p818
aS'parents'
p819
aS'gave'
p820
aS'the'
p821
aS'money'
p822
aS'at'
p823
aS'once'
p824
aS'to'
p825
aS'a'
p826
aS'poor'
p827
aS'man'
p828
aS','
p829
aS'and'
p830
aS'after'
p831
aS'that'
p832
aS'the'
p833
aS'child'
p834
aS'was'
p835
aS'never'
p836
aS'seen'
p837
aS'again'
p838
aS'.'
p839
asg49
(lp840
VThe
p841
aVparent
p842
aVgive
p843
aVthe
p844
aVmoney
p845
aVat
p846
aVonce
p847
aVto
p848
ag67
aVpoor
p849
aVman
p850
ag65
aVand
p851
aVafter
p852
aVthat
p853
aVthe
p854
aVchild
p855
ag53
aVnever
p856
ag372
aVagain
p857
ag78
asg79
(lp858
g81
ag81
ag81
ag81
ag81
ag81
ag81
ag81
ag81
ag81
ag81
ag81
ag81
ag81
ag81
ag81
ag81
ag81
ag81
ag81
ag81
ag81
asg82
(lp859
g84
ag92
ag86
ag84
ag85
ag89
ag164
ag343
ag84
ag94
ag85
ag93
ag91
ag89
ag84
ag84
ag85
ag86
ag164
ag96
ag164
ag98
asg99
VThe parents gave the money at once to a poor man, and after that the child was never seen again. 
p860
sbasbsS'summary'
p861
g0
(g7
g2
Ntp862
Rp863
(dp864
g11
S'The ghost of a dead child tries to remove two farthings from the floorboards of its home. The child was supposed to give the farthings to a poor man but instead kept them for herself. The child is unable to rest in its grave until the farthings are found and given to the beggar.'
p865
sg13
(lp866
(i__main__
Sentence
p867
(dp868
g17
I0
sg18
(lp869
S'The'
p870
aS'ghost'
p871
aS'of'
p872
aS'a'
p873
aS'dead'
p874
aS'child'
p875
aS'tries'
p876
aS'to'
p877
aS'remove'
p878
aS'two'
p879
aS'farthings'
p880
aS'from'
p881
aS'the'
p882
aS'floorboards'
p883
aS'of'
p884
aS'its'
p885
aS'home'
p886
aS'.'
p887
asg49
(lp888
VThe
p889
aVghost
p890
aVof
p891
ag67
aVdead
p892
aVchild
p893
aVtry
p894
aVto
p895
aVremove
p896
aVtwo
p897
aVfarthing
p898
aVfrom
p899
aVthe
p900
aVfloorboard
p901
aVof
p902
aVit
p903
aVhome
p904
ag78
asg79
(lp905
g81
ag81
ag81
ag81
ag81
ag81
ag81
ag81
ag81
ag81
ag81
ag81
ag81
ag81
ag81
ag81
ag81
ag81
asg82
(lp906
g84
ag85
ag89
ag84
ag94
ag85
ag92
ag343
ag208
ag87
ag92
ag89
ag84
ag92
ag89
ag90
ag85
ag98
asg99
VThe ghost of a dead child tries to remove two farthings from the floorboards of its home.
p907
sba(i__main__
Sentence
p908
(dp909
g17
I1
sg18
(lp910
S'The'
p911
aS'child'
p912
aS'was'
p913
aS'supposed'
p914
aS'to'
p915
aS'give'
p916
aS'the'
p917
aS'farthings'
p918
aS'to'
p919
aS'a'
p920
aS'poor'
p921
aS'man'
p922
aS'but'
p923
aS'instead'
p924
aS'kept'
p925
aS'them'
p926
aS'for'
p927
aS'herself'
p928
aS'.'
p929
asg49
(lp930
VThe
p931
aVchild
p932
ag53
aVsuppose
p933
aVto
p934
aVgive
p935
aVthe
p936
aVfarthing
p937
aVto
p938
ag67
aVpoor
p939
aVman
p940
aVbut
p941
aVinstead
p942
ag750
aVthem
p943
aVfor
p944
aVherself
p945
ag78
asg79
(lp946
g81
ag81
ag81
ag81
ag81
ag81
ag81
ag81
ag81
ag81
ag81
ag81
ag81
ag81
ag81
ag81
ag81
ag81
ag81
asg82
(lp947
g84
ag85
ag86
ag96
ag343
ag208
ag84
ag92
ag343
ag84
ag94
ag85
ag91
ag164
ag86
ag97
ag89
ag97
ag98
asg99
VThe child was supposed to give the farthings to a poor man but instead kept them for herself.
p948
sba(i__main__
Sentence
p949
(dp950
g17
I2
sg18
(lp951
S'The'
p952
aS'child'
p953
aS'is'
p954
aS'unable'
p955
aS'to'
p956
aS'rest'
p957
aS'in'
p958
aS'its'
p959
aS'grave'
p960
aS'until'
p961
aS'the'
p962
aS'farthings'
p963
aS'are'
p964
aS'found'
p965
aS'and'
p966
aS'given'
p967
aS'to'
p968
aS'the'
p969
aS'beggar'
p970
aS'.'
p971
asg49
(lp972
VThe
p973
aVchild
p974
ag631
aVunable
p975
aVto
p976
aVrest
p977
aVin
p978
aVit
p979
aVgrave
p980
aVuntil
p981
aVthe
p982
aVfarthing
p983
aVbe
p984
ag681
aVand
p985
aVgive
p986
aVto
p987
aVthe
p988
aVbeggar
p989
ag78
asg79
(lp990
g81
ag81
ag81
ag81
ag81
ag81
ag81
ag81
ag81
ag81
ag81
ag81
ag81
ag81
ag81
ag81
ag81
ag81
ag81
ag81
asg82
(lp991
g84
ag85
ag641
ag94
ag343
ag85
ag89
ag90
ag85
ag89
ag84
ag92
ag386
ag96
ag91
ag96
ag343
ag84
ag85
ag98
asg99
VThe child is unable to rest in its grave until the farthings are found and given to the beggar.
p992
sbasbsS'name'
p993
S'The Stolen Farthings'
p994
sS'summaries'
p995
(lp996
g863
asb.