ccopy_reg
_reconstructor
p0
(c__main__
Story
p1
c__builtin__
object
p2
Ntp3
Rp4
(dp5
S'text'
p6
g0
(c__main__
Document
p7
g2
Ntp8
Rp9
(dp10
S'_Document__initialContent'
p11
S"Hans wished to put his son to learn a trade, so he went into the\nchurch and prayed to our Lord God to know which would be the most\nsuitable for him.  Then the clerk got behind the altar, and said,\nthieving, thieving.  On this Hans goes back to his son, and tells him\nhe is to learn thieving, and that the Lord God had said so.  So he\ngoes with his son to seek a man who is acquainted with thieving.\nThey walk a long time and come into a great forest, where stands a\nlittle house with an old woman in it.  Hans says, do you know of a\nman who is acquainted with thieving.  You can learn that here quite\nwell, says the woman, my son is a master of it.  So he speaks with\nthe son, and asks if he knows thieving really well.  The master-thief\nsays, I will teach him well.  Come back when a year is over, and then\nif you recognize your son, I will take no payment at all for teaching\nhim, but if you don't know him, you must give me two hundred talers.\n\nThe father goes home again, and the son learns witchcraft and\nthieving, thoroughly.  When the year is out, the father is full of\nanxiety to know how he shall recognize his son.  As he is thus going\nabout in his trouble, he meets a little dwarf, who says, man, what\nails you, that you are always in such trouble.\n\nOh, says Hans, a year ago I placed my son with a master-thief who\ntold me I was to come back when the year was out, and that if I then\ndid not know my son when I saw him, I was to pay two hundred talers,\nbut if I did know him I was to pay nothing, and now I am afraid of\nnot knowing him and can't tell where I am to get the money.  Then the\ndwarf tells him to take a crust of bread with him, and to stand\nbeneath the chimney.  There on the cross-beam is a basket, out of\nwhich a little bird is peeping, and that is your son.\n\nHans goes thither, and throws a crust of black bread in front of the\nbasket with the bird in it, and the little bird comes out, and looks\nup.  Hello, my son, are you here, says the father, and the son is\ndelighted to see his father, but the master-thief says, the devil\nmust have prompted you, or how could you have known your son.\nFather, let us go, said the youth.\n\nThen the father and son set out homeward.  On the way a carriage\ncomes driving by.  Hereupon the son says to his father, I will change\nmyself into a large greyhound, and then you can earn a great deal of\nmoney by me.  Then the gentleman calls from the carriage, my man,\nwill you sell your dog.  Yes, says the father. How much do you want\nfor it.  Thirty talers.  Well, man, that is a great deal, but as it\nis such a very fine dog I will have it. The gentleman takes it into\nhis carriage, but when they have driven a little farther the dog\nsprings out of the carriage through the window, and goes back to his\nfather, and is no longer a greyhound.\n\nThey go home together.  Next day there is a fair in the neighboring\ntown, so the youth says to his father, I will now change myself into\na beautiful horse, and you can sell me, but when you have sold me,\nyou must take off my bridle, or I cannot become a man again.  Then\nthe father goes with the horse to the fair, and the master-thief\ncomes and buys the horse for a hundred talers, but the father\nforgets, and does not take off the bridle.  So the man goes home with\nthe horse, and puts it in the stable.\n\nWhen the maid crosses the threshold, the horse says, take off my\nbridle, take off my bridle. Then the maid stands still, and says,\nwhat, can you speak.  So she goes and takes the bridle off, and the\nhorse becomes a sparrow, and flies out at the door, and the\nmaster-thief becomes a sparrow also, and flies after him.\n\nThen they come together and cast lots again, and the master loses.\nSo the master changes himself into a cock, and the youth becomes a\nfox, and bites the master's head off, and he died and has remained\ndead to this day.\n"
p12
sS'sentences'
p13
(lp14
(i__main__
Sentence
p15
(dp16
S'index'
p17
I0
sS'words'
p18
(lp19
S'Hans'
p20
aS'wished'
p21
aS'to'
p22
aS'put'
p23
aS'his'
p24
aS'son'
p25
aS'to'
p26
aS'learn'
p27
aS'a'
p28
aS'trade'
p29
aS','
p30
aS'so'
p31
aS'he'
p32
aS'went'
p33
aS'into'
p34
aS'the'
p35
aS'church'
p36
aS'and'
p37
aS'prayed'
p38
aS'to'
p39
aS'our'
p40
aS'Lord'
p41
aS'God'
p42
aS'to'
p43
aS'know'
p44
aS'which'
p45
aS'would'
p46
aS'be'
p47
aS'the'
p48
aS'most'
p49
aS'suitable'
p50
aS'for'
p51
aS'him'
p52
aS'.'
p53
asS'lemmas'
p54
(lp55
VHans
p56
aVwish
p57
aVto
p58
aVput
p59
aVhis
p60
aVson
p61
aVto
p62
aVlearn
p63
aVa
p64
aVtrade
p65
aV,
p66
aVso
p67
aVhe
p68
aVgo
p69
aVinto
p70
aVthe
p71
aVchurch
p72
aVand
p73
aVpray
p74
aVto
p75
aVour
p76
aVLord
p77
aVGod
p78
aVto
p79
aVknow
p80
aVwhich
p81
aVwould
p82
aVbe
p83
aVthe
p84
aVmost
p85
aVsuitable
p86
aVfor
p87
aVhim
p88
aV.
p89
asS'nerTags'
p90
(lp91
VPERSON
p92
aVO
p93
ag93
ag93
ag93
ag93
ag93
ag93
ag93
ag93
ag93
ag93
ag93
ag93
ag93
ag93
ag93
ag93
ag93
ag93
ag93
ag93
ag93
ag93
ag93
ag93
ag93
ag93
ag93
ag93
ag93
ag93
ag93
ag93
asS'posTags'
p94
(lp95
S'NNS'
p96
aS'VBD'
p97
aS'TO'
p98
aS'VB'
p99
aS'PRP$'
p100
aS'NN'
p101
ag98
ag99
aS'DT'
p102
ag101
aS','
p103
aS'RB'
p104
aS'PRP'
p105
ag97
aS'IN'
p106
ag102
ag101
aS'CC'
p107
ag97
ag98
ag100
aS'NNP'
p108
ag108
ag98
ag99
aS'WDT'
p109
aS'MD'
p110
ag99
ag102
aS'JJS'
p111
aS'JJ'
p112
ag106
ag105
aS'.'
p113
asS'_Sentence__initialContent'
p114
VHans wished to put his son to learn a trade, so he went into the church and prayed to our Lord God to know which would be the most suitable for him.
p115
sba(i__main__
Sentence
p116
(dp117
g17
I1
sg18
(lp118
S'Then'
p119
aS'the'
p120
aS'clerk'
p121
aS'got'
p122
aS'behind'
p123
aS'the'
p124
aS'altar'
p125
aS','
p126
aS'and'
p127
aS'said'
p128
aS','
p129
aS'thieving'
p130
aS','
p131
aS'thieving'
p132
aS'.'
p133
asg54
(lp134
VThen
p135
aVthe
p136
aVclerk
p137
aVget
p138
aVbehind
p139
aVthe
p140
aValtar
p141
ag66
aVand
p142
aVsay
p143
ag66
aVthieving
p144
ag66
aVthieve
p145
ag89
asg90
(lp146
g93
ag93
ag93
ag93
ag93
ag93
ag93
ag93
ag93
ag93
ag93
ag93
ag93
ag93
ag93
asg94
(lp147
g104
ag102
ag101
ag97
ag106
ag102
ag101
ag103
ag107
ag97
ag103
ag101
ag103
aS'VBG'
p148
ag113
asg114
VThen the clerk got behind the altar, and said, thieving, thieving.
p149
sba(i__main__
Sentence
p150
(dp151
g17
I2
sg18
(lp152
S'On'
p153
aS'this'
p154
aS'Hans'
p155
aS'goes'
p156
aS'back'
p157
aS'to'
p158
aS'his'
p159
aS'son'
p160
aS','
p161
aS'and'
p162
aS'tells'
p163
aS'him'
p164
aS'he'
p165
aS'is'
p166
aS'to'
p167
aS'learn'
p168
aS'thieving'
p169
aS','
p170
aS'and'
p171
aS'that'
p172
aS'the'
p173
aS'Lord'
p174
aS'God'
p175
aS'had'
p176
aS'said'
p177
aS'so'
p178
aS'.'
p179
asg54
(lp180
VOn
p181
aVthis
p182
aVHans
p183
aVgo
p184
aVback
p185
aVto
p186
aVhis
p187
aVson
p188
ag66
aVand
p189
aVtell
p190
aVhim
p191
aVhe
p192
aVbe
p193
aVto
p194
aVlearn
p195
aVthieving
p196
ag66
aVand
p197
aVthat
p198
aVthe
p199
aVLord
p200
aVGod
p201
aVhave
p202
ag143
aVso
p203
ag89
asg90
(lp204
g93
ag93
aVPERSON
p205
ag93
ag93
ag93
ag93
ag93
ag93
ag93
ag93
ag93
ag93
ag93
ag93
ag93
ag93
ag93
ag93
ag93
ag93
ag93
ag93
ag93
ag93
ag93
ag93
asg94
(lp206
g106
ag102
ag108
aS'VBZ'
p207
ag104
ag98
ag100
ag101
ag103
ag107
ag96
ag105
ag105
ag207
ag98
ag99
ag101
ag103
ag107
ag106
ag102
ag108
ag108
ag97
aS'VBN'
p208
ag104
ag113
asg114
VOn this Hans goes back to his son, and tells him he is to learn thieving, and that the Lord God had said so.
p209
sba(i__main__
Sentence
p210
(dp211
g17
I3
sg18
(lp212
S'So'
p213
aS'he'
p214
aS'goes'
p215
aS'with'
p216
aS'his'
p217
aS'son'
p218
aS'to'
p219
aS'seek'
p220
aS'a'
p221
aS'man'
p222
aS'who'
p223
aS'is'
p224
aS'acquainted'
p225
aS'with'
p226
aS'thieving'
p227
aS'.'
p228
asg54
(lp229
VSo
p230
aVhe
p231
aVgo
p232
aVwith
p233
aVhis
p234
aVson
p235
aVto
p236
aVseek
p237
ag64
aVman
p238
aVwho
p239
ag193
aVacquaint
p240
aVwith
p241
aVthieving
p242
ag89
asg90
(lp243
g93
ag93
ag93
ag93
ag93
ag93
ag93
ag93
ag93
ag93
ag93
ag93
ag93
ag93
ag93
ag93
asg94
(lp244
g106
ag105
ag207
ag106
ag100
ag101
ag98
ag99
ag102
ag101
aS'WP'
p245
ag207
ag208
ag106
ag101
ag113
asg114
VSo he goes with his son to seek a man who is acquainted with thieving.
p246
sba(i__main__
Sentence
p247
(dp248
g17
I4
sg18
(lp249
S'They'
p250
aS'walk'
p251
aS'a'
p252
aS'long'
p253
aS'time'
p254
aS'and'
p255
aS'come'
p256
aS'into'
p257
aS'a'
p258
aS'great'
p259
aS'forest'
p260
aS','
p261
aS'where'
p262
aS'stands'
p263
aS'a'
p264
aS'little'
p265
aS'house'
p266
aS'with'
p267
aS'an'
p268
aS'old'
p269
aS'woman'
p270
aS'in'
p271
aS'it'
p272
aS'.'
p273
asg54
(lp274
VThey
p275
aVwalk
p276
ag64
aVlong
p277
aVtime
p278
aVand
p279
aVcome
p280
aVinto
p281
ag64
aVgreat
p282
aVforest
p283
ag66
aVwhere
p284
aVstand
p285
ag64
aVlittle
p286
aVhouse
p287
aVwith
p288
aVan
p289
aVold
p290
aVwoman
p291
aVin
p292
aVit
p293
ag89
asg90
(lp294
g93
ag93
ag93
ag93
ag93
ag93
ag93
ag93
ag93
ag93
ag93
ag93
ag93
ag93
ag93
ag93
ag93
ag93
ag93
ag93
ag93
ag93
ag93
ag93
asg94
(lp295
g105
aS'VBP'
p296
ag102
ag112
ag101
ag107
ag99
ag106
ag102
ag112
ag101
ag103
aS'WRB'
p297
ag96
ag102
ag104
ag101
ag106
ag102
ag112
ag101
ag106
ag105
ag113
asg114
VThey walk a long time and come into a great forest, where stands a little house with an old woman in it.
p298
sba(i__main__
Sentence
p299
(dp300
g17
I5
sg18
(lp301
S'Hans'
p302
aS'says'
p303
aS','
p304
aS'do'
p305
aS'you'
p306
aS'know'
p307
aS'of'
p308
aS'a'
p309
aS'man'
p310
aS'who'
p311
aS'is'
p312
aS'acquainted'
p313
aS'with'
p314
aS'thieving'
p315
aS'.'
p316
asg54
(lp317
VHans
p318
aVsay
p319
ag66
aVdo
p320
aVyou
p321
aVknow
p322
aVof
p323
ag64
aVman
p324
aVwho
p325
ag193
aVacquaint
p326
aVwith
p327
aVthieving
p328
ag89
asg90
(lp329
VPERSON
p330
ag93
ag93
ag93
ag93
ag93
ag93
ag93
ag93
ag93
ag93
ag93
ag93
ag93
ag93
asg94
(lp331
g96
ag207
ag103
ag296
ag105
ag99
ag106
ag102
ag101
ag245
ag207
ag208
ag106
ag101
ag113
asg114
VHans says, do you know of a man who is acquainted with thieving.
p332
sba(i__main__
Sentence
p333
(dp334
g17
I6
sg18
(lp335
S'You'
p336
aS'can'
p337
aS'learn'
p338
aS'that'
p339
aS'here'
p340
aS'quite'
p341
aS'well'
p342
aS','
p343
aS'says'
p344
aS'the'
p345
aS'woman'
p346
aS','
p347
aS'my'
p348
aS'son'
p349
aS'is'
p350
aS'a'
p351
aS'master'
p352
aS'of'
p353
aS'it'
p354
aS'.'
p355
asg54
(lp356
VYou
p357
aVcan
p358
aVlearn
p359
aVthat
p360
aVhere
p361
aVquite
p362
aVwell
p363
ag66
aVsay
p364
aVthe
p365
aVwoman
p366
ag66
aVmy
p367
aVson
p368
ag193
ag64
aVmaster
p369
aVof
p370
aVit
p371
ag89
asg90
(lp372
g93
ag93
ag93
ag93
ag93
ag93
ag93
ag93
ag93
ag93
ag93
ag93
ag93
ag93
ag93
ag93
ag93
ag93
ag93
ag93
asg94
(lp373
g105
ag110
ag99
ag106
ag104
ag104
ag104
ag103
ag207
ag102
ag101
ag103
ag100
ag101
ag207
ag102
ag101
ag106
ag105
ag113
asg114
VYou can learn that here quite well, says the woman, my son is a master of it.
p374
sba(i__main__
Sentence
p375
(dp376
g17
I7
sg18
(lp377
S'So'
p378
aS'he'
p379
aS'speaks'
p380
aS'with'
p381
aS'the'
p382
aS'son'
p383
aS','
p384
aS'and'
p385
aS'asks'
p386
aS'if'
p387
aS'he'
p388
aS'knows'
p389
aS'thieving'
p390
aS'really'
p391
aS'well'
p392
aS'.'
p393
asg54
(lp394
VSo
p395
aVhe
p396
aVspeak
p397
aVwith
p398
aVthe
p399
aVson
p400
ag66
aVand
p401
aVask
p402
aVif
p403
aVhe
p404
aVknow
p405
aVthieve
p406
aVreally
p407
aVwell
p408
ag89
asg90
(lp409
g93
ag93
ag93
ag93
ag93
ag93
ag93
ag93
ag93
ag93
ag93
ag93
ag93
ag93
ag93
ag93
asg94
(lp410
g106
ag105
ag207
ag106
ag102
ag101
ag103
ag107
ag207
ag106
ag105
ag207
ag148
ag104
ag104
ag113
asg114
VSo he speaks with the son, and asks if he knows thieving really well.
p411
sba(i__main__
Sentence
p412
(dp413
g17
I8
sg18
(lp414
S'The'
p415
aS'master-thief'
p416
aS'says'
p417
aS','
p418
aS'I'
p419
aS'will'
p420
aS'teach'
p421
aS'him'
p422
aS'well'
p423
aS'.'
p424
asg54
(lp425
VThe
p426
aVmaster-thief
p427
aVsay
p428
ag66
aVI
p429
aVwill
p430
aVteach
p431
aVhim
p432
aVwell
p433
ag89
asg90
(lp434
g93
ag93
ag93
ag93
ag93
ag93
ag93
ag93
ag93
ag93
asg94
(lp435
g102
ag112
ag207
ag103
ag105
ag110
ag99
ag105
ag104
ag113
asg114
VThe master-thief says, I will teach him well.
p436
sba(i__main__
Sentence
p437
(dp438
g17
I9
sg18
(lp439
S'Come'
p440
aS'back'
p441
aS'when'
p442
aS'a'
p443
aS'year'
p444
aS'is'
p445
aS'over'
p446
aS','
p447
aS'and'
p448
aS'then'
p449
aS'if'
p450
aS'you'
p451
aS'recognize'
p452
aS'your'
p453
aS'son'
p454
aS','
p455
aS'I'
p456
aS'will'
p457
aS'take'
p458
aS'no'
p459
aS'payment'
p460
aS'at'
p461
aS'all'
p462
aS'for'
p463
aS'teaching'
p464
aS'him'
p465
aS','
p466
aS'but'
p467
aS'if'
p468
aS'you'
p469
aS'do'
p470
aS"n't"
p471
aS'know'
p472
aS'him'
p473
aS','
p474
aS'you'
p475
aS'must'
p476
aS'give'
p477
aS'me'
p478
aS'two'
p479
aS'hundred'
p480
aS'talers'
p481
aS'.'
p482
asg54
(lp483
VCome
p484
aVback
p485
aVwhen
p486
ag64
aVyear
p487
ag193
aVover
p488
ag66
aVand
p489
aVthen
p490
aVif
p491
aVyou
p492
aVrecognize
p493
aVyour
p494
aVson
p495
ag66
ag429
aVwill
p496
aVtake
p497
aVno
p498
aVpayment
p499
aVat
p500
aVall
p501
aVfor
p502
aVteaching
p503
aVhim
p504
ag66
aVbut
p505
aVif
p506
aVyou
p507
aVdo
p508
aVn't
p509
aVknow
p510
aVhim
p511
ag66
aVyou
p512
aVmust
p513
aVgive
p514
aVme
p515
aVtwo
p516
aVhundred
p517
aVtalers
p518
ag89
asg90
(lp519
g93
ag93
ag93
ag93
ag93
ag93
ag93
ag93
ag93
ag93
ag93
ag93
ag93
ag93
ag93
ag93
ag93
ag93
ag93
ag93
ag93
ag93
ag93
ag93
ag93
ag93
ag93
ag93
ag93
ag93
ag93
ag93
ag93
ag93
ag93
ag93
ag93
ag93
ag93
ag93
ag93
ag93
ag93
asg94
(lp520
g108
ag104
ag297
ag102
ag101
ag207
ag106
ag103
ag107
ag104
ag106
ag105
ag296
ag100
ag101
ag103
ag105
ag110
ag99
ag102
ag101
ag106
ag102
ag106
ag101
ag105
ag103
ag107
ag106
ag105
ag296
ag104
ag99
ag105
ag103
ag105
ag110
ag99
ag105
aS'CD'
p521
ag97
ag96
ag113
asg114
VCome back when a year is over, and then if you recognize your son, I will take no payment at all for teaching him, but if you don't know him, you must give me two hundred talers.
p522
sba(i__main__
Sentence
p523
(dp524
g17
I10
sg18
(lp525
S'The'
p526
aS'father'
p527
aS'goes'
p528
aS'home'
p529
aS'again'
p530
aS','
p531
aS'and'
p532
aS'the'
p533
aS'son'
p534
aS'learns'
p535
aS'witchcraft'
p536
aS'and'
p537
aS'thieving'
p538
aS','
p539
aS'thoroughly'
p540
aS'.'
p541
asg54
(lp542
VThe
p543
aVfather
p544
aVgo
p545
aVhome
p546
aVagain
p547
ag66
aVand
p548
aVthe
p549
aVson
p550
aVlearn
p551
aVwitchcraft
p552
aVand
p553
aVthieve
p554
ag66
aVthoroughly
p555
ag89
asg90
(lp556
g93
ag93
ag93
ag93
ag93
ag93
ag93
ag93
ag93
ag93
ag93
ag93
ag93
ag93
ag93
ag93
asg94
(lp557
g102
ag101
ag207
ag101
ag104
ag103
ag107
ag102
ag101
ag207
ag101
ag107
ag148
ag103
ag104
ag113
asg114
VThe father goes home again, and the son learns witchcraft and thieving, thoroughly.
p558
sba(i__main__
Sentence
p559
(dp560
g17
I11
sg18
(lp561
S'When'
p562
aS'the'
p563
aS'year'
p564
aS'is'
p565
aS'out'
p566
aS','
p567
aS'the'
p568
aS'father'
p569
aS'is'
p570
aS'full'
p571
aS'of'
p572
aS'anxiety'
p573
aS'to'
p574
aS'know'
p575
aS'how'
p576
aS'he'
p577
aS'shall'
p578
aS'recognize'
p579
aS'his'
p580
aS'son'
p581
aS'.'
p582
asg54
(lp583
VWhen
p584
aVthe
p585
aVyear
p586
ag193
aVout
p587
ag66
aVthe
p588
aVfather
p589
ag193
aVfull
p590
aVof
p591
aVanxiety
p592
aVto
p593
aVknow
p594
aVhow
p595
aVhe
p596
aVshall
p597
aVrecognize
p598
aVhis
p599
aVson
p600
ag89
asg90
(lp601
g93
ag93
ag93
ag93
ag93
ag93
ag93
ag93
ag93
ag93
ag93
ag93
ag93
ag93
ag93
ag93
ag93
ag93
ag93
ag93
ag93
asg94
(lp602
g297
ag102
ag101
ag207
aS'RP'
p603
ag103
ag102
ag101
ag207
ag112
ag106
ag101
ag98
ag99
ag297
ag105
ag110
ag99
ag100
ag101
ag113
asg114
VWhen the year is out, the father is full of anxiety to know how he shall recognize his son.
p604
sba(i__main__
Sentence
p605
(dp606
g17
I12
sg18
(lp607
S'As'
p608
aS'he'
p609
aS'is'
p610
aS'thus'
p611
aS'going'
p612
aS'about'
p613
aS'in'
p614
aS'his'
p615
aS'trouble'
p616
aS','
p617
aS'he'
p618
aS'meets'
p619
aS'a'
p620
aS'little'
p621
aS'dwarf'
p622
aS','
p623
aS'who'
p624
aS'says'
p625
aS','
p626
aS'man'
p627
aS','
p628
aS'what'
p629
aS'ails'
p630
aS'you'
p631
aS','
p632
aS'that'
p633
aS'you'
p634
aS'are'
p635
aS'always'
p636
aS'in'
p637
aS'such'
p638
aS'trouble'
p639
aS'.'
p640
asg54
(lp641
VAs
p642
aVhe
p643
ag193
aVthus
p644
aVgo
p645
aVabout
p646
aVin
p647
aVhis
p648
aVtrouble
p649
ag66
aVhe
p650
aVmeet
p651
ag64
aVlittle
p652
aVdwarf
p653
ag66
aVwho
p654
aVsay
p655
ag66
aVman
p656
ag66
aVwhat
p657
aVail
p658
aVyou
p659
ag66
aVthat
p660
aVyou
p661
aVbe
p662
aValways
p663
aVin
p664
aVsuch
p665
aVtrouble
p666
ag89
asg90
(lp667
g93
ag93
ag93
ag93
ag93
ag93
ag93
ag93
ag93
ag93
ag93
ag93
ag93
ag93
ag93
ag93
ag93
ag93
ag93
ag93
ag93
ag93
ag93
ag93
ag93
ag93
ag93
ag93
ag93
ag93
ag93
ag93
ag93
asg94
(lp668
g106
ag105
ag207
ag104
ag148
ag106
ag106
ag100
ag101
ag103
ag105
ag207
ag102
ag104
ag101
ag103
ag245
ag207
ag103
ag101
ag103
ag245
ag96
ag105
ag103
ag102
ag105
ag296
ag104
ag106
ag112
ag101
ag113
asg114
VAs he is thus going about in his trouble, he meets a little dwarf, who says, man, what ails you, that you are always in such trouble.
p669
sba(i__main__
Sentence
p670
(dp671
g17
I13
sg18
(lp672
S'Oh'
p673
aS','
p674
aS'says'
p675
aS'Hans'
p676
aS','
p677
aS'a'
p678
aS'year'
p679
aS'ago'
p680
aS'I'
p681
aS'placed'
p682
aS'my'
p683
aS'son'
p684
aS'with'
p685
aS'a'
p686
aS'master-thief'
p687
aS'who'
p688
aS'told'
p689
aS'me'
p690
aS'I'
p691
aS'was'
p692
aS'to'
p693
aS'come'
p694
aS'back'
p695
aS'when'
p696
aS'the'
p697
aS'year'
p698
aS'was'
p699
aS'out'
p700
aS','
p701
aS'and'
p702
aS'that'
p703
aS'if'
p704
aS'I'
p705
aS'then'
p706
aS'did'
p707
aS'not'
p708
aS'know'
p709
aS'my'
p710
aS'son'
p711
aS'when'
p712
aS'I'
p713
aS'saw'
p714
aS'him'
p715
aS','
p716
aS'I'
p717
aS'was'
p718
aS'to'
p719
aS'pay'
p720
aS'two'
p721
aS'hundred'
p722
aS'talers'
p723
aS','
p724
aS'but'
p725
aS'if'
p726
aS'I'
p727
aS'did'
p728
aS'know'
p729
aS'him'
p730
aS'I'
p731
aS'was'
p732
aS'to'
p733
aS'pay'
p734
aS'nothing'
p735
aS','
p736
aS'and'
p737
aS'now'
p738
aS'I'
p739
aS'am'
p740
aS'afraid'
p741
aS'of'
p742
aS'not'
p743
aS'knowing'
p744
aS'him'
p745
aS'and'
p746
aS'ca'
p747
aS"n't"
p748
aS'tell'
p749
aS'where'
p750
aS'I'
p751
aS'am'
p752
aS'to'
p753
aS'get'
p754
aS'the'
p755
aS'money'
p756
aS'.'
p757
asg54
(lp758
VOh
p759
ag66
aVsay
p760
aVHans
p761
ag66
ag64
aVyear
p762
aVago
p763
ag429
aVplace
p764
aVmy
p765
aVson
p766
aVwith
p767
ag64
aVmaster-thief
p768
aVwho
p769
aVtold
p770
aVme
p771
ag429
aVbe
p772
aVto
p773
aVcome
p774
aVback
p775
aVwhen
p776
aVthe
p777
aVyear
p778
ag772
aVout
p779
ag66
aVand
p780
aVthat
p781
aVif
p782
ag429
aVthen
p783
aVdo
p784
aVnot
p785
aVknow
p786
aVmy
p787
aVson
p788
aVwhen
p789
ag429
aVsaw
p790
aVhim
p791
ag66
ag429
ag772
aVto
p792
aVpay
p793
aVtwo
p794
aVhundred
p795
aVtalers
p796
ag66
aVbut
p797
aVif
p798
ag429
ag784
aVknow
p799
aVhim
p800
ag429
ag772
aVto
p801
aVpay
p802
aVnothing
p803
ag66
aVand
p804
aVnow
p805
ag429
aVbe
p806
aVafraid
p807
aVof
p808
aVnot
p809
aVknow
p810
aVhim
p811
aVand
p812
aVca
p813
aVn't
p814
aVtell
p815
aVwhere
p816
ag429
ag806
aVto
p817
aVget
p818
aVthe
p819
aVmoney
p820
ag89
asg90
(lp821
g93
ag93
ag93
aVPERSON
p822
ag93
ag93
ag93
ag93
ag93
ag93
ag93
ag93
ag93
ag93
ag93
ag93
ag93
ag93
ag93
ag93
ag93
ag93
ag93
ag93
ag93
ag93
ag93
ag93
ag93
ag93
ag93
ag93
ag93
ag93
ag93
ag93
ag93
ag93
ag93
ag93
ag93
ag93
ag93
ag93
ag93
ag93
ag93
ag93
ag93
ag93
ag93
ag93
ag93
ag93
ag93
ag93
ag93
ag93
ag93
ag93
ag93
ag93
ag93
ag93
ag93
ag93
ag93
ag93
ag93
ag93
ag93
ag93
ag93
ag93
ag93
ag93
ag93
ag93
ag93
ag93
ag93
ag93
ag93
ag93
ag93
asg94
(lp823
S'UH'
p824
ag103
ag207
ag108
ag103
ag102
ag101
ag106
ag105
ag97
ag100
ag101
ag106
ag102
ag112
ag245
ag101
ag105
ag105
ag97
ag98
ag99
ag104
ag297
ag102
ag101
ag97
ag106
ag103
ag107
ag106
ag106
ag105
ag104
ag97
ag104
ag99
ag100
ag101
ag297
ag105
ag296
ag105
ag103
ag105
ag97
ag98
ag99
ag521
ag208
ag96
ag103
ag107
ag106
ag105
ag97
ag99
ag105
ag105
ag97
ag98
ag99
ag101
ag103
ag107
ag104
ag105
ag296
ag112
ag106
ag104
ag148
ag105
ag107
ag110
ag104
ag99
ag297
ag105
ag296
ag98
ag99
ag102
ag101
ag113
asg114
VOh, says Hans, a year ago I placed my son with a master-thief who told me I was to come back when the year was out, and that if I then did not know my son when I saw him, I was to pay two hundred talers, but if I did know him I was to pay nothing, and now I am afraid of not knowing him and can't tell where I am to get the money.
p825
sba(i__main__
Sentence
p826
(dp827
g17
I14
sg18
(lp828
S'Then'
p829
aS'the'
p830
aS'dwarf'
p831
aS'tells'
p832
aS'him'
p833
aS'to'
p834
aS'take'
p835
aS'a'
p836
aS'crust'
p837
aS'of'
p838
aS'bread'
p839
aS'with'
p840
aS'him'
p841
aS','
p842
aS'and'
p843
aS'to'
p844
aS'stand'
p845
aS'beneath'
p846
aS'the'
p847
aS'chimney'
p848
aS'.'
p849
asg54
(lp850
VThen
p851
aVthe
p852
aVdwarf
p853
aVtell
p854
aVhim
p855
aVto
p856
aVtake
p857
ag64
aVcrust
p858
aVof
p859
aVbread
p860
aVwith
p861
aVhim
p862
ag66
aVand
p863
aVto
p864
aVstand
p865
aVbeneath
p866
aVthe
p867
aVchimney
p868
ag89
asg90
(lp869
g93
ag93
ag93
ag93
ag93
ag93
ag93
ag93
ag93
ag93
ag93
ag93
ag93
ag93
ag93
ag93
ag93
ag93
ag93
ag93
ag93
asg94
(lp870
g104
ag102
ag101
ag207
ag105
ag98
ag99
ag102
ag112
ag106
ag101
ag106
ag105
ag103
ag107
ag98
ag99
ag101
ag102
ag101
ag113
asg114
VThen the dwarf tells him to take a crust of bread with him, and to stand beneath the chimney.
p871
sba(i__main__
Sentence
p872
(dp873
g17
I15
sg18
(lp874
S'There'
p875
aS'on'
p876
aS'the'
p877
aS'cross-beam'
p878
aS'is'
p879
aS'a'
p880
aS'basket'
p881
aS','
p882
aS'out'
p883
aS'of'
p884
aS'which'
p885
aS'a'
p886
aS'little'
p887
aS'bird'
p888
aS'is'
p889
aS'peeping'
p890
aS','
p891
aS'and'
p892
aS'that'
p893
aS'is'
p894
aS'your'
p895
aS'son'
p896
aS'.'
p897
asg54
(lp898
VThere
p899
aVon
p900
aVthe
p901
aVcross-beam
p902
ag193
ag64
aVbasket
p903
ag66
aVout
p904
aVof
p905
aVwhich
p906
ag64
aVlittle
p907
aVbird
p908
ag193
aVpeep
p909
ag66
aVand
p910
aVthat
p911
ag193
aVyour
p912
aVson
p913
ag89
asg90
(lp914
g93
ag93
ag93
ag93
ag93
ag93
ag93
ag93
ag93
ag93
ag93
ag93
ag93
ag93
ag93
ag93
ag93
ag93
ag93
ag93
ag93
ag93
ag93
asg94
(lp915
S'EX'
p916
ag106
ag102
ag101
ag207
ag102
ag101
ag103
ag106
ag106
ag109
ag102
ag104
ag112
ag207
ag148
ag103
ag107
ag106
ag207
ag100
ag101
ag113
asg114
VThere on the cross-beam is a basket, out of which a little bird is peeping, and that is your son.
p917
sba(i__main__
Sentence
p918
(dp919
g17
I16
sg18
(lp920
S'Hans'
p921
aS'goes'
p922
aS'thither'
p923
aS','
p924
aS'and'
p925
aS'throws'
p926
aS'a'
p927
aS'crust'
p928
aS'of'
p929
aS'black'
p930
aS'bread'
p931
aS'in'
p932
aS'front'
p933
aS'of'
p934
aS'the'
p935
aS'basket'
p936
aS'with'
p937
aS'the'
p938
aS'bird'
p939
aS'in'
p940
aS'it'
p941
aS','
p942
aS'and'
p943
aS'the'
p944
aS'little'
p945
aS'bird'
p946
aS'comes'
p947
aS'out'
p948
aS','
p949
aS'and'
p950
aS'looks'
p951
aS'up'
p952
aS'.'
p953
asg54
(lp954
VHans
p955
aVgo
p956
aVthither
p957
ag66
aVand
p958
aVthrow
p959
ag64
aVcrust
p960
aVof
p961
aVblack
p962
aVbread
p963
aVin
p964
aVfront
p965
aVof
p966
aVthe
p967
aVbasket
p968
aVwith
p969
aVthe
p970
aVbird
p971
aVin
p972
aVit
p973
ag66
aVand
p974
aVthe
p975
aVlittle
p976
aVbird
p977
aVcome
p978
aVout
p979
ag66
aVand
p980
aVlook
p981
aVup
p982
ag89
asg90
(lp983
VPERSON
p984
ag93
ag93
ag93
ag93
ag93
ag93
ag93
ag93
ag93
ag93
ag93
ag93
ag93
ag93
ag93
ag93
ag93
ag93
ag93
ag93
ag93
ag93
ag93
ag93
ag93
ag93
ag93
ag93
ag93
ag93
ag93
ag93
asg94
(lp985
g96
ag207
ag104
ag103
ag107
ag207
ag102
ag101
ag106
ag112
ag101
ag106
ag101
ag106
ag102
ag101
ag106
ag102
ag112
ag106
ag105
ag103
ag107
ag102
ag112
ag101
ag207
ag603
ag103
ag107
ag96
ag603
ag113
asg114
VHans goes thither, and throws a crust of black bread in front of the basket with the bird in it, and the little bird comes out, and looks up.
p986
sba(i__main__
Sentence
p987
(dp988
g17
I17
sg18
(lp989
S'Hello'
p990
aS','
p991
aS'my'
p992
aS'son'
p993
aS','
p994
aS'are'
p995
aS'you'
p996
aS'here'
p997
aS','
p998
aS'says'
p999
aS'the'
p1000
aS'father'
p1001
aS','
p1002
aS'and'
p1003
aS'the'
p1004
aS'son'
p1005
aS'is'
p1006
aS'delighted'
p1007
aS'to'
p1008
aS'see'
p1009
aS'his'
p1010
aS'father'
p1011
aS','
p1012
aS'but'
p1013
aS'the'
p1014
aS'master-thief'
p1015
aS'says'
p1016
aS','
p1017
aS'the'
p1018
aS'devil'
p1019
aS'must'
p1020
aS'have'
p1021
aS'prompted'
p1022
aS'you'
p1023
aS','
p1024
aS'or'
p1025
aS'how'
p1026
aS'could'
p1027
aS'you'
p1028
aS'have'
p1029
aS'known'
p1030
aS'your'
p1031
aS'son'
p1032
aS'.'
p1033
asg54
(lp1034
VHello
p1035
ag66
aVmy
p1036
aVson
p1037
ag66
ag662
aVyou
p1038
aVhere
p1039
ag66
aVsay
p1040
aVthe
p1041
aVfather
p1042
ag66
aVand
p1043
aVthe
p1044
aVson
p1045
ag193
aVdelight
p1046
aVto
p1047
aVsee
p1048
aVhis
p1049
aVfather
p1050
ag66
aVbut
p1051
aVthe
p1052
aVmaster-thief
p1053
aVsay
p1054
ag66
aVthe
p1055
aVdevil
p1056
aVmust
p1057
aVhave
p1058
aVprompt
p1059
aVyou
p1060
ag66
aVor
p1061
aVhow
p1062
aVcould
p1063
aVyou
p1064
aVhave
p1065
aVknow
p1066
aVyour
p1067
aVson
p1068
ag89
asg90
(lp1069
g93
ag93
ag93
ag93
ag93
ag93
ag93
ag93
ag93
ag93
ag93
ag93
ag93
ag93
ag93
ag93
ag93
ag93
ag93
ag93
ag93
ag93
ag93
ag93
ag93
ag93
ag93
ag93
ag93
ag93
ag93
ag93
ag93
ag93
ag93
ag93
ag93
ag93
ag93
ag93
ag93
ag93
ag93
ag93
asg94
(lp1070
g108
ag103
ag100
ag101
ag103
ag296
ag105
ag104
ag103
ag207
ag102
ag101
ag103
ag107
ag102
ag101
ag207
ag208
ag98
ag99
ag100
ag101
ag103
ag107
ag102
ag112
ag207
ag103
ag102
ag101
ag110
ag99
ag208
ag105
ag103
ag107
ag297
ag110
ag105
ag99
ag208
ag100
ag101
ag113
asg114
VHello, my son, are you here, says the father, and the son is delighted to see his father, but the master-thief says, the devil must have prompted you, or how could you have known your son.
p1071
sba(i__main__
Sentence
p1072
(dp1073
g17
I18
sg18
(lp1074
S'Father'
p1075
aS','
p1076
aS'let'
p1077
aS'us'
p1078
aS'go'
p1079
aS','
p1080
aS'said'
p1081
aS'the'
p1082
aS'youth'
p1083
aS'.'
p1084
asg54
(lp1085
VFather
p1086
ag66
aVlet
p1087
aVu
p1088
aVgo
p1089
ag66
ag143
aVthe
p1090
aVyouth
p1091
ag89
asg90
(lp1092
g93
ag93
ag93
ag93
ag93
ag93
ag93
ag93
ag93
ag93
asg94
(lp1093
g108
ag103
ag99
ag105
ag99
ag103
ag97
ag102
ag101
ag113
asg114
VFather, let us go, said the youth.
p1094
sba(i__main__
Sentence
p1095
(dp1096
g17
I19
sg18
(lp1097
S'Then'
p1098
aS'the'
p1099
aS'father'
p1100
aS'and'
p1101
aS'son'
p1102
aS'set'
p1103
aS'out'
p1104
aS'homeward'
p1105
aS'.'
p1106
asg54
(lp1107
VThen
p1108
aVthe
p1109
aVfather
p1110
aVand
p1111
aVson
p1112
aVset
p1113
aVout
p1114
aVhomeward
p1115
ag89
asg90
(lp1116
g93
ag93
ag93
ag93
ag93
ag93
ag93
ag93
ag93
asg94
(lp1117
g104
ag102
ag101
ag107
ag101
ag97
ag603
ag104
ag113
asg114
VThen the father and son set out homeward.
p1118
sba(i__main__
Sentence
p1119
(dp1120
g17
I20
sg18
(lp1121
S'On'
p1122
aS'the'
p1123
aS'way'
p1124
aS'a'
p1125
aS'carriage'
p1126
aS'comes'
p1127
aS'driving'
p1128
aS'by'
p1129
aS'.'
p1130
asg54
(lp1131
VOn
p1132
aVthe
p1133
aVway
p1134
ag64
aVcarriage
p1135
aVcome
p1136
aVdrive
p1137
aVby
p1138
ag89
asg90
(lp1139
g93
ag93
ag93
ag93
ag93
ag93
ag93
ag93
ag93
asg94
(lp1140
g106
ag102
ag101
ag102
ag101
ag207
ag148
ag106
ag113
asg114
VOn the way a carriage comes driving by.
p1141
sba(i__main__
Sentence
p1142
(dp1143
g17
I21
sg18
(lp1144
S'Hereupon'
p1145
aS'the'
p1146
aS'son'
p1147
aS'says'
p1148
aS'to'
p1149
aS'his'
p1150
aS'father'
p1151
aS','
p1152
aS'I'
p1153
aS'will'
p1154
aS'change'
p1155
aS'myself'
p1156
aS'into'
p1157
aS'a'
p1158
aS'large'
p1159
aS'greyhound'
p1160
aS','
p1161
aS'and'
p1162
aS'then'
p1163
aS'you'
p1164
aS'can'
p1165
aS'earn'
p1166
aS'a'
p1167
aS'great'
p1168
aS'deal'
p1169
aS'of'
p1170
aS'money'
p1171
aS'by'
p1172
aS'me'
p1173
aS'.'
p1174
asg54
(lp1175
VHereupon
p1176
aVthe
p1177
aVson
p1178
aVsay
p1179
aVto
p1180
aVhis
p1181
aVfather
p1182
ag66
ag429
aVwill
p1183
aVchange
p1184
aVmyself
p1185
aVinto
p1186
ag64
aVlarge
p1187
aVgreyhound
p1188
ag66
aVand
p1189
aVthen
p1190
aVyou
p1191
aVcan
p1192
aVearn
p1193
ag64
aVgreat
p1194
aVdeal
p1195
aVof
p1196
aVmoney
p1197
aVby
p1198
aVme
p1199
ag89
asg90
(lp1200
VPERSON
p1201
ag93
ag93
ag93
ag93
ag93
ag93
ag93
ag93
ag93
ag93
ag93
ag93
ag93
ag93
ag93
ag93
ag93
ag93
ag93
ag93
ag93
ag93
ag93
ag93
ag93
ag93
ag93
ag93
ag93
asg94
(lp1202
g108
ag102
ag101
ag207
ag98
ag100
ag101
ag103
ag105
ag110
ag99
ag105
ag106
ag102
ag112
ag101
ag103
ag107
ag104
ag105
ag110
ag99
ag102
ag112
ag101
ag106
ag101
ag106
ag105
ag113
asg114
VHereupon the son says to his father, I will change myself into a large greyhound, and then you can earn a great deal of money by me.
p1203
sba(i__main__
Sentence
p1204
(dp1205
g17
I22
sg18
(lp1206
S'Then'
p1207
aS'the'
p1208
aS'gentleman'
p1209
aS'calls'
p1210
aS'from'
p1211
aS'the'
p1212
aS'carriage'
p1213
aS','
p1214
aS'my'
p1215
aS'man'
p1216
aS','
p1217
aS'will'
p1218
aS'you'
p1219
aS'sell'
p1220
aS'your'
p1221
aS'dog'
p1222
aS'.'
p1223
asg54
(lp1224
VThen
p1225
aVthe
p1226
aVgentleman
p1227
aVcall
p1228
aVfrom
p1229
aVthe
p1230
aVcarriage
p1231
ag66
aVmy
p1232
aVman
p1233
ag66
aVwill
p1234
aVyou
p1235
aVsell
p1236
aVyour
p1237
aVdog
p1238
ag89
asg90
(lp1239
g93
ag93
ag93
ag93
ag93
ag93
ag93
ag93
ag93
ag93
ag93
ag93
ag93
ag93
ag93
ag93
ag93
asg94
(lp1240
g104
ag102
ag101
ag207
ag106
ag102
ag101
ag103
ag100
ag101
ag103
ag110
ag105
ag99
ag100
ag101
ag113
asg114
VThen the gentleman calls from the carriage, my man, will you sell your dog.
p1241
sba(i__main__
Sentence
p1242
(dp1243
g17
I23
sg18
(lp1244
S'Yes'
p1245
aS','
p1246
aS'says'
p1247
aS'the'
p1248
aS'father'
p1249
aS'.'
p1250
asg54
(lp1251
VYes
p1252
ag66
aVsay
p1253
aVthe
p1254
aVfather
p1255
ag89
asg90
(lp1256
g93
ag93
ag93
ag93
ag93
ag93
asg94
(lp1257
g96
ag103
ag207
ag102
ag101
ag113
asg114
VYes, says the father.
p1258
sba(i__main__
Sentence
p1259
(dp1260
g17
I24
sg18
(lp1261
S'How'
p1262
aS'much'
p1263
aS'do'
p1264
aS'you'
p1265
aS'want'
p1266
aS'for'
p1267
aS'it'
p1268
aS'.'
p1269
asg54
(lp1270
VHow
p1271
aVmuch
p1272
aVdo
p1273
aVyou
p1274
aVwant
p1275
aVfor
p1276
aVit
p1277
ag89
asg90
(lp1278
g93
ag93
ag93
ag93
ag93
ag93
ag93
ag93
asg94
(lp1279
g297
ag112
ag296
ag105
ag99
ag106
ag105
ag113
asg114
VHow much do you want for it.
p1280
sba(i__main__
Sentence
p1281
(dp1282
g17
I25
sg18
(lp1283
S'Thirty'
p1284
aS'talers'
p1285
aS'.'
p1286
asg54
(lp1287
VThirty
p1288
aVtalers
p1289
ag89
asg90
(lp1290
g93
ag93
ag93
asg94
(lp1291
g108
ag96
ag113
asg114
VThirty talers.
p1292
sba(i__main__
Sentence
p1293
(dp1294
g17
I26
sg18
(lp1295
S'Well'
p1296
aS','
p1297
aS'man'
p1298
aS','
p1299
aS'that'
p1300
aS'is'
p1301
aS'a'
p1302
aS'great'
p1303
aS'deal'
p1304
aS','
p1305
aS'but'
p1306
aS'as'
p1307
aS'it'
p1308
aS'is'
p1309
aS'such'
p1310
aS'a'
p1311
aS'very'
p1312
aS'fine'
p1313
aS'dog'
p1314
aS'I'
p1315
aS'will'
p1316
aS'have'
p1317
aS'it'
p1318
aS'.'
p1319
asg54
(lp1320
VWell
p1321
ag66
aVman
p1322
ag66
aVthat
p1323
ag193
ag64
aVgreat
p1324
aVdeal
p1325
ag66
aVbut
p1326
ag64
aVit
p1327
ag193
aVsuch
p1328
ag64
aVvery
p1329
aVfine
p1330
aVdog
p1331
ag429
aVwill
p1332
aVhave
p1333
aVit
p1334
ag89
asg90
(lp1335
g93
ag93
ag93
ag93
ag93
ag93
ag93
ag93
ag93
ag93
ag93
ag93
ag93
ag93
ag93
ag93
ag93
ag93
ag93
ag93
ag93
ag93
ag93
ag93
asg94
(lp1336
g108
ag103
ag101
ag103
ag106
ag207
ag102
ag112
ag101
ag103
ag107
ag106
ag105
ag207
ag112
ag102
ag104
ag101
ag101
ag105
ag110
ag99
ag105
ag113
asg114
VWell, man, that is a great deal, but as it is such a very fine dog I will have it.
p1337
sba(i__main__
Sentence
p1338
(dp1339
g17
I27
sg18
(lp1340
S'The'
p1341
aS'gentleman'
p1342
aS'takes'
p1343
aS'it'
p1344
aS'into'
p1345
aS'his'
p1346
aS'carriage'
p1347
aS','
p1348
aS'but'
p1349
aS'when'
p1350
aS'they'
p1351
aS'have'
p1352
aS'driven'
p1353
aS'a'
p1354
aS'little'
p1355
aS'farther'
p1356
aS'the'
p1357
aS'dog'
p1358
aS'springs'
p1359
aS'out'
p1360
aS'of'
p1361
aS'the'
p1362
aS'carriage'
p1363
aS'through'
p1364
aS'the'
p1365
aS'window'
p1366
aS','
p1367
aS'and'
p1368
aS'goes'
p1369
aS'back'
p1370
aS'to'
p1371
aS'his'
p1372
aS'father'
p1373
aS','
p1374
aS'and'
p1375
aS'is'
p1376
aS'no'
p1377
aS'longer'
p1378
aS'a'
p1379
aS'greyhound'
p1380
aS'.'
p1381
asg54
(lp1382
VThe
p1383
aVgentleman
p1384
aVtake
p1385
aVit
p1386
aVinto
p1387
aVhis
p1388
aVcarriage
p1389
ag66
aVbut
p1390
aVwhen
p1391
aVthey
p1392
aVhave
p1393
aVdrive
p1394
ag64
aVlittle
p1395
aVfar
p1396
aVthe
p1397
aVdog
p1398
aVspring
p1399
aVout
p1400
aVof
p1401
aVthe
p1402
aVcarriage
p1403
aVthrough
p1404
aVthe
p1405
aVwindow
p1406
ag66
aVand
p1407
aVgo
p1408
aVback
p1409
aVto
p1410
aVhis
p1411
aVfather
p1412
ag66
aVand
p1413
ag193
aVno
p1414
aVlonger
p1415
ag64
aVgreyhound
p1416
ag89
asg90
(lp1417
g93
ag93
ag93
ag93
ag93
ag93
ag93
ag93
ag93
ag93
ag93
ag93
ag93
ag93
ag93
ag93
ag93
ag93
ag93
ag93
ag93
ag93
ag93
ag93
ag93
ag93
ag93
ag93
ag93
ag93
ag93
ag93
ag93
ag93
ag93
ag93
ag93
ag93
ag93
ag93
ag93
asg94
(lp1418
g102
ag101
ag207
ag105
ag106
ag100
ag101
ag103
ag107
ag297
ag105
ag296
ag208
ag102
ag104
aS'RBR'
p1419
ag102
ag101
ag96
ag106
ag106
ag102
ag101
ag106
ag102
ag101
ag103
ag107
ag207
ag603
ag98
ag100
ag101
ag103
ag107
ag207
ag102
ag101
ag102
ag101
ag113
asg114
VThe gentleman takes it into his carriage, but when they have driven a little farther the dog springs out of the carriage through the window, and goes back to his father, and is no longer a greyhound.
p1420
sba(i__main__
Sentence
p1421
(dp1422
g17
I28
sg18
(lp1423
S'They'
p1424
aS'go'
p1425
aS'home'
p1426
aS'together'
p1427
aS'.'
p1428
asg54
(lp1429
VThey
p1430
aVgo
p1431
aVhome
p1432
aVtogether
p1433
ag89
asg90
(lp1434
g93
ag93
ag93
ag93
ag93
asg94
(lp1435
g105
ag296
ag104
ag104
ag113
asg114
VThey go home together.
p1436
sba(i__main__
Sentence
p1437
(dp1438
g17
I29
sg18
(lp1439
S'Next'
p1440
aS'day'
p1441
aS'there'
p1442
aS'is'
p1443
aS'a'
p1444
aS'fair'
p1445
aS'in'
p1446
aS'the'
p1447
aS'neighboring'
p1448
aS'town'
p1449
aS','
p1450
aS'so'
p1451
aS'the'
p1452
aS'youth'
p1453
aS'says'
p1454
aS'to'
p1455
aS'his'
p1456
aS'father'
p1457
aS','
p1458
aS'I'
p1459
aS'will'
p1460
aS'now'
p1461
aS'change'
p1462
aS'myself'
p1463
aS'into'
p1464
aS'a'
p1465
aS'beautiful'
p1466
aS'horse'
p1467
aS','
p1468
aS'and'
p1469
aS'you'
p1470
aS'can'
p1471
aS'sell'
p1472
aS'me'
p1473
aS','
p1474
aS'but'
p1475
aS'when'
p1476
aS'you'
p1477
aS'have'
p1478
aS'sold'
p1479
aS'me'
p1480
aS','
p1481
aS'you'
p1482
aS'must'
p1483
aS'take'
p1484
aS'off'
p1485
aS'my'
p1486
aS'bridle'
p1487
aS','
p1488
aS'or'
p1489
aS'I'
p1490
aS'can'
p1491
aS'not'
p1492
aS'become'
p1493
aS'a'
p1494
aS'man'
p1495
aS'again'
p1496
aS'.'
p1497
asg54
(lp1498
VNext
p1499
aVday
p1500
aVthere
p1501
ag193
ag64
aVfair
p1502
aVin
p1503
aVthe
p1504
aVneighboring
p1505
aVtown
p1506
ag66
aVso
p1507
aVthe
p1508
aVyouth
p1509
aVsay
p1510
aVto
p1511
aVhis
p1512
aVfather
p1513
ag66
ag429
aVwill
p1514
aVnow
p1515
aVchange
p1516
aVmyself
p1517
aVinto
p1518
ag64
aVbeautiful
p1519
aVhorse
p1520
ag66
aVand
p1521
aVyou
p1522
aVcan
p1523
aVsell
p1524
aVme
p1525
ag66
aVbut
p1526
aVwhen
p1527
aVyou
p1528
aVhave
p1529
aVsell
p1530
aVme
p1531
ag66
aVyou
p1532
aVmust
p1533
aVtake
p1534
aVoff
p1535
aVmy
p1536
aVbridle
p1537
ag66
aVor
p1538
ag429
aVcan
p1539
aVnot
p1540
aVbecome
p1541
ag64
aVman
p1542
aVagain
p1543
ag89
asg90
(lp1544
g93
ag93
ag93
ag93
ag93
ag93
ag93
ag93
ag93
ag93
ag93
ag93
ag93
ag93
ag93
ag93
ag93
ag93
ag93
ag93
ag93
ag93
ag93
ag93
ag93
ag93
ag93
ag93
ag93
ag93
ag93
ag93
ag93
ag93
ag93
ag93
ag93
ag93
ag93
ag93
ag93
ag93
ag93
ag93
ag93
ag93
ag93
ag93
ag93
ag93
ag93
ag93
ag93
ag93
ag93
ag93
ag93
ag93
asg94
(lp1545
g112
ag101
ag104
ag207
ag102
ag112
ag106
ag102
ag101
ag101
ag103
ag104
ag102
ag101
ag207
ag98
ag100
ag101
ag103
ag105
ag110
ag104
ag99
ag105
ag106
ag102
ag112
ag101
ag103
ag107
ag105
ag110
ag99
ag105
ag103
ag107
ag297
ag105
ag296
ag208
ag105
ag103
ag105
ag110
ag99
ag603
ag100
ag101
ag103
ag107
ag105
ag110
ag104
ag99
ag102
ag101
ag104
ag113
asg114
VNext day there is a fair in the neighboring town, so the youth says to his father, I will now change myself into a beautiful horse, and you can sell me, but when you have sold me, you must take off my bridle, or I cannot become a man again.
p1546
sba(i__main__
Sentence
p1547
(dp1548
g17
I30
sg18
(lp1549
S'Then'
p1550
aS'the'
p1551
aS'father'
p1552
aS'goes'
p1553
aS'with'
p1554
aS'the'
p1555
aS'horse'
p1556
aS'to'
p1557
aS'the'
p1558
aS'fair'
p1559
aS','
p1560
aS'and'
p1561
aS'the'
p1562
aS'master-thief'
p1563
aS'comes'
p1564
aS'and'
p1565
aS'buys'
p1566
aS'the'
p1567
aS'horse'
p1568
aS'for'
p1569
aS'a'
p1570
aS'hundred'
p1571
aS'talers'
p1572
aS','
p1573
aS'but'
p1574
aS'the'
p1575
aS'father'
p1576
aS'forgets'
p1577
aS','
p1578
aS'and'
p1579
aS'does'
p1580
aS'not'
p1581
aS'take'
p1582
aS'off'
p1583
aS'the'
p1584
aS'bridle'
p1585
aS'.'
p1586
asg54
(lp1587
VThen
p1588
aVthe
p1589
aVfather
p1590
aVgo
p1591
aVwith
p1592
aVthe
p1593
aVhorse
p1594
aVto
p1595
aVthe
p1596
aVfair
p1597
ag66
aVand
p1598
aVthe
p1599
aVmaster-thief
p1600
aVcome
p1601
aVand
p1602
aVbuy
p1603
aVthe
p1604
aVhorse
p1605
aVfor
p1606
ag64
aVhundred
p1607
aVtalers
p1608
ag66
aVbut
p1609
aVthe
p1610
aVfather
p1611
aVforgets
p1612
ag66
aVand
p1613
aVdo
p1614
aVnot
p1615
aVtake
p1616
aVoff
p1617
aVthe
p1618
aVbridle
p1619
ag89
asg90
(lp1620
g93
ag93
ag93
ag93
ag93
ag93
ag93
ag93
ag93
ag93
ag93
ag93
ag93
ag93
ag93
ag93
ag93
ag93
ag93
ag93
ag93
ag93
ag93
ag93
ag93
ag93
ag93
ag93
ag93
ag93
ag93
ag93
ag93
ag93
ag93
ag93
ag93
asg94
(lp1621
g104
ag102
ag101
ag207
ag106
ag102
ag101
ag98
ag102
ag101
ag103
ag107
ag102
ag112
ag96
ag107
ag96
ag102
ag101
ag106
ag102
ag521
ag96
ag103
ag107
ag102
ag101
ag96
ag103
ag107
ag207
ag104
ag99
ag603
ag102
ag101
ag113
asg114
VThen the father goes with the horse to the fair, and the master-thief comes and buys the horse for a hundred talers, but the father forgets, and does not take off the bridle.
p1622
sba(i__main__
Sentence
p1623
(dp1624
g17
I31
sg18
(lp1625
S'So'
p1626
aS'the'
p1627
aS'man'
p1628
aS'goes'
p1629
aS'home'
p1630
aS'with'
p1631
aS'the'
p1632
aS'horse'
p1633
aS','
p1634
aS'and'
p1635
aS'puts'
p1636
aS'it'
p1637
aS'in'
p1638
aS'the'
p1639
aS'stable'
p1640
aS'.'
p1641
asg54
(lp1642
VSo
p1643
aVthe
p1644
aVman
p1645
aVgo
p1646
aVhome
p1647
aVwith
p1648
aVthe
p1649
aVhorse
p1650
ag66
aVand
p1651
aVput
p1652
aVit
p1653
aVin
p1654
aVthe
p1655
aVstable
p1656
ag89
asg90
(lp1657
g93
ag93
ag93
ag93
ag93
ag93
ag93
ag93
ag93
ag93
ag93
ag93
ag93
ag93
ag93
ag93
asg94
(lp1658
g106
ag102
ag101
ag207
ag101
ag106
ag102
ag101
ag103
ag107
ag96
ag105
ag106
ag102
ag101
ag113
asg114
VSo the man goes home with the horse, and puts it in the stable.
p1659
sba(i__main__
Sentence
p1660
(dp1661
g17
I32
sg18
(lp1662
S'When'
p1663
aS'the'
p1664
aS'maid'
p1665
aS'crosses'
p1666
aS'the'
p1667
aS'threshold'
p1668
aS','
p1669
aS'the'
p1670
aS'horse'
p1671
aS'says'
p1672
aS','
p1673
aS'take'
p1674
aS'off'
p1675
aS'my'
p1676
aS'bridle'
p1677
aS','
p1678
aS'take'
p1679
aS'off'
p1680
aS'my'
p1681
aS'bridle'
p1682
aS'.'
p1683
asg54
(lp1684
VWhen
p1685
aVthe
p1686
aVmaid
p1687
aVcross
p1688
aVthe
p1689
aVthreshold
p1690
ag66
aVthe
p1691
aVhorse
p1692
aVsay
p1693
ag66
aVtake
p1694
aVoff
p1695
aVmy
p1696
aVbridle
p1697
ag66
aVtake
p1698
aVoff
p1699
aVmy
p1700
aVbridle
p1701
ag89
asg90
(lp1702
g93
ag93
ag93
ag93
ag93
ag93
ag93
ag93
ag93
ag93
ag93
ag93
ag93
ag93
ag93
ag93
ag93
ag93
ag93
ag93
ag93
asg94
(lp1703
g297
ag102
ag101
ag207
ag102
ag101
ag103
ag102
ag101
ag207
ag103
ag296
ag603
ag100
ag101
ag103
ag296
ag603
ag100
ag101
ag113
asg114
VWhen the maid crosses the threshold, the horse says, take off my bridle, take off my bridle.
p1704
sba(i__main__
Sentence
p1705
(dp1706
g17
I33
sg18
(lp1707
S'Then'
p1708
aS'the'
p1709
aS'maid'
p1710
aS'stands'
p1711
aS'still'
p1712
aS','
p1713
aS'and'
p1714
aS'says'
p1715
aS','
p1716
aS'what'
p1717
aS','
p1718
aS'can'
p1719
aS'you'
p1720
aS'speak'
p1721
aS'.'
p1722
asg54
(lp1723
VThen
p1724
aVthe
p1725
aVmaid
p1726
aVstand
p1727
aVstill
p1728
ag66
aVand
p1729
aVsay
p1730
ag66
aVwhat
p1731
ag66
aVcan
p1732
aVyou
p1733
aVspeak
p1734
ag89
asg90
(lp1735
g93
ag93
ag93
ag93
ag93
ag93
ag93
ag93
ag93
ag93
ag93
ag93
ag93
ag93
ag93
asg94
(lp1736
g104
ag102
ag101
ag207
ag104
ag103
ag107
ag207
ag103
ag245
ag103
ag110
ag105
ag99
ag113
asg114
VThen the maid stands still, and says, what, can you speak.
p1737
sba(i__main__
Sentence
p1738
(dp1739
g17
I34
sg18
(lp1740
S'So'
p1741
aS'she'
p1742
aS'goes'
p1743
aS'and'
p1744
aS'takes'
p1745
aS'the'
p1746
aS'bridle'
p1747
aS'off'
p1748
aS','
p1749
aS'and'
p1750
aS'the'
p1751
aS'horse'
p1752
aS'becomes'
p1753
aS'a'
p1754
aS'sparrow'
p1755
aS','
p1756
aS'and'
p1757
aS'flies'
p1758
aS'out'
p1759
aS'at'
p1760
aS'the'
p1761
aS'door'
p1762
aS','
p1763
aS'and'
p1764
aS'the'
p1765
aS'master-thief'
p1766
aS'becomes'
p1767
aS'a'
p1768
aS'sparrow'
p1769
aS'also'
p1770
aS','
p1771
aS'and'
p1772
aS'flies'
p1773
aS'after'
p1774
aS'him'
p1775
aS'.'
p1776
asg54
(lp1777
VSo
p1778
aVshe
p1779
aVgo
p1780
aVand
p1781
aVtake
p1782
aVthe
p1783
aVbridle
p1784
aVoff
p1785
ag66
aVand
p1786
aVthe
p1787
aVhorse
p1788
aVbecome
p1789
ag64
aVsparrow
p1790
ag66
aVand
p1791
aVfly
p1792
aVout
p1793
aVat
p1794
aVthe
p1795
aVdoor
p1796
ag66
aVand
p1797
aVthe
p1798
aVmaster-thief
p1799
aVbecomes
p1800
ag64
aVsparrow
p1801
aValso
p1802
ag66
aVand
p1803
aVfly
p1804
aVafter
p1805
aVhim
p1806
ag89
asg90
(lp1807
g93
ag93
ag93
ag93
ag93
ag93
ag93
ag93
ag93
ag93
ag93
ag93
ag93
ag93
ag93
ag93
ag93
ag93
ag93
ag93
ag93
ag93
ag93
ag93
ag93
ag93
ag93
ag93
ag93
ag93
ag93
ag93
ag93
ag93
ag93
ag93
asg94
(lp1808
g106
ag105
ag207
ag107
ag207
ag102
ag101
ag603
ag103
ag107
ag102
ag101
ag207
ag102
ag101
ag103
ag107
ag207
ag603
ag106
ag102
ag101
ag103
ag107
ag102
ag112
ag96
ag102
ag101
ag104
ag103
ag107
ag207
ag106
ag105
ag113
asg114
VSo she goes and takes the bridle off, and the horse becomes a sparrow, and flies out at the door, and the master-thief becomes a sparrow also, and flies after him.
p1809
sba(i__main__
Sentence
p1810
(dp1811
g17
I35
sg18
(lp1812
S'Then'
p1813
aS'they'
p1814
aS'come'
p1815
aS'together'
p1816
aS'and'
p1817
aS'cast'
p1818
aS'lots'
p1819
aS'again'
p1820
aS','
p1821
aS'and'
p1822
aS'the'
p1823
aS'master'
p1824
aS'loses'
p1825
aS'.'
p1826
asg54
(lp1827
VThen
p1828
aVthey
p1829
aVcome
p1830
aVtogether
p1831
aVand
p1832
aVcast
p1833
aVlot
p1834
aVagain
p1835
ag66
aVand
p1836
aVthe
p1837
aVmaster
p1838
aVlose
p1839
ag89
asg90
(lp1840
g93
ag93
ag93
ag93
ag93
ag93
ag93
ag93
ag93
ag93
ag93
ag93
ag93
ag93
asg94
(lp1841
g104
ag105
ag296
ag104
ag107
ag112
ag96
ag104
ag103
ag107
ag102
ag101
ag207
ag113
asg114
VThen they come together and cast lots again, and the master loses.
p1842
sba(i__main__
Sentence
p1843
(dp1844
g17
I36
sg18
(lp1845
S'So'
p1846
aS'the'
p1847
aS'master'
p1848
aS'changes'
p1849
aS'himself'
p1850
aS'into'
p1851
aS'a'
p1852
aS'cock'
p1853
aS','
p1854
aS'and'
p1855
aS'the'
p1856
aS'youth'
p1857
aS'becomes'
p1858
aS'a'
p1859
aS'fox'
p1860
aS','
p1861
aS'and'
p1862
aS'bites'
p1863
aS'the'
p1864
aS'master'
p1865
aS"'s"
p1866
aS'head'
p1867
aS'off'
p1868
aS','
p1869
aS'and'
p1870
aS'he'
p1871
aS'died'
p1872
aS'and'
p1873
aS'has'
p1874
aS'remained'
p1875
aS'dead'
p1876
aS'to'
p1877
aS'this'
p1878
aS'day'
p1879
aS'.'
p1880
asg54
(lp1881
VSo
p1882
aVthe
p1883
aVmaster
p1884
aVchange
p1885
aVhimself
p1886
aVinto
p1887
ag64
aVcock
p1888
ag66
aVand
p1889
aVthe
p1890
aVyouth
p1891
aVbecome
p1892
ag64
aVfox
p1893
ag66
aVand
p1894
aVbite
p1895
aVthe
p1896
aVmaster
p1897
aV's
p1898
aVhead
p1899
aVoff
p1900
ag66
aVand
p1901
aVhe
p1902
aVdie
p1903
aVand
p1904
aVhave
p1905
aVremain
p1906
aVdead
p1907
aVto
p1908
aVthis
p1909
aVday
p1910
ag89
asg90
(lp1911
g93
ag93
ag93
ag93
ag93
ag93
ag93
ag93
ag93
ag93
ag93
ag93
ag93
ag93
ag93
ag93
ag93
ag93
ag93
ag93
ag93
ag93
ag93
ag93
ag93
ag93
ag93
ag93
ag93
ag93
ag93
ag93
ag93
ag93
ag93
asg94
(lp1912
g106
ag102
ag101
ag96
ag105
ag106
ag102
ag101
ag103
ag107
ag102
ag101
ag207
ag102
ag101
ag103
ag107
ag207
ag102
ag101
aS'POS'
p1913
ag101
ag106
ag103
ag107
ag105
ag97
ag107
ag207
ag208
ag112
ag98
ag102
ag101
ag113
asg114
VSo the master changes himself into a cock, and the youth becomes a fox, and bites the master's head off, and he died and has remained dead to this day. 
p1914
sbasbsS'summary'
p1915
g0
(g7
g2
Ntp1916
Rp1917
(dp1918
g11
S"Hans sends his son out to be taught by a master in witchcraft and theft. The master will take money from the father only if he comes back in a year's time and cannot recognize his son. Fearful that he will have to pay the money, the man speaks with a dwarf who tells him how to recognize his son. Hans takes his son home. They go to a fair where the son turns himself into a horse and is sold back to the master thief. Because his father forgets to take off the horse's bridle, the son cannot change himself back into a man and must ask the stable maid to take the bridle off. The son turns himself into a sparrow but the master thief realizes who he is and follows him. They cast lots several times..."
p1919
sg13
(lp1920
(i__main__
Sentence
p1921
(dp1922
g17
I0
sg18
(lp1923
S'Hans'
p1924
aS'sends'
p1925
aS'his'
p1926
aS'son'
p1927
aS'out'
p1928
aS'to'
p1929
aS'be'
p1930
aS'taught'
p1931
aS'by'
p1932
aS'a'
p1933
aS'master'
p1934
aS'in'
p1935
aS'witchcraft'
p1936
aS'and'
p1937
aS'theft'
p1938
aS'.'
p1939
asg54
(lp1940
VHans
p1941
aVsends
p1942
aVhis
p1943
aVson
p1944
aVout
p1945
aVto
p1946
aVbe
p1947
aVteach
p1948
aVby
p1949
ag64
aVmaster
p1950
aVin
p1951
aVwitchcraft
p1952
aVand
p1953
aVtheft
p1954
ag89
asg90
(lp1955
VPERSON
p1956
ag93
ag93
ag93
ag93
ag93
ag93
ag93
ag93
ag93
ag93
ag93
ag93
ag93
ag93
ag93
asg94
(lp1957
g96
ag96
ag100
ag101
ag106
ag98
ag99
ag208
ag106
ag102
ag101
ag106
ag101
ag107
ag101
ag113
asg114
VHans sends his son out to be taught by a master in witchcraft and theft.
p1958
sba(i__main__
Sentence
p1959
(dp1960
g17
I1
sg18
(lp1961
S'The'
p1962
aS'master'
p1963
aS'will'
p1964
aS'take'
p1965
aS'money'
p1966
aS'from'
p1967
aS'the'
p1968
aS'father'
p1969
aS'only'
p1970
aS'if'
p1971
aS'he'
p1972
aS'comes'
p1973
aS'back'
p1974
aS'in'
p1975
aS'a'
p1976
aS'year'
p1977
aS"'s"
p1978
aS'time'
p1979
aS'and'
p1980
aS'can'
p1981
aS'not'
p1982
aS'recognize'
p1983
aS'his'
p1984
aS'son'
p1985
aS'.'
p1986
asg54
(lp1987
VThe
p1988
aVmaster
p1989
aVwill
p1990
aVtake
p1991
aVmoney
p1992
aVfrom
p1993
aVthe
p1994
aVfather
p1995
aVonly
p1996
aVif
p1997
aVhe
p1998
aVcome
p1999
aVback
p2000
aVin
p2001
ag64
aVyear
p2002
aV's
p2003
aVtime
p2004
aVand
p2005
aVcan
p2006
aVnot
p2007
aVrecognize
p2008
aVhis
p2009
aVson
p2010
ag89
asg90
(lp2011
g93
ag93
ag93
ag93
ag93
ag93
ag93
ag93
ag93
ag93
ag93
ag93
ag93
ag93
ag93
ag93
ag93
ag93
ag93
ag93
ag93
ag93
ag93
ag93
ag93
asg94
(lp2012
g102
ag101
ag110
ag99
ag101
ag106
ag102
ag101
ag104
ag106
ag105
ag207
ag104
ag106
ag102
ag101
ag1913
ag101
ag107
ag110
ag104
ag99
ag100
ag101
ag113
asg114
VThe master will take money from the father only if he comes back in a year's time and cannot recognize his son.
p2013
sba(i__main__
Sentence
p2014
(dp2015
g17
I2
sg18
(lp2016
S'Fearful'
p2017
aS'that'
p2018
aS'he'
p2019
aS'will'
p2020
aS'have'
p2021
aS'to'
p2022
aS'pay'
p2023
aS'the'
p2024
aS'money'
p2025
aS','
p2026
aS'the'
p2027
aS'man'
p2028
aS'speaks'
p2029
aS'with'
p2030
aS'a'
p2031
aS'dwarf'
p2032
aS'who'
p2033
aS'tells'
p2034
aS'him'
p2035
aS'how'
p2036
aS'to'
p2037
aS'recognize'
p2038
aS'his'
p2039
aS'son'
p2040
aS'.'
p2041
asg54
(lp2042
VFearful
p2043
aVthat
p2044
aVhe
p2045
aVwill
p2046
aVhave
p2047
aVto
p2048
aVpay
p2049
aVthe
p2050
aVmoney
p2051
ag66
aVthe
p2052
aVman
p2053
aVspeak
p2054
aVwith
p2055
ag64
aVdwarf
p2056
aVwho
p2057
aVtell
p2058
aVhim
p2059
aVhow
p2060
aVto
p2061
aVrecognize
p2062
aVhis
p2063
aVson
p2064
ag89
asg90
(lp2065
g93
ag93
ag93
ag93
ag93
ag93
ag93
ag93
ag93
ag93
ag93
ag93
ag93
ag93
ag93
ag93
ag93
ag93
ag93
ag93
ag93
ag93
ag93
ag93
ag93
asg94
(lp2066
g108
ag106
ag105
ag110
ag99
ag98
ag99
ag102
ag101
ag103
ag102
ag101
ag207
ag106
ag102
ag101
ag245
ag96
ag296
ag297
ag98
ag99
ag100
ag101
ag113
asg114
VFearful that he will have to pay the money, the man speaks with a dwarf who tells him how to recognize his son.
p2067
sba(i__main__
Sentence
p2068
(dp2069
g17
I3
sg18
(lp2070
S'Hans'
p2071
aS'takes'
p2072
aS'his'
p2073
aS'son'
p2074
aS'home'
p2075
aS'.'
p2076
asg54
(lp2077
VHans
p2078
aVtake
p2079
aVhis
p2080
aVson
p2081
aVhome
p2082
ag89
asg90
(lp2083
VPERSON
p2084
ag93
ag93
ag93
ag93
ag93
asg94
(lp2085
g96
ag207
ag100
ag101
ag101
ag113
asg114
VHans takes his son home.
p2086
sba(i__main__
Sentence
p2087
(dp2088
g17
I4
sg18
(lp2089
S'They'
p2090
aS'go'
p2091
aS'to'
p2092
aS'a'
p2093
aS'fair'
p2094
aS'where'
p2095
aS'the'
p2096
aS'son'
p2097
aS'turns'
p2098
aS'himself'
p2099
aS'into'
p2100
aS'a'
p2101
aS'horse'
p2102
aS'and'
p2103
aS'is'
p2104
aS'sold'
p2105
aS'back'
p2106
aS'to'
p2107
aS'the'
p2108
aS'master'
p2109
aS'thief'
p2110
aS'.'
p2111
asg54
(lp2112
VThey
p2113
aVgo
p2114
aVto
p2115
ag64
aVfair
p2116
aVwhere
p2117
aVthe
p2118
aVson
p2119
aVturn
p2120
aVhimself
p2121
aVinto
p2122
ag64
aVhorse
p2123
aVand
p2124
ag193
ag1530
aVback
p2125
aVto
p2126
aVthe
p2127
aVmaster
p2128
aVthief
p2129
ag89
asg90
(lp2130
g93
ag93
ag93
ag93
ag93
ag93
ag93
ag93
ag93
ag93
ag93
ag93
ag93
ag93
ag93
ag93
ag93
ag93
ag93
ag93
ag93
ag93
asg94
(lp2131
g105
ag296
ag98
ag102
ag101
ag297
ag102
ag101
ag207
ag105
ag106
ag102
ag112
ag107
ag207
ag208
ag603
ag98
ag102
ag101
ag101
ag113
asg114
VThey go to a fair where the son turns himself into a horse and is sold back to the master thief.
p2132
sba(i__main__
Sentence
p2133
(dp2134
g17
I5
sg18
(lp2135
S'Because'
p2136
aS'his'
p2137
aS'father'
p2138
aS'forgets'
p2139
aS'to'
p2140
aS'take'
p2141
aS'off'
p2142
aS'the'
p2143
aS'horse'
p2144
aS"'s"
p2145
aS'bridle'
p2146
aS','
p2147
aS'the'
p2148
aS'son'
p2149
aS'can'
p2150
aS'not'
p2151
aS'change'
p2152
aS'himself'
p2153
aS'back'
p2154
aS'into'
p2155
aS'a'
p2156
aS'man'
p2157
aS'and'
p2158
aS'must'
p2159
aS'ask'
p2160
aS'the'
p2161
aS'stable'
p2162
aS'maid'
p2163
aS'to'
p2164
aS'take'
p2165
aS'the'
p2166
aS'bridle'
p2167
aS'off'
p2168
aS'.'
p2169
asg54
(lp2170
VBecause
p2171
aVhis
p2172
aVfather
p2173
aVforgets
p2174
aVto
p2175
aVtake
p2176
aVoff
p2177
aVthe
p2178
aVhorse
p2179
aV's
p2180
aVbridle
p2181
ag66
aVthe
p2182
aVson
p2183
aVcan
p2184
aVnot
p2185
aVchange
p2186
aVhimself
p2187
aVback
p2188
aVinto
p2189
ag64
aVman
p2190
aVand
p2191
aVmust
p2192
aVask
p2193
aVthe
p2194
aVstable
p2195
aVmaid
p2196
aVto
p2197
aVtake
p2198
aVthe
p2199
aVbridle
p2200
aVoff
p2201
ag89
asg90
(lp2202
g93
ag93
ag93
ag93
ag93
ag93
ag93
ag93
ag93
ag93
ag93
ag93
ag93
ag93
ag93
ag93
ag93
ag93
ag93
ag93
ag93
ag93
ag93
ag93
ag93
ag93
ag93
ag93
ag93
ag93
ag93
ag93
ag93
ag93
asg94
(lp2203
g106
ag100
ag101
ag96
ag98
ag99
ag603
ag102
ag101
ag1913
ag101
ag103
ag102
ag101
ag110
ag104
ag99
ag105
ag104
ag106
ag102
ag101
ag107
ag110
ag99
ag102
ag101
ag97
ag98
ag99
ag102
ag101
ag603
ag113
asg114
VBecause his father forgets to take off the horse's bridle, the son cannot change himself back into a man and must ask the stable maid to take the bridle off.
p2204
sba(i__main__
Sentence
p2205
(dp2206
g17
I6
sg18
(lp2207
S'The'
p2208
aS'son'
p2209
aS'turns'
p2210
aS'himself'
p2211
aS'into'
p2212
aS'a'
p2213
aS'sparrow'
p2214
aS'but'
p2215
aS'the'
p2216
aS'master'
p2217
aS'thief'
p2218
aS'realizes'
p2219
aS'who'
p2220
aS'he'
p2221
aS'is'
p2222
aS'and'
p2223
aS'follows'
p2224
aS'him'
p2225
aS'.'
p2226
asg54
(lp2227
VThe
p2228
aVson
p2229
aVturn
p2230
aVhimself
p2231
aVinto
p2232
ag64
aVsparrow
p2233
aVbut
p2234
aVthe
p2235
aVmaster
p2236
aVthief
p2237
aVrealize
p2238
aVwho
p2239
aVhe
p2240
ag193
aVand
p2241
aVfollow
p2242
aVhim
p2243
ag89
asg90
(lp2244
g93
ag93
ag93
ag93
ag93
ag93
ag93
ag93
ag93
ag93
ag93
ag93
ag93
ag93
ag93
ag93
ag93
ag93
ag93
asg94
(lp2245
g102
ag101
ag207
ag105
ag106
ag102
ag101
ag107
ag102
ag101
ag101
ag207
ag245
ag105
ag207
ag107
ag207
ag105
ag113
asg114
VThe son turns himself into a sparrow but the master thief realizes who he is and follows him.
p2246
sba(i__main__
Sentence
p2247
(dp2248
g17
I7
sg18
(lp2249
S'They'
p2250
aS'cast'
p2251
aS'lots'
p2252
aS'several'
p2253
aS'times'
p2254
aS'...'
p2255
asg54
(lp2256
VThey
p2257
aVcast
p2258
aVlot
p2259
aVseveral
p2260
aVtime
p2261
aV...
p2262
asg90
(lp2263
g93
ag93
ag93
ag93
ag93
ag93
asg94
(lp2264
g105
ag296
ag96
ag112
ag96
aS':'
p2265
asg114
VThey cast lots several times...
p2266
sbasbsS'name'
p2267
S'The Thief and His Master'
p2268
sS'summaries'
p2269
(lp2270
g1917
asb.