ccopy_reg
_reconstructor
p0
(c__main__
Story
p1
c__builtin__
object
p2
Ntp3
Rp4
(dp5
S'text'
p6
g0
(c__main__
Document
p7
g2
Ntp8
Rp9
(dp10
S'_Document__initialContent'
p11
S"Maybe we should never have ventured out into space. Our race has but two basic, innate fears; noise, and the fear of falling. Those terrible heightsWhy should any man in his right mind let himself be placed where he could falland falland fallBut all spacemen are crazy. Everyone knows that.\n\n\n\nThe Medicos had been very kind, he supposed. Youre lucky. You want to remember that old fellow. Youre still young and your retired pay relieves you of all worry about your future. Youve got both arms and legs and are in fine shape.\n\nFine shape! His voice was unintentionally contemptuous. No, I mean it, the chief psychiatrist had persisted gently. The little quirk you have does you no harm at allexcept that you cant go out into space again. I cant honestly call acrophobia a neurosis; fear of falling is normal and sane. Youve just got it a little more strongly than mostbut that is not abnormal, in view of what you have been through.\n\nThe reminder sent him to shaking again. He closed his eyes and saw the stars wheeling below him again. He was fallingfalling endlessly. The psychiatrists voice came back through to him and pulled him back. Steady old man! Look around you.\n\nSorry.\n\nNot at all. Now tell me, what do you plan to do?\n\nI dont know. Get a job I suppose.\n\nThe company will give you a job, you know.\n\nHe shook his head. I dont want to hang around a spaceport. Wear a little button in his shirt to show the was once a man, be addressed by a courtesy title of captain, claim the privileges of the pilots lounge on the basis of what he used to be, hear the shop talk die down whenever he approached a group, wonder what they were saying behind his backno thank you!\n\nI think youre wise. Best to make a clean break, for a while at least, until you are feeling better.\n\nYou think Ill get over it?\n\nThe psychiatrist pursed his lips. Possible. Its functional you know. No Trauma.\n\nBut you dont think so?\n\nI didnt say that. I honestly dont know. We still know very little about what makes a man tick.\n\nI see. Well I might as well be leaving.\n\nThe psychiatrist stood up and shoved out his hand.\n\nHoller if you want anything. And comeback to see us in any case.\n\nThanks.\n\nYoure going to be all right. I know it.\n\nBut the psychiatrist shook his head as his patient walked out. The man did not walk like a spaceman. The easy, animal self-confidence was gone.\n\nOnly a small part of Great New York was roofed over in those days; he stayed underground until he was in that section, then sought out a passageway lined with bachelor rooms. He stuck a coin in the slot of the first one which displayed a lighted vacant sign, chucked his jump bag inside, and left. The monitor at the intersection gave him the address of the nearest placement office. He went there, seated himself at an interview desk, stamped in his finger prints, and started filling out forms. It gave him a curious back-to-the beginning feeling; he had not looked for a job since pre-cadet days.\n\nHe left filling in his name to the last and hesitated even then. He had had more than his bellyful of publicity; he did not want to be recognized; he certainly did not want to be throbbed overand most of all he did not want anyone telling him he was a hero. Presently he printed in the name William Saunders and dropped the forms in the slot.\n\nHe was well into his third cigarette and getting ready to strike another when the screen in front of him at last lighted up. He found himself staring at a nice-looking brunette. Mr. Saunders, the image said, will you come inside please? Door seventeen.\n\nThe brunette in person was there to offer him a seat and a cigarette. Make yourself comfortable Mr. Saunders. Im Miss Joyce. Id like to talk with you about your application.\n\nHe settled himself and waited, without speaking.\n\nWhen she saw that he did not intend to speak, she added, Now take this name William Saunders which you have given uswe know who you are, of course, from your prints.\n\nI suppose so.\n\nOf course I know what everybody knows about you, but your action in calling yourself William Saunders, Mr.\n\nSaunders\n\nMr. Saunders, caused me to query the files. She held up a microfilm spool, turned so that he might read his own name on it. I know quite a bit about you nowmore than the public knows, and more than you saw fit to put into your application. Its a good record, Mr. Saunders.\n\nThank you.\n\nBut I can't use it in placing you in a job. I can't even refer to it if you insist on designating yourself as Saunders.\n\nThe name is Saunders. His voice was flat, rather than emphatic."
p12
sS'sentences'
p13
(lp14
(i__main__
Sentence
p15
(dp16
S'index'
p17
I0
sS'words'
p18
(lp19
S'Maybe'
p20
aS'we'
p21
aS'should'
p22
aS'never'
p23
aS'have'
p24
aS'ventured'
p25
aS'out'
p26
aS'into'
p27
aS'space'
p28
aS'.'
p29
asS'lemmas'
p30
(lp31
VMaybe
p32
aVwe
p33
aVshould
p34
aVnever
p35
aVhave
p36
aVventure
p37
aVout
p38
aVinto
p39
aVspace
p40
aV.
p41
asS'nerTags'
p42
(lp43
VO
p44
ag44
ag44
ag44
ag44
ag44
ag44
ag44
ag44
ag44
asS'posTags'
p45
(lp46
S'RB'
p47
aS'PRP'
p48
aS'MD'
p49
ag47
aS'VB'
p50
aS'VBN'
p51
aS'RP'
p52
aS'IN'
p53
aS'NN'
p54
aS'.'
p55
asS'_Sentence__initialContent'
p56
VMaybe we should never have ventured out into space.
p57
sba(i__main__
Sentence
p58
(dp59
g17
I1
sg18
(lp60
S'Our'
p61
aS'race'
p62
aS'has'
p63
aS'but'
p64
aS'two'
p65
aS'basic'
p66
aS','
p67
aS'innate'
p68
aS'fears'
p69
aS';'
p70
aS'noise'
p71
aS','
p72
aS'and'
p73
aS'the'
p74
aS'fear'
p75
aS'of'
p76
aS'falling'
p77
aS'.'
p78
asg30
(lp79
VOur
p80
aVrace
p81
aVhave
p82
aVbut
p83
aVtwo
p84
aVbasic
p85
aV,
p86
aVinnate
p87
aVfear
p88
aV;
p89
aVnoise
p90
ag86
aVand
p91
aVthe
p92
aVfear
p93
aVof
p94
aVfall
p95
ag41
asg42
(lp96
g44
ag44
ag44
ag44
ag44
ag44
ag44
ag44
ag44
ag44
ag44
ag44
ag44
ag44
ag44
ag44
ag44
ag44
asg45
(lp97
S'PRP$'
p98
ag54
aS'VBZ'
p99
aS'CC'
p100
aS'CD'
p101
aS'JJ'
p102
aS','
p103
ag102
aS'NNS'
p104
aS':'
p105
ag54
ag103
ag100
aS'DT'
p106
ag54
ag53
aS'VBG'
p107
ag55
asg56
VOur race has but two basic, innate fears; noise, and the fear of falling.
p108
sba(i__main__
Sentence
p109
(dp110
g17
I2
sg18
(lp111
S'Those'
p112
aS'terrible'
p113
aS'heightsWhy'
p114
aS'should'
p115
aS'any'
p116
aS'man'
p117
aS'in'
p118
aS'his'
p119
aS'right'
p120
aS'mind'
p121
aS'let'
p122
aS'himself'
p123
aS'be'
p124
aS'placed'
p125
aS'where'
p126
aS'he'
p127
aS'could'
p128
aS'falland'
p129
aS'falland'
p130
aS'fallBut'
p131
aS'all'
p132
aS'spacemen'
p133
aS'are'
p134
aS'crazy'
p135
aS'.'
p136
asg30
(lp137
VThose
p138
aVterrible
p139
aVheightsWhy
p140
aVshould
p141
aVany
p142
aVman
p143
aVin
p144
aVhis
p145
aVright
p146
aVmind
p147
aVlet
p148
aVhimself
p149
aVbe
p150
aVplace
p151
aVwhere
p152
aVhe
p153
aVcould
p154
aVfalland
p155
aVfalland
p156
aVfallBut
p157
aVall
p158
aVspaceman
p159
aVbe
p160
aVcrazy
p161
ag41
asg42
(lp162
g44
ag44
ag44
ag44
ag44
ag44
ag44
ag44
ag44
ag44
ag44
ag44
ag44
ag44
ag44
ag44
ag44
ag44
ag44
ag44
ag44
ag44
ag44
ag44
ag44
asg45
(lp163
g106
ag102
aS'NNP'
p164
ag49
ag106
ag54
ag53
ag98
ag54
ag54
ag54
ag48
ag50
ag51
aS'WRB'
p165
ag48
ag49
ag50
ag54
ag100
ag106
ag104
aS'VBP'
p166
ag102
ag55
asg56
VThose terrible heightsWhy should any man in his right mind let himself be placed where he could falland falland fallBut all spacemen are crazy.
p167
sba(i__main__
Sentence
p168
(dp169
g17
I3
sg18
(lp170
S'Everyone'
p171
aS'knows'
p172
aS'that'
p173
aS'.'
p174
asg30
(lp175
VEveryone
p176
aVknow
p177
aVthat
p178
ag41
asg42
(lp179
g44
ag44
ag44
ag44
asg45
(lp180
g54
ag99
ag53
ag55
asg56
VEveryone knows that.
p181
sba(i__main__
Sentence
p182
(dp183
g17
I4
sg18
(lp184
S'The'
p185
aS'Medicos'
p186
aS'had'
p187
aS'been'
p188
aS'very'
p189
aS'kind'
p190
aS','
p191
aS'he'
p192
aS'supposed'
p193
aS'.'
p194
asg30
(lp195
VThe
p196
aVMedicos
p197
aVhave
p198
aVbe
p199
aVvery
p200
aVkind
p201
ag86
aVhe
p202
aVsuppose
p203
ag41
asg42
(lp204
g44
aVORGANIZATION
p205
ag44
ag44
ag44
ag44
ag44
ag44
ag44
ag44
asg45
(lp206
g106
ag164
aS'VBD'
p207
ag51
ag47
ag102
ag103
ag48
ag207
ag55
asg56
VThe Medicos had been very kind, he supposed.
p208
sba(i__main__
Sentence
p209
(dp210
g17
I5
sg18
(lp211
S'Youre'
p212
aS'lucky'
p213
aS'.'
p214
asg30
(lp215
VYoure
p216
aVlucky
p217
ag41
asg42
(lp218
g44
ag44
ag44
asg45
(lp219
g54
ag54
ag55
asg56
VYoure lucky.
p220
sba(i__main__
Sentence
p221
(dp222
g17
I6
sg18
(lp223
S'You'
p224
aS'want'
p225
aS'to'
p226
aS'remember'
p227
aS'that'
p228
aS'old'
p229
aS'fellow'
p230
aS'.'
p231
asg30
(lp232
VYou
p233
aVwant
p234
aVto
p235
aVremember
p236
aVthat
p237
aVold
p238
aVfellow
p239
ag41
asg42
(lp240
g44
ag44
ag44
ag44
ag44
ag44
ag44
ag44
asg45
(lp241
g48
ag166
aS'TO'
p242
ag50
ag53
ag102
ag54
ag55
asg56
VYou want to remember that old fellow.
p243
sba(i__main__
Sentence
p244
(dp245
g17
I7
sg18
(lp246
S'Youre'
p247
aS'still'
p248
aS'young'
p249
aS'and'
p250
aS'your'
p251
aS'retired'
p252
aS'pay'
p253
aS'relieves'
p254
aS'you'
p255
aS'of'
p256
aS'all'
p257
aS'worry'
p258
aS'about'
p259
aS'your'
p260
aS'future'
p261
aS'.'
p262
asg30
(lp263
VYoure
p264
aVstill
p265
aVyoung
p266
aVand
p267
aVyour
p268
aVretire
p269
aVpay
p270
aVrelief
p271
aVyou
p272
aVof
p273
aVall
p274
aVworry
p275
aVabout
p276
aVyour
p277
aVfuture
p278
ag41
asg42
(lp279
g44
ag44
ag44
ag44
ag44
ag44
ag44
ag44
ag44
ag44
ag44
ag44
ag44
ag44
ag44
ag44
asg45
(lp280
g54
ag47
ag102
ag100
ag98
ag51
ag54
ag104
ag48
ag53
ag106
ag54
ag53
ag98
ag102
ag55
asg56
VYoure still young and your retired pay relieves you of all worry about your future.
p281
sba(i__main__
Sentence
p282
(dp283
g17
I8
sg18
(lp284
S'Youve'
p285
aS'got'
p286
aS'both'
p287
aS'arms'
p288
aS'and'
p289
aS'legs'
p290
aS'and'
p291
aS'are'
p292
aS'in'
p293
aS'fine'
p294
aS'shape'
p295
aS'.'
p296
asg30
(lp297
VYouve
p298
aVget
p299
aVboth
p300
aVarm
p301
aVand
p302
aVleg
p303
aVand
p304
ag160
aVin
p305
aVfine
p306
aVshape
p307
ag41
asg42
(lp308
g44
ag44
ag44
ag44
ag44
ag44
ag44
ag44
ag44
ag44
ag44
ag44
asg45
(lp309
g164
ag207
ag106
ag104
ag100
ag104
ag100
ag166
ag53
ag54
ag54
ag55
asg56
VYouve got both arms and legs and are in fine shape.
p310
sba(i__main__
Sentence
p311
(dp312
g17
I9
sg18
(lp313
S'Fine'
p314
aS'shape'
p315
aS'!'
p316
asg30
(lp317
VFine
p318
aVshape
p319
aV!
p320
asg42
(lp321
g44
ag44
ag44
asg45
(lp322
g54
ag54
ag55
asg56
VFine shape!
p323
sba(i__main__
Sentence
p324
(dp325
g17
I10
sg18
(lp326
S'His'
p327
aS'voice'
p328
aS'was'
p329
aS'unintentionally'
p330
aS'contemptuous'
p331
aS'.'
p332
asg30
(lp333
VHis
p334
aVvoice
p335
aVbe
p336
aVunintentionally
p337
aVcontemptuous
p338
ag41
asg42
(lp339
g44
ag44
ag44
ag44
ag44
ag44
asg45
(lp340
g98
ag54
ag207
ag47
ag102
ag55
asg56
VHis voice was unintentionally contemptuous.
p341
sba(i__main__
Sentence
p342
(dp343
g17
I11
sg18
(lp344
S'No'
p345
aS','
p346
aS'I'
p347
aS'mean'
p348
aS'it'
p349
aS','
p350
aS'the'
p351
aS'chief'
p352
aS'psychiatrist'
p353
aS'had'
p354
aS'persisted'
p355
aS'gently'
p356
aS'.'
p357
asg30
(lp358
VNo
p359
ag86
aVI
p360
aVmean
p361
aVit
p362
ag86
aVthe
p363
aVchief
p364
aVpsychiatrist
p365
ag198
aVpersist
p366
aVgently
p367
ag41
asg42
(lp368
g44
ag44
ag44
ag44
ag44
ag44
ag44
ag44
ag44
ag44
ag44
ag44
ag44
asg45
(lp369
g106
ag103
ag48
ag166
ag48
ag103
ag106
ag54
ag54
ag207
ag51
ag47
ag55
asg56
VNo, I mean it, the chief psychiatrist had persisted gently.
p370
sba(i__main__
Sentence
p371
(dp372
g17
I12
sg18
(lp373
S'The'
p374
aS'little'
p375
aS'quirk'
p376
aS'you'
p377
aS'have'
p378
aS'does'
p379
aS'you'
p380
aS'no'
p381
aS'harm'
p382
aS'at'
p383
aS'allexcept'
p384
aS'that'
p385
aS'you'
p386
aS'cant'
p387
aS'go'
p388
aS'out'
p389
aS'into'
p390
aS'space'
p391
aS'again'
p392
aS'.'
p393
asg30
(lp394
VThe
p395
aVlittle
p396
aVquirk
p397
aVyou
p398
aVhave
p399
aVdo
p400
aVyou
p401
aVno
p402
aVharm
p403
aVat
p404
aVallexcept
p405
aVthat
p406
aVyou
p407
aVcant
p408
aVgo
p409
aVout
p410
aVinto
p411
aVspace
p412
aVagain
p413
ag41
asg42
(lp414
g44
ag44
ag44
ag44
ag44
ag44
ag44
ag44
ag44
ag44
ag44
ag44
ag44
ag44
ag44
ag44
ag44
ag44
ag44
ag44
asg45
(lp415
g106
ag102
ag54
ag48
ag50
ag99
ag48
ag106
ag54
ag53
ag54
ag53
ag48
ag166
ag166
ag52
ag53
ag54
ag47
ag55
asg56
VThe little quirk you have does you no harm at allexcept that you cant go out into space again.
p416
sba(i__main__
Sentence
p417
(dp418
g17
I13
sg18
(lp419
S'I'
p420
aS'cant'
p421
aS'honestly'
p422
aS'call'
p423
aS'acrophobia'
p424
aS'a'
p425
aS'neurosis'
p426
aS';'
p427
aS'fear'
p428
aS'of'
p429
aS'falling'
p430
aS'is'
p431
aS'normal'
p432
aS'and'
p433
aS'sane'
p434
aS'.'
p435
asg30
(lp436
g360
aVcant
p437
aVhonestly
p438
aVcall
p439
aVacrophobia
p440
aVa
p441
aVneurosis
p442
ag89
aVfear
p443
aVof
p444
aVfall
p445
aVbe
p446
aVnormal
p447
aVand
p448
aVsane
p449
ag41
asg42
(lp450
g44
ag44
ag44
ag44
ag44
ag44
ag44
ag44
ag44
ag44
ag44
ag44
ag44
ag44
ag44
ag44
asg45
(lp451
g48
ag166
ag47
ag102
ag54
ag106
ag54
ag105
ag54
ag53
ag107
ag99
ag102
ag100
ag54
ag55
asg56
VI cant honestly call acrophobia a neurosis; fear of falling is normal and sane.
p452
sba(i__main__
Sentence
p453
(dp454
g17
I14
sg18
(lp455
S'Youve'
p456
aS'just'
p457
aS'got'
p458
aS'it'
p459
aS'a'
p460
aS'little'
p461
aS'more'
p462
aS'strongly'
p463
aS'than'
p464
aS'mostbut'
p465
aS'that'
p466
aS'is'
p467
aS'not'
p468
aS'abnormal'
p469
aS','
p470
aS'in'
p471
aS'view'
p472
aS'of'
p473
aS'what'
p474
aS'you'
p475
aS'have'
p476
aS'been'
p477
aS'through'
p478
aS'.'
p479
asg30
(lp480
VYouve
p481
aVjust
p482
ag299
aVit
p483
ag441
aVlittle
p484
aVmore
p485
aVstrongly
p486
aVthan
p487
aVmostbut
p488
aVthat
p489
ag446
aVnot
p490
aVabnormal
p491
ag86
aVin
p492
aVview
p493
aVof
p494
aVwhat
p495
aVyou
p496
aVhave
p497
ag199
aVthrough
p498
ag41
asg42
(lp499
g44
ag44
ag44
ag44
ag44
ag44
ag44
ag44
ag44
ag44
ag44
ag44
ag44
ag44
ag44
ag44
ag44
ag44
ag44
ag44
ag44
ag44
ag44
ag44
asg45
(lp500
g164
ag47
ag207
ag48
ag106
ag47
aS'RBR'
p501
ag47
ag53
ag100
ag53
ag99
ag47
ag102
ag103
ag53
ag54
ag53
aS'WP'
p502
ag48
ag166
ag51
ag53
ag55
asg56
VYouve just got it a little more strongly than mostbut that is not abnormal, in view of what you have been through.
p503
sba(i__main__
Sentence
p504
(dp505
g17
I15
sg18
(lp506
S'The'
p507
aS'reminder'
p508
aS'sent'
p509
aS'him'
p510
aS'to'
p511
aS'shaking'
p512
aS'again'
p513
aS'.'
p514
asg30
(lp515
VThe
p516
aVreminder
p517
aVsent
p518
aVhim
p519
aVto
p520
aVshake
p521
aVagain
p522
ag41
asg42
(lp523
g44
ag44
ag44
ag44
ag44
ag44
ag44
ag44
asg45
(lp524
g106
ag54
ag54
ag48
ag242
ag107
ag47
ag55
asg56
VThe reminder sent him to shaking again.
p525
sba(i__main__
Sentence
p526
(dp527
g17
I16
sg18
(lp528
S'He'
p529
aS'closed'
p530
aS'his'
p531
aS'eyes'
p532
aS'and'
p533
aS'saw'
p534
aS'the'
p535
aS'stars'
p536
aS'wheeling'
p537
aS'below'
p538
aS'him'
p539
aS'again'
p540
aS'.'
p541
asg30
(lp542
VHe
p543
aVclose
p544
aVhis
p545
aVeye
p546
aVand
p547
aVsaw
p548
aVthe
p549
aVstar
p550
aVwheel
p551
aVbelow
p552
aVhim
p553
aVagain
p554
ag41
asg42
(lp555
g44
ag44
ag44
ag44
ag44
ag44
ag44
ag44
ag44
ag44
ag44
ag44
ag44
asg45
(lp556
g48
ag207
ag98
ag104
ag100
ag207
ag106
ag104
ag107
ag53
ag48
ag47
ag55
asg56
VHe closed his eyes and saw the stars wheeling below him again.
p557
sba(i__main__
Sentence
p558
(dp559
g17
I17
sg18
(lp560
S'He'
p561
aS'was'
p562
aS'fallingfalling'
p563
aS'endlessly'
p564
aS'.'
p565
asg30
(lp566
VHe
p567
ag336
aVfallingfalling
p568
aVendlessly
p569
ag41
asg42
(lp570
g44
ag44
ag44
ag44
ag44
asg45
(lp571
g48
ag207
ag107
ag47
ag55
asg56
VHe was fallingfalling endlessly.
p572
sba(i__main__
Sentence
p573
(dp574
g17
I18
sg18
(lp575
S'The'
p576
aS'psychiatrists'
p577
aS'voice'
p578
aS'came'
p579
aS'back'
p580
aS'through'
p581
aS'to'
p582
aS'him'
p583
aS'and'
p584
aS'pulled'
p585
aS'him'
p586
aS'back'
p587
aS'.'
p588
asg30
(lp589
VThe
p590
aVpsychiatrist
p591
aVvoice
p592
aVcame
p593
aVback
p594
aVthrough
p595
aVto
p596
aVhim
p597
aVand
p598
aVpull
p599
aVhim
p600
aVback
p601
ag41
asg42
(lp602
g44
ag44
ag44
ag44
ag44
ag44
ag44
ag44
ag44
ag44
ag44
ag44
ag44
asg45
(lp603
g106
ag104
ag166
ag54
ag47
ag53
ag242
ag48
ag100
ag207
ag48
ag47
ag55
asg56
VThe psychiatrists voice came back through to him and pulled him back.
p604
sba(i__main__
Sentence
p605
(dp606
g17
I19
sg18
(lp607
S'Steady'
p608
aS'old'
p609
aS'man'
p610
aS'!'
p611
asg30
(lp612
VSteady
p613
aVold
p614
aVman
p615
ag320
asg42
(lp616
g44
ag44
ag44
ag44
asg45
(lp617
g164
ag207
ag54
ag55
asg56
VSteady old man!
p618
sba(i__main__
Sentence
p619
(dp620
g17
I20
sg18
(lp621
S'Look'
p622
aS'around'
p623
aS'you'
p624
aS'.'
p625
asg30
(lp626
VLook
p627
aVaround
p628
aVyou
p629
ag41
asg42
(lp630
g44
ag44
ag44
ag44
asg45
(lp631
g164
ag53
ag48
ag55
asg56
VLook around you.
p632
sba(i__main__
Sentence
p633
(dp634
g17
I21
sg18
(lp635
S'Sorry'
p636
aS'.'
p637
asg30
(lp638
VSorry
p639
ag41
asg42
(lp640
g44
ag44
asg45
(lp641
g164
ag55
asg56
VSorry.
p642
sba(i__main__
Sentence
p643
(dp644
g17
I22
sg18
(lp645
S'Not'
p646
aS'at'
p647
aS'all'
p648
aS'.'
p649
asg30
(lp650
VNot
p651
aVat
p652
aVall
p653
ag41
asg42
(lp654
g44
ag44
ag44
ag44
asg45
(lp655
g47
ag53
ag106
ag55
asg56
VNot at all.
p656
sba(i__main__
Sentence
p657
(dp658
g17
I23
sg18
(lp659
S'Now'
p660
aS'tell'
p661
aS'me'
p662
aS','
p663
aS'what'
p664
aS'do'
p665
aS'you'
p666
aS'plan'
p667
aS'to'
p668
aS'do'
p669
aS'?'
p670
asg30
(lp671
VNow
p672
aVtell
p673
aVme
p674
ag86
aVwhat
p675
aVdo
p676
aVyou
p677
aVplan
p678
aVto
p679
aVdo
p680
aV?
p681
asg42
(lp682
g44
ag44
ag44
ag44
ag44
ag44
ag44
ag44
ag44
ag44
ag44
asg45
(lp683
g47
ag166
ag48
ag103
ag502
ag166
ag48
ag166
ag242
ag50
ag55
asg56
VNow tell me, what do you plan to do?
p684
sba(i__main__
Sentence
p685
(dp686
g17
I24
sg18
(lp687
S'I'
p688
aS'dont'
p689
aS'know'
p690
aS'.'
p691
asg30
(lp692
g360
aVdont
p693
aVknow
p694
ag41
asg42
(lp695
g44
ag44
ag44
ag44
asg45
(lp696
g48
ag166
ag47
ag55
asg56
VI dont know.
p697
sba(i__main__
Sentence
p698
(dp699
g17
I25
sg18
(lp700
S'Get'
p701
aS'a'
p702
aS'job'
p703
aS'I'
p704
aS'suppose'
p705
aS'.'
p706
asg30
(lp707
VGet
p708
ag441
aVjob
p709
ag360
aVsuppose
p710
ag41
asg42
(lp711
g44
ag44
ag44
ag44
ag44
ag44
asg45
(lp712
g54
ag106
ag54
ag48
ag166
ag55
asg56
VGet a job I suppose.
p713
sba(i__main__
Sentence
p714
(dp715
g17
I26
sg18
(lp716
S'The'
p717
aS'company'
p718
aS'will'
p719
aS'give'
p720
aS'you'
p721
aS'a'
p722
aS'job'
p723
aS','
p724
aS'you'
p725
aS'know'
p726
aS'.'
p727
asg30
(lp728
VThe
p729
aVcompany
p730
aVwill
p731
aVgive
p732
aVyou
p733
ag441
aVjob
p734
ag86
aVyou
p735
aVknow
p736
ag41
asg42
(lp737
g44
ag44
ag44
ag44
ag44
ag44
ag44
ag44
ag44
ag44
ag44
asg45
(lp738
g106
ag54
ag49
ag50
ag48
ag106
ag54
ag103
ag48
ag166
ag55
asg56
VThe company will give you a job, you know.
p739
sba(i__main__
Sentence
p740
(dp741
g17
I27
sg18
(lp742
S'He'
p743
aS'shook'
p744
aS'his'
p745
aS'head'
p746
aS'.'
p747
asg30
(lp748
VHe
p749
aVshake
p750
aVhis
p751
aVhead
p752
ag41
asg42
(lp753
g44
ag44
ag44
ag44
ag44
asg45
(lp754
g48
ag207
ag98
ag54
ag55
asg56
VHe shook his head.
p755
sba(i__main__
Sentence
p756
(dp757
g17
I28
sg18
(lp758
S'I'
p759
aS'dont'
p760
aS'want'
p761
aS'to'
p762
aS'hang'
p763
aS'around'
p764
aS'a'
p765
aS'spaceport'
p766
aS'.'
p767
asg30
(lp768
g360
aVdont
p769
aVwant
p770
aVto
p771
aVhang
p772
aVaround
p773
ag441
aVspaceport
p774
ag41
asg42
(lp775
g44
ag44
ag44
ag44
ag44
ag44
ag44
ag44
ag44
asg45
(lp776
g48
ag166
ag102
ag242
ag102
ag53
ag106
ag54
ag55
asg56
VI dont want to hang around a spaceport.
p777
sba(i__main__
Sentence
p778
(dp779
g17
I29
sg18
(lp780
S'Wear'
p781
aS'a'
p782
aS'little'
p783
aS'button'
p784
aS'in'
p785
aS'his'
p786
aS'shirt'
p787
aS'to'
p788
aS'show'
p789
aS'the'
p790
aS'was'
p791
aS'once'
p792
aS'a'
p793
aS'man'
p794
aS','
p795
aS'be'
p796
aS'addressed'
p797
aS'by'
p798
aS'a'
p799
aS'courtesy'
p800
aS'title'
p801
aS'of'
p802
aS'captain'
p803
aS','
p804
aS'claim'
p805
aS'the'
p806
aS'privileges'
p807
aS'of'
p808
aS'the'
p809
aS'pilots'
p810
aS'lounge'
p811
aS'on'
p812
aS'the'
p813
aS'basis'
p814
aS'of'
p815
aS'what'
p816
aS'he'
p817
aS'used'
p818
aS'to'
p819
aS'be'
p820
aS','
p821
aS'hear'
p822
aS'the'
p823
aS'shop'
p824
aS'talk'
p825
aS'die'
p826
aS'down'
p827
aS'whenever'
p828
aS'he'
p829
aS'approached'
p830
aS'a'
p831
aS'group'
p832
aS','
p833
aS'wonder'
p834
aS'what'
p835
aS'they'
p836
aS'were'
p837
aS'saying'
p838
aS'behind'
p839
aS'his'
p840
aS'backno'
p841
aS'thank'
p842
aS'you'
p843
aS'!'
p844
asg30
(lp845
VWear
p846
ag441
aVlittle
p847
aVbutton
p848
aVin
p849
aVhis
p850
aVshirt
p851
aVto
p852
aVshow
p853
aVthe
p854
ag336
aVonce
p855
ag441
aVman
p856
ag86
aVbe
p857
aVaddress
p858
aVby
p859
ag441
aVcourtesy
p860
aVtitle
p861
aVof
p862
aVcaptain
p863
ag86
aVclaim
p864
aVthe
p865
aVprivilege
p866
aVof
p867
aVthe
p868
aVpilot
p869
aVlounge
p870
aVon
p871
aVthe
p872
aVbasis
p873
aVof
p874
aVwhat
p875
aVhe
p876
aVuse
p877
aVto
p878
aVbe
p879
ag86
aVhear
p880
aVthe
p881
aVshop
p882
aVtalk
p883
aVdie
p884
aVdown
p885
aVwhenever
p886
aVhe
p887
aVapproach
p888
ag441
aVgroup
p889
ag86
aVwonder
p890
aVwhat
p891
aVthey
p892
aVbe
p893
aVsay
p894
aVbehind
p895
aVhis
p896
aVbackno
p897
aVthank
p898
aVyou
p899
ag320
asg42
(lp900
g44
ag44
ag44
ag44
ag44
ag44
ag44
ag44
ag44
ag44
ag44
ag44
ag44
ag44
ag44
ag44
ag44
ag44
ag44
ag44
ag44
ag44
ag44
ag44
ag44
ag44
ag44
ag44
ag44
ag44
ag44
ag44
ag44
ag44
ag44
ag44
ag44
ag44
ag44
ag44
ag44
ag44
ag44
ag44
ag44
ag44
ag44
ag44
ag44
ag44
ag44
ag44
ag44
ag44
ag44
ag44
ag44
ag44
ag44
ag44
ag44
ag44
ag44
ag44
asg45
(lp901
g164
ag106
ag47
ag54
ag53
ag98
ag54
ag242
ag50
ag106
ag207
ag47
ag106
ag54
ag103
ag50
ag51
ag53
ag106
ag102
ag54
ag53
ag54
ag103
ag166
ag106
ag104
ag53
ag106
ag104
ag166
ag53
ag106
ag54
ag53
ag502
ag48
ag207
ag242
ag50
ag103
ag102
ag106
ag54
ag54
ag50
ag53
ag54
ag48
ag207
ag106
ag54
ag103
ag54
ag502
ag48
ag207
ag107
ag53
ag98
ag54
ag54
ag48
ag55
asg56
VWear a little button in his shirt to show the was once a man, be addressed by a courtesy title of captain, claim the privileges of the pilots lounge on the basis of what he used to be, hear the shop talk die down whenever he approached a group, wonder what they were saying behind his backno thank you!
p902
sba(i__main__
Sentence
p903
(dp904
g17
I30
sg18
(lp905
S'I'
p906
aS'think'
p907
aS'youre'
p908
aS'wise'
p909
aS'.'
p910
asg30
(lp911
g360
aVthink
p912
aVyoure
p913
aVwise
p914
ag41
asg42
(lp915
g44
ag44
ag44
ag44
ag44
asg45
(lp916
g48
ag166
ag102
ag54
ag55
asg56
VI think youre wise.
p917
sba(i__main__
Sentence
p918
(dp919
g17
I31
sg18
(lp920
S'Best'
p921
aS'to'
p922
aS'make'
p923
aS'a'
p924
aS'clean'
p925
aS'break'
p926
aS','
p927
aS'for'
p928
aS'a'
p929
aS'while'
p930
aS'at'
p931
aS'least'
p932
aS','
p933
aS'until'
p934
aS'you'
p935
aS'are'
p936
aS'feeling'
p937
aS'better'
p938
aS'.'
p939
asg30
(lp940
VBest
p941
aVto
p942
aVmake
p943
ag441
aVclean
p944
aVbreak
p945
ag86
aVfor
p946
ag441
aVwhile
p947
aVat
p948
aVleast
p949
ag86
aVuntil
p950
aVyou
p951
ag160
aVfeel
p952
aVgood
p953
ag41
asg42
(lp954
g44
ag44
ag44
ag44
ag44
ag44
ag44
ag44
ag44
ag44
ag44
ag44
ag44
ag44
ag44
ag44
ag44
ag44
ag44
asg45
(lp955
S'JJS'
p956
ag242
ag50
ag106
ag102
ag54
ag103
ag53
ag106
ag54
ag53
ag956
ag103
ag53
ag48
ag166
ag107
aS'JJR'
p957
ag55
asg56
VBest to make a clean break, for a while at least, until you are feeling better.
p958
sba(i__main__
Sentence
p959
(dp960
g17
I32
sg18
(lp961
S'You'
p962
aS'think'
p963
aS'Ill'
p964
aS'get'
p965
aS'over'
p966
aS'it'
p967
aS'?'
p968
asg30
(lp969
VYou
p970
aVthink
p971
aVIll
p972
aVget
p973
aVover
p974
aVit
p975
ag681
asg42
(lp976
g44
ag44
ag44
ag44
ag44
ag44
ag44
asg45
(lp977
g48
ag166
ag164
ag54
ag53
ag48
ag55
asg56
VYou think Ill get over it?
p978
sba(i__main__
Sentence
p979
(dp980
g17
I33
sg18
(lp981
S'The'
p982
aS'psychiatrist'
p983
aS'pursed'
p984
aS'his'
p985
aS'lips'
p986
aS'.'
p987
asg30
(lp988
VThe
p989
aVpsychiatrist
p990
aVpurse
p991
aVhis
p992
aVlip
p993
ag41
asg42
(lp994
g44
ag44
ag44
ag44
ag44
ag44
asg45
(lp995
g106
ag54
ag207
ag98
ag104
ag55
asg56
VThe psychiatrist pursed his lips.
p996
sba(i__main__
Sentence
p997
(dp998
g17
I34
sg18
(lp999
S'Possible'
p1000
aS'.'
p1001
asg30
(lp1002
VPossible
p1003
ag41
asg42
(lp1004
g44
ag44
asg45
(lp1005
g102
ag55
asg56
VPossible.
p1006
sba(i__main__
Sentence
p1007
(dp1008
g17
I35
sg18
(lp1009
S'Its'
p1010
aS'functional'
p1011
aS'you'
p1012
aS'know'
p1013
aS'.'
p1014
asg30
(lp1015
VIts
p1016
aVfunctional
p1017
aVyou
p1018
aVknow
p1019
ag41
asg42
(lp1020
g44
ag44
ag44
ag44
ag44
asg45
(lp1021
g98
ag102
ag48
ag166
ag55
asg56
VIts functional you know.
p1022
sba(i__main__
Sentence
p1023
(dp1024
g17
I36
sg18
(lp1025
S'No'
p1026
aS'Trauma'
p1027
aS'.'
p1028
asg30
(lp1029
VNo
p1030
aVTrauma
p1031
ag41
asg42
(lp1032
g44
ag44
ag44
asg45
(lp1033
g106
ag164
ag55
asg56
VNo Trauma.
p1034
sba(i__main__
Sentence
p1035
(dp1036
g17
I37
sg18
(lp1037
S'But'
p1038
aS'you'
p1039
aS'dont'
p1040
aS'think'
p1041
aS'so'
p1042
aS'?'
p1043
asg30
(lp1044
VBut
p1045
aVyou
p1046
aVdont
p1047
aVthink
p1048
aVso
p1049
ag681
asg42
(lp1050
g44
ag44
ag44
ag44
ag44
ag44
asg45
(lp1051
g100
ag48
ag166
ag166
ag47
ag55
asg56
VBut you dont think so?
p1052
sba(i__main__
Sentence
p1053
(dp1054
g17
I38
sg18
(lp1055
S'I'
p1056
aS'didnt'
p1057
aS'say'
p1058
aS'that'
p1059
aS'.'
p1060
asg30
(lp1061
g360
aVdidnt
p1062
aVsay
p1063
aVthat
p1064
ag41
asg42
(lp1065
g44
ag44
ag44
ag44
ag44
asg45
(lp1066
g48
ag166
ag166
ag53
ag55
asg56
VI didnt say that.
p1067
sba(i__main__
Sentence
p1068
(dp1069
g17
I39
sg18
(lp1070
S'I'
p1071
aS'honestly'
p1072
aS'dont'
p1073
aS'know'
p1074
aS'.'
p1075
asg30
(lp1076
g360
aVhonestly
p1077
aVdont
p1078
aVknow
p1079
ag41
asg42
(lp1080
g44
ag44
ag44
ag44
ag44
asg45
(lp1081
g48
ag47
ag102
ag54
ag55
asg56
VI honestly dont know.
p1082
sba(i__main__
Sentence
p1083
(dp1084
g17
I40
sg18
(lp1085
S'We'
p1086
aS'still'
p1087
aS'know'
p1088
aS'very'
p1089
aS'little'
p1090
aS'about'
p1091
aS'what'
p1092
aS'makes'
p1093
aS'a'
p1094
aS'man'
p1095
aS'tick'
p1096
aS'.'
p1097
asg30
(lp1098
VWe
p1099
aVstill
p1100
aVknow
p1101
aVvery
p1102
aVlittle
p1103
aVabout
p1104
aVwhat
p1105
aVmake
p1106
ag441
aVman
p1107
aVtick
p1108
ag41
asg42
(lp1109
g44
ag44
ag44
ag44
ag44
ag44
ag44
ag44
ag44
ag44
ag44
ag44
asg45
(lp1110
g48
ag47
ag166
ag47
ag102
ag53
ag502
ag104
ag106
ag54
ag54
ag55
asg56
VWe still know very little about what makes a man tick.
p1111
sba(i__main__
Sentence
p1112
(dp1113
g17
I41
sg18
(lp1114
S'I'
p1115
aS'see'
p1116
aS'.'
p1117
asg30
(lp1118
g360
aVsee
p1119
ag41
asg42
(lp1120
g44
ag44
ag44
asg45
(lp1121
g48
ag166
ag55
asg56
VI see.
p1122
sba(i__main__
Sentence
p1123
(dp1124
g17
I42
sg18
(lp1125
S'Well'
p1126
aS'I'
p1127
aS'might'
p1128
aS'as'
p1129
aS'well'
p1130
aS'be'
p1131
aS'leaving'
p1132
aS'.'
p1133
asg30
(lp1134
VWell
p1135
ag360
aVmight
p1136
aVas
p1137
aVwell
p1138
aVbe
p1139
aVleave
p1140
ag41
asg42
(lp1141
g44
ag44
ag44
ag44
ag44
ag44
ag44
ag44
asg45
(lp1142
g164
ag48
ag49
ag47
ag47
ag50
ag107
ag55
asg56
VWell I might as well be leaving.
p1143
sba(i__main__
Sentence
p1144
(dp1145
g17
I43
sg18
(lp1146
S'The'
p1147
aS'psychiatrist'
p1148
aS'stood'
p1149
aS'up'
p1150
aS'and'
p1151
aS'shoved'
p1152
aS'out'
p1153
aS'his'
p1154
aS'hand'
p1155
aS'.'
p1156
asg30
(lp1157
VThe
p1158
aVpsychiatrist
p1159
aVstand
p1160
aVup
p1161
aVand
p1162
aVshove
p1163
aVout
p1164
aVhis
p1165
aVhand
p1166
ag41
asg42
(lp1167
g44
ag44
ag44
ag44
ag44
ag44
ag44
ag44
ag44
ag44
asg45
(lp1168
g106
ag54
ag207
ag52
ag100
ag207
ag52
ag98
ag54
ag55
asg56
VThe psychiatrist stood up and shoved out his hand.
p1169
sba(i__main__
Sentence
p1170
(dp1171
g17
I44
sg18
(lp1172
S'Holler'
p1173
aS'if'
p1174
aS'you'
p1175
aS'want'
p1176
aS'anything'
p1177
aS'.'
p1178
asg30
(lp1179
VHoller
p1180
aVif
p1181
aVyou
p1182
aVwant
p1183
aVanything
p1184
ag41
asg42
(lp1185
g44
ag44
ag44
ag44
ag44
ag44
asg45
(lp1186
g164
ag53
ag48
ag166
ag54
ag55
asg56
VHoller if you want anything.
p1187
sba(i__main__
Sentence
p1188
(dp1189
g17
I45
sg18
(lp1190
S'And'
p1191
aS'comeback'
p1192
aS'to'
p1193
aS'see'
p1194
aS'us'
p1195
aS'in'
p1196
aS'any'
p1197
aS'case'
p1198
aS'.'
p1199
asg30
(lp1200
VAnd
p1201
aVcomeback
p1202
aVto
p1203
aVsee
p1204
aVu
p1205
aVin
p1206
aVany
p1207
aVcase
p1208
ag41
asg42
(lp1209
g44
ag44
ag44
ag44
ag44
ag44
ag44
ag44
ag44
asg45
(lp1210
g100
ag207
ag242
ag50
ag48
ag53
ag106
ag54
ag55
asg56
VAnd comeback to see us in any case.
p1211
sba(i__main__
Sentence
p1212
(dp1213
g17
I46
sg18
(lp1214
S'Thanks'
p1215
aS'.'
p1216
asg30
(lp1217
VThanks
p1218
ag41
asg42
(lp1219
g44
ag44
asg45
(lp1220
g104
ag55
asg56
VThanks.
p1221
sba(i__main__
Sentence
p1222
(dp1223
g17
I47
sg18
(lp1224
S'Youre'
p1225
aS'going'
p1226
aS'to'
p1227
aS'be'
p1228
aS'all'
p1229
aS'right'
p1230
aS'.'
p1231
asg30
(lp1232
VYoure
p1233
aVgo
p1234
aVto
p1235
aVbe
p1236
aVall
p1237
aVright
p1238
ag41
asg42
(lp1239
g44
ag44
ag44
ag44
ag44
ag44
ag44
asg45
(lp1240
g54
ag107
ag242
ag50
aS'PDT'
p1241
ag47
ag55
asg56
VYoure going to be all right.
p1242
sba(i__main__
Sentence
p1243
(dp1244
g17
I48
sg18
(lp1245
S'I'
p1246
aS'know'
p1247
aS'it'
p1248
aS'.'
p1249
asg30
(lp1250
g360
aVknow
p1251
aVit
p1252
ag41
asg42
(lp1253
g44
ag44
ag44
ag44
asg45
(lp1254
g48
ag166
ag48
ag55
asg56
VI know it.
p1255
sba(i__main__
Sentence
p1256
(dp1257
g17
I49
sg18
(lp1258
S'But'
p1259
aS'the'
p1260
aS'psychiatrist'
p1261
aS'shook'
p1262
aS'his'
p1263
aS'head'
p1264
aS'as'
p1265
aS'his'
p1266
aS'patient'
p1267
aS'walked'
p1268
aS'out'
p1269
aS'.'
p1270
asg30
(lp1271
VBut
p1272
aVthe
p1273
aVpsychiatrist
p1274
aVshook
p1275
aVhis
p1276
aVhead
p1277
ag441
aVhis
p1278
aVpatient
p1279
aVwalk
p1280
aVout
p1281
ag41
asg42
(lp1282
g44
ag44
ag44
ag44
ag44
ag44
ag44
ag44
ag44
ag44
ag44
ag44
asg45
(lp1283
g100
ag106
ag54
ag54
ag98
ag54
ag53
ag98
ag54
ag207
ag52
ag55
asg56
VBut the psychiatrist shook his head as his patient walked out.
p1284
sba(i__main__
Sentence
p1285
(dp1286
g17
I50
sg18
(lp1287
S'The'
p1288
aS'man'
p1289
aS'did'
p1290
aS'not'
p1291
aS'walk'
p1292
aS'like'
p1293
aS'a'
p1294
aS'spaceman'
p1295
aS'.'
p1296
asg30
(lp1297
VThe
p1298
aVman
p1299
aVdo
p1300
aVnot
p1301
aVwalk
p1302
aVlike
p1303
ag441
aVspaceman
p1304
ag41
asg42
(lp1305
g44
ag44
ag44
ag44
ag44
ag44
ag44
ag44
ag44
asg45
(lp1306
g106
ag54
ag207
ag47
ag50
ag53
ag106
ag54
ag55
asg56
VThe man did not walk like a spaceman.
p1307
sba(i__main__
Sentence
p1308
(dp1309
g17
I51
sg18
(lp1310
S'The'
p1311
aS'easy'
p1312
aS','
p1313
aS'animal'
p1314
aS'self-confidence'
p1315
aS'was'
p1316
aS'gone'
p1317
aS'.'
p1318
asg30
(lp1319
VThe
p1320
aVeasy
p1321
ag86
aVanimal
p1322
aVself-confidence
p1323
ag336
aVgo
p1324
ag41
asg42
(lp1325
g44
ag44
ag44
ag44
ag44
ag44
ag44
ag44
asg45
(lp1326
g106
ag102
ag103
ag102
ag54
ag207
ag51
ag55
asg56
VThe easy, animal self-confidence was gone.
p1327
sba(i__main__
Sentence
p1328
(dp1329
g17
I52
sg18
(lp1330
S'Only'
p1331
aS'a'
p1332
aS'small'
p1333
aS'part'
p1334
aS'of'
p1335
aS'Great'
p1336
aS'New'
p1337
aS'York'
p1338
aS'was'
p1339
aS'roofed'
p1340
aS'over'
p1341
aS'in'
p1342
aS'those'
p1343
aS'days'
p1344
aS';'
p1345
aS'he'
p1346
aS'stayed'
p1347
aS'underground'
p1348
aS'until'
p1349
aS'he'
p1350
aS'was'
p1351
aS'in'
p1352
aS'that'
p1353
aS'section'
p1354
aS','
p1355
aS'then'
p1356
aS'sought'
p1357
aS'out'
p1358
aS'a'
p1359
aS'passageway'
p1360
aS'lined'
p1361
aS'with'
p1362
aS'bachelor'
p1363
aS'rooms'
p1364
aS'.'
p1365
asg30
(lp1366
VOnly
p1367
ag441
aVsmall
p1368
aVpart
p1369
aVof
p1370
aVGreat
p1371
aVNew
p1372
aVYork
p1373
ag336
aVroof
p1374
aVover
p1375
aVin
p1376
aVthose
p1377
aVday
p1378
ag89
aVhe
p1379
aVstay
p1380
aVunderground
p1381
aVuntil
p1382
aVhe
p1383
ag336
aVin
p1384
aVthat
p1385
aVsection
p1386
ag86
aVthen
p1387
aVseek
p1388
aVout
p1389
ag441
aVpassageway
p1390
aVline
p1391
aVwith
p1392
aVbachelor
p1393
aVroom
p1394
ag41
asg42
(lp1395
g44
ag44
ag44
ag44
ag44
aVLOCATION
p1396
aVLOCATION
p1397
aVLOCATION
p1398
ag44
ag44
ag44
ag44
ag44
ag44
ag44
ag44
ag44
ag44
ag44
ag44
ag44
ag44
ag44
ag44
ag44
ag44
ag44
ag44
ag44
ag44
ag44
ag44
ag44
ag44
ag44
asg45
(lp1399
g47
ag106
ag102
ag54
ag53
ag164
ag164
ag164
ag207
ag51
ag53
ag53
ag106
ag104
ag105
ag48
ag207
ag51
ag53
ag48
ag207
ag53
ag106
ag54
ag103
ag47
ag207
ag53
ag106
ag54
ag51
ag53
ag54
ag104
ag55
asg56
VOnly a small part of Great New York was roofed over in those days; he stayed underground until he was in that section, then sought out a passageway lined with bachelor rooms.
p1400
sba(i__main__
Sentence
p1401
(dp1402
g17
I53
sg18
(lp1403
S'He'
p1404
aS'stuck'
p1405
aS'a'
p1406
aS'coin'
p1407
aS'in'
p1408
aS'the'
p1409
aS'slot'
p1410
aS'of'
p1411
aS'the'
p1412
aS'first'
p1413
aS'one'
p1414
aS'which'
p1415
aS'displayed'
p1416
aS'a'
p1417
aS'lighted'
p1418
aS'vacant'
p1419
aS'sign'
p1420
aS','
p1421
aS'chucked'
p1422
aS'his'
p1423
aS'jump'
p1424
aS'bag'
p1425
aS'inside'
p1426
aS','
p1427
aS'and'
p1428
aS'left'
p1429
aS'.'
p1430
asg30
(lp1431
VHe
p1432
aVstick
p1433
ag441
aVcoin
p1434
aVin
p1435
aVthe
p1436
aVslot
p1437
aVof
p1438
aVthe
p1439
aVfirst
p1440
aVone
p1441
aVwhich
p1442
aVdisplay
p1443
ag441
aVlight
p1444
aVvacant
p1445
aVsign
p1446
ag86
aVchuck
p1447
aVhis
p1448
aVjump
p1449
aVbag
p1450
aVinside
p1451
ag86
aVand
p1452
aVleave
p1453
ag41
asg42
(lp1454
g44
ag44
ag44
ag44
ag44
ag44
ag44
ag44
ag44
ag44
ag44
ag44
ag44
ag44
ag44
ag44
ag44
ag44
ag44
ag44
ag44
ag44
ag44
ag44
ag44
ag44
ag44
asg45
(lp1455
g48
ag207
ag106
ag54
ag53
ag106
ag54
ag53
ag106
ag102
ag101
aS'WDT'
p1456
ag51
ag106
ag51
ag102
ag54
ag103
ag207
ag98
ag54
ag54
ag54
ag103
ag100
ag207
ag55
asg56
VHe stuck a coin in the slot of the first one which displayed a lighted vacant sign, chucked his jump bag inside, and left.
p1457
sba(i__main__
Sentence
p1458
(dp1459
g17
I54
sg18
(lp1460
S'The'
p1461
aS'monitor'
p1462
aS'at'
p1463
aS'the'
p1464
aS'intersection'
p1465
aS'gave'
p1466
aS'him'
p1467
aS'the'
p1468
aS'address'
p1469
aS'of'
p1470
aS'the'
p1471
aS'nearest'
p1472
aS'placement'
p1473
aS'office'
p1474
aS'.'
p1475
asg30
(lp1476
VThe
p1477
aVmonitor
p1478
aVat
p1479
aVthe
p1480
aVintersection
p1481
aVgive
p1482
aVhim
p1483
aVthe
p1484
aVaddress
p1485
aVof
p1486
aVthe
p1487
aVnear
p1488
aVplacement
p1489
aVoffice
p1490
ag41
asg42
(lp1491
g44
ag44
ag44
ag44
ag44
ag44
ag44
ag44
ag44
ag44
ag44
ag44
ag44
ag44
ag44
asg45
(lp1492
g106
ag54
ag53
ag106
ag54
ag207
ag48
ag106
ag54
ag53
ag106
ag956
ag54
ag54
ag55
asg56
VThe monitor at the intersection gave him the address of the nearest placement office.
p1493
sba(i__main__
Sentence
p1494
(dp1495
g17
I55
sg18
(lp1496
S'He'
p1497
aS'went'
p1498
aS'there'
p1499
aS','
p1500
aS'seated'
p1501
aS'himself'
p1502
aS'at'
p1503
aS'an'
p1504
aS'interview'
p1505
aS'desk'
p1506
aS','
p1507
aS'stamped'
p1508
aS'in'
p1509
aS'his'
p1510
aS'finger'
p1511
aS'prints'
p1512
aS','
p1513
aS'and'
p1514
aS'started'
p1515
aS'filling'
p1516
aS'out'
p1517
aS'forms'
p1518
aS'.'
p1519
asg30
(lp1520
VHe
p1521
aVgo
p1522
aVthere
p1523
ag86
aVseat
p1524
aVhimself
p1525
aVat
p1526
aVan
p1527
aVinterview
p1528
aVdesk
p1529
ag86
aVstamp
p1530
aVin
p1531
aVhis
p1532
aVfinger
p1533
aVprint
p1534
ag86
aVand
p1535
aVstart
p1536
aVfill
p1537
aVout
p1538
aVform
p1539
ag41
asg42
(lp1540
g44
ag44
ag44
ag44
ag44
ag44
ag44
ag44
ag44
ag44
ag44
ag44
ag44
ag44
ag44
ag44
ag44
ag44
ag44
ag44
ag44
ag44
ag44
asg45
(lp1541
g48
ag207
ag47
ag103
ag51
ag48
ag53
ag106
ag54
ag54
ag103
ag207
ag53
ag98
ag54
ag104
ag103
ag100
ag207
ag107
ag52
ag104
ag55
asg56
VHe went there, seated himself at an interview desk, stamped in his finger prints, and started filling out forms.
p1542
sba(i__main__
Sentence
p1543
(dp1544
g17
I56
sg18
(lp1545
S'It'
p1546
aS'gave'
p1547
aS'him'
p1548
aS'a'
p1549
aS'curious'
p1550
aS'back-to-the'
p1551
aS'beginning'
p1552
aS'feeling'
p1553
aS';'
p1554
aS'he'
p1555
aS'had'
p1556
aS'not'
p1557
aS'looked'
p1558
aS'for'
p1559
aS'a'
p1560
aS'job'
p1561
aS'since'
p1562
aS'pre-cadet'
p1563
aS'days'
p1564
aS'.'
p1565
asg30
(lp1566
VIt
p1567
ag1482
aVhim
p1568
ag441
aVcurious
p1569
aVback-to-the
p1570
aVbeginning
p1571
aVfeel
p1572
ag89
aVhe
p1573
ag198
aVnot
p1574
aVlook
p1575
aVfor
p1576
ag441
aVjob
p1577
aVsince
p1578
aVpre-cadet
p1579
aVday
p1580
ag41
asg42
(lp1581
g44
ag44
ag44
ag44
ag44
ag44
ag44
ag44
ag44
ag44
ag44
ag44
ag44
ag44
ag44
ag44
ag44
ag44
ag44
ag44
asg45
(lp1582
g48
ag207
ag48
ag106
ag102
ag54
ag54
ag107
ag105
ag48
ag207
ag47
ag51
ag53
ag106
ag54
ag53
ag102
ag104
ag55
asg56
VIt gave him a curious back-to-the beginning feeling; he had not looked for a job since pre-cadet days.
p1583
sba(i__main__
Sentence
p1584
(dp1585
g17
I57
sg18
(lp1586
S'He'
p1587
aS'left'
p1588
aS'filling'
p1589
aS'in'
p1590
aS'his'
p1591
aS'name'
p1592
aS'to'
p1593
aS'the'
p1594
aS'last'
p1595
aS'and'
p1596
aS'hesitated'
p1597
aS'even'
p1598
aS'then'
p1599
aS'.'
p1600
asg30
(lp1601
VHe
p1602
ag1453
aVfill
p1603
aVin
p1604
aVhis
p1605
aVname
p1606
aVto
p1607
aVthe
p1608
aVlast
p1609
aVand
p1610
aVhesitate
p1611
aVeven
p1612
aVthen
p1613
ag41
asg42
(lp1614
g44
ag44
ag44
ag44
ag44
ag44
ag44
ag44
ag44
ag44
ag44
ag44
ag44
ag44
asg45
(lp1615
g48
ag207
ag107
ag53
ag98
ag54
ag242
ag106
ag102
ag100
ag207
ag47
ag47
ag55
asg56
VHe left filling in his name to the last and hesitated even then.
p1616
sba(i__main__
Sentence
p1617
(dp1618
g17
I58
sg18
(lp1619
S'He'
p1620
aS'had'
p1621
aS'had'
p1622
aS'more'
p1623
aS'than'
p1624
aS'his'
p1625
aS'bellyful'
p1626
aS'of'
p1627
aS'publicity'
p1628
aS';'
p1629
aS'he'
p1630
aS'did'
p1631
aS'not'
p1632
aS'want'
p1633
aS'to'
p1634
aS'be'
p1635
aS'recognized'
p1636
aS';'
p1637
aS'he'
p1638
aS'certainly'
p1639
aS'did'
p1640
aS'not'
p1641
aS'want'
p1642
aS'to'
p1643
aS'be'
p1644
aS'throbbed'
p1645
aS'overand'
p1646
aS'most'
p1647
aS'of'
p1648
aS'all'
p1649
aS'he'
p1650
aS'did'
p1651
aS'not'
p1652
aS'want'
p1653
aS'anyone'
p1654
aS'telling'
p1655
aS'him'
p1656
aS'he'
p1657
aS'was'
p1658
aS'a'
p1659
aS'hero'
p1660
aS'.'
p1661
asg30
(lp1662
VHe
p1663
ag198
ag198
aVmore
p1664
aVthan
p1665
aVhis
p1666
aVbellyful
p1667
aVof
p1668
aVpublicity
p1669
ag89
aVhe
p1670
ag1300
aVnot
p1671
aVwant
p1672
aVto
p1673
aVbe
p1674
aVrecognize
p1675
ag89
aVhe
p1676
aVcertainly
p1677
ag1300
aVnot
p1678
aVwant
p1679
aVto
p1680
aVbe
p1681
aVthrob
p1682
aVoverand
p1683
aVmost
p1684
aVof
p1685
aVall
p1686
aVhe
p1687
ag1300
aVnot
p1688
aVwant
p1689
aVanyone
p1690
aVtell
p1691
aVhim
p1692
aVhe
p1693
ag336
ag441
aVhero
p1694
ag41
asg42
(lp1695
g44
ag44
ag44
ag44
ag44
ag44
ag44
ag44
ag44
ag44
ag44
ag44
ag44
ag44
ag44
ag44
ag44
ag44
ag44
ag44
ag44
ag44
ag44
ag44
ag44
ag44
ag44
ag44
ag44
ag44
ag44
ag44
ag44
ag44
ag44
ag44
ag44
ag44
ag44
ag44
ag44
ag44
asg45
(lp1696
g48
ag207
ag51
ag501
ag53
ag98
ag102
ag53
ag54
ag105
ag48
ag207
ag47
ag50
ag242
ag50
ag51
ag105
ag48
ag47
ag207
ag47
ag50
ag242
ag50
ag51
ag54
ag956
ag53
ag106
ag48
ag207
ag47
ag50
ag54
ag107
ag48
ag48
ag207
ag106
ag54
ag55
asg56
VHe had had more than his bellyful of publicity; he did not want to be recognized; he certainly did not want to be throbbed overand most of all he did not want anyone telling him he was a hero.
p1697
sba(i__main__
Sentence
p1698
(dp1699
g17
I59
sg18
(lp1700
S'Presently'
p1701
aS'he'
p1702
aS'printed'
p1703
aS'in'
p1704
aS'the'
p1705
aS'name'
p1706
aS'William'
p1707
aS'Saunders'
p1708
aS'and'
p1709
aS'dropped'
p1710
aS'the'
p1711
aS'forms'
p1712
aS'in'
p1713
aS'the'
p1714
aS'slot'
p1715
aS'.'
p1716
asg30
(lp1717
VPresently
p1718
aVhe
p1719
aVprint
p1720
aVin
p1721
aVthe
p1722
aVname
p1723
aVWilliam
p1724
aVSaunders
p1725
aVand
p1726
aVdrop
p1727
aVthe
p1728
aVform
p1729
aVin
p1730
aVthe
p1731
aVslot
p1732
ag41
asg42
(lp1733
g44
ag44
ag44
ag44
ag44
ag44
aVPERSON
p1734
aVPERSON
p1735
ag44
ag44
ag44
ag44
ag44
ag44
ag44
ag44
asg45
(lp1736
g47
ag48
ag207
ag53
ag106
ag54
ag164
ag164
ag100
ag207
ag106
ag104
ag53
ag106
ag54
ag55
asg56
VPresently he printed in the name William Saunders and dropped the forms in the slot.
p1737
sba(i__main__
Sentence
p1738
(dp1739
g17
I60
sg18
(lp1740
S'He'
p1741
aS'was'
p1742
aS'well'
p1743
aS'into'
p1744
aS'his'
p1745
aS'third'
p1746
aS'cigarette'
p1747
aS'and'
p1748
aS'getting'
p1749
aS'ready'
p1750
aS'to'
p1751
aS'strike'
p1752
aS'another'
p1753
aS'when'
p1754
aS'the'
p1755
aS'screen'
p1756
aS'in'
p1757
aS'front'
p1758
aS'of'
p1759
aS'him'
p1760
aS'at'
p1761
aS'last'
p1762
aS'lighted'
p1763
aS'up'
p1764
aS'.'
p1765
asg30
(lp1766
VHe
p1767
ag336
aVwell
p1768
aVinto
p1769
aVhis
p1770
aVthird
p1771
aVcigarette
p1772
aVand
p1773
aVget
p1774
aVready
p1775
aVto
p1776
aVstrike
p1777
aVanother
p1778
aVwhen
p1779
aVthe
p1780
aVscreen
p1781
aVin
p1782
aVfront
p1783
aVof
p1784
aVhim
p1785
aVat
p1786
aVlast
p1787
aVlight
p1788
aVup
p1789
ag41
asg42
(lp1790
g44
ag44
ag44
ag44
ag44
ag44
ag44
ag44
ag44
ag44
ag44
ag44
ag44
ag44
ag44
ag44
ag44
ag44
ag44
ag44
ag44
ag44
ag44
ag44
ag44
asg45
(lp1791
g48
ag207
ag47
ag53
ag98
ag102
ag54
ag100
ag107
ag47
ag242
ag50
ag106
ag165
ag106
ag54
ag53
ag54
ag53
ag48
ag53
ag102
ag51
ag52
ag55
asg56
VHe was well into his third cigarette and getting ready to strike another when the screen in front of him at last lighted up.
p1792
sba(i__main__
Sentence
p1793
(dp1794
g17
I61
sg18
(lp1795
S'He'
p1796
aS'found'
p1797
aS'himself'
p1798
aS'staring'
p1799
aS'at'
p1800
aS'a'
p1801
aS'nice-looking'
p1802
aS'brunette'
p1803
aS'.'
p1804
asg30
(lp1805
VHe
p1806
aVfind
p1807
aVhimself
p1808
aVstar
p1809
aVat
p1810
ag441
aVnice-looking
p1811
aVbrunette
p1812
ag41
asg42
(lp1813
g44
ag44
ag44
ag44
ag44
ag44
ag44
ag44
ag44
asg45
(lp1814
g48
ag207
ag48
ag107
ag53
ag106
ag102
ag54
ag55
asg56
VHe found himself staring at a nice-looking brunette.
p1815
sba(i__main__
Sentence
p1816
(dp1817
g17
I62
sg18
(lp1818
S'Mr.'
p1819
aS'Saunders'
p1820
aS','
p1821
aS'the'
p1822
aS'image'
p1823
aS'said'
p1824
aS','
p1825
aS'will'
p1826
aS'you'
p1827
aS'come'
p1828
aS'inside'
p1829
aS'please'
p1830
aS'?'
p1831
asg30
(lp1832
VMr.
p1833
aVSaunders
p1834
ag86
aVthe
p1835
aVimage
p1836
aVsay
p1837
ag86
aVwill
p1838
aVyou
p1839
aVcome
p1840
aVinside
p1841
aVplease
p1842
ag681
asg42
(lp1843
g44
aVPERSON
p1844
ag44
ag44
ag44
ag44
ag44
ag44
ag44
ag44
ag44
ag44
ag44
asg45
(lp1845
g164
ag164
ag103
ag106
ag54
ag207
ag103
ag49
ag48
ag50
ag102
ag54
ag55
asg56
VMr. Saunders, the image said, will you come inside please?
p1846
sba(i__main__
Sentence
p1847
(dp1848
g17
I63
sg18
(lp1849
S'Door'
p1850
aS'seventeen'
p1851
aS'.'
p1852
asg30
(lp1853
VDoor
p1854
aVseventeen
p1855
ag41
asg42
(lp1856
g44
ag44
ag44
asg45
(lp1857
g164
ag207
ag55
asg56
VDoor seventeen.
p1858
sba(i__main__
Sentence
p1859
(dp1860
g17
I64
sg18
(lp1861
S'The'
p1862
aS'brunette'
p1863
aS'in'
p1864
aS'person'
p1865
aS'was'
p1866
aS'there'
p1867
aS'to'
p1868
aS'offer'
p1869
aS'him'
p1870
aS'a'
p1871
aS'seat'
p1872
aS'and'
p1873
aS'a'
p1874
aS'cigarette'
p1875
aS'.'
p1876
asg30
(lp1877
VThe
p1878
aVbrunette
p1879
aVin
p1880
aVperson
p1881
ag336
aVthere
p1882
aVto
p1883
aVoffer
p1884
aVhim
p1885
ag441
aVseat
p1886
aVand
p1887
ag441
aVcigarette
p1888
ag41
asg42
(lp1889
g44
ag44
ag44
ag44
ag44
ag44
ag44
ag44
ag44
ag44
ag44
ag44
ag44
ag44
ag44
asg45
(lp1890
g106
ag54
ag53
ag54
ag207
ag47
ag242
ag50
ag48
ag106
ag54
ag100
ag106
ag54
ag55
asg56
VThe brunette in person was there to offer him a seat and a cigarette.
p1891
sba(i__main__
Sentence
p1892
(dp1893
g17
I65
sg18
(lp1894
S'Make'
p1895
aS'yourself'
p1896
aS'comfortable'
p1897
aS'Mr.'
p1898
aS'Saunders'
p1899
aS'.'
p1900
asg30
(lp1901
VMake
p1902
aVyourself
p1903
aVcomfortable
p1904
aVMr.
p1905
aVSaunders
p1906
ag41
asg42
(lp1907
g44
ag44
ag44
ag44
aVPERSON
p1908
ag44
asg45
(lp1909
g164
ag48
ag102
ag164
ag164
ag55
asg56
VMake yourself comfortable Mr. Saunders.
p1910
sba(i__main__
Sentence
p1911
(dp1912
g17
I66
sg18
(lp1913
S'Im'
p1914
aS'Miss'
p1915
aS'Joyce'
p1916
aS'.'
p1917
asg30
(lp1918
VIm
p1919
aVMiss
p1920
aVJoyce
p1921
ag41
asg42
(lp1922
g44
ag44
aVPERSON
p1923
ag44
asg45
(lp1924
g164
ag164
ag164
ag55
asg56
VIm Miss Joyce.
p1925
sba(i__main__
Sentence
p1926
(dp1927
g17
I67
sg18
(lp1928
S'Id'
p1929
aS'like'
p1930
aS'to'
p1931
aS'talk'
p1932
aS'with'
p1933
aS'you'
p1934
aS'about'
p1935
aS'your'
p1936
aS'application'
p1937
aS'.'
p1938
asg30
(lp1939
VId
p1940
aVlike
p1941
aVto
p1942
aVtalk
p1943
aVwith
p1944
aVyou
p1945
aVabout
p1946
aVyour
p1947
aVapplication
p1948
ag41
asg42
(lp1949
g44
ag44
ag44
ag44
ag44
ag44
ag44
ag44
ag44
ag44
asg45
(lp1950
g164
ag53
ag242
ag50
ag53
ag48
ag53
ag98
ag54
ag55
asg56
VId like to talk with you about your application.
p1951
sba(i__main__
Sentence
p1952
(dp1953
g17
I68
sg18
(lp1954
S'He'
p1955
aS'settled'
p1956
aS'himself'
p1957
aS'and'
p1958
aS'waited'
p1959
aS','
p1960
aS'without'
p1961
aS'speaking'
p1962
aS'.'
p1963
asg30
(lp1964
VHe
p1965
aVsettle
p1966
aVhimself
p1967
aVand
p1968
aVwait
p1969
ag86
aVwithout
p1970
aVspeaking
p1971
ag41
asg42
(lp1972
g44
ag44
ag44
ag44
ag44
ag44
ag44
ag44
ag44
asg45
(lp1973
g48
ag207
ag48
ag100
ag207
ag103
ag53
ag54
ag55
asg56
VHe settled himself and waited, without speaking.
p1974
sba(i__main__
Sentence
p1975
(dp1976
g17
I69
sg18
(lp1977
S'When'
p1978
aS'she'
p1979
aS'saw'
p1980
aS'that'
p1981
aS'he'
p1982
aS'did'
p1983
aS'not'
p1984
aS'intend'
p1985
aS'to'
p1986
aS'speak'
p1987
aS','
p1988
aS'she'
p1989
aS'added'
p1990
aS','
p1991
aS'Now'
p1992
aS'take'
p1993
aS'this'
p1994
aS'name'
p1995
aS'William'
p1996
aS'Saunders'
p1997
aS'which'
p1998
aS'you'
p1999
aS'have'
p2000
aS'given'
p2001
aS'uswe'
p2002
aS'know'
p2003
aS'who'
p2004
aS'you'
p2005
aS'are'
p2006
aS','
p2007
aS'of'
p2008
aS'course'
p2009
aS','
p2010
aS'from'
p2011
aS'your'
p2012
aS'prints'
p2013
aS'.'
p2014
asg30
(lp2015
VWhen
p2016
aVshe
p2017
aVsaw
p2018
aVthat
p2019
aVhe
p2020
ag1300
aVnot
p2021
aVintend
p2022
aVto
p2023
aVspeak
p2024
ag86
aVshe
p2025
aVadd
p2026
ag86
aVNow
p2027
aVtake
p2028
aVthis
p2029
aVname
p2030
aVWilliam
p2031
aVSaunders
p2032
aVwhich
p2033
aVyou
p2034
aVhave
p2035
aVgive
p2036
aVuswe
p2037
aVknow
p2038
aVwho
p2039
aVyou
p2040
ag160
ag86
aVof
p2041
aVcourse
p2042
ag86
aVfrom
p2043
aVyour
p2044
aVprint
p2045
ag41
asg42
(lp2046
g44
ag44
ag44
ag44
ag44
ag44
ag44
ag44
ag44
ag44
ag44
ag44
ag44
ag44
ag44
ag44
ag44
ag44
aVPERSON
p2047
aVPERSON
p2048
ag44
ag44
ag44
ag44
ag44
ag44
ag44
ag44
ag44
ag44
ag44
ag44
ag44
ag44
ag44
ag44
ag44
asg45
(lp2049
g165
ag48
ag207
ag53
ag48
ag207
ag47
ag50
ag242
ag50
ag103
ag48
ag207
ag103
ag164
ag166
ag106
ag54
ag164
ag164
ag1456
ag48
ag166
ag51
ag54
ag47
ag502
ag48
ag166
ag103
ag53
ag54
ag103
ag53
ag98
ag104
ag55
asg56
VWhen she saw that he did not intend to speak, she added, Now take this name William Saunders which you have given uswe know who you are, of course, from your prints.
p2050
sba(i__main__
Sentence
p2051
(dp2052
g17
I70
sg18
(lp2053
S'I'
p2054
aS'suppose'
p2055
aS'so'
p2056
aS'.'
p2057
asg30
(lp2058
g360
aVsuppose
p2059
aVso
p2060
ag41
asg42
(lp2061
g44
ag44
ag44
ag44
asg45
(lp2062
g48
ag166
ag47
ag55
asg56
VI suppose so.
p2063
sba(i__main__
Sentence
p2064
(dp2065
g17
I71
sg18
(lp2066
S'Of'
p2067
aS'course'
p2068
aS'I'
p2069
aS'know'
p2070
aS'what'
p2071
aS'everybody'
p2072
aS'knows'
p2073
aS'about'
p2074
aS'you'
p2075
aS','
p2076
aS'but'
p2077
aS'your'
p2078
aS'action'
p2079
aS'in'
p2080
aS'calling'
p2081
aS'yourself'
p2082
aS'William'
p2083
aS'Saunders'
p2084
aS','
p2085
aS'Mr.'
p2086
aS'Saunders'
p2087
aS'Mr.'
p2088
aS'Saunders'
p2089
aS','
p2090
aS'caused'
p2091
aS'me'
p2092
aS'to'
p2093
aS'query'
p2094
aS'the'
p2095
aS'files'
p2096
aS'.'
p2097
asg30
(lp2098
VOf
p2099
aVcourse
p2100
ag360
aVknow
p2101
aVwhat
p2102
aVeverybody
p2103
aVknow
p2104
aVabout
p2105
aVyou
p2106
ag86
aVbut
p2107
aVyour
p2108
aVaction
p2109
aVin
p2110
aVcalling
p2111
aVyourself
p2112
aVWilliam
p2113
aVSaunders
p2114
ag86
aVMr.
p2115
aVSaunders
p2116
aVMr.
p2117
aVSaunders
p2118
ag86
aVcause
p2119
aVme
p2120
aVto
p2121
aVquery
p2122
aVthe
p2123
aVfile
p2124
ag41
asg42
(lp2125
g44
ag44
ag44
ag44
ag44
ag44
ag44
ag44
ag44
ag44
ag44
ag44
ag44
ag44
ag44
ag44
aVPERSON
p2126
aVPERSON
p2127
ag44
ag44
aVPERSON
p2128
ag44
aVPERSON
p2129
ag44
ag44
ag44
ag44
ag44
ag44
ag44
ag44
asg45
(lp2130
g53
ag54
ag48
ag166
ag502
ag54
ag99
ag53
ag48
ag103
ag100
ag98
ag54
ag53
ag54
ag54
ag164
ag164
ag103
ag164
ag164
ag164
ag164
ag103
ag207
ag48
ag242
ag50
ag106
ag104
ag55
asg56
VOf course I know what everybody knows about you, but your action in calling yourself William Saunders, Mr.  Saunders  Mr. Saunders, caused me to query the files.
p2131
sba(i__main__
Sentence
p2132
(dp2133
g17
I72
sg18
(lp2134
S'She'
p2135
aS'held'
p2136
aS'up'
p2137
aS'a'
p2138
aS'microfilm'
p2139
aS'spool'
p2140
aS','
p2141
aS'turned'
p2142
aS'so'
p2143
aS'that'
p2144
aS'he'
p2145
aS'might'
p2146
aS'read'
p2147
aS'his'
p2148
aS'own'
p2149
aS'name'
p2150
aS'on'
p2151
aS'it'
p2152
aS'.'
p2153
asg30
(lp2154
VShe
p2155
aVhold
p2156
aVup
p2157
ag441
aVmicrofilm
p2158
aVspool
p2159
ag86
aVturn
p2160
aVso
p2161
aVthat
p2162
aVhe
p2163
aVmight
p2164
aVread
p2165
aVhis
p2166
aVown
p2167
aVname
p2168
aVon
p2169
aVit
p2170
ag41
asg42
(lp2171
g44
ag44
ag44
ag44
ag44
ag44
ag44
ag44
ag44
ag44
ag44
ag44
ag44
ag44
ag44
ag44
ag44
ag44
ag44
asg45
(lp2172
g48
ag207
ag52
ag106
ag54
ag54
ag103
ag207
ag47
ag53
ag48
ag49
ag50
ag98
ag102
ag54
ag53
ag48
ag55
asg56
VShe held up a microfilm spool, turned so that he might read his own name on it.
p2173
sba(i__main__
Sentence
p2174
(dp2175
g17
I73
sg18
(lp2176
S'I'
p2177
aS'know'
p2178
aS'quite'
p2179
aS'a'
p2180
aS'bit'
p2181
aS'about'
p2182
aS'you'
p2183
aS'nowmore'
p2184
aS'than'
p2185
aS'the'
p2186
aS'public'
p2187
aS'knows'
p2188
aS','
p2189
aS'and'
p2190
aS'more'
p2191
aS'than'
p2192
aS'you'
p2193
aS'saw'
p2194
aS'fit'
p2195
aS'to'
p2196
aS'put'
p2197
aS'into'
p2198
aS'your'
p2199
aS'application'
p2200
aS'.'
p2201
asg30
(lp2202
g360
aVknow
p2203
aVquite
p2204
ag441
aVbit
p2205
aVabout
p2206
aVyou
p2207
aVnowmore
p2208
aVthan
p2209
aVthe
p2210
aVpublic
p2211
aVknow
p2212
ag86
aVand
p2213
aVmore
p2214
aVthan
p2215
aVyou
p2216
aVsaw
p2217
aVfit
p2218
aVto
p2219
aVput
p2220
aVinto
p2221
aVyour
p2222
aVapplication
p2223
ag41
asg42
(lp2224
g44
ag44
ag44
ag44
ag44
ag44
ag44
ag44
ag44
ag44
ag44
ag44
ag44
ag44
ag44
ag44
ag44
ag44
ag44
ag44
ag44
ag44
ag44
ag44
ag44
asg45
(lp2225
g48
ag166
ag47
ag106
ag54
ag53
ag48
ag166
ag53
ag106
ag54
ag99
ag103
ag100
ag957
ag53
ag48
ag207
ag102
ag242
ag50
ag53
ag98
ag54
ag55
asg56
VI know quite a bit about you nowmore than the public knows, and more than you saw fit to put into your application.
p2226
sba(i__main__
Sentence
p2227
(dp2228
g17
I74
sg18
(lp2229
S'Its'
p2230
aS'a'
p2231
aS'good'
p2232
aS'record'
p2233
aS','
p2234
aS'Mr.'
p2235
aS'Saunders'
p2236
aS'.'
p2237
asg30
(lp2238
VIts
p2239
ag441
aVgood
p2240
aVrecord
p2241
ag86
aVMr.
p2242
aVSaunders
p2243
ag41
asg42
(lp2244
g44
ag44
ag44
ag44
ag44
ag44
aVPERSON
p2245
ag44
asg45
(lp2246
g98
ag106
ag102
ag54
ag103
ag164
ag164
ag55
asg56
VIts a good record, Mr. Saunders.
p2247
sba(i__main__
Sentence
p2248
(dp2249
g17
I75
sg18
(lp2250
S'Thank'
p2251
aS'you'
p2252
aS'.'
p2253
asg30
(lp2254
VThank
p2255
aVyou
p2256
ag41
asg42
(lp2257
g44
ag44
ag44
asg45
(lp2258
g164
ag48
ag55
asg56
VThank you.
p2259
sba(i__main__
Sentence
p2260
(dp2261
g17
I76
sg18
(lp2262
S'But'
p2263
aS'I'
p2264
aS'ca'
p2265
aS"n't"
p2266
aS'use'
p2267
aS'it'
p2268
aS'in'
p2269
aS'placing'
p2270
aS'you'
p2271
aS'in'
p2272
aS'a'
p2273
aS'job'
p2274
aS'.'
p2275
asg30
(lp2276
VBut
p2277
ag360
aVca
p2278
aVn't
p2279
aVuse
p2280
aVit
p2281
aVin
p2282
aVplace
p2283
aVyou
p2284
aVin
p2285
ag441
aVjob
p2286
ag41
asg42
(lp2287
g44
ag44
ag44
ag44
ag44
ag44
ag44
ag44
ag44
ag44
ag44
ag44
ag44
asg45
(lp2288
g100
ag48
ag49
ag47
ag50
ag48
ag53
ag107
ag48
ag53
ag106
ag54
ag55
asg56
VBut I can't use it in placing you in a job.
p2289
sba(i__main__
Sentence
p2290
(dp2291
g17
I77
sg18
(lp2292
S'I'
p2293
aS'ca'
p2294
aS"n't"
p2295
aS'even'
p2296
aS'refer'
p2297
aS'to'
p2298
aS'it'
p2299
aS'if'
p2300
aS'you'
p2301
aS'insist'
p2302
aS'on'
p2303
aS'designating'
p2304
aS'yourself'
p2305
aS'as'
p2306
aS'Saunders'
p2307
aS'.'
p2308
asg30
(lp2309
g360
aVca
p2310
aVn't
p2311
aVeven
p2312
aVrefer
p2313
aVto
p2314
aVit
p2315
aVif
p2316
aVyou
p2317
aVinsist
p2318
aVon
p2319
aVdesignate
p2320
aVyourself
p2321
ag441
aVSaunders
p2322
ag41
asg42
(lp2323
g44
ag44
ag44
ag44
ag44
ag44
ag44
ag44
ag44
ag44
ag44
ag44
ag44
ag44
aVPERSON
p2324
ag44
asg45
(lp2325
g48
ag49
ag47
ag47
ag50
ag242
ag48
ag53
ag48
ag166
ag52
ag107
ag48
ag53
ag164
ag55
asg56
VI can't even refer to it if you insist on designating yourself as Saunders.
p2326
sba(i__main__
Sentence
p2327
(dp2328
g17
I78
sg18
(lp2329
S'The'
p2330
aS'name'
p2331
aS'is'
p2332
aS'Saunders'
p2333
aS'.'
p2334
asg30
(lp2335
VThe
p2336
aVname
p2337
ag446
aVSaunders
p2338
ag41
asg42
(lp2339
g44
ag44
ag44
aVPERSON
p2340
ag44
asg45
(lp2341
g106
ag54
ag99
ag164
ag55
asg56
VThe name is Saunders.
p2342
sba(i__main__
Sentence
p2343
(dp2344
g17
I79
sg18
(lp2345
S'His'
p2346
aS'voice'
p2347
aS'was'
p2348
aS'flat'
p2349
aS','
p2350
aS'rather'
p2351
aS'than'
p2352
aS'emphatic'
p2353
aS'.'
p2354
asg30
(lp2355
VHis
p2356
aVvoice
p2357
ag336
aVflat
p2358
ag86
aVrather
p2359
aVthan
p2360
aVemphatic
p2361
ag41
asg42
(lp2362
g44
ag44
ag44
ag44
ag44
ag44
ag44
ag44
ag44
asg45
(lp2363
g98
ag54
ag207
ag102
ag103
ag47
ag53
ag102
ag55
asg56
VHis voice was flat, rather than emphatic.
p2364
sbasbsS'summary'
p2365
g0
(g7
g2
Ntp2366
Rp2367
(dp2368
g11
S'"William Saunders" (a psuedonym the narrator uses) is done with open space.  Back on Earth and cleared by the psychiatrists, he is seeking employment that has nothing to do with any open spaces.  It\'s just too much for him to the point where he hides who he was and takes a low-ranking job.  At his new job, he eventually makes friends with a coworker named Tully who invites him over.  Dinner also includes Tully\'s brother-in-law who is an obnoxious person trying to berate his opinion into everyone.  The conversation comes to Mars and what to do with the Martians.  The brother-in-law prefers a more aggressive route, but William speaks up unexpectedly in their defense and we flashback to the Martian that he had met and respected.  Later on, when he is in bed, he hears crying from outside his window.  Slowly and with much trepidation, he eventually peers out the window to find a kitten stuck on a small landing outside his room.  It becomes clear that he will not be able to save the kitty unless he gets out on the ledge but his fear of open space makes it almost impossible.  It\'s at this point he flashes back to his experience in space where in order to save everyone on the spaceship.  He climbed about the ship to replace an essential antennae but in doing so, found his ability to get back into the ship impossible.  He clung to ship for as long as he could before losing his grip.  When he awakes, he is on a different ship that happened to be near by and could pick him up.  After reliving this flashback, William finds the courage to go outside and get the kitty and bring it in.  Upon coming back in, he begins to reconsider his choices and wonders if going outside is all that bad after all. '
p2369
sg13
(lp2370
(i__main__
Sentence
p2371
(dp2372
g17
I0
sg18
(lp2373
S'``'
p2374
aS'William'
p2375
aS'Saunders'
p2376
aS"''"
p2377
aS'('
p2378
aS'a'
p2379
aS'psuedonym'
p2380
aS'the'
p2381
aS'narrator'
p2382
aS'uses'
p2383
aS')'
p2384
aS'is'
p2385
aS'done'
p2386
aS'with'
p2387
aS'open'
p2388
aS'space'
p2389
aS'.'
p2390
asg30
(lp2391
V``
p2392
aVWilliam
p2393
aVSaunders
p2394
aV''
p2395
aV(
p2396
ag441
aVpsuedonym
p2397
aVthe
p2398
aVnarrator
p2399
aVuse
p2400
aV)
p2401
ag446
aVdo
p2402
aVwith
p2403
aVopen
p2404
aVspace
p2405
ag41
asg42
(lp2406
g44
aVPERSON
p2407
aVPERSON
p2408
ag44
ag44
ag44
ag44
ag44
ag44
ag44
ag44
ag44
ag44
ag44
ag44
ag44
ag44
asg45
(lp2409
S'``'
p2410
ag164
ag164
aS"''"
p2411
ag105
ag106
ag54
ag106
ag54
ag99
ag105
ag99
ag51
ag53
ag102
ag54
ag55
asg56
V"William Saunders" (a psuedonym the narrator uses) is done with open space.
p2412
sba(i__main__
Sentence
p2413
(dp2414
g17
I1
sg18
(lp2415
S'Back'
p2416
aS'on'
p2417
aS'Earth'
p2418
aS'and'
p2419
aS'cleared'
p2420
aS'by'
p2421
aS'the'
p2422
aS'psychiatrists'
p2423
aS','
p2424
aS'he'
p2425
aS'is'
p2426
aS'seeking'
p2427
aS'employment'
p2428
aS'that'
p2429
aS'has'
p2430
aS'nothing'
p2431
aS'to'
p2432
aS'do'
p2433
aS'with'
p2434
aS'any'
p2435
aS'open'
p2436
aS'spaces'
p2437
aS'.'
p2438
asg30
(lp2439
VBack
p2440
aVon
p2441
aVEarth
p2442
aVand
p2443
aVclear
p2444
aVby
p2445
aVthe
p2446
aVpsychiatrist
p2447
ag86
aVhe
p2448
ag446
aVseek
p2449
aVemployment
p2450
aVthat
p2451
ag82
aVnothing
p2452
aVto
p2453
aVdo
p2454
aVwith
p2455
aVany
p2456
aVopen
p2457
aVspace
p2458
ag41
asg42
(lp2459
g44
ag44
aVLOCATION
p2460
ag44
ag44
ag44
ag44
ag44
ag44
ag44
ag44
ag44
ag44
ag44
ag44
ag44
ag44
ag44
ag44
ag44
ag44
ag44
ag44
asg45
(lp2461
g164
ag53
ag164
ag100
ag207
ag53
ag106
ag104
ag103
ag48
ag99
ag107
ag54
ag53
ag99
ag54
ag242
ag50
ag53
ag106
ag102
ag104
ag55
asg56
VBack on Earth and cleared by the psychiatrists, he is seeking employment that has nothing to do with any open spaces.
p2462
sba(i__main__
Sentence
p2463
(dp2464
g17
I2
sg18
(lp2465
S'It'
p2466
aS"'s"
p2467
aS'just'
p2468
aS'too'
p2469
aS'much'
p2470
aS'for'
p2471
aS'him'
p2472
aS'to'
p2473
aS'the'
p2474
aS'point'
p2475
aS'where'
p2476
aS'he'
p2477
aS'hides'
p2478
aS'who'
p2479
aS'he'
p2480
aS'was'
p2481
aS'and'
p2482
aS'takes'
p2483
aS'a'
p2484
aS'low-ranking'
p2485
aS'job'
p2486
aS'.'
p2487
asg30
(lp2488
VIt
p2489
aV's
p2490
aVjust
p2491
aVtoo
p2492
aVmuch
p2493
aVfor
p2494
aVhim
p2495
aVto
p2496
aVthe
p2497
aVpoint
p2498
aVwhere
p2499
aVhe
p2500
aVhide
p2501
aVwho
p2502
aVhe
p2503
ag336
aVand
p2504
aVtake
p2505
ag441
aVlow-ranking
p2506
aVjob
p2507
ag41
asg42
(lp2508
g44
ag44
ag44
ag44
ag44
ag44
ag44
ag44
ag44
ag44
ag44
ag44
ag44
ag44
ag44
ag44
ag44
ag44
ag44
ag44
ag44
ag44
asg45
(lp2509
g48
ag99
ag47
ag47
ag102
ag53
ag48
ag242
ag106
ag54
ag165
ag48
ag99
ag502
ag48
ag207
ag100
ag99
ag106
ag102
ag54
ag55
asg56
VIt's just too much for him to the point where he hides who he was and takes a low-ranking job.
p2510
sba(i__main__
Sentence
p2511
(dp2512
g17
I3
sg18
(lp2513
S'At'
p2514
aS'his'
p2515
aS'new'
p2516
aS'job'
p2517
aS','
p2518
aS'he'
p2519
aS'eventually'
p2520
aS'makes'
p2521
aS'friends'
p2522
aS'with'
p2523
aS'a'
p2524
aS'coworker'
p2525
aS'named'
p2526
aS'Tully'
p2527
aS'who'
p2528
aS'invites'
p2529
aS'him'
p2530
aS'over'
p2531
aS'.'
p2532
asg30
(lp2533
VAt
p2534
aVhis
p2535
aVnew
p2536
aVjob
p2537
ag86
aVhe
p2538
aVeventually
p2539
aVmake
p2540
aVfriend
p2541
aVwith
p2542
ag441
aVcoworker
p2543
aVname
p2544
aVTully
p2545
aVwho
p2546
aVinvite
p2547
aVhim
p2548
aVover
p2549
ag41
asg42
(lp2550
g44
ag44
ag44
ag44
ag44
ag44
ag44
ag44
ag44
ag44
ag44
ag44
ag44
aVPERSON
p2551
ag44
ag44
ag44
ag44
ag44
asg45
(lp2552
g53
ag98
ag102
ag54
ag103
ag48
ag47
ag99
ag104
ag53
ag106
ag54
ag51
ag164
ag502
ag99
ag48
ag53
ag55
asg56
VAt his new job, he eventually makes friends with a coworker named Tully who invites him over.
p2553
sba(i__main__
Sentence
p2554
(dp2555
g17
I4
sg18
(lp2556
S'Dinner'
p2557
aS'also'
p2558
aS'includes'
p2559
aS'Tully'
p2560
aS"'s"
p2561
aS'brother-in-law'
p2562
aS'who'
p2563
aS'is'
p2564
aS'an'
p2565
aS'obnoxious'
p2566
aS'person'
p2567
aS'trying'
p2568
aS'to'
p2569
aS'berate'
p2570
aS'his'
p2571
aS'opinion'
p2572
aS'into'
p2573
aS'everyone'
p2574
aS'.'
p2575
asg30
(lp2576
VDinner
p2577
aValso
p2578
aVinclude
p2579
aVTully
p2580
aV's
p2581
aVbrother-in-law
p2582
aVwho
p2583
ag446
aVan
p2584
aVobnoxious
p2585
aVperson
p2586
aVtry
p2587
aVto
p2588
aVberate
p2589
aVhis
p2590
aVopinion
p2591
aVinto
p2592
aVeveryone
p2593
ag41
asg42
(lp2594
g44
ag44
ag44
aVPERSON
p2595
ag44
ag44
ag44
ag44
ag44
ag44
ag44
ag44
ag44
ag44
ag44
ag44
ag44
ag44
ag44
asg45
(lp2596
g164
ag47
ag99
ag47
ag99
ag102
ag502
ag99
ag106
ag102
ag54
ag107
ag242
ag50
ag98
ag54
ag53
ag54
ag55
asg56
VDinner also includes Tully's brother-in-law who is an obnoxious person trying to berate his opinion into everyone.
p2597
sba(i__main__
Sentence
p2598
(dp2599
g17
I5
sg18
(lp2600
S'The'
p2601
aS'conversation'
p2602
aS'comes'
p2603
aS'to'
p2604
aS'Mars'
p2605
aS'and'
p2606
aS'what'
p2607
aS'to'
p2608
aS'do'
p2609
aS'with'
p2610
aS'the'
p2611
aS'Martians'
p2612
aS'.'
p2613
asg30
(lp2614
VThe
p2615
aVconversation
p2616
aVcome
p2617
aVto
p2618
aVMars
p2619
aVand
p2620
aVwhat
p2621
aVto
p2622
aVdo
p2623
aVwith
p2624
aVthe
p2625
aVMartians
p2626
ag41
asg42
(lp2627
g44
ag44
ag44
ag44
aVLOCATION
p2628
ag44
ag44
ag44
ag44
ag44
ag44
ag44
ag44
asg45
(lp2629
g106
ag54
ag99
ag242
ag164
ag100
ag502
ag242
ag50
ag53
ag106
aS'NNPS'
p2630
ag55
asg56
VThe conversation comes to Mars and what to do with the Martians.
p2631
sba(i__main__
Sentence
p2632
(dp2633
g17
I6
sg18
(lp2634
S'The'
p2635
aS'brother-in-law'
p2636
aS'prefers'
p2637
aS'a'
p2638
aS'more'
p2639
aS'aggressive'
p2640
aS'route'
p2641
aS','
p2642
aS'but'
p2643
aS'William'
p2644
aS'speaks'
p2645
aS'up'
p2646
aS'unexpectedly'
p2647
aS'in'
p2648
aS'their'
p2649
aS'defense'
p2650
aS'and'
p2651
aS'we'
p2652
aS'flashback'
p2653
aS'to'
p2654
aS'the'
p2655
aS'Martian'
p2656
aS'that'
p2657
aS'he'
p2658
aS'had'
p2659
aS'met'
p2660
aS'and'
p2661
aS'respected'
p2662
aS'.'
p2663
asg30
(lp2664
VThe
p2665
aVbrother-in-law
p2666
aVprefers
p2667
ag441
aVmore
p2668
aVaggressive
p2669
aVroute
p2670
ag86
aVbut
p2671
aVWilliam
p2672
aVspeaks
p2673
aVup
p2674
aVunexpectedly
p2675
aVin
p2676
aVtheir
p2677
aVdefense
p2678
aVand
p2679
aVwe
p2680
aVflashback
p2681
aVto
p2682
aVthe
p2683
aVMartian
p2684
aVthat
p2685
aVhe
p2686
ag198
aVmeet
p2687
aVand
p2688
aVrespect
p2689
ag41
asg42
(lp2690
g44
ag44
ag44
ag44
ag44
ag44
ag44
ag44
ag44
aVPERSON
p2691
ag44
ag44
ag44
ag44
ag44
ag44
ag44
ag44
ag44
ag44
ag44
ag44
ag44
ag44
ag44
ag44
ag44
ag44
ag44
asg45
(lp2692
g106
ag54
ag104
ag106
ag501
ag102
ag54
ag103
ag100
ag164
ag104
ag53
ag47
ag53
ag98
ag54
ag100
ag48
ag166
ag242
ag106
ag164
ag53
ag48
ag207
ag51
ag100
ag51
ag55
asg56
VThe brother-in-law prefers a more aggressive route, but William speaks up unexpectedly in their defense and we flashback to the Martian that he had met and respected.
p2693
sba(i__main__
Sentence
p2694
(dp2695
g17
I7
sg18
(lp2696
S'Later'
p2697
aS'on'
p2698
aS','
p2699
aS'when'
p2700
aS'he'
p2701
aS'is'
p2702
aS'in'
p2703
aS'bed'
p2704
aS','
p2705
aS'he'
p2706
aS'hears'
p2707
aS'crying'
p2708
aS'from'
p2709
aS'outside'
p2710
aS'his'
p2711
aS'window'
p2712
aS'.'
p2713
asg30
(lp2714
VLater
p2715
aVon
p2716
ag86
aVwhen
p2717
aVhe
p2718
ag446
aVin
p2719
aVbed
p2720
ag86
aVhe
p2721
aVhear
p2722
aVcry
p2723
aVfrom
p2724
aVoutside
p2725
aVhis
p2726
aVwindow
p2727
ag41
asg42
(lp2728
g44
ag44
ag44
ag44
ag44
ag44
ag44
ag44
ag44
ag44
ag44
ag44
ag44
ag44
ag44
ag44
ag44
asg45
(lp2729
g102
ag53
ag103
ag165
ag48
ag99
ag53
ag51
ag103
ag48
ag99
ag107
ag53
ag102
ag98
ag54
ag55
asg56
VLater on, when he is in bed, he hears crying from outside his window.
p2730
sba(i__main__
Sentence
p2731
(dp2732
g17
I8
sg18
(lp2733
S'Slowly'
p2734
aS'and'
p2735
aS'with'
p2736
aS'much'
p2737
aS'trepidation'
p2738
aS','
p2739
aS'he'
p2740
aS'eventually'
p2741
aS'peers'
p2742
aS'out'
p2743
aS'the'
p2744
aS'window'
p2745
aS'to'
p2746
aS'find'
p2747
aS'a'
p2748
aS'kitten'
p2749
aS'stuck'
p2750
aS'on'
p2751
aS'a'
p2752
aS'small'
p2753
aS'landing'
p2754
aS'outside'
p2755
aS'his'
p2756
aS'room'
p2757
aS'.'
p2758
asg30
(lp2759
VSlowly
p2760
aVand
p2761
aVwith
p2762
aVmuch
p2763
aVtrepidation
p2764
ag86
aVhe
p2765
aVeventually
p2766
aVpeer
p2767
aVout
p2768
aVthe
p2769
aVwindow
p2770
aVto
p2771
aVfind
p2772
ag441
aVkitten
p2773
aVstuck
p2774
aVon
p2775
ag441
aVsmall
p2776
aVlanding
p2777
aVoutside
p2778
aVhis
p2779
aVroom
p2780
ag41
asg42
(lp2781
g44
ag44
ag44
ag44
ag44
ag44
ag44
ag44
ag44
ag44
ag44
ag44
ag44
ag44
ag44
ag44
ag44
ag44
ag44
ag44
ag44
ag44
ag44
ag44
ag44
asg45
(lp2782
g47
ag100
ag53
ag102
ag54
ag103
ag48
ag47
ag104
ag53
ag106
ag54
ag242
ag50
ag106
ag54
ag54
ag53
ag106
ag102
ag54
ag53
ag98
ag54
ag55
asg56
VSlowly and with much trepidation, he eventually peers out the window to find a kitten stuck on a small landing outside his room.
p2783
sba(i__main__
Sentence
p2784
(dp2785
g17
I9
sg18
(lp2786
S'It'
p2787
aS'becomes'
p2788
aS'clear'
p2789
aS'that'
p2790
aS'he'
p2791
aS'will'
p2792
aS'not'
p2793
aS'be'
p2794
aS'able'
p2795
aS'to'
p2796
aS'save'
p2797
aS'the'
p2798
aS'kitty'
p2799
aS'unless'
p2800
aS'he'
p2801
aS'gets'
p2802
aS'out'
p2803
aS'on'
p2804
aS'the'
p2805
aS'ledge'
p2806
aS'but'
p2807
aS'his'
p2808
aS'fear'
p2809
aS'of'
p2810
aS'open'
p2811
aS'space'
p2812
aS'makes'
p2813
aS'it'
p2814
aS'almost'
p2815
aS'impossible'
p2816
aS'.'
p2817
asg30
(lp2818
VIt
p2819
aVbecome
p2820
aVclear
p2821
aVthat
p2822
aVhe
p2823
aVwill
p2824
aVnot
p2825
aVbe
p2826
aVable
p2827
aVto
p2828
aVsave
p2829
aVthe
p2830
aVkitty
p2831
aVunless
p2832
aVhe
p2833
aVget
p2834
aVout
p2835
aVon
p2836
aVthe
p2837
aVledge
p2838
aVbut
p2839
aVhis
p2840
aVfear
p2841
aVof
p2842
aVopen
p2843
aVspace
p2844
aVmake
p2845
aVit
p2846
aValmost
p2847
aVimpossible
p2848
ag41
asg42
(lp2849
g44
ag44
ag44
ag44
ag44
ag44
ag44
ag44
ag44
ag44
ag44
ag44
ag44
ag44
ag44
ag44
ag44
ag44
ag44
ag44
ag44
ag44
ag44
ag44
ag44
ag44
ag44
ag44
ag44
ag44
ag44
asg45
(lp2850
g48
ag99
ag102
ag53
ag48
ag49
ag47
ag50
ag102
ag242
ag50
ag106
ag54
ag53
ag48
ag99
ag52
ag53
ag106
ag54
ag100
ag98
ag54
ag53
ag102
ag54
ag99
ag48
ag47
ag102
ag55
asg56
VIt becomes clear that he will not be able to save the kitty unless he gets out on the ledge but his fear of open space makes it almost impossible.
p2851
sba(i__main__
Sentence
p2852
(dp2853
g17
I10
sg18
(lp2854
S'It'
p2855
aS"'s"
p2856
aS'at'
p2857
aS'this'
p2858
aS'point'
p2859
aS'he'
p2860
aS'flashes'
p2861
aS'back'
p2862
aS'to'
p2863
aS'his'
p2864
aS'experience'
p2865
aS'in'
p2866
aS'space'
p2867
aS'where'
p2868
aS'in'
p2869
aS'order'
p2870
aS'to'
p2871
aS'save'
p2872
aS'everyone'
p2873
aS'on'
p2874
aS'the'
p2875
aS'spaceship'
p2876
aS'.'
p2877
asg30
(lp2878
VIt
p2879
aV's
p2880
aVat
p2881
aVthis
p2882
aVpoint
p2883
aVhe
p2884
aVflash
p2885
aVback
p2886
aVto
p2887
aVhis
p2888
aVexperience
p2889
aVin
p2890
aVspace
p2891
aVwhere
p2892
aVin
p2893
aVorder
p2894
aVto
p2895
aVsave
p2896
aVeveryone
p2897
aVon
p2898
aVthe
p2899
aVspaceship
p2900
ag41
asg42
(lp2901
g44
ag44
ag44
ag44
ag44
ag44
ag44
ag44
ag44
ag44
ag44
ag44
ag44
ag44
ag44
ag44
ag44
ag44
ag44
ag44
ag44
ag44
ag44
asg45
(lp2902
g48
ag99
ag53
ag106
ag54
ag48
ag99
ag47
ag242
ag98
ag54
ag53
ag54
ag165
ag53
ag54
ag242
ag50
ag54
ag53
ag106
ag54
ag55
asg56
VIt's at this point he flashes back to his experience in space where in order to save everyone on the spaceship.
p2903
sba(i__main__
Sentence
p2904
(dp2905
g17
I11
sg18
(lp2906
S'He'
p2907
aS'climbed'
p2908
aS'about'
p2909
aS'the'
p2910
aS'ship'
p2911
aS'to'
p2912
aS'replace'
p2913
aS'an'
p2914
aS'essential'
p2915
aS'antennae'
p2916
aS'but'
p2917
aS'in'
p2918
aS'doing'
p2919
aS'so'
p2920
aS','
p2921
aS'found'
p2922
aS'his'
p2923
aS'ability'
p2924
aS'to'
p2925
aS'get'
p2926
aS'back'
p2927
aS'into'
p2928
aS'the'
p2929
aS'ship'
p2930
aS'impossible'
p2931
aS'.'
p2932
asg30
(lp2933
VHe
p2934
aVclimb
p2935
aVabout
p2936
aVthe
p2937
aVship
p2938
aVto
p2939
aVreplace
p2940
aVan
p2941
aVessential
p2942
aVantenna
p2943
aVbut
p2944
aVin
p2945
aVdoing
p2946
aVso
p2947
ag86
ag1807
aVhis
p2948
aVability
p2949
aVto
p2950
aVget
p2951
aVback
p2952
aVinto
p2953
aVthe
p2954
aVship
p2955
aVimpossible
p2956
ag41
asg42
(lp2957
g44
ag44
ag44
ag44
ag44
ag44
ag44
ag44
ag44
ag44
ag44
ag44
ag44
ag44
ag44
ag44
ag44
ag44
ag44
ag44
ag44
ag44
ag44
ag44
ag44
ag44
asg45
(lp2958
g48
ag207
ag53
ag106
ag54
ag242
ag50
ag106
ag102
ag54
ag100
ag53
ag54
ag53
ag103
ag51
ag98
ag54
ag242
ag50
ag47
ag53
ag106
ag54
ag102
ag55
asg56
VHe climbed about the ship to replace an essential antennae but in doing so, found his ability to get back into the ship impossible.
p2959
sba(i__main__
Sentence
p2960
(dp2961
g17
I12
sg18
(lp2962
S'He'
p2963
aS'clung'
p2964
aS'to'
p2965
aS'ship'
p2966
aS'for'
p2967
aS'as'
p2968
aS'long'
p2969
aS'as'
p2970
aS'he'
p2971
aS'could'
p2972
aS'before'
p2973
aS'losing'
p2974
aS'his'
p2975
aS'grip'
p2976
aS'.'
p2977
asg30
(lp2978
VHe
p2979
aVcling
p2980
aVto
p2981
aVship
p2982
aVfor
p2983
ag441
aVlong
p2984
ag441
aVhe
p2985
aVcould
p2986
aVbefore
p2987
aVlose
p2988
aVhis
p2989
aVgrip
p2990
ag41
asg42
(lp2991
g44
ag44
ag44
ag44
ag44
ag44
ag44
ag44
ag44
ag44
ag44
ag44
ag44
ag44
ag44
asg45
(lp2992
g48
ag207
ag242
ag50
ag53
ag53
ag47
ag53
ag48
ag49
ag50
ag107
ag98
ag54
ag55
asg56
VHe clung to ship for as long as he could before losing his grip.
p2993
sba(i__main__
Sentence
p2994
(dp2995
g17
I13
sg18
(lp2996
S'When'
p2997
aS'he'
p2998
aS'awakes'
p2999
aS','
p3000
aS'he'
p3001
aS'is'
p3002
aS'on'
p3003
aS'a'
p3004
aS'different'
p3005
aS'ship'
p3006
aS'that'
p3007
aS'happened'
p3008
aS'to'
p3009
aS'be'
p3010
aS'near'
p3011
aS'by'
p3012
aS'and'
p3013
aS'could'
p3014
aS'pick'
p3015
aS'him'
p3016
aS'up'
p3017
aS'.'
p3018
asg30
(lp3019
VWhen
p3020
aVhe
p3021
aVawake
p3022
ag86
aVhe
p3023
ag446
aVon
p3024
ag441
aVdifferent
p3025
aVship
p3026
aVthat
p3027
aVhappen
p3028
aVto
p3029
aVbe
p3030
aVnear
p3031
aVby
p3032
aVand
p3033
aVcould
p3034
aVpick
p3035
aVhim
p3036
aVup
p3037
ag41
asg42
(lp3038
g44
ag44
ag44
ag44
ag44
ag44
ag44
ag44
ag44
ag44
ag44
ag44
ag44
ag44
ag44
ag44
ag44
ag44
ag44
ag44
ag44
ag44
asg45
(lp3039
g165
ag48
ag99
ag103
ag48
ag99
ag53
ag106
ag102
ag54
ag1456
ag207
ag242
ag50
ag53
ag53
ag100
ag49
ag50
ag48
ag52
ag55
asg56
VWhen he awakes, he is on a different ship that happened to be near by and could pick him up.
p3040
sba(i__main__
Sentence
p3041
(dp3042
g17
I14
sg18
(lp3043
S'After'
p3044
aS'reliving'
p3045
aS'this'
p3046
aS'flashback'
p3047
aS','
p3048
aS'William'
p3049
aS'finds'
p3050
aS'the'
p3051
aS'courage'
p3052
aS'to'
p3053
aS'go'
p3054
aS'outside'
p3055
aS'and'
p3056
aS'get'
p3057
aS'the'
p3058
aS'kitty'
p3059
aS'and'
p3060
aS'bring'
p3061
aS'it'
p3062
aS'in'
p3063
aS'.'
p3064
asg30
(lp3065
VAfter
p3066
aVrelive
p3067
aVthis
p3068
aVflashback
p3069
ag86
aVWilliam
p3070
aVfind
p3071
aVthe
p3072
aVcourage
p3073
aVto
p3074
aVgo
p3075
aVoutside
p3076
aVand
p3077
aVget
p3078
aVthe
p3079
aVkitty
p3080
aVand
p3081
aVbring
p3082
aVit
p3083
aVin
p3084
ag41
asg42
(lp3085
g44
ag44
ag44
ag44
ag44
aVPERSON
p3086
ag44
ag44
ag44
ag44
ag44
ag44
ag44
ag44
ag44
ag44
ag44
ag44
ag44
ag44
ag44
asg45
(lp3087
g53
ag107
ag106
ag54
ag103
ag164
ag104
ag106
ag54
ag242
ag50
ag53
ag100
ag50
ag106
ag54
ag100
ag107
ag48
ag53
ag55
asg56
VAfter reliving this flashback, William finds the courage to go outside and get the kitty and bring it in.
p3088
sba(i__main__
Sentence
p3089
(dp3090
g17
I15
sg18
(lp3091
S'Upon'
p3092
aS'coming'
p3093
aS'back'
p3094
aS'in'
p3095
aS','
p3096
aS'he'
p3097
aS'begins'
p3098
aS'to'
p3099
aS'reconsider'
p3100
aS'his'
p3101
aS'choices'
p3102
aS'and'
p3103
aS'wonders'
p3104
aS'if'
p3105
aS'going'
p3106
aS'outside'
p3107
aS'is'
p3108
aS'all'
p3109
aS'that'
p3110
aS'bad'
p3111
aS'after'
p3112
aS'all'
p3113
aS'.'
p3114
asg30
(lp3115
VUpon
p3116
aVcome
p3117
aVback
p3118
aVin
p3119
ag86
aVhe
p3120
aVbegin
p3121
aVto
p3122
aVreconsider
p3123
aVhis
p3124
aVchoice
p3125
aVand
p3126
aVwonder
p3127
aVif
p3128
aVgo
p3129
aVoutside
p3130
ag446
aVall
p3131
aVthat
p3132
aVbad
p3133
aVafter
p3134
aVall
p3135
ag41
asg42
(lp3136
g44
ag44
ag44
ag44
ag44
ag44
ag44
ag44
ag44
ag44
ag44
ag44
ag44
ag44
ag44
ag44
ag44
ag44
ag44
ag44
ag44
ag44
ag44
asg45
(lp3137
g164
ag107
ag47
ag53
ag103
ag48
ag99
ag242
ag957
ag98
ag104
ag100
ag104
ag53
ag107
ag53
ag99
ag106
ag106
ag102
ag53
ag106
ag55
asg56
VUpon coming back in, he begins to reconsider his choices and wonders if going outside is all that bad after all. 
p3138
sbasbsS'name'
p3139
S'Ordeal in Space'
p3140
sS'summaries'
p3141
(lp3142
g2367
asb.