ccopy_reg
_reconstructor
p0
(c__main__
Story
p1
c__builtin__
object
p2
Ntp3
Rp4
(dp5
S'text'
p6
g0
(c__main__
Document
p7
g2
Ntp8
Rp9
(dp10
S'_Document__initialContent'
p11
S"The mother of Hans said, whither away, Hans.  Hans answered, to\nGretel.  Behave well, Hans.  Oh, I'll behave well.  Good-bye,\nmother.  Good-bye, Hans.  Hans comes to Gretel.  Good day, Gretel.\nGood day, Hans.  What do you bring that is good.  I bring nothing,\nI want to have something given me.  Gretel presents Hans with a\nneedle.  Hans says, good-bye, Gretel.  Good-bye, Hans.\nHans takes the needle, sticks it into a hay-cart, and follows the\ncart home.  Good evening, mother.  Good evening, Hans.  Where have\nyou been.  With Gretel.  What did you take her.  Took her nothing,\nhad something given me.  What did Gretel give you.  Gave me a\nneedle.  Where is the needle, Hans.  Stuck it in the hay-cart.\nThat was ill done, Hans.  You should have stuck the needle in\nyour sleeve.  Never mind, I'll do better next time.\n\nWhither away, Hans.  To Gretel, mother.  Behave well, Hans.\nOh, I'll behave well.  Good-bye, mother.  Good-bye, Hans.  Hans\ncomes to Gretel.  Good day, Gretel.  Good day, Hans.  What do you\nbring that is good.  I bring nothing, I want to have something\ngiven to me.  Gretel presents Hans with a knife.  Good-bye, Gretel.\nGood-bye Hans.  Hans takes the knife, sticks it in his sleeve, and\ngoes home.  Good evening, mother.  Good evening, Hans.  Where\nhave you been.  With Gretel.  What did you take her.  Took her\nnothing, she gave me something.  What did Gretel give you.  Gave\nme a knife.  Where is the knife, Hans.  Stuck in my sleeve.\nThat's ill done, Hans, you should have put the knife in your\npocket.  Never mind, will do better next time.\n\nWhither away, Hans.  To Gretel, mother.  Behave well, Hans.\nOh, I'll behave well.  Good-bye, mother.  Good-bye, Hans.  Hans\ncomes to Gretel.  Good day, Gretel.  Good day, Hans.  What good\nthing do you bring.  I bring nothing, I want something given me.\nGretel presents Hans with a young goat.  Good-bye, Gretel.\nGood-bye, Hans.  Hans takes the goat, ties its legs, and puts it\nin his pocket.  When he gets home it is suffocated.  Good evening,\nmother.  Good evening, Hans.  Where have you been.  With Gretel.\nWhat did you take her.  Took nothing, she gave me something.  What\ndid Gretel give you.  She gave me a goat.  Where is the goat, Hans.\nPut it in my pocket.  That was ill done, Hans, you should have\nput a rope round the goat's neck.  Never mind, will do better next\ntime.\n\nWhither away, Hans,  to Gretel, mother.  Behave well, Hans.\nOh, I'll behave well good-bye, mother.  Good-bye, Hans.  Hans\ncomes to Gretel.  Good day, Gretel.  Good day, Hans.  What good\nthing do you bring.  I bring nothing, I want something given to\nme.  Gretel presents Hans with a piece of bacon.  Good-bye,\nGretel.  Good-bye, Hans.\nHans takes the bacon, ties it to a rope, and drags it away\nbehind him.  The dogs come and devour the bacon.  When he gets\nhome, he has the rope in his hand, and there is no longer\nanything hanging to it.  Good evening, mother.  Good evening,\nHans.  Where have you been.  With Gretel.  What did you take\nher.  I took her nothing, she gave me something.  What did\nGretel give you.\nGave me a bit of bacon.  Where is the bacon, Hans.  I tied it to\na rope, brought it home, dogs took it.  That was ill done, Hans,\nyou should have carried the bacon on your head.  Never mind, will\ndo better next time.\n\nWhither away, Hans.  To Gretel, mother.  Behave well, Hans.\nI'll behave well.  Good-bye, mother.  Good-bye, Hans.  Hans\ncomes to Gretel.  Good day, Gretel.  Good day, Hans.  What good\nthing do you bring.  I bring nothing, but would have something\ngiven.  Gretel presents Hans with a calf.  Good-bye, Gretel.\nGood-bye, Hans.\nHans takes the calf, puts it on his head, and the calf kicks his\nface.  Good evening, mother.  Good evening, Hans.  Where have you\nbeen.  With Gretel.  What did you take her.  I took nothing, but\nhad something given me.  What did Gretel give you.  A calf.\nWhere have you the calf, Hans.  I set it on my head and it\nkicked my face.  That was ill done, Hans, you should have led\nthe calf, and put it in the stall.  Never mind, will do better\nnext time.\n\nWhither away, Hans.  To Gretel, mother.  Behave well, Hans.\nI'll behave well.  Good-bye, mother.  Good-bye, Hans.\nHans comes to Gretel.  Good day, Gretel.  Good day, Hans.  What\ngood thing do you bring.  I bring nothing, but would have\nsomething given.  Gretel says to Hans, I will go with you.\nHans takes Gretel, ties her to a rope, leads her to the rack and\nbinds her fast.  Then Hans goes to his mother.  Good evening,\nmother.  Good evening, Hans.  Where have you been.  With Gretel.\nWhat did you take her.  I took her nothing.  What did Gretel\ngive you.  She gave me nothing, she came with me.  Where have\nyou left Gretel.  I led her by the rope, tied her to the rack,\nand scattered some grass for her.  That was ill done, Hans, you\nshould have cast friendly eyes on her.  Never mind, will do better.\n\nHans went into the stable, cut out all the calves, and sheep's eyes,\nand threw them in Gretel's face.  Then Gretel became angry, tore\nherself loose and ran away, and was no longer the bride of Hans.\n"
p12
sS'sentences'
p13
(lp14
(i__main__
Sentence
p15
(dp16
S'index'
p17
I0
sS'words'
p18
(lp19
S'The'
p20
aS'mother'
p21
aS'of'
p22
aS'Hans'
p23
aS'said'
p24
aS','
p25
aS'whither'
p26
aS'away'
p27
aS','
p28
aS'Hans'
p29
aS'.'
p30
asS'lemmas'
p31
(lp32
VThe
p33
aVmother
p34
aVof
p35
aVHans
p36
aVsay
p37
aV,
p38
aVwhither
p39
aVaway
p40
ag38
aVHans
p41
aV.
p42
asS'nerTags'
p43
(lp44
VO
p45
ag45
ag45
aVPERSON
p46
ag45
ag45
ag45
ag45
ag45
aVPERSON
p47
ag45
asS'posTags'
p48
(lp49
S'DT'
p50
aS'NN'
p51
aS'IN'
p52
aS'NNP'
p53
aS'VBD'
p54
aS','
p55
ag51
aS'RB'
p56
ag55
ag53
aS'.'
p57
asS'_Sentence__initialContent'
p58
VThe mother of Hans said, whither away, Hans.
p59
sba(i__main__
Sentence
p60
(dp61
g17
I1
sg18
(lp62
S'Hans'
p63
aS'answered'
p64
aS','
p65
aS'to'
p66
aS'Gretel'
p67
aS'.'
p68
asg31
(lp69
VHans
p70
aVanswer
p71
ag38
aVto
p72
aVGretel
p73
ag42
asg43
(lp74
VPERSON
p75
ag45
ag45
ag45
aVPERSON
p76
ag45
asg48
(lp77
S'NNS'
p78
ag54
ag55
aS'TO'
p79
ag53
ag57
asg58
VHans answered, to Gretel.
p80
sba(i__main__
Sentence
p81
(dp82
g17
I2
sg18
(lp83
S'Behave'
p84
aS'well'
p85
aS','
p86
aS'Hans'
p87
aS'.'
p88
asg31
(lp89
VBehave
p90
aVwell
p91
ag38
aVHans
p92
ag42
asg43
(lp93
g45
ag45
ag45
aVPERSON
p94
ag45
asg48
(lp95
g53
ag56
ag55
ag53
ag57
asg58
VBehave well, Hans.
p96
sba(i__main__
Sentence
p97
(dp98
g17
I3
sg18
(lp99
S'Oh'
p100
aS','
p101
aS'I'
p102
aS"'ll"
p103
aS'behave'
p104
aS'well'
p105
aS'.'
p106
asg31
(lp107
VOh
p108
ag38
aVI
p109
aV'll
p110
aVbehave
p111
aVwell
p112
ag42
asg43
(lp113
g45
ag45
ag45
ag45
ag45
ag45
ag45
asg48
(lp114
S'UH'
p115
ag55
aS'PRP'
p116
aS'MD'
p117
aS'VB'
p118
ag56
ag57
asg58
VOh, I'll behave well.
p119
sba(i__main__
Sentence
p120
(dp121
g17
I4
sg18
(lp122
S'Good-bye'
p123
aS','
p124
aS'mother'
p125
aS'.'
p126
asg31
(lp127
VGood-bye
p128
ag38
aVmother
p129
ag42
asg43
(lp130
g45
ag45
ag45
ag45
asg48
(lp131
S'JJ'
p132
ag55
ag51
ag57
asg58
VGood-bye, mother.
p133
sba(i__main__
Sentence
p134
(dp135
g17
I5
sg18
(lp136
S'Good-bye'
p137
aS','
p138
aS'Hans'
p139
aS'.'
p140
asg31
(lp141
VGood-bye
p142
ag38
aVHans
p143
ag42
asg43
(lp144
g45
ag45
aVPERSON
p145
ag45
asg48
(lp146
g132
ag55
ag53
ag57
asg58
VGood-bye, Hans.
p147
sba(i__main__
Sentence
p148
(dp149
g17
I6
sg18
(lp150
S'Hans'
p151
aS'comes'
p152
aS'to'
p153
aS'Gretel'
p154
aS'.'
p155
asg31
(lp156
VHans
p157
aVcome
p158
aVto
p159
aVGretel
p160
ag42
asg43
(lp161
VPERSON
p162
ag45
ag45
aVPERSON
p163
ag45
asg48
(lp164
g78
aS'VBZ'
p165
ag79
ag53
ag57
asg58
VHans comes to Gretel.
p166
sba(i__main__
Sentence
p167
(dp168
g17
I7
sg18
(lp169
S'Good'
p170
aS'day'
p171
aS','
p172
aS'Gretel'
p173
aS'.'
p174
asg31
(lp175
VGood
p176
aVday
p177
ag38
aVGretel
p178
ag42
asg43
(lp179
g45
ag45
ag45
aVPERSON
p180
ag45
asg48
(lp181
g53
ag51
ag55
ag53
ag57
asg58
VGood day, Gretel.
p182
sba(i__main__
Sentence
p183
(dp184
g17
I8
sg18
(lp185
S'Good'
p186
aS'day'
p187
aS','
p188
aS'Hans'
p189
aS'.'
p190
asg31
(lp191
VGood
p192
aVday
p193
ag38
aVHans
p194
ag42
asg43
(lp195
g45
ag45
ag45
aVPERSON
p196
ag45
asg48
(lp197
g53
ag51
ag55
ag53
ag57
asg58
VGood day, Hans.
p198
sba(i__main__
Sentence
p199
(dp200
g17
I9
sg18
(lp201
S'What'
p202
aS'do'
p203
aS'you'
p204
aS'bring'
p205
aS'that'
p206
aS'is'
p207
aS'good'
p208
aS'.'
p209
asg31
(lp210
VWhat
p211
aVdo
p212
aVyou
p213
aVbring
p214
aVthat
p215
aVbe
p216
aVgood
p217
ag42
asg43
(lp218
g45
ag45
ag45
ag45
ag45
ag45
ag45
ag45
asg48
(lp219
S'WP'
p220
aS'VBP'
p221
ag116
aS'VBG'
p222
ag52
ag165
ag132
ag57
asg58
VWhat do you bring that is good.
p223
sba(i__main__
Sentence
p224
(dp225
g17
I10
sg18
(lp226
S'I'
p227
aS'bring'
p228
aS'nothing'
p229
aS','
p230
aS'I'
p231
aS'want'
p232
aS'to'
p233
aS'have'
p234
aS'something'
p235
aS'given'
p236
aS'me'
p237
aS'.'
p238
asg31
(lp239
g109
aVbring
p240
aVnothing
p241
ag38
ag109
aVwant
p242
aVto
p243
aVhave
p244
aVsomething
p245
aVgive
p246
aVme
p247
ag42
asg43
(lp248
g45
ag45
ag45
ag45
ag45
ag45
ag45
ag45
ag45
ag45
ag45
ag45
asg48
(lp249
g116
ag221
ag51
ag55
ag116
ag221
ag79
ag118
ag51
aS'VBN'
p250
ag116
ag57
asg58
VI bring nothing, I want to have something given me.
p251
sba(i__main__
Sentence
p252
(dp253
g17
I11
sg18
(lp254
S'Gretel'
p255
aS'presents'
p256
aS'Hans'
p257
aS'with'
p258
aS'a'
p259
aS'needle'
p260
aS'.'
p261
asg31
(lp262
VGretel
p263
aVpresent
p264
aVHans
p265
aVwith
p266
aVa
p267
aVneedle
p268
ag42
asg43
(lp269
VPERSON
p270
ag45
aVPERSON
p271
ag45
ag45
ag45
ag45
asg48
(lp272
g53
ag78
aS'NNPS'
p273
ag52
ag50
ag51
ag57
asg58
VGretel presents Hans with a needle.
p274
sba(i__main__
Sentence
p275
(dp276
g17
I12
sg18
(lp277
S'Hans'
p278
aS'says'
p279
aS','
p280
aS'good-bye'
p281
aS','
p282
aS'Gretel'
p283
aS'.'
p284
asg31
(lp285
VHans
p286
aVsay
p287
ag38
aVgood-bye
p288
ag38
aVGretel
p289
ag42
asg43
(lp290
VPERSON
p291
ag45
ag45
ag45
ag45
aVPERSON
p292
ag45
asg48
(lp293
g78
ag165
ag55
ag132
ag55
ag53
ag57
asg58
VHans says, good-bye, Gretel.
p294
sba(i__main__
Sentence
p295
(dp296
g17
I13
sg18
(lp297
S'Good-bye'
p298
aS','
p299
aS'Hans'
p300
aS'.'
p301
asg31
(lp302
VGood-bye
p303
ag38
aVHans
p304
ag42
asg43
(lp305
g45
ag45
aVPERSON
p306
ag45
asg48
(lp307
g132
ag55
ag53
ag57
asg58
VGood-bye, Hans.
p308
sba(i__main__
Sentence
p309
(dp310
g17
I14
sg18
(lp311
S'Hans'
p312
aS'takes'
p313
aS'the'
p314
aS'needle'
p315
aS','
p316
aS'sticks'
p317
aS'it'
p318
aS'into'
p319
aS'a'
p320
aS'hay-cart'
p321
aS','
p322
aS'and'
p323
aS'follows'
p324
aS'the'
p325
aS'cart'
p326
aS'home'
p327
aS'.'
p328
asg31
(lp329
VHans
p330
aVtake
p331
aVthe
p332
aVneedle
p333
ag38
aVstick
p334
aVit
p335
aVinto
p336
ag267
aVhay-cart
p337
ag38
aVand
p338
aVfollow
p339
aVthe
p340
aVcart
p341
aVhome
p342
ag42
asg43
(lp343
VPERSON
p344
ag45
ag45
ag45
ag45
ag45
ag45
ag45
ag45
ag45
ag45
ag45
ag45
ag45
ag45
ag45
ag45
asg48
(lp345
g78
ag165
ag50
ag51
ag55
ag78
ag116
ag52
ag50
ag132
ag55
aS'CC'
p346
ag165
ag50
ag51
ag51
ag57
asg58
VHans takes the needle, sticks it into a hay-cart, and follows the cart home.
p347
sba(i__main__
Sentence
p348
(dp349
g17
I15
sg18
(lp350
S'Good'
p351
aS'evening'
p352
aS','
p353
aS'mother'
p354
aS'.'
p355
asg31
(lp356
VGood
p357
aVevening
p358
ag38
aVmother
p359
ag42
asg43
(lp360
g45
ag45
ag45
ag45
ag45
asg48
(lp361
g53
ag51
ag55
ag51
ag57
asg58
VGood evening, mother.
p362
sba(i__main__
Sentence
p363
(dp364
g17
I16
sg18
(lp365
S'Good'
p366
aS'evening'
p367
aS','
p368
aS'Hans'
p369
aS'.'
p370
asg31
(lp371
VGood
p372
aVevening
p373
ag38
aVHans
p374
ag42
asg43
(lp375
g45
ag45
ag45
aVPERSON
p376
ag45
asg48
(lp377
g53
ag51
ag55
ag53
ag57
asg58
VGood evening, Hans.
p378
sba(i__main__
Sentence
p379
(dp380
g17
I17
sg18
(lp381
S'Where'
p382
aS'have'
p383
aS'you'
p384
aS'been'
p385
aS'.'
p386
asg31
(lp387
VWhere
p388
aVhave
p389
aVyou
p390
aVbe
p391
ag42
asg43
(lp392
g45
ag45
ag45
ag45
ag45
asg48
(lp393
S'WRB'
p394
ag221
ag116
ag250
ag57
asg58
VWhere have you been.
p395
sba(i__main__
Sentence
p396
(dp397
g17
I18
sg18
(lp398
S'With'
p399
aS'Gretel'
p400
aS'.'
p401
asg31
(lp402
VWith
p403
aVGretel
p404
ag42
asg43
(lp405
g45
aVPERSON
p406
ag45
asg48
(lp407
g52
ag53
ag57
asg58
VWith Gretel.
p408
sba(i__main__
Sentence
p409
(dp410
g17
I19
sg18
(lp411
S'What'
p412
aS'did'
p413
aS'you'
p414
aS'take'
p415
aS'her'
p416
aS'.'
p417
asg31
(lp418
VWhat
p419
aVdo
p420
aVyou
p421
aVtake
p422
aVher
p423
ag42
asg43
(lp424
g45
ag45
ag45
ag45
ag45
ag45
asg48
(lp425
g220
ag54
ag116
ag118
aS'PRP$'
p426
ag57
asg58
VWhat did you take her.
p427
sba(i__main__
Sentence
p428
(dp429
g17
I20
sg18
(lp430
S'Took'
p431
aS'her'
p432
aS'nothing'
p433
aS','
p434
aS'had'
p435
aS'something'
p436
aS'given'
p437
aS'me'
p438
aS'.'
p439
asg31
(lp440
VTook
p441
aVher
p442
aVnothing
p443
ag38
aVhave
p444
aVsomething
p445
ag246
aVme
p446
ag42
asg43
(lp447
g45
ag45
ag45
ag45
ag45
ag45
ag45
ag45
ag45
asg48
(lp448
g53
ag426
ag51
ag55
ag54
ag51
ag250
ag116
ag57
asg58
VTook her nothing, had something given me.
p449
sba(i__main__
Sentence
p450
(dp451
g17
I21
sg18
(lp452
S'What'
p453
aS'did'
p454
aS'Gretel'
p455
aS'give'
p456
aS'you'
p457
aS'.'
p458
asg31
(lp459
VWhat
p460
ag420
aVGretel
p461
aVgive
p462
aVyou
p463
ag42
asg43
(lp464
g45
ag45
aVPERSON
p465
ag45
ag45
ag45
asg48
(lp466
g220
ag54
ag53
ag118
ag116
ag57
asg58
VWhat did Gretel give you.
p467
sba(i__main__
Sentence
p468
(dp469
g17
I22
sg18
(lp470
S'Gave'
p471
aS'me'
p472
aS'a'
p473
aS'needle'
p474
aS'.'
p475
asg31
(lp476
VGave
p477
aVme
p478
ag267
aVneedle
p479
ag42
asg43
(lp480
g45
ag45
ag45
ag45
ag45
asg48
(lp481
g53
ag116
ag50
ag51
ag57
asg58
VGave me a needle.
p482
sba(i__main__
Sentence
p483
(dp484
g17
I23
sg18
(lp485
S'Where'
p486
aS'is'
p487
aS'the'
p488
aS'needle'
p489
aS','
p490
aS'Hans'
p491
aS'.'
p492
asg31
(lp493
VWhere
p494
ag216
aVthe
p495
aVneedle
p496
ag38
aVHans
p497
ag42
asg43
(lp498
g45
ag45
ag45
ag45
ag45
aVPERSON
p499
ag45
asg48
(lp500
g394
ag165
ag50
ag51
ag55
ag53
ag57
asg58
VWhere is the needle, Hans.
p501
sba(i__main__
Sentence
p502
(dp503
g17
I24
sg18
(lp504
S'Stuck'
p505
aS'it'
p506
aS'in'
p507
aS'the'
p508
aS'hay-cart'
p509
aS'.'
p510
asg31
(lp511
VStuck
p512
aVit
p513
aVin
p514
aVthe
p515
aVhay-cart
p516
ag42
asg43
(lp517
g45
ag45
ag45
ag45
ag45
ag45
asg48
(lp518
g53
ag116
ag52
ag50
ag51
ag57
asg58
VStuck it in the hay-cart.
p519
sba(i__main__
Sentence
p520
(dp521
g17
I25
sg18
(lp522
S'That'
p523
aS'was'
p524
aS'ill'
p525
aS'done'
p526
aS','
p527
aS'Hans'
p528
aS'.'
p529
asg31
(lp530
VThat
p531
aVbe
p532
aVill
p533
aVdone
p534
ag38
aVHans
p535
ag42
asg43
(lp536
g45
ag45
ag45
ag45
ag45
aVPERSON
p537
ag45
asg48
(lp538
g50
ag54
ag132
ag51
ag55
ag53
ag57
asg58
VThat was ill done, Hans.
p539
sba(i__main__
Sentence
p540
(dp541
g17
I26
sg18
(lp542
S'You'
p543
aS'should'
p544
aS'have'
p545
aS'stuck'
p546
aS'the'
p547
aS'needle'
p548
aS'in'
p549
aS'your'
p550
aS'sleeve'
p551
aS'.'
p552
asg31
(lp553
VYou
p554
aVshould
p555
aVhave
p556
aVstuck
p557
aVthe
p558
aVneedle
p559
aVin
p560
aVyour
p561
aVsleeve
p562
ag42
asg43
(lp563
g45
ag45
ag45
ag45
ag45
ag45
ag45
ag45
ag45
ag45
asg48
(lp564
g116
ag117
ag118
ag51
ag50
ag51
ag52
ag426
ag51
ag57
asg58
VYou should have stuck the needle in your sleeve.
p565
sba(i__main__
Sentence
p566
(dp567
g17
I27
sg18
(lp568
S'Never'
p569
aS'mind'
p570
aS','
p571
aS'I'
p572
aS"'ll"
p573
aS'do'
p574
aS'better'
p575
aS'next'
p576
aS'time'
p577
aS'.'
p578
asg31
(lp579
VNever
p580
aVmind
p581
ag38
ag109
aV'll
p582
aVdo
p583
aVwell
p584
aVnext
p585
aVtime
p586
ag42
asg43
(lp587
g45
ag45
ag45
ag45
ag45
ag45
ag45
ag45
ag45
ag45
asg48
(lp588
g56
ag54
ag55
ag116
ag117
ag118
aS'RBR'
p589
ag132
ag51
ag57
asg58
VNever mind, I'll do better next time.
p590
sba(i__main__
Sentence
p591
(dp592
g17
I28
sg18
(lp593
S'Whither'
p594
aS'away'
p595
aS','
p596
aS'Hans'
p597
aS'.'
p598
asg31
(lp599
VWhither
p600
aVaway
p601
ag38
aVHans
p602
ag42
asg43
(lp603
g45
ag45
ag45
aVPERSON
p604
ag45
asg48
(lp605
g53
ag56
ag55
ag53
ag57
asg58
VWhither away, Hans.
p606
sba(i__main__
Sentence
p607
(dp608
g17
I29
sg18
(lp609
S'To'
p610
aS'Gretel'
p611
aS','
p612
aS'mother'
p613
aS'.'
p614
asg31
(lp615
VTo
p616
aVGretel
p617
ag38
aVmother
p618
ag42
asg43
(lp619
g45
aVPERSON
p620
ag45
ag45
ag45
asg48
(lp621
g79
ag53
ag55
ag51
ag57
asg58
VTo Gretel, mother.
p622
sba(i__main__
Sentence
p623
(dp624
g17
I30
sg18
(lp625
S'Behave'
p626
aS'well'
p627
aS','
p628
aS'Hans'
p629
aS'.'
p630
asg31
(lp631
VBehave
p632
aVwell
p633
ag38
aVHans
p634
ag42
asg43
(lp635
g45
ag45
ag45
aVPERSON
p636
ag45
asg48
(lp637
g53
ag56
ag55
ag53
ag57
asg58
VBehave well, Hans.
p638
sba(i__main__
Sentence
p639
(dp640
g17
I31
sg18
(lp641
S'Oh'
p642
aS','
p643
aS'I'
p644
aS"'ll"
p645
aS'behave'
p646
aS'well'
p647
aS'.'
p648
asg31
(lp649
VOh
p650
ag38
ag109
aV'll
p651
aVbehave
p652
aVwell
p653
ag42
asg43
(lp654
g45
ag45
ag45
ag45
ag45
ag45
ag45
asg48
(lp655
g115
ag55
ag116
ag117
ag118
ag56
ag57
asg58
VOh, I'll behave well.
p656
sba(i__main__
Sentence
p657
(dp658
g17
I32
sg18
(lp659
S'Good-bye'
p660
aS','
p661
aS'mother'
p662
aS'.'
p663
asg31
(lp664
VGood-bye
p665
ag38
aVmother
p666
ag42
asg43
(lp667
g45
ag45
ag45
ag45
asg48
(lp668
g132
ag55
ag51
ag57
asg58
VGood-bye, mother.
p669
sba(i__main__
Sentence
p670
(dp671
g17
I33
sg18
(lp672
S'Good-bye'
p673
aS','
p674
aS'Hans'
p675
aS'.'
p676
asg31
(lp677
VGood-bye
p678
ag38
aVHans
p679
ag42
asg43
(lp680
g45
ag45
aVPERSON
p681
ag45
asg48
(lp682
g132
ag55
ag53
ag57
asg58
VGood-bye, Hans.
p683
sba(i__main__
Sentence
p684
(dp685
g17
I34
sg18
(lp686
S'Hans'
p687
aS'comes'
p688
aS'to'
p689
aS'Gretel'
p690
aS'.'
p691
asg31
(lp692
VHans
p693
aVcome
p694
aVto
p695
aVGretel
p696
ag42
asg43
(lp697
VPERSON
p698
ag45
ag45
aVPERSON
p699
ag45
asg48
(lp700
g78
ag165
ag79
ag53
ag57
asg58
VHans comes to Gretel.
p701
sba(i__main__
Sentence
p702
(dp703
g17
I35
sg18
(lp704
S'Good'
p705
aS'day'
p706
aS','
p707
aS'Gretel'
p708
aS'.'
p709
asg31
(lp710
VGood
p711
aVday
p712
ag38
aVGretel
p713
ag42
asg43
(lp714
g45
ag45
ag45
aVPERSON
p715
ag45
asg48
(lp716
g53
ag51
ag55
ag53
ag57
asg58
VGood day, Gretel.
p717
sba(i__main__
Sentence
p718
(dp719
g17
I36
sg18
(lp720
S'Good'
p721
aS'day'
p722
aS','
p723
aS'Hans'
p724
aS'.'
p725
asg31
(lp726
VGood
p727
aVday
p728
ag38
aVHans
p729
ag42
asg43
(lp730
g45
ag45
ag45
aVPERSON
p731
ag45
asg48
(lp732
g53
ag51
ag55
ag53
ag57
asg58
VGood day, Hans.
p733
sba(i__main__
Sentence
p734
(dp735
g17
I37
sg18
(lp736
S'What'
p737
aS'do'
p738
aS'you'
p739
aS'bring'
p740
aS'that'
p741
aS'is'
p742
aS'good'
p743
aS'.'
p744
asg31
(lp745
VWhat
p746
aVdo
p747
aVyou
p748
aVbring
p749
aVthat
p750
ag216
aVgood
p751
ag42
asg43
(lp752
g45
ag45
ag45
ag45
ag45
ag45
ag45
ag45
asg48
(lp753
g220
ag221
ag116
ag222
ag52
ag165
ag132
ag57
asg58
VWhat do you bring that is good.
p754
sba(i__main__
Sentence
p755
(dp756
g17
I38
sg18
(lp757
S'I'
p758
aS'bring'
p759
aS'nothing'
p760
aS','
p761
aS'I'
p762
aS'want'
p763
aS'to'
p764
aS'have'
p765
aS'something'
p766
aS'given'
p767
aS'to'
p768
aS'me'
p769
aS'.'
p770
asg31
(lp771
g109
aVbring
p772
aVnothing
p773
ag38
ag109
aVwant
p774
aVto
p775
aVhave
p776
aVsomething
p777
ag246
aVto
p778
aVme
p779
ag42
asg43
(lp780
g45
ag45
ag45
ag45
ag45
ag45
ag45
ag45
ag45
ag45
ag45
ag45
ag45
asg48
(lp781
g116
ag221
ag51
ag55
ag116
ag221
ag79
ag118
ag51
ag250
ag79
ag116
ag57
asg58
VI bring nothing, I want to have something given to me.
p782
sba(i__main__
Sentence
p783
(dp784
g17
I39
sg18
(lp785
S'Gretel'
p786
aS'presents'
p787
aS'Hans'
p788
aS'with'
p789
aS'a'
p790
aS'knife'
p791
aS'.'
p792
asg31
(lp793
VGretel
p794
aVpresent
p795
aVHans
p796
aVwith
p797
ag267
aVknife
p798
ag42
asg43
(lp799
VPERSON
p800
ag45
aVPERSON
p801
ag45
ag45
ag45
ag45
asg48
(lp802
g53
ag78
ag273
ag52
ag50
ag51
ag57
asg58
VGretel presents Hans with a knife.
p803
sba(i__main__
Sentence
p804
(dp805
g17
I40
sg18
(lp806
S'Good-bye'
p807
aS','
p808
aS'Gretel'
p809
aS'.'
p810
asg31
(lp811
VGood-bye
p812
ag38
aVGretel
p813
ag42
asg43
(lp814
g45
ag45
aVPERSON
p815
ag45
asg48
(lp816
g132
ag55
ag53
ag57
asg58
VGood-bye, Gretel.
p817
sba(i__main__
Sentence
p818
(dp819
g17
I41
sg18
(lp820
S'Good-bye'
p821
aS'Hans'
p822
aS'.'
p823
asg31
(lp824
VGood-bye
p825
aVHans
p826
ag42
asg43
(lp827
g45
aVPERSON
p828
ag45
asg48
(lp829
g132
ag78
ag57
asg58
VGood-bye Hans.
p830
sba(i__main__
Sentence
p831
(dp832
g17
I42
sg18
(lp833
S'Hans'
p834
aS'takes'
p835
aS'the'
p836
aS'knife'
p837
aS','
p838
aS'sticks'
p839
aS'it'
p840
aS'in'
p841
aS'his'
p842
aS'sleeve'
p843
aS','
p844
aS'and'
p845
aS'goes'
p846
aS'home'
p847
aS'.'
p848
asg31
(lp849
VHans
p850
aVtake
p851
aVthe
p852
aVknife
p853
ag38
aVstick
p854
aVit
p855
aVin
p856
aVhis
p857
aVsleeve
p858
ag38
aVand
p859
aVgo
p860
aVhome
p861
ag42
asg43
(lp862
VPERSON
p863
ag45
ag45
ag45
ag45
ag45
ag45
ag45
ag45
ag45
ag45
ag45
ag45
ag45
ag45
asg48
(lp864
g78
ag165
ag50
ag51
ag55
ag78
ag116
ag52
ag426
ag51
ag55
ag346
ag165
ag51
ag57
asg58
VHans takes the knife, sticks it in his sleeve, and goes home.
p865
sba(i__main__
Sentence
p866
(dp867
g17
I43
sg18
(lp868
S'Good'
p869
aS'evening'
p870
aS','
p871
aS'mother'
p872
aS'.'
p873
asg31
(lp874
VGood
p875
aVevening
p876
ag38
aVmother
p877
ag42
asg43
(lp878
g45
ag45
ag45
ag45
ag45
asg48
(lp879
g53
ag51
ag55
ag51
ag57
asg58
VGood evening, mother.
p880
sba(i__main__
Sentence
p881
(dp882
g17
I44
sg18
(lp883
S'Good'
p884
aS'evening'
p885
aS','
p886
aS'Hans'
p887
aS'.'
p888
asg31
(lp889
VGood
p890
aVevening
p891
ag38
aVHans
p892
ag42
asg43
(lp893
g45
ag45
ag45
aVPERSON
p894
ag45
asg48
(lp895
g53
ag51
ag55
ag53
ag57
asg58
VGood evening, Hans.
p896
sba(i__main__
Sentence
p897
(dp898
g17
I45
sg18
(lp899
S'Where'
p900
aS'have'
p901
aS'you'
p902
aS'been'
p903
aS'.'
p904
asg31
(lp905
VWhere
p906
aVhave
p907
aVyou
p908
ag391
ag42
asg43
(lp909
g45
ag45
ag45
ag45
ag45
asg48
(lp910
g394
ag221
ag116
ag250
ag57
asg58
VWhere have you been.
p911
sba(i__main__
Sentence
p912
(dp913
g17
I46
sg18
(lp914
S'With'
p915
aS'Gretel'
p916
aS'.'
p917
asg31
(lp918
VWith
p919
aVGretel
p920
ag42
asg43
(lp921
g45
aVPERSON
p922
ag45
asg48
(lp923
g52
ag53
ag57
asg58
VWith Gretel.
p924
sba(i__main__
Sentence
p925
(dp926
g17
I47
sg18
(lp927
S'What'
p928
aS'did'
p929
aS'you'
p930
aS'take'
p931
aS'her'
p932
aS'.'
p933
asg31
(lp934
VWhat
p935
ag420
aVyou
p936
aVtake
p937
aVher
p938
ag42
asg43
(lp939
g45
ag45
ag45
ag45
ag45
ag45
asg48
(lp940
g220
ag54
ag116
ag118
ag426
ag57
asg58
VWhat did you take her.
p941
sba(i__main__
Sentence
p942
(dp943
g17
I48
sg18
(lp944
S'Took'
p945
aS'her'
p946
aS'nothing'
p947
aS','
p948
aS'she'
p949
aS'gave'
p950
aS'me'
p951
aS'something'
p952
aS'.'
p953
asg31
(lp954
VTook
p955
aVher
p956
aVnothing
p957
ag38
aVshe
p958
aVgive
p959
aVme
p960
aVsomething
p961
ag42
asg43
(lp962
g45
ag45
ag45
ag45
ag45
ag45
ag45
ag45
ag45
asg48
(lp963
g53
ag426
ag51
ag55
ag116
ag54
ag116
ag51
ag57
asg58
VTook her nothing, she gave me something.
p964
sba(i__main__
Sentence
p965
(dp966
g17
I49
sg18
(lp967
S'What'
p968
aS'did'
p969
aS'Gretel'
p970
aS'give'
p971
aS'you'
p972
aS'.'
p973
asg31
(lp974
VWhat
p975
ag420
aVGretel
p976
aVgive
p977
aVyou
p978
ag42
asg43
(lp979
g45
ag45
aVPERSON
p980
ag45
ag45
ag45
asg48
(lp981
g220
ag54
ag53
ag118
ag116
ag57
asg58
VWhat did Gretel give you.
p982
sba(i__main__
Sentence
p983
(dp984
g17
I50
sg18
(lp985
S'Gave'
p986
aS'me'
p987
aS'a'
p988
aS'knife'
p989
aS'.'
p990
asg31
(lp991
VGave
p992
aVme
p993
ag267
aVknife
p994
ag42
asg43
(lp995
g45
ag45
ag45
ag45
ag45
asg48
(lp996
g53
ag116
ag50
ag51
ag57
asg58
VGave me a knife.
p997
sba(i__main__
Sentence
p998
(dp999
g17
I51
sg18
(lp1000
S'Where'
p1001
aS'is'
p1002
aS'the'
p1003
aS'knife'
p1004
aS','
p1005
aS'Hans'
p1006
aS'.'
p1007
asg31
(lp1008
VWhere
p1009
ag216
aVthe
p1010
aVknife
p1011
ag38
aVHans
p1012
ag42
asg43
(lp1013
g45
ag45
ag45
ag45
ag45
aVPERSON
p1014
ag45
asg48
(lp1015
g394
ag165
ag50
ag51
ag55
ag53
ag57
asg58
VWhere is the knife, Hans.
p1016
sba(i__main__
Sentence
p1017
(dp1018
g17
I52
sg18
(lp1019
S'Stuck'
p1020
aS'in'
p1021
aS'my'
p1022
aS'sleeve'
p1023
aS'.'
p1024
asg31
(lp1025
VStuck
p1026
aVin
p1027
aVmy
p1028
aVsleeve
p1029
ag42
asg43
(lp1030
g45
ag45
ag45
ag45
ag45
asg48
(lp1031
g53
ag52
ag426
ag51
ag57
asg58
VStuck in my sleeve.
p1032
sba(i__main__
Sentence
p1033
(dp1034
g17
I53
sg18
(lp1035
S'That'
p1036
aS"'s"
p1037
aS'ill'
p1038
aS'done'
p1039
aS','
p1040
aS'Hans'
p1041
aS','
p1042
aS'you'
p1043
aS'should'
p1044
aS'have'
p1045
aS'put'
p1046
aS'the'
p1047
aS'knife'
p1048
aS'in'
p1049
aS'your'
p1050
aS'pocket'
p1051
aS'.'
p1052
asg31
(lp1053
VThat
p1054
aV's
p1055
aVill
p1056
aVdone
p1057
ag38
aVHans
p1058
ag38
aVyou
p1059
aVshould
p1060
aVhave
p1061
aVput
p1062
aVthe
p1063
aVknife
p1064
aVin
p1065
aVyour
p1066
aVpocket
p1067
ag42
asg43
(lp1068
g45
ag45
ag45
ag45
ag45
aVPERSON
p1069
ag45
ag45
ag45
ag45
ag45
ag45
ag45
ag45
ag45
ag45
ag45
asg48
(lp1070
g50
ag165
ag132
ag51
ag55
ag53
ag55
ag116
ag117
ag118
ag250
ag50
ag51
ag52
ag426
ag51
ag57
asg58
VThat's ill done, Hans, you should have put the knife in your pocket.
p1071
sba(i__main__
Sentence
p1072
(dp1073
g17
I54
sg18
(lp1074
S'Never'
p1075
aS'mind'
p1076
aS','
p1077
aS'will'
p1078
aS'do'
p1079
aS'better'
p1080
aS'next'
p1081
aS'time'
p1082
aS'.'
p1083
asg31
(lp1084
VNever
p1085
aVmind
p1086
ag38
aVwill
p1087
aVdo
p1088
aVgood
p1089
aVnext
p1090
aVtime
p1091
ag42
asg43
(lp1092
g45
ag45
ag45
ag45
ag45
ag45
ag45
ag45
ag45
asg48
(lp1093
g56
ag54
ag55
ag117
ag118
aS'JJR'
p1094
ag132
ag51
ag57
asg58
VNever mind, will do better next time.
p1095
sba(i__main__
Sentence
p1096
(dp1097
g17
I55
sg18
(lp1098
S'Whither'
p1099
aS'away'
p1100
aS','
p1101
aS'Hans'
p1102
aS'.'
p1103
asg31
(lp1104
VWhither
p1105
aVaway
p1106
ag38
aVHans
p1107
ag42
asg43
(lp1108
g45
ag45
ag45
aVPERSON
p1109
ag45
asg48
(lp1110
g53
ag56
ag55
ag53
ag57
asg58
VWhither away, Hans.
p1111
sba(i__main__
Sentence
p1112
(dp1113
g17
I56
sg18
(lp1114
S'To'
p1115
aS'Gretel'
p1116
aS','
p1117
aS'mother'
p1118
aS'.'
p1119
asg31
(lp1120
VTo
p1121
aVGretel
p1122
ag38
aVmother
p1123
ag42
asg43
(lp1124
g45
aVPERSON
p1125
ag45
ag45
ag45
asg48
(lp1126
g79
ag53
ag55
ag51
ag57
asg58
VTo Gretel, mother.
p1127
sba(i__main__
Sentence
p1128
(dp1129
g17
I57
sg18
(lp1130
S'Behave'
p1131
aS'well'
p1132
aS','
p1133
aS'Hans'
p1134
aS'.'
p1135
asg31
(lp1136
VBehave
p1137
aVwell
p1138
ag38
aVHans
p1139
ag42
asg43
(lp1140
g45
ag45
ag45
aVPERSON
p1141
ag45
asg48
(lp1142
g53
ag56
ag55
ag53
ag57
asg58
VBehave well, Hans.
p1143
sba(i__main__
Sentence
p1144
(dp1145
g17
I58
sg18
(lp1146
S'Oh'
p1147
aS','
p1148
aS'I'
p1149
aS"'ll"
p1150
aS'behave'
p1151
aS'well'
p1152
aS'.'
p1153
asg31
(lp1154
VOh
p1155
ag38
ag109
aV'll
p1156
aVbehave
p1157
aVwell
p1158
ag42
asg43
(lp1159
g45
ag45
ag45
ag45
ag45
ag45
ag45
asg48
(lp1160
g115
ag55
ag116
ag117
ag118
ag56
ag57
asg58
VOh, I'll behave well.
p1161
sba(i__main__
Sentence
p1162
(dp1163
g17
I59
sg18
(lp1164
S'Good-bye'
p1165
aS','
p1166
aS'mother'
p1167
aS'.'
p1168
asg31
(lp1169
VGood-bye
p1170
ag38
aVmother
p1171
ag42
asg43
(lp1172
g45
ag45
ag45
ag45
asg48
(lp1173
g132
ag55
ag51
ag57
asg58
VGood-bye, mother.
p1174
sba(i__main__
Sentence
p1175
(dp1176
g17
I60
sg18
(lp1177
S'Good-bye'
p1178
aS','
p1179
aS'Hans'
p1180
aS'.'
p1181
asg31
(lp1182
VGood-bye
p1183
ag38
aVHans
p1184
ag42
asg43
(lp1185
g45
ag45
aVPERSON
p1186
ag45
asg48
(lp1187
g132
ag55
ag53
ag57
asg58
VGood-bye, Hans.
p1188
sba(i__main__
Sentence
p1189
(dp1190
g17
I61
sg18
(lp1191
S'Hans'
p1192
aS'comes'
p1193
aS'to'
p1194
aS'Gretel'
p1195
aS'.'
p1196
asg31
(lp1197
VHans
p1198
aVcome
p1199
aVto
p1200
aVGretel
p1201
ag42
asg43
(lp1202
VPERSON
p1203
ag45
ag45
aVPERSON
p1204
ag45
asg48
(lp1205
g78
ag165
ag79
ag53
ag57
asg58
VHans comes to Gretel.
p1206
sba(i__main__
Sentence
p1207
(dp1208
g17
I62
sg18
(lp1209
S'Good'
p1210
aS'day'
p1211
aS','
p1212
aS'Gretel'
p1213
aS'.'
p1214
asg31
(lp1215
VGood
p1216
aVday
p1217
ag38
aVGretel
p1218
ag42
asg43
(lp1219
g45
ag45
ag45
aVPERSON
p1220
ag45
asg48
(lp1221
g53
ag51
ag55
ag53
ag57
asg58
VGood day, Gretel.
p1222
sba(i__main__
Sentence
p1223
(dp1224
g17
I63
sg18
(lp1225
S'Good'
p1226
aS'day'
p1227
aS','
p1228
aS'Hans'
p1229
aS'.'
p1230
asg31
(lp1231
VGood
p1232
aVday
p1233
ag38
aVHans
p1234
ag42
asg43
(lp1235
g45
ag45
ag45
aVPERSON
p1236
ag45
asg48
(lp1237
g53
ag51
ag55
ag53
ag57
asg58
VGood day, Hans.
p1238
sba(i__main__
Sentence
p1239
(dp1240
g17
I64
sg18
(lp1241
S'What'
p1242
aS'good'
p1243
aS'thing'
p1244
aS'do'
p1245
aS'you'
p1246
aS'bring'
p1247
aS'.'
p1248
asg31
(lp1249
VWhat
p1250
aVgood
p1251
aVthing
p1252
aVdo
p1253
aVyou
p1254
aVbring
p1255
ag42
asg43
(lp1256
g45
ag45
ag45
ag45
ag45
ag45
ag45
asg48
(lp1257
g220
ag132
ag51
ag221
ag116
ag222
ag57
asg58
VWhat good thing do you bring.
p1258
sba(i__main__
Sentence
p1259
(dp1260
g17
I65
sg18
(lp1261
S'I'
p1262
aS'bring'
p1263
aS'nothing'
p1264
aS','
p1265
aS'I'
p1266
aS'want'
p1267
aS'something'
p1268
aS'given'
p1269
aS'me'
p1270
aS'.'
p1271
asg31
(lp1272
g109
aVbring
p1273
aVnothing
p1274
ag38
ag109
aVwant
p1275
aVsomething
p1276
ag246
aVme
p1277
ag42
asg43
(lp1278
g45
ag45
ag45
ag45
ag45
ag45
ag45
ag45
ag45
ag45
asg48
(lp1279
g116
ag221
ag51
ag55
ag116
ag221
ag51
ag250
ag116
ag57
asg58
VI bring nothing, I want something given me.
p1280
sba(i__main__
Sentence
p1281
(dp1282
g17
I66
sg18
(lp1283
S'Gretel'
p1284
aS'presents'
p1285
aS'Hans'
p1286
aS'with'
p1287
aS'a'
p1288
aS'young'
p1289
aS'goat'
p1290
aS'.'
p1291
asg31
(lp1292
VGretel
p1293
aVpresent
p1294
aVHans
p1295
aVwith
p1296
ag267
aVyoung
p1297
aVgoat
p1298
ag42
asg43
(lp1299
VPERSON
p1300
ag45
aVPERSON
p1301
ag45
ag45
ag45
ag45
ag45
asg48
(lp1302
g53
ag78
ag273
ag52
ag50
ag132
ag51
ag57
asg58
VGretel presents Hans with a young goat.
p1303
sba(i__main__
Sentence
p1304
(dp1305
g17
I67
sg18
(lp1306
S'Good-bye'
p1307
aS','
p1308
aS'Gretel'
p1309
aS'.'
p1310
asg31
(lp1311
VGood-bye
p1312
ag38
aVGretel
p1313
ag42
asg43
(lp1314
g45
ag45
aVPERSON
p1315
ag45
asg48
(lp1316
g132
ag55
ag53
ag57
asg58
VGood-bye, Gretel.
p1317
sba(i__main__
Sentence
p1318
(dp1319
g17
I68
sg18
(lp1320
S'Good-bye'
p1321
aS','
p1322
aS'Hans'
p1323
aS'.'
p1324
asg31
(lp1325
VGood-bye
p1326
ag38
aVHans
p1327
ag42
asg43
(lp1328
g45
ag45
aVPERSON
p1329
ag45
asg48
(lp1330
g132
ag55
ag53
ag57
asg58
VGood-bye, Hans.
p1331
sba(i__main__
Sentence
p1332
(dp1333
g17
I69
sg18
(lp1334
S'Hans'
p1335
aS'takes'
p1336
aS'the'
p1337
aS'goat'
p1338
aS','
p1339
aS'ties'
p1340
aS'its'
p1341
aS'legs'
p1342
aS','
p1343
aS'and'
p1344
aS'puts'
p1345
aS'it'
p1346
aS'in'
p1347
aS'his'
p1348
aS'pocket'
p1349
aS'.'
p1350
asg31
(lp1351
VHans
p1352
aVtake
p1353
aVthe
p1354
aVgoat
p1355
ag38
aVtie
p1356
aVit
p1357
aVleg
p1358
ag38
aVand
p1359
aVput
p1360
aVit
p1361
aVin
p1362
aVhis
p1363
aVpocket
p1364
ag42
asg43
(lp1365
VPERSON
p1366
ag45
ag45
ag45
ag45
ag45
ag45
ag45
ag45
ag45
ag45
ag45
ag45
ag45
ag45
ag45
asg48
(lp1367
g78
ag165
ag50
ag51
ag55
ag78
ag426
ag78
ag55
ag346
ag78
ag116
ag52
ag426
ag51
ag57
asg58
VHans takes the goat, ties its legs, and puts it in his pocket.
p1368
sba(i__main__
Sentence
p1369
(dp1370
g17
I70
sg18
(lp1371
S'When'
p1372
aS'he'
p1373
aS'gets'
p1374
aS'home'
p1375
aS'it'
p1376
aS'is'
p1377
aS'suffocated'
p1378
aS'.'
p1379
asg31
(lp1380
VWhen
p1381
aVhe
p1382
aVget
p1383
aVhome
p1384
aVit
p1385
ag216
aVsuffocate
p1386
ag42
asg43
(lp1387
g45
ag45
ag45
ag45
ag45
ag45
ag45
ag45
asg48
(lp1388
g394
ag116
ag165
ag51
ag116
ag165
ag250
ag57
asg58
VWhen he gets home it is suffocated.
p1389
sba(i__main__
Sentence
p1390
(dp1391
g17
I71
sg18
(lp1392
S'Good'
p1393
aS'evening'
p1394
aS','
p1395
aS'mother'
p1396
aS'.'
p1397
asg31
(lp1398
VGood
p1399
aVevening
p1400
ag38
aVmother
p1401
ag42
asg43
(lp1402
g45
ag45
ag45
ag45
ag45
asg48
(lp1403
g53
ag51
ag55
ag51
ag57
asg58
VGood evening, mother.
p1404
sba(i__main__
Sentence
p1405
(dp1406
g17
I72
sg18
(lp1407
S'Good'
p1408
aS'evening'
p1409
aS','
p1410
aS'Hans'
p1411
aS'.'
p1412
asg31
(lp1413
VGood
p1414
aVevening
p1415
ag38
aVHans
p1416
ag42
asg43
(lp1417
g45
ag45
ag45
aVPERSON
p1418
ag45
asg48
(lp1419
g53
ag51
ag55
ag53
ag57
asg58
VGood evening, Hans.
p1420
sba(i__main__
Sentence
p1421
(dp1422
g17
I73
sg18
(lp1423
S'Where'
p1424
aS'have'
p1425
aS'you'
p1426
aS'been'
p1427
aS'.'
p1428
asg31
(lp1429
VWhere
p1430
aVhave
p1431
aVyou
p1432
ag391
ag42
asg43
(lp1433
g45
ag45
ag45
ag45
ag45
asg48
(lp1434
g394
ag221
ag116
ag250
ag57
asg58
VWhere have you been.
p1435
sba(i__main__
Sentence
p1436
(dp1437
g17
I74
sg18
(lp1438
S'With'
p1439
aS'Gretel'
p1440
aS'.'
p1441
asg31
(lp1442
VWith
p1443
aVGretel
p1444
ag42
asg43
(lp1445
g45
aVPERSON
p1446
ag45
asg48
(lp1447
g52
ag53
ag57
asg58
VWith Gretel.
p1448
sba(i__main__
Sentence
p1449
(dp1450
g17
I75
sg18
(lp1451
S'What'
p1452
aS'did'
p1453
aS'you'
p1454
aS'take'
p1455
aS'her'
p1456
aS'.'
p1457
asg31
(lp1458
VWhat
p1459
ag420
aVyou
p1460
aVtake
p1461
aVher
p1462
ag42
asg43
(lp1463
g45
ag45
ag45
ag45
ag45
ag45
asg48
(lp1464
g220
ag54
ag116
ag118
ag426
ag57
asg58
VWhat did you take her.
p1465
sba(i__main__
Sentence
p1466
(dp1467
g17
I76
sg18
(lp1468
S'Took'
p1469
aS'nothing'
p1470
aS','
p1471
aS'she'
p1472
aS'gave'
p1473
aS'me'
p1474
aS'something'
p1475
aS'.'
p1476
asg31
(lp1477
VTook
p1478
aVnothing
p1479
ag38
aVshe
p1480
ag959
aVme
p1481
aVsomething
p1482
ag42
asg43
(lp1483
g45
ag45
ag45
ag45
ag45
ag45
ag45
ag45
asg48
(lp1484
g53
ag51
ag55
ag116
ag54
ag116
ag51
ag57
asg58
VTook nothing, she gave me something.
p1485
sba(i__main__
Sentence
p1486
(dp1487
g17
I77
sg18
(lp1488
S'What'
p1489
aS'did'
p1490
aS'Gretel'
p1491
aS'give'
p1492
aS'you'
p1493
aS'.'
p1494
asg31
(lp1495
VWhat
p1496
ag420
aVGretel
p1497
aVgive
p1498
aVyou
p1499
ag42
asg43
(lp1500
g45
ag45
aVPERSON
p1501
ag45
ag45
ag45
asg48
(lp1502
g220
ag54
ag53
ag118
ag116
ag57
asg58
VWhat did Gretel give you.
p1503
sba(i__main__
Sentence
p1504
(dp1505
g17
I78
sg18
(lp1506
S'She'
p1507
aS'gave'
p1508
aS'me'
p1509
aS'a'
p1510
aS'goat'
p1511
aS'.'
p1512
asg31
(lp1513
VShe
p1514
ag959
aVme
p1515
ag267
aVgoat
p1516
ag42
asg43
(lp1517
g45
ag45
ag45
ag45
ag45
ag45
asg48
(lp1518
g116
ag54
ag116
ag50
ag132
ag57
asg58
VShe gave me a goat.
p1519
sba(i__main__
Sentence
p1520
(dp1521
g17
I79
sg18
(lp1522
S'Where'
p1523
aS'is'
p1524
aS'the'
p1525
aS'goat'
p1526
aS','
p1527
aS'Hans'
p1528
aS'.'
p1529
asg31
(lp1530
VWhere
p1531
ag216
aVthe
p1532
aVgoat
p1533
ag38
aVHans
p1534
ag42
asg43
(lp1535
g45
ag45
ag45
ag45
ag45
aVPERSON
p1536
ag45
asg48
(lp1537
g394
ag165
ag50
ag132
ag55
ag53
ag57
asg58
VWhere is the goat, Hans.
p1538
sba(i__main__
Sentence
p1539
(dp1540
g17
I80
sg18
(lp1541
S'Put'
p1542
aS'it'
p1543
aS'in'
p1544
aS'my'
p1545
aS'pocket'
p1546
aS'.'
p1547
asg31
(lp1548
VPut
p1549
aVit
p1550
aVin
p1551
aVmy
p1552
aVpocket
p1553
ag42
asg43
(lp1554
g45
ag45
ag45
ag45
ag45
ag45
asg48
(lp1555
g118
ag116
ag52
ag426
ag51
ag57
asg58
VPut it in my pocket.
p1556
sba(i__main__
Sentence
p1557
(dp1558
g17
I81
sg18
(lp1559
S'That'
p1560
aS'was'
p1561
aS'ill'
p1562
aS'done'
p1563
aS','
p1564
aS'Hans'
p1565
aS','
p1566
aS'you'
p1567
aS'should'
p1568
aS'have'
p1569
aS'put'
p1570
aS'a'
p1571
aS'rope'
p1572
aS'round'
p1573
aS'the'
p1574
aS'goat'
p1575
aS"'s"
p1576
aS'neck'
p1577
aS'.'
p1578
asg31
(lp1579
VThat
p1580
ag532
aVill
p1581
aVdone
p1582
ag38
aVHans
p1583
ag38
aVyou
p1584
aVshould
p1585
aVhave
p1586
aVput
p1587
ag267
aVrope
p1588
aVround
p1589
aVthe
p1590
aVgoat
p1591
aV's
p1592
aVneck
p1593
ag42
asg43
(lp1594
g45
ag45
ag45
ag45
ag45
aVPERSON
p1595
ag45
ag45
ag45
ag45
ag45
ag45
ag45
ag45
ag45
ag45
ag45
ag45
ag45
asg48
(lp1596
g50
ag54
ag132
ag51
ag55
ag53
ag55
ag116
ag117
ag118
ag250
ag50
ag51
ag51
ag50
ag51
aS'POS'
p1597
ag51
ag57
asg58
VThat was ill done, Hans, you should have put a rope round the goat's neck.
p1598
sba(i__main__
Sentence
p1599
(dp1600
g17
I82
sg18
(lp1601
S'Never'
p1602
aS'mind'
p1603
aS','
p1604
aS'will'
p1605
aS'do'
p1606
aS'better'
p1607
aS'next'
p1608
aS'time'
p1609
aS'.'
p1610
asg31
(lp1611
VNever
p1612
aVmind
p1613
ag38
aVwill
p1614
aVdo
p1615
ag1089
aVnext
p1616
aVtime
p1617
ag42
asg43
(lp1618
g45
ag45
ag45
ag45
ag45
ag45
ag45
ag45
ag45
asg48
(lp1619
g56
ag54
ag55
ag117
ag118
ag1094
ag132
ag51
ag57
asg58
VNever mind, will do better next time.
p1620
sba(i__main__
Sentence
p1621
(dp1622
g17
I83
sg18
(lp1623
S'Whither'
p1624
aS'away'
p1625
aS','
p1626
aS'Hans'
p1627
aS','
p1628
aS'to'
p1629
aS'Gretel'
p1630
aS','
p1631
aS'mother'
p1632
aS'.'
p1633
asg31
(lp1634
VWhither
p1635
aVaway
p1636
ag38
aVHans
p1637
ag38
aVto
p1638
aVGretel
p1639
ag38
aVmother
p1640
ag42
asg43
(lp1641
g45
ag45
ag45
aVPERSON
p1642
ag45
ag45
aVPERSON
p1643
ag45
ag45
ag45
asg48
(lp1644
g53
ag56
ag55
ag53
ag55
ag79
ag53
ag55
ag51
ag57
asg58
VWhither away, Hans,  to Gretel, mother.
p1645
sba(i__main__
Sentence
p1646
(dp1647
g17
I84
sg18
(lp1648
S'Behave'
p1649
aS'well'
p1650
aS','
p1651
aS'Hans'
p1652
aS'.'
p1653
asg31
(lp1654
VBehave
p1655
aVwell
p1656
ag38
aVHans
p1657
ag42
asg43
(lp1658
g45
ag45
ag45
aVPERSON
p1659
ag45
asg48
(lp1660
g53
ag56
ag55
ag53
ag57
asg58
VBehave well, Hans.
p1661
sba(i__main__
Sentence
p1662
(dp1663
g17
I85
sg18
(lp1664
S'Oh'
p1665
aS','
p1666
aS'I'
p1667
aS"'ll"
p1668
aS'behave'
p1669
aS'well'
p1670
aS'good-bye'
p1671
aS','
p1672
aS'mother'
p1673
aS'.'
p1674
asg31
(lp1675
VOh
p1676
ag38
ag109
aV'll
p1677
aVbehave
p1678
aVwell
p1679
aVgood-bye
p1680
ag38
aVmother
p1681
ag42
asg43
(lp1682
g45
ag45
ag45
ag45
ag45
ag45
ag45
ag45
ag45
ag45
asg48
(lp1683
g115
ag55
ag116
ag117
ag118
ag56
ag132
ag55
ag51
ag57
asg58
VOh, I'll behave well good-bye, mother.
p1684
sba(i__main__
Sentence
p1685
(dp1686
g17
I86
sg18
(lp1687
S'Good-bye'
p1688
aS','
p1689
aS'Hans'
p1690
aS'.'
p1691
asg31
(lp1692
VGood-bye
p1693
ag38
aVHans
p1694
ag42
asg43
(lp1695
g45
ag45
aVPERSON
p1696
ag45
asg48
(lp1697
g132
ag55
ag53
ag57
asg58
VGood-bye, Hans.
p1698
sba(i__main__
Sentence
p1699
(dp1700
g17
I87
sg18
(lp1701
S'Hans'
p1702
aS'comes'
p1703
aS'to'
p1704
aS'Gretel'
p1705
aS'.'
p1706
asg31
(lp1707
VHans
p1708
aVcome
p1709
aVto
p1710
aVGretel
p1711
ag42
asg43
(lp1712
VPERSON
p1713
ag45
ag45
aVPERSON
p1714
ag45
asg48
(lp1715
g78
ag165
ag79
ag53
ag57
asg58
VHans comes to Gretel.
p1716
sba(i__main__
Sentence
p1717
(dp1718
g17
I88
sg18
(lp1719
S'Good'
p1720
aS'day'
p1721
aS','
p1722
aS'Gretel'
p1723
aS'.'
p1724
asg31
(lp1725
VGood
p1726
aVday
p1727
ag38
aVGretel
p1728
ag42
asg43
(lp1729
g45
ag45
ag45
aVPERSON
p1730
ag45
asg48
(lp1731
g53
ag51
ag55
ag53
ag57
asg58
VGood day, Gretel.
p1732
sba(i__main__
Sentence
p1733
(dp1734
g17
I89
sg18
(lp1735
S'Good'
p1736
aS'day'
p1737
aS','
p1738
aS'Hans'
p1739
aS'.'
p1740
asg31
(lp1741
VGood
p1742
aVday
p1743
ag38
aVHans
p1744
ag42
asg43
(lp1745
g45
ag45
ag45
aVPERSON
p1746
ag45
asg48
(lp1747
g53
ag51
ag55
ag53
ag57
asg58
VGood day, Hans.
p1748
sba(i__main__
Sentence
p1749
(dp1750
g17
I90
sg18
(lp1751
S'What'
p1752
aS'good'
p1753
aS'thing'
p1754
aS'do'
p1755
aS'you'
p1756
aS'bring'
p1757
aS'.'
p1758
asg31
(lp1759
VWhat
p1760
aVgood
p1761
aVthing
p1762
aVdo
p1763
aVyou
p1764
aVbring
p1765
ag42
asg43
(lp1766
g45
ag45
ag45
ag45
ag45
ag45
ag45
asg48
(lp1767
g220
ag132
ag51
ag221
ag116
ag222
ag57
asg58
VWhat good thing do you bring.
p1768
sba(i__main__
Sentence
p1769
(dp1770
g17
I91
sg18
(lp1771
S'I'
p1772
aS'bring'
p1773
aS'nothing'
p1774
aS','
p1775
aS'I'
p1776
aS'want'
p1777
aS'something'
p1778
aS'given'
p1779
aS'to'
p1780
aS'me'
p1781
aS'.'
p1782
asg31
(lp1783
g109
aVbring
p1784
aVnothing
p1785
ag38
ag109
aVwant
p1786
aVsomething
p1787
ag246
aVto
p1788
aVme
p1789
ag42
asg43
(lp1790
g45
ag45
ag45
ag45
ag45
ag45
ag45
ag45
ag45
ag45
ag45
asg48
(lp1791
g116
ag221
ag51
ag55
ag116
ag221
ag51
ag250
ag79
ag116
ag57
asg58
VI bring nothing, I want something given to me.
p1792
sba(i__main__
Sentence
p1793
(dp1794
g17
I92
sg18
(lp1795
S'Gretel'
p1796
aS'presents'
p1797
aS'Hans'
p1798
aS'with'
p1799
aS'a'
p1800
aS'piece'
p1801
aS'of'
p1802
aS'bacon'
p1803
aS'.'
p1804
asg31
(lp1805
VGretel
p1806
aVpresent
p1807
aVHans
p1808
aVwith
p1809
ag267
aVpiece
p1810
aVof
p1811
aVbacon
p1812
ag42
asg43
(lp1813
VPERSON
p1814
ag45
aVPERSON
p1815
ag45
ag45
ag45
ag45
ag45
ag45
asg48
(lp1816
g53
ag78
ag273
ag52
ag50
ag51
ag52
ag51
ag57
asg58
VGretel presents Hans with a piece of bacon.
p1817
sba(i__main__
Sentence
p1818
(dp1819
g17
I93
sg18
(lp1820
S'Good-bye'
p1821
aS','
p1822
aS'Gretel'
p1823
aS'.'
p1824
asg31
(lp1825
VGood-bye
p1826
ag38
aVGretel
p1827
ag42
asg43
(lp1828
g45
ag45
aVPERSON
p1829
ag45
asg48
(lp1830
g132
ag55
ag53
ag57
asg58
VGood-bye, Gretel.
p1831
sba(i__main__
Sentence
p1832
(dp1833
g17
I94
sg18
(lp1834
S'Good-bye'
p1835
aS','
p1836
aS'Hans'
p1837
aS'.'
p1838
asg31
(lp1839
VGood-bye
p1840
ag38
aVHans
p1841
ag42
asg43
(lp1842
g45
ag45
aVPERSON
p1843
ag45
asg48
(lp1844
g132
ag55
ag53
ag57
asg58
VGood-bye, Hans.
p1845
sba(i__main__
Sentence
p1846
(dp1847
g17
I95
sg18
(lp1848
S'Hans'
p1849
aS'takes'
p1850
aS'the'
p1851
aS'bacon'
p1852
aS','
p1853
aS'ties'
p1854
aS'it'
p1855
aS'to'
p1856
aS'a'
p1857
aS'rope'
p1858
aS','
p1859
aS'and'
p1860
aS'drags'
p1861
aS'it'
p1862
aS'away'
p1863
aS'behind'
p1864
aS'him'
p1865
aS'.'
p1866
asg31
(lp1867
VHans
p1868
aVtake
p1869
aVthe
p1870
aVbacon
p1871
ag38
aVtie
p1872
aVit
p1873
aVto
p1874
ag267
aVrope
p1875
ag38
aVand
p1876
aVdrag
p1877
aVit
p1878
aVaway
p1879
aVbehind
p1880
aVhim
p1881
ag42
asg43
(lp1882
VPERSON
p1883
ag45
ag45
ag45
ag45
ag45
ag45
ag45
ag45
ag45
ag45
ag45
ag45
ag45
ag45
ag45
ag45
ag45
asg48
(lp1884
g78
ag165
ag50
ag51
ag55
ag78
ag116
ag79
ag50
ag51
ag55
ag346
ag78
ag116
ag56
ag52
ag116
ag57
asg58
VHans takes the bacon, ties it to a rope, and drags it away behind him.
p1885
sba(i__main__
Sentence
p1886
(dp1887
g17
I96
sg18
(lp1888
S'The'
p1889
aS'dogs'
p1890
aS'come'
p1891
aS'and'
p1892
aS'devour'
p1893
aS'the'
p1894
aS'bacon'
p1895
aS'.'
p1896
asg31
(lp1897
VThe
p1898
aVdog
p1899
aVcome
p1900
aVand
p1901
aVdevour
p1902
aVthe
p1903
aVbacon
p1904
ag42
asg43
(lp1905
g45
ag45
ag45
ag45
ag45
ag45
ag45
ag45
asg48
(lp1906
g50
ag78
ag221
ag346
ag426
ag50
ag51
ag57
asg58
VThe dogs come and devour the bacon.
p1907
sba(i__main__
Sentence
p1908
(dp1909
g17
I97
sg18
(lp1910
S'When'
p1911
aS'he'
p1912
aS'gets'
p1913
aS'home'
p1914
aS','
p1915
aS'he'
p1916
aS'has'
p1917
aS'the'
p1918
aS'rope'
p1919
aS'in'
p1920
aS'his'
p1921
aS'hand'
p1922
aS','
p1923
aS'and'
p1924
aS'there'
p1925
aS'is'
p1926
aS'no'
p1927
aS'longer'
p1928
aS'anything'
p1929
aS'hanging'
p1930
aS'to'
p1931
aS'it'
p1932
aS'.'
p1933
asg31
(lp1934
VWhen
p1935
aVhe
p1936
aVget
p1937
aVhome
p1938
ag38
aVhe
p1939
aVhave
p1940
aVthe
p1941
aVrope
p1942
aVin
p1943
aVhis
p1944
aVhand
p1945
ag38
aVand
p1946
aVthere
p1947
ag216
aVno
p1948
aVlonger
p1949
aVanything
p1950
aVhang
p1951
aVto
p1952
aVit
p1953
ag42
asg43
(lp1954
g45
ag45
ag45
ag45
ag45
ag45
ag45
ag45
ag45
ag45
ag45
ag45
ag45
ag45
ag45
ag45
ag45
ag45
ag45
ag45
ag45
ag45
ag45
asg48
(lp1955
g394
ag116
ag165
ag51
ag55
ag116
ag165
ag50
ag51
ag52
ag426
ag51
ag55
ag346
aS'EX'
p1956
ag165
ag50
ag51
ag51
ag222
ag79
ag116
ag57
asg58
VWhen he gets home, he has the rope in his hand, and there is no longer anything hanging to it.
p1957
sba(i__main__
Sentence
p1958
(dp1959
g17
I98
sg18
(lp1960
S'Good'
p1961
aS'evening'
p1962
aS','
p1963
aS'mother'
p1964
aS'.'
p1965
asg31
(lp1966
VGood
p1967
aVevening
p1968
ag38
aVmother
p1969
ag42
asg43
(lp1970
g45
ag45
ag45
ag45
ag45
asg48
(lp1971
g53
ag51
ag55
ag51
ag57
asg58
VGood evening, mother.
p1972
sba(i__main__
Sentence
p1973
(dp1974
g17
I99
sg18
(lp1975
S'Good'
p1976
aS'evening'
p1977
aS','
p1978
aS'Hans'
p1979
aS'.'
p1980
asg31
(lp1981
VGood
p1982
aVevening
p1983
ag38
aVHans
p1984
ag42
asg43
(lp1985
g45
ag45
ag45
aVPERSON
p1986
ag45
asg48
(lp1987
g53
ag51
ag55
ag53
ag57
asg58
VGood evening, Hans.
p1988
sba(i__main__
Sentence
p1989
(dp1990
g17
I100
sg18
(lp1991
S'Where'
p1992
aS'have'
p1993
aS'you'
p1994
aS'been'
p1995
aS'.'
p1996
asg31
(lp1997
VWhere
p1998
aVhave
p1999
aVyou
p2000
ag391
ag42
asg43
(lp2001
g45
ag45
ag45
ag45
ag45
asg48
(lp2002
g394
ag221
ag116
ag250
ag57
asg58
VWhere have you been.
p2003
sba(i__main__
Sentence
p2004
(dp2005
g17
I101
sg18
(lp2006
S'With'
p2007
aS'Gretel'
p2008
aS'.'
p2009
asg31
(lp2010
VWith
p2011
aVGretel
p2012
ag42
asg43
(lp2013
g45
aVPERSON
p2014
ag45
asg48
(lp2015
g52
ag53
ag57
asg58
VWith Gretel.
p2016
sba(i__main__
Sentence
p2017
(dp2018
g17
I102
sg18
(lp2019
S'What'
p2020
aS'did'
p2021
aS'you'
p2022
aS'take'
p2023
aS'her'
p2024
aS'.'
p2025
asg31
(lp2026
VWhat
p2027
ag420
aVyou
p2028
aVtake
p2029
aVher
p2030
ag42
asg43
(lp2031
g45
ag45
ag45
ag45
ag45
ag45
asg48
(lp2032
g220
ag54
ag116
ag118
ag426
ag57
asg58
VWhat did you take her.
p2033
sba(i__main__
Sentence
p2034
(dp2035
g17
I103
sg18
(lp2036
S'I'
p2037
aS'took'
p2038
aS'her'
p2039
aS'nothing'
p2040
aS','
p2041
aS'she'
p2042
aS'gave'
p2043
aS'me'
p2044
aS'something'
p2045
aS'.'
p2046
asg31
(lp2047
g109
aVtake
p2048
aVher
p2049
aVnothing
p2050
ag38
aVshe
p2051
ag959
aVme
p2052
aVsomething
p2053
ag42
asg43
(lp2054
g45
ag45
ag45
ag45
ag45
ag45
ag45
ag45
ag45
ag45
asg48
(lp2055
g116
ag54
ag426
ag51
ag55
ag116
ag54
ag116
ag51
ag57
asg58
VI took her nothing, she gave me something.
p2056
sba(i__main__
Sentence
p2057
(dp2058
g17
I104
sg18
(lp2059
S'What'
p2060
aS'did'
p2061
aS'Gretel'
p2062
aS'give'
p2063
aS'you'
p2064
aS'.'
p2065
asg31
(lp2066
VWhat
p2067
ag420
aVGretel
p2068
aVgive
p2069
aVyou
p2070
ag42
asg43
(lp2071
g45
ag45
aVPERSON
p2072
ag45
ag45
ag45
asg48
(lp2073
g220
ag54
ag53
ag118
ag116
ag57
asg58
VWhat did Gretel give you.
p2074
sba(i__main__
Sentence
p2075
(dp2076
g17
I105
sg18
(lp2077
S'Gave'
p2078
aS'me'
p2079
aS'a'
p2080
aS'bit'
p2081
aS'of'
p2082
aS'bacon'
p2083
aS'.'
p2084
asg31
(lp2085
VGave
p2086
aVme
p2087
ag267
aVbit
p2088
aVof
p2089
aVbacon
p2090
ag42
asg43
(lp2091
g45
ag45
ag45
ag45
ag45
ag45
ag45
asg48
(lp2092
g53
ag116
ag50
ag51
ag52
ag51
ag57
asg58
VGave me a bit of bacon.
p2093
sba(i__main__
Sentence
p2094
(dp2095
g17
I106
sg18
(lp2096
S'Where'
p2097
aS'is'
p2098
aS'the'
p2099
aS'bacon'
p2100
aS','
p2101
aS'Hans'
p2102
aS'.'
p2103
asg31
(lp2104
VWhere
p2105
ag216
aVthe
p2106
aVbacon
p2107
ag38
aVHans
p2108
ag42
asg43
(lp2109
g45
ag45
ag45
ag45
ag45
aVPERSON
p2110
ag45
asg48
(lp2111
g394
ag165
ag50
ag51
ag55
ag53
ag57
asg58
VWhere is the bacon, Hans.
p2112
sba(i__main__
Sentence
p2113
(dp2114
g17
I107
sg18
(lp2115
S'I'
p2116
aS'tied'
p2117
aS'it'
p2118
aS'to'
p2119
aS'a'
p2120
aS'rope'
p2121
aS','
p2122
aS'brought'
p2123
aS'it'
p2124
aS'home'
p2125
aS','
p2126
aS'dogs'
p2127
aS'took'
p2128
aS'it'
p2129
aS'.'
p2130
asg31
(lp2131
g109
aVtie
p2132
aVit
p2133
aVto
p2134
ag267
aVrope
p2135
ag38
aVbring
p2136
aVit
p2137
aVhome
p2138
ag38
aVdog
p2139
ag2048
aVit
p2140
ag42
asg43
(lp2141
g45
ag45
ag45
ag45
ag45
ag45
ag45
ag45
ag45
ag45
ag45
ag45
ag45
ag45
ag45
asg48
(lp2142
g116
ag54
ag116
ag79
ag50
ag51
ag55
ag54
ag116
ag51
ag55
ag78
ag54
ag116
ag57
asg58
VI tied it to a rope, brought it home, dogs took it.
p2143
sba(i__main__
Sentence
p2144
(dp2145
g17
I108
sg18
(lp2146
S'That'
p2147
aS'was'
p2148
aS'ill'
p2149
aS'done'
p2150
aS','
p2151
aS'Hans'
p2152
aS','
p2153
aS'you'
p2154
aS'should'
p2155
aS'have'
p2156
aS'carried'
p2157
aS'the'
p2158
aS'bacon'
p2159
aS'on'
p2160
aS'your'
p2161
aS'head'
p2162
aS'.'
p2163
asg31
(lp2164
VThat
p2165
ag532
aVill
p2166
aVdone
p2167
ag38
aVHans
p2168
ag38
aVyou
p2169
aVshould
p2170
aVhave
p2171
aVcarry
p2172
aVthe
p2173
aVbacon
p2174
aVon
p2175
aVyour
p2176
aVhead
p2177
ag42
asg43
(lp2178
g45
ag45
ag45
ag45
ag45
aVPERSON
p2179
ag45
ag45
ag45
ag45
ag45
ag45
ag45
ag45
ag45
ag45
ag45
asg48
(lp2180
g50
ag54
ag132
ag51
ag55
ag53
ag55
ag116
ag117
ag118
ag250
ag50
ag51
ag52
ag426
ag51
ag57
asg58
VThat was ill done, Hans, you should have carried the bacon on your head.
p2181
sba(i__main__
Sentence
p2182
(dp2183
g17
I109
sg18
(lp2184
S'Never'
p2185
aS'mind'
p2186
aS','
p2187
aS'will'
p2188
aS'do'
p2189
aS'better'
p2190
aS'next'
p2191
aS'time'
p2192
aS'.'
p2193
asg31
(lp2194
VNever
p2195
aVmind
p2196
ag38
aVwill
p2197
aVdo
p2198
ag1089
aVnext
p2199
aVtime
p2200
ag42
asg43
(lp2201
g45
ag45
ag45
ag45
ag45
ag45
ag45
ag45
ag45
asg48
(lp2202
g56
ag54
ag55
ag117
ag118
ag1094
ag132
ag51
ag57
asg58
VNever mind, will do better next time.
p2203
sba(i__main__
Sentence
p2204
(dp2205
g17
I110
sg18
(lp2206
S'Whither'
p2207
aS'away'
p2208
aS','
p2209
aS'Hans'
p2210
aS'.'
p2211
asg31
(lp2212
VWhither
p2213
aVaway
p2214
ag38
aVHans
p2215
ag42
asg43
(lp2216
g45
ag45
ag45
aVPERSON
p2217
ag45
asg48
(lp2218
g53
ag56
ag55
ag53
ag57
asg58
VWhither away, Hans.
p2219
sba(i__main__
Sentence
p2220
(dp2221
g17
I111
sg18
(lp2222
S'To'
p2223
aS'Gretel'
p2224
aS','
p2225
aS'mother'
p2226
aS'.'
p2227
asg31
(lp2228
VTo
p2229
aVGretel
p2230
ag38
aVmother
p2231
ag42
asg43
(lp2232
g45
aVPERSON
p2233
ag45
ag45
ag45
asg48
(lp2234
g79
ag53
ag55
ag51
ag57
asg58
VTo Gretel, mother.
p2235
sba(i__main__
Sentence
p2236
(dp2237
g17
I112
sg18
(lp2238
S'Behave'
p2239
aS'well'
p2240
aS','
p2241
aS'Hans'
p2242
aS'.'
p2243
asg31
(lp2244
VBehave
p2245
aVwell
p2246
ag38
aVHans
p2247
ag42
asg43
(lp2248
g45
ag45
ag45
aVPERSON
p2249
ag45
asg48
(lp2250
g53
ag56
ag55
ag53
ag57
asg58
VBehave well, Hans.
p2251
sba(i__main__
Sentence
p2252
(dp2253
g17
I113
sg18
(lp2254
S'I'
p2255
aS"'ll"
p2256
aS'behave'
p2257
aS'well'
p2258
aS'.'
p2259
asg31
(lp2260
g109
aV'll
p2261
aVbehave
p2262
aVwell
p2263
ag42
asg43
(lp2264
g45
ag45
ag45
ag45
ag45
asg48
(lp2265
g116
ag117
ag118
ag56
ag57
asg58
VI'll behave well.
p2266
sba(i__main__
Sentence
p2267
(dp2268
g17
I114
sg18
(lp2269
S'Good-bye'
p2270
aS','
p2271
aS'mother'
p2272
aS'.'
p2273
asg31
(lp2274
VGood-bye
p2275
ag38
aVmother
p2276
ag42
asg43
(lp2277
g45
ag45
ag45
ag45
asg48
(lp2278
g132
ag55
ag51
ag57
asg58
VGood-bye, mother.
p2279
sba(i__main__
Sentence
p2280
(dp2281
g17
I115
sg18
(lp2282
S'Good-bye'
p2283
aS','
p2284
aS'Hans'
p2285
aS'.'
p2286
asg31
(lp2287
VGood-bye
p2288
ag38
aVHans
p2289
ag42
asg43
(lp2290
g45
ag45
aVPERSON
p2291
ag45
asg48
(lp2292
g132
ag55
ag53
ag57
asg58
VGood-bye, Hans.
p2293
sba(i__main__
Sentence
p2294
(dp2295
g17
I116
sg18
(lp2296
S'Hans'
p2297
aS'comes'
p2298
aS'to'
p2299
aS'Gretel'
p2300
aS'.'
p2301
asg31
(lp2302
VHans
p2303
aVcome
p2304
aVto
p2305
aVGretel
p2306
ag42
asg43
(lp2307
VPERSON
p2308
ag45
ag45
aVPERSON
p2309
ag45
asg48
(lp2310
g78
ag165
ag79
ag53
ag57
asg58
VHans comes to Gretel.
p2311
sba(i__main__
Sentence
p2312
(dp2313
g17
I117
sg18
(lp2314
S'Good'
p2315
aS'day'
p2316
aS','
p2317
aS'Gretel'
p2318
aS'.'
p2319
asg31
(lp2320
VGood
p2321
aVday
p2322
ag38
aVGretel
p2323
ag42
asg43
(lp2324
g45
ag45
ag45
aVPERSON
p2325
ag45
asg48
(lp2326
g53
ag51
ag55
ag53
ag57
asg58
VGood day, Gretel.
p2327
sba(i__main__
Sentence
p2328
(dp2329
g17
I118
sg18
(lp2330
S'Good'
p2331
aS'day'
p2332
aS','
p2333
aS'Hans'
p2334
aS'.'
p2335
asg31
(lp2336
VGood
p2337
aVday
p2338
ag38
aVHans
p2339
ag42
asg43
(lp2340
g45
ag45
ag45
aVPERSON
p2341
ag45
asg48
(lp2342
g53
ag51
ag55
ag53
ag57
asg58
VGood day, Hans.
p2343
sba(i__main__
Sentence
p2344
(dp2345
g17
I119
sg18
(lp2346
S'What'
p2347
aS'good'
p2348
aS'thing'
p2349
aS'do'
p2350
aS'you'
p2351
aS'bring'
p2352
aS'.'
p2353
asg31
(lp2354
VWhat
p2355
aVgood
p2356
aVthing
p2357
aVdo
p2358
aVyou
p2359
aVbring
p2360
ag42
asg43
(lp2361
g45
ag45
ag45
ag45
ag45
ag45
ag45
asg48
(lp2362
g220
ag132
ag51
ag221
ag116
ag222
ag57
asg58
VWhat good thing do you bring.
p2363
sba(i__main__
Sentence
p2364
(dp2365
g17
I120
sg18
(lp2366
S'I'
p2367
aS'bring'
p2368
aS'nothing'
p2369
aS','
p2370
aS'but'
p2371
aS'would'
p2372
aS'have'
p2373
aS'something'
p2374
aS'given'
p2375
aS'.'
p2376
asg31
(lp2377
g109
aVbring
p2378
aVnothing
p2379
ag38
aVbut
p2380
aVwould
p2381
aVhave
p2382
aVsomething
p2383
ag246
ag42
asg43
(lp2384
g45
ag45
ag45
ag45
ag45
ag45
ag45
ag45
ag45
ag45
asg48
(lp2385
g116
ag221
ag51
ag55
ag346
ag117
ag118
ag51
ag250
ag57
asg58
VI bring nothing, but would have something given.
p2386
sba(i__main__
Sentence
p2387
(dp2388
g17
I121
sg18
(lp2389
S'Gretel'
p2390
aS'presents'
p2391
aS'Hans'
p2392
aS'with'
p2393
aS'a'
p2394
aS'calf'
p2395
aS'.'
p2396
asg31
(lp2397
VGretel
p2398
aVpresent
p2399
aVHans
p2400
aVwith
p2401
ag267
aVcalf
p2402
ag42
asg43
(lp2403
VPERSON
p2404
ag45
aVPERSON
p2405
ag45
ag45
ag45
ag45
asg48
(lp2406
g53
ag78
ag273
ag52
ag50
ag51
ag57
asg58
VGretel presents Hans with a calf.
p2407
sba(i__main__
Sentence
p2408
(dp2409
g17
I122
sg18
(lp2410
S'Good-bye'
p2411
aS','
p2412
aS'Gretel'
p2413
aS'.'
p2414
asg31
(lp2415
VGood-bye
p2416
ag38
aVGretel
p2417
ag42
asg43
(lp2418
g45
ag45
aVPERSON
p2419
ag45
asg48
(lp2420
g132
ag55
ag53
ag57
asg58
VGood-bye, Gretel.
p2421
sba(i__main__
Sentence
p2422
(dp2423
g17
I123
sg18
(lp2424
S'Good-bye'
p2425
aS','
p2426
aS'Hans'
p2427
aS'.'
p2428
asg31
(lp2429
VGood-bye
p2430
ag38
aVHans
p2431
ag42
asg43
(lp2432
g45
ag45
aVPERSON
p2433
ag45
asg48
(lp2434
g132
ag55
ag53
ag57
asg58
VGood-bye, Hans.
p2435
sba(i__main__
Sentence
p2436
(dp2437
g17
I124
sg18
(lp2438
S'Hans'
p2439
aS'takes'
p2440
aS'the'
p2441
aS'calf'
p2442
aS','
p2443
aS'puts'
p2444
aS'it'
p2445
aS'on'
p2446
aS'his'
p2447
aS'head'
p2448
aS','
p2449
aS'and'
p2450
aS'the'
p2451
aS'calf'
p2452
aS'kicks'
p2453
aS'his'
p2454
aS'face'
p2455
aS'.'
p2456
asg31
(lp2457
VHans
p2458
aVtake
p2459
aVthe
p2460
aVcalf
p2461
ag38
aVput
p2462
aVit
p2463
aVon
p2464
aVhis
p2465
aVhead
p2466
ag38
aVand
p2467
aVthe
p2468
aVcalf
p2469
aVkick
p2470
aVhis
p2471
aVface
p2472
ag42
asg43
(lp2473
VPERSON
p2474
ag45
ag45
ag45
ag45
ag45
ag45
ag45
ag45
ag45
ag45
ag45
ag45
ag45
ag45
ag45
ag45
ag45
asg48
(lp2475
g78
ag165
ag50
ag51
ag55
ag165
ag116
ag52
ag426
ag51
ag55
ag346
ag50
ag51
ag78
ag426
ag51
ag57
asg58
VHans takes the calf, puts it on his head, and the calf kicks his face.
p2476
sba(i__main__
Sentence
p2477
(dp2478
g17
I125
sg18
(lp2479
S'Good'
p2480
aS'evening'
p2481
aS','
p2482
aS'mother'
p2483
aS'.'
p2484
asg31
(lp2485
VGood
p2486
aVevening
p2487
ag38
aVmother
p2488
ag42
asg43
(lp2489
g45
ag45
ag45
ag45
ag45
asg48
(lp2490
g53
ag51
ag55
ag51
ag57
asg58
VGood evening, mother.
p2491
sba(i__main__
Sentence
p2492
(dp2493
g17
I126
sg18
(lp2494
S'Good'
p2495
aS'evening'
p2496
aS','
p2497
aS'Hans'
p2498
aS'.'
p2499
asg31
(lp2500
VGood
p2501
aVevening
p2502
ag38
aVHans
p2503
ag42
asg43
(lp2504
g45
ag45
ag45
aVPERSON
p2505
ag45
asg48
(lp2506
g53
ag51
ag55
ag53
ag57
asg58
VGood evening, Hans.
p2507
sba(i__main__
Sentence
p2508
(dp2509
g17
I127
sg18
(lp2510
S'Where'
p2511
aS'have'
p2512
aS'you'
p2513
aS'been'
p2514
aS'.'
p2515
asg31
(lp2516
VWhere
p2517
aVhave
p2518
aVyou
p2519
ag391
ag42
asg43
(lp2520
g45
ag45
ag45
ag45
ag45
asg48
(lp2521
g394
ag221
ag116
ag250
ag57
asg58
VWhere have you been.
p2522
sba(i__main__
Sentence
p2523
(dp2524
g17
I128
sg18
(lp2525
S'With'
p2526
aS'Gretel'
p2527
aS'.'
p2528
asg31
(lp2529
VWith
p2530
aVGretel
p2531
ag42
asg43
(lp2532
g45
aVPERSON
p2533
ag45
asg48
(lp2534
g52
ag53
ag57
asg58
VWith Gretel.
p2535
sba(i__main__
Sentence
p2536
(dp2537
g17
I129
sg18
(lp2538
S'What'
p2539
aS'did'
p2540
aS'you'
p2541
aS'take'
p2542
aS'her'
p2543
aS'.'
p2544
asg31
(lp2545
VWhat
p2546
ag420
aVyou
p2547
aVtake
p2548
aVher
p2549
ag42
asg43
(lp2550
g45
ag45
ag45
ag45
ag45
ag45
asg48
(lp2551
g220
ag54
ag116
ag118
ag426
ag57
asg58
VWhat did you take her.
p2552
sba(i__main__
Sentence
p2553
(dp2554
g17
I130
sg18
(lp2555
S'I'
p2556
aS'took'
p2557
aS'nothing'
p2558
aS','
p2559
aS'but'
p2560
aS'had'
p2561
aS'something'
p2562
aS'given'
p2563
aS'me'
p2564
aS'.'
p2565
asg31
(lp2566
g109
ag2048
aVnothing
p2567
ag38
aVbut
p2568
ag444
aVsomething
p2569
ag246
aVme
p2570
ag42
asg43
(lp2571
g45
ag45
ag45
ag45
ag45
ag45
ag45
ag45
ag45
ag45
asg48
(lp2572
g116
ag54
ag51
ag55
ag346
ag54
ag51
ag250
ag116
ag57
asg58
VI took nothing, but had something given me.
p2573
sba(i__main__
Sentence
p2574
(dp2575
g17
I131
sg18
(lp2576
S'What'
p2577
aS'did'
p2578
aS'Gretel'
p2579
aS'give'
p2580
aS'you'
p2581
aS'.'
p2582
asg31
(lp2583
VWhat
p2584
ag420
aVGretel
p2585
aVgive
p2586
aVyou
p2587
ag42
asg43
(lp2588
g45
ag45
aVPERSON
p2589
ag45
ag45
ag45
asg48
(lp2590
g220
ag54
ag53
ag118
ag116
ag57
asg58
VWhat did Gretel give you.
p2591
sba(i__main__
Sentence
p2592
(dp2593
g17
I132
sg18
(lp2594
S'A'
p2595
aS'calf'
p2596
aS'.'
p2597
asg31
(lp2598
VA
p2599
aVcalf
p2600
ag42
asg43
(lp2601
g45
ag45
ag45
asg48
(lp2602
g50
ag51
ag57
asg58
VA calf.
p2603
sba(i__main__
Sentence
p2604
(dp2605
g17
I133
sg18
(lp2606
S'Where'
p2607
aS'have'
p2608
aS'you'
p2609
aS'the'
p2610
aS'calf'
p2611
aS','
p2612
aS'Hans'
p2613
aS'.'
p2614
asg31
(lp2615
VWhere
p2616
aVhave
p2617
aVyou
p2618
aVthe
p2619
aVcalf
p2620
ag38
aVHans
p2621
ag42
asg43
(lp2622
g45
ag45
ag45
ag45
ag45
ag45
aVPERSON
p2623
ag45
asg48
(lp2624
g394
ag221
ag116
ag50
ag51
ag55
ag53
ag57
asg58
VWhere have you the calf, Hans.
p2625
sba(i__main__
Sentence
p2626
(dp2627
g17
I134
sg18
(lp2628
S'I'
p2629
aS'set'
p2630
aS'it'
p2631
aS'on'
p2632
aS'my'
p2633
aS'head'
p2634
aS'and'
p2635
aS'it'
p2636
aS'kicked'
p2637
aS'my'
p2638
aS'face'
p2639
aS'.'
p2640
asg31
(lp2641
g109
aVset
p2642
aVit
p2643
aVon
p2644
aVmy
p2645
aVhead
p2646
aVand
p2647
aVit
p2648
aVkick
p2649
aVmy
p2650
aVface
p2651
ag42
asg43
(lp2652
g45
ag45
ag45
ag45
ag45
ag45
ag45
ag45
ag45
ag45
ag45
ag45
asg48
(lp2653
g116
ag54
ag116
ag52
ag426
ag51
ag346
ag116
ag54
ag426
ag51
ag57
asg58
VI set it on my head and it kicked my face.
p2654
sba(i__main__
Sentence
p2655
(dp2656
g17
I135
sg18
(lp2657
S'That'
p2658
aS'was'
p2659
aS'ill'
p2660
aS'done'
p2661
aS','
p2662
aS'Hans'
p2663
aS','
p2664
aS'you'
p2665
aS'should'
p2666
aS'have'
p2667
aS'led'
p2668
aS'the'
p2669
aS'calf'
p2670
aS','
p2671
aS'and'
p2672
aS'put'
p2673
aS'it'
p2674
aS'in'
p2675
aS'the'
p2676
aS'stall'
p2677
aS'.'
p2678
asg31
(lp2679
VThat
p2680
ag532
aVill
p2681
aVdone
p2682
ag38
aVHans
p2683
ag38
aVyou
p2684
aVshould
p2685
aVhave
p2686
aVlead
p2687
aVthe
p2688
aVcalf
p2689
ag38
aVand
p2690
aVput
p2691
aVit
p2692
aVin
p2693
aVthe
p2694
aVstall
p2695
ag42
asg43
(lp2696
g45
ag45
ag45
ag45
ag45
aVPERSON
p2697
ag45
ag45
ag45
ag45
ag45
ag45
ag45
ag45
ag45
ag45
ag45
ag45
ag45
ag45
ag45
asg48
(lp2698
g50
ag54
ag132
ag51
ag55
ag53
ag55
ag116
ag117
ag118
ag250
ag50
ag51
ag55
ag346
ag54
ag116
ag52
ag50
ag51
ag57
asg58
VThat was ill done, Hans, you should have led the calf, and put it in the stall.
p2699
sba(i__main__
Sentence
p2700
(dp2701
g17
I136
sg18
(lp2702
S'Never'
p2703
aS'mind'
p2704
aS','
p2705
aS'will'
p2706
aS'do'
p2707
aS'better'
p2708
aS'next'
p2709
aS'time'
p2710
aS'.'
p2711
asg31
(lp2712
VNever
p2713
aVmind
p2714
ag38
aVwill
p2715
aVdo
p2716
ag1089
aVnext
p2717
aVtime
p2718
ag42
asg43
(lp2719
g45
ag45
ag45
ag45
ag45
ag45
ag45
ag45
ag45
asg48
(lp2720
g56
ag54
ag55
ag117
ag118
ag1094
ag132
ag51
ag57
asg58
VNever mind, will do better next time.
p2721
sba(i__main__
Sentence
p2722
(dp2723
g17
I137
sg18
(lp2724
S'Whither'
p2725
aS'away'
p2726
aS','
p2727
aS'Hans'
p2728
aS'.'
p2729
asg31
(lp2730
VWhither
p2731
aVaway
p2732
ag38
aVHans
p2733
ag42
asg43
(lp2734
g45
ag45
ag45
aVPERSON
p2735
ag45
asg48
(lp2736
g53
ag56
ag55
ag53
ag57
asg58
VWhither away, Hans.
p2737
sba(i__main__
Sentence
p2738
(dp2739
g17
I138
sg18
(lp2740
S'To'
p2741
aS'Gretel'
p2742
aS','
p2743
aS'mother'
p2744
aS'.'
p2745
asg31
(lp2746
VTo
p2747
aVGretel
p2748
ag38
aVmother
p2749
ag42
asg43
(lp2750
g45
aVPERSON
p2751
ag45
ag45
ag45
asg48
(lp2752
g79
ag53
ag55
ag51
ag57
asg58
VTo Gretel, mother.
p2753
sba(i__main__
Sentence
p2754
(dp2755
g17
I139
sg18
(lp2756
S'Behave'
p2757
aS'well'
p2758
aS','
p2759
aS'Hans'
p2760
aS'.'
p2761
asg31
(lp2762
VBehave
p2763
aVwell
p2764
ag38
aVHans
p2765
ag42
asg43
(lp2766
g45
ag45
ag45
aVPERSON
p2767
ag45
asg48
(lp2768
g53
ag56
ag55
ag53
ag57
asg58
VBehave well, Hans.
p2769
sba(i__main__
Sentence
p2770
(dp2771
g17
I140
sg18
(lp2772
S'I'
p2773
aS"'ll"
p2774
aS'behave'
p2775
aS'well'
p2776
aS'.'
p2777
asg31
(lp2778
g109
aV'll
p2779
aVbehave
p2780
aVwell
p2781
ag42
asg43
(lp2782
g45
ag45
ag45
ag45
ag45
asg48
(lp2783
g116
ag117
ag118
ag56
ag57
asg58
VI'll behave well.
p2784
sba(i__main__
Sentence
p2785
(dp2786
g17
I141
sg18
(lp2787
S'Good-bye'
p2788
aS','
p2789
aS'mother'
p2790
aS'.'
p2791
asg31
(lp2792
VGood-bye
p2793
ag38
aVmother
p2794
ag42
asg43
(lp2795
g45
ag45
ag45
ag45
asg48
(lp2796
g132
ag55
ag51
ag57
asg58
VGood-bye, mother.
p2797
sba(i__main__
Sentence
p2798
(dp2799
g17
I142
sg18
(lp2800
S'Good-bye'
p2801
aS','
p2802
aS'Hans'
p2803
aS'.'
p2804
asg31
(lp2805
VGood-bye
p2806
ag38
aVHans
p2807
ag42
asg43
(lp2808
g45
ag45
aVPERSON
p2809
ag45
asg48
(lp2810
g132
ag55
ag53
ag57
asg58
VGood-bye, Hans.
p2811
sba(i__main__
Sentence
p2812
(dp2813
g17
I143
sg18
(lp2814
S'Hans'
p2815
aS'comes'
p2816
aS'to'
p2817
aS'Gretel'
p2818
aS'.'
p2819
asg31
(lp2820
VHans
p2821
aVcome
p2822
aVto
p2823
aVGretel
p2824
ag42
asg43
(lp2825
VPERSON
p2826
ag45
ag45
aVPERSON
p2827
ag45
asg48
(lp2828
g78
ag165
ag79
ag53
ag57
asg58
VHans comes to Gretel.
p2829
sba(i__main__
Sentence
p2830
(dp2831
g17
I144
sg18
(lp2832
S'Good'
p2833
aS'day'
p2834
aS','
p2835
aS'Gretel'
p2836
aS'.'
p2837
asg31
(lp2838
VGood
p2839
aVday
p2840
ag38
aVGretel
p2841
ag42
asg43
(lp2842
g45
ag45
ag45
aVPERSON
p2843
ag45
asg48
(lp2844
g53
ag51
ag55
ag53
ag57
asg58
VGood day, Gretel.
p2845
sba(i__main__
Sentence
p2846
(dp2847
g17
I145
sg18
(lp2848
S'Good'
p2849
aS'day'
p2850
aS','
p2851
aS'Hans'
p2852
aS'.'
p2853
asg31
(lp2854
VGood
p2855
aVday
p2856
ag38
aVHans
p2857
ag42
asg43
(lp2858
g45
ag45
ag45
aVPERSON
p2859
ag45
asg48
(lp2860
g53
ag51
ag55
ag53
ag57
asg58
VGood day, Hans.
p2861
sba(i__main__
Sentence
p2862
(dp2863
g17
I146
sg18
(lp2864
S'What'
p2865
aS'good'
p2866
aS'thing'
p2867
aS'do'
p2868
aS'you'
p2869
aS'bring'
p2870
aS'.'
p2871
asg31
(lp2872
VWhat
p2873
aVgood
p2874
aVthing
p2875
aVdo
p2876
aVyou
p2877
aVbring
p2878
ag42
asg43
(lp2879
g45
ag45
ag45
ag45
ag45
ag45
ag45
asg48
(lp2880
g220
ag132
ag51
ag221
ag116
ag222
ag57
asg58
VWhat good thing do you bring.
p2881
sba(i__main__
Sentence
p2882
(dp2883
g17
I147
sg18
(lp2884
S'I'
p2885
aS'bring'
p2886
aS'nothing'
p2887
aS','
p2888
aS'but'
p2889
aS'would'
p2890
aS'have'
p2891
aS'something'
p2892
aS'given'
p2893
aS'.'
p2894
asg31
(lp2895
g109
aVbring
p2896
aVnothing
p2897
ag38
aVbut
p2898
aVwould
p2899
aVhave
p2900
aVsomething
p2901
ag246
ag42
asg43
(lp2902
g45
ag45
ag45
ag45
ag45
ag45
ag45
ag45
ag45
ag45
asg48
(lp2903
g116
ag221
ag51
ag55
ag346
ag117
ag118
ag51
ag250
ag57
asg58
VI bring nothing, but would have something given.
p2904
sba(i__main__
Sentence
p2905
(dp2906
g17
I148
sg18
(lp2907
S'Gretel'
p2908
aS'says'
p2909
aS'to'
p2910
aS'Hans'
p2911
aS','
p2912
aS'I'
p2913
aS'will'
p2914
aS'go'
p2915
aS'with'
p2916
aS'you'
p2917
aS'.'
p2918
asg31
(lp2919
VGretel
p2920
aVsay
p2921
aVto
p2922
aVHans
p2923
ag38
ag109
aVwill
p2924
aVgo
p2925
aVwith
p2926
aVyou
p2927
ag42
asg43
(lp2928
VPERSON
p2929
ag45
ag45
aVPERSON
p2930
ag45
ag45
ag45
ag45
ag45
ag45
ag45
asg48
(lp2931
g53
ag165
ag79
ag53
ag55
ag116
ag117
ag118
ag52
ag116
ag57
asg58
VGretel says to Hans, I will go with you.
p2932
sba(i__main__
Sentence
p2933
(dp2934
g17
I149
sg18
(lp2935
S'Hans'
p2936
aS'takes'
p2937
aS'Gretel'
p2938
aS','
p2939
aS'ties'
p2940
aS'her'
p2941
aS'to'
p2942
aS'a'
p2943
aS'rope'
p2944
aS','
p2945
aS'leads'
p2946
aS'her'
p2947
aS'to'
p2948
aS'the'
p2949
aS'rack'
p2950
aS'and'
p2951
aS'binds'
p2952
aS'her'
p2953
aS'fast'
p2954
aS'.'
p2955
asg31
(lp2956
VHans
p2957
aVtake
p2958
aVGretel
p2959
ag38
aVtie
p2960
aVher
p2961
aVto
p2962
ag267
aVrope
p2963
ag38
aVlead
p2964
aVher
p2965
aVto
p2966
aVthe
p2967
aVrack
p2968
aVand
p2969
aVbind
p2970
aVher
p2971
aVfast
p2972
ag42
asg43
(lp2973
VPERSON
p2974
ag45
aVPERSON
p2975
ag45
ag45
ag45
ag45
ag45
ag45
ag45
ag45
ag45
ag45
ag45
ag45
ag45
ag45
ag45
ag45
ag45
asg48
(lp2976
g78
ag165
ag53
ag55
ag78
ag426
ag79
ag50
ag51
ag55
ag78
ag426
ag79
ag50
ag51
ag346
ag78
ag426
ag51
ag57
asg58
VHans takes Gretel, ties her to a rope, leads her to the rack and binds her fast.
p2977
sba(i__main__
Sentence
p2978
(dp2979
g17
I150
sg18
(lp2980
S'Then'
p2981
aS'Hans'
p2982
aS'goes'
p2983
aS'to'
p2984
aS'his'
p2985
aS'mother'
p2986
aS'.'
p2987
asg31
(lp2988
VThen
p2989
aVHans
p2990
aVgo
p2991
aVto
p2992
aVhis
p2993
aVmother
p2994
ag42
asg43
(lp2995
g45
aVPERSON
p2996
ag45
ag45
ag45
ag45
ag45
asg48
(lp2997
g56
ag165
ag165
ag79
ag426
ag51
ag57
asg58
VThen Hans goes to his mother.
p2998
sba(i__main__
Sentence
p2999
(dp3000
g17
I151
sg18
(lp3001
S'Good'
p3002
aS'evening'
p3003
aS','
p3004
aS'mother'
p3005
aS'.'
p3006
asg31
(lp3007
VGood
p3008
aVevening
p3009
ag38
aVmother
p3010
ag42
asg43
(lp3011
g45
ag45
ag45
ag45
ag45
asg48
(lp3012
g53
ag51
ag55
ag51
ag57
asg58
VGood evening, mother.
p3013
sba(i__main__
Sentence
p3014
(dp3015
g17
I152
sg18
(lp3016
S'Good'
p3017
aS'evening'
p3018
aS','
p3019
aS'Hans'
p3020
aS'.'
p3021
asg31
(lp3022
VGood
p3023
aVevening
p3024
ag38
aVHans
p3025
ag42
asg43
(lp3026
g45
ag45
ag45
aVPERSON
p3027
ag45
asg48
(lp3028
g53
ag51
ag55
ag53
ag57
asg58
VGood evening, Hans.
p3029
sba(i__main__
Sentence
p3030
(dp3031
g17
I153
sg18
(lp3032
S'Where'
p3033
aS'have'
p3034
aS'you'
p3035
aS'been'
p3036
aS'.'
p3037
asg31
(lp3038
VWhere
p3039
aVhave
p3040
aVyou
p3041
ag391
ag42
asg43
(lp3042
g45
ag45
ag45
ag45
ag45
asg48
(lp3043
g394
ag221
ag116
ag250
ag57
asg58
VWhere have you been.
p3044
sba(i__main__
Sentence
p3045
(dp3046
g17
I154
sg18
(lp3047
S'With'
p3048
aS'Gretel'
p3049
aS'.'
p3050
asg31
(lp3051
VWith
p3052
aVGretel
p3053
ag42
asg43
(lp3054
g45
aVPERSON
p3055
ag45
asg48
(lp3056
g52
ag53
ag57
asg58
VWith Gretel.
p3057
sba(i__main__
Sentence
p3058
(dp3059
g17
I155
sg18
(lp3060
S'What'
p3061
aS'did'
p3062
aS'you'
p3063
aS'take'
p3064
aS'her'
p3065
aS'.'
p3066
asg31
(lp3067
VWhat
p3068
ag420
aVyou
p3069
aVtake
p3070
aVher
p3071
ag42
asg43
(lp3072
g45
ag45
ag45
ag45
ag45
ag45
asg48
(lp3073
g220
ag54
ag116
ag118
ag426
ag57
asg58
VWhat did you take her.
p3074
sba(i__main__
Sentence
p3075
(dp3076
g17
I156
sg18
(lp3077
S'I'
p3078
aS'took'
p3079
aS'her'
p3080
aS'nothing'
p3081
aS'.'
p3082
asg31
(lp3083
g109
ag2048
aVher
p3084
aVnothing
p3085
ag42
asg43
(lp3086
g45
ag45
ag45
ag45
ag45
asg48
(lp3087
g116
ag54
ag426
ag51
ag57
asg58
VI took her nothing.
p3088
sba(i__main__
Sentence
p3089
(dp3090
g17
I157
sg18
(lp3091
S'What'
p3092
aS'did'
p3093
aS'Gretel'
p3094
aS'give'
p3095
aS'you'
p3096
aS'.'
p3097
asg31
(lp3098
VWhat
p3099
ag420
aVGretel
p3100
aVgive
p3101
aVyou
p3102
ag42
asg43
(lp3103
g45
ag45
aVPERSON
p3104
ag45
ag45
ag45
asg48
(lp3105
g220
ag54
ag53
ag118
ag116
ag57
asg58
VWhat did Gretel give you.
p3106
sba(i__main__
Sentence
p3107
(dp3108
g17
I158
sg18
(lp3109
S'She'
p3110
aS'gave'
p3111
aS'me'
p3112
aS'nothing'
p3113
aS','
p3114
aS'she'
p3115
aS'came'
p3116
aS'with'
p3117
aS'me'
p3118
aS'.'
p3119
asg31
(lp3120
VShe
p3121
ag959
aVme
p3122
aVnothing
p3123
ag38
aVshe
p3124
aVcome
p3125
aVwith
p3126
aVme
p3127
ag42
asg43
(lp3128
g45
ag45
ag45
ag45
ag45
ag45
ag45
ag45
ag45
ag45
asg48
(lp3129
g116
ag54
ag116
ag51
ag55
ag116
ag54
ag52
ag116
ag57
asg58
VShe gave me nothing, she came with me.
p3130
sba(i__main__
Sentence
p3131
(dp3132
g17
I159
sg18
(lp3133
S'Where'
p3134
aS'have'
p3135
aS'you'
p3136
aS'left'
p3137
aS'Gretel'
p3138
aS'.'
p3139
asg31
(lp3140
VWhere
p3141
aVhave
p3142
aVyou
p3143
aVleave
p3144
aVGretel
p3145
ag42
asg43
(lp3146
g45
ag45
ag45
ag45
aVPERSON
p3147
ag45
asg48
(lp3148
g394
ag221
ag116
ag250
ag53
ag57
asg58
VWhere have you left Gretel.
p3149
sba(i__main__
Sentence
p3150
(dp3151
g17
I160
sg18
(lp3152
S'I'
p3153
aS'led'
p3154
aS'her'
p3155
aS'by'
p3156
aS'the'
p3157
aS'rope'
p3158
aS','
p3159
aS'tied'
p3160
aS'her'
p3161
aS'to'
p3162
aS'the'
p3163
aS'rack'
p3164
aS','
p3165
aS'and'
p3166
aS'scattered'
p3167
aS'some'
p3168
aS'grass'
p3169
aS'for'
p3170
aS'her'
p3171
aS'.'
p3172
asg31
(lp3173
g109
ag2687
aVher
p3174
aVby
p3175
aVthe
p3176
aVrope
p3177
ag38
aVtie
p3178
aVher
p3179
aVto
p3180
aVthe
p3181
aVrack
p3182
ag38
aVand
p3183
aVscatter
p3184
aVsome
p3185
aVgrass
p3186
aVfor
p3187
aVher
p3188
ag42
asg43
(lp3189
g45
ag45
ag45
ag45
ag45
ag45
ag45
ag45
ag45
ag45
ag45
ag45
ag45
ag45
ag45
ag45
ag45
ag45
ag45
ag45
asg48
(lp3190
g116
ag54
ag116
ag52
ag50
ag51
ag55
ag250
ag426
ag79
ag50
ag51
ag55
ag346
ag54
ag50
ag51
ag52
ag426
ag57
asg58
VI led her by the rope, tied her to the rack, and scattered some grass for her.
p3191
sba(i__main__
Sentence
p3192
(dp3193
g17
I161
sg18
(lp3194
S'That'
p3195
aS'was'
p3196
aS'ill'
p3197
aS'done'
p3198
aS','
p3199
aS'Hans'
p3200
aS','
p3201
aS'you'
p3202
aS'should'
p3203
aS'have'
p3204
aS'cast'
p3205
aS'friendly'
p3206
aS'eyes'
p3207
aS'on'
p3208
aS'her'
p3209
aS'.'
p3210
asg31
(lp3211
VThat
p3212
ag532
aVill
p3213
aVdone
p3214
ag38
aVHans
p3215
ag38
aVyou
p3216
aVshould
p3217
aVhave
p3218
aVcast
p3219
aVfriendly
p3220
aVeye
p3221
aVon
p3222
aVher
p3223
ag42
asg43
(lp3224
g45
ag45
ag45
ag45
ag45
aVPERSON
p3225
ag45
ag45
ag45
ag45
ag45
ag45
ag45
ag45
ag45
ag45
asg48
(lp3226
g50
ag54
ag132
ag51
ag55
ag53
ag55
ag116
ag117
ag118
ag250
ag132
ag78
ag52
ag426
ag57
asg58
VThat was ill done, Hans, you should have cast friendly eyes on her.
p3227
sba(i__main__
Sentence
p3228
(dp3229
g17
I162
sg18
(lp3230
S'Never'
p3231
aS'mind'
p3232
aS','
p3233
aS'will'
p3234
aS'do'
p3235
aS'better'
p3236
aS'.'
p3237
asg31
(lp3238
VNever
p3239
aVmind
p3240
ag38
aVwill
p3241
aVdo
p3242
ag1089
ag42
asg43
(lp3243
g45
ag45
ag45
ag45
ag45
ag45
ag45
asg48
(lp3244
g56
ag54
ag55
ag117
ag118
ag1094
ag57
asg58
VNever mind, will do better.
p3245
sba(i__main__
Sentence
p3246
(dp3247
g17
I163
sg18
(lp3248
S'Hans'
p3249
aS'went'
p3250
aS'into'
p3251
aS'the'
p3252
aS'stable'
p3253
aS','
p3254
aS'cut'
p3255
aS'out'
p3256
aS'all'
p3257
aS'the'
p3258
aS'calves'
p3259
aS','
p3260
aS'and'
p3261
aS'sheep'
p3262
aS"'s"
p3263
aS'eyes'
p3264
aS','
p3265
aS'and'
p3266
aS'threw'
p3267
aS'them'
p3268
aS'in'
p3269
aS'Gretel'
p3270
aS"'s"
p3271
aS'face'
p3272
aS'.'
p3273
asg31
(lp3274
VHans
p3275
aVgo
p3276
aVinto
p3277
aVthe
p3278
aVstable
p3279
ag38
aVcut
p3280
aVout
p3281
aVall
p3282
aVthe
p3283
aVcalf
p3284
ag38
aVand
p3285
aVsheep
p3286
aV's
p3287
aVeye
p3288
ag38
aVand
p3289
aVthrow
p3290
aVthem
p3291
aVin
p3292
aVGretel
p3293
aV's
p3294
aVface
p3295
ag42
asg43
(lp3296
VPERSON
p3297
ag45
ag45
ag45
ag45
ag45
ag45
ag45
ag45
ag45
ag45
ag45
ag45
ag45
ag45
ag45
ag45
ag45
ag45
ag45
ag45
aVPERSON
p3298
ag45
ag45
ag45
asg48
(lp3299
g78
ag54
ag52
ag50
ag132
ag55
ag54
aS'RP'
p3300
ag50
ag50
ag78
ag55
ag346
ag118
ag165
ag78
ag55
ag346
ag54
ag116
ag52
ag53
ag1597
ag51
ag57
asg58
VHans went into the stable, cut out all the calves, and sheep's eyes, and threw them in Gretel's face.
p3301
sba(i__main__
Sentence
p3302
(dp3303
g17
I164
sg18
(lp3304
S'Then'
p3305
aS'Gretel'
p3306
aS'became'
p3307
aS'angry'
p3308
aS','
p3309
aS'tore'
p3310
aS'herself'
p3311
aS'loose'
p3312
aS'and'
p3313
aS'ran'
p3314
aS'away'
p3315
aS','
p3316
aS'and'
p3317
aS'was'
p3318
aS'no'
p3319
aS'longer'
p3320
aS'the'
p3321
aS'bride'
p3322
aS'of'
p3323
aS'Hans'
p3324
aS'.'
p3325
asg31
(lp3326
VThen
p3327
aVGretel
p3328
aVbecome
p3329
aVangry
p3330
ag38
aVtore
p3331
aVherself
p3332
aVloose
p3333
aVand
p3334
aVrun
p3335
aVaway
p3336
ag38
aVand
p3337
ag532
aVno
p3338
aVlonger
p3339
aVthe
p3340
aVbride
p3341
aVof
p3342
aVHans
p3343
ag42
asg43
(lp3344
g45
aVPERSON
p3345
ag45
ag45
ag45
ag45
ag45
ag45
ag45
ag45
ag45
ag45
ag45
ag45
ag45
ag45
ag45
ag45
ag45
aVPERSON
p3346
ag45
asg48
(lp3347
g56
ag53
ag54
ag51
ag55
ag56
ag116
ag221
ag346
ag54
ag56
ag55
ag346
ag54
ag50
ag51
ag50
ag51
ag52
ag53
ag57
asg58
VThen Gretel became angry, tore herself loose and ran away, and was no longer the bride of Hans. 
p3348
sbasbsS'summary'
p3349
g0
(g7
g2
Ntp3350
Rp3351
(dp3352
g11
S'A man goes six times to visit his suitor. Each time he brings her nothing, but rather demands a gift from her. The man either loses or destroys each gift. His mother instructs Hans how he should have treated the gift, and Hans tries to follow her advice. After misunderstanding his mother\'s advice to "cast friendly eyes" on Gretel, Gretel runs away and will have nothing more to do with Hans. '
p3353
sg13
(lp3354
(i__main__
Sentence
p3355
(dp3356
g17
I0
sg18
(lp3357
S'A'
p3358
aS'man'
p3359
aS'goes'
p3360
aS'six'
p3361
aS'times'
p3362
aS'to'
p3363
aS'visit'
p3364
aS'his'
p3365
aS'suitor'
p3366
aS'.'
p3367
asg31
(lp3368
g2599
aVman
p3369
aVgo
p3370
aVsix
p3371
aVtime
p3372
aVto
p3373
aVvisit
p3374
aVhis
p3375
aVsuitor
p3376
ag42
asg43
(lp3377
g45
ag45
ag45
ag45
ag45
ag45
ag45
ag45
ag45
ag45
asg48
(lp3378
g50
ag51
ag165
aS'CD'
p3379
ag78
ag79
ag118
ag426
ag51
ag57
asg58
VA man goes six times to visit his suitor.
p3380
sba(i__main__
Sentence
p3381
(dp3382
g17
I1
sg18
(lp3383
S'Each'
p3384
aS'time'
p3385
aS'he'
p3386
aS'brings'
p3387
aS'her'
p3388
aS'nothing'
p3389
aS','
p3390
aS'but'
p3391
aS'rather'
p3392
aS'demands'
p3393
aS'a'
p3394
aS'gift'
p3395
aS'from'
p3396
aS'her'
p3397
aS'.'
p3398
asg31
(lp3399
VEach
p3400
aVtime
p3401
aVhe
p3402
aVbring
p3403
aVher
p3404
aVnothing
p3405
ag38
aVbut
p3406
aVrather
p3407
aVdemand
p3408
ag267
aVgift
p3409
aVfrom
p3410
aVher
p3411
ag42
asg43
(lp3412
g45
ag45
ag45
ag45
ag45
ag45
ag45
ag45
ag45
ag45
ag45
ag45
ag45
ag45
ag45
asg48
(lp3413
g50
ag51
ag116
ag165
ag426
ag51
ag55
ag346
ag56
ag165
ag50
ag51
ag52
ag426
ag57
asg58
VEach time he brings her nothing, but rather demands a gift from her.
p3414
sba(i__main__
Sentence
p3415
(dp3416
g17
I2
sg18
(lp3417
S'The'
p3418
aS'man'
p3419
aS'either'
p3420
aS'loses'
p3421
aS'or'
p3422
aS'destroys'
p3423
aS'each'
p3424
aS'gift'
p3425
aS'.'
p3426
asg31
(lp3427
VThe
p3428
aVman
p3429
aVeither
p3430
aVloses
p3431
aVor
p3432
aVdestroys
p3433
aVeach
p3434
aVgift
p3435
ag42
asg43
(lp3436
g45
ag45
ag45
ag45
ag45
ag45
ag45
ag45
ag45
asg48
(lp3437
g50
ag51
ag50
ag78
ag346
ag78
ag50
ag51
ag57
asg58
VThe man either loses or destroys each gift.
p3438
sba(i__main__
Sentence
p3439
(dp3440
g17
I3
sg18
(lp3441
S'His'
p3442
aS'mother'
p3443
aS'instructs'
p3444
aS'Hans'
p3445
aS'how'
p3446
aS'he'
p3447
aS'should'
p3448
aS'have'
p3449
aS'treated'
p3450
aS'the'
p3451
aS'gift'
p3452
aS','
p3453
aS'and'
p3454
aS'Hans'
p3455
aS'tries'
p3456
aS'to'
p3457
aS'follow'
p3458
aS'her'
p3459
aS'advice'
p3460
aS'.'
p3461
asg31
(lp3462
VHis
p3463
aVmother
p3464
aVinstructs
p3465
aVHans
p3466
aVhow
p3467
aVhe
p3468
aVshould
p3469
aVhave
p3470
aVtreat
p3471
aVthe
p3472
aVgift
p3473
ag38
aVand
p3474
aVHans
p3475
aVtry
p3476
aVto
p3477
aVfollow
p3478
aVher
p3479
aVadvice
p3480
ag42
asg43
(lp3481
g45
ag45
ag45
aVPERSON
p3482
ag45
ag45
ag45
ag45
ag45
ag45
ag45
ag45
ag45
aVPERSON
p3483
ag45
ag45
ag45
ag45
ag45
ag45
asg48
(lp3484
g426
ag51
ag78
ag273
ag394
ag116
ag117
ag118
ag250
ag50
ag51
ag55
ag346
ag53
ag78
ag79
ag118
ag426
ag51
ag57
asg58
VHis mother instructs Hans how he should have treated the gift, and Hans tries to follow her advice.
p3485
sba(i__main__
Sentence
p3486
(dp3487
g17
I4
sg18
(lp3488
S'After'
p3489
aS'misunderstanding'
p3490
aS'his'
p3491
aS'mother'
p3492
aS"'s"
p3493
aS'advice'
p3494
aS'to'
p3495
aS'``'
p3496
aS'cast'
p3497
aS'friendly'
p3498
aS'eyes'
p3499
aS"''"
p3500
aS'on'
p3501
aS'Gretel'
p3502
aS','
p3503
aS'Gretel'
p3504
aS'runs'
p3505
aS'away'
p3506
aS'and'
p3507
aS'will'
p3508
aS'have'
p3509
aS'nothing'
p3510
aS'more'
p3511
aS'to'
p3512
aS'do'
p3513
aS'with'
p3514
aS'Hans'
p3515
aS'.'
p3516
asg31
(lp3517
VAfter
p3518
aVmisunderstand
p3519
aVhis
p3520
aVmother
p3521
aV's
p3522
aVadvice
p3523
aVto
p3524
aV``
p3525
aVcast
p3526
aVfriendly
p3527
aVeye
p3528
aV''
p3529
aVon
p3530
aVGretel
p3531
ag38
aVGretel
p3532
aVrun
p3533
aVaway
p3534
aVand
p3535
aVwill
p3536
aVhave
p3537
aVnothing
p3538
aVmore
p3539
aVto
p3540
aVdo
p3541
aVwith
p3542
aVHans
p3543
ag42
asg43
(lp3544
g45
ag45
ag45
ag45
ag45
ag45
ag45
ag45
ag45
ag45
ag45
ag45
ag45
aVPERSON
p3545
ag45
aVPERSON
p3546
ag45
ag45
ag45
ag45
ag45
ag45
ag45
ag45
ag45
ag45
aVPERSON
p3547
ag45
asg48
(lp3548
g52
ag222
ag426
ag51
ag1597
ag51
ag79
aS'``'
p3549
ag132
ag132
ag78
aS"''"
p3550
ag52
ag53
ag55
ag53
ag165
ag56
ag346
ag117
ag118
ag51
ag1094
ag79
ag118
ag52
ag273
ag57
asg58
VAfter misunderstanding his mother's advice to "cast friendly eyes" on Gretel, Gretel runs away and will have nothing more to do with Hans. 
p3551
sbasbsS'name'
p3552
S'Clever Hans'
p3553
sS'summaries'
p3554
(lp3555
g3351
asb.