ccopy_reg
_reconstructor
p0
(c__main__
Story
p1
c__builtin__
object
p2
Ntp3
Rp4
(dp5
S'text'
p6
g0
(c__main__
Document
p7
g2
Ntp8
Rp9
(dp10
S'_Document__initialContent'
p11
S'Two or three hundred years ago, when people were far from being so\ncrafty and cunning as they are nowadays, an extraordinary event\ntook place in a little town.  By some mischance one of the great\nowls, called horned owls, had come from the neighboring woods into\nthe barn of one of the townsfolk in the night-time, and when day\nbroke did not dare to venture forth again from her retreat, for\nfear of the other birds, which raised a terrible outcry whenever\nshe appeared.  In the morning when the man-servant went into the\nbarn to fetch some straw, he was so mightily alarmed at the sight\nof the owl sitting there in a corner, that he ran away and\nannounced to his master that a monster, the like of which he had\nnever set eyes on in his life, and which could devour a man\nwithout the slightest difficulty, was sitting in the barn, rolling\nits eyes about in its head.  I know your kind, said the master,\nyou have courage enough to chase a blackbird about the fields, but\nwhen you see a hen lying dead, you have to get a stick before you\ngo near it.  I must go and see for myself what kind of a monster\nit is, added the master, and went quite boldly into the granary\nand looked round him.  When, however, he saw with his own eyes\nthe strange grim creature, he was no less terrified than the\nservant had been.  With two bounds he sprang out, ran to his\nneighbours, and begged them imploringly to lend him assistance\nagainst an unknown and dangerous beast, or else the whole town\nmight be in danger if it\nwere to break loose out of the barn, where it was shut up.  A\ngreat noise and clamor arose in all the streets, the townsmen\ncame armed with spears, hay-forks, scythes, and axes, as if they\nwere going out against an enemy.  Finally, the senators appeared\nwith the burgomaster at their head.  When they had drawn up in\nthe market-place, they marched to the barn, and surrounded it on\nall sides.  Thereupon one of the most courageous of them stepped\nforth and entered with his spear lowered, but came running out\nimmediately afterwards with a shriek and as pale as death, and\ncould not utter a single word.  Yet two others ventured in, but\nthey fared no better.  At last one stepped forth, a great strong\nman who was famous for his warlike deeds, and said, you will not\ndrive away the monster by merely looking at him, we must be in\nearnest here, but I see that you have all tuned into women, and\nnot one of you dares to encounter the animal.  He ordered them\nto give him some armor, had a sword and spear brought, and armed\nhimself.  All praised his courage, though many feared for his\nlife.  The two barn-doors were opened, and they saw the owl, which\nin the meantime had perched herself on the middle of a great\ncross-beam.  He had a ladder brought, and when he raised it, and\nmade ready to climb up, they all cried out to him that he was to\nbear himself bravely, and commended him to St. George, who slew\nthe dragon.  When he had just got to the top, and the owl\nperceived that he had designs on her, and was also bewildered by\nthe crowd and the shouting, and knew not how to escape, she\nrolled her eyes, ruffled her feathers, flapped her wings,\nsnapped her beak, and cried, tuwhit, tuwhoo, in a harsh voice.\nStrike home.  Strike home.  Screamed the crowd outside to the\nvaliant hero.  Any one who was standing where I am standing,\nanswered he, would not cry, strike home.  He certainly did plant\nhis foot one rung higher on the ladder, but then he began to\ntremble, and half-fainting, went back again.\nAnd now there was no one left who dared to place himself in such\ndanger.  The monster, said they, has poisoned and mortally\nwounded the very strongest man among us, by snapping at him and\njust breathing on him.  Are we, too, to risk our lives.  They took\ncounsel as to what they ought to do to prevent the whole town from\nbeing destroyed.  For a long time everything seemed to be of no\nuse, but at length the burgomaster found an expedient.  My\nopinion, said he, is that we ought, out of the common purse, to\npay for this barn, and whatsoever corn, straw, or hay it contains,\nand thus indemnify the owner, and then burn down the whole\nbuilding and the terrible beast with it.  Thus no one will have to\nendanger his life.  This is no time for thinking of expense,\nand stinginess would be ill applied.  All agreed with him.  So\nthey set fire to the barn at all four corners, and with it the\nowl was miserably burnt.  Let any one who will not believe it,\ngo thither and inquire for himself.\n'
p12
sS'sentences'
p13
(lp14
(i__main__
Sentence
p15
(dp16
S'index'
p17
I0
sS'words'
p18
(lp19
S'Two'
p20
aS'or'
p21
aS'three'
p22
aS'hundred'
p23
aS'years'
p24
aS'ago'
p25
aS','
p26
aS'when'
p27
aS'people'
p28
aS'were'
p29
aS'far'
p30
aS'from'
p31
aS'being'
p32
aS'so'
p33
aS'crafty'
p34
aS'and'
p35
aS'cunning'
p36
aS'as'
p37
aS'they'
p38
aS'are'
p39
aS'nowadays'
p40
aS','
p41
aS'an'
p42
aS'extraordinary'
p43
aS'event'
p44
aS'took'
p45
aS'place'
p46
aS'in'
p47
aS'a'
p48
aS'little'
p49
aS'town'
p50
aS'.'
p51
asS'lemmas'
p52
(lp53
VTwo
p54
aVor
p55
aVthree
p56
aVhundred
p57
aVyear
p58
aVago
p59
aV,
p60
aVwhen
p61
aVpeople
p62
aVbe
p63
aVfar
p64
aVfrom
p65
aVbe
p66
aVso
p67
aVcrafty
p68
aVand
p69
aVcunning
p70
aVa
p71
aVthey
p72
aVbe
p73
aVnowadays
p74
ag60
aVan
p75
aVextraordinary
p76
aVevent
p77
aVtake
p78
aVplace
p79
aVin
p80
ag71
aVlittle
p81
aVtown
p82
aV.
p83
asS'nerTags'
p84
(lp85
VO
p86
ag86
ag86
ag86
ag86
ag86
ag86
ag86
ag86
ag86
ag86
ag86
ag86
ag86
ag86
ag86
ag86
ag86
ag86
ag86
ag86
ag86
ag86
ag86
ag86
ag86
ag86
ag86
ag86
ag86
ag86
ag86
asS'posTags'
p87
(lp88
S'CD'
p89
aS'CC'
p90
ag89
ag89
aS'NNS'
p91
aS'RB'
p92
aS','
p93
aS'WRB'
p94
ag91
aS'VBD'
p95
ag92
aS'IN'
p96
aS'VBG'
p97
ag92
aS'JJ'
p98
ag90
ag97
ag96
aS'PRP'
p99
aS'VBP'
p100
ag91
ag93
aS'DT'
p101
ag98
aS'NN'
p102
ag95
ag102
ag96
ag101
ag92
aS'VBN'
p103
aS'.'
p104
asS'_Sentence__initialContent'
p105
VTwo or three hundred years ago, when people were far from being so crafty and cunning as they are nowadays, an extraordinary event took place in a little town.
p106
sba(i__main__
Sentence
p107
(dp108
g17
I1
sg18
(lp109
S'By'
p110
aS'some'
p111
aS'mischance'
p112
aS'one'
p113
aS'of'
p114
aS'the'
p115
aS'great'
p116
aS'owls'
p117
aS','
p118
aS'called'
p119
aS'horned'
p120
aS'owls'
p121
aS','
p122
aS'had'
p123
aS'come'
p124
aS'from'
p125
aS'the'
p126
aS'neighboring'
p127
aS'woods'
p128
aS'into'
p129
aS'the'
p130
aS'barn'
p131
aS'of'
p132
aS'one'
p133
aS'of'
p134
aS'the'
p135
aS'townsfolk'
p136
aS'in'
p137
aS'the'
p138
aS'night-time'
p139
aS','
p140
aS'and'
p141
aS'when'
p142
aS'day'
p143
aS'broke'
p144
aS'did'
p145
aS'not'
p146
aS'dare'
p147
aS'to'
p148
aS'venture'
p149
aS'forth'
p150
aS'again'
p151
aS'from'
p152
aS'her'
p153
aS'retreat'
p154
aS','
p155
aS'for'
p156
aS'fear'
p157
aS'of'
p158
aS'the'
p159
aS'other'
p160
aS'birds'
p161
aS','
p162
aS'which'
p163
aS'raised'
p164
aS'a'
p165
aS'terrible'
p166
aS'outcry'
p167
aS'whenever'
p168
aS'she'
p169
aS'appeared'
p170
aS'.'
p171
asg52
(lp172
VBy
p173
aVsome
p174
aVmischance
p175
aVone
p176
aVof
p177
aVthe
p178
aVgreat
p179
aVowl
p180
ag60
aVcall
p181
aVhorn
p182
aVowl
p183
ag60
aVhave
p184
aVcome
p185
aVfrom
p186
aVthe
p187
aVneighboring
p188
aVwood
p189
aVinto
p190
aVthe
p191
aVbarn
p192
aVof
p193
aVone
p194
aVof
p195
aVthe
p196
aVtownsfolk
p197
aVin
p198
aVthe
p199
aVnight-time
p200
ag60
aVand
p201
aVwhen
p202
aVday
p203
aVbroke
p204
aVdo
p205
aVnot
p206
aVdare
p207
aVto
p208
aVventure
p209
aVforth
p210
aVagain
p211
aVfrom
p212
aVher
p213
aVretreat
p214
ag60
aVfor
p215
aVfear
p216
aVof
p217
aVthe
p218
aVother
p219
aVbird
p220
ag60
aVwhich
p221
aVraise
p222
ag71
aVterrible
p223
aVoutcry
p224
aVwhenever
p225
aVshe
p226
aVappear
p227
ag83
asg84
(lp228
g86
ag86
ag86
ag86
ag86
ag86
ag86
ag86
ag86
ag86
ag86
ag86
ag86
ag86
ag86
ag86
ag86
ag86
ag86
ag86
ag86
ag86
ag86
ag86
ag86
ag86
ag86
ag86
ag86
ag86
ag86
ag86
ag86
ag86
ag86
ag86
ag86
ag86
ag86
ag86
ag86
ag86
ag86
ag86
ag86
ag86
ag86
ag86
ag86
ag86
ag86
ag86
ag86
ag86
ag86
ag86
ag86
ag86
ag86
ag86
ag86
ag86
asg87
(lp229
g96
ag101
ag102
ag89
ag96
ag101
ag98
ag91
ag93
ag103
ag103
ag91
ag93
ag95
ag103
ag96
ag101
ag102
ag91
ag96
ag101
ag102
ag96
ag89
ag96
ag101
ag102
ag96
ag101
ag98
ag93
ag90
ag94
ag102
ag102
ag95
ag92
aS'VB'
p230
aS'TO'
p231
ag230
ag98
ag102
ag96
aS'PRP$'
p232
ag102
ag93
ag96
ag102
ag96
ag101
ag98
ag91
ag93
aS'WDT'
p233
ag103
ag101
ag98
ag102
ag102
ag99
ag95
ag104
asg105
VBy some mischance one of the great owls, called horned owls, had come from the neighboring woods into the barn of one of the townsfolk in the night-time, and when day broke did not dare to venture forth again from her retreat, for fear of the other birds, which raised a terrible outcry whenever she appeared.
p234
sba(i__main__
Sentence
p235
(dp236
g17
I2
sg18
(lp237
S'In'
p238
aS'the'
p239
aS'morning'
p240
aS'when'
p241
aS'the'
p242
aS'man-servant'
p243
aS'went'
p244
aS'into'
p245
aS'the'
p246
aS'barn'
p247
aS'to'
p248
aS'fetch'
p249
aS'some'
p250
aS'straw'
p251
aS','
p252
aS'he'
p253
aS'was'
p254
aS'so'
p255
aS'mightily'
p256
aS'alarmed'
p257
aS'at'
p258
aS'the'
p259
aS'sight'
p260
aS'of'
p261
aS'the'
p262
aS'owl'
p263
aS'sitting'
p264
aS'there'
p265
aS'in'
p266
aS'a'
p267
aS'corner'
p268
aS','
p269
aS'that'
p270
aS'he'
p271
aS'ran'
p272
aS'away'
p273
aS'and'
p274
aS'announced'
p275
aS'to'
p276
aS'his'
p277
aS'master'
p278
aS'that'
p279
aS'a'
p280
aS'monster'
p281
aS','
p282
aS'the'
p283
aS'like'
p284
aS'of'
p285
aS'which'
p286
aS'he'
p287
aS'had'
p288
aS'never'
p289
aS'set'
p290
aS'eyes'
p291
aS'on'
p292
aS'in'
p293
aS'his'
p294
aS'life'
p295
aS','
p296
aS'and'
p297
aS'which'
p298
aS'could'
p299
aS'devour'
p300
aS'a'
p301
aS'man'
p302
aS'without'
p303
aS'the'
p304
aS'slightest'
p305
aS'difficulty'
p306
aS','
p307
aS'was'
p308
aS'sitting'
p309
aS'in'
p310
aS'the'
p311
aS'barn'
p312
aS','
p313
aS'rolling'
p314
aS'its'
p315
aS'eyes'
p316
aS'about'
p317
aS'in'
p318
aS'its'
p319
aS'head'
p320
aS'.'
p321
asg52
(lp322
VIn
p323
aVthe
p324
aVmorning
p325
aVwhen
p326
aVthe
p327
aVman-servant
p328
aVwent
p329
aVinto
p330
aVthe
p331
aVbarn
p332
aVto
p333
aVfetch
p334
aVsome
p335
aVstraw
p336
ag60
aVhe
p337
aVbe
p338
aVso
p339
aVmightily
p340
aValarm
p341
aVat
p342
aVthe
p343
aVsight
p344
aVof
p345
aVthe
p346
aVowl
p347
aVsit
p348
aVthere
p349
aVin
p350
ag71
aVcorner
p351
ag60
aVthat
p352
aVhe
p353
aVrun
p354
aVaway
p355
aVand
p356
aVannounce
p357
aVto
p358
aVhis
p359
aVmaster
p360
aVthat
p361
ag71
aVmonster
p362
ag60
aVthe
p363
aVlike
p364
aVof
p365
aVwhich
p366
aVhe
p367
ag184
aVnever
p368
aVset
p369
aVeye
p370
aVon
p371
aVin
p372
aVhis
p373
aVlife
p374
ag60
aVand
p375
aVwhich
p376
aVcould
p377
aVdevour
p378
ag71
aVman
p379
aVwithout
p380
aVthe
p381
aVslight
p382
aVdifficulty
p383
ag60
ag338
ag348
aVin
p384
aVthe
p385
aVbarn
p386
ag60
aVroll
p387
aVit
p388
aVeye
p389
aVabout
p390
aVin
p391
aVit
p392
aVhead
p393
ag83
asg84
(lp394
g86
ag86
ag86
ag86
ag86
ag86
ag86
ag86
ag86
ag86
ag86
ag86
ag86
ag86
ag86
ag86
ag86
ag86
ag86
ag86
ag86
ag86
ag86
ag86
ag86
ag86
ag86
ag86
ag86
ag86
ag86
ag86
ag86
ag86
ag86
ag86
ag86
ag86
ag86
ag86
ag86
ag86
ag86
ag86
ag86
ag86
ag86
ag86
ag86
ag86
ag86
ag86
ag86
ag86
ag86
ag86
ag86
ag86
ag86
ag86
ag86
ag86
ag86
ag86
ag86
ag86
ag86
ag86
ag86
ag86
ag86
ag86
ag86
ag86
ag86
ag86
ag86
ag86
ag86
ag86
ag86
ag86
ag86
ag86
asg87
(lp395
g96
ag101
ag102
ag94
ag101
ag98
ag102
ag96
ag101
ag102
ag231
ag230
ag101
ag102
ag93
ag99
ag95
ag92
ag92
ag103
ag96
ag101
ag102
ag96
ag101
ag102
ag97
aS'EX'
p396
ag96
ag101
ag102
ag93
ag96
ag99
ag95
ag92
ag90
ag95
ag231
ag232
ag102
ag96
ag101
ag102
ag93
ag101
ag102
ag96
ag233
ag99
ag95
ag92
ag103
ag91
ag96
ag96
ag232
ag102
ag93
ag90
ag233
aS'MD'
p397
ag230
ag101
ag102
ag96
ag101
aS'JJS'
p398
ag102
ag93
ag95
ag97
ag96
ag101
ag102
ag93
ag97
ag232
ag91
ag96
ag96
ag232
ag102
ag104
asg105
VIn the morning when the man-servant went into the barn to fetch some straw, he was so mightily alarmed at the sight of the owl sitting there in a corner, that he ran away and announced to his master that a monster, the like of which he had never set eyes on in his life, and which could devour a man without the slightest difficulty, was sitting in the barn, rolling its eyes about in its head.
p399
sba(i__main__
Sentence
p400
(dp401
g17
I3
sg18
(lp402
S'I'
p403
aS'know'
p404
aS'your'
p405
aS'kind'
p406
aS','
p407
aS'said'
p408
aS'the'
p409
aS'master'
p410
aS','
p411
aS'you'
p412
aS'have'
p413
aS'courage'
p414
aS'enough'
p415
aS'to'
p416
aS'chase'
p417
aS'a'
p418
aS'blackbird'
p419
aS'about'
p420
aS'the'
p421
aS'fields'
p422
aS','
p423
aS'but'
p424
aS'when'
p425
aS'you'
p426
aS'see'
p427
aS'a'
p428
aS'hen'
p429
aS'lying'
p430
aS'dead'
p431
aS','
p432
aS'you'
p433
aS'have'
p434
aS'to'
p435
aS'get'
p436
aS'a'
p437
aS'stick'
p438
aS'before'
p439
aS'you'
p440
aS'go'
p441
aS'near'
p442
aS'it'
p443
aS'.'
p444
asg52
(lp445
VI
p446
aVknow
p447
aVyour
p448
aVkind
p449
ag60
aVsay
p450
aVthe
p451
aVmaster
p452
ag60
aVyou
p453
aVhave
p454
aVcourage
p455
aVenough
p456
aVto
p457
aVchase
p458
ag71
aVblackbird
p459
aVabout
p460
aVthe
p461
aVfield
p462
ag60
aVbut
p463
aVwhen
p464
aVyou
p465
aVsee
p466
ag71
aVhen
p467
aVlie
p468
aVdead
p469
ag60
aVyou
p470
aVhave
p471
aVto
p472
aVget
p473
ag71
aVstick
p474
aVbefore
p475
aVyou
p476
aVgo
p477
aVnear
p478
aVit
p479
ag83
asg84
(lp480
g86
ag86
ag86
ag86
ag86
ag86
ag86
ag86
ag86
ag86
ag86
ag86
ag86
ag86
ag86
ag86
ag86
ag86
ag86
ag86
ag86
ag86
ag86
ag86
ag86
ag86
ag86
ag86
ag86
ag86
ag86
ag86
ag86
ag86
ag86
ag86
ag86
ag86
ag86
ag86
ag86
ag86
asg87
(lp481
g99
ag100
ag232
ag102
ag93
ag95
ag101
ag102
ag93
ag99
ag100
ag102
ag92
ag231
ag230
ag101
ag102
ag96
ag101
ag91
ag93
ag90
ag94
ag99
ag100
ag101
ag102
ag97
ag102
ag93
ag99
ag100
ag231
ag230
ag101
ag102
ag96
ag99
ag100
ag96
ag99
ag104
asg105
VI know your kind, said the master, you have courage enough to chase a blackbird about the fields, but when you see a hen lying dead, you have to get a stick before you go near it.
p482
sba(i__main__
Sentence
p483
(dp484
g17
I4
sg18
(lp485
S'I'
p486
aS'must'
p487
aS'go'
p488
aS'and'
p489
aS'see'
p490
aS'for'
p491
aS'myself'
p492
aS'what'
p493
aS'kind'
p494
aS'of'
p495
aS'a'
p496
aS'monster'
p497
aS'it'
p498
aS'is'
p499
aS','
p500
aS'added'
p501
aS'the'
p502
aS'master'
p503
aS','
p504
aS'and'
p505
aS'went'
p506
aS'quite'
p507
aS'boldly'
p508
aS'into'
p509
aS'the'
p510
aS'granary'
p511
aS'and'
p512
aS'looked'
p513
aS'round'
p514
aS'him'
p515
aS'.'
p516
asg52
(lp517
g446
aVmust
p518
aVgo
p519
aVand
p520
aVsee
p521
aVfor
p522
aVmyself
p523
aVwhat
p524
aVkind
p525
aVof
p526
ag71
aVmonster
p527
aVit
p528
aVbe
p529
ag60
aVadd
p530
aVthe
p531
aVmaster
p532
ag60
aVand
p533
aVgo
p534
aVquite
p535
aVboldly
p536
aVinto
p537
aVthe
p538
aVgranary
p539
aVand
p540
aVlook
p541
aVround
p542
aVhim
p543
ag83
asg84
(lp544
g86
ag86
ag86
ag86
ag86
ag86
ag86
ag86
ag86
ag86
ag86
ag86
ag86
ag86
ag86
ag86
ag86
ag86
ag86
ag86
ag86
ag86
ag86
ag86
ag86
ag86
ag86
ag86
ag86
ag86
ag86
asg87
(lp545
g99
ag397
ag230
ag90
ag230
ag96
ag99
aS'WP'
p546
ag102
ag96
ag101
ag102
ag99
aS'VBZ'
p547
ag93
ag103
ag101
ag102
ag93
ag90
ag95
ag92
ag92
ag96
ag101
ag98
ag90
ag95
ag102
ag99
ag104
asg105
VI must go and see for myself what kind of a monster it is, added the master, and went quite boldly into the granary and looked round him.
p548
sba(i__main__
Sentence
p549
(dp550
g17
I5
sg18
(lp551
S'When'
p552
aS','
p553
aS'however'
p554
aS','
p555
aS'he'
p556
aS'saw'
p557
aS'with'
p558
aS'his'
p559
aS'own'
p560
aS'eyes'
p561
aS'the'
p562
aS'strange'
p563
aS'grim'
p564
aS'creature'
p565
aS','
p566
aS'he'
p567
aS'was'
p568
aS'no'
p569
aS'less'
p570
aS'terrified'
p571
aS'than'
p572
aS'the'
p573
aS'servant'
p574
aS'had'
p575
aS'been'
p576
aS'.'
p577
asg52
(lp578
VWhen
p579
ag60
aVhowever
p580
ag60
aVhe
p581
aVsaw
p582
aVwith
p583
aVhis
p584
aVown
p585
aVeye
p586
aVthe
p587
aVstrange
p588
aVgrim
p589
aVcreature
p590
ag60
aVhe
p591
ag338
aVno
p592
aVless
p593
aVterrify
p594
aVthan
p595
aVthe
p596
aVservant
p597
ag184
aVbe
p598
ag83
asg84
(lp599
g86
ag86
ag86
ag86
ag86
ag86
ag86
ag86
ag86
ag86
ag86
ag86
ag86
ag86
ag86
ag86
ag86
ag86
ag86
ag86
ag86
ag86
ag86
ag86
ag86
ag86
asg87
(lp600
g94
ag93
ag92
ag93
ag99
ag95
ag96
ag232
ag98
ag91
ag101
ag102
ag102
ag102
ag93
ag99
ag95
ag101
aS'JJR'
p601
ag103
ag96
ag101
ag102
ag95
ag103
ag104
asg105
VWhen, however, he saw with his own eyes the strange grim creature, he was no less terrified than the servant had been.
p602
sba(i__main__
Sentence
p603
(dp604
g17
I6
sg18
(lp605
S'With'
p606
aS'two'
p607
aS'bounds'
p608
aS'he'
p609
aS'sprang'
p610
aS'out'
p611
aS','
p612
aS'ran'
p613
aS'to'
p614
aS'his'
p615
aS'neighbours'
p616
aS','
p617
aS'and'
p618
aS'begged'
p619
aS'them'
p620
aS'imploringly'
p621
aS'to'
p622
aS'lend'
p623
aS'him'
p624
aS'assistance'
p625
aS'against'
p626
aS'an'
p627
aS'unknown'
p628
aS'and'
p629
aS'dangerous'
p630
aS'beast'
p631
aS','
p632
aS'or'
p633
aS'else'
p634
aS'the'
p635
aS'whole'
p636
aS'town'
p637
aS'might'
p638
aS'be'
p639
aS'in'
p640
aS'danger'
p641
aS'if'
p642
aS'it'
p643
aS'were'
p644
aS'to'
p645
aS'break'
p646
aS'loose'
p647
aS'out'
p648
aS'of'
p649
aS'the'
p650
aS'barn'
p651
aS','
p652
aS'where'
p653
aS'it'
p654
aS'was'
p655
aS'shut'
p656
aS'up'
p657
aS'.'
p658
asg52
(lp659
VWith
p660
aVtwo
p661
aVbound
p662
aVhe
p663
aVspring
p664
aVout
p665
ag60
ag354
aVto
p666
aVhis
p667
aVneighbour
p668
ag60
aVand
p669
aVbeg
p670
aVthem
p671
aVimploringly
p672
aVto
p673
aVlend
p674
aVhim
p675
aVassistance
p676
aVagainst
p677
aVan
p678
aVunknown
p679
aVand
p680
aVdangerous
p681
aVbeast
p682
ag60
aVor
p683
aVelse
p684
aVthe
p685
aVwhole
p686
aVtown
p687
aVmight
p688
aVbe
p689
aVin
p690
aVdanger
p691
aVif
p692
aVit
p693
ag63
aVto
p694
aVbreak
p695
aVloose
p696
aVout
p697
aVof
p698
aVthe
p699
aVbarn
p700
ag60
aVwhere
p701
aVit
p702
ag338
aVshut
p703
aVup
p704
ag83
asg84
(lp705
g86
ag86
ag86
ag86
ag86
ag86
ag86
ag86
ag86
ag86
ag86
ag86
ag86
ag86
ag86
ag86
ag86
ag86
ag86
ag86
ag86
ag86
ag86
ag86
ag86
ag86
ag86
ag86
ag86
ag86
ag86
ag86
ag86
ag86
ag86
ag86
ag86
ag86
ag86
ag86
ag86
ag86
ag86
ag86
ag86
ag86
ag86
ag86
ag86
ag86
ag86
ag86
ag86
asg87
(lp706
g96
ag89
ag91
ag99
ag100
aS'RP'
p707
ag93
ag95
ag231
ag232
ag91
ag93
ag90
ag95
ag99
ag92
ag231
ag230
ag99
ag102
ag96
ag101
ag102
ag90
ag98
ag102
ag93
ag90
ag92
ag101
ag98
ag102
ag397
ag230
ag96
ag601
ag96
ag99
ag95
ag231
ag230
ag98
ag96
ag96
ag101
ag102
ag93
ag94
ag99
ag95
ag103
ag707
ag104
asg105
VWith two bounds he sprang out, ran to his neighbours, and begged them imploringly to lend him assistance against an unknown and dangerous beast, or else the whole town might be in danger if it were to break loose out of the barn, where it was shut up.
p708
sba(i__main__
Sentence
p709
(dp710
g17
I7
sg18
(lp711
S'A'
p712
aS'great'
p713
aS'noise'
p714
aS'and'
p715
aS'clamor'
p716
aS'arose'
p717
aS'in'
p718
aS'all'
p719
aS'the'
p720
aS'streets'
p721
aS','
p722
aS'the'
p723
aS'townsmen'
p724
aS'came'
p725
aS'armed'
p726
aS'with'
p727
aS'spears'
p728
aS','
p729
aS'hay-forks'
p730
aS','
p731
aS'scythes'
p732
aS','
p733
aS'and'
p734
aS'axes'
p735
aS','
p736
aS'as'
p737
aS'if'
p738
aS'they'
p739
aS'were'
p740
aS'going'
p741
aS'out'
p742
aS'against'
p743
aS'an'
p744
aS'enemy'
p745
aS'.'
p746
asg52
(lp747
VA
p748
aVgreat
p749
aVnoise
p750
aVand
p751
aVclamor
p752
aVarose
p753
aVin
p754
aVall
p755
aVthe
p756
aVstreet
p757
ag60
aVthe
p758
aVtownsman
p759
aVcome
p760
aVarm
p761
aVwith
p762
aVspear
p763
ag60
aVhay-forks
p764
ag60
aVscythe
p765
ag60
aVand
p766
aVax
p767
ag60
ag71
aVif
p768
aVthey
p769
ag63
aVgo
p770
aVout
p771
aVagainst
p772
aVan
p773
aVenemy
p774
ag83
asg84
(lp775
g86
ag86
ag86
ag86
ag86
ag86
ag86
ag86
ag86
ag86
ag86
ag86
ag86
ag86
ag86
ag86
ag86
ag86
ag86
ag86
ag86
ag86
ag86
ag86
ag86
ag86
ag86
ag86
ag86
ag86
ag86
ag86
ag86
ag86
ag86
asg87
(lp776
g101
ag98
ag102
ag90
ag102
ag102
ag96
ag101
ag101
ag91
ag93
ag101
ag91
ag95
ag103
ag96
ag91
ag93
ag91
ag93
ag91
ag93
ag90
ag91
ag93
ag96
ag96
ag99
ag95
ag97
ag96
ag96
ag101
ag102
ag104
asg105
VA great noise and clamor arose in all the streets, the townsmen came armed with spears, hay-forks, scythes, and axes, as if they were going out against an enemy.
p777
sba(i__main__
Sentence
p778
(dp779
g17
I8
sg18
(lp780
S'Finally'
p781
aS','
p782
aS'the'
p783
aS'senators'
p784
aS'appeared'
p785
aS'with'
p786
aS'the'
p787
aS'burgomaster'
p788
aS'at'
p789
aS'their'
p790
aS'head'
p791
aS'.'
p792
asg52
(lp793
VFinally
p794
ag60
aVthe
p795
aVsenator
p796
aVappear
p797
aVwith
p798
aVthe
p799
aVburgomaster
p800
aVat
p801
aVtheir
p802
aVhead
p803
ag83
asg84
(lp804
g86
ag86
ag86
ag86
ag86
ag86
ag86
ag86
ag86
ag86
ag86
ag86
asg87
(lp805
g92
ag93
ag101
ag91
ag95
ag96
ag101
ag102
ag96
ag232
ag102
ag104
asg105
VFinally, the senators appeared with the burgomaster at their head.
p806
sba(i__main__
Sentence
p807
(dp808
g17
I9
sg18
(lp809
S'When'
p810
aS'they'
p811
aS'had'
p812
aS'drawn'
p813
aS'up'
p814
aS'in'
p815
aS'the'
p816
aS'market-place'
p817
aS','
p818
aS'they'
p819
aS'marched'
p820
aS'to'
p821
aS'the'
p822
aS'barn'
p823
aS','
p824
aS'and'
p825
aS'surrounded'
p826
aS'it'
p827
aS'on'
p828
aS'all'
p829
aS'sides'
p830
aS'.'
p831
asg52
(lp832
VWhen
p833
aVthey
p834
ag184
aVdraw
p835
aVup
p836
aVin
p837
aVthe
p838
aVmarket-place
p839
ag60
aVthey
p840
aVmarch
p841
aVto
p842
aVthe
p843
aVbarn
p844
ag60
aVand
p845
aVsurround
p846
aVit
p847
aVon
p848
aVall
p849
aVside
p850
ag83
asg84
(lp851
g86
ag86
ag86
ag86
ag86
ag86
ag86
ag86
ag86
ag86
ag86
ag86
ag86
ag86
ag86
ag86
ag86
ag86
ag86
ag86
ag86
ag86
asg87
(lp852
g94
ag99
ag95
ag103
ag707
ag96
ag101
ag102
ag93
ag99
ag95
ag231
ag101
ag102
ag93
ag90
ag95
ag99
ag96
aS'PDT'
p853
ag91
ag104
asg105
VWhen they had drawn up in the market-place, they marched to the barn, and surrounded it on all sides.
p854
sba(i__main__
Sentence
p855
(dp856
g17
I10
sg18
(lp857
S'Thereupon'
p858
aS'one'
p859
aS'of'
p860
aS'the'
p861
aS'most'
p862
aS'courageous'
p863
aS'of'
p864
aS'them'
p865
aS'stepped'
p866
aS'forth'
p867
aS'and'
p868
aS'entered'
p869
aS'with'
p870
aS'his'
p871
aS'spear'
p872
aS'lowered'
p873
aS','
p874
aS'but'
p875
aS'came'
p876
aS'running'
p877
aS'out'
p878
aS'immediately'
p879
aS'afterwards'
p880
aS'with'
p881
aS'a'
p882
aS'shriek'
p883
aS'and'
p884
aS'as'
p885
aS'pale'
p886
aS'as'
p887
aS'death'
p888
aS','
p889
aS'and'
p890
aS'could'
p891
aS'not'
p892
aS'utter'
p893
aS'a'
p894
aS'single'
p895
aS'word'
p896
aS'.'
p897
asg52
(lp898
VThereupon
p899
aVone
p900
aVof
p901
aVthe
p902
aVmost
p903
aVcourageous
p904
aVof
p905
aVthem
p906
aVstep
p907
aVforth
p908
aVand
p909
aVenter
p910
aVwith
p911
aVhis
p912
aVspear
p913
aVlower
p914
ag60
aVbut
p915
ag760
aVrun
p916
aVout
p917
aVimmediately
p918
aVafterwards
p919
aVwith
p920
ag71
aVshriek
p921
aVand
p922
ag71
aVpale
p923
ag71
aVdeath
p924
ag60
aVand
p925
aVcould
p926
aVnot
p927
aVutter
p928
ag71
aVsingle
p929
aVword
p930
ag83
asg84
(lp931
g86
ag86
ag86
ag86
ag86
ag86
ag86
ag86
ag86
ag86
ag86
ag86
ag86
ag86
ag86
ag86
ag86
ag86
ag86
ag86
ag86
ag86
ag86
ag86
ag86
ag86
ag86
ag86
ag86
ag86
ag86
ag86
ag86
ag86
ag86
ag86
ag86
ag86
ag86
ag86
asg87
(lp932
S'NNP'
p933
ag89
ag96
ag101
aS'RBS'
p934
ag98
ag96
ag99
ag95
ag98
ag90
ag95
ag96
ag232
ag98
ag103
ag93
ag90
ag95
ag97
ag96
ag92
ag91
ag96
ag101
ag102
ag90
ag96
ag102
ag96
ag102
ag93
ag90
ag397
ag92
ag230
ag101
ag98
ag102
ag104
asg105
VThereupon one of the most courageous of them stepped forth and entered with his spear lowered, but came running out immediately afterwards with a shriek and as pale as death, and could not utter a single word.
p935
sba(i__main__
Sentence
p936
(dp937
g17
I11
sg18
(lp938
S'Yet'
p939
aS'two'
p940
aS'others'
p941
aS'ventured'
p942
aS'in'
p943
aS','
p944
aS'but'
p945
aS'they'
p946
aS'fared'
p947
aS'no'
p948
aS'better'
p949
aS'.'
p950
asg52
(lp951
VYet
p952
aVtwo
p953
aVothers
p954
aVventure
p955
aVin
p956
ag60
aVbut
p957
aVthey
p958
aVfare
p959
aVno
p960
aVgood
p961
ag83
asg84
(lp962
g86
ag86
ag86
ag86
ag86
ag86
ag86
ag86
ag86
ag86
ag86
ag86
asg87
(lp963
g90
ag89
ag91
ag95
ag96
ag93
ag90
ag99
ag95
ag101
ag601
ag104
asg105
VYet two others ventured in, but they fared no better.
p964
sba(i__main__
Sentence
p965
(dp966
g17
I12
sg18
(lp967
S'At'
p968
aS'last'
p969
aS'one'
p970
aS'stepped'
p971
aS'forth'
p972
aS','
p973
aS'a'
p974
aS'great'
p975
aS'strong'
p976
aS'man'
p977
aS'who'
p978
aS'was'
p979
aS'famous'
p980
aS'for'
p981
aS'his'
p982
aS'warlike'
p983
aS'deeds'
p984
aS','
p985
aS'and'
p986
aS'said'
p987
aS','
p988
aS'you'
p989
aS'will'
p990
aS'not'
p991
aS'drive'
p992
aS'away'
p993
aS'the'
p994
aS'monster'
p995
aS'by'
p996
aS'merely'
p997
aS'looking'
p998
aS'at'
p999
aS'him'
p1000
aS','
p1001
aS'we'
p1002
aS'must'
p1003
aS'be'
p1004
aS'in'
p1005
aS'earnest'
p1006
aS'here'
p1007
aS','
p1008
aS'but'
p1009
aS'I'
p1010
aS'see'
p1011
aS'that'
p1012
aS'you'
p1013
aS'have'
p1014
aS'all'
p1015
aS'tuned'
p1016
aS'into'
p1017
aS'women'
p1018
aS','
p1019
aS'and'
p1020
aS'not'
p1021
aS'one'
p1022
aS'of'
p1023
aS'you'
p1024
aS'dares'
p1025
aS'to'
p1026
aS'encounter'
p1027
aS'the'
p1028
aS'animal'
p1029
aS'.'
p1030
asg52
(lp1031
VAt
p1032
aVlast
p1033
aVone
p1034
ag907
aVforth
p1035
ag60
ag71
aVgreat
p1036
aVstrong
p1037
aVman
p1038
aVwho
p1039
ag338
aVfamous
p1040
aVfor
p1041
aVhis
p1042
aVwarlike
p1043
aVdeed
p1044
ag60
aVand
p1045
ag450
ag60
aVyou
p1046
aVwill
p1047
aVnot
p1048
aVdrive
p1049
aVaway
p1050
aVthe
p1051
aVmonster
p1052
aVby
p1053
aVmerely
p1054
aVlook
p1055
aVat
p1056
aVhim
p1057
ag60
aVwe
p1058
aVmust
p1059
aVbe
p1060
aVin
p1061
aVearnest
p1062
aVhere
p1063
ag60
aVbut
p1064
ag446
aVsee
p1065
aVthat
p1066
aVyou
p1067
aVhave
p1068
aVall
p1069
aVtune
p1070
aVinto
p1071
aVwoman
p1072
ag60
aVand
p1073
aVnot
p1074
aVone
p1075
aVof
p1076
aVyou
p1077
aVdare
p1078
aVto
p1079
aVencounter
p1080
aVthe
p1081
aVanimal
p1082
ag83
asg84
(lp1083
g86
ag86
ag86
ag86
ag86
ag86
ag86
ag86
ag86
ag86
ag86
ag86
ag86
ag86
ag86
ag86
ag86
ag86
ag86
ag86
ag86
ag86
ag86
ag86
ag86
ag86
ag86
ag86
ag86
ag86
ag86
ag86
ag86
ag86
ag86
ag86
ag86
ag86
ag86
ag86
ag86
ag86
ag86
ag86
ag86
ag86
ag86
ag86
ag86
ag86
ag86
ag86
ag86
ag86
ag86
ag86
ag86
ag86
ag86
ag86
ag86
ag86
ag86
asg87
(lp1084
g96
ag98
ag89
ag95
ag98
ag93
ag101
ag98
ag98
ag102
ag546
ag95
ag98
ag96
ag232
ag102
ag91
ag93
ag90
ag95
ag93
ag99
ag397
ag92
ag230
ag92
ag101
ag102
ag96
ag92
ag97
ag96
ag99
ag93
ag99
ag397
ag230
ag96
ag398
ag92
ag93
ag90
ag99
ag100
ag96
ag99
ag100
ag101
ag103
ag96
ag91
ag93
ag90
ag92
ag89
ag96
ag99
ag547
ag231
ag601
ag101
ag98
ag104
asg105
VAt last one stepped forth, a great strong man who was famous for his warlike deeds, and said, you will not drive away the monster by merely looking at him, we must be in earnest here, but I see that you have all tuned into women, and not one of you dares to encounter the animal.
p1085
sba(i__main__
Sentence
p1086
(dp1087
g17
I13
sg18
(lp1088
S'He'
p1089
aS'ordered'
p1090
aS'them'
p1091
aS'to'
p1092
aS'give'
p1093
aS'him'
p1094
aS'some'
p1095
aS'armor'
p1096
aS','
p1097
aS'had'
p1098
aS'a'
p1099
aS'sword'
p1100
aS'and'
p1101
aS'spear'
p1102
aS'brought'
p1103
aS','
p1104
aS'and'
p1105
aS'armed'
p1106
aS'himself'
p1107
aS'.'
p1108
asg52
(lp1109
VHe
p1110
aVorder
p1111
aVthem
p1112
aVto
p1113
aVgive
p1114
aVhim
p1115
aVsome
p1116
aVarmor
p1117
ag60
ag184
ag71
aVsword
p1118
aVand
p1119
aVspear
p1120
aVbrought
p1121
ag60
aVand
p1122
aVarm
p1123
aVhimself
p1124
ag83
asg84
(lp1125
g86
ag86
ag86
ag86
ag86
ag86
ag86
ag86
ag86
ag86
ag86
ag86
ag86
ag86
ag86
ag86
ag86
ag86
ag86
ag86
asg87
(lp1126
g99
ag95
ag99
ag231
ag230
ag99
ag101
ag102
ag93
ag95
ag101
ag102
ag90
ag98
ag102
ag93
ag90
ag95
ag99
ag104
asg105
VHe ordered them to give him some armor, had a sword and spear brought, and armed himself.
p1127
sba(i__main__
Sentence
p1128
(dp1129
g17
I14
sg18
(lp1130
S'All'
p1131
aS'praised'
p1132
aS'his'
p1133
aS'courage'
p1134
aS','
p1135
aS'though'
p1136
aS'many'
p1137
aS'feared'
p1138
aS'for'
p1139
aS'his'
p1140
aS'life'
p1141
aS'.'
p1142
asg52
(lp1143
VAll
p1144
aVpraise
p1145
aVhis
p1146
aVcourage
p1147
ag60
aVthough
p1148
aVmany
p1149
aVfear
p1150
aVfor
p1151
aVhis
p1152
aVlife
p1153
ag83
asg84
(lp1154
g86
ag86
ag86
ag86
ag86
ag86
ag86
ag86
ag86
ag86
ag86
ag86
asg87
(lp1155
g101
ag95
ag232
ag102
ag93
ag96
ag98
ag103
ag96
ag232
ag102
ag104
asg105
VAll praised his courage, though many feared for his life.
p1156
sba(i__main__
Sentence
p1157
(dp1158
g17
I15
sg18
(lp1159
S'The'
p1160
aS'two'
p1161
aS'barn-doors'
p1162
aS'were'
p1163
aS'opened'
p1164
aS','
p1165
aS'and'
p1166
aS'they'
p1167
aS'saw'
p1168
aS'the'
p1169
aS'owl'
p1170
aS','
p1171
aS'which'
p1172
aS'in'
p1173
aS'the'
p1174
aS'meantime'
p1175
aS'had'
p1176
aS'perched'
p1177
aS'herself'
p1178
aS'on'
p1179
aS'the'
p1180
aS'middle'
p1181
aS'of'
p1182
aS'a'
p1183
aS'great'
p1184
aS'cross-beam'
p1185
aS'.'
p1186
asg52
(lp1187
VThe
p1188
aVtwo
p1189
aVbarn-doors
p1190
ag63
aVopen
p1191
ag60
aVand
p1192
aVthey
p1193
aVsaw
p1194
aVthe
p1195
aVowl
p1196
ag60
aVwhich
p1197
aVin
p1198
aVthe
p1199
aVmeantime
p1200
ag184
aVperch
p1201
aVherself
p1202
aVon
p1203
aVthe
p1204
aVmiddle
p1205
aVof
p1206
ag71
aVgreat
p1207
aVcross-beam
p1208
ag83
asg84
(lp1209
g86
ag86
ag86
ag86
ag86
ag86
ag86
ag86
ag86
ag86
ag86
ag86
ag86
ag86
ag86
ag86
ag86
ag86
ag86
ag86
ag86
ag86
ag86
ag86
ag86
ag86
ag86
asg87
(lp1210
g101
ag89
ag91
ag95
ag103
ag93
ag90
ag99
ag95
ag101
ag102
ag93
ag233
ag96
ag101
ag102
ag95
ag103
ag99
ag96
ag101
ag102
ag96
ag101
ag98
ag102
ag104
asg105
VThe two barn-doors were opened, and they saw the owl, which in the meantime had perched herself on the middle of a great cross-beam.
p1211
sba(i__main__
Sentence
p1212
(dp1213
g17
I16
sg18
(lp1214
S'He'
p1215
aS'had'
p1216
aS'a'
p1217
aS'ladder'
p1218
aS'brought'
p1219
aS','
p1220
aS'and'
p1221
aS'when'
p1222
aS'he'
p1223
aS'raised'
p1224
aS'it'
p1225
aS','
p1226
aS'and'
p1227
aS'made'
p1228
aS'ready'
p1229
aS'to'
p1230
aS'climb'
p1231
aS'up'
p1232
aS','
p1233
aS'they'
p1234
aS'all'
p1235
aS'cried'
p1236
aS'out'
p1237
aS'to'
p1238
aS'him'
p1239
aS'that'
p1240
aS'he'
p1241
aS'was'
p1242
aS'to'
p1243
aS'bear'
p1244
aS'himself'
p1245
aS'bravely'
p1246
aS','
p1247
aS'and'
p1248
aS'commended'
p1249
aS'him'
p1250
aS'to'
p1251
aS'St.'
p1252
aS'George'
p1253
aS','
p1254
aS'who'
p1255
aS'slew'
p1256
aS'the'
p1257
aS'dragon'
p1258
aS'.'
p1259
asg52
(lp1260
VHe
p1261
ag184
ag71
aVladder
p1262
aVbring
p1263
ag60
aVand
p1264
aVwhen
p1265
aVhe
p1266
aVraise
p1267
aVit
p1268
ag60
aVand
p1269
aVmake
p1270
aVready
p1271
aVto
p1272
aVclimb
p1273
aVup
p1274
ag60
aVthey
p1275
aVall
p1276
aVcry
p1277
aVout
p1278
aVto
p1279
aVhim
p1280
aVthat
p1281
aVhe
p1282
ag338
aVto
p1283
aVbear
p1284
aVhimself
p1285
aVbravely
p1286
ag60
aVand
p1287
aVcommend
p1288
aVhim
p1289
aVto
p1290
aVSt.
p1291
aVGeorge
p1292
ag60
aVwho
p1293
aVslew
p1294
aVthe
p1295
aVdragon
p1296
ag83
asg84
(lp1297
g86
ag86
ag86
ag86
ag86
ag86
ag86
ag86
ag86
ag86
ag86
ag86
ag86
ag86
ag86
ag86
ag86
ag86
ag86
ag86
ag86
ag86
ag86
ag86
ag86
ag86
ag86
ag86
ag86
ag86
ag86
ag86
ag86
ag86
ag86
ag86
ag86
aVPERSON
p1298
aVPERSON
p1299
ag86
ag86
ag86
ag86
ag86
ag86
asg87
(lp1300
g99
ag95
ag101
ag102
ag103
ag93
ag90
ag94
ag99
ag95
ag99
ag93
ag90
ag95
ag92
ag231
ag230
ag707
ag93
ag99
ag100
ag103
ag707
ag231
ag99
ag96
ag99
ag95
ag231
ag230
ag99
ag92
ag93
ag90
ag95
ag99
ag231
ag933
ag933
ag93
ag546
ag92
ag101
ag102
ag104
asg105
VHe had a ladder brought, and when he raised it, and made ready to climb up, they all cried out to him that he was to bear himself bravely, and commended him to St. George, who slew the dragon.
p1301
sba(i__main__
Sentence
p1302
(dp1303
g17
I17
sg18
(lp1304
S'When'
p1305
aS'he'
p1306
aS'had'
p1307
aS'just'
p1308
aS'got'
p1309
aS'to'
p1310
aS'the'
p1311
aS'top'
p1312
aS','
p1313
aS'and'
p1314
aS'the'
p1315
aS'owl'
p1316
aS'perceived'
p1317
aS'that'
p1318
aS'he'
p1319
aS'had'
p1320
aS'designs'
p1321
aS'on'
p1322
aS'her'
p1323
aS','
p1324
aS'and'
p1325
aS'was'
p1326
aS'also'
p1327
aS'bewildered'
p1328
aS'by'
p1329
aS'the'
p1330
aS'crowd'
p1331
aS'and'
p1332
aS'the'
p1333
aS'shouting'
p1334
aS','
p1335
aS'and'
p1336
aS'knew'
p1337
aS'not'
p1338
aS'how'
p1339
aS'to'
p1340
aS'escape'
p1341
aS','
p1342
aS'she'
p1343
aS'rolled'
p1344
aS'her'
p1345
aS'eyes'
p1346
aS','
p1347
aS'ruffled'
p1348
aS'her'
p1349
aS'feathers'
p1350
aS','
p1351
aS'flapped'
p1352
aS'her'
p1353
aS'wings'
p1354
aS','
p1355
aS'snapped'
p1356
aS'her'
p1357
aS'beak'
p1358
aS','
p1359
aS'and'
p1360
aS'cried'
p1361
aS','
p1362
aS'tuwhit'
p1363
aS','
p1364
aS'tuwhoo'
p1365
aS','
p1366
aS'in'
p1367
aS'a'
p1368
aS'harsh'
p1369
aS'voice'
p1370
aS'.'
p1371
asg52
(lp1372
VWhen
p1373
aVhe
p1374
ag184
aVjust
p1375
aVget
p1376
aVto
p1377
aVthe
p1378
aVtop
p1379
ag60
aVand
p1380
aVthe
p1381
aVowl
p1382
aVperceive
p1383
aVthat
p1384
aVhe
p1385
ag184
aVdesign
p1386
aVon
p1387
aVher
p1388
ag60
aVand
p1389
ag338
aValso
p1390
aVbewilder
p1391
aVby
p1392
aVthe
p1393
aVcrowd
p1394
aVand
p1395
aVthe
p1396
aVshouting
p1397
ag60
aVand
p1398
aVknow
p1399
aVnot
p1400
aVhow
p1401
aVto
p1402
aVescape
p1403
ag60
aVshe
p1404
aVroll
p1405
aVher
p1406
aVeye
p1407
ag60
aVruffle
p1408
aVher
p1409
aVfeather
p1410
ag60
aVflap
p1411
aVher
p1412
aVwing
p1413
ag60
aVsnap
p1414
aVher
p1415
aVbeak
p1416
ag60
aVand
p1417
ag1277
ag60
aVtuwhit
p1418
ag60
aVtuwhoo
p1419
ag60
aVin
p1420
ag71
aVharsh
p1421
aVvoice
p1422
ag83
asg84
(lp1423
g86
ag86
ag86
ag86
ag86
ag86
ag86
ag86
ag86
ag86
ag86
ag86
ag86
ag86
ag86
ag86
ag86
ag86
ag86
ag86
ag86
ag86
ag86
ag86
ag86
ag86
ag86
ag86
ag86
ag86
ag86
ag86
ag86
ag86
ag86
ag86
ag86
ag86
ag86
ag86
ag86
ag86
ag86
ag86
ag86
ag86
ag86
ag86
ag86
ag86
ag86
ag86
ag86
ag86
ag86
ag86
ag86
ag86
ag86
ag86
ag86
ag86
ag86
ag86
ag86
ag86
ag86
asg87
(lp1424
g94
ag99
ag95
ag92
ag103
ag231
ag101
ag98
ag93
ag90
ag101
ag102
ag95
ag96
ag99
ag95
ag91
ag96
ag232
ag93
ag90
ag95
ag92
ag103
ag96
ag101
ag102
ag90
ag101
ag102
ag93
ag90
ag95
ag92
ag94
ag231
ag230
ag93
ag99
ag95
ag232
ag91
ag93
ag95
ag99
ag91
ag93
ag95
ag99
ag91
ag93
ag95
ag99
ag100
ag93
ag90
ag95
ag93
ag102
ag93
ag92
ag93
ag96
ag101
ag98
ag102
ag104
asg105
VWhen he had just got to the top, and the owl perceived that he had designs on her, and was also bewildered by the crowd and the shouting, and knew not how to escape, she rolled her eyes, ruffled her feathers, flapped her wings, snapped her beak, and cried, tuwhit, tuwhoo, in a harsh voice.
p1425
sba(i__main__
Sentence
p1426
(dp1427
g17
I18
sg18
(lp1428
S'Strike'
p1429
aS'home'
p1430
aS'.'
p1431
asg52
(lp1432
VStrike
p1433
aVhome
p1434
ag83
asg84
(lp1435
g86
ag86
ag86
asg87
(lp1436
g933
ag102
ag104
asg105
VStrike home.
p1437
sba(i__main__
Sentence
p1438
(dp1439
g17
I19
sg18
(lp1440
S'Strike'
p1441
aS'home'
p1442
aS'.'
p1443
asg52
(lp1444
VStrike
p1445
aVhome
p1446
ag83
asg84
(lp1447
g86
ag86
ag86
asg87
(lp1448
g933
ag102
ag104
asg105
VStrike home.
p1449
sba(i__main__
Sentence
p1450
(dp1451
g17
I20
sg18
(lp1452
S'Screamed'
p1453
aS'the'
p1454
aS'crowd'
p1455
aS'outside'
p1456
aS'to'
p1457
aS'the'
p1458
aS'valiant'
p1459
aS'hero'
p1460
aS'.'
p1461
asg52
(lp1462
VScreamed
p1463
aVthe
p1464
aVcrowd
p1465
aVoutside
p1466
aVto
p1467
aVthe
p1468
aVvaliant
p1469
aVhero
p1470
ag83
asg84
(lp1471
g86
ag86
ag86
ag86
ag86
ag86
ag86
ag86
ag86
asg87
(lp1472
g933
ag101
ag102
ag96
ag231
ag101
ag102
ag102
ag104
asg105
VScreamed the crowd outside to the valiant hero.
p1473
sba(i__main__
Sentence
p1474
(dp1475
g17
I21
sg18
(lp1476
S'Any'
p1477
aS'one'
p1478
aS'who'
p1479
aS'was'
p1480
aS'standing'
p1481
aS'where'
p1482
aS'I'
p1483
aS'am'
p1484
aS'standing'
p1485
aS','
p1486
aS'answered'
p1487
aS'he'
p1488
aS','
p1489
aS'would'
p1490
aS'not'
p1491
aS'cry'
p1492
aS','
p1493
aS'strike'
p1494
aS'home'
p1495
aS'.'
p1496
asg52
(lp1497
VAny
p1498
aVone
p1499
aVwho
p1500
ag338
aVstand
p1501
aVwhere
p1502
ag446
aVbe
p1503
aVstand
p1504
ag60
aVanswer
p1505
aVhe
p1506
ag60
aVwould
p1507
aVnot
p1508
aVcry
p1509
ag60
aVstrike
p1510
aVhome
p1511
ag83
asg84
(lp1512
g86
ag86
ag86
ag86
ag86
ag86
ag86
ag86
ag86
ag86
ag86
ag86
ag86
ag86
ag86
ag86
ag86
ag86
ag86
ag86
asg87
(lp1513
g101
ag89
ag546
ag95
ag97
ag94
ag99
ag100
ag97
ag93
ag103
ag99
ag93
ag397
ag92
ag230
ag93
ag96
ag102
ag104
asg105
VAny one who was standing where I am standing, answered he, would not cry, strike home.
p1514
sba(i__main__
Sentence
p1515
(dp1516
g17
I22
sg18
(lp1517
S'He'
p1518
aS'certainly'
p1519
aS'did'
p1520
aS'plant'
p1521
aS'his'
p1522
aS'foot'
p1523
aS'one'
p1524
aS'rung'
p1525
aS'higher'
p1526
aS'on'
p1527
aS'the'
p1528
aS'ladder'
p1529
aS','
p1530
aS'but'
p1531
aS'then'
p1532
aS'he'
p1533
aS'began'
p1534
aS'to'
p1535
aS'tremble'
p1536
aS','
p1537
aS'and'
p1538
aS'half-fainting'
p1539
aS','
p1540
aS'went'
p1541
aS'back'
p1542
aS'again'
p1543
aS'.'
p1544
asg52
(lp1545
VHe
p1546
aVcertainly
p1547
ag205
aVplant
p1548
aVhis
p1549
aVfoot
p1550
aVone
p1551
aVrung
p1552
aVhigh
p1553
aVon
p1554
aVthe
p1555
aVladder
p1556
ag60
aVbut
p1557
aVthen
p1558
aVhe
p1559
aVbegin
p1560
aVto
p1561
aVtremble
p1562
ag60
aVand
p1563
aVhalf-fainting
p1564
ag60
ag534
aVback
p1565
aVagain
p1566
ag83
asg84
(lp1567
g86
ag86
ag86
ag86
ag86
ag86
ag86
ag86
ag86
ag86
ag86
ag86
ag86
ag86
ag86
ag86
ag86
ag86
ag86
ag86
ag86
ag86
ag86
ag86
ag86
ag86
ag86
asg87
(lp1568
g99
ag92
ag95
ag102
ag232
ag102
ag89
ag102
ag601
ag96
ag101
ag102
ag93
ag90
ag92
ag99
ag95
ag231
ag98
ag93
ag90
ag98
ag93
ag95
ag92
ag92
ag104
asg105
VHe certainly did plant his foot one rung higher on the ladder, but then he began to tremble, and half-fainting, went back again.
p1569
sba(i__main__
Sentence
p1570
(dp1571
g17
I23
sg18
(lp1572
S'And'
p1573
aS'now'
p1574
aS'there'
p1575
aS'was'
p1576
aS'no'
p1577
aS'one'
p1578
aS'left'
p1579
aS'who'
p1580
aS'dared'
p1581
aS'to'
p1582
aS'place'
p1583
aS'himself'
p1584
aS'in'
p1585
aS'such'
p1586
aS'danger'
p1587
aS'.'
p1588
asg52
(lp1589
VAnd
p1590
aVnow
p1591
aVthere
p1592
ag338
aVno
p1593
aVone
p1594
aVleave
p1595
aVwho
p1596
aVdare
p1597
aVto
p1598
aVplace
p1599
aVhimself
p1600
aVin
p1601
aVsuch
p1602
aVdanger
p1603
ag83
asg84
(lp1604
g86
ag86
ag86
ag86
ag86
ag86
ag86
ag86
ag86
ag86
ag86
ag86
ag86
ag86
ag86
ag86
asg87
(lp1605
g90
ag92
ag396
ag95
ag101
ag102
ag103
ag546
ag103
ag231
ag230
ag99
ag96
ag98
ag102
ag104
asg105
VAnd now there was no one left who dared to place himself in such danger.
p1606
sba(i__main__
Sentence
p1607
(dp1608
g17
I24
sg18
(lp1609
S'The'
p1610
aS'monster'
p1611
aS','
p1612
aS'said'
p1613
aS'they'
p1614
aS','
p1615
aS'has'
p1616
aS'poisoned'
p1617
aS'and'
p1618
aS'mortally'
p1619
aS'wounded'
p1620
aS'the'
p1621
aS'very'
p1622
aS'strongest'
p1623
aS'man'
p1624
aS'among'
p1625
aS'us'
p1626
aS','
p1627
aS'by'
p1628
aS'snapping'
p1629
aS'at'
p1630
aS'him'
p1631
aS'and'
p1632
aS'just'
p1633
aS'breathing'
p1634
aS'on'
p1635
aS'him'
p1636
aS'.'
p1637
asg52
(lp1638
VThe
p1639
aVmonster
p1640
ag60
ag450
aVthey
p1641
ag60
aVhave
p1642
aVpoison
p1643
aVand
p1644
aVmortally
p1645
aVwound
p1646
aVthe
p1647
aVvery
p1648
aVstrongest
p1649
aVman
p1650
aVamong
p1651
aVu
p1652
ag60
aVby
p1653
aVsnapping
p1654
aVat
p1655
aVhim
p1656
aVand
p1657
aVjust
p1658
aVbreathe
p1659
aVon
p1660
aVhim
p1661
ag83
asg84
(lp1662
g86
ag86
ag86
ag86
ag86
ag86
ag86
ag86
ag86
ag86
ag86
ag86
ag86
ag86
ag86
ag86
ag86
ag86
ag86
ag86
ag86
ag86
ag86
ag86
ag86
ag86
ag86
ag86
asg87
(lp1663
g101
ag102
ag93
ag95
ag99
ag93
ag547
ag103
ag90
ag92
ag95
ag101
ag98
ag102
ag102
ag96
ag99
ag93
ag96
ag102
ag96
ag99
ag90
ag92
ag97
ag96
ag99
ag104
asg105
VThe monster, said they, has poisoned and mortally wounded the very strongest man among us, by snapping at him and just breathing on him.
p1664
sba(i__main__
Sentence
p1665
(dp1666
g17
I25
sg18
(lp1667
S'Are'
p1668
aS'we'
p1669
aS','
p1670
aS'too'
p1671
aS','
p1672
aS'to'
p1673
aS'risk'
p1674
aS'our'
p1675
aS'lives'
p1676
aS'.'
p1677
asg52
(lp1678
VAre
p1679
aVwe
p1680
ag60
aVtoo
p1681
ag60
aVto
p1682
aVrisk
p1683
aVour
p1684
aVlife
p1685
ag83
asg84
(lp1686
g86
ag86
ag86
ag86
ag86
ag86
ag86
ag86
ag86
ag86
asg87
(lp1687
g933
ag99
ag93
ag92
ag93
ag231
ag230
ag232
ag91
ag104
asg105
VAre we, too, to risk our lives.
p1688
sba(i__main__
Sentence
p1689
(dp1690
g17
I26
sg18
(lp1691
S'They'
p1692
aS'took'
p1693
aS'counsel'
p1694
aS'as'
p1695
aS'to'
p1696
aS'what'
p1697
aS'they'
p1698
aS'ought'
p1699
aS'to'
p1700
aS'do'
p1701
aS'to'
p1702
aS'prevent'
p1703
aS'the'
p1704
aS'whole'
p1705
aS'town'
p1706
aS'from'
p1707
aS'being'
p1708
aS'destroyed'
p1709
aS'.'
p1710
asg52
(lp1711
VThey
p1712
ag78
aVcounsel
p1713
ag71
aVto
p1714
aVwhat
p1715
aVthey
p1716
aVought
p1717
aVto
p1718
aVdo
p1719
aVto
p1720
aVprevent
p1721
aVthe
p1722
aVwhole
p1723
aVtown
p1724
aVfrom
p1725
aVbe
p1726
aVdestroy
p1727
ag83
asg84
(lp1728
g86
ag86
ag86
ag86
ag86
ag86
ag86
ag86
ag86
ag86
ag86
ag86
ag86
ag86
ag86
ag86
ag86
ag86
ag86
asg87
(lp1729
g99
ag95
ag102
ag96
ag231
ag546
ag99
ag397
ag231
ag230
ag231
ag230
ag101
ag98
ag102
ag96
ag97
ag103
ag104
asg105
VThey took counsel as to what they ought to do to prevent the whole town from being destroyed.
p1730
sba(i__main__
Sentence
p1731
(dp1732
g17
I27
sg18
(lp1733
S'For'
p1734
aS'a'
p1735
aS'long'
p1736
aS'time'
p1737
aS'everything'
p1738
aS'seemed'
p1739
aS'to'
p1740
aS'be'
p1741
aS'of'
p1742
aS'no'
p1743
aS'use'
p1744
aS','
p1745
aS'but'
p1746
aS'at'
p1747
aS'length'
p1748
aS'the'
p1749
aS'burgomaster'
p1750
aS'found'
p1751
aS'an'
p1752
aS'expedient'
p1753
aS'.'
p1754
asg52
(lp1755
VFor
p1756
ag71
aVlong
p1757
aVtime
p1758
aVeverything
p1759
aVseem
p1760
aVto
p1761
aVbe
p1762
aVof
p1763
aVno
p1764
aVuse
p1765
ag60
aVbut
p1766
aVat
p1767
aVlength
p1768
aVthe
p1769
aVburgomaster
p1770
aVfind
p1771
aVan
p1772
aVexpedient
p1773
ag83
asg84
(lp1774
g86
ag86
ag86
ag86
ag86
ag86
ag86
ag86
ag86
ag86
ag86
ag86
ag86
ag86
ag86
ag86
ag86
ag86
ag86
ag86
ag86
asg87
(lp1775
g96
ag101
ag98
ag102
ag102
ag95
ag231
ag230
ag96
ag101
ag102
ag93
ag90
ag96
ag102
ag101
ag102
ag95
ag101
ag102
ag104
asg105
VFor a long time everything seemed to be of no use, but at length the burgomaster found an expedient.
p1776
sba(i__main__
Sentence
p1777
(dp1778
g17
I28
sg18
(lp1779
S'My'
p1780
aS'opinion'
p1781
aS','
p1782
aS'said'
p1783
aS'he'
p1784
aS','
p1785
aS'is'
p1786
aS'that'
p1787
aS'we'
p1788
aS'ought'
p1789
aS','
p1790
aS'out'
p1791
aS'of'
p1792
aS'the'
p1793
aS'common'
p1794
aS'purse'
p1795
aS','
p1796
aS'to'
p1797
aS'pay'
p1798
aS'for'
p1799
aS'this'
p1800
aS'barn'
p1801
aS','
p1802
aS'and'
p1803
aS'whatsoever'
p1804
aS'corn'
p1805
aS','
p1806
aS'straw'
p1807
aS','
p1808
aS'or'
p1809
aS'hay'
p1810
aS'it'
p1811
aS'contains'
p1812
aS','
p1813
aS'and'
p1814
aS'thus'
p1815
aS'indemnify'
p1816
aS'the'
p1817
aS'owner'
p1818
aS','
p1819
aS'and'
p1820
aS'then'
p1821
aS'burn'
p1822
aS'down'
p1823
aS'the'
p1824
aS'whole'
p1825
aS'building'
p1826
aS'and'
p1827
aS'the'
p1828
aS'terrible'
p1829
aS'beast'
p1830
aS'with'
p1831
aS'it'
p1832
aS'.'
p1833
asg52
(lp1834
VMy
p1835
aVopinion
p1836
ag60
ag450
aVhe
p1837
ag60
ag529
aVthat
p1838
aVwe
p1839
aVought
p1840
ag60
aVout
p1841
aVof
p1842
aVthe
p1843
aVcommon
p1844
aVpurse
p1845
ag60
aVto
p1846
aVpay
p1847
aVfor
p1848
aVthis
p1849
aVbarn
p1850
ag60
aVand
p1851
aVwhatsoever
p1852
aVcorn
p1853
ag60
aVstraw
p1854
ag60
aVor
p1855
aVhay
p1856
aVit
p1857
aVcontain
p1858
ag60
aVand
p1859
aVthus
p1860
aVindemnify
p1861
aVthe
p1862
aVowner
p1863
ag60
aVand
p1864
aVthen
p1865
aVburn
p1866
aVdown
p1867
aVthe
p1868
aVwhole
p1869
aVbuilding
p1870
aVand
p1871
aVthe
p1872
aVterrible
p1873
aVbeast
p1874
aVwith
p1875
aVit
p1876
ag83
asg84
(lp1877
g86
ag86
ag86
ag86
ag86
ag86
ag86
ag86
ag86
ag86
ag86
ag86
ag86
ag86
ag86
ag86
ag86
ag86
ag86
ag86
ag86
ag86
ag86
ag86
ag86
ag86
ag86
ag86
ag86
ag86
ag86
ag86
ag86
ag86
ag86
ag86
ag86
ag86
ag86
ag86
ag86
ag86
ag86
ag86
ag86
ag86
ag86
ag86
ag86
ag86
ag86
ag86
ag86
ag86
asg87
(lp1878
g232
ag102
ag93
ag95
ag99
ag93
ag547
ag96
ag99
ag397
ag93
ag96
ag96
ag101
ag98
ag102
ag93
ag231
ag230
ag96
ag101
ag102
ag93
ag90
ag92
ag102
ag93
ag102
ag93
ag90
ag102
ag99
ag547
ag93
ag90
ag92
ag230
ag101
ag102
ag93
ag90
ag92
ag230
ag96
ag101
ag98
ag102
ag90
ag101
ag98
ag102
ag96
ag99
ag104
asg105
VMy opinion, said he, is that we ought, out of the common purse, to pay for this barn, and whatsoever corn, straw, or hay it contains, and thus indemnify the owner, and then burn down the whole building and the terrible beast with it.
p1879
sba(i__main__
Sentence
p1880
(dp1881
g17
I29
sg18
(lp1882
S'Thus'
p1883
aS'no'
p1884
aS'one'
p1885
aS'will'
p1886
aS'have'
p1887
aS'to'
p1888
aS'endanger'
p1889
aS'his'
p1890
aS'life'
p1891
aS'.'
p1892
asg52
(lp1893
VThus
p1894
aVno
p1895
aVone
p1896
aVwill
p1897
aVhave
p1898
aVto
p1899
aVendanger
p1900
aVhis
p1901
aVlife
p1902
ag83
asg84
(lp1903
g86
ag86
ag86
ag86
ag86
ag86
ag86
ag86
ag86
ag86
asg87
(lp1904
g92
ag101
ag102
ag397
ag230
ag231
ag230
ag232
ag102
ag104
asg105
VThus no one will have to endanger his life.
p1905
sba(i__main__
Sentence
p1906
(dp1907
g17
I30
sg18
(lp1908
S'This'
p1909
aS'is'
p1910
aS'no'
p1911
aS'time'
p1912
aS'for'
p1913
aS'thinking'
p1914
aS'of'
p1915
aS'expense'
p1916
aS','
p1917
aS'and'
p1918
aS'stinginess'
p1919
aS'would'
p1920
aS'be'
p1921
aS'ill'
p1922
aS'applied'
p1923
aS'.'
p1924
asg52
(lp1925
VThis
p1926
ag529
aVno
p1927
aVtime
p1928
aVfor
p1929
aVthink
p1930
aVof
p1931
aVexpense
p1932
ag60
aVand
p1933
aVstinginess
p1934
aVwould
p1935
aVbe
p1936
aVill
p1937
aVapply
p1938
ag83
asg84
(lp1939
g86
ag86
ag86
ag86
ag86
ag86
ag86
ag86
ag86
ag86
ag86
ag86
ag86
ag86
ag86
ag86
asg87
(lp1940
g101
ag547
ag101
ag102
ag96
ag97
ag96
ag102
ag93
ag90
ag102
ag397
ag230
ag92
ag103
ag104
asg105
VThis is no time for thinking of expense, and stinginess would be ill applied.
p1941
sba(i__main__
Sentence
p1942
(dp1943
g17
I31
sg18
(lp1944
S'All'
p1945
aS'agreed'
p1946
aS'with'
p1947
aS'him'
p1948
aS'.'
p1949
asg52
(lp1950
VAll
p1951
aVagree
p1952
aVwith
p1953
aVhim
p1954
ag83
asg84
(lp1955
g86
ag86
ag86
ag86
ag86
asg87
(lp1956
g101
ag95
ag96
ag99
ag104
asg105
VAll agreed with him.
p1957
sba(i__main__
Sentence
p1958
(dp1959
g17
I32
sg18
(lp1960
S'So'
p1961
aS'they'
p1962
aS'set'
p1963
aS'fire'
p1964
aS'to'
p1965
aS'the'
p1966
aS'barn'
p1967
aS'at'
p1968
aS'all'
p1969
aS'four'
p1970
aS'corners'
p1971
aS','
p1972
aS'and'
p1973
aS'with'
p1974
aS'it'
p1975
aS'the'
p1976
aS'owl'
p1977
aS'was'
p1978
aS'miserably'
p1979
aS'burnt'
p1980
aS'.'
p1981
asg52
(lp1982
VSo
p1983
aVthey
p1984
aVset
p1985
aVfire
p1986
aVto
p1987
aVthe
p1988
aVbarn
p1989
aVat
p1990
aVall
p1991
aVfour
p1992
aVcorner
p1993
ag60
aVand
p1994
aVwith
p1995
aVit
p1996
aVthe
p1997
aVowl
p1998
ag338
aVmiserably
p1999
aVburnt
p2000
ag83
asg84
(lp2001
g86
ag86
ag86
ag86
ag86
ag86
ag86
ag86
ag86
ag86
ag86
ag86
ag86
ag86
ag86
ag86
ag86
ag86
ag86
ag86
ag86
asg87
(lp2002
g96
ag99
ag100
ag98
ag231
ag101
ag102
ag96
ag101
ag89
ag91
ag93
ag90
ag96
ag99
ag101
ag102
ag95
ag92
ag98
ag104
asg105
VSo they set fire to the barn at all four corners, and with it the owl was miserably burnt.
p2003
sba(i__main__
Sentence
p2004
(dp2005
g17
I33
sg18
(lp2006
S'Let'
p2007
aS'any'
p2008
aS'one'
p2009
aS'who'
p2010
aS'will'
p2011
aS'not'
p2012
aS'believe'
p2013
aS'it'
p2014
aS','
p2015
aS'go'
p2016
aS'thither'
p2017
aS'and'
p2018
aS'inquire'
p2019
aS'for'
p2020
aS'himself'
p2021
aS'.'
p2022
asg52
(lp2023
VLet
p2024
aVany
p2025
aVone
p2026
aVwho
p2027
aVwill
p2028
aVnot
p2029
aVbelieve
p2030
aVit
p2031
ag60
aVgo
p2032
aVthither
p2033
aVand
p2034
aVinquire
p2035
aVfor
p2036
aVhimself
p2037
ag83
asg84
(lp2038
g86
ag86
ag86
ag86
ag86
ag86
ag86
ag86
ag86
ag86
ag86
ag86
ag86
ag86
ag86
ag86
asg87
(lp2039
g933
ag101
ag89
ag546
ag397
ag92
ag230
ag99
ag93
ag100
ag92
ag90
ag230
ag96
ag99
ag104
asg105
VLet any one who will not believe it, go thither and inquire for himself. 
p2040
sbasbsS'summary'
p2041
g0
(g7
g2
Ntp2042
Rp2043
(dp2044
g11
S'A great horned owl ventures into a barn in a small village. Daylight comes and the bird is afraid to leave the barn. The owner of the barn finds the owl inside the structure and is afraid of what he calls "the beast". All the people of the village are called together. No one, not even a strong man wearing armor, is brave enough to take on the bird. Finally the villagers decide to burn the barn and thus rid themselves of the bird.'
p2045
sg13
(lp2046
(i__main__
Sentence
p2047
(dp2048
g17
I0
sg18
(lp2049
S'A'
p2050
aS'great'
p2051
aS'horned'
p2052
aS'owl'
p2053
aS'ventures'
p2054
aS'into'
p2055
aS'a'
p2056
aS'barn'
p2057
aS'in'
p2058
aS'a'
p2059
aS'small'
p2060
aS'village'
p2061
aS'.'
p2062
asg52
(lp2063
g748
aVgreat
p2064
aVhorn
p2065
aVowl
p2066
aVventure
p2067
aVinto
p2068
ag71
aVbarn
p2069
aVin
p2070
ag71
aVsmall
p2071
aVvillage
p2072
ag83
asg84
(lp2073
g86
ag86
ag86
ag86
ag86
ag86
ag86
ag86
ag86
ag86
ag86
ag86
ag86
asg87
(lp2074
g101
ag98
ag103
ag102
ag91
ag96
ag101
ag102
ag96
ag101
ag98
ag102
ag104
asg105
VA great horned owl ventures into a barn in a small village.
p2075
sba(i__main__
Sentence
p2076
(dp2077
g17
I1
sg18
(lp2078
S'Daylight'
p2079
aS'comes'
p2080
aS'and'
p2081
aS'the'
p2082
aS'bird'
p2083
aS'is'
p2084
aS'afraid'
p2085
aS'to'
p2086
aS'leave'
p2087
aS'the'
p2088
aS'barn'
p2089
aS'.'
p2090
asg52
(lp2091
VDaylight
p2092
aVcome
p2093
aVand
p2094
aVthe
p2095
aVbird
p2096
ag529
aVafraid
p2097
aVto
p2098
aVleave
p2099
aVthe
p2100
aVbarn
p2101
ag83
asg84
(lp2102
g86
ag86
ag86
ag86
ag86
ag86
ag86
ag86
ag86
ag86
ag86
ag86
asg87
(lp2103
g933
ag547
ag90
ag101
ag102
ag547
ag103
ag231
ag230
ag101
ag102
ag104
asg105
VDaylight comes and the bird is afraid to leave the barn.
p2104
sba(i__main__
Sentence
p2105
(dp2106
g17
I2
sg18
(lp2107
S'The'
p2108
aS'owner'
p2109
aS'of'
p2110
aS'the'
p2111
aS'barn'
p2112
aS'finds'
p2113
aS'the'
p2114
aS'owl'
p2115
aS'inside'
p2116
aS'the'
p2117
aS'structure'
p2118
aS'and'
p2119
aS'is'
p2120
aS'afraid'
p2121
aS'of'
p2122
aS'what'
p2123
aS'he'
p2124
aS'calls'
p2125
aS'``'
p2126
aS'the'
p2127
aS'beast'
p2128
aS"''"
p2129
aS'.'
p2130
asg52
(lp2131
VThe
p2132
aVowner
p2133
aVof
p2134
aVthe
p2135
aVbarn
p2136
aVfind
p2137
aVthe
p2138
aVowl
p2139
aVinside
p2140
aVthe
p2141
aVstructure
p2142
aVand
p2143
ag529
aVafraid
p2144
aVof
p2145
aVwhat
p2146
aVhe
p2147
aVcall
p2148
aV``
p2149
aVthe
p2150
aVbeast
p2151
aV''
p2152
ag83
asg84
(lp2153
g86
ag86
ag86
ag86
ag86
ag86
ag86
ag86
ag86
ag86
ag86
ag86
ag86
ag86
ag86
ag86
ag86
ag86
ag86
ag86
ag86
ag86
ag86
asg87
(lp2154
g101
ag102
ag96
ag101
ag102
ag91
ag101
ag102
ag102
ag101
ag102
ag90
ag547
ag103
ag96
ag546
ag99
ag547
aS'``'
p2155
ag101
ag102
aS"''"
p2156
ag104
asg105
VThe owner of the barn finds the owl inside the structure and is afraid of what he calls "the beast".
p2157
sba(i__main__
Sentence
p2158
(dp2159
g17
I3
sg18
(lp2160
S'All'
p2161
aS'the'
p2162
aS'people'
p2163
aS'of'
p2164
aS'the'
p2165
aS'village'
p2166
aS'are'
p2167
aS'called'
p2168
aS'together'
p2169
aS'.'
p2170
asg52
(lp2171
VAll
p2172
aVthe
p2173
aVpeople
p2174
aVof
p2175
aVthe
p2176
aVvillage
p2177
ag73
aVcall
p2178
aVtogether
p2179
ag83
asg84
(lp2180
g86
ag86
ag86
ag86
ag86
ag86
ag86
ag86
ag86
ag86
asg87
(lp2181
g101
ag101
ag91
ag96
ag101
ag102
ag100
ag103
ag707
ag104
asg105
VAll the people of the village are called together.
p2182
sba(i__main__
Sentence
p2183
(dp2184
g17
I4
sg18
(lp2185
S'No'
p2186
aS'one'
p2187
aS','
p2188
aS'not'
p2189
aS'even'
p2190
aS'a'
p2191
aS'strong'
p2192
aS'man'
p2193
aS'wearing'
p2194
aS'armor'
p2195
aS','
p2196
aS'is'
p2197
aS'brave'
p2198
aS'enough'
p2199
aS'to'
p2200
aS'take'
p2201
aS'on'
p2202
aS'the'
p2203
aS'bird'
p2204
aS'.'
p2205
asg52
(lp2206
VNo
p2207
aVone
p2208
ag60
aVnot
p2209
aVeven
p2210
ag71
aVstrong
p2211
aVman
p2212
aVwear
p2213
aVarmor
p2214
ag60
ag529
aVbrave
p2215
aVenough
p2216
aVto
p2217
aVtake
p2218
aVon
p2219
aVthe
p2220
aVbird
p2221
ag83
asg84
(lp2222
g86
ag86
ag86
ag86
ag86
ag86
ag86
ag86
ag86
ag86
ag86
ag86
ag86
ag86
ag86
ag86
ag86
ag86
ag86
ag86
asg87
(lp2223
g101
ag102
ag93
ag92
ag92
ag101
ag98
ag102
ag97
ag102
ag93
ag547
ag98
ag92
ag231
ag230
ag96
ag101
ag102
ag104
asg105
VNo one, not even a strong man wearing armor, is brave enough to take on the bird.
p2224
sba(i__main__
Sentence
p2225
(dp2226
g17
I5
sg18
(lp2227
S'Finally'
p2228
aS'the'
p2229
aS'villagers'
p2230
aS'decide'
p2231
aS'to'
p2232
aS'burn'
p2233
aS'the'
p2234
aS'barn'
p2235
aS'and'
p2236
aS'thus'
p2237
aS'rid'
p2238
aS'themselves'
p2239
aS'of'
p2240
aS'the'
p2241
aS'bird'
p2242
aS'.'
p2243
asg52
(lp2244
VFinally
p2245
aVthe
p2246
aVvillager
p2247
aVdecide
p2248
aVto
p2249
aVburn
p2250
aVthe
p2251
aVbarn
p2252
aVand
p2253
aVthus
p2254
aVrid
p2255
aVthemselves
p2256
aVof
p2257
aVthe
p2258
aVbird
p2259
ag83
asg84
(lp2260
g86
ag86
ag86
ag86
ag86
ag86
ag86
ag86
ag86
ag86
ag86
ag86
ag86
ag86
ag86
ag86
asg87
(lp2261
g92
ag101
ag91
ag100
ag231
ag230
ag101
ag102
ag90
ag92
ag95
ag99
ag96
ag101
ag102
ag104
asg105
VFinally the villagers decide to burn the barn and thus rid themselves of the bird.
p2262
sbasbsS'name'
p2263
S'The Owl'
p2264
sS'summaries'
p2265
(lp2266
g2043
asb.