ccopy_reg
_reconstructor
p0
(c__main__
Story
p1
c__builtin__
object
p2
Ntp3
Rp4
(dp5
S'text'
p6
g0
(c__main__
Document
p7
g2
Ntp8
Rp9
(dp10
S'_Document__initialContent'
p11
S"There was once a girl who was idle and would not spin, and\nlet her mother say what she would, she could not bring her\nto it.  At last the mother was once so overcome with anger\nand impatience, that she beat her, at which the girl began\nto weep loudly.  Now at this very moment the queen drove by,\nand when she heard the weeping she stopped her carriage, went\ninto the house and asked the mother why she was beating her\ndaughter so that the cries could be heard out on the road.  Then\nthe woman was ashamed to reveal the laziness of her daughter\nand said, I cannot get her to leave off spinning.  She insists\non spinning for ever and ever, and I am poor, and cannot\nprocure the flax.  Then\nanswered the queen, there is nothing that I like better to hear\nthan spinning, and I am never happier than when the wheels are\nhumming.  Let me have your daughter with me in the palace.  I\nhave flax enough, and there she shall spin as much as she likes.\nThe mother was heartily satisfied with this, and the queen\ntook the girl with her.  When they had arrived at the palace,\nshe led her up into three rooms which were filled from the\nbottom to the top with the finest flax.  Now spin me this flax,\nsaid she, and when you have done it, you shall have my eldest\nson for a husband, even if you are poor.  I care not for that,\nyour untiring industry is dowry enough.  The girl was secretly\nterrified, for she could not have spun the flax, no, not if\nshe had lived till she was three hundred years old, and had\nsat at it every day from morning till night.  When therefore she\nwas alone, she began to weep, and sat thus for three days\nwithout moving a finger.  On the third day came the queen, and\nwhen she saw that nothing had yet been spun, she was surprised,\nbut the girl excused herself by saying that she had not been able\nto begin because of her great distress at leaving her mother's\nhouse.  The queen was satisfied with this, but said when she was\ngoing away, tomorrow you must begin to work.\nWhen the girl was alone again, she did not know what to do, and\nin her distress went to the window.  Then she saw three women\ncoming towards her, the first of whom had a broad flat foot, the\nsecond had such a great underlip that it hung down over her chin,\nand the third had a broad thumb.  They remained standing before\nthe window, looked up, and asked the girl what was amiss with\nher.  She complained of her trouble, and then they offered\nher their help and said, if you will invite us to the wedding,\nnot be ashamed of us, and will call us your aunts, and likewise\nwill place us at your table, we will spin up the flax for you,\nand that in a very short time.  With all my heart, she replied,\ndo but come in and begin the work at once.  Then she let in the\nthree strange women, and cleared a place in the first room,\nwhere they seated themselves and began their spinning.  The one\ndrew the thread and trod the wheel, the other wetted the thread,\nthe third twisted it, and struck the table\nwith her finger, and as often as she struck it, a skein of\nthread fell to the ground that was spun in the finest manner\npossible.  The girl concealed the three spinners from the queen,\nand showed her whenever she came the great quantity of spun\nthread, until the latter could not praise her enough.  When\nthe first room was empty she went to the second, and at last to\nthe third, and that too was quickly cleared.  Then the three women\ntook leave and said to the girl, do not forget what you have\npromised us - it will make your fortune.\nWhen the maiden showed the queen the empty rooms, and the great\nheap of yarn, she gave orders for the wedding, and the bridegroom\nrejoiced that he was to have such a clever and industrious wife,\nand praised her mightily.  I have three aunts, said the girl,\nand as they have been very kind to me, I should not like to\nforget them in my good fortune, allow me to invite them to the\nwedding, and let them sit with us at table.  The queen and the\nbridegroom said, why should we not allow that.  Therefore when\nthe feast began, the three women entered in strange apparel, and\nthe bride said, welcome, dear aunts.  Ah, said the bridegroom,\nhow do you come by these odious friends.  Thereupon he went to\nthe one with the broad flat foot, and said, how do you come by\nsuch a broad foot.  By treading, she answered, by treading.  Then\nthe bridegroom went to the second, and said, how do you come by\nyour falling lip.  By licking, she answered, by licking.  Then\nhe asked the third, how do you come by your broad thumb.  By\ntwisting the thread, she answered, by twisting the thread.  On\nthis the king's son was alarmed and said, neither now nor ever\nshall my beautiful bride touch a spinning-wheel.  And thus she\ngot rid of the hateful flax-spinning.\n"
p12
sS'sentences'
p13
(lp14
(i__main__
Sentence
p15
(dp16
S'index'
p17
I0
sS'words'
p18
(lp19
S'There'
p20
aS'was'
p21
aS'once'
p22
aS'a'
p23
aS'girl'
p24
aS'who'
p25
aS'was'
p26
aS'idle'
p27
aS'and'
p28
aS'would'
p29
aS'not'
p30
aS'spin'
p31
aS','
p32
aS'and'
p33
aS'let'
p34
aS'her'
p35
aS'mother'
p36
aS'say'
p37
aS'what'
p38
aS'she'
p39
aS'would'
p40
aS','
p41
aS'she'
p42
aS'could'
p43
aS'not'
p44
aS'bring'
p45
aS'her'
p46
aS'to'
p47
aS'it'
p48
aS'.'
p49
asS'lemmas'
p50
(lp51
VThere
p52
aVbe
p53
aVonce
p54
aVa
p55
aVgirl
p56
aVwho
p57
ag53
aVidle
p58
aVand
p59
aVwould
p60
aVnot
p61
aVspin
p62
aV,
p63
aVand
p64
aVlet
p65
aVher
p66
aVmother
p67
aVsay
p68
aVwhat
p69
aVshe
p70
aVwould
p71
ag63
aVshe
p72
aVcould
p73
aVnot
p74
aVbring
p75
aVher
p76
aVto
p77
aVit
p78
aV.
p79
asS'nerTags'
p80
(lp81
VO
p82
ag82
ag82
ag82
ag82
ag82
ag82
ag82
ag82
ag82
ag82
ag82
ag82
ag82
ag82
ag82
ag82
ag82
ag82
ag82
ag82
ag82
ag82
ag82
ag82
ag82
ag82
ag82
ag82
ag82
asS'posTags'
p83
(lp84
S'EX'
p85
aS'VBD'
p86
aS'RB'
p87
aS'DT'
p88
aS'NN'
p89
aS'WP'
p90
ag86
aS'JJ'
p91
aS'CC'
p92
aS'MD'
p93
ag87
aS'VB'
p94
aS','
p95
ag92
ag94
aS'PRP$'
p96
ag89
ag89
ag90
aS'PRP'
p97
ag93
ag95
ag97
ag93
ag87
ag94
ag96
aS'TO'
p98
ag97
aS'.'
p99
asS'_Sentence__initialContent'
p100
VThere was once a girl who was idle and would not spin, and let her mother say what she would, she could not bring her to it.
p101
sba(i__main__
Sentence
p102
(dp103
g17
I1
sg18
(lp104
S'At'
p105
aS'last'
p106
aS'the'
p107
aS'mother'
p108
aS'was'
p109
aS'once'
p110
aS'so'
p111
aS'overcome'
p112
aS'with'
p113
aS'anger'
p114
aS'and'
p115
aS'impatience'
p116
aS','
p117
aS'that'
p118
aS'she'
p119
aS'beat'
p120
aS'her'
p121
aS','
p122
aS'at'
p123
aS'which'
p124
aS'the'
p125
aS'girl'
p126
aS'began'
p127
aS'to'
p128
aS'weep'
p129
aS'loudly'
p130
aS'.'
p131
asg50
(lp132
VAt
p133
aVlast
p134
aVthe
p135
aVmother
p136
ag53
aVonce
p137
aVso
p138
aVovercome
p139
aVwith
p140
aVanger
p141
aVand
p142
aVimpatience
p143
ag63
aVthat
p144
aVshe
p145
aVbeat
p146
aVher
p147
ag63
aVat
p148
aVwhich
p149
aVthe
p150
aVgirl
p151
aVbegin
p152
aVto
p153
aVweep
p154
aVloudly
p155
ag79
asg80
(lp156
g82
ag82
ag82
ag82
ag82
ag82
ag82
ag82
ag82
ag82
ag82
ag82
ag82
ag82
ag82
ag82
ag82
ag82
ag82
ag82
ag82
ag82
ag82
ag82
ag82
ag82
ag82
asg83
(lp157
S'IN'
p158
ag91
ag88
ag89
ag86
ag87
ag87
ag87
ag158
aS'JJR'
p159
ag92
ag89
ag95
ag158
ag97
ag86
ag96
ag95
ag158
aS'WDT'
p160
ag88
ag89
ag86
ag98
ag94
ag87
ag99
asg100
VAt last the mother was once so overcome with anger and impatience, that she beat her, at which the girl began to weep loudly.
p161
sba(i__main__
Sentence
p162
(dp163
g17
I2
sg18
(lp164
S'Now'
p165
aS'at'
p166
aS'this'
p167
aS'very'
p168
aS'moment'
p169
aS'the'
p170
aS'queen'
p171
aS'drove'
p172
aS'by'
p173
aS','
p174
aS'and'
p175
aS'when'
p176
aS'she'
p177
aS'heard'
p178
aS'the'
p179
aS'weeping'
p180
aS'she'
p181
aS'stopped'
p182
aS'her'
p183
aS'carriage'
p184
aS','
p185
aS'went'
p186
aS'into'
p187
aS'the'
p188
aS'house'
p189
aS'and'
p190
aS'asked'
p191
aS'the'
p192
aS'mother'
p193
aS'why'
p194
aS'she'
p195
aS'was'
p196
aS'beating'
p197
aS'her'
p198
aS'daughter'
p199
aS'so'
p200
aS'that'
p201
aS'the'
p202
aS'cries'
p203
aS'could'
p204
aS'be'
p205
aS'heard'
p206
aS'out'
p207
aS'on'
p208
aS'the'
p209
aS'road'
p210
aS'.'
p211
asg50
(lp212
VNow
p213
aVat
p214
aVthis
p215
aVvery
p216
aVmoment
p217
aVthe
p218
aVqueen
p219
aVdrive
p220
aVby
p221
ag63
aVand
p222
aVwhen
p223
aVshe
p224
aVhear
p225
aVthe
p226
aVweep
p227
aVshe
p228
aVstop
p229
aVher
p230
aVcarriage
p231
ag63
aVgo
p232
aVinto
p233
aVthe
p234
aVhouse
p235
aVand
p236
aVask
p237
aVthe
p238
aVmother
p239
aVwhy
p240
aVshe
p241
ag53
aVbeat
p242
aVher
p243
aVdaughter
p244
aVso
p245
aVthat
p246
aVthe
p247
aVcry
p248
aVcould
p249
aVbe
p250
ag225
aVout
p251
aVon
p252
aVthe
p253
aVroad
p254
ag79
asg80
(lp255
g82
ag82
ag82
ag82
ag82
ag82
ag82
ag82
ag82
ag82
ag82
ag82
ag82
ag82
ag82
ag82
ag82
ag82
ag82
ag82
ag82
ag82
ag82
ag82
ag82
ag82
ag82
ag82
ag82
ag82
ag82
ag82
ag82
ag82
ag82
ag82
ag82
ag82
ag82
ag82
ag82
ag82
ag82
ag82
ag82
ag82
ag82
asg83
(lp256
g87
ag158
ag88
ag87
ag89
ag88
ag89
ag86
ag158
ag95
ag92
aS'WRB'
p257
ag97
aS'VBP'
p258
ag88
aS'VBG'
p259
ag97
ag86
ag96
ag89
ag95
ag86
ag158
ag88
ag89
ag92
ag86
ag88
ag89
ag257
ag97
ag86
ag259
ag96
ag89
ag158
ag158
ag88
aS'NNS'
p260
ag93
ag94
aS'VBN'
p261
aS'RP'
p262
ag158
ag88
ag89
ag99
asg100
VNow at this very moment the queen drove by, and when she heard the weeping she stopped her carriage, went into the house and asked the mother why she was beating her daughter so that the cries could be heard out on the road.
p263
sba(i__main__
Sentence
p264
(dp265
g17
I3
sg18
(lp266
S'Then'
p267
aS'the'
p268
aS'woman'
p269
aS'was'
p270
aS'ashamed'
p271
aS'to'
p272
aS'reveal'
p273
aS'the'
p274
aS'laziness'
p275
aS'of'
p276
aS'her'
p277
aS'daughter'
p278
aS'and'
p279
aS'said'
p280
aS','
p281
aS'I'
p282
aS'can'
p283
aS'not'
p284
aS'get'
p285
aS'her'
p286
aS'to'
p287
aS'leave'
p288
aS'off'
p289
aS'spinning'
p290
aS'.'
p291
asg50
(lp292
VThen
p293
aVthe
p294
aVwoman
p295
ag53
aVashamed
p296
aVto
p297
aVreveal
p298
aVthe
p299
aVlaziness
p300
aVof
p301
aVher
p302
aVdaughter
p303
aVand
p304
aVsay
p305
ag63
aVI
p306
aVcan
p307
aVnot
p308
aVget
p309
aVher
p310
aVto
p311
aVleave
p312
aVoff
p313
aVspin
p314
ag79
asg80
(lp315
g82
ag82
ag82
ag82
ag82
ag82
ag82
ag82
ag82
ag82
ag82
ag82
ag82
ag82
ag82
ag82
ag82
ag82
ag82
ag82
ag82
ag82
ag82
ag82
ag82
asg83
(lp316
g87
ag88
ag89
ag86
ag261
ag98
ag94
ag88
ag89
ag158
ag96
ag89
ag92
ag86
ag95
ag97
ag93
ag87
ag94
ag96
ag98
ag94
ag262
ag259
ag99
asg100
VThen the woman was ashamed to reveal the laziness of her daughter and said, I cannot get her to leave off spinning.
p317
sba(i__main__
Sentence
p318
(dp319
g17
I4
sg18
(lp320
S'She'
p321
aS'insists'
p322
aS'on'
p323
aS'spinning'
p324
aS'for'
p325
aS'ever'
p326
aS'and'
p327
aS'ever'
p328
aS','
p329
aS'and'
p330
aS'I'
p331
aS'am'
p332
aS'poor'
p333
aS','
p334
aS'and'
p335
aS'can'
p336
aS'not'
p337
aS'procure'
p338
aS'the'
p339
aS'flax'
p340
aS'.'
p341
asg50
(lp342
VShe
p343
aVinsist
p344
aVon
p345
aVspinning
p346
aVfor
p347
aVever
p348
aVand
p349
aVever
p350
ag63
aVand
p351
ag306
aVbe
p352
aVpoor
p353
ag63
aVand
p354
aVcan
p355
aVnot
p356
aVprocure
p357
aVthe
p358
aVflax
p359
ag79
asg80
(lp360
g82
ag82
ag82
ag82
ag82
ag82
ag82
ag82
ag82
ag82
ag82
ag82
ag82
ag82
ag82
ag82
ag82
ag82
ag82
ag82
ag82
asg83
(lp361
g97
aS'VBZ'
p362
ag158
ag89
ag158
ag87
ag92
ag87
ag95
ag92
ag97
ag258
ag91
ag95
ag92
ag93
ag87
ag94
ag88
ag89
ag99
asg100
VShe insists on spinning for ever and ever, and I am poor, and cannot procure the flax.
p363
sba(i__main__
Sentence
p364
(dp365
g17
I5
sg18
(lp366
S'Then'
p367
aS'answered'
p368
aS'the'
p369
aS'queen'
p370
aS','
p371
aS'there'
p372
aS'is'
p373
aS'nothing'
p374
aS'that'
p375
aS'I'
p376
aS'like'
p377
aS'better'
p378
aS'to'
p379
aS'hear'
p380
aS'than'
p381
aS'spinning'
p382
aS','
p383
aS'and'
p384
aS'I'
p385
aS'am'
p386
aS'never'
p387
aS'happier'
p388
aS'than'
p389
aS'when'
p390
aS'the'
p391
aS'wheels'
p392
aS'are'
p393
aS'humming'
p394
aS'.'
p395
asg50
(lp396
VThen
p397
aVanswer
p398
aVthe
p399
aVqueen
p400
ag63
aVthere
p401
aVbe
p402
aVnothing
p403
aVthat
p404
ag306
aVlike
p405
aVwell
p406
aVto
p407
aVhear
p408
aVthan
p409
ag314
ag63
aVand
p410
ag306
ag352
aVnever
p411
aVhappy
p412
aVthan
p413
aVwhen
p414
aVthe
p415
aVwheel
p416
aVbe
p417
aVhum
p418
ag79
asg80
(lp419
g82
ag82
ag82
ag82
ag82
ag82
ag82
ag82
ag82
ag82
ag82
ag82
ag82
ag82
ag82
ag82
ag82
ag82
ag82
ag82
ag82
ag82
ag82
ag82
ag82
ag82
ag82
ag82
ag82
asg83
(lp420
g87
ag86
ag88
ag89
ag95
ag85
ag362
ag89
ag158
ag97
ag258
aS'RBR'
p421
ag98
ag94
ag158
ag259
ag95
ag92
ag97
ag258
ag87
ag159
ag158
ag257
ag88
ag260
ag258
ag259
ag99
asg100
VThen answered the queen, there is nothing that I like better to hear than spinning, and I am never happier than when the wheels are humming.
p422
sba(i__main__
Sentence
p423
(dp424
g17
I6
sg18
(lp425
S'Let'
p426
aS'me'
p427
aS'have'
p428
aS'your'
p429
aS'daughter'
p430
aS'with'
p431
aS'me'
p432
aS'in'
p433
aS'the'
p434
aS'palace'
p435
aS'.'
p436
asg50
(lp437
VLet
p438
aVme
p439
aVhave
p440
aVyour
p441
aVdaughter
p442
aVwith
p443
aVme
p444
aVin
p445
aVthe
p446
aVpalace
p447
ag79
asg80
(lp448
g82
ag82
ag82
ag82
ag82
ag82
ag82
ag82
ag82
ag82
ag82
asg83
(lp449
S'NNP'
p450
ag97
ag258
ag96
ag89
ag158
ag97
ag158
ag88
ag89
ag99
asg100
VLet me have your daughter with me in the palace.
p451
sba(i__main__
Sentence
p452
(dp453
g17
I7
sg18
(lp454
S'I'
p455
aS'have'
p456
aS'flax'
p457
aS'enough'
p458
aS','
p459
aS'and'
p460
aS'there'
p461
aS'she'
p462
aS'shall'
p463
aS'spin'
p464
aS'as'
p465
aS'much'
p466
aS'as'
p467
aS'she'
p468
aS'likes'
p469
aS'.'
p470
asg50
(lp471
g306
aVhave
p472
aVflax
p473
aVenough
p474
ag63
aVand
p475
aVthere
p476
aVshe
p477
aVshall
p478
aVspin
p479
ag55
aVmuch
p480
ag55
aVshe
p481
aVlike
p482
ag79
asg80
(lp483
g82
ag82
ag82
ag82
ag82
ag82
ag82
ag82
ag82
ag82
ag82
ag82
ag82
ag82
ag82
ag82
asg83
(lp484
g97
ag258
ag91
ag87
ag95
ag92
ag85
ag97
ag93
ag94
ag158
ag91
ag158
ag97
ag362
ag99
asg100
VI have flax enough, and there she shall spin as much as she likes.
p485
sba(i__main__
Sentence
p486
(dp487
g17
I8
sg18
(lp488
S'The'
p489
aS'mother'
p490
aS'was'
p491
aS'heartily'
p492
aS'satisfied'
p493
aS'with'
p494
aS'this'
p495
aS','
p496
aS'and'
p497
aS'the'
p498
aS'queen'
p499
aS'took'
p500
aS'the'
p501
aS'girl'
p502
aS'with'
p503
aS'her'
p504
aS'.'
p505
asg50
(lp506
VThe
p507
aVmother
p508
ag53
aVheartily
p509
aVsatisfy
p510
aVwith
p511
aVthis
p512
ag63
aVand
p513
aVthe
p514
aVqueen
p515
aVtake
p516
aVthe
p517
aVgirl
p518
aVwith
p519
aVher
p520
ag79
asg80
(lp521
g82
ag82
ag82
ag82
ag82
ag82
ag82
ag82
ag82
ag82
ag82
ag82
ag82
ag82
ag82
ag82
ag82
asg83
(lp522
g88
ag89
ag86
ag87
ag261
ag158
ag88
ag95
ag92
ag88
ag89
ag86
ag88
ag89
ag158
ag96
ag99
asg100
VThe mother was heartily satisfied with this, and the queen took the girl with her.
p523
sba(i__main__
Sentence
p524
(dp525
g17
I9
sg18
(lp526
S'When'
p527
aS'they'
p528
aS'had'
p529
aS'arrived'
p530
aS'at'
p531
aS'the'
p532
aS'palace'
p533
aS','
p534
aS'she'
p535
aS'led'
p536
aS'her'
p537
aS'up'
p538
aS'into'
p539
aS'three'
p540
aS'rooms'
p541
aS'which'
p542
aS'were'
p543
aS'filled'
p544
aS'from'
p545
aS'the'
p546
aS'bottom'
p547
aS'to'
p548
aS'the'
p549
aS'top'
p550
aS'with'
p551
aS'the'
p552
aS'finest'
p553
aS'flax'
p554
aS'.'
p555
asg50
(lp556
VWhen
p557
aVthey
p558
aVhave
p559
aVarrive
p560
aVat
p561
aVthe
p562
aVpalace
p563
ag63
aVshe
p564
aVlead
p565
aVher
p566
aVup
p567
aVinto
p568
aVthree
p569
aVroom
p570
aVwhich
p571
aVbe
p572
aVfill
p573
aVfrom
p574
aVthe
p575
aVbottom
p576
aVto
p577
aVthe
p578
aVtop
p579
aVwith
p580
aVthe
p581
aVfine
p582
aVflax
p583
ag79
asg80
(lp584
g82
ag82
ag82
ag82
ag82
ag82
ag82
ag82
ag82
ag82
ag82
ag82
ag82
ag82
ag82
ag82
ag82
ag82
ag82
ag82
ag82
ag82
ag82
ag82
ag82
ag82
ag82
ag82
ag82
asg83
(lp585
g257
ag97
ag86
ag261
ag158
ag88
ag89
ag95
ag97
ag86
ag96
ag262
ag158
aS'CD'
p586
ag260
ag160
ag86
ag261
ag158
ag88
ag89
ag98
ag88
ag91
ag158
ag88
aS'JJS'
p587
ag89
ag99
asg100
VWhen they had arrived at the palace, she led her up into three rooms which were filled from the bottom to the top with the finest flax.
p588
sba(i__main__
Sentence
p589
(dp590
g17
I10
sg18
(lp591
S'Now'
p592
aS'spin'
p593
aS'me'
p594
aS'this'
p595
aS'flax'
p596
aS','
p597
aS'said'
p598
aS'she'
p599
aS','
p600
aS'and'
p601
aS'when'
p602
aS'you'
p603
aS'have'
p604
aS'done'
p605
aS'it'
p606
aS','
p607
aS'you'
p608
aS'shall'
p609
aS'have'
p610
aS'my'
p611
aS'eldest'
p612
aS'son'
p613
aS'for'
p614
aS'a'
p615
aS'husband'
p616
aS','
p617
aS'even'
p618
aS'if'
p619
aS'you'
p620
aS'are'
p621
aS'poor'
p622
aS'.'
p623
asg50
(lp624
VNow
p625
aVspin
p626
aVme
p627
aVthis
p628
aVflax
p629
ag63
ag305
aVshe
p630
ag63
aVand
p631
aVwhen
p632
aVyou
p633
aVhave
p634
aVdo
p635
aVit
p636
ag63
aVyou
p637
aVshall
p638
aVhave
p639
aVmy
p640
aVeldest
p641
aVson
p642
aVfor
p643
ag55
aVhusband
p644
ag63
aVeven
p645
aVif
p646
aVyou
p647
ag417
aVpoor
p648
ag79
asg80
(lp649
g82
ag82
ag82
ag82
ag82
ag82
ag82
ag82
ag82
ag82
ag82
ag82
ag82
ag82
ag82
ag82
ag82
ag82
ag82
ag82
ag82
ag82
ag82
ag82
ag82
ag82
ag82
ag82
ag82
ag82
ag82
ag82
asg83
(lp650
g87
ag258
ag97
ag88
ag89
ag95
ag86
ag97
ag95
ag92
ag257
ag97
ag258
ag261
ag97
ag95
ag97
ag93
ag94
ag96
ag89
ag89
ag158
ag88
ag89
ag95
ag87
ag158
ag97
ag258
ag91
ag99
asg100
VNow spin me this flax, said she, and when you have done it, you shall have my eldest son for a husband, even if you are poor.
p651
sba(i__main__
Sentence
p652
(dp653
g17
I11
sg18
(lp654
S'I'
p655
aS'care'
p656
aS'not'
p657
aS'for'
p658
aS'that'
p659
aS','
p660
aS'your'
p661
aS'untiring'
p662
aS'industry'
p663
aS'is'
p664
aS'dowry'
p665
aS'enough'
p666
aS'.'
p667
asg50
(lp668
g306
aVcare
p669
aVnot
p670
aVfor
p671
aVthat
p672
ag63
aVyour
p673
aVuntiring
p674
aVindustry
p675
ag402
aVdowry
p676
aVenough
p677
ag79
asg80
(lp678
g82
ag82
ag82
ag82
ag82
ag82
ag82
ag82
ag82
ag82
ag82
ag82
ag82
asg83
(lp679
g97
ag258
ag87
ag158
ag88
ag95
ag96
ag89
ag89
ag362
ag91
ag87
ag99
asg100
VI care not for that, your untiring industry is dowry enough.
p680
sba(i__main__
Sentence
p681
(dp682
g17
I12
sg18
(lp683
S'The'
p684
aS'girl'
p685
aS'was'
p686
aS'secretly'
p687
aS'terrified'
p688
aS','
p689
aS'for'
p690
aS'she'
p691
aS'could'
p692
aS'not'
p693
aS'have'
p694
aS'spun'
p695
aS'the'
p696
aS'flax'
p697
aS','
p698
aS'no'
p699
aS','
p700
aS'not'
p701
aS'if'
p702
aS'she'
p703
aS'had'
p704
aS'lived'
p705
aS'till'
p706
aS'she'
p707
aS'was'
p708
aS'three'
p709
aS'hundred'
p710
aS'years'
p711
aS'old'
p712
aS','
p713
aS'and'
p714
aS'had'
p715
aS'sat'
p716
aS'at'
p717
aS'it'
p718
aS'every'
p719
aS'day'
p720
aS'from'
p721
aS'morning'
p722
aS'till'
p723
aS'night'
p724
aS'.'
p725
asg50
(lp726
VThe
p727
aVgirl
p728
ag53
aVsecretly
p729
aVterrify
p730
ag63
aVfor
p731
aVshe
p732
aVcould
p733
aVnot
p734
aVhave
p735
aVspin
p736
aVthe
p737
aVflax
p738
ag63
aVno
p739
ag63
aVnot
p740
aVif
p741
aVshe
p742
ag559
aVlive
p743
aVtill
p744
aVshe
p745
ag53
aVthree
p746
aVhundred
p747
aVyear
p748
aVold
p749
ag63
aVand
p750
ag559
aVsit
p751
aVat
p752
aVit
p753
aVevery
p754
aVday
p755
aVfrom
p756
aVmorning
p757
aVtill
p758
aVnight
p759
ag79
asg80
(lp760
g82
ag82
ag82
ag82
ag82
ag82
ag82
ag82
ag82
ag82
ag82
ag82
ag82
ag82
ag82
ag82
ag82
ag82
ag82
ag82
ag82
ag82
ag82
ag82
ag82
ag82
ag82
ag82
ag82
ag82
ag82
ag82
ag82
ag82
ag82
ag82
ag82
ag82
ag82
ag82
ag82
ag82
asg83
(lp761
g88
ag89
ag86
ag87
ag261
ag95
ag158
ag97
ag93
ag87
ag94
ag261
ag88
ag89
ag95
ag88
ag95
ag87
ag158
ag97
ag86
ag261
ag89
ag97
ag86
ag586
ag261
ag260
ag91
ag95
ag92
ag86
ag261
ag158
ag97
ag88
ag89
ag158
ag89
ag89
ag89
ag99
asg100
VThe girl was secretly terrified, for she could not have spun the flax, no, not if she had lived till she was three hundred years old, and had sat at it every day from morning till night.
p762
sba(i__main__
Sentence
p763
(dp764
g17
I13
sg18
(lp765
S'When'
p766
aS'therefore'
p767
aS'she'
p768
aS'was'
p769
aS'alone'
p770
aS','
p771
aS'she'
p772
aS'began'
p773
aS'to'
p774
aS'weep'
p775
aS','
p776
aS'and'
p777
aS'sat'
p778
aS'thus'
p779
aS'for'
p780
aS'three'
p781
aS'days'
p782
aS'without'
p783
aS'moving'
p784
aS'a'
p785
aS'finger'
p786
aS'.'
p787
asg50
(lp788
VWhen
p789
aVtherefore
p790
aVshe
p791
ag53
aValone
p792
ag63
aVshe
p793
ag152
aVto
p794
aVweep
p795
ag63
aVand
p796
ag751
aVthus
p797
aVfor
p798
aVthree
p799
aVday
p800
aVwithout
p801
aVmove
p802
ag55
aVfinger
p803
ag79
asg80
(lp804
g82
ag82
ag82
ag82
ag82
ag82
ag82
ag82
ag82
ag82
ag82
ag82
ag82
ag82
ag82
ag82
ag82
ag82
ag82
ag82
ag82
ag82
asg83
(lp805
g257
ag87
ag97
ag86
ag87
ag95
ag97
ag86
ag98
ag94
ag95
ag92
ag94
ag87
ag158
ag586
ag260
ag158
ag259
ag88
ag89
ag99
asg100
VWhen therefore she was alone, she began to weep, and sat thus for three days without moving a finger.
p806
sba(i__main__
Sentence
p807
(dp808
g17
I14
sg18
(lp809
S'On'
p810
aS'the'
p811
aS'third'
p812
aS'day'
p813
aS'came'
p814
aS'the'
p815
aS'queen'
p816
aS','
p817
aS'and'
p818
aS'when'
p819
aS'she'
p820
aS'saw'
p821
aS'that'
p822
aS'nothing'
p823
aS'had'
p824
aS'yet'
p825
aS'been'
p826
aS'spun'
p827
aS','
p828
aS'she'
p829
aS'was'
p830
aS'surprised'
p831
aS','
p832
aS'but'
p833
aS'the'
p834
aS'girl'
p835
aS'excused'
p836
aS'herself'
p837
aS'by'
p838
aS'saying'
p839
aS'that'
p840
aS'she'
p841
aS'had'
p842
aS'not'
p843
aS'been'
p844
aS'able'
p845
aS'to'
p846
aS'begin'
p847
aS'because'
p848
aS'of'
p849
aS'her'
p850
aS'great'
p851
aS'distress'
p852
aS'at'
p853
aS'leaving'
p854
aS'her'
p855
aS'mother'
p856
aS"'s"
p857
aS'house'
p858
aS'.'
p859
asg50
(lp860
VOn
p861
aVthe
p862
aVthird
p863
aVday
p864
aVcome
p865
aVthe
p866
aVqueen
p867
ag63
aVand
p868
aVwhen
p869
aVshe
p870
aVsaw
p871
aVthat
p872
aVnothing
p873
ag559
aVyet
p874
aVbe
p875
ag736
ag63
aVshe
p876
ag53
aVsurprise
p877
ag63
aVbut
p878
aVthe
p879
aVgirl
p880
aVexcuse
p881
aVherself
p882
aVby
p883
aVsay
p884
aVthat
p885
aVshe
p886
ag559
aVnot
p887
ag875
aVable
p888
aVto
p889
aVbegin
p890
aVbecause
p891
aVof
p892
aVher
p893
aVgreat
p894
aVdistress
p895
aVat
p896
aVleave
p897
aVher
p898
aVmother
p899
aV's
p900
aVhouse
p901
ag79
asg80
(lp902
g82
ag82
ag82
ag82
ag82
ag82
ag82
ag82
ag82
ag82
ag82
ag82
ag82
ag82
ag82
ag82
ag82
ag82
ag82
ag82
ag82
ag82
ag82
ag82
ag82
ag82
ag82
ag82
ag82
ag82
ag82
ag82
ag82
ag82
ag82
ag82
ag82
ag82
ag82
ag82
ag82
ag82
ag82
ag82
ag82
ag82
ag82
ag82
ag82
ag82
asg83
(lp903
g158
ag88
ag91
ag89
ag86
ag88
ag89
ag95
ag92
ag257
ag97
ag86
ag158
ag89
ag86
ag87
ag261
ag261
ag95
ag97
ag86
ag261
ag95
ag92
ag88
ag89
ag86
ag97
ag158
ag259
ag158
ag97
ag86
ag87
ag261
ag91
ag98
ag94
ag158
ag158
ag96
ag91
ag89
ag158
ag259
ag97
ag159
aS'POS'
p904
ag89
ag99
asg100
VOn the third day came the queen, and when she saw that nothing had yet been spun, she was surprised, but the girl excused herself by saying that she had not been able to begin because of her great distress at leaving her mother's house.
p905
sba(i__main__
Sentence
p906
(dp907
g17
I15
sg18
(lp908
S'The'
p909
aS'queen'
p910
aS'was'
p911
aS'satisfied'
p912
aS'with'
p913
aS'this'
p914
aS','
p915
aS'but'
p916
aS'said'
p917
aS'when'
p918
aS'she'
p919
aS'was'
p920
aS'going'
p921
aS'away'
p922
aS','
p923
aS'tomorrow'
p924
aS'you'
p925
aS'must'
p926
aS'begin'
p927
aS'to'
p928
aS'work'
p929
aS'.'
p930
asg50
(lp931
VThe
p932
aVqueen
p933
ag53
ag510
aVwith
p934
aVthis
p935
ag63
aVbut
p936
ag305
aVwhen
p937
aVshe
p938
ag53
aVgo
p939
aVaway
p940
ag63
aVtomorrow
p941
aVyou
p942
aVmust
p943
aVbegin
p944
aVto
p945
aVwork
p946
ag79
asg80
(lp947
g82
ag82
ag82
ag82
ag82
ag82
ag82
ag82
ag82
ag82
ag82
ag82
ag82
ag82
ag82
ag82
ag82
ag82
ag82
ag82
ag82
ag82
asg83
(lp948
g88
ag261
ag86
ag261
ag158
ag88
ag95
ag92
ag86
ag257
ag97
ag86
ag259
ag87
ag95
ag89
ag97
ag93
ag94
ag98
ag94
ag99
asg100
VThe queen was satisfied with this, but said when she was going away, tomorrow you must begin to work.
p949
sba(i__main__
Sentence
p950
(dp951
g17
I16
sg18
(lp952
S'When'
p953
aS'the'
p954
aS'girl'
p955
aS'was'
p956
aS'alone'
p957
aS'again'
p958
aS','
p959
aS'she'
p960
aS'did'
p961
aS'not'
p962
aS'know'
p963
aS'what'
p964
aS'to'
p965
aS'do'
p966
aS','
p967
aS'and'
p968
aS'in'
p969
aS'her'
p970
aS'distress'
p971
aS'went'
p972
aS'to'
p973
aS'the'
p974
aS'window'
p975
aS'.'
p976
asg50
(lp977
VWhen
p978
aVthe
p979
aVgirl
p980
ag53
aValone
p981
aVagain
p982
ag63
aVshe
p983
aVdo
p984
aVnot
p985
aVknow
p986
aVwhat
p987
aVto
p988
aVdo
p989
ag63
aVand
p990
aVin
p991
aVher
p992
aVdistress
p993
aVwent
p994
aVto
p995
aVthe
p996
aVwindow
p997
ag79
asg80
(lp998
g82
ag82
ag82
ag82
ag82
ag82
ag82
ag82
ag82
ag82
ag82
ag82
ag82
ag82
ag82
ag82
ag82
ag82
ag82
ag82
ag82
ag82
ag82
ag82
asg83
(lp999
g257
ag88
ag89
ag86
ag87
ag87
ag95
ag97
ag86
ag87
ag94
ag90
ag98
ag94
ag95
ag92
ag158
ag96
ag89
ag89
ag98
ag88
ag89
ag99
asg100
VWhen the girl was alone again, she did not know what to do, and in her distress went to the window.
p1000
sba(i__main__
Sentence
p1001
(dp1002
g17
I17
sg18
(lp1003
S'Then'
p1004
aS'she'
p1005
aS'saw'
p1006
aS'three'
p1007
aS'women'
p1008
aS'coming'
p1009
aS'towards'
p1010
aS'her'
p1011
aS','
p1012
aS'the'
p1013
aS'first'
p1014
aS'of'
p1015
aS'whom'
p1016
aS'had'
p1017
aS'a'
p1018
aS'broad'
p1019
aS'flat'
p1020
aS'foot'
p1021
aS','
p1022
aS'the'
p1023
aS'second'
p1024
aS'had'
p1025
aS'such'
p1026
aS'a'
p1027
aS'great'
p1028
aS'underlip'
p1029
aS'that'
p1030
aS'it'
p1031
aS'hung'
p1032
aS'down'
p1033
aS'over'
p1034
aS'her'
p1035
aS'chin'
p1036
aS','
p1037
aS'and'
p1038
aS'the'
p1039
aS'third'
p1040
aS'had'
p1041
aS'a'
p1042
aS'broad'
p1043
aS'thumb'
p1044
aS'.'
p1045
asg50
(lp1046
VThen
p1047
aVshe
p1048
aVsaw
p1049
aVthree
p1050
aVwoman
p1051
aVcome
p1052
aVtowards
p1053
aVher
p1054
ag63
aVthe
p1055
aVfirst
p1056
aVof
p1057
aVwhom
p1058
ag559
ag55
aVbroad
p1059
aVflat
p1060
aVfoot
p1061
ag63
aVthe
p1062
aVsecond
p1063
ag559
aVsuch
p1064
ag55
aVgreat
p1065
aVunderlip
p1066
aVthat
p1067
aVit
p1068
aVhang
p1069
aVdown
p1070
aVover
p1071
aVher
p1072
aVchin
p1073
ag63
aVand
p1074
aVthe
p1075
aVthird
p1076
ag559
ag55
aVbroad
p1077
aVthumb
p1078
ag79
asg80
(lp1079
g82
ag82
ag82
ag82
ag82
ag82
ag82
ag82
ag82
ag82
ag82
ag82
ag82
ag82
ag82
ag82
ag82
ag82
ag82
ag82
ag82
ag82
ag82
ag82
ag82
ag82
ag82
ag82
ag82
ag82
ag82
ag82
ag82
ag82
ag82
ag82
ag82
ag82
ag82
ag82
ag82
ag82
asg83
(lp1080
g87
ag97
ag86
ag586
ag260
ag259
ag260
ag96
ag95
ag88
ag91
ag158
ag90
ag86
ag88
ag91
ag91
ag89
ag95
ag88
ag91
ag86
ag91
ag88
ag91
ag89
ag160
ag97
ag258
ag262
ag158
ag96
ag89
ag95
ag92
ag88
ag91
ag86
ag88
ag91
ag89
ag99
asg100
VThen she saw three women coming towards her, the first of whom had a broad flat foot, the second had such a great underlip that it hung down over her chin, and the third had a broad thumb.
p1081
sba(i__main__
Sentence
p1082
(dp1083
g17
I18
sg18
(lp1084
S'They'
p1085
aS'remained'
p1086
aS'standing'
p1087
aS'before'
p1088
aS'the'
p1089
aS'window'
p1090
aS','
p1091
aS'looked'
p1092
aS'up'
p1093
aS','
p1094
aS'and'
p1095
aS'asked'
p1096
aS'the'
p1097
aS'girl'
p1098
aS'what'
p1099
aS'was'
p1100
aS'amiss'
p1101
aS'with'
p1102
aS'her'
p1103
aS'.'
p1104
asg50
(lp1105
VThey
p1106
aVremain
p1107
aVstand
p1108
aVbefore
p1109
aVthe
p1110
aVwindow
p1111
ag63
aVlook
p1112
aVup
p1113
ag63
aVand
p1114
aVask
p1115
aVthe
p1116
aVgirl
p1117
aVwhat
p1118
ag53
aVamiss
p1119
aVwith
p1120
aVher
p1121
ag79
asg80
(lp1122
g82
ag82
ag82
ag82
ag82
ag82
ag82
ag82
ag82
ag82
ag82
ag82
ag82
ag82
ag82
ag82
ag82
ag82
ag82
ag82
asg83
(lp1123
g97
ag86
ag259
ag158
ag88
ag89
ag95
ag86
ag262
ag95
ag92
ag86
ag88
ag89
ag90
ag86
ag91
ag158
ag96
ag99
asg100
VThey remained standing before the window, looked up, and asked the girl what was amiss with her.
p1124
sba(i__main__
Sentence
p1125
(dp1126
g17
I19
sg18
(lp1127
S'She'
p1128
aS'complained'
p1129
aS'of'
p1130
aS'her'
p1131
aS'trouble'
p1132
aS','
p1133
aS'and'
p1134
aS'then'
p1135
aS'they'
p1136
aS'offered'
p1137
aS'her'
p1138
aS'their'
p1139
aS'help'
p1140
aS'and'
p1141
aS'said'
p1142
aS','
p1143
aS'if'
p1144
aS'you'
p1145
aS'will'
p1146
aS'invite'
p1147
aS'us'
p1148
aS'to'
p1149
aS'the'
p1150
aS'wedding'
p1151
aS','
p1152
aS'not'
p1153
aS'be'
p1154
aS'ashamed'
p1155
aS'of'
p1156
aS'us'
p1157
aS','
p1158
aS'and'
p1159
aS'will'
p1160
aS'call'
p1161
aS'us'
p1162
aS'your'
p1163
aS'aunts'
p1164
aS','
p1165
aS'and'
p1166
aS'likewise'
p1167
aS'will'
p1168
aS'place'
p1169
aS'us'
p1170
aS'at'
p1171
aS'your'
p1172
aS'table'
p1173
aS','
p1174
aS'we'
p1175
aS'will'
p1176
aS'spin'
p1177
aS'up'
p1178
aS'the'
p1179
aS'flax'
p1180
aS'for'
p1181
aS'you'
p1182
aS','
p1183
aS'and'
p1184
aS'that'
p1185
aS'in'
p1186
aS'a'
p1187
aS'very'
p1188
aS'short'
p1189
aS'time'
p1190
aS'.'
p1191
asg50
(lp1192
VShe
p1193
aVcomplain
p1194
aVof
p1195
aVher
p1196
aVtrouble
p1197
ag63
aVand
p1198
aVthen
p1199
aVthey
p1200
aVoffer
p1201
aVher
p1202
aVtheir
p1203
aVhelp
p1204
aVand
p1205
ag305
ag63
aVif
p1206
aVyou
p1207
aVwill
p1208
aVinvite
p1209
aVu
p1210
aVto
p1211
aVthe
p1212
aVwedding
p1213
ag63
aVnot
p1214
aVbe
p1215
aVashamed
p1216
aVof
p1217
ag1210
ag63
aVand
p1218
aVwill
p1219
aVcall
p1220
ag1210
aVyour
p1221
aVaunt
p1222
ag63
aVand
p1223
aVlikewise
p1224
aVwill
p1225
aVplace
p1226
ag1210
aVat
p1227
aVyour
p1228
aVtable
p1229
ag63
aVwe
p1230
aVwill
p1231
aVspin
p1232
aVup
p1233
aVthe
p1234
aVflax
p1235
aVfor
p1236
aVyou
p1237
ag63
aVand
p1238
aVthat
p1239
aVin
p1240
ag55
aVvery
p1241
aVshort
p1242
aVtime
p1243
ag79
asg80
(lp1244
g82
ag82
ag82
ag82
ag82
ag82
ag82
ag82
ag82
ag82
ag82
ag82
ag82
ag82
ag82
ag82
ag82
ag82
ag82
ag82
ag82
ag82
ag82
ag82
ag82
ag82
ag82
ag82
ag82
ag82
ag82
ag82
ag82
ag82
ag82
ag82
ag82
ag82
ag82
ag82
ag82
ag82
ag82
ag82
ag82
ag82
ag82
ag82
ag82
ag82
ag82
ag82
ag82
ag82
ag82
ag82
ag82
ag82
ag82
ag82
ag82
ag82
ag82
ag82
asg83
(lp1245
g97
ag86
ag158
ag96
ag89
ag95
ag92
ag87
ag97
ag86
ag97
ag96
ag89
ag92
ag86
ag95
ag158
ag97
ag93
ag94
ag97
ag98
ag88
ag89
ag95
ag87
ag94
ag261
ag158
ag97
ag95
ag92
ag93
ag94
ag97
ag96
ag260
ag95
ag92
ag94
ag93
ag94
ag97
ag158
ag96
ag91
ag95
ag97
ag93
ag94
ag262
ag88
ag89
ag158
ag97
ag95
ag92
ag158
ag158
ag88
ag87
ag91
ag89
ag99
asg100
VShe complained of her trouble, and then they offered her their help and said, if you will invite us to the wedding, not be ashamed of us, and will call us your aunts, and likewise will place us at your table, we will spin up the flax for you, and that in a very short time.
p1246
sba(i__main__
Sentence
p1247
(dp1248
g17
I20
sg18
(lp1249
S'With'
p1250
aS'all'
p1251
aS'my'
p1252
aS'heart'
p1253
aS','
p1254
aS'she'
p1255
aS'replied'
p1256
aS','
p1257
aS'do'
p1258
aS'but'
p1259
aS'come'
p1260
aS'in'
p1261
aS'and'
p1262
aS'begin'
p1263
aS'the'
p1264
aS'work'
p1265
aS'at'
p1266
aS'once'
p1267
aS'.'
p1268
asg50
(lp1269
VWith
p1270
aVall
p1271
aVmy
p1272
aVheart
p1273
ag63
aVshe
p1274
aVreply
p1275
ag63
aVdo
p1276
aVbut
p1277
aVcome
p1278
aVin
p1279
aVand
p1280
aVbegin
p1281
aVthe
p1282
aVwork
p1283
aVat
p1284
aVonce
p1285
ag79
asg80
(lp1286
g82
ag82
ag82
ag82
ag82
ag82
ag82
ag82
ag82
ag82
ag82
ag82
ag82
ag82
ag82
ag82
ag82
ag82
ag82
asg83
(lp1287
g158
ag88
ag96
ag89
ag95
ag97
ag86
ag95
ag258
ag92
ag94
ag262
ag92
ag89
ag88
ag89
ag158
ag87
ag99
asg100
VWith all my heart, she replied, do but come in and begin the work at once.
p1288
sba(i__main__
Sentence
p1289
(dp1290
g17
I21
sg18
(lp1291
S'Then'
p1292
aS'she'
p1293
aS'let'
p1294
aS'in'
p1295
aS'the'
p1296
aS'three'
p1297
aS'strange'
p1298
aS'women'
p1299
aS','
p1300
aS'and'
p1301
aS'cleared'
p1302
aS'a'
p1303
aS'place'
p1304
aS'in'
p1305
aS'the'
p1306
aS'first'
p1307
aS'room'
p1308
aS','
p1309
aS'where'
p1310
aS'they'
p1311
aS'seated'
p1312
aS'themselves'
p1313
aS'and'
p1314
aS'began'
p1315
aS'their'
p1316
aS'spinning'
p1317
aS'.'
p1318
asg50
(lp1319
VThen
p1320
aVshe
p1321
aVlet
p1322
aVin
p1323
aVthe
p1324
aVthree
p1325
aVstrange
p1326
aVwoman
p1327
ag63
aVand
p1328
aVclear
p1329
ag55
aVplace
p1330
aVin
p1331
aVthe
p1332
aVfirst
p1333
aVroom
p1334
ag63
aVwhere
p1335
aVthey
p1336
aVseat
p1337
aVthemselves
p1338
aVand
p1339
ag152
aVtheir
p1340
aVspinning
p1341
ag79
asg80
(lp1342
g82
ag82
ag82
ag82
ag82
ag82
ag82
ag82
ag82
ag82
ag82
ag82
ag82
ag82
ag82
ag82
ag82
ag82
ag82
ag82
ag82
ag82
ag82
ag82
ag82
ag82
ag82
asg83
(lp1343
g87
ag97
ag86
ag158
ag88
ag586
ag89
ag260
ag95
ag92
ag86
ag88
ag89
ag158
ag88
ag91
ag89
ag95
ag257
ag97
ag86
ag97
ag92
ag86
ag96
ag89
ag99
asg100
VThen she let in the three strange women, and cleared a place in the first room, where they seated themselves and began their spinning.
p1344
sba(i__main__
Sentence
p1345
(dp1346
g17
I22
sg18
(lp1347
S'The'
p1348
aS'one'
p1349
aS'drew'
p1350
aS'the'
p1351
aS'thread'
p1352
aS'and'
p1353
aS'trod'
p1354
aS'the'
p1355
aS'wheel'
p1356
aS','
p1357
aS'the'
p1358
aS'other'
p1359
aS'wetted'
p1360
aS'the'
p1361
aS'thread'
p1362
aS','
p1363
aS'the'
p1364
aS'third'
p1365
aS'twisted'
p1366
aS'it'
p1367
aS','
p1368
aS'and'
p1369
aS'struck'
p1370
aS'the'
p1371
aS'table'
p1372
aS'with'
p1373
aS'her'
p1374
aS'finger'
p1375
aS','
p1376
aS'and'
p1377
aS'as'
p1378
aS'often'
p1379
aS'as'
p1380
aS'she'
p1381
aS'struck'
p1382
aS'it'
p1383
aS','
p1384
aS'a'
p1385
aS'skein'
p1386
aS'of'
p1387
aS'thread'
p1388
aS'fell'
p1389
aS'to'
p1390
aS'the'
p1391
aS'ground'
p1392
aS'that'
p1393
aS'was'
p1394
aS'spun'
p1395
aS'in'
p1396
aS'the'
p1397
aS'finest'
p1398
aS'manner'
p1399
aS'possible'
p1400
aS'.'
p1401
asg50
(lp1402
VThe
p1403
aVone
p1404
aVdrew
p1405
aVthe
p1406
aVthread
p1407
aVand
p1408
aVtrod
p1409
aVthe
p1410
aVwheel
p1411
ag63
aVthe
p1412
aVother
p1413
aVwet
p1414
aVthe
p1415
aVthread
p1416
ag63
aVthe
p1417
aVthird
p1418
aVtwisted
p1419
aVit
p1420
ag63
aVand
p1421
aVstruck
p1422
aVthe
p1423
aVtable
p1424
aVwith
p1425
aVher
p1426
aVfinger
p1427
ag63
aVand
p1428
ag55
aVoften
p1429
ag55
aVshe
p1430
aVstrike
p1431
aVit
p1432
ag63
ag55
aVskein
p1433
aVof
p1434
aVthread
p1435
aVfell
p1436
aVto
p1437
aVthe
p1438
aVground
p1439
aVthat
p1440
ag53
ag736
aVin
p1441
aVthe
p1442
aVfine
p1443
aVmanner
p1444
aVpossible
p1445
ag79
asg80
(lp1446
g82
ag82
ag82
ag82
ag82
ag82
ag82
ag82
ag82
ag82
ag82
ag82
ag82
ag82
ag82
ag82
ag82
ag82
ag82
ag82
ag82
ag82
ag82
ag82
ag82
ag82
ag82
ag82
ag82
ag82
ag82
ag82
ag82
ag82
ag82
ag82
ag82
ag82
ag82
ag82
ag82
ag82
ag82
ag82
ag82
ag82
ag82
ag82
ag82
ag82
ag82
ag82
ag82
ag82
asg83
(lp1447
g88
ag586
ag89
ag88
ag89
ag92
ag89
ag88
ag89
ag95
ag88
ag91
ag261
ag88
ag89
ag95
ag88
ag91
ag91
ag97
ag95
ag92
ag89
ag88
ag89
ag158
ag96
ag89
ag95
ag92
ag158
ag87
ag158
ag97
ag86
ag97
ag95
ag88
ag89
ag158
ag89
ag86
ag98
ag88
ag89
ag158
ag86
ag261
ag158
ag88
ag587
ag89
ag91
ag99
asg100
VThe one drew the thread and trod the wheel, the other wetted the thread, the third twisted it, and struck the table with her finger, and as often as she struck it, a skein of thread fell to the ground that was spun in the finest manner possible.
p1448
sba(i__main__
Sentence
p1449
(dp1450
g17
I23
sg18
(lp1451
S'The'
p1452
aS'girl'
p1453
aS'concealed'
p1454
aS'the'
p1455
aS'three'
p1456
aS'spinners'
p1457
aS'from'
p1458
aS'the'
p1459
aS'queen'
p1460
aS','
p1461
aS'and'
p1462
aS'showed'
p1463
aS'her'
p1464
aS'whenever'
p1465
aS'she'
p1466
aS'came'
p1467
aS'the'
p1468
aS'great'
p1469
aS'quantity'
p1470
aS'of'
p1471
aS'spun'
p1472
aS'thread'
p1473
aS','
p1474
aS'until'
p1475
aS'the'
p1476
aS'latter'
p1477
aS'could'
p1478
aS'not'
p1479
aS'praise'
p1480
aS'her'
p1481
aS'enough'
p1482
aS'.'
p1483
asg50
(lp1484
VThe
p1485
aVgirl
p1486
aVconceal
p1487
aVthe
p1488
aVthree
p1489
aVspinner
p1490
aVfrom
p1491
aVthe
p1492
aVqueen
p1493
ag63
aVand
p1494
aVshow
p1495
aVher
p1496
aVwhenever
p1497
aVshe
p1498
ag865
aVthe
p1499
aVgreat
p1500
aVquantity
p1501
aVof
p1502
aVspun
p1503
aVthread
p1504
ag63
aVuntil
p1505
aVthe
p1506
aVlatter
p1507
aVcould
p1508
aVnot
p1509
aVpraise
p1510
aVher
p1511
aVenough
p1512
ag79
asg80
(lp1513
g82
ag82
ag82
ag82
ag82
ag82
ag82
ag82
ag82
ag82
ag82
ag82
ag82
ag82
ag82
ag82
ag82
ag82
ag82
ag82
ag82
ag82
ag82
ag82
ag82
ag82
ag82
ag82
ag82
ag82
ag82
ag82
asg83
(lp1514
g88
ag89
ag86
ag88
ag586
ag260
ag158
ag88
ag89
ag95
ag92
ag86
ag97
ag87
ag97
ag86
ag88
ag91
ag89
ag158
ag89
ag89
ag95
ag158
ag88
ag89
ag93
ag87
ag94
ag96
ag91
ag99
asg100
VThe girl concealed the three spinners from the queen, and showed her whenever she came the great quantity of spun thread, until the latter could not praise her enough.
p1515
sba(i__main__
Sentence
p1516
(dp1517
g17
I24
sg18
(lp1518
S'When'
p1519
aS'the'
p1520
aS'first'
p1521
aS'room'
p1522
aS'was'
p1523
aS'empty'
p1524
aS'she'
p1525
aS'went'
p1526
aS'to'
p1527
aS'the'
p1528
aS'second'
p1529
aS','
p1530
aS'and'
p1531
aS'at'
p1532
aS'last'
p1533
aS'to'
p1534
aS'the'
p1535
aS'third'
p1536
aS','
p1537
aS'and'
p1538
aS'that'
p1539
aS'too'
p1540
aS'was'
p1541
aS'quickly'
p1542
aS'cleared'
p1543
aS'.'
p1544
asg50
(lp1545
VWhen
p1546
aVthe
p1547
aVfirst
p1548
aVroom
p1549
ag53
aVempty
p1550
aVshe
p1551
ag232
aVto
p1552
aVthe
p1553
aVsecond
p1554
ag63
aVand
p1555
aVat
p1556
aVlast
p1557
aVto
p1558
aVthe
p1559
aVthird
p1560
ag63
aVand
p1561
aVthat
p1562
aVtoo
p1563
ag53
aVquickly
p1564
aVclear
p1565
ag79
asg80
(lp1566
g82
ag82
ag82
ag82
ag82
ag82
ag82
ag82
ag82
ag82
ag82
ag82
ag82
ag82
ag82
ag82
ag82
ag82
ag82
ag82
ag82
ag82
ag82
ag82
ag82
ag82
asg83
(lp1567
g257
ag88
ag91
ag89
ag86
ag91
ag97
ag86
ag98
ag88
ag91
ag95
ag92
ag158
ag91
ag98
ag88
ag91
ag95
ag92
ag158
ag87
ag86
ag87
ag261
ag99
asg100
VWhen the first room was empty she went to the second, and at last to the third, and that too was quickly cleared.
p1568
sba(i__main__
Sentence
p1569
(dp1570
g17
I25
sg18
(lp1571
S'Then'
p1572
aS'the'
p1573
aS'three'
p1574
aS'women'
p1575
aS'took'
p1576
aS'leave'
p1577
aS'and'
p1578
aS'said'
p1579
aS'to'
p1580
aS'the'
p1581
aS'girl'
p1582
aS','
p1583
aS'do'
p1584
aS'not'
p1585
aS'forget'
p1586
aS'what'
p1587
aS'you'
p1588
aS'have'
p1589
aS'promised'
p1590
aS'us'
p1591
aS'-'
p1592
aS'it'
p1593
aS'will'
p1594
aS'make'
p1595
aS'your'
p1596
aS'fortune'
p1597
aS'.'
p1598
asg50
(lp1599
VThen
p1600
aVthe
p1601
aVthree
p1602
aVwoman
p1603
ag516
aVleave
p1604
aVand
p1605
ag305
aVto
p1606
aVthe
p1607
aVgirl
p1608
ag63
aVdo
p1609
aVnot
p1610
aVforget
p1611
aVwhat
p1612
aVyou
p1613
aVhave
p1614
aVpromise
p1615
ag1210
aV-
p1616
aVit
p1617
aVwill
p1618
aVmake
p1619
aVyour
p1620
aVfortune
p1621
ag79
asg80
(lp1622
g82
ag82
ag82
ag82
ag82
ag82
ag82
ag82
ag82
ag82
ag82
ag82
ag82
ag82
ag82
ag82
ag82
ag82
ag82
ag82
ag82
ag82
ag82
ag82
ag82
ag82
ag82
asg83
(lp1623
g87
ag88
ag586
ag260
ag86
ag258
ag92
ag86
ag98
ag88
ag89
ag95
ag258
ag87
ag94
ag90
ag97
ag258
ag261
ag97
aS':'
p1624
ag97
ag93
ag94
ag96
ag89
ag99
asg100
VThen the three women took leave and said to the girl, do not forget what you have promised us - it will make your fortune.
p1625
sba(i__main__
Sentence
p1626
(dp1627
g17
I26
sg18
(lp1628
S'When'
p1629
aS'the'
p1630
aS'maiden'
p1631
aS'showed'
p1632
aS'the'
p1633
aS'queen'
p1634
aS'the'
p1635
aS'empty'
p1636
aS'rooms'
p1637
aS','
p1638
aS'and'
p1639
aS'the'
p1640
aS'great'
p1641
aS'heap'
p1642
aS'of'
p1643
aS'yarn'
p1644
aS','
p1645
aS'she'
p1646
aS'gave'
p1647
aS'orders'
p1648
aS'for'
p1649
aS'the'
p1650
aS'wedding'
p1651
aS','
p1652
aS'and'
p1653
aS'the'
p1654
aS'bridegroom'
p1655
aS'rejoiced'
p1656
aS'that'
p1657
aS'he'
p1658
aS'was'
p1659
aS'to'
p1660
aS'have'
p1661
aS'such'
p1662
aS'a'
p1663
aS'clever'
p1664
aS'and'
p1665
aS'industrious'
p1666
aS'wife'
p1667
aS','
p1668
aS'and'
p1669
aS'praised'
p1670
aS'her'
p1671
aS'mightily'
p1672
aS'.'
p1673
asg50
(lp1674
VWhen
p1675
aVthe
p1676
aVmaiden
p1677
aVshow
p1678
aVthe
p1679
aVqueen
p1680
aVthe
p1681
aVempty
p1682
aVroom
p1683
ag63
aVand
p1684
aVthe
p1685
aVgreat
p1686
aVheap
p1687
aVof
p1688
aVyarn
p1689
ag63
aVshe
p1690
aVgive
p1691
aVorder
p1692
aVfor
p1693
aVthe
p1694
aVwed
p1695
ag63
aVand
p1696
aVthe
p1697
aVbridegroom
p1698
aVrejoice
p1699
aVthat
p1700
aVhe
p1701
ag53
aVto
p1702
aVhave
p1703
aVsuch
p1704
ag55
aVclever
p1705
aVand
p1706
aVindustrious
p1707
aVwife
p1708
ag63
aVand
p1709
aVpraise
p1710
aVher
p1711
aVmightily
p1712
ag79
asg80
(lp1713
g82
ag82
ag82
ag82
ag82
ag82
ag82
ag82
ag82
ag82
ag82
ag82
ag82
ag82
ag82
ag82
ag82
ag82
ag82
ag82
ag82
ag82
ag82
ag82
ag82
ag82
ag82
ag82
ag82
ag82
ag82
ag82
ag82
ag82
ag82
ag82
ag82
ag82
ag82
ag82
ag82
ag82
ag82
ag82
ag82
asg83
(lp1714
g257
ag88
ag89
ag86
ag88
ag89
ag88
ag89
ag260
ag95
ag92
ag88
ag91
ag89
ag158
ag89
ag95
ag97
ag86
ag260
ag158
ag88
ag259
ag95
ag92
ag88
ag89
ag86
ag158
ag97
ag86
ag98
ag94
ag91
ag88
ag89
ag92
ag91
ag89
ag95
ag92
ag86
ag97
ag87
ag99
asg100
VWhen the maiden showed the queen the empty rooms, and the great heap of yarn, she gave orders for the wedding, and the bridegroom rejoiced that he was to have such a clever and industrious wife, and praised her mightily.
p1715
sba(i__main__
Sentence
p1716
(dp1717
g17
I27
sg18
(lp1718
S'I'
p1719
aS'have'
p1720
aS'three'
p1721
aS'aunts'
p1722
aS','
p1723
aS'said'
p1724
aS'the'
p1725
aS'girl'
p1726
aS','
p1727
aS'and'
p1728
aS'as'
p1729
aS'they'
p1730
aS'have'
p1731
aS'been'
p1732
aS'very'
p1733
aS'kind'
p1734
aS'to'
p1735
aS'me'
p1736
aS','
p1737
aS'I'
p1738
aS'should'
p1739
aS'not'
p1740
aS'like'
p1741
aS'to'
p1742
aS'forget'
p1743
aS'them'
p1744
aS'in'
p1745
aS'my'
p1746
aS'good'
p1747
aS'fortune'
p1748
aS','
p1749
aS'allow'
p1750
aS'me'
p1751
aS'to'
p1752
aS'invite'
p1753
aS'them'
p1754
aS'to'
p1755
aS'the'
p1756
aS'wedding'
p1757
aS','
p1758
aS'and'
p1759
aS'let'
p1760
aS'them'
p1761
aS'sit'
p1762
aS'with'
p1763
aS'us'
p1764
aS'at'
p1765
aS'table'
p1766
aS'.'
p1767
asg50
(lp1768
g306
aVhave
p1769
aVthree
p1770
aVaunt
p1771
ag63
ag305
aVthe
p1772
aVgirl
p1773
ag63
aVand
p1774
ag55
aVthey
p1775
aVhave
p1776
ag875
aVvery
p1777
aVkind
p1778
aVto
p1779
aVme
p1780
ag63
ag306
aVshould
p1781
aVnot
p1782
aVlike
p1783
aVto
p1784
aVforget
p1785
aVthem
p1786
aVin
p1787
aVmy
p1788
aVgood
p1789
aVfortune
p1790
ag63
aVallow
p1791
aVme
p1792
aVto
p1793
aVinvite
p1794
aVthem
p1795
aVto
p1796
aVthe
p1797
aVwedding
p1798
ag63
aVand
p1799
aVlet
p1800
aVthem
p1801
aVsit
p1802
aVwith
p1803
ag1210
aVat
p1804
aVtable
p1805
ag79
asg80
(lp1806
g82
ag82
ag82
ag82
ag82
ag82
ag82
ag82
ag82
ag82
ag82
ag82
ag82
ag82
ag82
ag82
ag82
ag82
ag82
ag82
ag82
ag82
ag82
ag82
ag82
ag82
ag82
ag82
ag82
ag82
ag82
ag82
ag82
ag82
ag82
ag82
ag82
ag82
ag82
ag82
ag82
ag82
ag82
ag82
ag82
ag82
ag82
ag82
ag82
asg83
(lp1807
g97
ag258
ag586
ag260
ag95
ag86
ag88
ag89
ag95
ag92
ag158
ag97
ag258
ag261
ag87
ag91
ag98
ag97
ag95
ag97
ag93
ag87
ag94
ag98
ag94
ag97
ag158
ag96
ag89
ag89
ag95
ag258
ag97
ag98
ag94
ag97
ag98
ag88
ag89
ag95
ag92
ag94
ag97
ag94
ag158
ag97
ag158
ag91
ag99
asg100
VI have three aunts, said the girl, and as they have been very kind to me, I should not like to forget them in my good fortune, allow me to invite them to the wedding, and let them sit with us at table.
p1808
sba(i__main__
Sentence
p1809
(dp1810
g17
I28
sg18
(lp1811
S'The'
p1812
aS'queen'
p1813
aS'and'
p1814
aS'the'
p1815
aS'bridegroom'
p1816
aS'said'
p1817
aS','
p1818
aS'why'
p1819
aS'should'
p1820
aS'we'
p1821
aS'not'
p1822
aS'allow'
p1823
aS'that'
p1824
aS'.'
p1825
asg50
(lp1826
VThe
p1827
aVqueen
p1828
aVand
p1829
aVthe
p1830
aVbridegroom
p1831
ag305
ag63
aVwhy
p1832
aVshould
p1833
aVwe
p1834
aVnot
p1835
aVallow
p1836
aVthat
p1837
ag79
asg80
(lp1838
g82
ag82
ag82
ag82
ag82
ag82
ag82
ag82
ag82
ag82
ag82
ag82
ag82
ag82
asg83
(lp1839
g88
ag261
ag92
ag88
ag89
ag86
ag95
ag257
ag93
ag97
ag87
ag258
ag158
ag99
asg100
VThe queen and the bridegroom said, why should we not allow that.
p1840
sba(i__main__
Sentence
p1841
(dp1842
g17
I29
sg18
(lp1843
S'Therefore'
p1844
aS'when'
p1845
aS'the'
p1846
aS'feast'
p1847
aS'began'
p1848
aS','
p1849
aS'the'
p1850
aS'three'
p1851
aS'women'
p1852
aS'entered'
p1853
aS'in'
p1854
aS'strange'
p1855
aS'apparel'
p1856
aS','
p1857
aS'and'
p1858
aS'the'
p1859
aS'bride'
p1860
aS'said'
p1861
aS','
p1862
aS'welcome'
p1863
aS','
p1864
aS'dear'
p1865
aS'aunts'
p1866
aS'.'
p1867
asg50
(lp1868
VTherefore
p1869
aVwhen
p1870
aVthe
p1871
aVfeast
p1872
ag152
ag63
aVthe
p1873
aVthree
p1874
aVwoman
p1875
aVenter
p1876
aVin
p1877
aVstrange
p1878
aVapparel
p1879
ag63
aVand
p1880
aVthe
p1881
aVbride
p1882
ag305
ag63
aVwelcome
p1883
ag63
aVdear
p1884
aVaunt
p1885
ag79
asg80
(lp1886
g82
ag82
ag82
ag82
ag82
ag82
ag82
ag82
ag82
ag82
ag82
ag82
ag82
ag82
ag82
ag82
ag82
ag82
ag82
ag82
ag82
ag82
ag82
ag82
asg83
(lp1887
g450
ag257
ag88
ag89
ag86
ag95
ag88
ag586
ag260
ag86
ag158
ag89
ag89
ag95
ag92
ag88
ag89
ag86
ag95
ag89
ag95
ag91
ag260
ag99
asg100
VTherefore when the feast began, the three women entered in strange apparel, and the bride said, welcome, dear aunts.
p1888
sba(i__main__
Sentence
p1889
(dp1890
g17
I30
sg18
(lp1891
S'Ah'
p1892
aS','
p1893
aS'said'
p1894
aS'the'
p1895
aS'bridegroom'
p1896
aS','
p1897
aS'how'
p1898
aS'do'
p1899
aS'you'
p1900
aS'come'
p1901
aS'by'
p1902
aS'these'
p1903
aS'odious'
p1904
aS'friends'
p1905
aS'.'
p1906
asg50
(lp1907
VAh
p1908
ag63
ag305
aVthe
p1909
aVbridegroom
p1910
ag63
aVhow
p1911
aVdo
p1912
aVyou
p1913
aVcome
p1914
aVby
p1915
aVthese
p1916
aVodious
p1917
aVfriend
p1918
ag79
asg80
(lp1919
g82
ag82
ag82
ag82
ag82
ag82
ag82
ag82
ag82
ag82
ag82
ag82
ag82
ag82
ag82
asg83
(lp1920
g450
ag95
ag86
ag88
ag89
ag95
ag257
ag258
ag97
ag94
ag158
ag88
ag91
ag260
ag99
asg100
VAh, said the bridegroom, how do you come by these odious friends.
p1921
sba(i__main__
Sentence
p1922
(dp1923
g17
I31
sg18
(lp1924
S'Thereupon'
p1925
aS'he'
p1926
aS'went'
p1927
aS'to'
p1928
aS'the'
p1929
aS'one'
p1930
aS'with'
p1931
aS'the'
p1932
aS'broad'
p1933
aS'flat'
p1934
aS'foot'
p1935
aS','
p1936
aS'and'
p1937
aS'said'
p1938
aS','
p1939
aS'how'
p1940
aS'do'
p1941
aS'you'
p1942
aS'come'
p1943
aS'by'
p1944
aS'such'
p1945
aS'a'
p1946
aS'broad'
p1947
aS'foot'
p1948
aS'.'
p1949
asg50
(lp1950
VThereupon
p1951
aVhe
p1952
ag232
aVto
p1953
aVthe
p1954
aVone
p1955
aVwith
p1956
aVthe
p1957
aVbroad
p1958
aVflat
p1959
aVfoot
p1960
ag63
aVand
p1961
ag305
ag63
aVhow
p1962
aVdo
p1963
aVyou
p1964
aVcome
p1965
aVby
p1966
aVsuch
p1967
ag55
aVbroad
p1968
aVfoot
p1969
ag79
asg80
(lp1970
g82
ag82
ag82
ag82
ag82
ag82
ag82
ag82
ag82
ag82
ag82
ag82
ag82
ag82
ag82
ag82
ag82
ag82
ag82
ag82
ag82
ag82
ag82
ag82
ag82
asg83
(lp1971
g450
ag97
ag86
ag98
ag88
ag586
ag158
ag88
ag91
ag91
ag89
ag95
ag92
ag86
ag95
ag257
ag258
ag97
ag94
ag158
ag91
ag88
ag91
ag89
ag99
asg100
VThereupon he went to the one with the broad flat foot, and said, how do you come by such a broad foot.
p1972
sba(i__main__
Sentence
p1973
(dp1974
g17
I32
sg18
(lp1975
S'By'
p1976
aS'treading'
p1977
aS','
p1978
aS'she'
p1979
aS'answered'
p1980
aS','
p1981
aS'by'
p1982
aS'treading'
p1983
aS'.'
p1984
asg50
(lp1985
VBy
p1986
aVtreading
p1987
ag63
aVshe
p1988
aVanswer
p1989
ag63
aVby
p1990
aVtreading
p1991
ag79
asg80
(lp1992
g82
ag82
ag82
ag82
ag82
ag82
ag82
ag82
ag82
asg83
(lp1993
g158
ag89
ag95
ag97
ag86
ag95
ag158
ag89
ag99
asg100
VBy treading, she answered, by treading.
p1994
sba(i__main__
Sentence
p1995
(dp1996
g17
I33
sg18
(lp1997
S'Then'
p1998
aS'the'
p1999
aS'bridegroom'
p2000
aS'went'
p2001
aS'to'
p2002
aS'the'
p2003
aS'second'
p2004
aS','
p2005
aS'and'
p2006
aS'said'
p2007
aS','
p2008
aS'how'
p2009
aS'do'
p2010
aS'you'
p2011
aS'come'
p2012
aS'by'
p2013
aS'your'
p2014
aS'falling'
p2015
aS'lip'
p2016
aS'.'
p2017
asg50
(lp2018
VThen
p2019
aVthe
p2020
aVbridegroom
p2021
ag232
aVto
p2022
aVthe
p2023
aVsecond
p2024
ag63
aVand
p2025
ag305
ag63
aVhow
p2026
aVdo
p2027
aVyou
p2028
aVcome
p2029
aVby
p2030
aVyour
p2031
aVfalling
p2032
aVlip
p2033
ag79
asg80
(lp2034
g82
ag82
ag82
ag82
ag82
ag82
ag82
ag82
ag82
ag82
ag82
ag82
ag82
ag82
ag82
ag82
ag82
ag82
ag82
ag82
asg83
(lp2035
g87
ag88
ag89
ag86
ag98
ag88
ag91
ag95
ag92
ag86
ag95
ag257
ag258
ag97
ag94
ag158
ag96
ag89
ag89
ag99
asg100
VThen the bridegroom went to the second, and said, how do you come by your falling lip.
p2036
sba(i__main__
Sentence
p2037
(dp2038
g17
I34
sg18
(lp2039
S'By'
p2040
aS'licking'
p2041
aS','
p2042
aS'she'
p2043
aS'answered'
p2044
aS','
p2045
aS'by'
p2046
aS'licking'
p2047
aS'.'
p2048
asg50
(lp2049
VBy
p2050
aVlicking
p2051
ag63
aVshe
p2052
aVanswer
p2053
ag63
aVby
p2054
aVlicking
p2055
ag79
asg80
(lp2056
g82
ag82
ag82
ag82
ag82
ag82
ag82
ag82
ag82
asg83
(lp2057
g158
ag89
ag95
ag97
ag86
ag95
ag158
ag89
ag99
asg100
VBy licking, she answered, by licking.
p2058
sba(i__main__
Sentence
p2059
(dp2060
g17
I35
sg18
(lp2061
S'Then'
p2062
aS'he'
p2063
aS'asked'
p2064
aS'the'
p2065
aS'third'
p2066
aS','
p2067
aS'how'
p2068
aS'do'
p2069
aS'you'
p2070
aS'come'
p2071
aS'by'
p2072
aS'your'
p2073
aS'broad'
p2074
aS'thumb'
p2075
aS'.'
p2076
asg50
(lp2077
VThen
p2078
aVhe
p2079
aVask
p2080
aVthe
p2081
aVthird
p2082
ag63
aVhow
p2083
aVdo
p2084
aVyou
p2085
aVcome
p2086
aVby
p2087
aVyour
p2088
aVbroad
p2089
aVthumb
p2090
ag79
asg80
(lp2091
g82
ag82
ag82
ag82
ag82
ag82
ag82
ag82
ag82
ag82
ag82
ag82
ag82
ag82
ag82
asg83
(lp2092
g87
ag97
ag86
ag88
ag91
ag95
ag257
ag258
ag97
ag94
ag158
ag96
ag91
ag89
ag99
asg100
VThen he asked the third, how do you come by your broad thumb.
p2093
sba(i__main__
Sentence
p2094
(dp2095
g17
I36
sg18
(lp2096
S'By'
p2097
aS'twisting'
p2098
aS'the'
p2099
aS'thread'
p2100
aS','
p2101
aS'she'
p2102
aS'answered'
p2103
aS','
p2104
aS'by'
p2105
aS'twisting'
p2106
aS'the'
p2107
aS'thread'
p2108
aS'.'
p2109
asg50
(lp2110
VBy
p2111
aVtwisting
p2112
aVthe
p2113
aVthread
p2114
ag63
aVshe
p2115
aVanswer
p2116
ag63
aVby
p2117
aVtwisting
p2118
aVthe
p2119
aVthread
p2120
ag79
asg80
(lp2121
g82
ag82
ag82
ag82
ag82
ag82
ag82
ag82
ag82
ag82
ag82
ag82
ag82
asg83
(lp2122
g158
ag89
ag88
ag89
ag95
ag97
ag86
ag95
ag158
ag89
ag88
ag89
ag99
asg100
VBy twisting the thread, she answered, by twisting the thread.
p2123
sba(i__main__
Sentence
p2124
(dp2125
g17
I37
sg18
(lp2126
S'On'
p2127
aS'this'
p2128
aS'the'
p2129
aS'king'
p2130
aS"'s"
p2131
aS'son'
p2132
aS'was'
p2133
aS'alarmed'
p2134
aS'and'
p2135
aS'said'
p2136
aS','
p2137
aS'neither'
p2138
aS'now'
p2139
aS'nor'
p2140
aS'ever'
p2141
aS'shall'
p2142
aS'my'
p2143
aS'beautiful'
p2144
aS'bride'
p2145
aS'touch'
p2146
aS'a'
p2147
aS'spinning-wheel'
p2148
aS'.'
p2149
asg50
(lp2150
VOn
p2151
aVthis
p2152
aVthe
p2153
aVking
p2154
aV's
p2155
aVson
p2156
ag53
aValarm
p2157
aVand
p2158
ag305
ag63
aVneither
p2159
aVnow
p2160
aVnor
p2161
aVever
p2162
aVshall
p2163
aVmy
p2164
aVbeautiful
p2165
aVbride
p2166
aVtouch
p2167
ag55
aVspinning-wheel
p2168
ag79
asg80
(lp2169
g82
ag82
ag82
ag82
ag82
ag82
ag82
ag82
ag82
ag82
ag82
ag82
ag82
ag82
ag82
ag82
ag82
ag82
ag82
ag82
ag82
ag82
ag82
asg83
(lp2170
g158
ag88
ag88
ag89
ag904
ag89
ag86
ag261
ag92
ag86
ag95
ag88
ag87
ag92
ag87
ag93
ag96
ag89
ag89
ag89
ag88
ag91
ag99
asg100
VOn this the king's son was alarmed and said, neither now nor ever shall my beautiful bride touch a spinning-wheel.
p2171
sba(i__main__
Sentence
p2172
(dp2173
g17
I38
sg18
(lp2174
S'And'
p2175
aS'thus'
p2176
aS'she'
p2177
aS'got'
p2178
aS'rid'
p2179
aS'of'
p2180
aS'the'
p2181
aS'hateful'
p2182
aS'flax-spinning'
p2183
aS'.'
p2184
asg50
(lp2185
VAnd
p2186
aVthus
p2187
aVshe
p2188
aVget
p2189
aVrid
p2190
aVof
p2191
aVthe
p2192
aVhateful
p2193
aVflax-spinning
p2194
ag79
asg80
(lp2195
g82
ag82
ag82
ag82
ag82
ag82
ag82
ag82
ag82
ag82
asg83
(lp2196
g92
ag87
ag97
ag86
ag91
ag158
ag88
ag91
ag91
ag99
asg100
VAnd thus she got rid of the hateful flax-spinning. 
p2197
sbasbsS'summary'
p2198
g0
(g7
g2
Ntp2199
Rp2200
(dp2201
g11
S"A woman has a lazy daughter who will not spin. She beats her daughter so that her cries are heard by a queen. The queen asks the mother why she is beating her daughter. The mother claims it is because her daughter won't stop spinning. The queen begs the daughter to be allowed to come to the palace and spin for her. The girl is taken to the palace where she is shown three rooms full of flax. After the girl has spun all of this flax, she will be allowed to marry the queen's son. Three strange women one, with a broad, flat foot, one a drooping lip, and one an oversized thumb offer to do the spinning if she will invite them to her wedding. Later at the wedding, the girl's husband asks the three women how they came to have..."
p2202
sg13
(lp2203
(i__main__
Sentence
p2204
(dp2205
g17
I0
sg18
(lp2206
S'A'
p2207
aS'woman'
p2208
aS'has'
p2209
aS'a'
p2210
aS'lazy'
p2211
aS'daughter'
p2212
aS'who'
p2213
aS'will'
p2214
aS'not'
p2215
aS'spin'
p2216
aS'.'
p2217
asg50
(lp2218
VA
p2219
aVwoman
p2220
aVhave
p2221
ag55
aVlazy
p2222
aVdaughter
p2223
aVwho
p2224
aVwill
p2225
aVnot
p2226
aVspin
p2227
ag79
asg80
(lp2228
g82
ag82
ag82
ag82
ag82
ag82
ag82
ag82
ag82
ag82
ag82
asg83
(lp2229
g88
ag89
ag362
ag88
ag89
ag89
ag90
ag93
ag87
ag94
ag99
asg100
VA woman has a lazy daughter who will not spin.
p2230
sba(i__main__
Sentence
p2231
(dp2232
g17
I1
sg18
(lp2233
S'She'
p2234
aS'beats'
p2235
aS'her'
p2236
aS'daughter'
p2237
aS'so'
p2238
aS'that'
p2239
aS'her'
p2240
aS'cries'
p2241
aS'are'
p2242
aS'heard'
p2243
aS'by'
p2244
aS'a'
p2245
aS'queen'
p2246
aS'.'
p2247
asg50
(lp2248
VShe
p2249
aVbeat
p2250
aVher
p2251
aVdaughter
p2252
aVso
p2253
aVthat
p2254
aVher
p2255
aVcry
p2256
ag417
ag225
aVby
p2257
ag55
aVqueen
p2258
ag79
asg80
(lp2259
g82
ag82
ag82
ag82
ag82
ag82
ag82
ag82
ag82
ag82
ag82
ag82
ag82
ag82
asg83
(lp2260
g97
ag362
ag96
ag89
ag158
ag158
ag96
ag260
ag258
ag261
ag158
ag88
ag91
ag99
asg100
VShe beats her daughter so that her cries are heard by a queen.
p2261
sba(i__main__
Sentence
p2262
(dp2263
g17
I2
sg18
(lp2264
S'The'
p2265
aS'queen'
p2266
aS'asks'
p2267
aS'the'
p2268
aS'mother'
p2269
aS'why'
p2270
aS'she'
p2271
aS'is'
p2272
aS'beating'
p2273
aS'her'
p2274
aS'daughter'
p2275
aS'.'
p2276
asg50
(lp2277
VThe
p2278
aVqueen
p2279
aVasks
p2280
aVthe
p2281
aVmother
p2282
aVwhy
p2283
aVshe
p2284
ag402
aVbeat
p2285
aVher
p2286
aVdaughter
p2287
ag79
asg80
(lp2288
g82
ag82
ag82
ag82
ag82
ag82
ag82
ag82
ag82
ag82
ag82
ag82
asg83
(lp2289
g88
ag261
ag260
ag88
ag89
ag257
ag97
ag362
ag259
ag96
ag89
ag99
asg100
VThe queen asks the mother why she is beating her daughter.
p2290
sba(i__main__
Sentence
p2291
(dp2292
g17
I3
sg18
(lp2293
S'The'
p2294
aS'mother'
p2295
aS'claims'
p2296
aS'it'
p2297
aS'is'
p2298
aS'because'
p2299
aS'her'
p2300
aS'daughter'
p2301
aS'wo'
p2302
aS"n't"
p2303
aS'stop'
p2304
aS'spinning'
p2305
aS'.'
p2306
asg50
(lp2307
VThe
p2308
aVmother
p2309
aVclaim
p2310
aVit
p2311
ag402
aVbecause
p2312
aVher
p2313
aVdaughter
p2314
aVwo
p2315
aVn't
p2316
aVstop
p2317
ag314
ag79
asg80
(lp2318
g82
ag82
ag82
ag82
ag82
ag82
ag82
ag82
ag82
ag82
ag82
ag82
ag82
asg83
(lp2319
g88
ag89
ag362
ag97
ag362
ag158
ag96
ag89
ag93
ag87
ag94
ag259
ag99
asg100
VThe mother claims it is because her daughter won't stop spinning.
p2320
sba(i__main__
Sentence
p2321
(dp2322
g17
I4
sg18
(lp2323
S'The'
p2324
aS'queen'
p2325
aS'begs'
p2326
aS'the'
p2327
aS'daughter'
p2328
aS'to'
p2329
aS'be'
p2330
aS'allowed'
p2331
aS'to'
p2332
aS'come'
p2333
aS'to'
p2334
aS'the'
p2335
aS'palace'
p2336
aS'and'
p2337
aS'spin'
p2338
aS'for'
p2339
aS'her'
p2340
aS'.'
p2341
asg50
(lp2342
VThe
p2343
aVqueen
p2344
aVbegs
p2345
aVthe
p2346
aVdaughter
p2347
aVto
p2348
aVbe
p2349
aVallow
p2350
aVto
p2351
aVcome
p2352
aVto
p2353
aVthe
p2354
aVpalace
p2355
aVand
p2356
aVspin
p2357
aVfor
p2358
aVher
p2359
ag79
asg80
(lp2360
g82
ag82
ag82
ag82
ag82
ag82
ag82
ag82
ag82
ag82
ag82
ag82
ag82
ag82
ag82
ag82
ag82
ag82
asg83
(lp2361
g88
ag261
ag260
ag88
ag89
ag98
ag94
ag261
ag98
ag94
ag98
ag88
ag89
ag92
ag89
ag158
ag96
ag99
asg100
VThe queen begs the daughter to be allowed to come to the palace and spin for her.
p2362
sba(i__main__
Sentence
p2363
(dp2364
g17
I5
sg18
(lp2365
S'The'
p2366
aS'girl'
p2367
aS'is'
p2368
aS'taken'
p2369
aS'to'
p2370
aS'the'
p2371
aS'palace'
p2372
aS'where'
p2373
aS'she'
p2374
aS'is'
p2375
aS'shown'
p2376
aS'three'
p2377
aS'rooms'
p2378
aS'full'
p2379
aS'of'
p2380
aS'flax'
p2381
aS'.'
p2382
asg50
(lp2383
VThe
p2384
aVgirl
p2385
ag402
aVtake
p2386
aVto
p2387
aVthe
p2388
aVpalace
p2389
aVwhere
p2390
aVshe
p2391
ag402
aVshow
p2392
aVthree
p2393
aVroom
p2394
aVfull
p2395
aVof
p2396
aVflax
p2397
ag79
asg80
(lp2398
g82
ag82
ag82
ag82
ag82
ag82
ag82
ag82
ag82
ag82
ag82
ag82
ag82
ag82
ag82
ag82
ag82
asg83
(lp2399
g88
ag89
ag362
ag261
ag98
ag88
ag89
ag257
ag97
ag362
ag261
ag586
ag260
ag91
ag158
ag89
ag99
asg100
VThe girl is taken to the palace where she is shown three rooms full of flax.
p2400
sba(i__main__
Sentence
p2401
(dp2402
g17
I6
sg18
(lp2403
S'After'
p2404
aS'the'
p2405
aS'girl'
p2406
aS'has'
p2407
aS'spun'
p2408
aS'all'
p2409
aS'of'
p2410
aS'this'
p2411
aS'flax'
p2412
aS','
p2413
aS'she'
p2414
aS'will'
p2415
aS'be'
p2416
aS'allowed'
p2417
aS'to'
p2418
aS'marry'
p2419
aS'the'
p2420
aS'queen'
p2421
aS"'s"
p2422
aS'son'
p2423
aS'.'
p2424
asg50
(lp2425
VAfter
p2426
aVthe
p2427
aVgirl
p2428
ag2221
ag736
aVall
p2429
aVof
p2430
aVthis
p2431
aVflax
p2432
ag63
aVshe
p2433
aVwill
p2434
aVbe
p2435
aVallow
p2436
aVto
p2437
aVmarry
p2438
aVthe
p2439
aVqueen
p2440
aV's
p2441
aVson
p2442
ag79
asg80
(lp2443
g82
ag82
ag82
ag82
ag82
ag82
ag82
ag82
ag82
ag82
ag82
ag82
ag82
ag82
ag82
ag82
ag82
ag82
ag82
ag82
ag82
asg83
(lp2444
g158
ag88
ag89
ag362
ag261
ag88
ag158
ag88
ag89
ag95
ag97
ag93
ag94
ag261
ag98
ag94
ag88
ag89
ag904
ag89
ag99
asg100
VAfter the girl has spun all of this flax, she will be allowed to marry the queen's son.
p2445
sba(i__main__
Sentence
p2446
(dp2447
g17
I7
sg18
(lp2448
S'Three'
p2449
aS'strange'
p2450
aS'women'
p2451
aS'one'
p2452
aS','
p2453
aS'with'
p2454
aS'a'
p2455
aS'broad'
p2456
aS','
p2457
aS'flat'
p2458
aS'foot'
p2459
aS','
p2460
aS'one'
p2461
aS'a'
p2462
aS'drooping'
p2463
aS'lip'
p2464
aS','
p2465
aS'and'
p2466
aS'one'
p2467
aS'an'
p2468
aS'oversized'
p2469
aS'thumb'
p2470
aS'offer'
p2471
aS'to'
p2472
aS'do'
p2473
aS'the'
p2474
aS'spinning'
p2475
aS'if'
p2476
aS'she'
p2477
aS'will'
p2478
aS'invite'
p2479
aS'them'
p2480
aS'to'
p2481
aS'her'
p2482
aS'wedding'
p2483
aS'.'
p2484
asg50
(lp2485
VThree
p2486
aVstrange
p2487
aVwoman
p2488
aVone
p2489
ag63
aVwith
p2490
ag55
aVbroad
p2491
ag63
aVflat
p2492
aVfoot
p2493
ag63
aVone
p2494
ag55
aVdrooping
p2495
aVlip
p2496
ag63
aVand
p2497
aVone
p2498
aVan
p2499
aVoversized
p2500
aVthumb
p2501
aVoffer
p2502
aVto
p2503
aVdo
p2504
aVthe
p2505
aVspinning
p2506
aVif
p2507
aVshe
p2508
aVwill
p2509
aVinvite
p2510
aVthem
p2511
aVto
p2512
aVher
p2513
aVwedding
p2514
ag79
asg80
(lp2515
g82
ag82
ag82
ag82
ag82
ag82
ag82
ag82
ag82
ag82
ag82
ag82
ag82
ag82
ag82
ag82
ag82
ag82
ag82
ag82
ag82
ag82
ag82
ag82
ag82
ag82
ag82
ag82
ag82
ag82
ag82
ag82
ag82
ag82
ag82
ag82
asg83
(lp2516
g586
ag89
ag260
ag586
ag95
ag158
ag88
ag91
ag95
ag91
ag89
ag95
ag586
ag88
ag89
ag89
ag95
ag92
ag586
ag88
ag91
ag89
ag89
ag98
ag94
ag88
ag89
ag158
ag97
ag93
ag94
ag97
ag98
ag96
ag89
ag99
asg100
VThree strange women one, with a broad, flat foot, one a drooping lip, and one an oversized thumb offer to do the spinning if she will invite them to her wedding.
p2517
sba(i__main__
Sentence
p2518
(dp2519
g17
I8
sg18
(lp2520
S'Later'
p2521
aS'at'
p2522
aS'the'
p2523
aS'wedding'
p2524
aS','
p2525
aS'the'
p2526
aS'girl'
p2527
aS"'s"
p2528
aS'husband'
p2529
aS'asks'
p2530
aS'the'
p2531
aS'three'
p2532
aS'women'
p2533
aS'how'
p2534
aS'they'
p2535
aS'came'
p2536
aS'to'
p2537
aS'have'
p2538
aS'...'
p2539
asg50
(lp2540
VLater
p2541
aVat
p2542
aVthe
p2543
aVwedding
p2544
ag63
aVthe
p2545
aVgirl
p2546
aV's
p2547
aVhusband
p2548
aVask
p2549
aVthe
p2550
aVthree
p2551
aVwoman
p2552
aVhow
p2553
aVthey
p2554
ag865
aVto
p2555
aVhave
p2556
aV...
p2557
asg80
(lp2558
g82
ag82
ag82
ag82
ag82
ag82
ag82
ag82
ag82
ag82
ag82
ag82
ag82
ag82
ag82
ag82
ag82
ag82
ag82
asg83
(lp2559
g91
ag158
ag88
ag89
ag95
ag88
ag89
ag904
ag89
ag362
ag88
ag586
ag260
ag257
ag97
ag86
ag98
ag94
ag1624
asg100
VLater at the wedding, the girl's husband asks the three women how they came to have...
p2560
sbasbsS'name'
p2561
S'The Three Spinners'
p2562
sS'summaries'
p2563
(lp2564
g2200
asb.