ccopy_reg
_reconstructor
p0
(c__main__
Story
p1
c__builtin__
object
p2
Ntp3
Rp4
(dp5
S'text'
p6
g0
(c__main__
Document
p7
g2
Ntp8
Rp9
(dp10
S'_Document__initialContent'
p11
S"A merchant had done good business at the fair.  He had sold his\nwares, and lined his money-bags with gold and silver.  Then he\nwanted to travel homewards, and be in his own house before\nnightfall.  So he packed his trunk with the money on his horse,\nand rode away.\nAt noon he rested in a town, and when he wanted to go farther\nthe stable-boy brought out his horse and said, a nail is\nwanting, sir, in the shoe of its near hind foot.  Let it be\nwanting, answered the merchant.  The shoe will certainly stay on\nfor the six miles I have still to go.  I am in a hurry.\nIn the afternoon, when he once more alighted and had his horse\nfed, the stable-boy went into the room to him and said, sir, a\nshoe is missing from your horse's near hind foot.  Shall I take\nhim to the blacksmith.  Let it be wanting, answered the man.\nThe horse can very well hold out for the couple of miles which\nremain.  I am in haste.\nHe rode forth, but before long the horse began to limp.  It had\nnot limped long before it began to stumble, and it had not\nstumbled long before it fell down and broke its leg.  The\nmerchant was forced\nto leave the horse where it was, and unbuckle the trunk, take it\non his back, and go home on foot.  And there he did not arrive\nuntil quite late at night.  And that cursed nail, said he to\nhimself, has caused all this disaster.\nThe more haste the less speed.\n"
p12
sS'sentences'
p13
(lp14
(i__main__
Sentence
p15
(dp16
S'index'
p17
I0
sS'words'
p18
(lp19
S'A'
p20
aS'merchant'
p21
aS'had'
p22
aS'done'
p23
aS'good'
p24
aS'business'
p25
aS'at'
p26
aS'the'
p27
aS'fair'
p28
aS'.'
p29
asS'lemmas'
p30
(lp31
VA
p32
aVmerchant
p33
aVhave
p34
aVdo
p35
aVgood
p36
aVbusiness
p37
aVat
p38
aVthe
p39
aVfair
p40
aV.
p41
asS'nerTags'
p42
(lp43
VO
p44
ag44
ag44
ag44
ag44
ag44
ag44
ag44
ag44
ag44
asS'posTags'
p45
(lp46
S'DT'
p47
aS'NN'
p48
aS'VBD'
p49
aS'VBN'
p50
aS'JJ'
p51
ag48
aS'IN'
p52
ag47
ag51
aS'.'
p53
asS'_Sentence__initialContent'
p54
VA merchant had done good business at the fair.
p55
sba(i__main__
Sentence
p56
(dp57
g17
I1
sg18
(lp58
S'He'
p59
aS'had'
p60
aS'sold'
p61
aS'his'
p62
aS'wares'
p63
aS','
p64
aS'and'
p65
aS'lined'
p66
aS'his'
p67
aS'money-bags'
p68
aS'with'
p69
aS'gold'
p70
aS'and'
p71
aS'silver'
p72
aS'.'
p73
asg30
(lp74
VHe
p75
ag34
aVsell
p76
aVhis
p77
aVware
p78
aV,
p79
aVand
p80
aVline
p81
aVhis
p82
aVmoney-bags
p83
aVwith
p84
aVgold
p85
aVand
p86
aVsilver
p87
ag41
asg42
(lp88
g44
ag44
ag44
ag44
ag44
ag44
ag44
ag44
ag44
ag44
ag44
ag44
ag44
ag44
ag44
asg45
(lp89
S'PRP'
p90
ag49
ag50
aS'PRP$'
p91
aS'NNS'
p92
aS','
p93
aS'CC'
p94
ag49
ag91
ag92
ag52
ag48
ag94
ag48
ag53
asg54
VHe had sold his wares, and lined his money-bags with gold and silver.
p95
sba(i__main__
Sentence
p96
(dp97
g17
I2
sg18
(lp98
S'Then'
p99
aS'he'
p100
aS'wanted'
p101
aS'to'
p102
aS'travel'
p103
aS'homewards'
p104
aS','
p105
aS'and'
p106
aS'be'
p107
aS'in'
p108
aS'his'
p109
aS'own'
p110
aS'house'
p111
aS'before'
p112
aS'nightfall'
p113
aS'.'
p114
asg30
(lp115
VThen
p116
aVhe
p117
aVwant
p118
aVto
p119
aVtravel
p120
aVhomewards
p121
ag79
aVand
p122
aVbe
p123
aVin
p124
aVhis
p125
aVown
p126
aVhouse
p127
aVbefore
p128
aVnightfall
p129
ag41
asg42
(lp130
g44
ag44
ag44
ag44
ag44
ag44
ag44
ag44
ag44
ag44
ag44
ag44
ag44
ag44
ag44
ag44
asg45
(lp131
S'RB'
p132
ag90
ag49
aS'TO'
p133
ag48
ag92
ag93
ag94
aS'VB'
p134
ag52
ag91
ag51
ag48
ag52
ag48
ag53
asg54
VThen he wanted to travel homewards, and be in his own house before nightfall.
p135
sba(i__main__
Sentence
p136
(dp137
g17
I3
sg18
(lp138
S'So'
p139
aS'he'
p140
aS'packed'
p141
aS'his'
p142
aS'trunk'
p143
aS'with'
p144
aS'the'
p145
aS'money'
p146
aS'on'
p147
aS'his'
p148
aS'horse'
p149
aS','
p150
aS'and'
p151
aS'rode'
p152
aS'away'
p153
aS'.'
p154
asg30
(lp155
VSo
p156
aVhe
p157
aVpack
p158
aVhis
p159
aVtrunk
p160
aVwith
p161
aVthe
p162
aVmoney
p163
aVon
p164
aVhis
p165
aVhorse
p166
ag79
aVand
p167
aVride
p168
aVaway
p169
ag41
asg42
(lp170
g44
ag44
ag44
ag44
ag44
ag44
ag44
ag44
ag44
ag44
ag44
ag44
ag44
ag44
ag44
ag44
asg45
(lp171
g52
ag90
ag49
ag91
ag48
ag52
ag47
ag48
ag52
ag91
ag48
ag93
ag94
ag134
aS'RP'
p172
ag53
asg54
VSo he packed his trunk with the money on his horse, and rode away.
p173
sba(i__main__
Sentence
p174
(dp175
g17
I4
sg18
(lp176
S'At'
p177
aS'noon'
p178
aS'he'
p179
aS'rested'
p180
aS'in'
p181
aS'a'
p182
aS'town'
p183
aS','
p184
aS'and'
p185
aS'when'
p186
aS'he'
p187
aS'wanted'
p188
aS'to'
p189
aS'go'
p190
aS'farther'
p191
aS'the'
p192
aS'stable-boy'
p193
aS'brought'
p194
aS'out'
p195
aS'his'
p196
aS'horse'
p197
aS'and'
p198
aS'said'
p199
aS','
p200
aS'a'
p201
aS'nail'
p202
aS'is'
p203
aS'wanting'
p204
aS','
p205
aS'sir'
p206
aS','
p207
aS'in'
p208
aS'the'
p209
aS'shoe'
p210
aS'of'
p211
aS'its'
p212
aS'near'
p213
aS'hind'
p214
aS'foot'
p215
aS'.'
p216
asg30
(lp217
VAt
p218
aVnoon
p219
aVhe
p220
aVrest
p221
aVin
p222
aVa
p223
aVtown
p224
ag79
aVand
p225
aVwhen
p226
aVhe
p227
aVwant
p228
aVto
p229
aVgo
p230
aVfar
p231
aVthe
p232
aVstable-boy
p233
aVbrought
p234
aVout
p235
aVhis
p236
aVhorse
p237
aVand
p238
aVsay
p239
ag79
ag223
aVnail
p240
aVbe
p241
aVwant
p242
ag79
aVsir
p243
ag79
aVin
p244
aVthe
p245
aVshoe
p246
aVof
p247
aVit
p248
aVnear
p249
aVhind
p250
aVfoot
p251
ag41
asg42
(lp252
g44
ag44
ag44
ag44
ag44
ag44
ag44
ag44
ag44
ag44
ag44
ag44
ag44
ag44
ag44
ag44
ag44
ag44
ag44
ag44
ag44
ag44
ag44
ag44
ag44
ag44
ag44
ag44
ag44
ag44
ag44
ag44
ag44
ag44
ag44
ag44
ag44
ag44
ag44
ag44
asg45
(lp253
g52
ag48
ag90
ag49
ag52
ag47
ag48
ag93
ag94
aS'WRB'
p254
ag90
ag49
ag133
ag134
ag132
ag47
ag51
ag48
ag52
ag91
ag48
ag94
ag49
ag93
ag47
ag48
aS'VBZ'
p255
aS'VBG'
p256
ag93
ag48
ag93
ag52
ag47
ag48
ag52
ag91
ag51
ag48
ag48
ag53
asg54
VAt noon he rested in a town, and when he wanted to go farther the stable-boy brought out his horse and said, a nail is wanting, sir, in the shoe of its near hind foot.
p257
sba(i__main__
Sentence
p258
(dp259
g17
I5
sg18
(lp260
S'Let'
p261
aS'it'
p262
aS'be'
p263
aS'wanting'
p264
aS','
p265
aS'answered'
p266
aS'the'
p267
aS'merchant'
p268
aS'.'
p269
asg30
(lp270
VLet
p271
aVit
p272
aVbe
p273
aVwant
p274
ag79
aVanswer
p275
aVthe
p276
aVmerchant
p277
ag41
asg42
(lp278
g44
ag44
ag44
ag44
ag44
ag44
ag44
ag44
ag44
asg45
(lp279
S'NNP'
p280
ag90
ag134
ag256
ag93
ag50
ag47
ag48
ag53
asg54
VLet it be wanting, answered the merchant.
p281
sba(i__main__
Sentence
p282
(dp283
g17
I6
sg18
(lp284
S'The'
p285
aS'shoe'
p286
aS'will'
p287
aS'certainly'
p288
aS'stay'
p289
aS'on'
p290
aS'for'
p291
aS'the'
p292
aS'six'
p293
aS'miles'
p294
aS'I'
p295
aS'have'
p296
aS'still'
p297
aS'to'
p298
aS'go'
p299
aS'.'
p300
asg30
(lp301
VThe
p302
aVshoe
p303
aVwill
p304
aVcertainly
p305
aVstay
p306
aVon
p307
aVfor
p308
aVthe
p309
aVsix
p310
aVmile
p311
aVI
p312
aVhave
p313
aVstill
p314
aVto
p315
aVgo
p316
ag41
asg42
(lp317
g44
ag44
ag44
ag44
ag44
ag44
ag44
ag44
ag44
ag44
ag44
ag44
ag44
ag44
ag44
ag44
asg45
(lp318
g47
ag48
aS'MD'
p319
ag132
ag134
ag52
ag52
ag47
aS'CD'
p320
ag92
ag90
aS'VBP'
p321
ag132
ag133
ag134
ag53
asg54
VThe shoe will certainly stay on for the six miles I have still to go.
p322
sba(i__main__
Sentence
p323
(dp324
g17
I7
sg18
(lp325
S'I'
p326
aS'am'
p327
aS'in'
p328
aS'a'
p329
aS'hurry'
p330
aS'.'
p331
asg30
(lp332
g312
aVbe
p333
aVin
p334
ag223
aVhurry
p335
ag41
asg42
(lp336
g44
ag44
ag44
ag44
ag44
ag44
asg45
(lp337
g90
ag321
ag52
ag47
ag48
ag53
asg54
VI am in a hurry.
p338
sba(i__main__
Sentence
p339
(dp340
g17
I8
sg18
(lp341
S'In'
p342
aS'the'
p343
aS'afternoon'
p344
aS','
p345
aS'when'
p346
aS'he'
p347
aS'once'
p348
aS'more'
p349
aS'alighted'
p350
aS'and'
p351
aS'had'
p352
aS'his'
p353
aS'horse'
p354
aS'fed'
p355
aS','
p356
aS'the'
p357
aS'stable-boy'
p358
aS'went'
p359
aS'into'
p360
aS'the'
p361
aS'room'
p362
aS'to'
p363
aS'him'
p364
aS'and'
p365
aS'said'
p366
aS','
p367
aS'sir'
p368
aS','
p369
aS'a'
p370
aS'shoe'
p371
aS'is'
p372
aS'missing'
p373
aS'from'
p374
aS'your'
p375
aS'horse'
p376
aS"'s"
p377
aS'near'
p378
aS'hind'
p379
aS'foot'
p380
aS'.'
p381
asg30
(lp382
VIn
p383
aVthe
p384
aVafternoon
p385
ag79
aVwhen
p386
aVhe
p387
aVonce
p388
aVmore
p389
aValight
p390
aVand
p391
ag34
aVhis
p392
aVhorse
p393
aVfeed
p394
ag79
aVthe
p395
aVstable-boy
p396
aVwent
p397
aVinto
p398
aVthe
p399
aVroom
p400
aVto
p401
aVhim
p402
aVand
p403
ag239
ag79
aVsir
p404
ag79
ag223
aVshoe
p405
ag241
aVmiss
p406
aVfrom
p407
aVyour
p408
aVhorse
p409
aV's
p410
aVnear
p411
aVhind
p412
aVfoot
p413
ag41
asg42
(lp414
g44
ag44
ag44
ag44
ag44
ag44
ag44
ag44
ag44
ag44
ag44
ag44
ag44
ag44
ag44
ag44
ag44
ag44
ag44
ag44
ag44
ag44
ag44
ag44
ag44
ag44
ag44
ag44
ag44
ag44
ag44
ag44
ag44
ag44
ag44
ag44
ag44
ag44
ag44
ag44
asg45
(lp415
g52
ag47
ag48
ag93
ag254
ag90
ag132
aS'RBR'
p416
ag50
ag94
ag49
ag91
ag48
ag49
ag93
ag47
ag51
ag48
ag52
ag47
ag48
ag133
ag90
ag94
ag49
ag93
ag48
ag93
ag47
ag48
ag255
ag256
ag52
ag91
ag48
aS'POS'
p417
ag48
ag48
ag48
ag53
asg54
VIn the afternoon, when he once more alighted and had his horse fed, the stable-boy went into the room to him and said, sir, a shoe is missing from your horse's near hind foot.
p418
sba(i__main__
Sentence
p419
(dp420
g17
I9
sg18
(lp421
S'Shall'
p422
aS'I'
p423
aS'take'
p424
aS'him'
p425
aS'to'
p426
aS'the'
p427
aS'blacksmith'
p428
aS'.'
p429
asg30
(lp430
VShall
p431
ag312
aVtake
p432
aVhim
p433
aVto
p434
aVthe
p435
aVblacksmith
p436
ag41
asg42
(lp437
g44
ag44
ag44
ag44
ag44
ag44
ag44
ag44
asg45
(lp438
g280
ag90
ag321
ag90
ag133
ag47
ag48
ag53
asg54
VShall I take him to the blacksmith.
p439
sba(i__main__
Sentence
p440
(dp441
g17
I10
sg18
(lp442
S'Let'
p443
aS'it'
p444
aS'be'
p445
aS'wanting'
p446
aS','
p447
aS'answered'
p448
aS'the'
p449
aS'man'
p450
aS'.'
p451
asg30
(lp452
VLet
p453
aVit
p454
aVbe
p455
aVwant
p456
ag79
aVanswer
p457
aVthe
p458
aVman
p459
ag41
asg42
(lp460
g44
ag44
ag44
ag44
ag44
ag44
ag44
ag44
ag44
asg45
(lp461
g280
ag90
ag134
ag256
ag93
ag50
ag47
ag48
ag53
asg54
VLet it be wanting, answered the man.
p462
sba(i__main__
Sentence
p463
(dp464
g17
I11
sg18
(lp465
S'The'
p466
aS'horse'
p467
aS'can'
p468
aS'very'
p469
aS'well'
p470
aS'hold'
p471
aS'out'
p472
aS'for'
p473
aS'the'
p474
aS'couple'
p475
aS'of'
p476
aS'miles'
p477
aS'which'
p478
aS'remain'
p479
aS'.'
p480
asg30
(lp481
VThe
p482
aVhorse
p483
aVcan
p484
aVvery
p485
aVwell
p486
aVhold
p487
aVout
p488
aVfor
p489
aVthe
p490
aVcouple
p491
aVof
p492
aVmile
p493
aVwhich
p494
aVremain
p495
ag41
asg42
(lp496
g44
ag44
ag44
ag44
ag44
ag44
ag44
ag44
ag44
ag44
ag44
ag44
ag44
ag44
ag44
asg45
(lp497
g47
ag48
ag319
ag132
ag132
ag51
ag52
ag52
ag47
ag48
ag52
ag92
aS'WDT'
p498
ag48
ag53
asg54
VThe horse can very well hold out for the couple of miles which remain.
p499
sba(i__main__
Sentence
p500
(dp501
g17
I12
sg18
(lp502
S'I'
p503
aS'am'
p504
aS'in'
p505
aS'haste'
p506
aS'.'
p507
asg30
(lp508
g312
ag333
aVin
p509
aVhaste
p510
ag41
asg42
(lp511
g44
ag44
ag44
ag44
ag44
asg45
(lp512
g90
ag321
ag52
ag48
ag53
asg54
VI am in haste.
p513
sba(i__main__
Sentence
p514
(dp515
g17
I13
sg18
(lp516
S'He'
p517
aS'rode'
p518
aS'forth'
p519
aS','
p520
aS'but'
p521
aS'before'
p522
aS'long'
p523
aS'the'
p524
aS'horse'
p525
aS'began'
p526
aS'to'
p527
aS'limp'
p528
aS'.'
p529
asg30
(lp530
VHe
p531
ag168
aVforth
p532
ag79
aVbut
p533
aVbefore
p534
aVlong
p535
aVthe
p536
aVhorse
p537
aVbegin
p538
aVto
p539
aVlimp
p540
ag41
asg42
(lp541
g44
ag44
ag44
ag44
ag44
ag44
ag44
ag44
ag44
ag44
ag44
ag44
ag44
asg45
(lp542
g90
ag49
ag51
ag93
ag94
ag52
ag132
ag47
ag48
ag49
ag133
ag134
ag53
asg54
VHe rode forth, but before long the horse began to limp.
p543
sba(i__main__
Sentence
p544
(dp545
g17
I14
sg18
(lp546
S'It'
p547
aS'had'
p548
aS'not'
p549
aS'limped'
p550
aS'long'
p551
aS'before'
p552
aS'it'
p553
aS'began'
p554
aS'to'
p555
aS'stumble'
p556
aS','
p557
aS'and'
p558
aS'it'
p559
aS'had'
p560
aS'not'
p561
aS'stumbled'
p562
aS'long'
p563
aS'before'
p564
aS'it'
p565
aS'fell'
p566
aS'down'
p567
aS'and'
p568
aS'broke'
p569
aS'its'
p570
aS'leg'
p571
aS'.'
p572
asg30
(lp573
VIt
p574
ag34
aVnot
p575
aVlimp
p576
aVlong
p577
aVbefore
p578
aVit
p579
ag538
aVto
p580
aVstumble
p581
ag79
aVand
p582
aVit
p583
ag34
aVnot
p584
aVstumble
p585
aVlong
p586
aVbefore
p587
aVit
p588
aVfell
p589
aVdown
p590
aVand
p591
aVbreak
p592
aVit
p593
aVleg
p594
ag41
asg42
(lp595
g44
ag44
ag44
ag44
ag44
ag44
ag44
ag44
ag44
ag44
ag44
ag44
ag44
ag44
ag44
ag44
ag44
ag44
ag44
ag44
ag44
ag44
ag44
ag44
ag44
ag44
asg45
(lp596
g90
ag49
ag132
ag50
ag132
ag52
ag90
ag49
ag133
ag51
ag93
ag94
ag90
ag49
ag132
ag50
ag132
ag52
ag90
ag49
ag172
ag94
ag134
ag91
ag48
ag53
asg54
VIt had not limped long before it began to stumble, and it had not stumbled long before it fell down and broke its leg.
p597
sba(i__main__
Sentence
p598
(dp599
g17
I15
sg18
(lp600
S'The'
p601
aS'merchant'
p602
aS'was'
p603
aS'forced'
p604
aS'to'
p605
aS'leave'
p606
aS'the'
p607
aS'horse'
p608
aS'where'
p609
aS'it'
p610
aS'was'
p611
aS','
p612
aS'and'
p613
aS'unbuckle'
p614
aS'the'
p615
aS'trunk'
p616
aS','
p617
aS'take'
p618
aS'it'
p619
aS'on'
p620
aS'his'
p621
aS'back'
p622
aS','
p623
aS'and'
p624
aS'go'
p625
aS'home'
p626
aS'on'
p627
aS'foot'
p628
aS'.'
p629
asg30
(lp630
VThe
p631
aVmerchant
p632
aVbe
p633
aVforce
p634
aVto
p635
aVleave
p636
aVthe
p637
aVhorse
p638
aVwhere
p639
aVit
p640
ag633
ag79
aVand
p641
aVunbuckle
p642
aVthe
p643
aVtrunk
p644
ag79
aVtake
p645
aVit
p646
aVon
p647
aVhis
p648
aVback
p649
ag79
aVand
p650
aVgo
p651
aVhome
p652
aVon
p653
aVfoot
p654
ag41
asg42
(lp655
g44
ag44
ag44
ag44
ag44
ag44
ag44
ag44
ag44
ag44
ag44
ag44
ag44
ag44
ag44
ag44
ag44
ag44
ag44
ag44
ag44
ag44
ag44
ag44
ag44
ag44
ag44
ag44
ag44
asg45
(lp656
g47
ag48
ag49
ag50
ag133
ag134
ag47
ag48
ag254
ag90
ag49
ag93
ag94
ag48
ag47
ag48
ag93
ag321
ag90
ag52
ag91
ag48
ag93
ag94
ag134
ag132
ag52
ag48
ag53
asg54
VThe merchant was forced to leave the horse where it was, and unbuckle the trunk, take it on his back, and go home on foot.
p657
sba(i__main__
Sentence
p658
(dp659
g17
I16
sg18
(lp660
S'And'
p661
aS'there'
p662
aS'he'
p663
aS'did'
p664
aS'not'
p665
aS'arrive'
p666
aS'until'
p667
aS'quite'
p668
aS'late'
p669
aS'at'
p670
aS'night'
p671
aS'.'
p672
asg30
(lp673
VAnd
p674
aVthere
p675
aVhe
p676
aVdo
p677
aVnot
p678
aVarrive
p679
aVuntil
p680
aVquite
p681
aVlate
p682
aVat
p683
aVnight
p684
ag41
asg42
(lp685
g44
ag44
ag44
ag44
ag44
ag44
ag44
ag44
ag44
ag44
ag44
ag44
asg45
(lp686
g94
aS'EX'
p687
ag90
ag49
ag132
ag134
ag52
ag51
ag51
ag52
ag48
ag53
asg54
VAnd there he did not arrive until quite late at night.
p688
sba(i__main__
Sentence
p689
(dp690
g17
I17
sg18
(lp691
S'And'
p692
aS'that'
p693
aS'cursed'
p694
aS'nail'
p695
aS','
p696
aS'said'
p697
aS'he'
p698
aS'to'
p699
aS'himself'
p700
aS','
p701
aS'has'
p702
aS'caused'
p703
aS'all'
p704
aS'this'
p705
aS'disaster'
p706
aS'.'
p707
asg30
(lp708
VAnd
p709
aVthat
p710
aVcurse
p711
aVnail
p712
ag79
ag239
aVhe
p713
aVto
p714
aVhimself
p715
ag79
aVhave
p716
aVcause
p717
aVall
p718
aVthis
p719
aVdisaster
p720
ag41
asg42
(lp721
g44
ag44
ag44
ag44
ag44
ag44
ag44
ag44
ag44
ag44
ag44
ag44
ag44
ag44
ag44
ag44
asg45
(lp722
g94
ag47
ag50
ag48
ag93
ag49
ag90
ag133
ag90
ag93
ag255
ag50
ag47
ag47
ag48
ag53
asg54
VAnd that cursed nail, said he to himself, has caused all this disaster.
p723
sba(i__main__
Sentence
p724
(dp725
g17
I18
sg18
(lp726
S'The'
p727
aS'more'
p728
aS'haste'
p729
aS'the'
p730
aS'less'
p731
aS'speed'
p732
aS'.'
p733
asg30
(lp734
VThe
p735
aVmore
p736
aVhaste
p737
aVthe
p738
aVless
p739
aVspeed
p740
ag41
asg42
(lp741
g44
ag44
ag44
ag44
ag44
ag44
ag44
asg45
(lp742
g47
ag416
ag51
ag47
ag416
ag48
ag53
asg54
VThe more haste the less speed. 
p743
sbasbsS'summary'
p744
g0
(g7
g2
Ntp745
Rp746
(dp747
g11
S"A merchant is on the way home from the fair with his gold. As he stops for rest, a stable boy mentions the merchant's horse is missing a nail in one of his shoes. Instead of taking care of the problem, the merchant decides to go on home. At the next stop, the stable boy warns the merchant his horse is missing a shoe. The merchant ignores the problem and continues on. Soon his horse begins to limp, then stumbles and falls. In the fall, the horse breaks a leg and must be left behind. The man is forced to carry his chest of gold on his own back. "
p748
sg13
(lp749
(i__main__
Sentence
p750
(dp751
g17
I0
sg18
(lp752
S'A'
p753
aS'merchant'
p754
aS'is'
p755
aS'on'
p756
aS'the'
p757
aS'way'
p758
aS'home'
p759
aS'from'
p760
aS'the'
p761
aS'fair'
p762
aS'with'
p763
aS'his'
p764
aS'gold'
p765
aS'.'
p766
asg30
(lp767
g32
aVmerchant
p768
ag241
aVon
p769
aVthe
p770
aVway
p771
aVhome
p772
aVfrom
p773
aVthe
p774
aVfair
p775
aVwith
p776
aVhis
p777
aVgold
p778
ag41
asg42
(lp779
g44
ag44
ag44
ag44
ag44
ag44
ag44
ag44
ag44
ag44
ag44
ag44
ag44
ag44
asg45
(lp780
g47
ag48
ag255
ag52
ag47
ag48
ag48
ag52
ag47
ag48
ag52
ag91
ag48
ag53
asg54
VA merchant is on the way home from the fair with his gold.
p781
sba(i__main__
Sentence
p782
(dp783
g17
I1
sg18
(lp784
S'As'
p785
aS'he'
p786
aS'stops'
p787
aS'for'
p788
aS'rest'
p789
aS','
p790
aS'a'
p791
aS'stable'
p792
aS'boy'
p793
aS'mentions'
p794
aS'the'
p795
aS'merchant'
p796
aS"'s"
p797
aS'horse'
p798
aS'is'
p799
aS'missing'
p800
aS'a'
p801
aS'nail'
p802
aS'in'
p803
aS'one'
p804
aS'of'
p805
aS'his'
p806
aS'shoes'
p807
aS'.'
p808
asg30
(lp809
VAs
p810
aVhe
p811
aVstop
p812
aVfor
p813
aVrest
p814
ag79
ag223
aVstable
p815
aVboy
p816
aVmention
p817
aVthe
p818
aVmerchant
p819
aV's
p820
aVhorse
p821
ag241
aVmiss
p822
ag223
aVnail
p823
aVin
p824
aVone
p825
aVof
p826
aVhis
p827
aVshoe
p828
ag41
asg42
(lp829
g44
ag44
ag44
ag44
ag44
ag44
ag44
ag44
ag44
ag44
ag44
ag44
ag44
ag44
ag44
ag44
ag44
ag44
ag44
ag44
ag44
ag44
ag44
ag44
asg45
(lp830
g52
ag90
ag255
ag52
ag48
ag93
ag47
ag48
ag48
ag92
ag47
ag48
ag417
ag48
ag255
ag256
ag47
ag48
ag52
ag320
ag52
ag91
ag92
ag53
asg54
VAs he stops for rest, a stable boy mentions the merchant's horse is missing a nail in one of his shoes.
p831
sba(i__main__
Sentence
p832
(dp833
g17
I2
sg18
(lp834
S'Instead'
p835
aS'of'
p836
aS'taking'
p837
aS'care'
p838
aS'of'
p839
aS'the'
p840
aS'problem'
p841
aS','
p842
aS'the'
p843
aS'merchant'
p844
aS'decides'
p845
aS'to'
p846
aS'go'
p847
aS'on'
p848
aS'home'
p849
aS'.'
p850
asg30
(lp851
VInstead
p852
aVof
p853
aVtake
p854
aVcare
p855
aVof
p856
aVthe
p857
aVproblem
p858
ag79
aVthe
p859
aVmerchant
p860
aVdecide
p861
aVto
p862
aVgo
p863
aVon
p864
aVhome
p865
ag41
asg42
(lp866
g44
ag44
ag44
ag44
ag44
ag44
ag44
ag44
ag44
ag44
ag44
ag44
ag44
ag44
ag44
ag44
asg45
(lp867
g132
ag52
ag256
ag48
ag52
ag47
ag48
ag93
ag47
ag48
ag255
ag133
ag134
ag52
ag48
ag53
asg54
VInstead of taking care of the problem, the merchant decides to go on home.
p868
sba(i__main__
Sentence
p869
(dp870
g17
I3
sg18
(lp871
S'At'
p872
aS'the'
p873
aS'next'
p874
aS'stop'
p875
aS','
p876
aS'the'
p877
aS'stable'
p878
aS'boy'
p879
aS'warns'
p880
aS'the'
p881
aS'merchant'
p882
aS'his'
p883
aS'horse'
p884
aS'is'
p885
aS'missing'
p886
aS'a'
p887
aS'shoe'
p888
aS'.'
p889
asg30
(lp890
VAt
p891
aVthe
p892
aVnext
p893
aVstop
p894
ag79
aVthe
p895
aVstable
p896
aVboy
p897
aVwarns
p898
aVthe
p899
aVmerchant
p900
aVhis
p901
aVhorse
p902
ag241
aVmiss
p903
ag223
aVshoe
p904
ag41
asg42
(lp905
g44
ag44
ag44
ag44
ag44
ag44
ag44
ag44
ag44
ag44
ag44
ag44
ag44
ag44
ag44
ag44
ag44
ag44
asg45
(lp906
g52
ag47
ag51
ag48
ag93
ag47
ag48
ag48
ag92
ag47
ag48
ag91
ag48
ag255
ag256
ag47
ag48
ag53
asg54
VAt the next stop, the stable boy warns the merchant his horse is missing a shoe.
p907
sba(i__main__
Sentence
p908
(dp909
g17
I4
sg18
(lp910
S'The'
p911
aS'merchant'
p912
aS'ignores'
p913
aS'the'
p914
aS'problem'
p915
aS'and'
p916
aS'continues'
p917
aS'on'
p918
aS'.'
p919
asg30
(lp920
VThe
p921
aVmerchant
p922
aVignores
p923
aVthe
p924
aVproblem
p925
aVand
p926
aVcontinue
p927
aVon
p928
ag41
asg42
(lp929
g44
ag44
ag44
ag44
ag44
ag44
ag44
ag44
ag44
asg45
(lp930
g47
ag48
ag92
ag47
ag48
ag94
ag255
ag52
ag53
asg54
VThe merchant ignores the problem and continues on.
p931
sba(i__main__
Sentence
p932
(dp933
g17
I5
sg18
(lp934
S'Soon'
p935
aS'his'
p936
aS'horse'
p937
aS'begins'
p938
aS'to'
p939
aS'limp'
p940
aS','
p941
aS'then'
p942
aS'stumbles'
p943
aS'and'
p944
aS'falls'
p945
aS'.'
p946
asg30
(lp947
VSoon
p948
aVhis
p949
aVhorse
p950
aVbegin
p951
aVto
p952
aVlimp
p953
ag79
aVthen
p954
aVstumble
p955
aVand
p956
aVfall
p957
ag41
asg42
(lp958
g44
ag44
ag44
ag44
ag44
ag44
ag44
ag44
ag44
ag44
ag44
ag44
asg45
(lp959
g132
ag91
ag48
ag255
ag133
ag134
ag93
ag132
ag255
ag94
ag92
ag53
asg54
VSoon his horse begins to limp, then stumbles and falls.
p960
sba(i__main__
Sentence
p961
(dp962
g17
I6
sg18
(lp963
S'In'
p964
aS'the'
p965
aS'fall'
p966
aS','
p967
aS'the'
p968
aS'horse'
p969
aS'breaks'
p970
aS'a'
p971
aS'leg'
p972
aS'and'
p973
aS'must'
p974
aS'be'
p975
aS'left'
p976
aS'behind'
p977
aS'.'
p978
asg30
(lp979
VIn
p980
aVthe
p981
aVfall
p982
ag79
aVthe
p983
aVhorse
p984
aVbreak
p985
ag223
aVleg
p986
aVand
p987
aVmust
p988
aVbe
p989
aVleave
p990
aVbehind
p991
ag41
asg42
(lp992
g44
ag44
ag44
ag44
ag44
ag44
ag44
ag44
ag44
ag44
ag44
ag44
ag44
ag44
ag44
asg45
(lp993
g52
ag47
ag48
ag93
ag47
ag48
ag255
ag47
ag48
ag94
ag319
ag134
ag50
ag52
ag53
asg54
VIn the fall, the horse breaks a leg and must be left behind.
p994
sba(i__main__
Sentence
p995
(dp996
g17
I7
sg18
(lp997
S'The'
p998
aS'man'
p999
aS'is'
p1000
aS'forced'
p1001
aS'to'
p1002
aS'carry'
p1003
aS'his'
p1004
aS'chest'
p1005
aS'of'
p1006
aS'gold'
p1007
aS'on'
p1008
aS'his'
p1009
aS'own'
p1010
aS'back'
p1011
aS'.'
p1012
asg30
(lp1013
VThe
p1014
aVman
p1015
ag241
aVforce
p1016
aVto
p1017
aVcarry
p1018
aVhis
p1019
aVchest
p1020
aVof
p1021
aVgold
p1022
aVon
p1023
aVhis
p1024
aVown
p1025
aVback
p1026
ag41
asg42
(lp1027
g44
ag44
ag44
ag44
ag44
ag44
ag44
ag44
ag44
ag44
ag44
ag44
ag44
ag44
ag44
asg45
(lp1028
g47
ag48
ag255
ag50
ag133
ag134
ag91
ag48
ag52
ag48
ag52
ag91
ag51
ag48
ag53
asg54
VThe man is forced to carry his chest of gold on his own back. 
p1029
sbasbsS'name'
p1030
S'The Nail'
p1031
sS'summaries'
p1032
(lp1033
g746
asb.