ccopy_reg
_reconstructor
p0
(c__main__
Story
p1
c__builtin__
object
p2
Ntp3
Rp4
(dp5
S'text'
p6
g0
(c__main__
Document
p7
g2
Ntp8
Rp9
(dp10
S'_Document__initialContent'
p11
S'The woman had died without pain, quietly, as a woman should whose life had been blameless. Now she was resting in her bed, lying on her back, her eyes closed, her features calm, her long white hair carefully arranged as though she had done it up ten minutes before dying. The whole pale countenance of the dead woman was so collected, so calm, so resigned that one could feel what a sweet soul had lived in that body, what a quiet existence this old soul had led, how easy and pure the death of this parent had been.\n\n\n\nKneeling beside the bed, her son, a magistrate with inflexible principles, and her daughter, Marguerite, known as Sister Eulalie, were weeping as though their hearts would break. She had, from childhood up, armed them with a strict moral code, teaching them religion, without weakness, and duty, without compromise. He, the man, had become a judge and handled the law as a weapon with which he smote the weak ones without pity. She, the girl, influenced by the virtue which had bathed her in this austere family, had become the bride of the Church through her loathing for man.\n\n\n\nThey had hardly known their father, knowing only that he had made their mother most unhappy, without being told any other details.\n\n\n\nThe nun was wildly-kissing the dead woman\'s hand, an ivory hand as white as the large crucifix lying across the bed. On the other side of the long body the other hand seemed still to be holding the sheet in the death grasp; and the sheet had preserved the little creases as a memory of those last movements which precede eternal immobility.\n\n\n\nA few light taps on the door caused the two sobbing heads to look up, and the priest, who had just come from dinner, returned. He was red and out of breath from his interrupted digestion, for he had made himself a strong mixture of coffee and brandy in order to combat the fatigue of the last few nights and of the wake which was beginning.\n\n\n\nHe looked sad, with that assumed sadness of the priest for whom death is a bread winner. He crossed himself and approaching with his professional gesture: "Well, my poor children! I have come to help you pass these last sad hours." But Sister Eulalie suddenly arose. "Thank you, "father, but my brother and I prefer to remain alone with her. This is our last chance to see her, and we wish to be together, all three of us, as we--we--used to be when we were small and our poor mo--mother----"\n\n\n\nGrief and tears stopped her; she could not continue.\n\n\n\nOnce more serene, the priest bowed, thinking of his bed. "As you wish, my children." He kneeled, crossed himself, prayed, arose and went out quietly, murmuring: "She was a saint!"\n\n\n\nThey remained alone, the dead woman and her children. The ticking of the clock, hidden in the shadow, could be heard distinctly, and through the open window drifted in the sweet smell of hay and of woods, together with the soft moonlight. No other noise could be heard over the land except the occasional croaking of the frog or the chirping of some belated insect. An infinite peace, a divine melancholy, a silent serenity surrounded this dead woman, seemed to be breathed out from her and to appease nature itself.\n\n\n\nThen the judge, still kneeling, his head buried in the bed clothes, cried in a voice altered by grief and deadened by the sheets and blankets: "Mamma, mamma, mamma!" And his sister, frantically striking her forehead against the woodwork, convulsed, twitching and trembling as in an epileptic fit, moaned: "Jesus, Jesus, mamma, Jesus!" And both of them, shaken by a storm of grief, gasped and choked.\n\n\n\nThe crisis slowly calmed down and they began to weep quietly, just as on the sea when a calm follows a squall.\n\n\n\nA rather long time passed and they arose and looked at their dead. And the memories, those distant memories, yesterday so dear, to-day so torturing, came to their minds with all the little forgotten details, those little intimate familiar details which bring back to life the one who has left. They recalled to each other circumstances, words, smiles, intonations of the mother who was no longer to speak to them. They saw her again happy and calm. They remembered things which she had said, and a little motion of the hand, like beating time, which she often used when emphasizing something important.\n\n\n\nAnd they loved her as they never had loved her before. They measured the depth of their grief, and thus they discovered how lonely they would find themselves.\n\n\n\nIt was their prop, their guide, their whole youth, all the best part of their lives which was disappearing. It was their bond with life, their mother, their mamma, the connecting link with their forefathers which they would thenceforth miss. They now became solitary, lonely beings; they could no longer look back.\n\n\n\nThe nun said to her brother: "You remember how mamma used always to read her old letters; they are all there in that drawer. Let us, in turn, read them; let us live her whole life through tonight beside her! It would be like a road to the cross, like making the acquaintance of her mother, of our grandparents, whom we never knew, but whose letters are there and of whom she so often spoke, do you remember?"\n\n\n\nOut of the drawer they took about ten little packages of yellow paper, tied with care and arranged one beside the other. They threw these relics on the bed and chose one of them on which the word "Father" was written. They opened and read it.\n\n\n\nIt was one of those old-fashioned letters which one finds in old family desk drawers, those epistles which smell of another century. The first one started: "My dear," another one: "My beautiful little girl," others: "My dear child," or: "My dear (laughter." And suddenly the nun began to read aloud, to read over to the dead woman her whole history, all her tender memories. The judge, resting his elbow on the bed, was listening with his eyes fastened on his mother. The motionless body seemed happy.\n\n\n\nSister Eulalie, interrupting herself, said suddenly:\n\n\n\n"These ought to be put in the grave with her; they ought to be used as a shroud and she ought to be buried in it." She took another package, on which no name was written. She began to read in a firm voice: "My adored one, I love you wildly. Since yesterday I have been suffering the tortures of the damned, haunted by our memory. I feel your lips against mine, your eyes in mine, your breast against mine. I love you, I love you! You have driven me mad. My arms open, I gasp, moved by a wild desire to hold you again. My whole soul and body cries out for you, wants you. I have kept in my mouth the taste of your kisses--"\n\n\n\nThe judge had straightened himself up. The nun stopped reading. He snatched the letter from her and looked for the signature. There was none, but only under the words, "The man who adores you," the name "Henry." Their father\'s name was Rene. Therefore this was not from him. The son then quickly rummaged through the package of letters, took one out and read: "I can no longer live without your caresses." Standing erect, severe as when sitting on the bench, he looked unmoved at the dead woman. The nun, straight as a statue, tears trembling in the corners of her eyes, was watching her brother, waiting. Then he crossed the room slowly, went to the window and stood there, gazing out into the dark night.\n\n\n\nWhen he turned around again Sister Eulalie, her eyes dry now, was still standing near the bed, her head bent down.\n\n\n\nHe stepped forward, quickly picked up the letters and threw them pell-mell back into the drawer. Then he closed the curtains of the bed.\n\n\n\nWhen daylight made the candles on the table turn pale the son slowly left his armchair, and without looking again at the mother upon whom he had passed sentence, severing the tie that united her to son and daughter, he said slowly: "Let us now retire, sister."'
p12
sS'sentences'
p13
(lp14
(i__main__
Sentence
p15
(dp16
S'index'
p17
I0
sS'words'
p18
(lp19
S'The'
p20
aS'woman'
p21
aS'had'
p22
aS'died'
p23
aS'without'
p24
aS'pain'
p25
aS','
p26
aS'quietly'
p27
aS','
p28
aS'as'
p29
aS'a'
p30
aS'woman'
p31
aS'should'
p32
aS'whose'
p33
aS'life'
p34
aS'had'
p35
aS'been'
p36
aS'blameless'
p37
aS'.'
p38
asS'lemmas'
p39
(lp40
VThe
p41
aVwoman
p42
aVhave
p43
aVdie
p44
aVwithout
p45
aVpain
p46
aV,
p47
aVquietly
p48
ag47
aVa
p49
ag49
aVwoman
p50
aVshould
p51
aVwhose
p52
aVlife
p53
ag43
aVbe
p54
aVblameless
p55
aV.
p56
asS'nerTags'
p57
(lp58
VO
p59
ag59
ag59
ag59
ag59
ag59
ag59
ag59
ag59
ag59
ag59
ag59
ag59
ag59
ag59
ag59
ag59
ag59
ag59
asS'posTags'
p60
(lp61
S'DT'
p62
aS'NN'
p63
aS'VBD'
p64
aS'VBN'
p65
aS'IN'
p66
ag63
aS','
p67
aS'RB'
p68
ag67
ag66
ag62
ag63
aS'MD'
p69
aS'VB'
p70
ag63
ag64
ag65
aS'JJ'
p71
aS'.'
p72
asS'_Sentence__initialContent'
p73
VThe woman had died without pain, quietly, as a woman should whose life had been blameless.
p74
sba(i__main__
Sentence
p75
(dp76
g17
I1
sg18
(lp77
S'Now'
p78
aS'she'
p79
aS'was'
p80
aS'resting'
p81
aS'in'
p82
aS'her'
p83
aS'bed'
p84
aS','
p85
aS'lying'
p86
aS'on'
p87
aS'her'
p88
aS'back'
p89
aS','
p90
aS'her'
p91
aS'eyes'
p92
aS'closed'
p93
aS','
p94
aS'her'
p95
aS'features'
p96
aS'calm'
p97
aS','
p98
aS'her'
p99
aS'long'
p100
aS'white'
p101
aS'hair'
p102
aS'carefully'
p103
aS'arranged'
p104
aS'as'
p105
aS'though'
p106
aS'she'
p107
aS'had'
p108
aS'done'
p109
aS'it'
p110
aS'up'
p111
aS'ten'
p112
aS'minutes'
p113
aS'before'
p114
aS'dying'
p115
aS'.'
p116
asg39
(lp117
VNow
p118
aVshe
p119
aVbe
p120
aVrest
p121
aVin
p122
aVher
p123
aVbed
p124
ag47
aVlie
p125
aVon
p126
aVher
p127
aVback
p128
ag47
aVher
p129
aVeye
p130
aVclose
p131
ag47
aVher
p132
aVfeature
p133
aVcalm
p134
ag47
aVher
p135
aVlong
p136
aVwhite
p137
aVhair
p138
aVcarefully
p139
aVarrange
p140
ag49
aVthough
p141
aVshe
p142
ag43
aVdo
p143
aVit
p144
aVup
p145
aVten
p146
aVminutes
p147
aVbefore
p148
aVdying
p149
ag56
asg57
(lp150
g59
ag59
ag59
ag59
ag59
ag59
ag59
ag59
ag59
ag59
ag59
ag59
ag59
ag59
ag59
ag59
ag59
ag59
ag59
ag59
ag59
ag59
ag59
ag59
ag59
ag59
ag59
ag59
ag59
ag59
ag59
ag59
ag59
ag59
ag59
ag59
ag59
ag59
ag59
asg60
(lp151
g68
aS'PRP'
p152
ag64
aS'VBG'
p153
ag66
aS'PRP$'
p154
ag65
ag67
ag153
ag66
ag154
ag63
ag67
ag154
aS'NNS'
p155
ag64
ag67
ag154
ag155
ag63
ag67
ag154
ag71
ag63
ag63
ag68
ag64
ag66
ag66
ag152
ag64
ag65
ag152
aS'RP'
p156
ag68
aS'VBZ'
p157
ag66
ag63
ag72
asg73
VNow she was resting in her bed, lying on her back, her eyes closed, her features calm, her long white hair carefully arranged as though she had done it up ten minutes before dying.
p158
sba(i__main__
Sentence
p159
(dp160
g17
I2
sg18
(lp161
S'The'
p162
aS'whole'
p163
aS'pale'
p164
aS'countenance'
p165
aS'of'
p166
aS'the'
p167
aS'dead'
p168
aS'woman'
p169
aS'was'
p170
aS'so'
p171
aS'collected'
p172
aS','
p173
aS'so'
p174
aS'calm'
p175
aS','
p176
aS'so'
p177
aS'resigned'
p178
aS'that'
p179
aS'one'
p180
aS'could'
p181
aS'feel'
p182
aS'what'
p183
aS'a'
p184
aS'sweet'
p185
aS'soul'
p186
aS'had'
p187
aS'lived'
p188
aS'in'
p189
aS'that'
p190
aS'body'
p191
aS','
p192
aS'what'
p193
aS'a'
p194
aS'quiet'
p195
aS'existence'
p196
aS'this'
p197
aS'old'
p198
aS'soul'
p199
aS'had'
p200
aS'led'
p201
aS','
p202
aS'how'
p203
aS'easy'
p204
aS'and'
p205
aS'pure'
p206
aS'the'
p207
aS'death'
p208
aS'of'
p209
aS'this'
p210
aS'parent'
p211
aS'had'
p212
aS'been'
p213
aS'.'
p214
asg39
(lp215
VThe
p216
aVwhole
p217
aVpale
p218
aVcountenance
p219
aVof
p220
aVthe
p221
aVdead
p222
aVwoman
p223
ag120
aVso
p224
aVcollect
p225
ag47
aVso
p226
aVcalm
p227
ag47
aVso
p228
aVresign
p229
aVthat
p230
aVone
p231
aVcould
p232
aVfeel
p233
aVwhat
p234
ag49
aVsweet
p235
aVsoul
p236
ag43
aVlive
p237
aVin
p238
aVthat
p239
aVbody
p240
ag47
aVwhat
p241
ag49
aVquiet
p242
aVexistence
p243
aVthis
p244
aVold
p245
aVsoul
p246
ag43
aVlead
p247
ag47
aVhow
p248
aVeasy
p249
aVand
p250
aVpure
p251
aVthe
p252
aVdeath
p253
aVof
p254
aVthis
p255
aVparent
p256
ag43
ag54
ag56
asg57
(lp257
g59
ag59
ag59
ag59
ag59
ag59
ag59
ag59
ag59
ag59
ag59
ag59
ag59
ag59
ag59
ag59
ag59
ag59
ag59
ag59
ag59
ag59
ag59
ag59
ag59
ag59
ag59
ag59
ag59
ag59
ag59
ag59
ag59
ag59
ag59
ag59
ag59
ag59
ag59
ag59
ag59
ag59
ag59
ag59
ag59
ag59
ag59
ag59
ag59
ag59
ag59
ag59
ag59
asg60
(lp258
g62
ag71
ag63
ag63
ag66
ag62
ag71
ag63
ag64
ag68
ag65
ag67
ag68
ag63
ag67
ag68
ag65
ag66
aS'CD'
p259
ag69
ag70
aS'WP'
p260
ag62
ag71
ag63
ag64
ag65
ag66
ag62
ag63
ag67
ag260
ag62
ag71
ag63
ag62
ag71
ag63
ag64
ag65
ag67
aS'WRB'
p261
ag71
aS'CC'
p262
ag63
ag62
ag63
ag66
ag62
ag63
ag64
ag65
ag72
asg73
VThe whole pale countenance of the dead woman was so collected, so calm, so resigned that one could feel what a sweet soul had lived in that body, what a quiet existence this old soul had led, how easy and pure the death of this parent had been.
p263
sba(i__main__
Sentence
p264
(dp265
g17
I3
sg18
(lp266
S'Kneeling'
p267
aS'beside'
p268
aS'the'
p269
aS'bed'
p270
aS','
p271
aS'her'
p272
aS'son'
p273
aS','
p274
aS'a'
p275
aS'magistrate'
p276
aS'with'
p277
aS'inflexible'
p278
aS'principles'
p279
aS','
p280
aS'and'
p281
aS'her'
p282
aS'daughter'
p283
aS','
p284
aS'Marguerite'
p285
aS','
p286
aS'known'
p287
aS'as'
p288
aS'Sister'
p289
aS'Eulalie'
p290
aS','
p291
aS'were'
p292
aS'weeping'
p293
aS'as'
p294
aS'though'
p295
aS'their'
p296
aS'hearts'
p297
aS'would'
p298
aS'break'
p299
aS'.'
p300
asg39
(lp301
VKneeling
p302
aVbeside
p303
aVthe
p304
aVbed
p305
ag47
aVher
p306
aVson
p307
ag47
ag49
aVmagistrate
p308
aVwith
p309
aVinflexible
p310
aVprinciple
p311
ag47
aVand
p312
aVher
p313
aVdaughter
p314
ag47
aVMarguerite
p315
ag47
aVknow
p316
ag49
aVSister
p317
aVEulalie
p318
ag47
aVbe
p319
aVweep
p320
ag49
aVthough
p321
aVtheir
p322
aVheart
p323
aVwould
p324
aVbreak
p325
ag56
asg57
(lp326
g59
ag59
ag59
ag59
ag59
ag59
ag59
ag59
ag59
ag59
ag59
ag59
ag59
ag59
ag59
ag59
ag59
ag59
aVPERSON
p327
ag59
ag59
ag59
ag59
aVPERSON
p328
ag59
ag59
ag59
ag59
ag59
ag59
ag59
ag59
ag59
ag59
asg60
(lp329
g153
ag63
ag62
ag65
ag67
ag154
ag63
ag67
ag62
ag63
ag66
ag71
ag155
ag67
ag262
ag154
ag63
ag67
aS'NNP'
p330
ag67
ag65
ag66
ag330
ag330
ag67
ag64
ag153
ag66
ag66
ag154
ag155
ag69
ag70
ag72
asg73
VKneeling beside the bed, her son, a magistrate with inflexible principles, and her daughter, Marguerite, known as Sister Eulalie, were weeping as though their hearts would break.
p331
sba(i__main__
Sentence
p332
(dp333
g17
I4
sg18
(lp334
S'She'
p335
aS'had'
p336
aS','
p337
aS'from'
p338
aS'childhood'
p339
aS'up'
p340
aS','
p341
aS'armed'
p342
aS'them'
p343
aS'with'
p344
aS'a'
p345
aS'strict'
p346
aS'moral'
p347
aS'code'
p348
aS','
p349
aS'teaching'
p350
aS'them'
p351
aS'religion'
p352
aS','
p353
aS'without'
p354
aS'weakness'
p355
aS','
p356
aS'and'
p357
aS'duty'
p358
aS','
p359
aS'without'
p360
aS'compromise'
p361
aS'.'
p362
asg39
(lp363
VShe
p364
ag43
ag47
aVfrom
p365
aVchildhood
p366
aVup
p367
ag47
aVarm
p368
aVthem
p369
aVwith
p370
ag49
aVstrict
p371
aVmoral
p372
aVcode
p373
ag47
aVteaching
p374
aVthem
p375
aVreligion
p376
ag47
aVwithout
p377
aVweakness
p378
ag47
aVand
p379
aVduty
p380
ag47
aVwithout
p381
aVcompromise
p382
ag56
asg57
(lp383
g59
ag59
ag59
ag59
ag59
ag59
ag59
ag59
ag59
ag59
ag59
ag59
ag59
ag59
ag59
ag59
ag59
ag59
ag59
ag59
ag59
ag59
ag59
ag59
ag59
ag59
ag59
ag59
asg60
(lp384
g152
ag64
ag67
ag66
ag63
ag66
ag67
ag65
ag152
ag66
ag62
ag71
ag71
ag63
ag67
ag63
ag152
ag63
ag67
ag66
ag63
ag67
ag262
ag63
ag67
ag66
ag63
ag72
asg73
VShe had, from childhood up, armed them with a strict moral code, teaching them religion, without weakness, and duty, without compromise.
p385
sba(i__main__
Sentence
p386
(dp387
g17
I5
sg18
(lp388
S'He'
p389
aS','
p390
aS'the'
p391
aS'man'
p392
aS','
p393
aS'had'
p394
aS'become'
p395
aS'a'
p396
aS'judge'
p397
aS'and'
p398
aS'handled'
p399
aS'the'
p400
aS'law'
p401
aS'as'
p402
aS'a'
p403
aS'weapon'
p404
aS'with'
p405
aS'which'
p406
aS'he'
p407
aS'smote'
p408
aS'the'
p409
aS'weak'
p410
aS'ones'
p411
aS'without'
p412
aS'pity'
p413
aS'.'
p414
asg39
(lp415
VHe
p416
ag47
aVthe
p417
aVman
p418
ag47
ag43
aVbecome
p419
ag49
aVjudge
p420
aVand
p421
aVhandle
p422
aVthe
p423
aVlaw
p424
ag49
ag49
aVweapon
p425
aVwith
p426
aVwhich
p427
aVhe
p428
aVsmite
p429
aVthe
p430
aVweak
p431
aVone
p432
aVwithout
p433
aVpity
p434
ag56
asg57
(lp435
g59
ag59
ag59
ag59
ag59
ag59
ag59
ag59
ag59
ag59
ag59
ag59
ag59
ag59
ag59
ag59
ag59
ag59
ag59
ag59
ag59
ag59
ag59
ag59
ag59
ag59
asg60
(lp436
g152
ag67
ag62
ag63
ag67
ag64
ag65
ag62
ag63
ag262
ag64
ag62
ag63
ag66
ag62
ag63
ag66
aS'WDT'
p437
ag152
ag64
ag62
ag71
ag155
ag66
ag63
ag72
asg73
VHe, the man, had become a judge and handled the law as a weapon with which he smote the weak ones without pity.
p438
sba(i__main__
Sentence
p439
(dp440
g17
I6
sg18
(lp441
S'She'
p442
aS','
p443
aS'the'
p444
aS'girl'
p445
aS','
p446
aS'influenced'
p447
aS'by'
p448
aS'the'
p449
aS'virtue'
p450
aS'which'
p451
aS'had'
p452
aS'bathed'
p453
aS'her'
p454
aS'in'
p455
aS'this'
p456
aS'austere'
p457
aS'family'
p458
aS','
p459
aS'had'
p460
aS'become'
p461
aS'the'
p462
aS'bride'
p463
aS'of'
p464
aS'the'
p465
aS'Church'
p466
aS'through'
p467
aS'her'
p468
aS'loathing'
p469
aS'for'
p470
aS'man'
p471
aS'.'
p472
asg39
(lp473
VShe
p474
ag47
aVthe
p475
aVgirl
p476
ag47
aVinfluence
p477
aVby
p478
aVthe
p479
aVvirtue
p480
aVwhich
p481
ag43
aVbath
p482
aVher
p483
aVin
p484
aVthis
p485
aVaustere
p486
aVfamily
p487
ag47
ag43
aVbecome
p488
aVthe
p489
aVbride
p490
aVof
p491
aVthe
p492
aVChurch
p493
aVthrough
p494
aVher
p495
aVloathing
p496
aVfor
p497
aVman
p498
ag56
asg57
(lp499
g59
ag59
ag59
ag59
ag59
ag59
ag59
ag59
ag59
ag59
ag59
ag59
ag59
ag59
ag59
ag59
ag59
ag59
ag59
ag59
ag59
ag59
ag59
ag59
ag59
ag59
ag59
ag59
ag59
ag59
ag59
asg60
(lp500
g152
ag67
ag62
ag63
ag67
ag64
ag66
ag62
ag63
ag437
ag64
ag65
ag154
ag66
ag62
ag71
ag63
ag67
ag64
ag65
ag62
ag63
ag66
ag62
ag330
ag66
ag154
ag63
ag66
ag63
ag72
asg73
VShe, the girl, influenced by the virtue which had bathed her in this austere family, had become the bride of the Church through her loathing for man.
p501
sba(i__main__
Sentence
p502
(dp503
g17
I7
sg18
(lp504
S'They'
p505
aS'had'
p506
aS'hardly'
p507
aS'known'
p508
aS'their'
p509
aS'father'
p510
aS','
p511
aS'knowing'
p512
aS'only'
p513
aS'that'
p514
aS'he'
p515
aS'had'
p516
aS'made'
p517
aS'their'
p518
aS'mother'
p519
aS'most'
p520
aS'unhappy'
p521
aS','
p522
aS'without'
p523
aS'being'
p524
aS'told'
p525
aS'any'
p526
aS'other'
p527
aS'details'
p528
aS'.'
p529
asg39
(lp530
VThey
p531
ag43
aVhardly
p532
ag316
aVtheir
p533
aVfather
p534
ag47
aVknow
p535
aVonly
p536
aVthat
p537
aVhe
p538
ag43
aVmake
p539
aVtheir
p540
aVmother
p541
aVmost
p542
aVunhappy
p543
ag47
aVwithout
p544
aVbe
p545
aVtold
p546
aVany
p547
aVother
p548
aVdetail
p549
ag56
asg57
(lp550
g59
ag59
ag59
ag59
ag59
ag59
ag59
ag59
ag59
ag59
ag59
ag59
ag59
ag59
ag59
ag59
ag59
ag59
ag59
ag59
ag59
ag59
ag59
ag59
ag59
asg60
(lp551
g152
ag64
ag68
ag65
ag154
ag63
ag67
ag153
ag68
ag66
ag152
ag64
ag65
ag154
ag63
aS'JJS'
p552
ag71
ag67
ag66
ag153
ag63
ag62
ag71
ag155
ag72
asg73
VThey had hardly known their father, knowing only that he had made their mother most unhappy, without being told any other details.
p553
sba(i__main__
Sentence
p554
(dp555
g17
I8
sg18
(lp556
S'The'
p557
aS'nun'
p558
aS'was'
p559
aS'wildly-kissing'
p560
aS'the'
p561
aS'dead'
p562
aS'woman'
p563
aS"'s"
p564
aS'hand'
p565
aS','
p566
aS'an'
p567
aS'ivory'
p568
aS'hand'
p569
aS'as'
p570
aS'white'
p571
aS'as'
p572
aS'the'
p573
aS'large'
p574
aS'crucifix'
p575
aS'lying'
p576
aS'across'
p577
aS'the'
p578
aS'bed'
p579
aS'.'
p580
asg39
(lp581
VThe
p582
aVnun
p583
ag120
aVwildly-kissing
p584
aVthe
p585
aVdead
p586
aVwoman
p587
aV's
p588
aVhand
p589
ag47
aVan
p590
aVivory
p591
aVhand
p592
ag49
aVwhite
p593
ag49
aVthe
p594
aVlarge
p595
aVcrucifix
p596
ag125
aVacross
p597
aVthe
p598
aVbed
p599
ag56
asg57
(lp600
g59
ag59
ag59
ag59
ag59
ag59
ag59
ag59
ag59
ag59
ag59
ag59
ag59
ag59
ag59
ag59
ag59
ag59
ag59
ag59
ag59
ag59
ag59
ag59
asg60
(lp601
g62
ag63
ag64
ag71
ag62
ag71
ag63
aS'POS'
p602
ag63
ag67
ag62
ag63
ag63
ag66
ag71
ag66
ag62
ag71
ag63
ag153
ag66
ag62
ag65
ag72
asg73
VThe nun was wildly-kissing the dead woman's hand, an ivory hand as white as the large crucifix lying across the bed.
p603
sba(i__main__
Sentence
p604
(dp605
g17
I9
sg18
(lp606
S'On'
p607
aS'the'
p608
aS'other'
p609
aS'side'
p610
aS'of'
p611
aS'the'
p612
aS'long'
p613
aS'body'
p614
aS'the'
p615
aS'other'
p616
aS'hand'
p617
aS'seemed'
p618
aS'still'
p619
aS'to'
p620
aS'be'
p621
aS'holding'
p622
aS'the'
p623
aS'sheet'
p624
aS'in'
p625
aS'the'
p626
aS'death'
p627
aS'grasp'
p628
aS';'
p629
aS'and'
p630
aS'the'
p631
aS'sheet'
p632
aS'had'
p633
aS'preserved'
p634
aS'the'
p635
aS'little'
p636
aS'creases'
p637
aS'as'
p638
aS'a'
p639
aS'memory'
p640
aS'of'
p641
aS'those'
p642
aS'last'
p643
aS'movements'
p644
aS'which'
p645
aS'precede'
p646
aS'eternal'
p647
aS'immobility'
p648
aS'.'
p649
asg39
(lp650
VOn
p651
aVthe
p652
aVother
p653
aVside
p654
aVof
p655
aVthe
p656
aVlong
p657
aVbody
p658
aVthe
p659
aVother
p660
aVhand
p661
aVseem
p662
aVstill
p663
aVto
p664
aVbe
p665
aVhold
p666
aVthe
p667
aVsheet
p668
aVin
p669
aVthe
p670
aVdeath
p671
aVgrasp
p672
aV;
p673
aVand
p674
aVthe
p675
aVsheet
p676
ag43
aVpreserve
p677
aVthe
p678
aVlittle
p679
aVcrease
p680
ag49
ag49
aVmemory
p681
aVof
p682
aVthose
p683
aVlast
p684
aVmovement
p685
aVwhich
p686
aVprecede
p687
aVeternal
p688
aVimmobility
p689
ag56
asg57
(lp690
g59
ag59
ag59
ag59
ag59
ag59
ag59
ag59
ag59
ag59
ag59
ag59
ag59
ag59
ag59
ag59
ag59
ag59
ag59
ag59
ag59
ag59
ag59
ag59
ag59
ag59
ag59
ag59
ag59
ag59
ag59
ag59
ag59
ag59
ag59
ag59
ag59
ag59
ag59
ag59
ag59
ag59
ag59
asg60
(lp691
g66
ag62
ag71
ag63
ag66
ag62
ag71
ag63
ag62
ag71
ag63
ag64
ag68
aS'TO'
p692
ag70
ag153
ag62
ag63
ag66
ag62
ag63
ag63
aS':'
p693
ag262
ag62
ag63
ag64
ag65
ag62
ag71
ag155
ag66
ag62
ag63
ag66
ag62
ag71
ag155
ag437
aS'VBP'
p694
ag71
ag63
ag72
asg73
VOn the other side of the long body the other hand seemed still to be holding the sheet in the death grasp; and the sheet had preserved the little creases as a memory of those last movements which precede eternal immobility.
p695
sba(i__main__
Sentence
p696
(dp697
g17
I10
sg18
(lp698
S'A'
p699
aS'few'
p700
aS'light'
p701
aS'taps'
p702
aS'on'
p703
aS'the'
p704
aS'door'
p705
aS'caused'
p706
aS'the'
p707
aS'two'
p708
aS'sobbing'
p709
aS'heads'
p710
aS'to'
p711
aS'look'
p712
aS'up'
p713
aS','
p714
aS'and'
p715
aS'the'
p716
aS'priest'
p717
aS','
p718
aS'who'
p719
aS'had'
p720
aS'just'
p721
aS'come'
p722
aS'from'
p723
aS'dinner'
p724
aS','
p725
aS'returned'
p726
aS'.'
p727
asg39
(lp728
VA
p729
aVfew
p730
aVlight
p731
aVtap
p732
aVon
p733
aVthe
p734
aVdoor
p735
aVcause
p736
aVthe
p737
aVtwo
p738
aVsob
p739
aVhead
p740
aVto
p741
aVlook
p742
aVup
p743
ag47
aVand
p744
aVthe
p745
aVpriest
p746
ag47
aVwho
p747
ag43
aVjust
p748
aVcome
p749
aVfrom
p750
aVdinner
p751
ag47
aVreturn
p752
ag56
asg57
(lp753
g59
ag59
ag59
ag59
ag59
ag59
ag59
ag59
ag59
ag59
ag59
ag59
ag59
ag59
ag59
ag59
ag59
ag59
ag59
ag59
ag59
ag59
ag59
ag59
ag59
ag59
ag59
ag59
ag59
asg60
(lp754
g62
ag71
ag71
ag155
ag66
ag62
ag63
ag64
ag62
ag259
ag153
ag155
ag692
ag70
ag156
ag67
ag262
ag62
ag63
ag67
ag260
ag64
ag68
ag65
ag66
ag63
ag67
ag64
ag72
asg73
VA few light taps on the door caused the two sobbing heads to look up, and the priest, who had just come from dinner, returned.
p755
sba(i__main__
Sentence
p756
(dp757
g17
I11
sg18
(lp758
S'He'
p759
aS'was'
p760
aS'red'
p761
aS'and'
p762
aS'out'
p763
aS'of'
p764
aS'breath'
p765
aS'from'
p766
aS'his'
p767
aS'interrupted'
p768
aS'digestion'
p769
aS','
p770
aS'for'
p771
aS'he'
p772
aS'had'
p773
aS'made'
p774
aS'himself'
p775
aS'a'
p776
aS'strong'
p777
aS'mixture'
p778
aS'of'
p779
aS'coffee'
p780
aS'and'
p781
aS'brandy'
p782
aS'in'
p783
aS'order'
p784
aS'to'
p785
aS'combat'
p786
aS'the'
p787
aS'fatigue'
p788
aS'of'
p789
aS'the'
p790
aS'last'
p791
aS'few'
p792
aS'nights'
p793
aS'and'
p794
aS'of'
p795
aS'the'
p796
aS'wake'
p797
aS'which'
p798
aS'was'
p799
aS'beginning'
p800
aS'.'
p801
asg39
(lp802
VHe
p803
ag120
aVred
p804
aVand
p805
aVout
p806
aVof
p807
aVbreath
p808
aVfrom
p809
aVhis
p810
aVinterrupt
p811
aVdigestion
p812
ag47
aVfor
p813
aVhe
p814
ag43
ag539
aVhimself
p815
ag49
aVstrong
p816
aVmixture
p817
aVof
p818
aVcoffee
p819
aVand
p820
aVbrandy
p821
aVin
p822
aVorder
p823
aVto
p824
aVcombat
p825
aVthe
p826
aVfatigue
p827
aVof
p828
aVthe
p829
aVlast
p830
aVfew
p831
aVnight
p832
aVand
p833
aVof
p834
aVthe
p835
aVwake
p836
aVwhich
p837
ag120
aVbegin
p838
ag56
asg57
(lp839
g59
ag59
ag59
ag59
ag59
ag59
ag59
ag59
ag59
ag59
ag59
ag59
ag59
ag59
ag59
ag59
ag59
ag59
ag59
ag59
ag59
ag59
ag59
ag59
ag59
ag59
ag59
ag59
ag59
ag59
ag59
ag59
ag59
ag59
ag59
ag59
ag59
ag59
ag59
ag59
ag59
ag59
ag59
asg60
(lp840
g152
ag64
ag65
ag262
ag66
ag66
ag63
ag66
ag154
ag65
ag63
ag67
ag66
ag152
ag64
ag65
ag152
ag62
ag71
ag63
ag66
ag63
ag262
ag63
ag66
ag63
ag692
ag70
ag62
ag63
ag66
ag62
ag71
ag71
ag155
ag262
ag66
ag62
ag63
ag437
ag64
ag153
ag72
asg73
VHe was red and out of breath from his interrupted digestion, for he had made himself a strong mixture of coffee and brandy in order to combat the fatigue of the last few nights and of the wake which was beginning.
p841
sba(i__main__
Sentence
p842
(dp843
g17
I12
sg18
(lp844
S'He'
p845
aS'looked'
p846
aS'sad'
p847
aS','
p848
aS'with'
p849
aS'that'
p850
aS'assumed'
p851
aS'sadness'
p852
aS'of'
p853
aS'the'
p854
aS'priest'
p855
aS'for'
p856
aS'whom'
p857
aS'death'
p858
aS'is'
p859
aS'a'
p860
aS'bread'
p861
aS'winner'
p862
aS'.'
p863
asg39
(lp864
VHe
p865
aVlook
p866
aVsad
p867
ag47
aVwith
p868
aVthat
p869
aVassume
p870
aVsadness
p871
aVof
p872
aVthe
p873
aVpriest
p874
aVfor
p875
aVwhom
p876
aVdeath
p877
aVbe
p878
ag49
aVbread
p879
aVwinner
p880
ag56
asg57
(lp881
g59
ag59
ag59
ag59
ag59
ag59
ag59
ag59
ag59
ag59
ag59
ag59
ag59
ag59
ag59
ag59
ag59
ag59
ag59
asg60
(lp882
g152
ag64
ag71
ag67
ag66
ag62
ag65
ag63
ag66
ag62
ag552
ag66
ag260
ag63
ag157
ag62
ag63
ag63
ag72
asg73
VHe looked sad, with that assumed sadness of the priest for whom death is a bread winner.
p883
sba(i__main__
Sentence
p884
(dp885
g17
I13
sg18
(lp886
S'He'
p887
aS'crossed'
p888
aS'himself'
p889
aS'and'
p890
aS'approaching'
p891
aS'with'
p892
aS'his'
p893
aS'professional'
p894
aS'gesture'
p895
aS':'
p896
aS'``'
p897
aS'Well'
p898
aS','
p899
aS'my'
p900
aS'poor'
p901
aS'children'
p902
aS'!'
p903
asg39
(lp904
VHe
p905
aVcross
p906
aVhimself
p907
aVand
p908
aVapproach
p909
aVwith
p910
aVhis
p911
aVprofessional
p912
aVgesture
p913
aV:
p914
aV``
p915
aVWell
p916
ag47
aVmy
p917
aVpoor
p918
aVchild
p919
aV!
p920
asg57
(lp921
g59
ag59
ag59
ag59
ag59
ag59
ag59
ag59
ag59
ag59
ag59
ag59
ag59
ag59
ag59
ag59
ag59
asg60
(lp922
g152
ag64
ag152
ag262
ag153
ag66
ag154
ag71
ag63
ag693
aS'``'
p923
ag330
ag67
ag154
ag63
ag155
ag72
asg73
VHe crossed himself and approaching with his professional gesture: "Well, my poor children!
p924
sba(i__main__
Sentence
p925
(dp926
g17
I14
sg18
(lp927
S'I'
p928
aS'have'
p929
aS'come'
p930
aS'to'
p931
aS'help'
p932
aS'you'
p933
aS'pass'
p934
aS'these'
p935
aS'last'
p936
aS'sad'
p937
aS'hours'
p938
aS'.'
p939
aS"''"
p940
asg39
(lp941
VI
p942
aVhave
p943
aVcome
p944
aVto
p945
aVhelp
p946
aVyou
p947
aVpass
p948
aVthese
p949
aVlast
p950
aVsad
p951
aVhour
p952
ag56
aV''
p953
asg57
(lp954
g59
ag59
ag59
ag59
ag59
ag59
ag59
ag59
ag59
ag59
ag59
ag59
ag59
asg60
(lp955
g152
ag694
ag65
ag692
ag70
ag152
ag70
ag62
ag71
ag63
ag155
ag72
aS"''"
p956
asg73
VI have come to help you pass these last sad hours."
p957
sba(i__main__
Sentence
p958
(dp959
g17
I15
sg18
(lp960
S'But'
p961
aS'Sister'
p962
aS'Eulalie'
p963
aS'suddenly'
p964
aS'arose'
p965
aS'.'
p966
asg39
(lp967
VBut
p968
aVSister
p969
aVEulalie
p970
aVsuddenly
p971
aVarise
p972
ag56
asg57
(lp973
g59
ag59
aVPERSON
p974
ag59
ag59
ag59
asg60
(lp975
g262
ag330
ag330
ag68
ag70
ag72
asg73
VBut Sister Eulalie suddenly arose.
p976
sba(i__main__
Sentence
p977
(dp978
g17
I16
sg18
(lp979
S'``'
p980
aS'Thank'
p981
aS'you'
p982
aS','
p983
aS'``'
p984
aS'father'
p985
aS','
p986
aS'but'
p987
aS'my'
p988
aS'brother'
p989
aS'and'
p990
aS'I'
p991
aS'prefer'
p992
aS'to'
p993
aS'remain'
p994
aS'alone'
p995
aS'with'
p996
aS'her'
p997
aS'.'
p998
asg39
(lp999
V``
p1000
aVThank
p1001
aVyou
p1002
ag47
aV``
p1003
aVfather
p1004
ag47
aVbut
p1005
aVmy
p1006
aVbrother
p1007
aVand
p1008
ag942
aVprefer
p1009
aVto
p1010
aVremain
p1011
aValone
p1012
aVwith
p1013
aVher
p1014
ag56
asg57
(lp1015
g59
ag59
ag59
ag59
ag59
ag59
ag59
ag59
ag59
ag59
ag59
ag59
ag59
ag59
ag59
ag59
ag59
ag59
ag59
asg60
(lp1016
g923
ag330
ag152
ag67
ag923
ag63
ag67
ag262
ag154
ag63
ag262
ag152
ag694
ag692
ag70
ag68
ag66
ag154
ag72
asg73
V"Thank you, "father, but my brother and I prefer to remain alone with her.
p1017
sba(i__main__
Sentence
p1018
(dp1019
g17
I17
sg18
(lp1020
S'This'
p1021
aS'is'
p1022
aS'our'
p1023
aS'last'
p1024
aS'chance'
p1025
aS'to'
p1026
aS'see'
p1027
aS'her'
p1028
aS','
p1029
aS'and'
p1030
aS'we'
p1031
aS'wish'
p1032
aS'to'
p1033
aS'be'
p1034
aS'together'
p1035
aS','
p1036
aS'all'
p1037
aS'three'
p1038
aS'of'
p1039
aS'us'
p1040
aS','
p1041
aS'as'
p1042
aS'we'
p1043
aS'--'
p1044
aS'we'
p1045
aS'--'
p1046
aS'used'
p1047
aS'to'
p1048
aS'be'
p1049
aS'when'
p1050
aS'we'
p1051
aS'were'
p1052
aS'small'
p1053
aS'and'
p1054
aS'our'
p1055
aS'poor'
p1056
aS'mo'
p1057
aS'--'
p1058
aS'mother'
p1059
aS'--'
p1060
aS'--'
p1061
aS"''"
p1062
aS'Grief'
p1063
aS'and'
p1064
aS'tears'
p1065
aS'stopped'
p1066
aS'her'
p1067
aS';'
p1068
aS'she'
p1069
aS'could'
p1070
aS'not'
p1071
aS'continue'
p1072
aS'.'
p1073
asg39
(lp1074
VThis
p1075
ag878
aVour
p1076
aVlast
p1077
aVchance
p1078
aVto
p1079
aVsee
p1080
aVher
p1081
ag47
aVand
p1082
aVwe
p1083
aVwish
p1084
aVto
p1085
aVbe
p1086
aVtogether
p1087
ag47
aVall
p1088
aVthree
p1089
aVof
p1090
aVu
p1091
ag47
ag49
aVwe
p1092
aV--
p1093
aVwe
p1094
aV--
p1095
aVuse
p1096
aVto
p1097
aVbe
p1098
aVwhen
p1099
aVwe
p1100
ag319
aVsmall
p1101
aVand
p1102
aVour
p1103
aVpoor
p1104
aVmo
p1105
aV--
p1106
aVmother
p1107
aV--
p1108
aV--
p1109
aV''
p1110
aVGrief
p1111
aVand
p1112
aVtear
p1113
aVstop
p1114
aVher
p1115
ag673
aVshe
p1116
aVcould
p1117
aVnot
p1118
aVcontinue
p1119
ag56
asg57
(lp1120
g59
ag59
ag59
ag59
ag59
ag59
ag59
ag59
ag59
ag59
ag59
ag59
ag59
ag59
ag59
ag59
ag59
ag59
ag59
ag59
ag59
ag59
ag59
ag59
ag59
ag59
ag59
ag59
ag59
ag59
ag59
ag59
ag59
ag59
ag59
ag59
ag59
ag59
ag59
ag59
ag59
ag59
ag59
ag59
ag59
ag59
ag59
ag59
ag59
ag59
ag59
ag59
ag59
asg60
(lp1121
g62
ag157
ag154
ag71
ag63
ag692
ag70
ag152
ag67
ag262
ag152
ag694
ag692
ag70
ag68
ag67
ag62
ag259
ag66
ag152
ag67
ag66
ag152
ag693
ag152
ag693
ag65
ag692
ag70
ag261
ag152
ag64
ag71
ag262
ag154
ag71
ag63
ag693
ag63
ag693
ag693
ag956
ag330
ag262
ag155
ag64
ag152
ag693
ag152
ag69
ag68
ag70
ag72
asg73
VThis is our last chance to see her, and we wish to be together, all three of us, as we--we--used to be when we were small and our poor mo--mother----"    Grief and tears stopped her; she could not continue.
p1122
sba(i__main__
Sentence
p1123
(dp1124
g17
I18
sg18
(lp1125
S'Once'
p1126
aS'more'
p1127
aS'serene'
p1128
aS','
p1129
aS'the'
p1130
aS'priest'
p1131
aS'bowed'
p1132
aS','
p1133
aS'thinking'
p1134
aS'of'
p1135
aS'his'
p1136
aS'bed'
p1137
aS'.'
p1138
asg39
(lp1139
VOnce
p1140
aVmore
p1141
aVserene
p1142
ag47
aVthe
p1143
aVpriest
p1144
aVbow
p1145
ag47
aVthink
p1146
aVof
p1147
aVhis
p1148
aVbed
p1149
ag56
asg57
(lp1150
g59
ag59
ag59
ag59
ag59
ag59
ag59
ag59
ag59
ag59
ag59
ag59
ag59
asg60
(lp1151
g68
aS'JJR'
p1152
ag63
ag67
ag62
ag552
ag65
ag67
ag153
ag66
ag154
ag65
ag72
asg73
VOnce more serene, the priest bowed, thinking of his bed.
p1153
sba(i__main__
Sentence
p1154
(dp1155
g17
I19
sg18
(lp1156
S'``'
p1157
aS'As'
p1158
aS'you'
p1159
aS'wish'
p1160
aS','
p1161
aS'my'
p1162
aS'children'
p1163
aS'.'
p1164
aS"''"
p1165
asg39
(lp1166
V``
p1167
aVAs
p1168
aVyou
p1169
aVwish
p1170
ag47
aVmy
p1171
ag919
ag56
aV''
p1172
asg57
(lp1173
g59
ag59
ag59
ag59
ag59
ag59
ag59
ag59
ag59
asg60
(lp1174
g923
ag66
ag152
ag694
ag67
ag154
ag155
ag72
ag956
asg73
V"As you wish, my children."
p1175
sba(i__main__
Sentence
p1176
(dp1177
g17
I20
sg18
(lp1178
S'He'
p1179
aS'kneeled'
p1180
aS','
p1181
aS'crossed'
p1182
aS'himself'
p1183
aS','
p1184
aS'prayed'
p1185
aS','
p1186
aS'arose'
p1187
aS'and'
p1188
aS'went'
p1189
aS'out'
p1190
aS'quietly'
p1191
aS','
p1192
aS'murmuring'
p1193
aS':'
p1194
aS'``'
p1195
aS'She'
p1196
aS'was'
p1197
aS'a'
p1198
aS'saint'
p1199
aS'!'
p1200
aS"''"
p1201
asg39
(lp1202
VHe
p1203
aVkneel
p1204
ag47
aVcross
p1205
aVhimself
p1206
ag47
aVpray
p1207
ag47
aVarose
p1208
aVand
p1209
aVgo
p1210
aVout
p1211
aVquietly
p1212
ag47
aVmurmur
p1213
ag914
aV``
p1214
aVShe
p1215
ag120
ag49
aVsaint
p1216
ag920
aV''
p1217
asg57
(lp1218
g59
ag59
ag59
ag59
ag59
ag59
ag59
ag59
ag59
ag59
ag59
ag59
ag59
ag59
ag59
ag59
ag59
ag59
ag59
ag59
ag59
ag59
ag59
asg60
(lp1219
g152
ag64
ag67
ag65
ag152
ag67
ag64
ag67
ag63
ag262
ag64
ag66
ag68
ag67
ag153
ag693
ag923
ag152
ag64
ag62
ag63
ag72
ag956
asg73
VHe kneeled, crossed himself, prayed, arose and went out quietly, murmuring: "She was a saint!"
p1220
sba(i__main__
Sentence
p1221
(dp1222
g17
I21
sg18
(lp1223
S'They'
p1224
aS'remained'
p1225
aS'alone'
p1226
aS','
p1227
aS'the'
p1228
aS'dead'
p1229
aS'woman'
p1230
aS'and'
p1231
aS'her'
p1232
aS'children'
p1233
aS'.'
p1234
asg39
(lp1235
VThey
p1236
aVremain
p1237
aValone
p1238
ag47
aVthe
p1239
aVdead
p1240
aVwoman
p1241
aVand
p1242
aVher
p1243
ag919
ag56
asg57
(lp1244
g59
ag59
ag59
ag59
ag59
ag59
ag59
ag59
ag59
ag59
ag59
asg60
(lp1245
g152
ag64
ag68
ag67
ag62
ag63
ag63
ag262
ag154
ag155
ag72
asg73
VThey remained alone, the dead woman and her children.
p1246
sba(i__main__
Sentence
p1247
(dp1248
g17
I22
sg18
(lp1249
S'The'
p1250
aS'ticking'
p1251
aS'of'
p1252
aS'the'
p1253
aS'clock'
p1254
aS','
p1255
aS'hidden'
p1256
aS'in'
p1257
aS'the'
p1258
aS'shadow'
p1259
aS','
p1260
aS'could'
p1261
aS'be'
p1262
aS'heard'
p1263
aS'distinctly'
p1264
aS','
p1265
aS'and'
p1266
aS'through'
p1267
aS'the'
p1268
aS'open'
p1269
aS'window'
p1270
aS'drifted'
p1271
aS'in'
p1272
aS'the'
p1273
aS'sweet'
p1274
aS'smell'
p1275
aS'of'
p1276
aS'hay'
p1277
aS'and'
p1278
aS'of'
p1279
aS'woods'
p1280
aS','
p1281
aS'together'
p1282
aS'with'
p1283
aS'the'
p1284
aS'soft'
p1285
aS'moonlight'
p1286
aS'.'
p1287
asg39
(lp1288
VThe
p1289
aVticking
p1290
aVof
p1291
aVthe
p1292
aVclock
p1293
ag47
aVhide
p1294
aVin
p1295
aVthe
p1296
aVshadow
p1297
ag47
aVcould
p1298
aVbe
p1299
aVhear
p1300
aVdistinctly
p1301
ag47
aVand
p1302
aVthrough
p1303
aVthe
p1304
aVopen
p1305
aVwindow
p1306
aVdrift
p1307
aVin
p1308
aVthe
p1309
aVsweet
p1310
aVsmell
p1311
aVof
p1312
aVhay
p1313
aVand
p1314
aVof
p1315
aVwood
p1316
ag47
aVtogether
p1317
aVwith
p1318
aVthe
p1319
aVsoft
p1320
aVmoonlight
p1321
ag56
asg57
(lp1322
g59
ag59
ag59
ag59
ag59
ag59
ag59
ag59
ag59
ag59
ag59
ag59
ag59
ag59
ag59
ag59
ag59
ag59
ag59
ag59
ag59
ag59
ag59
ag59
ag59
ag59
ag59
ag59
ag59
ag59
ag59
ag59
ag59
ag59
ag59
ag59
ag59
ag59
asg60
(lp1323
g62
ag63
ag66
ag62
ag63
ag67
ag65
ag66
ag62
ag63
ag67
ag69
ag70
ag65
ag68
ag67
ag262
ag66
ag62
ag71
ag63
ag64
ag66
ag62
ag71
ag63
ag66
ag63
ag262
ag66
ag155
ag67
ag68
ag66
ag62
ag71
ag63
ag72
asg73
VThe ticking of the clock, hidden in the shadow, could be heard distinctly, and through the open window drifted in the sweet smell of hay and of woods, together with the soft moonlight.
p1324
sba(i__main__
Sentence
p1325
(dp1326
g17
I23
sg18
(lp1327
S'No'
p1328
aS'other'
p1329
aS'noise'
p1330
aS'could'
p1331
aS'be'
p1332
aS'heard'
p1333
aS'over'
p1334
aS'the'
p1335
aS'land'
p1336
aS'except'
p1337
aS'the'
p1338
aS'occasional'
p1339
aS'croaking'
p1340
aS'of'
p1341
aS'the'
p1342
aS'frog'
p1343
aS'or'
p1344
aS'the'
p1345
aS'chirping'
p1346
aS'of'
p1347
aS'some'
p1348
aS'belated'
p1349
aS'insect'
p1350
aS'.'
p1351
asg39
(lp1352
VNo
p1353
aVother
p1354
aVnoise
p1355
aVcould
p1356
aVbe
p1357
ag1300
aVover
p1358
aVthe
p1359
aVland
p1360
aVexcept
p1361
aVthe
p1362
aVoccasional
p1363
aVcroaking
p1364
aVof
p1365
aVthe
p1366
aVfrog
p1367
aVor
p1368
aVthe
p1369
aVchirping
p1370
aVof
p1371
aVsome
p1372
aVbelated
p1373
aVinsect
p1374
ag56
asg57
(lp1375
g59
ag59
ag59
ag59
ag59
ag59
ag59
ag59
ag59
ag59
ag59
ag59
ag59
ag59
ag59
ag59
ag59
ag59
ag59
ag59
ag59
ag59
ag59
ag59
asg60
(lp1376
g62
ag71
ag63
ag69
ag70
ag65
ag156
ag62
ag63
ag66
ag62
ag71
ag63
ag66
ag62
ag63
ag262
ag62
ag63
ag66
ag62
ag65
ag63
ag72
asg73
VNo other noise could be heard over the land except the occasional croaking of the frog or the chirping of some belated insect.
p1377
sba(i__main__
Sentence
p1378
(dp1379
g17
I24
sg18
(lp1380
S'An'
p1381
aS'infinite'
p1382
aS'peace'
p1383
aS','
p1384
aS'a'
p1385
aS'divine'
p1386
aS'melancholy'
p1387
aS','
p1388
aS'a'
p1389
aS'silent'
p1390
aS'serenity'
p1391
aS'surrounded'
p1392
aS'this'
p1393
aS'dead'
p1394
aS'woman'
p1395
aS','
p1396
aS'seemed'
p1397
aS'to'
p1398
aS'be'
p1399
aS'breathed'
p1400
aS'out'
p1401
aS'from'
p1402
aS'her'
p1403
aS'and'
p1404
aS'to'
p1405
aS'appease'
p1406
aS'nature'
p1407
aS'itself'
p1408
aS'.'
p1409
asg39
(lp1410
VAn
p1411
aVinfinite
p1412
aVpeace
p1413
ag47
ag49
aVdivine
p1414
aVmelancholy
p1415
ag47
ag49
aVsilent
p1416
aVserenity
p1417
aVsurround
p1418
aVthis
p1419
aVdead
p1420
aVwoman
p1421
ag47
aVseem
p1422
aVto
p1423
aVbe
p1424
aVbreathe
p1425
aVout
p1426
aVfrom
p1427
aVher
p1428
aVand
p1429
aVto
p1430
aVappease
p1431
aVnature
p1432
aVitself
p1433
ag56
asg57
(lp1434
g59
ag59
ag59
ag59
ag59
ag59
ag59
ag59
ag59
ag59
ag59
ag59
ag59
ag59
ag59
ag59
ag59
ag59
ag59
ag59
ag59
ag59
ag59
ag59
ag59
ag59
ag59
ag59
ag59
asg60
(lp1435
g62
ag71
ag63
ag67
ag62
ag63
ag68
ag67
ag62
ag63
ag63
ag64
ag62
ag63
ag63
ag67
ag64
ag692
ag70
ag65
ag156
ag66
ag154
ag262
ag692
ag70
ag63
ag152
ag72
asg73
VAn infinite peace, a divine melancholy, a silent serenity surrounded this dead woman, seemed to be breathed out from her and to appease nature itself.
p1436
sba(i__main__
Sentence
p1437
(dp1438
g17
I25
sg18
(lp1439
S'Then'
p1440
aS'the'
p1441
aS'judge'
p1442
aS','
p1443
aS'still'
p1444
aS'kneeling'
p1445
aS','
p1446
aS'his'
p1447
aS'head'
p1448
aS'buried'
p1449
aS'in'
p1450
aS'the'
p1451
aS'bed'
p1452
aS'clothes'
p1453
aS','
p1454
aS'cried'
p1455
aS'in'
p1456
aS'a'
p1457
aS'voice'
p1458
aS'altered'
p1459
aS'by'
p1460
aS'grief'
p1461
aS'and'
p1462
aS'deadened'
p1463
aS'by'
p1464
aS'the'
p1465
aS'sheets'
p1466
aS'and'
p1467
aS'blankets'
p1468
aS':'
p1469
aS'``'
p1470
aS'Mamma'
p1471
aS','
p1472
aS'mamma'
p1473
aS','
p1474
aS'mamma'
p1475
aS'!'
p1476
aS"''"
p1477
asg39
(lp1478
VThen
p1479
aVthe
p1480
aVjudge
p1481
ag47
aVstill
p1482
aVkneel
p1483
ag47
aVhis
p1484
aVhead
p1485
aVbury
p1486
aVin
p1487
aVthe
p1488
aVbed
p1489
aVclothes
p1490
ag47
aVcry
p1491
aVin
p1492
ag49
aVvoice
p1493
aValter
p1494
aVby
p1495
aVgrief
p1496
aVand
p1497
aVdeaden
p1498
aVby
p1499
aVthe
p1500
aVsheet
p1501
aVand
p1502
aVblanket
p1503
ag914
aV``
p1504
aVMamma
p1505
ag47
aVmamma
p1506
ag47
aVmamma
p1507
ag920
aV''
p1508
asg57
(lp1509
g59
ag59
ag59
ag59
ag59
ag59
ag59
ag59
ag59
ag59
ag59
ag59
ag59
ag59
ag59
ag59
ag59
ag59
ag59
ag59
ag59
ag59
ag59
ag59
ag59
ag59
ag59
ag59
ag59
ag59
ag59
ag59
ag59
ag59
ag59
ag59
ag59
ag59
asg60
(lp1510
g68
ag62
ag63
ag67
ag68
ag153
ag67
ag154
ag63
ag64
ag66
ag62
ag65
ag155
ag67
ag64
ag66
ag62
ag63
ag65
ag66
ag63
ag262
ag64
ag66
ag62
ag155
ag262
ag155
ag693
ag923
ag330
ag67
ag63
ag67
ag63
ag72
ag956
asg73
VThen the judge, still kneeling, his head buried in the bed clothes, cried in a voice altered by grief and deadened by the sheets and blankets: "Mamma, mamma, mamma!"
p1511
sba(i__main__
Sentence
p1512
(dp1513
g17
I26
sg18
(lp1514
S'And'
p1515
aS'his'
p1516
aS'sister'
p1517
aS','
p1518
aS'frantically'
p1519
aS'striking'
p1520
aS'her'
p1521
aS'forehead'
p1522
aS'against'
p1523
aS'the'
p1524
aS'woodwork'
p1525
aS','
p1526
aS'convulsed'
p1527
aS','
p1528
aS'twitching'
p1529
aS'and'
p1530
aS'trembling'
p1531
aS'as'
p1532
aS'in'
p1533
aS'an'
p1534
aS'epileptic'
p1535
aS'fit'
p1536
aS','
p1537
aS'moaned'
p1538
aS':'
p1539
aS'``'
p1540
aS'Jesus'
p1541
aS','
p1542
aS'Jesus'
p1543
aS','
p1544
aS'mamma'
p1545
aS','
p1546
aS'Jesus'
p1547
aS'!'
p1548
aS"''"
p1549
asg39
(lp1550
VAnd
p1551
aVhis
p1552
aVsister
p1553
ag47
aVfrantically
p1554
aVstrike
p1555
aVher
p1556
aVforehead
p1557
aVagainst
p1558
aVthe
p1559
aVwoodwork
p1560
ag47
aVconvulse
p1561
ag47
aVtwitch
p1562
aVand
p1563
aVtremble
p1564
ag49
aVin
p1565
aVan
p1566
aVepileptic
p1567
aVfit
p1568
ag47
aVmoan
p1569
ag914
aV``
p1570
aVJesus
p1571
ag47
aVJesus
p1572
ag47
aVmamma
p1573
ag47
aVJesus
p1574
ag920
aV''
p1575
asg57
(lp1576
g59
ag59
ag59
ag59
ag59
ag59
ag59
ag59
ag59
ag59
ag59
ag59
ag59
ag59
ag59
ag59
ag59
ag59
ag59
ag59
ag59
ag59
ag59
ag59
ag59
ag59
aVPERSON
p1577
ag59
aVPERSON
p1578
ag59
ag59
ag59
aVPERSON
p1579
ag59
ag59
asg60
(lp1580
g262
ag154
ag63
ag67
ag68
ag153
ag152
ag68
ag66
ag62
ag63
ag67
ag64
ag67
ag153
ag262
ag153
ag66
ag66
ag62
ag71
ag63
ag67
ag64
ag693
ag923
ag262
ag67
ag330
ag67
ag63
ag67
ag330
ag72
ag956
asg73
VAnd his sister, frantically striking her forehead against the woodwork, convulsed, twitching and trembling as in an epileptic fit, moaned: "Jesus, Jesus, mamma, Jesus!"
p1581
sba(i__main__
Sentence
p1582
(dp1583
g17
I27
sg18
(lp1584
S'And'
p1585
aS'both'
p1586
aS'of'
p1587
aS'them'
p1588
aS','
p1589
aS'shaken'
p1590
aS'by'
p1591
aS'a'
p1592
aS'storm'
p1593
aS'of'
p1594
aS'grief'
p1595
aS','
p1596
aS'gasped'
p1597
aS'and'
p1598
aS'choked'
p1599
aS'.'
p1600
asg39
(lp1601
VAnd
p1602
aVboth
p1603
aVof
p1604
aVthem
p1605
ag47
aVshake
p1606
aVby
p1607
ag49
aVstorm
p1608
aVof
p1609
aVgrief
p1610
ag47
aVgasp
p1611
aVand
p1612
aVchoke
p1613
ag56
asg57
(lp1614
g59
ag59
ag59
ag59
ag59
ag59
ag59
ag59
ag59
ag59
ag59
ag59
ag59
ag59
ag59
ag59
asg60
(lp1615
g262
ag62
ag66
ag152
ag67
ag694
ag66
ag62
ag63
ag66
ag63
ag67
ag64
ag262
ag65
ag72
asg73
VAnd both of them, shaken by a storm of grief, gasped and choked.
p1616
sba(i__main__
Sentence
p1617
(dp1618
g17
I28
sg18
(lp1619
S'The'
p1620
aS'crisis'
p1621
aS'slowly'
p1622
aS'calmed'
p1623
aS'down'
p1624
aS'and'
p1625
aS'they'
p1626
aS'began'
p1627
aS'to'
p1628
aS'weep'
p1629
aS'quietly'
p1630
aS','
p1631
aS'just'
p1632
aS'as'
p1633
aS'on'
p1634
aS'the'
p1635
aS'sea'
p1636
aS'when'
p1637
aS'a'
p1638
aS'calm'
p1639
aS'follows'
p1640
aS'a'
p1641
aS'squall'
p1642
aS'.'
p1643
asg39
(lp1644
VThe
p1645
aVcrisis
p1646
aVslowly
p1647
aVcalm
p1648
aVdown
p1649
aVand
p1650
aVthey
p1651
aVbegin
p1652
aVto
p1653
aVweep
p1654
aVquietly
p1655
ag47
aVjust
p1656
ag49
aVon
p1657
aVthe
p1658
aVsea
p1659
aVwhen
p1660
ag49
aVcalm
p1661
aVfollow
p1662
ag49
aVsquall
p1663
ag56
asg57
(lp1664
g59
ag59
ag59
ag59
ag59
ag59
ag59
ag59
ag59
ag59
ag59
ag59
ag59
ag59
ag59
ag59
ag59
ag59
ag59
ag59
ag59
ag59
ag59
ag59
asg60
(lp1665
g62
ag63
ag68
ag65
ag156
ag262
ag152
ag64
ag692
ag70
ag68
ag67
ag68
ag66
ag66
ag62
ag63
ag261
ag62
ag63
ag157
ag62
ag63
ag72
asg73
VThe crisis slowly calmed down and they began to weep quietly, just as on the sea when a calm follows a squall.
p1666
sba(i__main__
Sentence
p1667
(dp1668
g17
I29
sg18
(lp1669
S'A'
p1670
aS'rather'
p1671
aS'long'
p1672
aS'time'
p1673
aS'passed'
p1674
aS'and'
p1675
aS'they'
p1676
aS'arose'
p1677
aS'and'
p1678
aS'looked'
p1679
aS'at'
p1680
aS'their'
p1681
aS'dead'
p1682
aS'.'
p1683
asg39
(lp1684
g729
aVrather
p1685
aVlong
p1686
aVtime
p1687
aVpass
p1688
aVand
p1689
aVthey
p1690
ag972
aVand
p1691
aVlook
p1692
aVat
p1693
aVtheir
p1694
aVdead
p1695
ag56
asg57
(lp1696
g59
ag59
ag59
ag59
ag59
ag59
ag59
ag59
ag59
ag59
ag59
ag59
ag59
ag59
asg60
(lp1697
g62
ag68
ag71
ag63
ag65
ag262
ag152
ag694
ag262
ag65
ag66
ag154
ag71
ag72
asg73
VA rather long time passed and they arose and looked at their dead.
p1698
sba(i__main__
Sentence
p1699
(dp1700
g17
I30
sg18
(lp1701
S'And'
p1702
aS'the'
p1703
aS'memories'
p1704
aS','
p1705
aS'those'
p1706
aS'distant'
p1707
aS'memories'
p1708
aS','
p1709
aS'yesterday'
p1710
aS'so'
p1711
aS'dear'
p1712
aS','
p1713
aS'to-day'
p1714
aS'so'
p1715
aS'torturing'
p1716
aS','
p1717
aS'came'
p1718
aS'to'
p1719
aS'their'
p1720
aS'minds'
p1721
aS'with'
p1722
aS'all'
p1723
aS'the'
p1724
aS'little'
p1725
aS'forgotten'
p1726
aS'details'
p1727
aS','
p1728
aS'those'
p1729
aS'little'
p1730
aS'intimate'
p1731
aS'familiar'
p1732
aS'details'
p1733
aS'which'
p1734
aS'bring'
p1735
aS'back'
p1736
aS'to'
p1737
aS'life'
p1738
aS'the'
p1739
aS'one'
p1740
aS'who'
p1741
aS'has'
p1742
aS'left'
p1743
aS'.'
p1744
asg39
(lp1745
VAnd
p1746
aVthe
p1747
aVmemory
p1748
ag47
aVthose
p1749
aVdistant
p1750
aVmemory
p1751
ag47
aVyesterday
p1752
aVso
p1753
aVdear
p1754
ag47
aVto-day
p1755
aVso
p1756
aVtorture
p1757
ag47
aVcome
p1758
aVto
p1759
aVtheir
p1760
aVmind
p1761
aVwith
p1762
aVall
p1763
aVthe
p1764
aVlittle
p1765
aVforgotten
p1766
aVdetail
p1767
ag47
aVthose
p1768
aVlittle
p1769
aVintimate
p1770
aVfamiliar
p1771
aVdetail
p1772
aVwhich
p1773
aVbring
p1774
aVback
p1775
aVto
p1776
aVlife
p1777
aVthe
p1778
aVone
p1779
aVwho
p1780
aVhave
p1781
aVleave
p1782
ag56
asg57
(lp1783
g59
ag59
ag59
ag59
ag59
ag59
ag59
ag59
ag59
ag59
ag59
ag59
ag59
ag59
ag59
ag59
ag59
ag59
ag59
ag59
ag59
ag59
ag59
ag59
ag59
ag59
ag59
ag59
ag59
ag59
ag59
ag59
ag59
ag59
ag59
ag59
ag59
ag59
ag59
ag59
ag59
ag59
ag59
asg60
(lp1784
g262
ag62
ag155
ag67
ag62
ag71
ag155
ag67
ag63
ag66
ag71
ag67
ag71
ag68
ag153
ag67
ag64
ag692
ag154
ag155
ag66
ag62
ag62
ag71
ag63
ag155
ag67
ag62
ag68
ag71
ag71
ag155
ag437
ag153
ag68
ag692
ag70
ag62
ag259
ag260
ag157
ag65
ag72
asg73
VAnd the memories, those distant memories, yesterday so dear, to-day so torturing, came to their minds with all the little forgotten details, those little intimate familiar details which bring back to life the one who has left.
p1785
sba(i__main__
Sentence
p1786
(dp1787
g17
I31
sg18
(lp1788
S'They'
p1789
aS'recalled'
p1790
aS'to'
p1791
aS'each'
p1792
aS'other'
p1793
aS'circumstances'
p1794
aS','
p1795
aS'words'
p1796
aS','
p1797
aS'smiles'
p1798
aS','
p1799
aS'intonations'
p1800
aS'of'
p1801
aS'the'
p1802
aS'mother'
p1803
aS'who'
p1804
aS'was'
p1805
aS'no'
p1806
aS'longer'
p1807
aS'to'
p1808
aS'speak'
p1809
aS'to'
p1810
aS'them'
p1811
aS'.'
p1812
asg39
(lp1813
VThey
p1814
aVrecall
p1815
aVto
p1816
aVeach
p1817
aVother
p1818
aVcircumstance
p1819
ag47
aVword
p1820
ag47
aVsmile
p1821
ag47
aVintonation
p1822
aVof
p1823
aVthe
p1824
aVmother
p1825
aVwho
p1826
ag120
aVno
p1827
aVlonger
p1828
aVto
p1829
aVspeak
p1830
aVto
p1831
aVthem
p1832
ag56
asg57
(lp1833
g59
ag59
ag59
ag59
ag59
ag59
ag59
ag59
ag59
ag59
ag59
ag59
ag59
ag59
ag59
ag59
ag59
ag59
ag59
ag59
ag59
ag59
ag59
ag59
asg60
(lp1834
g152
ag64
ag692
ag62
ag71
ag155
ag67
ag155
ag67
ag155
ag67
ag155
ag66
ag62
ag63
ag260
ag64
ag62
ag63
ag692
ag70
ag692
ag152
ag72
asg73
VThey recalled to each other circumstances, words, smiles, intonations of the mother who was no longer to speak to them.
p1835
sba(i__main__
Sentence
p1836
(dp1837
g17
I32
sg18
(lp1838
S'They'
p1839
aS'saw'
p1840
aS'her'
p1841
aS'again'
p1842
aS'happy'
p1843
aS'and'
p1844
aS'calm'
p1845
aS'.'
p1846
asg39
(lp1847
VThey
p1848
aVsaw
p1849
aVher
p1850
aVagain
p1851
aVhappy
p1852
aVand
p1853
aVcalm
p1854
ag56
asg57
(lp1855
g59
ag59
ag59
ag59
ag59
ag59
ag59
ag59
asg60
(lp1856
g152
ag64
ag152
ag68
ag71
ag262
ag63
ag72
asg73
VThey saw her again happy and calm.
p1857
sba(i__main__
Sentence
p1858
(dp1859
g17
I33
sg18
(lp1860
S'They'
p1861
aS'remembered'
p1862
aS'things'
p1863
aS'which'
p1864
aS'she'
p1865
aS'had'
p1866
aS'said'
p1867
aS','
p1868
aS'and'
p1869
aS'a'
p1870
aS'little'
p1871
aS'motion'
p1872
aS'of'
p1873
aS'the'
p1874
aS'hand'
p1875
aS','
p1876
aS'like'
p1877
aS'beating'
p1878
aS'time'
p1879
aS','
p1880
aS'which'
p1881
aS'she'
p1882
aS'often'
p1883
aS'used'
p1884
aS'when'
p1885
aS'emphasizing'
p1886
aS'something'
p1887
aS'important'
p1888
aS'.'
p1889
asg39
(lp1890
VThey
p1891
aVremember
p1892
aVthing
p1893
aVwhich
p1894
aVshe
p1895
ag43
aVsay
p1896
ag47
aVand
p1897
ag49
aVlittle
p1898
aVmotion
p1899
aVof
p1900
aVthe
p1901
aVhand
p1902
ag47
aVlike
p1903
aVbeating
p1904
aVtime
p1905
ag47
aVwhich
p1906
aVshe
p1907
aVoften
p1908
aVused
p1909
aVwhen
p1910
aVemphasize
p1911
aVsomething
p1912
aVimportant
p1913
ag56
asg57
(lp1914
g59
ag59
ag59
ag59
ag59
ag59
ag59
ag59
ag59
ag59
ag59
ag59
ag59
ag59
ag59
ag59
ag59
ag59
ag59
ag59
ag59
ag59
ag59
ag59
ag59
ag59
ag59
ag59
ag59
asg60
(lp1915
g152
ag64
ag155
ag437
ag152
ag64
ag65
ag67
ag262
ag62
ag68
ag63
ag66
ag62
ag63
ag67
ag66
ag63
ag63
ag67
ag437
ag152
ag68
ag71
ag261
ag153
ag63
ag71
ag72
asg73
VThey remembered things which she had said, and a little motion of the hand, like beating time, which she often used when emphasizing something important.
p1916
sba(i__main__
Sentence
p1917
(dp1918
g17
I34
sg18
(lp1919
S'And'
p1920
aS'they'
p1921
aS'loved'
p1922
aS'her'
p1923
aS'as'
p1924
aS'they'
p1925
aS'never'
p1926
aS'had'
p1927
aS'loved'
p1928
aS'her'
p1929
aS'before'
p1930
aS'.'
p1931
asg39
(lp1932
VAnd
p1933
aVthey
p1934
aVlove
p1935
aVher
p1936
ag49
aVthey
p1937
aVnever
p1938
ag43
aVlove
p1939
aVher
p1940
aVbefore
p1941
ag56
asg57
(lp1942
g59
ag59
ag59
ag59
ag59
ag59
ag59
ag59
ag59
ag59
ag59
ag59
asg60
(lp1943
g262
ag152
ag64
ag152
ag66
ag152
ag68
ag64
ag65
ag154
ag66
ag72
asg73
VAnd they loved her as they never had loved her before.
p1944
sba(i__main__
Sentence
p1945
(dp1946
g17
I35
sg18
(lp1947
S'They'
p1948
aS'measured'
p1949
aS'the'
p1950
aS'depth'
p1951
aS'of'
p1952
aS'their'
p1953
aS'grief'
p1954
aS','
p1955
aS'and'
p1956
aS'thus'
p1957
aS'they'
p1958
aS'discovered'
p1959
aS'how'
p1960
aS'lonely'
p1961
aS'they'
p1962
aS'would'
p1963
aS'find'
p1964
aS'themselves'
p1965
aS'.'
p1966
asg39
(lp1967
VThey
p1968
aVmeasure
p1969
aVthe
p1970
aVdepth
p1971
aVof
p1972
aVtheir
p1973
aVgrief
p1974
ag47
aVand
p1975
aVthus
p1976
aVthey
p1977
aVdiscover
p1978
aVhow
p1979
aVlonely
p1980
aVthey
p1981
aVwould
p1982
aVfind
p1983
aVthemselves
p1984
ag56
asg57
(lp1985
g59
ag59
ag59
ag59
ag59
ag59
ag59
ag59
ag59
ag59
ag59
ag59
ag59
ag59
ag59
ag59
ag59
ag59
ag59
asg60
(lp1986
g152
ag64
ag62
ag63
ag66
ag154
ag63
ag67
ag262
ag68
ag152
ag64
ag261
ag68
ag152
ag69
ag70
ag152
ag72
asg73
VThey measured the depth of their grief, and thus they discovered how lonely they would find themselves.
p1987
sba(i__main__
Sentence
p1988
(dp1989
g17
I36
sg18
(lp1990
S'It'
p1991
aS'was'
p1992
aS'their'
p1993
aS'prop'
p1994
aS','
p1995
aS'their'
p1996
aS'guide'
p1997
aS','
p1998
aS'their'
p1999
aS'whole'
p2000
aS'youth'
p2001
aS','
p2002
aS'all'
p2003
aS'the'
p2004
aS'best'
p2005
aS'part'
p2006
aS'of'
p2007
aS'their'
p2008
aS'lives'
p2009
aS'which'
p2010
aS'was'
p2011
aS'disappearing'
p2012
aS'.'
p2013
asg39
(lp2014
VIt
p2015
ag120
aVtheir
p2016
aVprop
p2017
ag47
aVtheir
p2018
aVguide
p2019
ag47
aVtheir
p2020
aVwhole
p2021
aVyouth
p2022
ag47
aVall
p2023
aVthe
p2024
aVbest
p2025
aVpart
p2026
aVof
p2027
aVtheir
p2028
aVlife
p2029
aVwhich
p2030
ag120
aVdisappear
p2031
ag56
asg57
(lp2032
g59
ag59
ag59
ag59
ag59
ag59
ag59
ag59
ag59
ag59
ag59
ag59
ag59
ag59
ag59
ag59
ag59
ag59
ag59
ag59
ag59
ag59
ag59
asg60
(lp2033
g152
ag64
ag154
ag63
ag67
ag154
ag63
ag67
ag154
ag71
ag63
ag67
ag62
ag62
ag552
ag63
ag66
ag154
ag155
ag437
ag64
ag153
ag72
asg73
VIt was their prop, their guide, their whole youth, all the best part of their lives which was disappearing.
p2034
sba(i__main__
Sentence
p2035
(dp2036
g17
I37
sg18
(lp2037
S'It'
p2038
aS'was'
p2039
aS'their'
p2040
aS'bond'
p2041
aS'with'
p2042
aS'life'
p2043
aS','
p2044
aS'their'
p2045
aS'mother'
p2046
aS','
p2047
aS'their'
p2048
aS'mamma'
p2049
aS','
p2050
aS'the'
p2051
aS'connecting'
p2052
aS'link'
p2053
aS'with'
p2054
aS'their'
p2055
aS'forefathers'
p2056
aS'which'
p2057
aS'they'
p2058
aS'would'
p2059
aS'thenceforth'
p2060
aS'miss'
p2061
aS'.'
p2062
asg39
(lp2063
VIt
p2064
ag120
aVtheir
p2065
aVbond
p2066
aVwith
p2067
aVlife
p2068
ag47
aVtheir
p2069
aVmother
p2070
ag47
aVtheir
p2071
aVmamma
p2072
ag47
aVthe
p2073
aVconnecting
p2074
aVlink
p2075
aVwith
p2076
aVtheir
p2077
aVforefather
p2078
aVwhich
p2079
aVthey
p2080
aVwould
p2081
aVthenceforth
p2082
aVmiss
p2083
ag56
asg57
(lp2084
g59
ag59
ag59
ag59
ag59
ag59
ag59
ag59
ag59
ag59
ag59
ag59
ag59
ag59
ag59
ag59
ag59
ag59
ag59
ag59
ag59
ag59
ag59
ag59
ag59
asg60
(lp2085
g152
ag64
ag154
ag63
ag66
ag63
ag67
ag154
ag63
ag67
ag154
ag63
ag67
ag62
ag63
ag63
ag66
ag154
ag155
ag437
ag152
ag69
ag70
ag155
ag72
asg73
VIt was their bond with life, their mother, their mamma, the connecting link with their forefathers which they would thenceforth miss.
p2086
sba(i__main__
Sentence
p2087
(dp2088
g17
I38
sg18
(lp2089
S'They'
p2090
aS'now'
p2091
aS'became'
p2092
aS'solitary'
p2093
aS','
p2094
aS'lonely'
p2095
aS'beings'
p2096
aS';'
p2097
aS'they'
p2098
aS'could'
p2099
aS'no'
p2100
aS'longer'
p2101
aS'look'
p2102
aS'back'
p2103
aS'.'
p2104
asg39
(lp2105
VThey
p2106
aVnow
p2107
aVbecome
p2108
aVsolitary
p2109
ag47
aVlonely
p2110
aVbeing
p2111
ag673
aVthey
p2112
aVcould
p2113
aVno
p2114
aVlonger
p2115
aVlook
p2116
aVback
p2117
ag56
asg57
(lp2118
g59
ag59
ag59
ag59
ag59
ag59
ag59
ag59
ag59
ag59
ag59
ag59
ag59
ag59
ag59
asg60
(lp2119
g152
ag68
ag64
ag71
ag67
ag68
ag155
ag693
ag152
ag69
ag68
aS'RBR'
p2120
ag63
ag68
ag72
asg73
VThey now became solitary, lonely beings; they could no longer look back.
p2121
sba(i__main__
Sentence
p2122
(dp2123
g17
I39
sg18
(lp2124
S'The'
p2125
aS'nun'
p2126
aS'said'
p2127
aS'to'
p2128
aS'her'
p2129
aS'brother'
p2130
aS':'
p2131
aS'``'
p2132
aS'You'
p2133
aS'remember'
p2134
aS'how'
p2135
aS'mamma'
p2136
aS'used'
p2137
aS'always'
p2138
aS'to'
p2139
aS'read'
p2140
aS'her'
p2141
aS'old'
p2142
aS'letters'
p2143
aS';'
p2144
aS'they'
p2145
aS'are'
p2146
aS'all'
p2147
aS'there'
p2148
aS'in'
p2149
aS'that'
p2150
aS'drawer'
p2151
aS'.'
p2152
asg39
(lp2153
VThe
p2154
aVnun
p2155
ag1896
aVto
p2156
aVher
p2157
aVbrother
p2158
ag914
aV``
p2159
aVYou
p2160
aVremember
p2161
aVhow
p2162
aVmamma
p2163
aVuse
p2164
aValways
p2165
aVto
p2166
aVread
p2167
aVher
p2168
aVold
p2169
aVletter
p2170
ag673
aVthey
p2171
aVbe
p2172
aVall
p2173
aVthere
p2174
aVin
p2175
aVthat
p2176
aVdrawer
p2177
ag56
asg57
(lp2178
g59
ag59
ag59
ag59
ag59
ag59
ag59
ag59
ag59
ag59
ag59
ag59
ag59
ag59
ag59
ag59
ag59
ag59
ag59
ag59
ag59
ag59
ag59
ag59
ag59
ag59
ag59
ag59
asg60
(lp2179
g62
ag63
ag64
ag692
ag154
ag63
ag693
ag923
ag152
ag694
ag261
ag63
ag65
ag68
ag692
ag70
ag154
ag71
ag155
ag693
ag152
ag694
ag68
ag68
ag66
ag62
ag63
ag72
asg73
VThe nun said to her brother: "You remember how mamma used always to read her old letters; they are all there in that drawer.
p2180
sba(i__main__
Sentence
p2181
(dp2182
g17
I40
sg18
(lp2183
S'Let'
p2184
aS'us'
p2185
aS','
p2186
aS'in'
p2187
aS'turn'
p2188
aS','
p2189
aS'read'
p2190
aS'them'
p2191
aS';'
p2192
aS'let'
p2193
aS'us'
p2194
aS'live'
p2195
aS'her'
p2196
aS'whole'
p2197
aS'life'
p2198
aS'through'
p2199
aS'tonight'
p2200
aS'beside'
p2201
aS'her'
p2202
aS'!'
p2203
asg39
(lp2204
VLet
p2205
ag1091
ag47
aVin
p2206
aVturn
p2207
ag47
aVread
p2208
aVthem
p2209
ag673
aVlet
p2210
ag1091
aVlive
p2211
aVher
p2212
aVwhole
p2213
aVlife
p2214
aVthrough
p2215
aVtonight
p2216
aVbeside
p2217
aVher
p2218
ag920
asg57
(lp2219
g59
ag59
ag59
ag59
ag59
ag59
ag59
ag59
ag59
ag59
ag59
ag59
ag59
ag59
ag59
ag59
ag59
ag59
ag59
ag59
asg60
(lp2220
g330
ag152
ag67
ag66
ag63
ag67
ag64
ag152
ag693
ag70
ag152
ag70
ag154
ag63
ag63
ag66
ag63
ag63
ag154
ag72
asg73
VLet us, in turn, read them; let us live her whole life through tonight beside her!
p2221
sba(i__main__
Sentence
p2222
(dp2223
g17
I41
sg18
(lp2224
S'It'
p2225
aS'would'
p2226
aS'be'
p2227
aS'like'
p2228
aS'a'
p2229
aS'road'
p2230
aS'to'
p2231
aS'the'
p2232
aS'cross'
p2233
aS','
p2234
aS'like'
p2235
aS'making'
p2236
aS'the'
p2237
aS'acquaintance'
p2238
aS'of'
p2239
aS'her'
p2240
aS'mother'
p2241
aS','
p2242
aS'of'
p2243
aS'our'
p2244
aS'grandparents'
p2245
aS','
p2246
aS'whom'
p2247
aS'we'
p2248
aS'never'
p2249
aS'knew'
p2250
aS','
p2251
aS'but'
p2252
aS'whose'
p2253
aS'letters'
p2254
aS'are'
p2255
aS'there'
p2256
aS'and'
p2257
aS'of'
p2258
aS'whom'
p2259
aS'she'
p2260
aS'so'
p2261
aS'often'
p2262
aS'spoke'
p2263
aS','
p2264
aS'do'
p2265
aS'you'
p2266
aS'remember'
p2267
aS'?'
p2268
aS"''"
p2269
asg39
(lp2270
VIt
p2271
aVwould
p2272
aVbe
p2273
aVlike
p2274
ag49
aVroad
p2275
aVto
p2276
aVthe
p2277
aVcross
p2278
ag47
aVlike
p2279
aVmake
p2280
aVthe
p2281
aVacquaintance
p2282
aVof
p2283
aVher
p2284
aVmother
p2285
ag47
aVof
p2286
aVour
p2287
aVgrandparent
p2288
ag47
aVwhom
p2289
aVwe
p2290
aVnever
p2291
aVknow
p2292
ag47
aVbut
p2293
aVwhose
p2294
aVletter
p2295
ag2172
aVthere
p2296
aVand
p2297
aVof
p2298
aVwhom
p2299
aVshe
p2300
aVso
p2301
aVoften
p2302
aVspeak
p2303
ag47
aVdo
p2304
aVyou
p2305
aVremember
p2306
aV?
p2307
aV''
p2308
asg57
(lp2309
g59
ag59
ag59
ag59
ag59
ag59
ag59
ag59
ag59
ag59
ag59
ag59
ag59
ag59
ag59
ag59
ag59
ag59
ag59
ag59
ag59
ag59
ag59
ag59
ag59
ag59
ag59
ag59
ag59
ag59
ag59
ag59
ag59
ag59
ag59
ag59
ag59
ag59
ag59
ag59
ag59
ag59
ag59
ag59
ag59
asg60
(lp2310
g152
ag69
ag70
ag66
ag62
ag63
ag692
ag62
ag63
ag67
ag66
ag153
ag62
ag63
ag66
ag154
ag63
ag67
ag66
ag154
ag155
ag67
ag260
ag152
ag68
ag64
ag67
ag262
aS'WP$'
p2311
ag155
ag694
ag68
ag262
ag66
ag260
ag152
ag68
ag68
ag694
ag67
ag694
ag152
ag70
ag72
ag956
asg73
VIt would be like a road to the cross, like making the acquaintance of her mother, of our grandparents, whom we never knew, but whose letters are there and of whom she so often spoke, do you remember?"
p2312
sba(i__main__
Sentence
p2313
(dp2314
g17
I42
sg18
(lp2315
S'Out'
p2316
aS'of'
p2317
aS'the'
p2318
aS'drawer'
p2319
aS'they'
p2320
aS'took'
p2321
aS'about'
p2322
aS'ten'
p2323
aS'little'
p2324
aS'packages'
p2325
aS'of'
p2326
aS'yellow'
p2327
aS'paper'
p2328
aS','
p2329
aS'tied'
p2330
aS'with'
p2331
aS'care'
p2332
aS'and'
p2333
aS'arranged'
p2334
aS'one'
p2335
aS'beside'
p2336
aS'the'
p2337
aS'other'
p2338
aS'.'
p2339
asg39
(lp2340
VOut
p2341
aVof
p2342
aVthe
p2343
aVdrawer
p2344
aVthey
p2345
aVtake
p2346
aVabout
p2347
aVten
p2348
aVlittle
p2349
aVpackage
p2350
aVof
p2351
aVyellow
p2352
aVpaper
p2353
ag47
aVtie
p2354
aVwith
p2355
aVcare
p2356
aVand
p2357
aVarrange
p2358
aVone
p2359
aVbeside
p2360
aVthe
p2361
aVother
p2362
ag56
asg57
(lp2363
g59
ag59
ag59
ag59
ag59
ag59
ag59
ag59
ag59
ag59
ag59
ag59
ag59
ag59
ag59
ag59
ag59
ag59
ag59
ag59
ag59
ag59
ag59
ag59
asg60
(lp2364
g66
ag66
ag62
ag63
ag152
ag64
ag66
ag259
ag71
ag155
ag66
ag71
ag63
ag67
ag65
ag66
ag63
ag262
ag64
ag259
ag63
ag62
ag71
ag72
asg73
VOut of the drawer they took about ten little packages of yellow paper, tied with care and arranged one beside the other.
p2365
sba(i__main__
Sentence
p2366
(dp2367
g17
I43
sg18
(lp2368
S'They'
p2369
aS'threw'
p2370
aS'these'
p2371
aS'relics'
p2372
aS'on'
p2373
aS'the'
p2374
aS'bed'
p2375
aS'and'
p2376
aS'chose'
p2377
aS'one'
p2378
aS'of'
p2379
aS'them'
p2380
aS'on'
p2381
aS'which'
p2382
aS'the'
p2383
aS'word'
p2384
aS'``'
p2385
aS'Father'
p2386
aS"''"
p2387
aS'was'
p2388
aS'written'
p2389
aS'.'
p2390
asg39
(lp2391
VThey
p2392
aVthrow
p2393
aVthese
p2394
aVrelic
p2395
aVon
p2396
aVthe
p2397
aVbed
p2398
aVand
p2399
aVchose
p2400
aVone
p2401
aVof
p2402
aVthem
p2403
aVon
p2404
aVwhich
p2405
aVthe
p2406
aVword
p2407
aV``
p2408
aVFather
p2409
aV''
p2410
ag120
aVwrite
p2411
ag56
asg57
(lp2412
g59
ag59
ag59
ag59
ag59
ag59
ag59
ag59
ag59
ag59
ag59
ag59
ag59
ag59
ag59
ag59
ag59
ag59
ag59
ag59
ag59
ag59
asg60
(lp2413
g152
ag64
ag62
ag155
ag66
ag62
ag65
ag262
ag63
ag259
ag66
ag152
ag66
ag437
ag62
ag63
ag923
ag330
ag956
ag64
ag65
ag72
asg73
VThey threw these relics on the bed and chose one of them on which the word "Father" was written.
p2414
sba(i__main__
Sentence
p2415
(dp2416
g17
I44
sg18
(lp2417
S'They'
p2418
aS'opened'
p2419
aS'and'
p2420
aS'read'
p2421
aS'it'
p2422
aS'.'
p2423
asg39
(lp2424
VThey
p2425
aVopen
p2426
aVand
p2427
aVread
p2428
aVit
p2429
ag56
asg57
(lp2430
g59
ag59
ag59
ag59
ag59
ag59
asg60
(lp2431
g152
ag64
ag262
ag70
ag152
ag72
asg73
VThey opened and read it.
p2432
sba(i__main__
Sentence
p2433
(dp2434
g17
I45
sg18
(lp2435
S'It'
p2436
aS'was'
p2437
aS'one'
p2438
aS'of'
p2439
aS'those'
p2440
aS'old-fashioned'
p2441
aS'letters'
p2442
aS'which'
p2443
aS'one'
p2444
aS'finds'
p2445
aS'in'
p2446
aS'old'
p2447
aS'family'
p2448
aS'desk'
p2449
aS'drawers'
p2450
aS','
p2451
aS'those'
p2452
aS'epistles'
p2453
aS'which'
p2454
aS'smell'
p2455
aS'of'
p2456
aS'another'
p2457
aS'century'
p2458
aS'.'
p2459
asg39
(lp2460
VIt
p2461
ag120
aVone
p2462
aVof
p2463
aVthose
p2464
aVold-fashioned
p2465
aVletter
p2466
aVwhich
p2467
aVone
p2468
aVfind
p2469
aVin
p2470
aVold
p2471
aVfamily
p2472
aVdesk
p2473
aVdrawer
p2474
ag47
aVthose
p2475
aVepistle
p2476
aVwhich
p2477
aVsmell
p2478
aVof
p2479
aVanother
p2480
aVcentury
p2481
ag56
asg57
(lp2482
g59
ag59
ag59
ag59
ag59
ag59
ag59
ag59
ag59
ag59
ag59
ag59
ag59
ag59
ag59
ag59
ag59
ag59
ag59
ag59
ag59
ag59
ag59
ag59
asg60
(lp2483
g152
ag64
ag259
ag66
ag62
ag71
ag155
ag437
ag259
ag155
ag66
ag71
ag63
ag63
ag155
ag67
ag62
ag155
ag437
ag63
ag66
ag62
ag63
ag72
asg73
VIt was one of those old-fashioned letters which one finds in old family desk drawers, those epistles which smell of another century.
p2484
sba(i__main__
Sentence
p2485
(dp2486
g17
I46
sg18
(lp2487
S'The'
p2488
aS'first'
p2489
aS'one'
p2490
aS'started'
p2491
aS':'
p2492
aS'``'
p2493
aS'My'
p2494
aS'dear'
p2495
aS','
p2496
aS"''"
p2497
aS'another'
p2498
aS'one'
p2499
aS':'
p2500
aS'``'
p2501
aS'My'
p2502
aS'beautiful'
p2503
aS'little'
p2504
aS'girl'
p2505
aS','
p2506
aS"''"
p2507
aS'others'
p2508
aS':'
p2509
aS'``'
p2510
aS'My'
p2511
aS'dear'
p2512
aS'child'
p2513
aS','
p2514
aS"''"
p2515
aS'or'
p2516
aS':'
p2517
aS'``'
p2518
aS'My'
p2519
aS'dear'
p2520
aS'('
p2521
aS'laughter'
p2522
aS'.'
p2523
aS"''"
p2524
asg39
(lp2525
VThe
p2526
aVfirst
p2527
aVone
p2528
aVstart
p2529
ag914
aV``
p2530
aVMy
p2531
aVdear
p2532
ag47
aV''
p2533
aVanother
p2534
aVone
p2535
ag914
aV``
p2536
aVMy
p2537
aVbeautiful
p2538
aVlittle
p2539
aVgirl
p2540
ag47
aV''
p2541
aVothers
p2542
ag914
aV``
p2543
aVMy
p2544
aVdear
p2545
aVchild
p2546
ag47
aV''
p2547
aVor
p2548
ag914
aV``
p2549
aVMy
p2550
aVdear
p2551
aV(
p2552
aVlaughter
p2553
ag56
aV''
p2554
asg57
(lp2555
g59
ag59
ag59
ag59
ag59
ag59
ag59
ag59
ag59
ag59
ag59
ag59
ag59
ag59
ag59
ag59
ag59
ag59
ag59
ag59
ag59
ag59
ag59
ag59
ag59
ag59
ag59
ag59
ag59
ag59
ag59
ag59
ag59
ag59
ag59
ag59
ag59
asg60
(lp2556
g62
ag71
ag259
ag65
ag693
ag923
ag154
ag63
ag67
ag956
ag62
ag259
ag693
ag923
ag154
ag71
ag71
ag63
ag67
ag956
ag155
ag693
ag923
ag154
ag63
ag63
ag67
ag956
ag262
ag693
ag923
ag154
ag63
ag693
ag63
ag72
ag956
asg73
VThe first one started: "My dear," another one: "My beautiful little girl," others: "My dear child," or: "My dear (laughter."
p2557
sba(i__main__
Sentence
p2558
(dp2559
g17
I47
sg18
(lp2560
S'And'
p2561
aS'suddenly'
p2562
aS'the'
p2563
aS'nun'
p2564
aS'began'
p2565
aS'to'
p2566
aS'read'
p2567
aS'aloud'
p2568
aS','
p2569
aS'to'
p2570
aS'read'
p2571
aS'over'
p2572
aS'to'
p2573
aS'the'
p2574
aS'dead'
p2575
aS'woman'
p2576
aS'her'
p2577
aS'whole'
p2578
aS'history'
p2579
aS','
p2580
aS'all'
p2581
aS'her'
p2582
aS'tender'
p2583
aS'memories'
p2584
aS'.'
p2585
asg39
(lp2586
VAnd
p2587
aVsuddenly
p2588
aVthe
p2589
aVnun
p2590
ag1652
aVto
p2591
aVread
p2592
aValoud
p2593
ag47
aVto
p2594
aVread
p2595
aVover
p2596
aVto
p2597
aVthe
p2598
aVdead
p2599
aVwoman
p2600
aVher
p2601
aVwhole
p2602
aVhistory
p2603
ag47
aVall
p2604
aVher
p2605
aVtender
p2606
aVmemory
p2607
ag56
asg57
(lp2608
g59
ag59
ag59
ag59
ag59
ag59
ag59
ag59
ag59
ag59
ag59
ag59
ag59
ag59
ag59
ag59
ag59
ag59
ag59
ag59
ag59
ag59
ag59
ag59
ag59
asg60
(lp2609
g262
ag68
ag62
ag63
ag64
ag692
ag70
ag63
ag67
ag692
ag70
ag66
ag692
ag62
ag63
ag63
ag154
ag63
ag63
ag67
ag62
ag152
ag694
ag155
ag72
asg73
VAnd suddenly the nun began to read aloud, to read over to the dead woman her whole history, all her tender memories.
p2610
sba(i__main__
Sentence
p2611
(dp2612
g17
I48
sg18
(lp2613
S'The'
p2614
aS'judge'
p2615
aS','
p2616
aS'resting'
p2617
aS'his'
p2618
aS'elbow'
p2619
aS'on'
p2620
aS'the'
p2621
aS'bed'
p2622
aS','
p2623
aS'was'
p2624
aS'listening'
p2625
aS'with'
p2626
aS'his'
p2627
aS'eyes'
p2628
aS'fastened'
p2629
aS'on'
p2630
aS'his'
p2631
aS'mother'
p2632
aS'.'
p2633
asg39
(lp2634
VThe
p2635
aVjudge
p2636
ag47
aVresting
p2637
aVhis
p2638
aVelbow
p2639
aVon
p2640
aVthe
p2641
aVbed
p2642
ag47
ag120
aVlisten
p2643
aVwith
p2644
aVhis
p2645
aVeye
p2646
aVfasten
p2647
aVon
p2648
aVhis
p2649
aVmother
p2650
ag56
asg57
(lp2651
g59
ag59
ag59
ag59
ag59
ag59
ag59
ag59
ag59
ag59
ag59
ag59
ag59
ag59
ag59
ag59
ag59
ag59
ag59
ag59
asg60
(lp2652
g62
ag63
ag67
ag63
ag154
ag63
ag66
ag62
ag65
ag67
ag64
ag153
ag66
ag154
ag155
ag64
ag66
ag154
ag63
ag72
asg73
VThe judge, resting his elbow on the bed, was listening with his eyes fastened on his mother.
p2653
sba(i__main__
Sentence
p2654
(dp2655
g17
I49
sg18
(lp2656
S'The'
p2657
aS'motionless'
p2658
aS'body'
p2659
aS'seemed'
p2660
aS'happy'
p2661
aS'.'
p2662
asg39
(lp2663
VThe
p2664
aVmotionless
p2665
aVbody
p2666
aVseem
p2667
aVhappy
p2668
ag56
asg57
(lp2669
g59
ag59
ag59
ag59
ag59
ag59
asg60
(lp2670
g62
ag63
ag63
ag64
ag71
ag72
asg73
VThe motionless body seemed happy.
p2671
sba(i__main__
Sentence
p2672
(dp2673
g17
I50
sg18
(lp2674
S'Sister'
p2675
aS'Eulalie'
p2676
aS','
p2677
aS'interrupting'
p2678
aS'herself'
p2679
aS','
p2680
aS'said'
p2681
aS'suddenly'
p2682
aS':'
p2683
aS'``'
p2684
aS'These'
p2685
aS'ought'
p2686
aS'to'
p2687
aS'be'
p2688
aS'put'
p2689
aS'in'
p2690
aS'the'
p2691
aS'grave'
p2692
aS'with'
p2693
aS'her'
p2694
aS';'
p2695
aS'they'
p2696
aS'ought'
p2697
aS'to'
p2698
aS'be'
p2699
aS'used'
p2700
aS'as'
p2701
aS'a'
p2702
aS'shroud'
p2703
aS'and'
p2704
aS'she'
p2705
aS'ought'
p2706
aS'to'
p2707
aS'be'
p2708
aS'buried'
p2709
aS'in'
p2710
aS'it'
p2711
aS'.'
p2712
aS"''"
p2713
asg39
(lp2714
VSister
p2715
aVEulalie
p2716
ag47
aVinterrupt
p2717
aVherself
p2718
ag47
ag1896
aVsuddenly
p2719
ag914
aV``
p2720
aVThese
p2721
aVought
p2722
aVto
p2723
aVbe
p2724
aVput
p2725
aVin
p2726
aVthe
p2727
aVgrave
p2728
aVwith
p2729
aVher
p2730
ag673
aVthey
p2731
aVought
p2732
aVto
p2733
aVbe
p2734
aVuse
p2735
ag49
ag49
aVshroud
p2736
aVand
p2737
aVshe
p2738
aVought
p2739
aVto
p2740
aVbe
p2741
ag1486
aVin
p2742
aVit
p2743
ag56
aV''
p2744
asg57
(lp2745
g59
aVPERSON
p2746
ag59
ag59
ag59
ag59
ag59
ag59
ag59
ag59
ag59
ag59
ag59
ag59
ag59
ag59
ag59
ag59
ag59
ag59
ag59
ag59
ag59
ag59
ag59
ag59
ag59
ag59
ag59
ag59
ag59
ag59
ag59
ag59
ag59
ag59
ag59
ag59
ag59
asg60
(lp2747
g330
ag330
ag67
ag153
ag152
ag67
ag64
ag68
ag693
ag923
ag62
ag69
ag692
ag70
ag65
ag156
ag62
ag63
ag66
ag154
ag693
ag152
ag69
ag692
ag70
ag65
ag66
ag62
ag63
ag262
ag152
ag69
ag692
ag70
ag65
ag66
ag152
ag72
ag956
asg73
VSister Eulalie, interrupting herself, said suddenly:    "These ought to be put in the grave with her; they ought to be used as a shroud and she ought to be buried in it."
p2748
sba(i__main__
Sentence
p2749
(dp2750
g17
I51
sg18
(lp2751
S'She'
p2752
aS'took'
p2753
aS'another'
p2754
aS'package'
p2755
aS','
p2756
aS'on'
p2757
aS'which'
p2758
aS'no'
p2759
aS'name'
p2760
aS'was'
p2761
aS'written'
p2762
aS'.'
p2763
asg39
(lp2764
VShe
p2765
ag2346
aVanother
p2766
aVpackage
p2767
ag47
aVon
p2768
aVwhich
p2769
aVno
p2770
aVname
p2771
ag120
ag2411
ag56
asg57
(lp2772
g59
ag59
ag59
ag59
ag59
ag59
ag59
ag59
ag59
ag59
ag59
ag59
asg60
(lp2773
g152
ag64
ag62
ag63
ag67
ag66
ag437
ag62
ag63
ag64
ag65
ag72
asg73
VShe took another package, on which no name was written.
p2774
sba(i__main__
Sentence
p2775
(dp2776
g17
I52
sg18
(lp2777
S'She'
p2778
aS'began'
p2779
aS'to'
p2780
aS'read'
p2781
aS'in'
p2782
aS'a'
p2783
aS'firm'
p2784
aS'voice'
p2785
aS':'
p2786
aS'``'
p2787
aS'My'
p2788
aS'adored'
p2789
aS'one'
p2790
aS','
p2791
aS'I'
p2792
aS'love'
p2793
aS'you'
p2794
aS'wildly'
p2795
aS'.'
p2796
asg39
(lp2797
VShe
p2798
ag1652
aVto
p2799
aVread
p2800
aVin
p2801
ag49
aVfirm
p2802
aVvoice
p2803
ag914
aV``
p2804
aVMy
p2805
aVadore
p2806
aVone
p2807
ag47
ag942
aVlove
p2808
aVyou
p2809
aVwildly
p2810
ag56
asg57
(lp2811
g59
ag59
ag59
ag59
ag59
ag59
ag59
ag59
ag59
ag59
ag59
ag59
ag59
ag59
ag59
ag59
ag59
ag59
ag59
asg60
(lp2812
g152
ag64
ag692
ag70
ag66
ag62
ag63
ag63
ag693
ag923
ag154
ag65
ag259
ag67
ag152
ag694
ag152
ag68
ag72
asg73
VShe began to read in a firm voice: "My adored one, I love you wildly.
p2813
sba(i__main__
Sentence
p2814
(dp2815
g17
I53
sg18
(lp2816
S'Since'
p2817
aS'yesterday'
p2818
aS'I'
p2819
aS'have'
p2820
aS'been'
p2821
aS'suffering'
p2822
aS'the'
p2823
aS'tortures'
p2824
aS'of'
p2825
aS'the'
p2826
aS'damned'
p2827
aS','
p2828
aS'haunted'
p2829
aS'by'
p2830
aS'our'
p2831
aS'memory'
p2832
aS'.'
p2833
asg39
(lp2834
VSince
p2835
aVyesterday
p2836
ag942
aVhave
p2837
ag54
aVsuffer
p2838
aVthe
p2839
aVtorture
p2840
aVof
p2841
aVthe
p2842
aVdamn
p2843
ag47
aVhaunt
p2844
aVby
p2845
aVour
p2846
aVmemory
p2847
ag56
asg57
(lp2848
g59
ag59
ag59
ag59
ag59
ag59
ag59
ag59
ag59
ag59
ag59
ag59
ag59
ag59
ag59
ag59
ag59
asg60
(lp2849
g66
ag63
ag152
ag694
ag65
ag153
ag62
ag155
ag66
ag62
ag65
ag67
ag65
ag66
ag154
ag63
ag72
asg73
VSince yesterday I have been suffering the tortures of the damned, haunted by our memory.
p2850
sba(i__main__
Sentence
p2851
(dp2852
g17
I54
sg18
(lp2853
S'I'
p2854
aS'feel'
p2855
aS'your'
p2856
aS'lips'
p2857
aS'against'
p2858
aS'mine'
p2859
aS','
p2860
aS'your'
p2861
aS'eyes'
p2862
aS'in'
p2863
aS'mine'
p2864
aS','
p2865
aS'your'
p2866
aS'breast'
p2867
aS'against'
p2868
aS'mine'
p2869
aS'.'
p2870
asg39
(lp2871
g942
aVfeel
p2872
aVyour
p2873
aVlip
p2874
aVagainst
p2875
aVmine
p2876
ag47
aVyour
p2877
aVeye
p2878
aVin
p2879
aVmine
p2880
ag47
aVyour
p2881
aVbreast
p2882
aVagainst
p2883
aVmine
p2884
ag56
asg57
(lp2885
g59
ag59
ag59
ag59
ag59
ag59
ag59
ag59
ag59
ag59
ag59
ag59
ag59
ag59
ag59
ag59
ag59
asg60
(lp2886
g152
ag694
ag154
ag155
ag66
ag71
ag67
ag154
ag155
ag66
ag71
ag67
ag154
ag63
ag66
ag71
ag72
asg73
VI feel your lips against mine, your eyes in mine, your breast against mine.
p2887
sba(i__main__
Sentence
p2888
(dp2889
g17
I55
sg18
(lp2890
S'I'
p2891
aS'love'
p2892
aS'you'
p2893
aS','
p2894
aS'I'
p2895
aS'love'
p2896
aS'you'
p2897
aS'!'
p2898
asg39
(lp2899
g942
aVlove
p2900
aVyou
p2901
ag47
ag942
aVlove
p2902
aVyou
p2903
ag920
asg57
(lp2904
g59
ag59
ag59
ag59
ag59
ag59
ag59
ag59
asg60
(lp2905
g152
ag694
ag152
ag67
ag152
ag694
ag152
ag72
asg73
VI love you, I love you!
p2906
sba(i__main__
Sentence
p2907
(dp2908
g17
I56
sg18
(lp2909
S'You'
p2910
aS'have'
p2911
aS'driven'
p2912
aS'me'
p2913
aS'mad'
p2914
aS'.'
p2915
asg39
(lp2916
VYou
p2917
aVhave
p2918
aVdrive
p2919
aVme
p2920
aVmad
p2921
ag56
asg57
(lp2922
g59
ag59
ag59
ag59
ag59
ag59
asg60
(lp2923
g152
ag694
ag65
ag152
ag68
ag72
asg73
VYou have driven me mad.
p2924
sba(i__main__
Sentence
p2925
(dp2926
g17
I57
sg18
(lp2927
S'My'
p2928
aS'arms'
p2929
aS'open'
p2930
aS','
p2931
aS'I'
p2932
aS'gasp'
p2933
aS','
p2934
aS'moved'
p2935
aS'by'
p2936
aS'a'
p2937
aS'wild'
p2938
aS'desire'
p2939
aS'to'
p2940
aS'hold'
p2941
aS'you'
p2942
aS'again'
p2943
aS'.'
p2944
asg39
(lp2945
VMy
p2946
aVarm
p2947
aVopen
p2948
ag47
ag942
aVgasp
p2949
ag47
aVmove
p2950
aVby
p2951
ag49
aVwild
p2952
aVdesire
p2953
aVto
p2954
aVhold
p2955
aVyou
p2956
aVagain
p2957
ag56
asg57
(lp2958
g59
ag59
ag59
ag59
ag59
ag59
ag59
ag59
ag59
ag59
ag59
ag59
ag59
ag59
ag59
ag59
ag59
asg60
(lp2959
g154
ag155
ag71
ag67
ag152
ag694
ag67
ag65
ag66
ag62
ag71
ag63
ag692
ag70
ag152
ag68
ag72
asg73
VMy arms open, I gasp, moved by a wild desire to hold you again.
p2960
sba(i__main__
Sentence
p2961
(dp2962
g17
I58
sg18
(lp2963
S'My'
p2964
aS'whole'
p2965
aS'soul'
p2966
aS'and'
p2967
aS'body'
p2968
aS'cries'
p2969
aS'out'
p2970
aS'for'
p2971
aS'you'
p2972
aS','
p2973
aS'wants'
p2974
aS'you'
p2975
aS'.'
p2976
asg39
(lp2977
VMy
p2978
aVwhole
p2979
aVsoul
p2980
aVand
p2981
aVbody
p2982
aVcry
p2983
aVout
p2984
aVfor
p2985
aVyou
p2986
ag47
aVwant
p2987
aVyou
p2988
ag56
asg57
(lp2989
g59
ag59
ag59
ag59
ag59
ag59
ag59
ag59
ag59
ag59
ag59
ag59
ag59
asg60
(lp2990
g154
ag63
ag63
ag262
ag63
ag155
ag66
ag66
ag152
ag67
ag157
ag152
ag72
asg73
VMy whole soul and body cries out for you, wants you.
p2991
sba(i__main__
Sentence
p2992
(dp2993
g17
I59
sg18
(lp2994
S'I'
p2995
aS'have'
p2996
aS'kept'
p2997
aS'in'
p2998
aS'my'
p2999
aS'mouth'
p3000
aS'the'
p3001
aS'taste'
p3002
aS'of'
p3003
aS'your'
p3004
aS'kisses'
p3005
aS'--'
p3006
aS"''"
p3007
aS'The'
p3008
aS'judge'
p3009
aS'had'
p3010
aS'straightened'
p3011
aS'himself'
p3012
aS'up'
p3013
aS'.'
p3014
asg39
(lp3015
g942
aVhave
p3016
aVkeep
p3017
aVin
p3018
aVmy
p3019
aVmouth
p3020
aVthe
p3021
aVtaste
p3022
aVof
p3023
aVyour
p3024
aVkiss
p3025
aV--
p3026
aV''
p3027
aVThe
p3028
aVjudge
p3029
ag43
aVstraighten
p3030
aVhimself
p3031
aVup
p3032
ag56
asg57
(lp3033
g59
ag59
ag59
ag59
ag59
ag59
ag59
ag59
ag59
ag59
ag59
ag59
ag59
ag59
ag59
ag59
ag59
ag59
ag59
ag59
asg60
(lp3034
g152
ag694
ag65
ag66
ag154
ag63
ag62
ag63
ag66
ag154
ag155
ag693
ag956
ag62
ag63
ag64
ag65
ag152
ag156
ag72
asg73
VI have kept in my mouth the taste of your kisses--"    The judge had straightened himself up.
p3035
sba(i__main__
Sentence
p3036
(dp3037
g17
I60
sg18
(lp3038
S'The'
p3039
aS'nun'
p3040
aS'stopped'
p3041
aS'reading'
p3042
aS'.'
p3043
asg39
(lp3044
VThe
p3045
aVnun
p3046
ag1114
aVreading
p3047
ag56
asg57
(lp3048
g59
ag59
ag59
ag59
ag59
asg60
(lp3049
g62
ag63
ag64
ag63
ag72
asg73
VThe nun stopped reading.
p3050
sba(i__main__
Sentence
p3051
(dp3052
g17
I61
sg18
(lp3053
S'He'
p3054
aS'snatched'
p3055
aS'the'
p3056
aS'letter'
p3057
aS'from'
p3058
aS'her'
p3059
aS'and'
p3060
aS'looked'
p3061
aS'for'
p3062
aS'the'
p3063
aS'signature'
p3064
aS'.'
p3065
asg39
(lp3066
VHe
p3067
aVsnatch
p3068
aVthe
p3069
aVletter
p3070
aVfrom
p3071
aVher
p3072
aVand
p3073
aVlook
p3074
aVfor
p3075
aVthe
p3076
aVsignature
p3077
ag56
asg57
(lp3078
g59
ag59
ag59
ag59
ag59
ag59
ag59
ag59
ag59
ag59
ag59
ag59
asg60
(lp3079
g152
ag64
ag62
ag63
ag66
ag154
ag262
ag64
ag66
ag62
ag63
ag72
asg73
VHe snatched the letter from her and looked for the signature.
p3080
sba(i__main__
Sentence
p3081
(dp3082
g17
I62
sg18
(lp3083
S'There'
p3084
aS'was'
p3085
aS'none'
p3086
aS','
p3087
aS'but'
p3088
aS'only'
p3089
aS'under'
p3090
aS'the'
p3091
aS'words'
p3092
aS','
p3093
aS'``'
p3094
aS'The'
p3095
aS'man'
p3096
aS'who'
p3097
aS'adores'
p3098
aS'you'
p3099
aS','
p3100
aS"''"
p3101
aS'the'
p3102
aS'name'
p3103
aS'``'
p3104
aS'Henry'
p3105
aS'.'
p3106
aS"''"
p3107
asg39
(lp3108
VThere
p3109
ag120
aVnone
p3110
ag47
aVbut
p3111
aVonly
p3112
aVunder
p3113
aVthe
p3114
aVword
p3115
ag47
aV``
p3116
aVThe
p3117
aVman
p3118
aVwho
p3119
aVadores
p3120
aVyou
p3121
ag47
aV''
p3122
aVthe
p3123
aVname
p3124
aV``
p3125
aVHenry
p3126
ag56
aV''
p3127
asg57
(lp3128
g59
ag59
ag59
ag59
ag59
ag59
ag59
ag59
ag59
ag59
ag59
ag59
ag59
ag59
ag59
ag59
ag59
ag59
ag59
ag59
ag59
aVPERSON
p3129
ag59
ag59
asg60
(lp3130
S'EX'
p3131
ag64
ag63
ag67
ag262
ag68
ag66
ag62
ag155
ag67
ag923
ag62
ag63
ag260
ag155
ag152
ag67
ag956
ag62
ag63
ag923
ag330
ag72
ag956
asg73
VThere was none, but only under the words, "The man who adores you," the name "Henry."
p3132
sba(i__main__
Sentence
p3133
(dp3134
g17
I63
sg18
(lp3135
S'Their'
p3136
aS'father'
p3137
aS"'s"
p3138
aS'name'
p3139
aS'was'
p3140
aS'Rene'
p3141
aS'.'
p3142
asg39
(lp3143
VTheir
p3144
aVfather
p3145
aV's
p3146
aVname
p3147
ag120
aVRene
p3148
ag56
asg57
(lp3149
g59
ag59
ag59
ag59
ag59
aVPERSON
p3150
ag59
asg60
(lp3151
g154
ag63
ag602
ag63
ag64
ag330
ag72
asg73
VTheir father's name was Rene.
p3152
sba(i__main__
Sentence
p3153
(dp3154
g17
I64
sg18
(lp3155
S'Therefore'
p3156
aS'this'
p3157
aS'was'
p3158
aS'not'
p3159
aS'from'
p3160
aS'him'
p3161
aS'.'
p3162
asg39
(lp3163
VTherefore
p3164
aVthis
p3165
ag120
aVnot
p3166
aVfrom
p3167
aVhim
p3168
ag56
asg57
(lp3169
g59
ag59
ag59
ag59
ag59
ag59
ag59
asg60
(lp3170
g330
ag62
ag64
ag68
ag66
ag152
ag72
asg73
VTherefore this was not from him.
p3171
sba(i__main__
Sentence
p3172
(dp3173
g17
I65
sg18
(lp3174
S'The'
p3175
aS'son'
p3176
aS'then'
p3177
aS'quickly'
p3178
aS'rummaged'
p3179
aS'through'
p3180
aS'the'
p3181
aS'package'
p3182
aS'of'
p3183
aS'letters'
p3184
aS','
p3185
aS'took'
p3186
aS'one'
p3187
aS'out'
p3188
aS'and'
p3189
aS'read'
p3190
aS':'
p3191
aS'``'
p3192
aS'I'
p3193
aS'can'
p3194
aS'no'
p3195
aS'longer'
p3196
aS'live'
p3197
aS'without'
p3198
aS'your'
p3199
aS'caresses'
p3200
aS'.'
p3201
aS"''"
p3202
asg39
(lp3203
VThe
p3204
aVson
p3205
aVthen
p3206
aVquickly
p3207
aVrummage
p3208
aVthrough
p3209
aVthe
p3210
aVpackage
p3211
aVof
p3212
aVletter
p3213
ag47
ag2346
aVone
p3214
aVout
p3215
aVand
p3216
aVread
p3217
ag914
aV``
p3218
ag942
aVcan
p3219
aVno
p3220
aVlonger
p3221
aVlive
p3222
aVwithout
p3223
aVyour
p3224
aVcaress
p3225
ag56
aV''
p3226
asg57
(lp3227
g59
ag59
ag59
ag59
ag59
ag59
ag59
ag59
ag59
ag59
ag59
ag59
ag59
ag59
ag59
ag59
ag59
ag59
ag59
ag59
ag59
ag59
ag59
ag59
ag59
ag59
ag59
ag59
asg60
(lp3228
g62
ag63
ag68
ag68
ag64
ag66
ag62
ag63
ag66
ag155
ag67
ag64
ag259
ag66
ag262
ag70
ag693
ag923
ag152
ag69
ag68
ag2120
ag71
ag66
ag154
ag155
ag72
ag956
asg73
VThe son then quickly rummaged through the package of letters, took one out and read: "I can no longer live without your caresses."
p3229
sba(i__main__
Sentence
p3230
(dp3231
g17
I66
sg18
(lp3232
S'Standing'
p3233
aS'erect'
p3234
aS','
p3235
aS'severe'
p3236
aS'as'
p3237
aS'when'
p3238
aS'sitting'
p3239
aS'on'
p3240
aS'the'
p3241
aS'bench'
p3242
aS','
p3243
aS'he'
p3244
aS'looked'
p3245
aS'unmoved'
p3246
aS'at'
p3247
aS'the'
p3248
aS'dead'
p3249
aS'woman'
p3250
aS'.'
p3251
asg39
(lp3252
VStanding
p3253
aVerect
p3254
ag47
aVsevere
p3255
ag49
aVwhen
p3256
aVsit
p3257
aVon
p3258
aVthe
p3259
aVbench
p3260
ag47
aVhe
p3261
aVlook
p3262
aVunmoved
p3263
aVat
p3264
aVthe
p3265
aVdead
p3266
aVwoman
p3267
ag56
asg57
(lp3268
g59
ag59
ag59
ag59
ag59
ag59
ag59
ag59
ag59
ag59
ag59
ag59
ag59
ag59
ag59
ag59
ag59
ag59
ag59
asg60
(lp3269
g153
ag63
ag67
ag71
ag66
ag261
ag153
ag66
ag62
ag63
ag67
ag152
ag64
ag65
ag66
ag62
ag71
ag63
ag72
asg73
VStanding erect, severe as when sitting on the bench, he looked unmoved at the dead woman.
p3270
sba(i__main__
Sentence
p3271
(dp3272
g17
I67
sg18
(lp3273
S'The'
p3274
aS'nun'
p3275
aS','
p3276
aS'straight'
p3277
aS'as'
p3278
aS'a'
p3279
aS'statue'
p3280
aS','
p3281
aS'tears'
p3282
aS'trembling'
p3283
aS'in'
p3284
aS'the'
p3285
aS'corners'
p3286
aS'of'
p3287
aS'her'
p3288
aS'eyes'
p3289
aS','
p3290
aS'was'
p3291
aS'watching'
p3292
aS'her'
p3293
aS'brother'
p3294
aS','
p3295
aS'waiting'
p3296
aS'.'
p3297
asg39
(lp3298
VThe
p3299
aVnun
p3300
ag47
aVstraight
p3301
ag49
ag49
aVstatue
p3302
ag47
aVtear
p3303
aVtremble
p3304
aVin
p3305
aVthe
p3306
aVcorner
p3307
aVof
p3308
aVher
p3309
aVeye
p3310
ag47
ag120
aVwatch
p3311
aVher
p3312
aVbrother
p3313
ag47
aVwait
p3314
ag56
asg57
(lp3315
g59
ag59
ag59
ag59
ag59
ag59
ag59
ag59
ag59
ag59
ag59
ag59
ag59
ag59
ag59
ag59
ag59
ag59
ag59
ag59
ag59
ag59
ag59
ag59
asg60
(lp3316
g62
ag63
ag67
ag68
ag66
ag62
ag63
ag67
ag155
ag153
ag66
ag62
ag155
ag66
ag154
ag155
ag67
ag64
ag153
ag154
ag63
ag67
ag153
ag72
asg73
VThe nun, straight as a statue, tears trembling in the corners of her eyes, was watching her brother, waiting.
p3317
sba(i__main__
Sentence
p3318
(dp3319
g17
I68
sg18
(lp3320
S'Then'
p3321
aS'he'
p3322
aS'crossed'
p3323
aS'the'
p3324
aS'room'
p3325
aS'slowly'
p3326
aS','
p3327
aS'went'
p3328
aS'to'
p3329
aS'the'
p3330
aS'window'
p3331
aS'and'
p3332
aS'stood'
p3333
aS'there'
p3334
aS','
p3335
aS'gazing'
p3336
aS'out'
p3337
aS'into'
p3338
aS'the'
p3339
aS'dark'
p3340
aS'night'
p3341
aS'.'
p3342
asg39
(lp3343
VThen
p3344
aVhe
p3345
aVcross
p3346
aVthe
p3347
aVroom
p3348
aVslowly
p3349
ag47
ag1210
aVto
p3350
aVthe
p3351
aVwindow
p3352
aVand
p3353
aVstand
p3354
aVthere
p3355
ag47
aVgaze
p3356
aVout
p3357
aVinto
p3358
aVthe
p3359
aVdark
p3360
aVnight
p3361
ag56
asg57
(lp3362
g59
ag59
ag59
ag59
ag59
ag59
ag59
ag59
ag59
ag59
ag59
ag59
ag59
ag59
ag59
ag59
ag59
ag59
ag59
ag59
ag59
ag59
asg60
(lp3363
g68
ag152
ag64
ag62
ag63
ag68
ag67
ag64
ag692
ag62
ag63
ag262
ag64
ag68
ag67
ag153
ag156
ag66
ag62
ag71
ag63
ag72
asg73
VThen he crossed the room slowly, went to the window and stood there, gazing out into the dark night.
p3364
sba(i__main__
Sentence
p3365
(dp3366
g17
I69
sg18
(lp3367
S'When'
p3368
aS'he'
p3369
aS'turned'
p3370
aS'around'
p3371
aS'again'
p3372
aS'Sister'
p3373
aS'Eulalie'
p3374
aS','
p3375
aS'her'
p3376
aS'eyes'
p3377
aS'dry'
p3378
aS'now'
p3379
aS','
p3380
aS'was'
p3381
aS'still'
p3382
aS'standing'
p3383
aS'near'
p3384
aS'the'
p3385
aS'bed'
p3386
aS','
p3387
aS'her'
p3388
aS'head'
p3389
aS'bent'
p3390
aS'down'
p3391
aS'.'
p3392
asg39
(lp3393
VWhen
p3394
aVhe
p3395
aVturn
p3396
aVaround
p3397
aVagain
p3398
aVSister
p3399
aVEulalie
p3400
ag47
aVher
p3401
aVeye
p3402
aVdry
p3403
aVnow
p3404
ag47
ag120
aVstill
p3405
aVstanding
p3406
aVnear
p3407
aVthe
p3408
aVbed
p3409
ag47
aVher
p3410
aVhead
p3411
aVbent
p3412
aVdown
p3413
ag56
asg57
(lp3414
g59
ag59
ag59
ag59
ag59
ag59
aVPERSON
p3415
ag59
ag59
ag59
ag59
ag59
ag59
ag59
ag59
ag59
ag59
ag59
ag59
ag59
ag59
ag59
ag59
ag59
ag59
asg60
(lp3416
g261
ag152
ag64
ag156
ag68
ag330
ag330
ag67
ag154
ag155
ag71
ag68
ag67
ag64
ag68
ag63
ag66
ag62
ag65
ag67
ag154
ag63
ag63
ag66
ag72
asg73
VWhen he turned around again Sister Eulalie, her eyes dry now, was still standing near the bed, her head bent down.
p3417
sba(i__main__
Sentence
p3418
(dp3419
g17
I70
sg18
(lp3420
S'He'
p3421
aS'stepped'
p3422
aS'forward'
p3423
aS','
p3424
aS'quickly'
p3425
aS'picked'
p3426
aS'up'
p3427
aS'the'
p3428
aS'letters'
p3429
aS'and'
p3430
aS'threw'
p3431
aS'them'
p3432
aS'pell-mell'
p3433
aS'back'
p3434
aS'into'
p3435
aS'the'
p3436
aS'drawer'
p3437
aS'.'
p3438
asg39
(lp3439
VHe
p3440
aVstep
p3441
aVforward
p3442
ag47
aVquickly
p3443
aVpick
p3444
aVup
p3445
aVthe
p3446
aVletter
p3447
aVand
p3448
ag2393
aVthem
p3449
aVpell-mell
p3450
aVback
p3451
aVinto
p3452
aVthe
p3453
aVdrawer
p3454
ag56
asg57
(lp3455
g59
ag59
ag59
ag59
ag59
ag59
ag59
ag59
ag59
ag59
ag59
ag59
ag59
ag59
ag59
ag59
ag59
ag59
asg60
(lp3456
g152
ag64
ag68
ag67
ag68
ag64
ag156
ag62
ag155
ag262
ag70
ag152
ag71
ag63
ag66
ag62
ag63
ag72
asg73
VHe stepped forward, quickly picked up the letters and threw them pell-mell back into the drawer.
p3457
sba(i__main__
Sentence
p3458
(dp3459
g17
I71
sg18
(lp3460
S'Then'
p3461
aS'he'
p3462
aS'closed'
p3463
aS'the'
p3464
aS'curtains'
p3465
aS'of'
p3466
aS'the'
p3467
aS'bed'
p3468
aS'.'
p3469
asg39
(lp3470
VThen
p3471
aVhe
p3472
aVclose
p3473
aVthe
p3474
aVcurtain
p3475
aVof
p3476
aVthe
p3477
aVbed
p3478
ag56
asg57
(lp3479
g59
ag59
ag59
ag59
ag59
ag59
ag59
ag59
ag59
asg60
(lp3480
g68
ag152
ag64
ag62
ag155
ag66
ag62
ag65
ag72
asg73
VThen he closed the curtains of the bed.
p3481
sba(i__main__
Sentence
p3482
(dp3483
g17
I72
sg18
(lp3484
S'When'
p3485
aS'daylight'
p3486
aS'made'
p3487
aS'the'
p3488
aS'candles'
p3489
aS'on'
p3490
aS'the'
p3491
aS'table'
p3492
aS'turn'
p3493
aS'pale'
p3494
aS'the'
p3495
aS'son'
p3496
aS'slowly'
p3497
aS'left'
p3498
aS'his'
p3499
aS'armchair'
p3500
aS','
p3501
aS'and'
p3502
aS'without'
p3503
aS'looking'
p3504
aS'again'
p3505
aS'at'
p3506
aS'the'
p3507
aS'mother'
p3508
aS'upon'
p3509
aS'whom'
p3510
aS'he'
p3511
aS'had'
p3512
aS'passed'
p3513
aS'sentence'
p3514
aS','
p3515
aS'severing'
p3516
aS'the'
p3517
aS'tie'
p3518
aS'that'
p3519
aS'united'
p3520
aS'her'
p3521
aS'to'
p3522
aS'son'
p3523
aS'and'
p3524
aS'daughter'
p3525
aS','
p3526
aS'he'
p3527
aS'said'
p3528
aS'slowly'
p3529
aS':'
p3530
aS'``'
p3531
aS'Let'
p3532
aS'us'
p3533
aS'now'
p3534
aS'retire'
p3535
aS','
p3536
aS'sister'
p3537
aS'.'
p3538
aS"''"
p3539
asg39
(lp3540
VWhen
p3541
aVdaylight
p3542
ag539
aVthe
p3543
aVcandle
p3544
aVon
p3545
aVthe
p3546
aVtable
p3547
aVturn
p3548
aVpale
p3549
aVthe
p3550
aVson
p3551
aVslowly
p3552
ag1782
aVhis
p3553
aVarmchair
p3554
ag47
aVand
p3555
aVwithout
p3556
aVlook
p3557
aVagain
p3558
aVat
p3559
aVthe
p3560
aVmother
p3561
aVupon
p3562
aVwhom
p3563
aVhe
p3564
ag43
aVpass
p3565
aVsentence
p3566
ag47
aVsever
p3567
aVthe
p3568
aVtie
p3569
aVthat
p3570
aVunite
p3571
aVher
p3572
aVto
p3573
aVson
p3574
aVand
p3575
aVdaughter
p3576
ag47
aVhe
p3577
ag1896
aVslowly
p3578
ag914
aV``
p3579
aVLet
p3580
ag1091
aVnow
p3581
aVretire
p3582
ag47
aVsister
p3583
ag56
aV''
p3584
asg57
(lp3585
g59
ag59
ag59
ag59
ag59
ag59
ag59
ag59
ag59
ag59
ag59
ag59
ag59
ag59
ag59
ag59
ag59
ag59
ag59
ag59
ag59
ag59
ag59
ag59
ag59
ag59
ag59
ag59
ag59
ag59
ag59
ag59
ag59
ag59
ag59
ag59
ag59
ag59
ag59
ag59
ag59
ag59
ag59
ag59
ag59
ag59
ag59
ag59
ag59
ag59
ag59
ag59
ag59
ag59
ag59
asg60
(lp3586
g261
ag64
ag65
ag62
ag155
ag66
ag62
ag63
ag63
ag63
ag62
ag63
ag68
ag65
ag154
ag63
ag67
ag262
ag66
ag153
ag68
ag66
ag62
ag63
ag66
ag260
ag152
ag64
ag65
ag63
ag67
ag153
ag62
ag63
ag66
ag65
ag154
ag692
ag63
ag262
ag63
ag67
ag152
ag64
ag68
ag693
ag923
ag70
ag152
ag68
ag694
ag67
ag63
ag72
ag956
asg73
VWhen daylight made the candles on the table turn pale the son slowly left his armchair, and without looking again at the mother upon whom he had passed sentence, severing the tie that united her to son and daughter, he said slowly: "Let us now retire, sister."
p3587
sbasbsS'summary'
p3588
g0
(g7
g2
Ntp3589
Rp3590
(dp3591
g11
S'\'A Dead Woman\'s Secret\', written by Guy de Maupassant in the late nineteenth century, is a short story with few characters but much emotion. The themes of death, family, and secrecy are interconnected within a story that keeps readers glued to the page in anticipation. It is a good read at 1411 words.\n\n\n\nThe story begins with a deceased woman\'s body laying peacefully on a bed. The words used to describe her body create a likeness for the older woman, including "sweet soul" and "blameless." In the room with her are her two adult children: her son, a judge, and her daughter, a nun.\n\n\n\nThe reader learns of the strong connection among the three. The children barely knew their father and were taught high morals by their mother. The background is now set for the reader as a tightly-knit family of high moral values. This basis will be key to enticing feelings of shock and surprise in the reader later in the story when the children learn of love letters addressed to their mother.\n\n\n\nA priest enters the room and offers his company to the grieving children, who explain they would prefer to be alone. Again, this is reference to the strong family bond. The grieving period of the children follows, turning from silence to cries out in grief. The daughter even knocks her head against the woodwork of the bed in her sadness.\n\n\n\nThe daughter suggests reading their mother\'s letters which are kept in a drawer in the room. Their mother used to read letters aloud to them; the daughter wants to relive the old woman\'s life through the words and also learn more of her past. She begins with the package labeled "Father" and reads aloud to the body as her brother listens.\n\n\n\nThe second package is unnamed, and the daughter begins to read a letter from this package. The paper however is a love letter to their mother with includes statements about missing her body and touch. The letter is signed by "Henry", which is not the name of their father. The two children are speechless. The son walks to the window, and the daughter is on the verge of crying. When daylight comes, the son starts to leave the room and says, without looking at his mother\'s body, "let us now retire sister." This sentence is the end of the story.\n\n\n\nOver the course of the story there is a drastic change of emotion felt by the son toward his mother. At the conclusion, he appears angry at her as he chooses to look out the window rather than at her body. He leaves the room without a final look at her. This reaction to her body is very different from the beginning, where he is grief-stricken and wants to spend time with his mother. Indeed, he even tells a priest he wants time alone with his family. His reaction to learning of his mother\'s secret by turning away is an example of how some people feel it is easier to get through a difficult situation by turning your back and leaving without further discussion.\n\n\n\nHis reaction is different from his sister\'s response to learning of their mother\'s secret. She does not turn away from the body, and says very little. Perhaps de Maupassant wants the reader to imagine how she is feeling, or is alluding to the shock felt by the daughter to the point that she does not speak at the end of the story. De Maupassant may also be pointing out men and women can react differently in times of turmoil.\n\n\n\nShock is indeed felt by the reader as the love letter written by "Henry" is described. The affair by the now deceased woman sharply contrasts the seemingly moral family portrayal at the start of the story. Questions are raised about morals and secrecy.\n\n\n\nFor instance, what do the son, a judge, and the daughter, a nun, do with the information they have learned about their mother\'s love affair? Is the son still able to perform his job now armed with his mother\'s secret, which goes against the \'tell the truth\' principle of the courtroom? Is the daughter still able to pray as a nun given that secret love affairs are frowned on within the church?\n\n\n\nThe story also causes the reader to question how well one really knows somebody, even one\'s own parent. Should one dig around in others\' pasts to learn more about them, or leave them to disclose what they wish and leave it at that? Does one really need to know everything about everyone, thereby running the risk of learning details of which one may not approve and has not anticipated?\n\n\n\nThe imagery in the story is detailed and essential for showing the strength of the relationships between the mother and children. "A Dead Woman\'s Secret" packs a lot of description and emotion well into a small package. Author Guy de Maupassant has written other short stories, as well as novels and poetry. He has written in both English and French. More of his works can be found through an online search of his name.'
p3592
sg13
(lp3593
(i__main__
Sentence
p3594
(dp3595
g17
I0
sg18
(lp3596
S"'A"
p3597
aS'Dead'
p3598
aS'Woman'
p3599
aS"'s"
p3600
aS'Secret'
p3601
aS"'"
p3602
aS','
p3603
aS'written'
p3604
aS'by'
p3605
aS'Guy'
p3606
aS'de'
p3607
aS'Maupassant'
p3608
aS'in'
p3609
aS'the'
p3610
aS'late'
p3611
aS'nineteenth'
p3612
aS'century'
p3613
aS','
p3614
aS'is'
p3615
aS'a'
p3616
aS'short'
p3617
aS'story'
p3618
aS'with'
p3619
aS'few'
p3620
aS'characters'
p3621
aS'but'
p3622
aS'much'
p3623
aS'emotion'
p3624
aS'.'
p3625
asg39
(lp3626
V'A
p3627
aVDead
p3628
aVWoman
p3629
aV's
p3630
aVSecret
p3631
aV'
p3632
ag47
ag2411
aVby
p3633
aVGuy
p3634
aVde
p3635
aVMaupassant
p3636
aVin
p3637
aVthe
p3638
aVlate
p3639
aVnineteenth
p3640
aVcentury
p3641
ag47
ag878
ag49
aVshort
p3642
aVstory
p3643
aVwith
p3644
aVfew
p3645
aVcharacter
p3646
aVbut
p3647
aVmuch
p3648
aVemotion
p3649
ag56
asg57
(lp3650
g59
ag59
ag59
ag59
ag59
ag59
ag59
ag59
ag59
aVPERSON
p3651
aVPERSON
p3652
aVPERSON
p3653
ag59
ag59
ag59
ag59
ag59
ag59
ag59
ag59
ag59
ag59
ag59
ag59
ag59
ag59
ag59
ag59
ag59
asg60
(lp3654
g63
ag330
ag330
ag602
ag330
ag602
ag67
ag65
ag66
ag330
ag66
ag330
ag66
ag62
ag71
ag63
ag63
ag67
ag157
ag62
ag71
ag63
ag66
ag71
ag155
ag262
ag68
ag63
ag72
asg73
V'A Dead Woman's Secret', written by Guy de Maupassant in the late nineteenth century, is a short story with few characters but much emotion.
p3655
sba(i__main__
Sentence
p3656
(dp3657
g17
I1
sg18
(lp3658
S'The'
p3659
aS'themes'
p3660
aS'of'
p3661
aS'death'
p3662
aS','
p3663
aS'family'
p3664
aS','
p3665
aS'and'
p3666
aS'secrecy'
p3667
aS'are'
p3668
aS'interconnected'
p3669
aS'within'
p3670
aS'a'
p3671
aS'story'
p3672
aS'that'
p3673
aS'keeps'
p3674
aS'readers'
p3675
aS'glued'
p3676
aS'to'
p3677
aS'the'
p3678
aS'page'
p3679
aS'in'
p3680
aS'anticipation'
p3681
aS'.'
p3682
asg39
(lp3683
VThe
p3684
aVtheme
p3685
aVof
p3686
aVdeath
p3687
ag47
aVfamily
p3688
ag47
aVand
p3689
aVsecrecy
p3690
ag2172
aVinterconnect
p3691
aVwithin
p3692
ag49
aVstory
p3693
aVthat
p3694
aVkeep
p3695
aVreader
p3696
aVglue
p3697
aVto
p3698
aVthe
p3699
aVpage
p3700
aVin
p3701
aVanticipation
p3702
ag56
asg57
(lp3703
g59
ag59
ag59
ag59
ag59
ag59
ag59
ag59
ag59
ag59
ag59
ag59
ag59
ag59
ag59
ag59
ag59
ag59
ag59
ag59
ag59
ag59
ag59
ag59
asg60
(lp3704
g62
ag155
ag66
ag63
ag67
ag63
ag67
ag262
ag63
ag694
ag65
ag66
ag62
ag63
ag437
ag157
ag155
ag65
ag692
ag62
ag63
ag66
ag63
ag72
asg73
VThe themes of death, family, and secrecy are interconnected within a story that keeps readers glued to the page in anticipation.
p3705
sba(i__main__
Sentence
p3706
(dp3707
g17
I2
sg18
(lp3708
S'It'
p3709
aS'is'
p3710
aS'a'
p3711
aS'good'
p3712
aS'read'
p3713
aS'at'
p3714
aS'1411'
p3715
aS'words'
p3716
aS'.'
p3717
asg39
(lp3718
VIt
p3719
ag878
ag49
aVgood
p3720
aVread
p3721
aVat
p3722
aV1411
p3723
aVword
p3724
ag56
asg57
(lp3725
g59
ag59
ag59
ag59
ag59
ag59
ag59
ag59
ag59
asg60
(lp3726
g152
ag157
ag62
ag71
ag63
ag66
ag259
ag155
ag72
asg73
VIt is a good read at 1411 words.
p3727
sba(i__main__
Sentence
p3728
(dp3729
g17
I3
sg18
(lp3730
S'The'
p3731
aS'story'
p3732
aS'begins'
p3733
aS'with'
p3734
aS'a'
p3735
aS'deceased'
p3736
aS'woman'
p3737
aS"'s"
p3738
aS'body'
p3739
aS'laying'
p3740
aS'peacefully'
p3741
aS'on'
p3742
aS'a'
p3743
aS'bed'
p3744
aS'.'
p3745
asg39
(lp3746
VThe
p3747
aVstory
p3748
aVbegin
p3749
aVwith
p3750
ag49
aVdecease
p3751
aVwoman
p3752
aV's
p3753
aVbody
p3754
aVlaying
p3755
aVpeacefully
p3756
aVon
p3757
ag49
aVbed
p3758
ag56
asg57
(lp3759
g59
ag59
ag59
ag59
ag59
ag59
ag59
ag59
ag59
ag59
ag59
ag59
ag59
ag59
ag59
asg60
(lp3760
g62
ag63
ag157
ag66
ag62
ag65
ag63
ag602
ag63
ag63
ag68
ag66
ag62
ag65
ag72
asg73
VThe story begins with a deceased woman's body laying peacefully on a bed.
p3761
sba(i__main__
Sentence
p3762
(dp3763
g17
I4
sg18
(lp3764
S'The'
p3765
aS'words'
p3766
aS'used'
p3767
aS'to'
p3768
aS'describe'
p3769
aS'her'
p3770
aS'body'
p3771
aS'create'
p3772
aS'a'
p3773
aS'likeness'
p3774
aS'for'
p3775
aS'the'
p3776
aS'older'
p3777
aS'woman'
p3778
aS','
p3779
aS'including'
p3780
aS'``'
p3781
aS'sweet'
p3782
aS'soul'
p3783
aS"''"
p3784
aS'and'
p3785
aS'``'
p3786
aS'blameless'
p3787
aS'.'
p3788
aS"''"
p3789
asg39
(lp3790
VThe
p3791
aVword
p3792
aVuse
p3793
aVto
p3794
aVdescribe
p3795
aVher
p3796
aVbody
p3797
aVcreate
p3798
ag49
aVlikeness
p3799
aVfor
p3800
aVthe
p3801
aVold
p3802
aVwoman
p3803
ag47
aVinclude
p3804
aV``
p3805
aVsweet
p3806
aVsoul
p3807
aV''
p3808
aVand
p3809
aV``
p3810
aVblameless
p3811
ag56
aV''
p3812
asg57
(lp3813
g59
ag59
ag59
ag59
ag59
ag59
ag59
ag59
ag59
ag59
ag59
ag59
ag59
ag59
ag59
ag59
ag59
ag59
ag59
ag59
ag59
ag59
ag59
ag59
ag59
asg60
(lp3814
g62
ag155
ag65
ag692
ag70
ag154
ag63
ag63
ag62
ag63
ag66
ag62
ag1152
ag63
ag67
ag153
ag923
ag71
ag63
ag956
ag262
ag923
ag63
ag72
ag956
asg73
VThe words used to describe her body create a likeness for the older woman, including "sweet soul" and "blameless."
p3815
sba(i__main__
Sentence
p3816
(dp3817
g17
I5
sg18
(lp3818
S'In'
p3819
aS'the'
p3820
aS'room'
p3821
aS'with'
p3822
aS'her'
p3823
aS'are'
p3824
aS'her'
p3825
aS'two'
p3826
aS'adult'
p3827
aS'children'
p3828
aS':'
p3829
aS'her'
p3830
aS'son'
p3831
aS','
p3832
aS'a'
p3833
aS'judge'
p3834
aS','
p3835
aS'and'
p3836
aS'her'
p3837
aS'daughter'
p3838
aS','
p3839
aS'a'
p3840
aS'nun'
p3841
aS'.'
p3842
asg39
(lp3843
VIn
p3844
aVthe
p3845
aVroom
p3846
aVwith
p3847
aVher
p3848
ag2172
aVher
p3849
aVtwo
p3850
aVadult
p3851
ag919
ag914
aVher
p3852
aVson
p3853
ag47
ag49
aVjudge
p3854
ag47
aVand
p3855
aVher
p3856
aVdaughter
p3857
ag47
ag49
aVnun
p3858
ag56
asg57
(lp3859
g59
ag59
ag59
ag59
ag59
ag59
ag59
ag59
ag59
ag59
ag59
ag59
ag59
ag59
ag59
ag59
ag59
ag59
ag59
ag59
ag59
ag59
ag59
ag59
asg60
(lp3860
g66
ag62
ag63
ag66
ag154
ag694
ag152
ag259
ag63
ag155
ag693
ag152
ag63
ag67
ag62
ag63
ag67
ag262
ag154
ag63
ag67
ag62
ag63
ag72
asg73
VIn the room with her are her two adult children: her son, a judge, and her daughter, a nun.
p3861
sba(i__main__
Sentence
p3862
(dp3863
g17
I6
sg18
(lp3864
S'The'
p3865
aS'reader'
p3866
aS'learns'
p3867
aS'of'
p3868
aS'the'
p3869
aS'strong'
p3870
aS'connection'
p3871
aS'among'
p3872
aS'the'
p3873
aS'three'
p3874
aS'.'
p3875
asg39
(lp3876
VThe
p3877
aVreader
p3878
aVlearn
p3879
aVof
p3880
aVthe
p3881
aVstrong
p3882
aVconnection
p3883
aVamong
p3884
aVthe
p3885
aVthree
p3886
ag56
asg57
(lp3887
g59
ag59
ag59
ag59
ag59
ag59
ag59
ag59
ag59
ag59
ag59
asg60
(lp3888
g62
ag63
ag157
ag66
ag62
ag71
ag63
ag66
ag62
ag259
ag72
asg73
VThe reader learns of the strong connection among the three.
p3889
sba(i__main__
Sentence
p3890
(dp3891
g17
I7
sg18
(lp3892
S'The'
p3893
aS'children'
p3894
aS'barely'
p3895
aS'knew'
p3896
aS'their'
p3897
aS'father'
p3898
aS'and'
p3899
aS'were'
p3900
aS'taught'
p3901
aS'high'
p3902
aS'morals'
p3903
aS'by'
p3904
aS'their'
p3905
aS'mother'
p3906
aS'.'
p3907
asg39
(lp3908
VThe
p3909
ag919
aVbarely
p3910
ag2292
aVtheir
p3911
aVfather
p3912
aVand
p3913
ag319
aVteach
p3914
aVhigh
p3915
aVmoral
p3916
aVby
p3917
aVtheir
p3918
aVmother
p3919
ag56
asg57
(lp3920
g59
ag59
ag59
ag59
ag59
ag59
ag59
ag59
ag59
ag59
ag59
ag59
ag59
ag59
ag59
asg60
(lp3921
g62
ag155
ag68
ag64
ag154
ag63
ag262
ag64
ag65
ag71
ag155
ag66
ag154
ag63
ag72
asg73
VThe children barely knew their father and were taught high morals by their mother.
p3922
sba(i__main__
Sentence
p3923
(dp3924
g17
I8
sg18
(lp3925
S'The'
p3926
aS'background'
p3927
aS'is'
p3928
aS'now'
p3929
aS'set'
p3930
aS'for'
p3931
aS'the'
p3932
aS'reader'
p3933
aS'as'
p3934
aS'a'
p3935
aS'tightly-knit'
p3936
aS'family'
p3937
aS'of'
p3938
aS'high'
p3939
aS'moral'
p3940
aS'values'
p3941
aS'.'
p3942
asg39
(lp3943
VThe
p3944
aVbackground
p3945
ag878
aVnow
p3946
aVset
p3947
aVfor
p3948
aVthe
p3949
aVreader
p3950
ag49
ag49
aVtightly-knit
p3951
aVfamily
p3952
aVof
p3953
aVhigh
p3954
aVmoral
p3955
aVvalue
p3956
ag56
asg57
(lp3957
g59
ag59
ag59
ag59
ag59
ag59
ag59
ag59
ag59
ag59
ag59
ag59
ag59
ag59
ag59
ag59
ag59
asg60
(lp3958
g62
ag63
ag157
ag68
ag65
ag66
ag62
ag63
ag66
ag62
ag71
ag63
ag66
ag71
ag71
ag155
ag72
asg73
VThe background is now set for the reader as a tightly-knit family of high moral values.
p3959
sba(i__main__
Sentence
p3960
(dp3961
g17
I9
sg18
(lp3962
S'This'
p3963
aS'basis'
p3964
aS'will'
p3965
aS'be'
p3966
aS'key'
p3967
aS'to'
p3968
aS'enticing'
p3969
aS'feelings'
p3970
aS'of'
p3971
aS'shock'
p3972
aS'and'
p3973
aS'surprise'
p3974
aS'in'
p3975
aS'the'
p3976
aS'reader'
p3977
aS'later'
p3978
aS'in'
p3979
aS'the'
p3980
aS'story'
p3981
aS'when'
p3982
aS'the'
p3983
aS'children'
p3984
aS'learn'
p3985
aS'of'
p3986
aS'love'
p3987
aS'letters'
p3988
aS'addressed'
p3989
aS'to'
p3990
aS'their'
p3991
aS'mother'
p3992
aS'.'
p3993
asg39
(lp3994
VThis
p3995
aVbasis
p3996
aVwill
p3997
aVbe
p3998
aVkey
p3999
aVto
p4000
aVenticing
p4001
aVfeeling
p4002
aVof
p4003
aVshock
p4004
aVand
p4005
aVsurprise
p4006
aVin
p4007
aVthe
p4008
aVreader
p4009
aVlate
p4010
aVin
p4011
aVthe
p4012
aVstory
p4013
aVwhen
p4014
aVthe
p4015
ag919
aVlearn
p4016
aVof
p4017
aVlove
p4018
aVletter
p4019
aVaddress
p4020
aVto
p4021
aVtheir
p4022
aVmother
p4023
ag56
asg57
(lp4024
g59
ag59
ag59
ag59
ag59
ag59
ag59
ag59
ag59
ag59
ag59
ag59
ag59
ag59
ag59
ag59
ag59
ag59
ag59
ag59
ag59
ag59
ag59
ag59
ag59
ag59
ag59
ag59
ag59
ag59
ag59
asg60
(lp4025
g62
ag63
ag69
ag70
ag71
ag692
ag63
ag155
ag66
ag63
ag262
ag63
ag66
ag62
ag63
ag71
ag66
ag62
ag63
ag261
ag62
ag155
ag694
ag66
ag63
ag155
ag65
ag692
ag154
ag63
ag72
asg73
VThis basis will be key to enticing feelings of shock and surprise in the reader later in the story when the children learn of love letters addressed to their mother.
p4026
sba(i__main__
Sentence
p4027
(dp4028
g17
I10
sg18
(lp4029
S'A'
p4030
aS'priest'
p4031
aS'enters'
p4032
aS'the'
p4033
aS'room'
p4034
aS'and'
p4035
aS'offers'
p4036
aS'his'
p4037
aS'company'
p4038
aS'to'
p4039
aS'the'
p4040
aS'grieving'
p4041
aS'children'
p4042
aS','
p4043
aS'who'
p4044
aS'explain'
p4045
aS'they'
p4046
aS'would'
p4047
aS'prefer'
p4048
aS'to'
p4049
aS'be'
p4050
aS'alone'
p4051
aS'.'
p4052
asg39
(lp4053
g729
aVpriest
p4054
aVenter
p4055
aVthe
p4056
aVroom
p4057
aVand
p4058
aVoffer
p4059
aVhis
p4060
aVcompany
p4061
aVto
p4062
aVthe
p4063
aVgrieving
p4064
ag919
ag47
aVwho
p4065
aVexplain
p4066
aVthey
p4067
aVwould
p4068
aVprefer
p4069
aVto
p4070
aVbe
p4071
aValone
p4072
ag56
asg57
(lp4073
g59
ag59
ag59
ag59
ag59
ag59
ag59
ag59
ag59
ag59
ag59
ag59
ag59
ag59
ag59
ag59
ag59
ag59
ag59
ag59
ag59
ag59
ag59
asg60
(lp4074
g62
ag63
ag157
ag62
ag63
ag262
ag155
ag154
ag63
ag692
ag62
ag63
ag155
ag67
ag260
ag68
ag152
ag69
ag70
ag692
ag70
ag68
ag72
asg73
VA priest enters the room and offers his company to the grieving children, who explain they would prefer to be alone.
p4075
sba(i__main__
Sentence
p4076
(dp4077
g17
I11
sg18
(lp4078
S'Again'
p4079
aS','
p4080
aS'this'
p4081
aS'is'
p4082
aS'reference'
p4083
aS'to'
p4084
aS'the'
p4085
aS'strong'
p4086
aS'family'
p4087
aS'bond'
p4088
aS'.'
p4089
asg39
(lp4090
VAgain
p4091
ag47
aVthis
p4092
ag878
aVreference
p4093
aVto
p4094
aVthe
p4095
aVstrong
p4096
aVfamily
p4097
aVbond
p4098
ag56
asg57
(lp4099
g59
ag59
ag59
ag59
ag59
ag59
ag59
ag59
ag59
ag59
ag59
asg60
(lp4100
g68
ag67
ag62
ag157
ag63
ag692
ag62
ag71
ag63
ag63
ag72
asg73
VAgain, this is reference to the strong family bond.
p4101
sba(i__main__
Sentence
p4102
(dp4103
g17
I12
sg18
(lp4104
S'The'
p4105
aS'grieving'
p4106
aS'period'
p4107
aS'of'
p4108
aS'the'
p4109
aS'children'
p4110
aS'follows'
p4111
aS','
p4112
aS'turning'
p4113
aS'from'
p4114
aS'silence'
p4115
aS'to'
p4116
aS'cries'
p4117
aS'out'
p4118
aS'in'
p4119
aS'grief'
p4120
aS'.'
p4121
asg39
(lp4122
VThe
p4123
aVgrieving
p4124
aVperiod
p4125
aVof
p4126
aVthe
p4127
ag919
aVfollow
p4128
ag47
aVturn
p4129
aVfrom
p4130
aVsilence
p4131
aVto
p4132
aVcry
p4133
aVout
p4134
aVin
p4135
aVgrief
p4136
ag56
asg57
(lp4137
g59
ag59
ag59
ag59
ag59
ag59
ag59
ag59
ag59
ag59
ag59
ag59
ag59
ag59
ag59
ag59
ag59
asg60
(lp4138
g62
ag63
ag63
ag66
ag62
ag155
ag157
ag67
ag153
ag66
ag63
ag692
ag155
ag66
ag66
ag63
ag72
asg73
VThe grieving period of the children follows, turning from silence to cries out in grief.
p4139
sba(i__main__
Sentence
p4140
(dp4141
g17
I13
sg18
(lp4142
S'The'
p4143
aS'daughter'
p4144
aS'even'
p4145
aS'knocks'
p4146
aS'her'
p4147
aS'head'
p4148
aS'against'
p4149
aS'the'
p4150
aS'woodwork'
p4151
aS'of'
p4152
aS'the'
p4153
aS'bed'
p4154
aS'in'
p4155
aS'her'
p4156
aS'sadness'
p4157
aS'.'
p4158
asg39
(lp4159
VThe
p4160
aVdaughter
p4161
aVeven
p4162
aVknock
p4163
aVher
p4164
aVhead
p4165
aVagainst
p4166
aVthe
p4167
aVwoodwork
p4168
aVof
p4169
aVthe
p4170
aVbed
p4171
aVin
p4172
aVher
p4173
aVsadness
p4174
ag56
asg57
(lp4175
g59
ag59
ag59
ag59
ag59
ag59
ag59
ag59
ag59
ag59
ag59
ag59
ag59
ag59
ag59
ag59
asg60
(lp4176
g62
ag63
ag68
ag157
ag154
ag63
ag66
ag62
ag63
ag66
ag62
ag65
ag66
ag154
ag63
ag72
asg73
VThe daughter even knocks her head against the woodwork of the bed in her sadness.
p4177
sba(i__main__
Sentence
p4178
(dp4179
g17
I14
sg18
(lp4180
S'The'
p4181
aS'daughter'
p4182
aS'suggests'
p4183
aS'reading'
p4184
aS'their'
p4185
aS'mother'
p4186
aS"'s"
p4187
aS'letters'
p4188
aS'which'
p4189
aS'are'
p4190
aS'kept'
p4191
aS'in'
p4192
aS'a'
p4193
aS'drawer'
p4194
aS'in'
p4195
aS'the'
p4196
aS'room'
p4197
aS'.'
p4198
asg39
(lp4199
VThe
p4200
aVdaughter
p4201
aVsuggest
p4202
aVreading
p4203
aVtheir
p4204
aVmother
p4205
aV's
p4206
aVletter
p4207
aVwhich
p4208
ag2172
ag3017
aVin
p4209
ag49
aVdrawer
p4210
aVin
p4211
aVthe
p4212
aVroom
p4213
ag56
asg57
(lp4214
g59
ag59
ag59
ag59
ag59
ag59
ag59
ag59
ag59
ag59
ag59
ag59
ag59
ag59
ag59
ag59
ag59
ag59
asg60
(lp4215
g62
ag63
ag157
ag63
ag154
ag63
ag602
ag155
ag437
ag694
ag64
ag66
ag62
ag63
ag66
ag62
ag63
ag72
asg73
VThe daughter suggests reading their mother's letters which are kept in a drawer in the room.
p4216
sba(i__main__
Sentence
p4217
(dp4218
g17
I15
sg18
(lp4219
S'Their'
p4220
aS'mother'
p4221
aS'used'
p4222
aS'to'
p4223
aS'read'
p4224
aS'letters'
p4225
aS'aloud'
p4226
aS'to'
p4227
aS'them'
p4228
aS';'
p4229
aS'the'
p4230
aS'daughter'
p4231
aS'wants'
p4232
aS'to'
p4233
aS'relive'
p4234
aS'the'
p4235
aS'old'
p4236
aS'woman'
p4237
aS"'s"
p4238
aS'life'
p4239
aS'through'
p4240
aS'the'
p4241
aS'words'
p4242
aS'and'
p4243
aS'also'
p4244
aS'learn'
p4245
aS'more'
p4246
aS'of'
p4247
aS'her'
p4248
aS'past'
p4249
aS'.'
p4250
asg39
(lp4251
VTheir
p4252
aVmother
p4253
aVuse
p4254
aVto
p4255
aVread
p4256
aVletter
p4257
aValoud
p4258
aVto
p4259
aVthem
p4260
ag673
aVthe
p4261
aVdaughter
p4262
aVwant
p4263
aVto
p4264
aVrelive
p4265
aVthe
p4266
aVold
p4267
aVwoman
p4268
aV's
p4269
aVlife
p4270
aVthrough
p4271
aVthe
p4272
aVword
p4273
aVand
p4274
aValso
p4275
aVlearn
p4276
aVmore
p4277
aVof
p4278
aVher
p4279
aVpast
p4280
ag56
asg57
(lp4281
g59
ag59
ag59
ag59
ag59
ag59
ag59
ag59
ag59
ag59
ag59
ag59
ag59
ag59
ag59
ag59
ag59
ag59
ag59
ag59
ag59
ag59
ag59
ag59
ag59
ag59
ag59
ag59
ag59
ag59
ag59
asg60
(lp4282
g154
ag63
ag65
ag692
ag70
ag155
ag65
ag692
ag152
ag693
ag62
ag63
ag157
ag692
ag70
ag62
ag71
ag63
ag602
ag63
ag66
ag62
ag155
ag262
ag68
ag70
ag1152
ag66
ag154
ag63
ag72
asg73
VTheir mother used to read letters aloud to them; the daughter wants to relive the old woman's life through the words and also learn more of her past.
p4283
sba(i__main__
Sentence
p4284
(dp4285
g17
I16
sg18
(lp4286
S'She'
p4287
aS'begins'
p4288
aS'with'
p4289
aS'the'
p4290
aS'package'
p4291
aS'labeled'
p4292
aS'``'
p4293
aS'Father'
p4294
aS"''"
p4295
aS'and'
p4296
aS'reads'
p4297
aS'aloud'
p4298
aS'to'
p4299
aS'the'
p4300
aS'body'
p4301
aS'as'
p4302
aS'her'
p4303
aS'brother'
p4304
aS'listens'
p4305
aS'.'
p4306
asg39
(lp4307
VShe
p4308
aVbegin
p4309
aVwith
p4310
aVthe
p4311
aVpackage
p4312
aVlabel
p4313
aV``
p4314
aVFather
p4315
aV''
p4316
aVand
p4317
aVread
p4318
aValoud
p4319
aVto
p4320
aVthe
p4321
aVbody
p4322
ag49
aVher
p4323
aVbrother
p4324
aVlistens
p4325
ag56
asg57
(lp4326
g59
ag59
ag59
ag59
ag59
ag59
ag59
ag59
ag59
ag59
ag59
ag59
ag59
ag59
ag59
ag59
ag59
ag59
ag59
ag59
asg60
(lp4327
g152
ag157
ag66
ag62
ag63
ag64
ag923
ag330
ag956
ag262
ag155
ag64
ag692
ag62
ag63
ag66
ag154
ag63
ag155
ag72
asg73
VShe begins with the package labeled "Father" and reads aloud to the body as her brother listens.
p4328
sba(i__main__
Sentence
p4329
(dp4330
g17
I17
sg18
(lp4331
S'The'
p4332
aS'second'
p4333
aS'package'
p4334
aS'is'
p4335
aS'unnamed'
p4336
aS','
p4337
aS'and'
p4338
aS'the'
p4339
aS'daughter'
p4340
aS'begins'
p4341
aS'to'
p4342
aS'read'
p4343
aS'a'
p4344
aS'letter'
p4345
aS'from'
p4346
aS'this'
p4347
aS'package'
p4348
aS'.'
p4349
asg39
(lp4350
VThe
p4351
aVsecond
p4352
aVpackage
p4353
ag878
aVunnamed
p4354
ag47
aVand
p4355
aVthe
p4356
aVdaughter
p4357
aVbegin
p4358
aVto
p4359
aVread
p4360
ag49
aVletter
p4361
aVfrom
p4362
aVthis
p4363
aVpackage
p4364
ag56
asg57
(lp4365
g59
ag59
ag59
ag59
ag59
ag59
ag59
ag59
ag59
ag59
ag59
ag59
ag59
ag59
ag59
ag59
ag59
ag59
asg60
(lp4366
g62
ag71
ag63
ag157
ag65
ag67
ag262
ag62
ag63
ag157
ag692
ag70
ag62
ag63
ag66
ag62
ag63
ag72
asg73
VThe second package is unnamed, and the daughter begins to read a letter from this package.
p4367
sba(i__main__
Sentence
p4368
(dp4369
g17
I18
sg18
(lp4370
S'The'
p4371
aS'paper'
p4372
aS'however'
p4373
aS'is'
p4374
aS'a'
p4375
aS'love'
p4376
aS'letter'
p4377
aS'to'
p4378
aS'their'
p4379
aS'mother'
p4380
aS'with'
p4381
aS'includes'
p4382
aS'statements'
p4383
aS'about'
p4384
aS'missing'
p4385
aS'her'
p4386
aS'body'
p4387
aS'and'
p4388
aS'touch'
p4389
aS'.'
p4390
asg39
(lp4391
VThe
p4392
aVpaper
p4393
aVhowever
p4394
ag878
ag49
aVlove
p4395
aVletter
p4396
aVto
p4397
aVtheir
p4398
aVmother
p4399
aVwith
p4400
aVincludes
p4401
aVstatement
p4402
aVabout
p4403
aVmiss
p4404
aVher
p4405
aVbody
p4406
aVand
p4407
aVtouch
p4408
ag56
asg57
(lp4409
g59
ag59
ag59
ag59
ag59
ag59
ag59
ag59
ag59
ag59
ag59
ag59
ag59
ag59
ag59
ag59
ag59
ag59
ag59
ag59
asg60
(lp4410
g62
ag63
ag68
ag157
ag62
ag63
ag63
ag692
ag154
ag63
ag66
ag155
ag155
ag66
ag153
ag152
ag63
ag262
ag71
ag72
asg73
VThe paper however is a love letter to their mother with includes statements about missing her body and touch.
p4411
sba(i__main__
Sentence
p4412
(dp4413
g17
I19
sg18
(lp4414
S'The'
p4415
aS'letter'
p4416
aS'is'
p4417
aS'signed'
p4418
aS'by'
p4419
aS'``'
p4420
aS'Henry'
p4421
aS"''"
p4422
aS','
p4423
aS'which'
p4424
aS'is'
p4425
aS'not'
p4426
aS'the'
p4427
aS'name'
p4428
aS'of'
p4429
aS'their'
p4430
aS'father'
p4431
aS'.'
p4432
asg39
(lp4433
VThe
p4434
aVletter
p4435
ag878
aVsign
p4436
aVby
p4437
aV``
p4438
aVHenry
p4439
aV''
p4440
ag47
aVwhich
p4441
ag878
aVnot
p4442
aVthe
p4443
aVname
p4444
aVof
p4445
aVtheir
p4446
aVfather
p4447
ag56
asg57
(lp4448
g59
ag59
ag59
ag59
ag59
ag59
ag59
ag59
ag59
ag59
ag59
ag59
ag59
ag59
ag59
ag59
ag59
ag59
asg60
(lp4449
g62
ag63
ag157
ag65
ag66
ag923
ag330
ag956
ag67
ag437
ag157
ag68
ag62
ag63
ag66
ag154
ag63
ag72
asg73
VThe letter is signed by "Henry", which is not the name of their father.
p4450
sba(i__main__
Sentence
p4451
(dp4452
g17
I20
sg18
(lp4453
S'The'
p4454
aS'two'
p4455
aS'children'
p4456
aS'are'
p4457
aS'speechless'
p4458
aS'.'
p4459
asg39
(lp4460
VThe
p4461
aVtwo
p4462
ag919
ag2172
aVspeechless
p4463
ag56
asg57
(lp4464
g59
ag59
ag59
ag59
ag59
ag59
asg60
(lp4465
g62
ag259
ag155
ag694
ag68
ag72
asg73
VThe two children are speechless.
p4466
sba(i__main__
Sentence
p4467
(dp4468
g17
I21
sg18
(lp4469
S'The'
p4470
aS'son'
p4471
aS'walks'
p4472
aS'to'
p4473
aS'the'
p4474
aS'window'
p4475
aS','
p4476
aS'and'
p4477
aS'the'
p4478
aS'daughter'
p4479
aS'is'
p4480
aS'on'
p4481
aS'the'
p4482
aS'verge'
p4483
aS'of'
p4484
aS'crying'
p4485
aS'.'
p4486
asg39
(lp4487
VThe
p4488
aVson
p4489
aVwalk
p4490
aVto
p4491
aVthe
p4492
aVwindow
p4493
ag47
aVand
p4494
aVthe
p4495
aVdaughter
p4496
ag878
aVon
p4497
aVthe
p4498
aVverge
p4499
aVof
p4500
aVcry
p4501
ag56
asg57
(lp4502
g59
ag59
ag59
ag59
ag59
ag59
ag59
ag59
ag59
ag59
ag59
ag59
ag59
ag59
ag59
ag59
ag59
asg60
(lp4503
g62
ag63
ag155
ag692
ag62
ag63
ag67
ag262
ag62
ag63
ag157
ag66
ag62
ag63
ag66
ag153
ag72
asg73
VThe son walks to the window, and the daughter is on the verge of crying.
p4504
sba(i__main__
Sentence
p4505
(dp4506
g17
I22
sg18
(lp4507
S'When'
p4508
aS'daylight'
p4509
aS'comes'
p4510
aS','
p4511
aS'the'
p4512
aS'son'
p4513
aS'starts'
p4514
aS'to'
p4515
aS'leave'
p4516
aS'the'
p4517
aS'room'
p4518
aS'and'
p4519
aS'says'
p4520
aS','
p4521
aS'without'
p4522
aS'looking'
p4523
aS'at'
p4524
aS'his'
p4525
aS'mother'
p4526
aS"'s"
p4527
aS'body'
p4528
aS','
p4529
aS'``'
p4530
aS'let'
p4531
aS'us'
p4532
aS'now'
p4533
aS'retire'
p4534
aS'sister'
p4535
aS'.'
p4536
aS"''"
p4537
asg39
(lp4538
VWhen
p4539
aVdaylight
p4540
aVcome
p4541
ag47
aVthe
p4542
aVson
p4543
aVstart
p4544
aVto
p4545
aVleave
p4546
aVthe
p4547
aVroom
p4548
aVand
p4549
aVsay
p4550
ag47
aVwithout
p4551
aVlook
p4552
aVat
p4553
aVhis
p4554
aVmother
p4555
aV's
p4556
aVbody
p4557
ag47
aV``
p4558
aVlet
p4559
ag1091
aVnow
p4560
aVretire
p4561
aVsister
p4562
ag56
aV''
p4563
asg57
(lp4564
g59
ag59
ag59
ag59
ag59
ag59
ag59
ag59
ag59
ag59
ag59
ag59
ag59
ag59
ag59
ag59
ag59
ag59
ag59
ag59
ag59
ag59
ag59
ag59
ag59
ag59
ag59
ag59
ag59
ag59
asg60
(lp4565
g261
ag64
ag157
ag67
ag62
ag63
ag157
ag692
ag70
ag62
ag63
ag262
ag157
ag67
ag66
ag153
ag66
ag154
ag63
ag602
ag63
ag67
ag923
ag70
ag152
ag68
ag694
ag63
ag72
ag956
asg73
VWhen daylight comes, the son starts to leave the room and says, without looking at his mother's body, "let us now retire sister."
p4566
sba(i__main__
Sentence
p4567
(dp4568
g17
I23
sg18
(lp4569
S'This'
p4570
aS'sentence'
p4571
aS'is'
p4572
aS'the'
p4573
aS'end'
p4574
aS'of'
p4575
aS'the'
p4576
aS'story'
p4577
aS'.'
p4578
asg39
(lp4579
VThis
p4580
aVsentence
p4581
ag878
aVthe
p4582
aVend
p4583
aVof
p4584
aVthe
p4585
aVstory
p4586
ag56
asg57
(lp4587
g59
ag59
ag59
ag59
ag59
ag59
ag59
ag59
ag59
asg60
(lp4588
g62
ag63
ag157
ag62
ag63
ag66
ag62
ag63
ag72
asg73
VThis sentence is the end of the story.
p4589
sba(i__main__
Sentence
p4590
(dp4591
g17
I24
sg18
(lp4592
S'Over'
p4593
aS'the'
p4594
aS'course'
p4595
aS'of'
p4596
aS'the'
p4597
aS'story'
p4598
aS'there'
p4599
aS'is'
p4600
aS'a'
p4601
aS'drastic'
p4602
aS'change'
p4603
aS'of'
p4604
aS'emotion'
p4605
aS'felt'
p4606
aS'by'
p4607
aS'the'
p4608
aS'son'
p4609
aS'toward'
p4610
aS'his'
p4611
aS'mother'
p4612
aS'.'
p4613
asg39
(lp4614
VOver
p4615
aVthe
p4616
aVcourse
p4617
aVof
p4618
aVthe
p4619
aVstory
p4620
aVthere
p4621
ag878
ag49
aVdrastic
p4622
aVchange
p4623
aVof
p4624
aVemotion
p4625
aVfelt
p4626
aVby
p4627
aVthe
p4628
aVson
p4629
aVtoward
p4630
aVhis
p4631
aVmother
p4632
ag56
asg57
(lp4633
g59
ag59
ag59
ag59
ag59
ag59
ag59
ag59
ag59
ag59
ag59
ag59
ag59
ag59
ag59
ag59
ag59
ag59
ag59
ag59
ag59
asg60
(lp4634
g66
ag62
ag63
ag66
ag62
ag63
ag68
ag157
ag62
ag71
ag63
ag66
ag63
ag64
ag66
ag62
ag63
ag66
ag154
ag63
ag72
asg73
VOver the course of the story there is a drastic change of emotion felt by the son toward his mother.
p4635
sba(i__main__
Sentence
p4636
(dp4637
g17
I25
sg18
(lp4638
S'At'
p4639
aS'the'
p4640
aS'conclusion'
p4641
aS','
p4642
aS'he'
p4643
aS'appears'
p4644
aS'angry'
p4645
aS'at'
p4646
aS'her'
p4647
aS'as'
p4648
aS'he'
p4649
aS'chooses'
p4650
aS'to'
p4651
aS'look'
p4652
aS'out'
p4653
aS'the'
p4654
aS'window'
p4655
aS'rather'
p4656
aS'than'
p4657
aS'at'
p4658
aS'her'
p4659
aS'body'
p4660
aS'.'
p4661
asg39
(lp4662
VAt
p4663
aVthe
p4664
aVconclusion
p4665
ag47
aVhe
p4666
aVappear
p4667
aVangry
p4668
aVat
p4669
aVher
p4670
ag49
aVhe
p4671
aVchoose
p4672
aVto
p4673
aVlook
p4674
aVout
p4675
aVthe
p4676
aVwindow
p4677
aVrather
p4678
aVthan
p4679
aVat
p4680
aVher
p4681
aVbody
p4682
ag56
asg57
(lp4683
g59
ag59
ag59
ag59
ag59
ag59
ag59
ag59
ag59
ag59
ag59
ag59
ag59
ag59
ag59
ag59
ag59
ag59
ag59
ag59
ag59
ag59
ag59
asg60
(lp4684
g66
ag62
ag63
ag67
ag152
ag157
ag71
ag66
ag154
ag66
ag152
ag157
ag692
ag70
ag156
ag62
ag63
ag68
ag66
ag66
ag154
ag63
ag72
asg73
VAt the conclusion, he appears angry at her as he chooses to look out the window rather than at her body.
p4685
sba(i__main__
Sentence
p4686
(dp4687
g17
I26
sg18
(lp4688
S'He'
p4689
aS'leaves'
p4690
aS'the'
p4691
aS'room'
p4692
aS'without'
p4693
aS'a'
p4694
aS'final'
p4695
aS'look'
p4696
aS'at'
p4697
aS'her'
p4698
aS'.'
p4699
asg39
(lp4700
VHe
p4701
aVleave
p4702
aVthe
p4703
aVroom
p4704
aVwithout
p4705
ag49
aVfinal
p4706
aVlook
p4707
aVat
p4708
aVher
p4709
ag56
asg57
(lp4710
g59
ag59
ag59
ag59
ag59
ag59
ag59
ag59
ag59
ag59
ag59
asg60
(lp4711
g152
ag157
ag62
ag63
ag66
ag62
ag71
ag63
ag66
ag154
ag72
asg73
VHe leaves the room without a final look at her.
p4712
sba(i__main__
Sentence
p4713
(dp4714
g17
I27
sg18
(lp4715
S'This'
p4716
aS'reaction'
p4717
aS'to'
p4718
aS'her'
p4719
aS'body'
p4720
aS'is'
p4721
aS'very'
p4722
aS'different'
p4723
aS'from'
p4724
aS'the'
p4725
aS'beginning'
p4726
aS','
p4727
aS'where'
p4728
aS'he'
p4729
aS'is'
p4730
aS'grief-stricken'
p4731
aS'and'
p4732
aS'wants'
p4733
aS'to'
p4734
aS'spend'
p4735
aS'time'
p4736
aS'with'
p4737
aS'his'
p4738
aS'mother'
p4739
aS'.'
p4740
asg39
(lp4741
VThis
p4742
aVreaction
p4743
aVto
p4744
aVher
p4745
aVbody
p4746
ag878
aVvery
p4747
aVdifferent
p4748
aVfrom
p4749
aVthe
p4750
aVbeginning
p4751
ag47
aVwhere
p4752
aVhe
p4753
ag878
aVgrief-stricken
p4754
aVand
p4755
aVwant
p4756
aVto
p4757
aVspend
p4758
aVtime
p4759
aVwith
p4760
aVhis
p4761
aVmother
p4762
ag56
asg57
(lp4763
g59
ag59
ag59
ag59
ag59
ag59
ag59
ag59
ag59
ag59
ag59
ag59
ag59
ag59
ag59
ag59
ag59
ag59
ag59
ag59
ag59
ag59
ag59
ag59
ag59
asg60
(lp4764
g62
ag63
ag692
ag154
ag63
ag157
ag68
ag71
ag66
ag62
ag63
ag67
ag261
ag152
ag157
ag71
ag262
ag155
ag692
ag70
ag63
ag66
ag154
ag63
ag72
asg73
VThis reaction to her body is very different from the beginning, where he is grief-stricken and wants to spend time with his mother.
p4765
sba(i__main__
Sentence
p4766
(dp4767
g17
I28
sg18
(lp4768
S'Indeed'
p4769
aS','
p4770
aS'he'
p4771
aS'even'
p4772
aS'tells'
p4773
aS'a'
p4774
aS'priest'
p4775
aS'he'
p4776
aS'wants'
p4777
aS'time'
p4778
aS'alone'
p4779
aS'with'
p4780
aS'his'
p4781
aS'family'
p4782
aS'.'
p4783
asg39
(lp4784
VIndeed
p4785
ag47
aVhe
p4786
aVeven
p4787
aVtell
p4788
ag49
aVpriest
p4789
aVhe
p4790
aVwant
p4791
aVtime
p4792
aValone
p4793
aVwith
p4794
aVhis
p4795
aVfamily
p4796
ag56
asg57
(lp4797
g59
ag59
ag59
ag59
ag59
ag59
ag59
ag59
ag59
ag59
ag59
ag59
ag59
ag59
ag59
asg60
(lp4798
g68
ag67
ag152
ag68
ag157
ag62
ag63
ag152
ag157
ag63
ag68
ag66
ag154
ag63
ag72
asg73
VIndeed, he even tells a priest he wants time alone with his family.
p4799
sba(i__main__
Sentence
p4800
(dp4801
g17
I29
sg18
(lp4802
S'His'
p4803
aS'reaction'
p4804
aS'to'
p4805
aS'learning'
p4806
aS'of'
p4807
aS'his'
p4808
aS'mother'
p4809
aS"'s"
p4810
aS'secret'
p4811
aS'by'
p4812
aS'turning'
p4813
aS'away'
p4814
aS'is'
p4815
aS'an'
p4816
aS'example'
p4817
aS'of'
p4818
aS'how'
p4819
aS'some'
p4820
aS'people'
p4821
aS'feel'
p4822
aS'it'
p4823
aS'is'
p4824
aS'easier'
p4825
aS'to'
p4826
aS'get'
p4827
aS'through'
p4828
aS'a'
p4829
aS'difficult'
p4830
aS'situation'
p4831
aS'by'
p4832
aS'turning'
p4833
aS'your'
p4834
aS'back'
p4835
aS'and'
p4836
aS'leaving'
p4837
aS'without'
p4838
aS'further'
p4839
aS'discussion'
p4840
aS'.'
p4841
asg39
(lp4842
VHis
p4843
aVreaction
p4844
aVto
p4845
aVlearning
p4846
aVof
p4847
aVhis
p4848
aVmother
p4849
aV's
p4850
aVsecret
p4851
aVby
p4852
aVturning
p4853
aVaway
p4854
ag878
aVan
p4855
aVexample
p4856
aVof
p4857
aVhow
p4858
aVsome
p4859
aVpeople
p4860
aVfeel
p4861
aVit
p4862
ag878
aVeasy
p4863
aVto
p4864
aVget
p4865
aVthrough
p4866
ag49
aVdifficult
p4867
aVsituation
p4868
aVby
p4869
aVturning
p4870
aVyour
p4871
aVback
p4872
aVand
p4873
aVleave
p4874
aVwithout
p4875
aVfurther
p4876
aVdiscussion
p4877
ag56
asg57
(lp4878
g59
ag59
ag59
ag59
ag59
ag59
ag59
ag59
ag59
ag59
ag59
ag59
ag59
ag59
ag59
ag59
ag59
ag59
ag59
ag59
ag59
ag59
ag59
ag59
ag59
ag59
ag59
ag59
ag59
ag59
ag59
ag59
ag59
ag59
ag59
ag59
ag59
ag59
ag59
asg60
(lp4879
g154
ag63
ag692
ag63
ag66
ag154
ag63
ag602
ag63
ag66
ag63
ag68
ag157
ag62
ag63
ag66
ag261
ag62
ag155
ag694
ag152
ag157
ag1152
ag692
ag70
ag66
ag62
ag71
ag63
ag66
ag63
ag154
ag63
ag262
ag153
ag66
ag71
ag63
ag72
asg73
VHis reaction to learning of his mother's secret by turning away is an example of how some people feel it is easier to get through a difficult situation by turning your back and leaving without further discussion.
p4880
sba(i__main__
Sentence
p4881
(dp4882
g17
I30
sg18
(lp4883
S'His'
p4884
aS'reaction'
p4885
aS'is'
p4886
aS'different'
p4887
aS'from'
p4888
aS'his'
p4889
aS'sister'
p4890
aS"'s"
p4891
aS'response'
p4892
aS'to'
p4893
aS'learning'
p4894
aS'of'
p4895
aS'their'
p4896
aS'mother'
p4897
aS"'s"
p4898
aS'secret'
p4899
aS'.'
p4900
asg39
(lp4901
VHis
p4902
aVreaction
p4903
ag878
aVdifferent
p4904
aVfrom
p4905
aVhis
p4906
aVsister
p4907
aV's
p4908
aVresponse
p4909
aVto
p4910
aVlearning
p4911
aVof
p4912
aVtheir
p4913
aVmother
p4914
aV's
p4915
aVsecret
p4916
ag56
asg57
(lp4917
g59
ag59
ag59
ag59
ag59
ag59
ag59
ag59
ag59
ag59
ag59
ag59
ag59
ag59
ag59
ag59
ag59
asg60
(lp4918
g154
ag63
ag157
ag71
ag66
ag154
ag63
ag602
ag63
ag692
ag63
ag66
ag154
ag63
ag602
ag63
ag72
asg73
VHis reaction is different from his sister's response to learning of their mother's secret.
p4919
sba(i__main__
Sentence
p4920
(dp4921
g17
I31
sg18
(lp4922
S'She'
p4923
aS'does'
p4924
aS'not'
p4925
aS'turn'
p4926
aS'away'
p4927
aS'from'
p4928
aS'the'
p4929
aS'body'
p4930
aS','
p4931
aS'and'
p4932
aS'says'
p4933
aS'very'
p4934
aS'little'
p4935
aS'.'
p4936
asg39
(lp4937
VShe
p4938
aVdo
p4939
aVnot
p4940
aVturn
p4941
aVaway
p4942
aVfrom
p4943
aVthe
p4944
aVbody
p4945
ag47
aVand
p4946
aVsay
p4947
aVvery
p4948
aVlittle
p4949
ag56
asg57
(lp4950
g59
ag59
ag59
ag59
ag59
ag59
ag59
ag59
ag59
ag59
ag59
ag59
ag59
ag59
asg60
(lp4951
g152
ag157
ag68
ag70
ag68
ag66
ag62
ag63
ag67
ag262
ag157
ag68
ag71
ag72
asg73
VShe does not turn away from the body, and says very little.
p4952
sba(i__main__
Sentence
p4953
(dp4954
g17
I32
sg18
(lp4955
S'Perhaps'
p4956
aS'de'
p4957
aS'Maupassant'
p4958
aS'wants'
p4959
aS'the'
p4960
aS'reader'
p4961
aS'to'
p4962
aS'imagine'
p4963
aS'how'
p4964
aS'she'
p4965
aS'is'
p4966
aS'feeling'
p4967
aS','
p4968
aS'or'
p4969
aS'is'
p4970
aS'alluding'
p4971
aS'to'
p4972
aS'the'
p4973
aS'shock'
p4974
aS'felt'
p4975
aS'by'
p4976
aS'the'
p4977
aS'daughter'
p4978
aS'to'
p4979
aS'the'
p4980
aS'point'
p4981
aS'that'
p4982
aS'she'
p4983
aS'does'
p4984
aS'not'
p4985
aS'speak'
p4986
aS'at'
p4987
aS'the'
p4988
aS'end'
p4989
aS'of'
p4990
aS'the'
p4991
aS'story'
p4992
aS'.'
p4993
asg39
(lp4994
VPerhaps
p4995
aVde
p4996
aVMaupassant
p4997
aVwant
p4998
aVthe
p4999
aVreader
p5000
aVto
p5001
aVimagine
p5002
aVhow
p5003
aVshe
p5004
ag878
aVfeel
p5005
ag47
aVor
p5006
ag878
aVallude
p5007
aVto
p5008
aVthe
p5009
aVshock
p5010
aVfelt
p5011
aVby
p5012
aVthe
p5013
aVdaughter
p5014
aVto
p5015
aVthe
p5016
aVpoint
p5017
aVthat
p5018
aVshe
p5019
aVdo
p5020
aVnot
p5021
aVspeak
p5022
aVat
p5023
aVthe
p5024
aVend
p5025
aVof
p5026
aVthe
p5027
aVstory
p5028
ag56
asg57
(lp5029
g59
aVPERSON
p5030
aVPERSON
p5031
ag59
ag59
ag59
ag59
ag59
ag59
ag59
ag59
ag59
ag59
ag59
ag59
ag59
ag59
ag59
ag59
ag59
ag59
ag59
ag59
ag59
ag59
ag59
ag59
ag59
ag59
ag59
ag59
ag59
ag59
ag59
ag59
ag59
ag59
ag59
asg60
(lp5032
g68
ag694
ag330
ag155
ag62
ag63
ag692
ag70
ag261
ag152
ag157
ag153
ag67
ag262
ag157
ag153
ag692
ag62
ag63
ag64
ag66
ag62
ag63
ag692
ag62
ag63
ag66
ag152
ag157
ag68
ag70
ag66
ag62
ag63
ag66
ag62
ag63
ag72
asg73
VPerhaps de Maupassant wants the reader to imagine how she is feeling, or is alluding to the shock felt by the daughter to the point that she does not speak at the end of the story.
p5033
sba(i__main__
Sentence
p5034
(dp5035
g17
I33
sg18
(lp5036
S'De'
p5037
aS'Maupassant'
p5038
aS'may'
p5039
aS'also'
p5040
aS'be'
p5041
aS'pointing'
p5042
aS'out'
p5043
aS'men'
p5044
aS'and'
p5045
aS'women'
p5046
aS'can'
p5047
aS'react'
p5048
aS'differently'
p5049
aS'in'
p5050
aS'times'
p5051
aS'of'
p5052
aS'turmoil'
p5053
aS'.'
p5054
asg39
(lp5055
VDe
p5056
aVMaupassant
p5057
aVmay
p5058
aValso
p5059
aVbe
p5060
aVpoint
p5061
aVout
p5062
aVmen
p5063
aVand
p5064
aVwoman
p5065
aVcan
p5066
aVreact
p5067
aVdifferently
p5068
aVin
p5069
aVtime
p5070
aVof
p5071
aVturmoil
p5072
ag56
asg57
(lp5073
VPERSON
p5074
aVPERSON
p5075
ag59
ag59
ag59
ag59
ag59
ag59
ag59
ag59
ag59
ag59
ag59
ag59
ag59
ag59
ag59
ag59
asg60
(lp5076
g330
ag330
ag69
ag68
ag70
ag153
ag156
ag155
ag262
ag155
ag69
ag70
ag68
ag66
ag155
ag66
ag63
ag72
asg73
VDe Maupassant may also be pointing out men and women can react differently in times of turmoil.
p5077
sba(i__main__
Sentence
p5078
(dp5079
g17
I34
sg18
(lp5080
S'Shock'
p5081
aS'is'
p5082
aS'indeed'
p5083
aS'felt'
p5084
aS'by'
p5085
aS'the'
p5086
aS'reader'
p5087
aS'as'
p5088
aS'the'
p5089
aS'love'
p5090
aS'letter'
p5091
aS'written'
p5092
aS'by'
p5093
aS'``'
p5094
aS'Henry'
p5095
aS"''"
p5096
aS'is'
p5097
aS'described'
p5098
aS'.'
p5099
asg39
(lp5100
VShock
p5101
ag878
aVindeed
p5102
aVfelt
p5103
aVby
p5104
aVthe
p5105
aVreader
p5106
ag49
aVthe
p5107
aVlove
p5108
aVletter
p5109
ag2411
aVby
p5110
aV``
p5111
aVHenry
p5112
aV''
p5113
ag878
aVdescribe
p5114
ag56
asg57
(lp5115
g59
ag59
ag59
ag59
ag59
ag59
ag59
ag59
ag59
ag59
ag59
ag59
ag59
ag59
aVPERSON
p5116
ag59
ag59
ag59
ag59
asg60
(lp5117
g330
ag157
ag65
ag63
ag66
ag62
ag63
ag66
ag62
ag63
ag63
ag65
ag66
ag923
ag330
ag956
ag157
ag65
ag72
asg73
VShock is indeed felt by the reader as the love letter written by "Henry" is described.
p5118
sba(i__main__
Sentence
p5119
(dp5120
g17
I35
sg18
(lp5121
S'The'
p5122
aS'affair'
p5123
aS'by'
p5124
aS'the'
p5125
aS'now'
p5126
aS'deceased'
p5127
aS'woman'
p5128
aS'sharply'
p5129
aS'contrasts'
p5130
aS'the'
p5131
aS'seemingly'
p5132
aS'moral'
p5133
aS'family'
p5134
aS'portrayal'
p5135
aS'at'
p5136
aS'the'
p5137
aS'start'
p5138
aS'of'
p5139
aS'the'
p5140
aS'story'
p5141
aS'.'
p5142
asg39
(lp5143
VThe
p5144
aVaffair
p5145
aVby
p5146
aVthe
p5147
aVnow
p5148
aVdecease
p5149
aVwoman
p5150
aVsharply
p5151
aVcontrast
p5152
aVthe
p5153
aVseemingly
p5154
aVmoral
p5155
aVfamily
p5156
aVportrayal
p5157
aVat
p5158
aVthe
p5159
aVstart
p5160
aVof
p5161
aVthe
p5162
aVstory
p5163
ag56
asg57
(lp5164
g59
ag59
ag59
ag59
ag59
ag59
ag59
ag59
ag59
ag59
ag59
ag59
ag59
ag59
ag59
ag59
ag59
ag59
ag59
ag59
ag59
asg60
(lp5165
g62
ag63
ag66
ag62
ag68
ag65
ag63
ag68
ag157
ag62
ag68
ag71
ag63
ag63
ag66
ag62
ag63
ag66
ag62
ag63
ag72
asg73
VThe affair by the now deceased woman sharply contrasts the seemingly moral family portrayal at the start of the story.
p5166
sba(i__main__
Sentence
p5167
(dp5168
g17
I36
sg18
(lp5169
S'Questions'
p5170
aS'are'
p5171
aS'raised'
p5172
aS'about'
p5173
aS'morals'
p5174
aS'and'
p5175
aS'secrecy'
p5176
aS'.'
p5177
asg39
(lp5178
VQuestions
p5179
ag2172
aVraise
p5180
aVabout
p5181
aVmoral
p5182
aVand
p5183
aVsecrecy
p5184
ag56
asg57
(lp5185
g59
ag59
ag59
ag59
ag59
ag59
ag59
ag59
asg60
(lp5186
g155
ag694
ag65
ag66
ag155
ag262
ag63
ag72
asg73
VQuestions are raised about morals and secrecy.
p5187
sba(i__main__
Sentence
p5188
(dp5189
g17
I37
sg18
(lp5190
S'For'
p5191
aS'instance'
p5192
aS','
p5193
aS'what'
p5194
aS'do'
p5195
aS'the'
p5196
aS'son'
p5197
aS','
p5198
aS'a'
p5199
aS'judge'
p5200
aS','
p5201
aS'and'
p5202
aS'the'
p5203
aS'daughter'
p5204
aS','
p5205
aS'a'
p5206
aS'nun'
p5207
aS','
p5208
aS'do'
p5209
aS'with'
p5210
aS'the'
p5211
aS'information'
p5212
aS'they'
p5213
aS'have'
p5214
aS'learned'
p5215
aS'about'
p5216
aS'their'
p5217
aS'mother'
p5218
aS"'s"
p5219
aS'love'
p5220
aS'affair'
p5221
aS'?'
p5222
asg39
(lp5223
VFor
p5224
aVinstance
p5225
ag47
aVwhat
p5226
aVdo
p5227
aVthe
p5228
aVson
p5229
ag47
ag49
aVjudge
p5230
ag47
aVand
p5231
aVthe
p5232
aVdaughter
p5233
ag47
ag49
aVnun
p5234
ag47
aVdo
p5235
aVwith
p5236
aVthe
p5237
aVinformation
p5238
aVthey
p5239
aVhave
p5240
aVlearn
p5241
aVabout
p5242
aVtheir
p5243
aVmother
p5244
aV's
p5245
aVlove
p5246
aVaffair
p5247
ag2307
asg57
(lp5248
g59
ag59
ag59
ag59
ag59
ag59
ag59
ag59
ag59
ag59
ag59
ag59
ag59
ag59
ag59
ag59
ag59
ag59
ag59
ag59
ag59
ag59
ag59
ag59
ag59
ag59
ag59
ag59
ag59
ag59
ag59
ag59
asg60
(lp5249
g66
ag63
ag67
ag260
ag694
ag62
ag63
ag67
ag62
ag63
ag67
ag262
ag62
ag63
ag67
ag62
ag63
ag67
ag694
ag66
ag62
ag63
ag152
ag694
ag65
ag66
ag154
ag63
ag602
ag63
ag63
ag72
asg73
VFor instance, what do the son, a judge, and the daughter, a nun, do with the information they have learned about their mother's love affair?
p5250
sba(i__main__
Sentence
p5251
(dp5252
g17
I38
sg18
(lp5253
S'Is'
p5254
aS'the'
p5255
aS'son'
p5256
aS'still'
p5257
aS'able'
p5258
aS'to'
p5259
aS'perform'
p5260
aS'his'
p5261
aS'job'
p5262
aS'now'
p5263
aS'armed'
p5264
aS'with'
p5265
aS'his'
p5266
aS'mother'
p5267
aS"'s"
p5268
aS'secret'
p5269
aS','
p5270
aS'which'
p5271
aS'goes'
p5272
aS'against'
p5273
aS'the'
p5274
aS"'tell"
p5275
aS'the'
p5276
aS'truth'
p5277
aS"'"
p5278
aS'principle'
p5279
aS'of'
p5280
aS'the'
p5281
aS'courtroom'
p5282
aS'?'
p5283
asg39
(lp5284
VIs
p5285
aVthe
p5286
aVson
p5287
aVstill
p5288
aVable
p5289
aVto
p5290
aVperform
p5291
aVhis
p5292
aVjob
p5293
aVnow
p5294
aVarm
p5295
aVwith
p5296
aVhis
p5297
aVmother
p5298
aV's
p5299
aVsecret
p5300
ag47
aVwhich
p5301
aVgo
p5302
aVagainst
p5303
aVthe
p5304
aV'tell
p5305
aVthe
p5306
aVtruth
p5307
ag3632
aVprinciple
p5308
aVof
p5309
aVthe
p5310
aVcourtroom
p5311
ag2307
asg57
(lp5312
g59
ag59
ag59
ag59
ag59
ag59
ag59
ag59
ag59
ag59
ag59
ag59
ag59
ag59
ag59
ag59
ag59
ag59
ag59
ag59
ag59
ag59
ag59
ag59
ag59
ag59
ag59
ag59
ag59
ag59
asg60
(lp5313
g157
ag62
ag63
ag68
ag71
ag692
ag63
ag154
ag63
ag68
ag65
ag66
ag154
ag63
ag602
ag63
ag67
ag437
ag157
ag66
ag62
ag330
ag62
ag63
ag602
ag63
ag66
ag62
ag63
ag72
asg73
VIs the son still able to perform his job now armed with his mother's secret, which goes against the 'tell the truth' principle of the courtroom?
p5314
sba(i__main__
Sentence
p5315
(dp5316
g17
I39
sg18
(lp5317
S'Is'
p5318
aS'the'
p5319
aS'daughter'
p5320
aS'still'
p5321
aS'able'
p5322
aS'to'
p5323
aS'pray'
p5324
aS'as'
p5325
aS'a'
p5326
aS'nun'
p5327
aS'given'
p5328
aS'that'
p5329
aS'secret'
p5330
aS'love'
p5331
aS'affairs'
p5332
aS'are'
p5333
aS'frowned'
p5334
aS'on'
p5335
aS'within'
p5336
aS'the'
p5337
aS'church'
p5338
aS'?'
p5339
asg39
(lp5340
VIs
p5341
aVthe
p5342
aVdaughter
p5343
aVstill
p5344
aVable
p5345
aVto
p5346
aVpray
p5347
ag49
ag49
aVnun
p5348
aVgive
p5349
aVthat
p5350
aVsecret
p5351
aVlove
p5352
aVaffair
p5353
ag2172
aVfrown
p5354
aVon
p5355
aVwithin
p5356
aVthe
p5357
aVchurch
p5358
ag2307
asg57
(lp5359
g59
ag59
ag59
ag59
ag59
ag59
ag59
ag59
ag59
ag59
ag59
ag59
ag59
ag59
ag59
ag59
ag59
ag59
ag59
ag59
ag59
ag59
asg60
(lp5360
g157
ag62
ag63
ag68
ag71
ag692
ag70
ag66
ag62
ag63
ag65
ag66
ag63
ag694
ag155
ag694
ag65
ag66
ag66
ag62
ag63
ag72
asg73
VIs the daughter still able to pray as a nun given that secret love affairs are frowned on within the church?
p5361
sba(i__main__
Sentence
p5362
(dp5363
g17
I40
sg18
(lp5364
S'The'
p5365
aS'story'
p5366
aS'also'
p5367
aS'causes'
p5368
aS'the'
p5369
aS'reader'
p5370
aS'to'
p5371
aS'question'
p5372
aS'how'
p5373
aS'well'
p5374
aS'one'
p5375
aS'really'
p5376
aS'knows'
p5377
aS'somebody'
p5378
aS','
p5379
aS'even'
p5380
aS'one'
p5381
aS"'s"
p5382
aS'own'
p5383
aS'parent'
p5384
aS'.'
p5385
asg39
(lp5386
VThe
p5387
aVstory
p5388
aValso
p5389
aVcause
p5390
aVthe
p5391
aVreader
p5392
aVto
p5393
aVquestion
p5394
aVhow
p5395
aVwell
p5396
aVone
p5397
aVreally
p5398
aVknow
p5399
aVsomebody
p5400
ag47
aVeven
p5401
aVone
p5402
aV's
p5403
aVown
p5404
aVparent
p5405
ag56
asg57
(lp5406
g59
ag59
ag59
ag59
ag59
ag59
ag59
ag59
ag59
ag59
ag59
ag59
ag59
ag59
ag59
ag59
ag59
ag59
ag59
ag59
ag59
asg60
(lp5407
g62
ag63
ag68
ag157
ag62
ag63
ag692
ag63
ag261
ag68
ag259
ag68
ag157
ag63
ag67
ag68
ag259
ag602
ag71
ag63
ag72
asg73
VThe story also causes the reader to question how well one really knows somebody, even one's own parent.
p5408
sba(i__main__
Sentence
p5409
(dp5410
g17
I41
sg18
(lp5411
S'Should'
p5412
aS'one'
p5413
aS'dig'
p5414
aS'around'
p5415
aS'in'
p5416
aS'others'
p5417
aS"'"
p5418
aS'pasts'
p5419
aS'to'
p5420
aS'learn'
p5421
aS'more'
p5422
aS'about'
p5423
aS'them'
p5424
aS','
p5425
aS'or'
p5426
aS'leave'
p5427
aS'them'
p5428
aS'to'
p5429
aS'disclose'
p5430
aS'what'
p5431
aS'they'
p5432
aS'wish'
p5433
aS'and'
p5434
aS'leave'
p5435
aS'it'
p5436
aS'at'
p5437
aS'that'
p5438
aS'?'
p5439
asg39
(lp5440
VShould
p5441
aVone
p5442
aVdig
p5443
aVaround
p5444
aVin
p5445
aVothers
p5446
ag3632
aVpast
p5447
aVto
p5448
aVlearn
p5449
aVmore
p5450
aVabout
p5451
aVthem
p5452
ag47
aVor
p5453
aVleave
p5454
aVthem
p5455
aVto
p5456
aVdisclose
p5457
aVwhat
p5458
aVthey
p5459
aVwish
p5460
aVand
p5461
aVleave
p5462
aVit
p5463
aVat
p5464
aVthat
p5465
ag2307
asg57
(lp5466
g59
ag59
ag59
ag59
ag59
ag59
ag59
ag59
ag59
ag59
ag59
ag59
ag59
ag59
ag59
ag59
ag59
ag59
ag59
ag59
ag59
ag59
ag59
ag59
ag59
ag59
ag59
ag59
asg60
(lp5467
g69
ag259
ag63
ag66
ag66
ag155
ag602
ag155
ag692
ag70
ag1152
ag66
ag152
ag67
ag262
ag70
ag152
ag692
ag70
ag260
ag152
ag694
ag262
ag70
ag152
ag66
ag66
ag72
asg73
VShould one dig around in others' pasts to learn more about them, or leave them to disclose what they wish and leave it at that?
p5468
sba(i__main__
Sentence
p5469
(dp5470
g17
I42
sg18
(lp5471
S'Does'
p5472
aS'one'
p5473
aS'really'
p5474
aS'need'
p5475
aS'to'
p5476
aS'know'
p5477
aS'everything'
p5478
aS'about'
p5479
aS'everyone'
p5480
aS','
p5481
aS'thereby'
p5482
aS'running'
p5483
aS'the'
p5484
aS'risk'
p5485
aS'of'
p5486
aS'learning'
p5487
aS'details'
p5488
aS'of'
p5489
aS'which'
p5490
aS'one'
p5491
aS'may'
p5492
aS'not'
p5493
aS'approve'
p5494
aS'and'
p5495
aS'has'
p5496
aS'not'
p5497
aS'anticipated'
p5498
aS'?'
p5499
asg39
(lp5500
VDoes
p5501
aVone
p5502
aVreally
p5503
aVneed
p5504
aVto
p5505
aVknow
p5506
aVeverything
p5507
aVabout
p5508
aVeveryone
p5509
ag47
aVthereby
p5510
aVrun
p5511
aVthe
p5512
aVrisk
p5513
aVof
p5514
aVlearning
p5515
aVdetail
p5516
aVof
p5517
aVwhich
p5518
aVone
p5519
aVmay
p5520
aVnot
p5521
aVapprove
p5522
aVand
p5523
ag1781
aVnot
p5524
aVanticipate
p5525
ag2307
asg57
(lp5526
g59
ag59
ag59
ag59
ag59
ag59
ag59
ag59
ag59
ag59
ag59
ag59
ag59
ag59
ag59
ag59
ag59
ag59
ag59
ag59
ag59
ag59
ag59
ag59
ag59
ag59
ag59
ag59
asg60
(lp5527
g157
ag259
ag68
ag694
ag692
ag70
ag63
ag66
ag63
ag67
ag68
ag153
ag62
ag63
ag66
ag63
ag155
ag66
ag437
ag259
ag69
ag68
ag70
ag262
ag157
ag68
ag65
ag72
asg73
VDoes one really need to know everything about everyone, thereby running the risk of learning details of which one may not approve and has not anticipated?
p5528
sba(i__main__
Sentence
p5529
(dp5530
g17
I43
sg18
(lp5531
S'The'
p5532
aS'imagery'
p5533
aS'in'
p5534
aS'the'
p5535
aS'story'
p5536
aS'is'
p5537
aS'detailed'
p5538
aS'and'
p5539
aS'essential'
p5540
aS'for'
p5541
aS'showing'
p5542
aS'the'
p5543
aS'strength'
p5544
aS'of'
p5545
aS'the'
p5546
aS'relationships'
p5547
aS'between'
p5548
aS'the'
p5549
aS'mother'
p5550
aS'and'
p5551
aS'children'
p5552
aS'.'
p5553
asg39
(lp5554
VThe
p5555
aVimagery
p5556
aVin
p5557
aVthe
p5558
aVstory
p5559
ag878
aVdetail
p5560
aVand
p5561
aVessential
p5562
aVfor
p5563
aVshowing
p5564
aVthe
p5565
aVstrength
p5566
aVof
p5567
aVthe
p5568
aVrelationship
p5569
aVbetween
p5570
aVthe
p5571
aVmother
p5572
aVand
p5573
ag919
ag56
asg57
(lp5574
g59
ag59
ag59
ag59
ag59
ag59
ag59
ag59
ag59
ag59
ag59
ag59
ag59
ag59
ag59
ag59
ag59
ag59
ag59
ag59
ag59
ag59
asg60
(lp5575
g62
ag63
ag66
ag62
ag63
ag157
ag65
ag262
ag71
ag66
ag63
ag62
ag63
ag66
ag62
ag155
ag66
ag62
ag63
ag262
ag155
ag72
asg73
VThe imagery in the story is detailed and essential for showing the strength of the relationships between the mother and children.
p5576
sba(i__main__
Sentence
p5577
(dp5578
g17
I44
sg18
(lp5579
S'``'
p5580
aS'A'
p5581
aS'Dead'
p5582
aS'Woman'
p5583
aS"'s"
p5584
aS'Secret'
p5585
aS"''"
p5586
aS'packs'
p5587
aS'a'
p5588
aS'lot'
p5589
aS'of'
p5590
aS'description'
p5591
aS'and'
p5592
aS'emotion'
p5593
aS'well'
p5594
aS'into'
p5595
aS'a'
p5596
aS'small'
p5597
aS'package'
p5598
aS'.'
p5599
asg39
(lp5600
V``
p5601
ag729
aVDead
p5602
aVWoman
p5603
aV's
p5604
aVSecret
p5605
aV''
p5606
aVpack
p5607
ag49
aVlot
p5608
aVof
p5609
aVdescription
p5610
aVand
p5611
aVemotion
p5612
aVwell
p5613
aVinto
p5614
ag49
aVsmall
p5615
aVpackage
p5616
ag56
asg57
(lp5617
g59
ag59
ag59
ag59
ag59
ag59
ag59
ag59
ag59
ag59
ag59
ag59
ag59
ag59
ag59
ag59
ag59
ag59
ag59
ag59
asg60
(lp5618
g923
ag62
ag330
ag330
ag602
ag330
ag956
ag157
ag62
ag63
ag66
ag63
ag262
ag63
ag68
ag66
ag62
ag71
ag63
ag72
asg73
V"A Dead Woman's Secret" packs a lot of description and emotion well into a small package.
p5619
sba(i__main__
Sentence
p5620
(dp5621
g17
I45
sg18
(lp5622
S'Author'
p5623
aS'Guy'
p5624
aS'de'
p5625
aS'Maupassant'
p5626
aS'has'
p5627
aS'written'
p5628
aS'other'
p5629
aS'short'
p5630
aS'stories'
p5631
aS','
p5632
aS'as'
p5633
aS'well'
p5634
aS'as'
p5635
aS'novels'
p5636
aS'and'
p5637
aS'poetry'
p5638
aS'.'
p5639
asg39
(lp5640
VAuthor
p5641
aVGuy
p5642
aVde
p5643
aVMaupassant
p5644
ag1781
ag2411
aVother
p5645
aVshort
p5646
aVstory
p5647
ag47
ag49
aVwell
p5648
ag49
aVnovel
p5649
aVand
p5650
aVpoetry
p5651
ag56
asg57
(lp5652
g59
aVPERSON
p5653
aVPERSON
p5654
aVPERSON
p5655
ag59
ag59
ag59
ag59
ag59
ag59
ag59
ag59
ag59
ag59
ag59
ag59
ag59
asg60
(lp5656
g330
ag330
ag66
ag330
ag157
ag65
ag71
ag71
ag155
ag67
ag66
ag68
ag66
ag155
ag262
ag63
ag72
asg73
VAuthor Guy de Maupassant has written other short stories, as well as novels and poetry.
p5657
sba(i__main__
Sentence
p5658
(dp5659
g17
I46
sg18
(lp5660
S'He'
p5661
aS'has'
p5662
aS'written'
p5663
aS'in'
p5664
aS'both'
p5665
aS'English'
p5666
aS'and'
p5667
aS'French'
p5668
aS'.'
p5669
asg39
(lp5670
VHe
p5671
ag1781
ag2411
aVin
p5672
aVboth
p5673
aVEnglish
p5674
aVand
p5675
aVFrench
p5676
ag56
asg57
(lp5677
g59
ag59
ag59
ag59
ag59
ag59
ag59
ag59
ag59
asg60
(lp5678
g152
ag157
ag65
ag66
ag62
ag330
ag262
ag330
ag72
asg73
VHe has written in both English and French.
p5679
sba(i__main__
Sentence
p5680
(dp5681
g17
I47
sg18
(lp5682
S'More'
p5683
aS'of'
p5684
aS'his'
p5685
aS'works'
p5686
aS'can'
p5687
aS'be'
p5688
aS'found'
p5689
aS'through'
p5690
aS'an'
p5691
aS'online'
p5692
aS'search'
p5693
aS'of'
p5694
aS'his'
p5695
aS'name'
p5696
aS'.'
p5697
asg39
(lp5698
VMore
p5699
aVof
p5700
aVhis
p5701
aVwork
p5702
aVcan
p5703
aVbe
p5704
aVfind
p5705
aVthrough
p5706
aVan
p5707
aVonline
p5708
aVsearch
p5709
aVof
p5710
aVhis
p5711
aVname
p5712
ag56
asg57
(lp5713
g59
ag59
ag59
ag59
ag59
ag59
ag59
ag59
ag59
ag59
ag59
ag59
ag59
ag59
ag59
asg60
(lp5714
g1152
ag66
ag154
ag155
ag69
ag70
ag65
ag66
ag62
ag63
ag63
ag66
ag154
ag63
ag72
asg73
VMore of his works can be found through an online search of his name.
p5715
sbasbsS'name'
p5716
S"A Dead Woman's Secret"
p5717
sS'summaries'
p5718
(lp5719
g3590
asb.