ccopy_reg
_reconstructor
p0
(c__main__
Story
p1
c__builtin__
object
p2
Ntp3
Rp4
(dp5
S'text'
p6
g0
(c__main__
Document
p7
g2
Ntp8
Rp9
(dp10
S'_Document__initialContent'
p11
S"Hans had served his master for seven years, so he said to him,\nmaster, my time is up, now I should be glad to go back home to my\nmother, give me my wages.  The master answered, you have served me\nfaithfully and honestly, as the service was so shall the reward be.\nAnd he gave Hans a piece of gold as big as his head.  Hans pulled his\nhandkerchief out of his pocket, wrapped up the lump in it, put it on\nhis shoulder, and set out on the way home.\n\nAs he went on, always putting one foot before the other, he saw a\nhorseman trotting quickly and merrily by on a lively horse.  Ah, said\nHans quite loud, what a fine thing it is to ride.  There you sit as\non a chair, you stumble over no stones, you save your shoes, and\ncover the ground, you don't know how.\n\nThe rider, who had heard him, stopped and called out, hi, there,\nHans, why do you go on foot, then.\n\nI must, answered he, for I have this lump to carry home, it is true\nthat it is gold, but I cannot hold my head straight for it, and it\nhurts my shoulder.\n\nI will tell you what, said the rider, we will exchange, I will give\nyou my horse, and you can give me your lump. With all my heart, said\nHans, but I can tell you, you will have to crawl along with it.\n\nThe rider got down, took the gold, and helped Hans up, then gave him\nthe bridle tight in his hands and said, if you want to go at a really\ngood pace, you must click your tongue and call out, jup.  Jup.\n\nHans was heartily delighted as he sat upon the horse and rode away so\nbold and free.  After a little while he thought that it ought to go\nfaster, and he began to click with his tongue and call out, jup.\nJup.  The horse put himself into a sharp trot, and before Hans knew\nwhere he was, he was thrown off and lying in a ditch which separated\nthe field from the highway.  The horse would have gone off too if it\nhad not been stopped by a countryman, who was coming along the road\nand driving a cow before him.\n\nHans pulled himself together and stood up on his legs again, but he\nwas vexed, and said to the countryman, it is a poor joke, this\nriding, especially when one gets hold of a mare like this, that kicks\nand throws one off, so that one has a chance of breaking one's neck.\nNever again will I mount it.  Now I like your cow, for one can walk\nquietly behind her, and have, over and above, one's milk, butter and\ncheese every day without fail.  What would I not give to have such a\ncow.  Well, said the countryman, if it would give you so much\npleasure, I do not mind giving the cow for the horse.  Hans agreed\nwith the greatest delight, the countryman jumped upon the horse, and\nrode quickly away.\n\nHans drove his cow quietly before him, and thought over his lucky\nbargain.  If only I have a morsel of bread - and that can hardly fail\nme - I can eat butter and cheese with it as often as I like, if I am\nthirsty, I can milk my cow and drink the milk.  My goodness, what\nmore can I want.\n\nWhen he came to an inn he made a halt, and in his great concern ate\nup what he had with him - his dinner and supper - and all he had, and\nwith his last few farthings had half a glass of beer. Then he drove\nhis cow onwards along the road to his mother's village.\n\nAs it drew nearer mid-day, the heat was more oppressive, and Hans\nfound himself upon a moor which it took about an hour to cross.  He\nfelt it very hot and his tongue clave to the roof of his mouth with\nthirst.  I can find a cure for this, thought Hans, I will milk the\ncow now and refresh myself with the milk. He tied her to a withered\ntree, and as he had no pail he put his leather cap underneath, but\ntry as he would, not a drop of milk came.  And as he set himself to\nwork in a clumsy way, the impatient beast at last gave him such a\nblow on his head with its hind foot, that he fell on the ground, and\nfor a long time could not think where he was.\n\nBy good fortune a butcher just then came along the road with a\nwheel-barrow, in which lay a young pig.  What sort of a trick is\nthis, cried he, and helped the good Hans up.  Hans told him what had\nhappened.  The butcher gave him his flask and said, take a drink and\nrefresh yourself.  The cow will certainly give no milk, it is an old\nbeast, at the best it is only fit for the plough, or for the butcher.\nWell, well, said Hans, as he stroked his hair down on his head, who\nwould have thought it.  Certainly it is a fine thing when one can\nkill a beast like that at home, what meat one has.  But I do not care\nmuch for beef, it is not juicy enough for me.  A young pig like that\nnow is the thing to have, it tastes quite different, and then there\nare the sausages.\n\nListen, Hans, said the butcher, out of love for you I will exchange,\nand will let you have the pig for the cow.  Heaven repay you for your\nkindness, said Hans as he gave up the cow, whilst the pig was unbound\nfrom the barrow, and the cord by which it was tied was put in his\nhand.\n\nHans went on, and thought to himself how everything was going just as\nhe wished, if he did meet with any vexation it was immediately set\nright.  Presently there joined him a lad who was carrying a fine\nwhite goose under his arm.  They said good morning to each other, and\nHans began to tell of his good luck, and how he had always made such\ngood bargains.  The boy told him that he was taking the goose to a\nchristening-feast.  Just lift her, added he, and laid hold of her by\nthe wings, how heavy she is - she has been fattened up for the last\neight weeks.  Whosoever has a bit of her when she is roasted will\nhave to wipe the fat from both sides of his mouth.  Yes, said Hans,\nas he weighed her in one hand, she is a good weight, but my pig is no\nbad one.\n\nMeanwhile the lad looked suspiciously from one side to the other, and\nshook his head.  Look here, he said at length, it may not be all\nright with your pig.  In the village through which I passed, the\nmayor himself had just had one stolen out of its sty.  I fear - I\nfear that you have got hold of it there.  They have sent out some\npeople and it would be a bad business if they caught you with the\npig, at the very least, you would be shut up in the dark hole.\n\nThe good Hans was terrified.  Goodness, he said, help me out of this\nfix, you know more about this place than I do, take my pig and leave\nme your goose.  I shall risk something at that game, answered the\nlad, but I will not be the cause of your getting into trouble.  So he\ntook the cord in his hand, and drove away the pig quickly along a\nby-path.\n\nThe good Hans, free from care, went homewards with the goose under\nhis arm.  When I think over it properly, said he to himself, I have\neven gained by the exchange.  First there is the good roast meat,\nthen the quantity of fat which will drip from it, and which will give\nme dripping for my bread for a quarter of a year, and lastly the\nbeautiful white feathers.  I will have my pillow stuffed with them,\nand then indeed I shall go to sleep without rocking.  How glad my\nmother will be.\n\nAs he was going through the last village, there stood a\nscissors-grinder with his barrow, as his wheel whirred he sang,\n     I sharpen scissors and quickly grind,\n     my coat blows out in the wind behind.\n\nHans stood still and looked at him, at last he spoke to him and said,\nall's well with you, as you are so merry with your grinding. Yes,\nanswered the scissors-grinder, the trade has a golden foundation.  A\nreal grinder is a man who as often as he puts his hand into his\npocket finds gold in it.  But where did you buy that fine goose?\n\nI did not buy it, but exchanged my pig for it.\n\nAnd the pig?\n\nThat I got for a cow.\n\nAnd the cow?\n\nI took that instead of a horse.\n\nAnd the horse?\n\nFor that I gave a lump of gold as big as my head.\n\nAnd the gold?\n\nWell, that was my wages for seven years, service.\n\nYou have known how to look after yourself each time, said the\ngrinder.  If you can only get on so far as to hear the money jingle\nin your pocket whenever you stand up, you will have made your\nfortune.\n\nHow shall I manage that, said Hans.  You must be a grinder, as I am,\nnothing particular is wanted for it but a grindstone, the rest finds\nitself.  I have one here, it is certainly a little worn, but you need\nnot give me anything for it but your goose, will you do it?\n\nHow can you ask, answered Hans.  I shall be the luckiest fellow on\nearth.  If I have money whenever I put my hand in my pocket, why\nshould I ever worry again.  And he handed him the goose and received\nthe grindstone in exchange.  Now, said the grinder, as he took up an\nordinary heavy stone that lay by him, here is a strong stone for you\ninto the bargain, you can hammer well upon it, and straighten your\nold nails.  Take it with you and keep it carefully. Hans loaded\nhimself with the stones, and went on with a contented heart, his eyes\nshining with joy.  I must have been born with a caul, he cried,\neverything I want happens to me just as if I were a sunday-child.\n\nMeanwhile, as he had been on his legs since daybreak, he began to\nfeel tired.  Hunger also tormented him, for in his joy at the bargain\nby which he got the cow he had eaten up all his store of food at\nonce.  At last he could only go on with great trouble, and was forced\nto stop every minute, the stones, too, weighed him down dreadfully.\nThen he could not help thinking how nice it would be if he had not to\ncarry them just then.\n\nHe crept like a snail to a well in a field, and there he thought that\nhe would rest and refresh himself with a cool draught of water, but\nin order that he might not injure the stones in sitting down, he laid\nthem carefully by his side on the edge of the well. Then he sat down\non it, and was to stoop and drink, when he made a slip, pushed\nagainst the stones, and both of them fell into the water.  When Hans\nsaw them with his own eyes sinking to the bottom, he jumped for joy,\nand then knelt down, and with tears in his eyes thanked God for\nhaving shown him this favor also, and delivered him in so good a way,\nand without his having any need to reproach himself, from those heavy\nstones which had been the only things that troubled him.\n\nThere is no man under the sun so fortunate as I, he cried out. With a\nlight heart and free from every burden he now ran on until he was\nwith his mother at home.\n"
p12
sS'sentences'
p13
(lp14
(i__main__
Sentence
p15
(dp16
S'index'
p17
I0
sS'words'
p18
(lp19
S'Hans'
p20
aS'had'
p21
aS'served'
p22
aS'his'
p23
aS'master'
p24
aS'for'
p25
aS'seven'
p26
aS'years'
p27
aS','
p28
aS'so'
p29
aS'he'
p30
aS'said'
p31
aS'to'
p32
aS'him'
p33
aS','
p34
aS'master'
p35
aS','
p36
aS'my'
p37
aS'time'
p38
aS'is'
p39
aS'up'
p40
aS','
p41
aS'now'
p42
aS'I'
p43
aS'should'
p44
aS'be'
p45
aS'glad'
p46
aS'to'
p47
aS'go'
p48
aS'back'
p49
aS'home'
p50
aS'to'
p51
aS'my'
p52
aS'mother'
p53
aS','
p54
aS'give'
p55
aS'me'
p56
aS'my'
p57
aS'wages'
p58
aS'.'
p59
asS'lemmas'
p60
(lp61
VHans
p62
aVhave
p63
aVserve
p64
aVhis
p65
aVmaster
p66
aVfor
p67
aVseven
p68
aVyear
p69
aV,
p70
aVso
p71
aVhe
p72
aVsay
p73
aVto
p74
aVhim
p75
ag70
aVmaster
p76
ag70
aVmy
p77
aVtime
p78
aVbe
p79
aVup
p80
ag70
aVnow
p81
aVI
p82
aVshould
p83
aVbe
p84
aVglad
p85
aVto
p86
aVgo
p87
aVback
p88
aVhome
p89
aVto
p90
aVmy
p91
aVmother
p92
ag70
aVgive
p93
aVme
p94
aVmy
p95
aVwage
p96
aV.
p97
asS'nerTags'
p98
(lp99
VPERSON
p100
aVO
p101
ag101
ag101
ag101
ag101
ag101
ag101
ag101
ag101
ag101
ag101
ag101
ag101
ag101
ag101
ag101
ag101
ag101
ag101
ag101
ag101
ag101
ag101
ag101
ag101
ag101
ag101
ag101
ag101
ag101
ag101
ag101
ag101
ag101
ag101
ag101
ag101
ag101
ag101
asS'posTags'
p102
(lp103
S'NNS'
p104
aS'VBD'
p105
aS'VBN'
p106
aS'PRP$'
p107
aS'NN'
p108
aS'IN'
p109
aS'CD'
p110
ag104
aS','
p111
aS'RB'
p112
aS'PRP'
p113
ag105
aS'TO'
p114
ag113
ag111
ag108
ag111
ag107
ag108
aS'VBZ'
p115
ag109
ag111
ag112
ag113
aS'MD'
p116
aS'VB'
p117
ag106
ag114
ag117
ag112
ag108
ag114
ag107
ag108
ag111
aS'JJ'
p118
ag113
ag107
ag104
aS'.'
p119
asS'_Sentence__initialContent'
p120
VHans had served his master for seven years, so he said to him, master, my time is up, now I should be glad to go back home to my mother, give me my wages.
p121
sba(i__main__
Sentence
p122
(dp123
g17
I1
sg18
(lp124
S'The'
p125
aS'master'
p126
aS'answered'
p127
aS','
p128
aS'you'
p129
aS'have'
p130
aS'served'
p131
aS'me'
p132
aS'faithfully'
p133
aS'and'
p134
aS'honestly'
p135
aS','
p136
aS'as'
p137
aS'the'
p138
aS'service'
p139
aS'was'
p140
aS'so'
p141
aS'shall'
p142
aS'the'
p143
aS'reward'
p144
aS'be'
p145
aS'.'
p146
asg60
(lp147
VThe
p148
aVmaster
p149
aVanswer
p150
ag70
aVyou
p151
aVhave
p152
aVserve
p153
aVme
p154
aVfaithfully
p155
aVand
p156
aVhonestly
p157
ag70
aVa
p158
aVthe
p159
aVservice
p160
aVbe
p161
aVso
p162
aVshall
p163
aVthe
p164
aVreward
p165
aVbe
p166
ag97
asg98
(lp167
g101
ag101
ag101
ag101
ag101
ag101
ag101
ag101
ag101
ag101
ag101
ag101
ag101
ag101
ag101
ag101
ag101
ag101
ag101
ag101
ag101
ag101
asg102
(lp168
S'DT'
p169
ag108
ag105
ag111
ag113
aS'VBP'
p170
ag106
ag113
ag112
aS'CC'
p171
ag112
ag111
ag109
ag169
ag108
ag105
ag112
ag112
ag169
ag108
ag117
ag119
asg120
VThe master answered, you have served me faithfully and honestly, as the service was so shall the reward be.
p172
sba(i__main__
Sentence
p173
(dp174
g17
I2
sg18
(lp175
S'And'
p176
aS'he'
p177
aS'gave'
p178
aS'Hans'
p179
aS'a'
p180
aS'piece'
p181
aS'of'
p182
aS'gold'
p183
aS'as'
p184
aS'big'
p185
aS'as'
p186
aS'his'
p187
aS'head'
p188
aS'.'
p189
asg60
(lp190
VAnd
p191
aVhe
p192
aVgive
p193
aVHans
p194
ag158
aVpiece
p195
aVof
p196
aVgold
p197
ag158
aVbig
p198
ag158
aVhis
p199
aVhead
p200
ag97
asg98
(lp201
g101
ag101
ag101
aVPERSON
p202
ag101
ag101
ag101
ag101
ag101
ag101
ag101
ag101
ag101
ag101
asg102
(lp203
g171
ag113
ag105
aS'NNP'
p204
ag169
ag108
ag109
ag108
ag109
ag118
ag109
ag107
ag108
ag119
asg120
VAnd he gave Hans a piece of gold as big as his head.
p205
sba(i__main__
Sentence
p206
(dp207
g17
I3
sg18
(lp208
S'Hans'
p209
aS'pulled'
p210
aS'his'
p211
aS'handkerchief'
p212
aS'out'
p213
aS'of'
p214
aS'his'
p215
aS'pocket'
p216
aS','
p217
aS'wrapped'
p218
aS'up'
p219
aS'the'
p220
aS'lump'
p221
aS'in'
p222
aS'it'
p223
aS','
p224
aS'put'
p225
aS'it'
p226
aS'on'
p227
aS'his'
p228
aS'shoulder'
p229
aS','
p230
aS'and'
p231
aS'set'
p232
aS'out'
p233
aS'on'
p234
aS'the'
p235
aS'way'
p236
aS'home'
p237
aS'.'
p238
asg60
(lp239
VHans
p240
aVpull
p241
aVhis
p242
aVhandkerchief
p243
aVout
p244
aVof
p245
aVhis
p246
aVpocket
p247
ag70
aVwrap
p248
aVup
p249
aVthe
p250
aVlump
p251
aVin
p252
aVit
p253
ag70
aVput
p254
aVit
p255
aVon
p256
aVhis
p257
aVshoulder
p258
ag70
aVand
p259
aVset
p260
aVout
p261
aVon
p262
aVthe
p263
aVway
p264
aVhome
p265
ag97
asg98
(lp266
VPERSON
p267
ag101
ag101
ag101
ag101
ag101
ag101
ag101
ag101
ag101
ag101
ag101
ag101
ag101
ag101
ag101
ag101
ag101
ag101
ag101
ag101
ag101
ag101
ag101
ag101
ag101
ag101
ag101
ag101
ag101
asg102
(lp268
g104
ag105
ag107
ag108
ag109
ag109
ag107
ag108
ag111
ag105
aS'RP'
p269
ag169
ag108
ag109
ag113
ag111
ag105
ag113
ag109
ag107
ag108
ag111
ag171
ag105
ag269
ag109
ag169
ag108
ag108
ag119
asg120
VHans pulled his handkerchief out of his pocket, wrapped up the lump in it, put it on his shoulder, and set out on the way home.
p270
sba(i__main__
Sentence
p271
(dp272
g17
I4
sg18
(lp273
S'As'
p274
aS'he'
p275
aS'went'
p276
aS'on'
p277
aS','
p278
aS'always'
p279
aS'putting'
p280
aS'one'
p281
aS'foot'
p282
aS'before'
p283
aS'the'
p284
aS'other'
p285
aS','
p286
aS'he'
p287
aS'saw'
p288
aS'a'
p289
aS'horseman'
p290
aS'trotting'
p291
aS'quickly'
p292
aS'and'
p293
aS'merrily'
p294
aS'by'
p295
aS'on'
p296
aS'a'
p297
aS'lively'
p298
aS'horse'
p299
aS'.'
p300
asg60
(lp301
VAs
p302
aVhe
p303
aVgo
p304
aVon
p305
ag70
aValways
p306
aVput
p307
aVone
p308
aVfoot
p309
aVbefore
p310
aVthe
p311
aVother
p312
ag70
aVhe
p313
aVsaw
p314
ag158
aVhorseman
p315
aVtrot
p316
aVquickly
p317
aVand
p318
aVmerrily
p319
aVby
p320
aVon
p321
ag158
aVlively
p322
aVhorse
p323
ag97
asg98
(lp324
g101
ag101
ag101
ag101
ag101
ag101
ag101
ag101
ag101
ag101
ag101
ag101
ag101
ag101
ag101
ag101
ag101
ag101
ag101
ag101
ag101
ag101
ag101
ag101
ag101
ag101
ag101
asg102
(lp325
g109
ag113
ag105
ag109
ag111
ag112
aS'VBG'
p326
ag110
ag108
ag109
ag169
ag118
ag111
ag113
ag105
ag169
ag108
ag326
ag112
ag171
ag112
ag109
ag109
ag169
ag112
ag118
ag119
asg120
VAs he went on, always putting one foot before the other, he saw a horseman trotting quickly and merrily by on a lively horse.
p327
sba(i__main__
Sentence
p328
(dp329
g17
I5
sg18
(lp330
S'Ah'
p331
aS','
p332
aS'said'
p333
aS'Hans'
p334
aS'quite'
p335
aS'loud'
p336
aS','
p337
aS'what'
p338
aS'a'
p339
aS'fine'
p340
aS'thing'
p341
aS'it'
p342
aS'is'
p343
aS'to'
p344
aS'ride'
p345
aS'.'
p346
asg60
(lp347
VAh
p348
ag70
ag73
aVHans
p349
aVquite
p350
aVloud
p351
ag70
aVwhat
p352
ag158
aVfine
p353
aVthing
p354
aVit
p355
ag79
aVto
p356
aVride
p357
ag97
asg98
(lp358
g101
ag101
ag101
aVPERSON
p359
ag101
ag101
ag101
ag101
ag101
ag101
ag101
ag101
ag101
ag101
ag101
ag101
asg102
(lp360
g204
ag111
ag105
ag204
ag112
ag105
ag111
aS'WP'
p361
ag169
ag108
ag108
ag113
ag115
ag114
ag117
ag119
asg120
VAh, said Hans quite loud, what a fine thing it is to ride.
p362
sba(i__main__
Sentence
p363
(dp364
g17
I6
sg18
(lp365
S'There'
p366
aS'you'
p367
aS'sit'
p368
aS'as'
p369
aS'on'
p370
aS'a'
p371
aS'chair'
p372
aS','
p373
aS'you'
p374
aS'stumble'
p375
aS'over'
p376
aS'no'
p377
aS'stones'
p378
aS','
p379
aS'you'
p380
aS'save'
p381
aS'your'
p382
aS'shoes'
p383
aS','
p384
aS'and'
p385
aS'cover'
p386
aS'the'
p387
aS'ground'
p388
aS','
p389
aS'you'
p390
aS'do'
p391
aS"n't"
p392
aS'know'
p393
aS'how'
p394
aS'.'
p395
asg60
(lp396
VThere
p397
aVyou
p398
aVsit
p399
ag158
aVon
p400
ag158
aVchair
p401
ag70
aVyou
p402
aVstumble
p403
aVover
p404
aVno
p405
aVstone
p406
ag70
aVyou
p407
aVsave
p408
aVyour
p409
aVshoe
p410
ag70
aVand
p411
aVcover
p412
aVthe
p413
aVground
p414
ag70
aVyou
p415
aVdo
p416
aVn't
p417
aVknow
p418
aVhow
p419
ag97
asg98
(lp420
g101
ag101
ag101
ag101
ag101
ag101
ag101
ag101
ag101
ag101
ag101
ag101
ag101
ag101
ag101
ag101
ag101
ag101
ag101
ag101
ag101
ag101
ag101
ag101
ag101
ag101
ag101
ag101
ag101
ag101
asg102
(lp421
S'EX'
p422
ag113
ag108
ag109
ag109
ag169
ag108
ag111
ag113
ag118
ag109
ag169
ag104
ag111
ag113
ag170
ag107
ag104
ag111
ag171
ag112
ag169
ag108
ag111
ag113
ag170
ag112
ag117
aS'WRB'
p423
ag119
asg120
VThere you sit as on a chair, you stumble over no stones, you save your shoes, and cover the ground, you don't know how.
p424
sba(i__main__
Sentence
p425
(dp426
g17
I7
sg18
(lp427
S'The'
p428
aS'rider'
p429
aS','
p430
aS'who'
p431
aS'had'
p432
aS'heard'
p433
aS'him'
p434
aS','
p435
aS'stopped'
p436
aS'and'
p437
aS'called'
p438
aS'out'
p439
aS','
p440
aS'hi'
p441
aS','
p442
aS'there'
p443
aS','
p444
aS'Hans'
p445
aS','
p446
aS'why'
p447
aS'do'
p448
aS'you'
p449
aS'go'
p450
aS'on'
p451
aS'foot'
p452
aS','
p453
aS'then'
p454
aS'.'
p455
asg60
(lp456
VThe
p457
aVrider
p458
ag70
aVwho
p459
ag63
aVhear
p460
aVhim
p461
ag70
aVstop
p462
aVand
p463
aVcall
p464
aVout
p465
ag70
aVhi
p466
ag70
aVthere
p467
ag70
aVHans
p468
ag70
aVwhy
p469
aVdo
p470
aVyou
p471
aVgo
p472
aVon
p473
aVfoot
p474
ag70
aVthen
p475
ag97
asg98
(lp476
g101
ag101
ag101
ag101
ag101
ag101
ag101
ag101
ag101
ag101
ag101
ag101
ag101
ag101
ag101
ag101
ag101
aVPERSON
p477
ag101
ag101
ag101
ag101
ag101
ag101
ag101
ag101
ag101
ag101
asg102
(lp478
g169
ag108
ag111
ag361
ag105
ag106
ag113
ag111
ag105
ag171
ag106
ag269
ag111
ag108
ag111
ag422
ag111
ag204
ag111
ag423
ag170
ag113
ag117
ag109
ag108
ag111
ag112
ag119
asg120
VThe rider, who had heard him, stopped and called out, hi, there, Hans, why do you go on foot, then.
p479
sba(i__main__
Sentence
p480
(dp481
g17
I8
sg18
(lp482
S'I'
p483
aS'must'
p484
aS','
p485
aS'answered'
p486
aS'he'
p487
aS','
p488
aS'for'
p489
aS'I'
p490
aS'have'
p491
aS'this'
p492
aS'lump'
p493
aS'to'
p494
aS'carry'
p495
aS'home'
p496
aS','
p497
aS'it'
p498
aS'is'
p499
aS'true'
p500
aS'that'
p501
aS'it'
p502
aS'is'
p503
aS'gold'
p504
aS','
p505
aS'but'
p506
aS'I'
p507
aS'can'
p508
aS'not'
p509
aS'hold'
p510
aS'my'
p511
aS'head'
p512
aS'straight'
p513
aS'for'
p514
aS'it'
p515
aS','
p516
aS'and'
p517
aS'it'
p518
aS'hurts'
p519
aS'my'
p520
aS'shoulder'
p521
aS'.'
p522
asg60
(lp523
g82
aVmust
p524
ag70
aVanswer
p525
aVhe
p526
ag70
aVfor
p527
ag82
aVhave
p528
aVthis
p529
aVlump
p530
aVto
p531
aVcarry
p532
aVhome
p533
ag70
aVit
p534
ag79
aVtrue
p535
aVthat
p536
aVit
p537
ag79
aVgold
p538
ag70
aVbut
p539
ag82
aVcan
p540
aVnot
p541
aVhold
p542
aVmy
p543
aVhead
p544
aVstraight
p545
aVfor
p546
aVit
p547
ag70
aVand
p548
aVit
p549
aVhurt
p550
aVmy
p551
aVshoulder
p552
ag97
asg98
(lp553
g101
ag101
ag101
ag101
ag101
ag101
ag101
ag101
ag101
ag101
ag101
ag101
ag101
ag101
ag101
ag101
ag101
ag101
ag101
ag101
ag101
ag101
ag101
ag101
ag101
ag101
ag101
ag101
ag101
ag101
ag101
ag101
ag101
ag101
ag101
ag101
ag101
ag101
ag101
ag101
asg102
(lp554
g113
ag116
ag111
ag106
ag113
ag111
ag109
ag113
ag170
ag169
ag108
ag114
ag117
ag108
ag111
ag113
ag115
ag118
ag109
ag113
ag115
ag108
ag111
ag171
ag113
ag116
ag112
ag117
ag107
ag108
ag108
ag109
ag113
ag111
ag171
ag113
ag115
ag107
ag108
ag119
asg120
VI must, answered he, for I have this lump to carry home, it is true that it is gold, but I cannot hold my head straight for it, and it hurts my shoulder.
p555
sba(i__main__
Sentence
p556
(dp557
g17
I9
sg18
(lp558
S'I'
p559
aS'will'
p560
aS'tell'
p561
aS'you'
p562
aS'what'
p563
aS','
p564
aS'said'
p565
aS'the'
p566
aS'rider'
p567
aS','
p568
aS'we'
p569
aS'will'
p570
aS'exchange'
p571
aS','
p572
aS'I'
p573
aS'will'
p574
aS'give'
p575
aS'you'
p576
aS'my'
p577
aS'horse'
p578
aS','
p579
aS'and'
p580
aS'you'
p581
aS'can'
p582
aS'give'
p583
aS'me'
p584
aS'your'
p585
aS'lump'
p586
aS'.'
p587
asg60
(lp588
g82
aVwill
p589
aVtell
p590
aVyou
p591
aVwhat
p592
ag70
ag73
aVthe
p593
aVrider
p594
ag70
aVwe
p595
aVwill
p596
aVexchange
p597
ag70
ag82
aVwill
p598
aVgive
p599
aVyou
p600
aVmy
p601
aVhorse
p602
ag70
aVand
p603
aVyou
p604
aVcan
p605
aVgive
p606
aVme
p607
aVyour
p608
aVlump
p609
ag97
asg98
(lp610
g101
ag101
ag101
ag101
ag101
ag101
ag101
ag101
ag101
ag101
ag101
ag101
ag101
ag101
ag101
ag101
ag101
ag101
ag101
ag101
ag101
ag101
ag101
ag101
ag101
ag101
ag101
ag101
ag101
asg102
(lp611
g113
ag116
ag117
ag113
ag361
ag111
ag105
ag169
ag108
ag111
ag113
ag116
ag117
ag111
ag113
ag116
ag117
ag113
ag107
ag108
ag111
ag171
ag113
ag116
ag117
ag113
ag107
ag108
ag119
asg120
VI will tell you what, said the rider, we will exchange, I will give you my horse, and you can give me your lump.
p612
sba(i__main__
Sentence
p613
(dp614
g17
I10
sg18
(lp615
S'With'
p616
aS'all'
p617
aS'my'
p618
aS'heart'
p619
aS','
p620
aS'said'
p621
aS'Hans'
p622
aS','
p623
aS'but'
p624
aS'I'
p625
aS'can'
p626
aS'tell'
p627
aS'you'
p628
aS','
p629
aS'you'
p630
aS'will'
p631
aS'have'
p632
aS'to'
p633
aS'crawl'
p634
aS'along'
p635
aS'with'
p636
aS'it'
p637
aS'.'
p638
asg60
(lp639
VWith
p640
aVall
p641
aVmy
p642
aVheart
p643
ag70
ag73
aVHans
p644
ag70
aVbut
p645
ag82
aVcan
p646
aVtell
p647
aVyou
p648
ag70
aVyou
p649
aVwill
p650
aVhave
p651
aVto
p652
aVcrawl
p653
aValong
p654
aVwith
p655
aVit
p656
ag97
asg98
(lp657
g101
ag101
ag101
ag101
ag101
ag101
aVPERSON
p658
ag101
ag101
ag101
ag101
ag101
ag101
ag101
ag101
ag101
ag101
ag101
ag101
ag101
ag101
ag101
ag101
asg102
(lp659
g109
ag169
ag107
ag108
ag111
ag105
ag204
ag111
ag171
ag113
ag116
ag117
ag113
ag111
ag113
ag116
ag117
ag114
ag117
ag109
ag109
ag113
ag119
asg120
VWith all my heart, said Hans, but I can tell you, you will have to crawl along with it.
p660
sba(i__main__
Sentence
p661
(dp662
g17
I11
sg18
(lp663
S'The'
p664
aS'rider'
p665
aS'got'
p666
aS'down'
p667
aS','
p668
aS'took'
p669
aS'the'
p670
aS'gold'
p671
aS','
p672
aS'and'
p673
aS'helped'
p674
aS'Hans'
p675
aS'up'
p676
aS','
p677
aS'then'
p678
aS'gave'
p679
aS'him'
p680
aS'the'
p681
aS'bridle'
p682
aS'tight'
p683
aS'in'
p684
aS'his'
p685
aS'hands'
p686
aS'and'
p687
aS'said'
p688
aS','
p689
aS'if'
p690
aS'you'
p691
aS'want'
p692
aS'to'
p693
aS'go'
p694
aS'at'
p695
aS'a'
p696
aS'really'
p697
aS'good'
p698
aS'pace'
p699
aS','
p700
aS'you'
p701
aS'must'
p702
aS'click'
p703
aS'your'
p704
aS'tongue'
p705
aS'and'
p706
aS'call'
p707
aS'out'
p708
aS','
p709
aS'jup'
p710
aS'.'
p711
asg60
(lp712
VThe
p713
aVrider
p714
aVget
p715
aVdown
p716
ag70
aVtake
p717
aVthe
p718
aVgold
p719
ag70
aVand
p720
aVhelp
p721
aVHans
p722
aVup
p723
ag70
aVthen
p724
ag193
aVhim
p725
aVthe
p726
aVbridle
p727
aVtight
p728
aVin
p729
aVhis
p730
aVhand
p731
aVand
p732
ag73
ag70
aVif
p733
aVyou
p734
aVwant
p735
aVto
p736
aVgo
p737
aVat
p738
ag158
aVreally
p739
aVgood
p740
aVpace
p741
ag70
aVyou
p742
aVmust
p743
aVclick
p744
aVyour
p745
aVtongue
p746
aVand
p747
aVcall
p748
aVout
p749
ag70
aVjup
p750
ag97
asg98
(lp751
g101
ag101
ag101
ag101
ag101
ag101
ag101
ag101
ag101
ag101
ag101
aVPERSON
p752
ag101
ag101
ag101
ag101
ag101
ag101
ag101
ag101
ag101
ag101
ag101
ag101
ag101
ag101
ag101
ag101
ag101
ag101
ag101
ag101
ag101
ag101
ag101
ag101
ag101
ag101
ag101
ag101
ag101
ag101
ag101
ag101
ag101
ag101
ag101
ag101
asg102
(lp753
g169
ag108
ag105
ag109
ag111
ag105
ag169
ag108
ag111
ag171
ag105
ag204
ag109
ag111
ag112
ag105
ag113
ag169
ag108
ag108
ag109
ag107
ag104
ag171
ag105
ag111
ag109
ag113
ag170
ag114
ag117
ag109
ag169
ag112
ag118
ag108
ag111
ag113
ag116
ag117
ag107
ag108
ag171
ag108
ag269
ag111
ag108
ag119
asg120
VThe rider got down, took the gold, and helped Hans up, then gave him the bridle tight in his hands and said, if you want to go at a really good pace, you must click your tongue and call out, jup.
p754
sba(i__main__
Sentence
p755
(dp756
g17
I12
sg18
(lp757
S'Jup'
p758
aS'.'
p759
asg60
(lp760
VJup
p761
ag97
asg98
(lp762
VPERSON
p763
ag101
asg102
(lp764
g204
ag119
asg120
VJup.
p765
sba(i__main__
Sentence
p766
(dp767
g17
I13
sg18
(lp768
S'Hans'
p769
aS'was'
p770
aS'heartily'
p771
aS'delighted'
p772
aS'as'
p773
aS'he'
p774
aS'sat'
p775
aS'upon'
p776
aS'the'
p777
aS'horse'
p778
aS'and'
p779
aS'rode'
p780
aS'away'
p781
aS'so'
p782
aS'bold'
p783
aS'and'
p784
aS'free'
p785
aS'.'
p786
asg60
(lp787
VHans
p788
ag161
aVheartily
p789
aVdelight
p790
ag158
aVhe
p791
aVsit
p792
aVupon
p793
aVthe
p794
aVhorse
p795
aVand
p796
aVrode
p797
aVaway
p798
aVso
p799
aVbold
p800
aVand
p801
aVfree
p802
ag97
asg98
(lp803
VPERSON
p804
ag101
ag101
ag101
ag101
ag101
ag101
ag101
ag101
ag101
ag101
ag101
ag101
ag101
ag101
ag101
ag101
ag101
asg102
(lp805
g104
ag105
ag112
ag106
ag109
ag113
ag105
ag109
ag169
ag108
ag171
ag108
ag112
ag112
ag118
ag171
ag118
ag119
asg120
VHans was heartily delighted as he sat upon the horse and rode away so bold and free.
p806
sba(i__main__
Sentence
p807
(dp808
g17
I14
sg18
(lp809
S'After'
p810
aS'a'
p811
aS'little'
p812
aS'while'
p813
aS'he'
p814
aS'thought'
p815
aS'that'
p816
aS'it'
p817
aS'ought'
p818
aS'to'
p819
aS'go'
p820
aS'faster'
p821
aS','
p822
aS'and'
p823
aS'he'
p824
aS'began'
p825
aS'to'
p826
aS'click'
p827
aS'with'
p828
aS'his'
p829
aS'tongue'
p830
aS'and'
p831
aS'call'
p832
aS'out'
p833
aS','
p834
aS'jup'
p835
aS'.'
p836
asg60
(lp837
VAfter
p838
ag158
aVlittle
p839
aVwhile
p840
aVhe
p841
aVthink
p842
aVthat
p843
aVit
p844
aVought
p845
aVto
p846
aVgo
p847
aVfast
p848
ag70
aVand
p849
aVhe
p850
aVbegin
p851
aVto
p852
aVclick
p853
aVwith
p854
aVhis
p855
aVtongue
p856
aVand
p857
aVcall
p858
aVout
p859
ag70
aVjup
p860
ag97
asg98
(lp861
g101
ag101
ag101
ag101
ag101
ag101
ag101
ag101
ag101
ag101
ag101
ag101
ag101
ag101
ag101
ag101
ag101
ag101
ag101
ag101
ag101
ag101
ag101
ag101
ag101
ag101
ag101
asg102
(lp862
g109
ag169
ag112
ag109
ag113
ag105
ag109
ag113
ag116
ag114
ag117
aS'JJR'
p863
ag111
ag171
ag113
ag105
ag114
ag117
ag109
ag107
ag108
ag171
ag108
ag269
ag111
ag108
ag119
asg120
VAfter a little while he thought that it ought to go faster, and he began to click with his tongue and call out, jup.
p864
sba(i__main__
Sentence
p865
(dp866
g17
I15
sg18
(lp867
S'Jup'
p868
aS'.'
p869
asg60
(lp870
VJup
p871
ag97
asg98
(lp872
VPERSON
p873
ag101
asg102
(lp874
g204
ag119
asg120
VJup.
p875
sba(i__main__
Sentence
p876
(dp877
g17
I16
sg18
(lp878
S'The'
p879
aS'horse'
p880
aS'put'
p881
aS'himself'
p882
aS'into'
p883
aS'a'
p884
aS'sharp'
p885
aS'trot'
p886
aS','
p887
aS'and'
p888
aS'before'
p889
aS'Hans'
p890
aS'knew'
p891
aS'where'
p892
aS'he'
p893
aS'was'
p894
aS','
p895
aS'he'
p896
aS'was'
p897
aS'thrown'
p898
aS'off'
p899
aS'and'
p900
aS'lying'
p901
aS'in'
p902
aS'a'
p903
aS'ditch'
p904
aS'which'
p905
aS'separated'
p906
aS'the'
p907
aS'field'
p908
aS'from'
p909
aS'the'
p910
aS'highway'
p911
aS'.'
p912
asg60
(lp913
VThe
p914
aVhorse
p915
aVput
p916
aVhimself
p917
aVinto
p918
ag158
aVsharp
p919
aVtrot
p920
ag70
aVand
p921
aVbefore
p922
aVHans
p923
aVknew
p924
aVwhere
p925
aVhe
p926
ag161
ag70
aVhe
p927
ag161
aVthrow
p928
aVoff
p929
aVand
p930
aVlie
p931
aVin
p932
ag158
aVditch
p933
aVwhich
p934
aVseparate
p935
aVthe
p936
aVfield
p937
aVfrom
p938
aVthe
p939
aVhighway
p940
ag97
asg98
(lp941
g101
ag101
ag101
ag101
ag101
ag101
ag101
ag101
ag101
ag101
ag101
aVPERSON
p942
ag101
ag101
ag101
ag101
ag101
ag101
ag101
ag101
ag101
ag101
ag101
ag101
ag101
ag101
ag101
ag101
ag101
ag101
ag101
ag101
ag101
ag101
asg102
(lp943
g169
ag108
ag105
ag113
ag109
ag169
ag118
ag108
ag111
ag171
ag109
aS'NNPS'
p944
ag118
ag423
ag113
ag105
ag111
ag113
ag105
ag106
ag269
ag171
ag326
ag109
ag169
ag108
aS'WDT'
p945
ag106
ag169
ag108
ag109
ag169
ag108
ag119
asg120
VThe horse put himself into a sharp trot, and before Hans knew where he was, he was thrown off and lying in a ditch which separated the field from the highway.
p946
sba(i__main__
Sentence
p947
(dp948
g17
I17
sg18
(lp949
S'The'
p950
aS'horse'
p951
aS'would'
p952
aS'have'
p953
aS'gone'
p954
aS'off'
p955
aS'too'
p956
aS'if'
p957
aS'it'
p958
aS'had'
p959
aS'not'
p960
aS'been'
p961
aS'stopped'
p962
aS'by'
p963
aS'a'
p964
aS'countryman'
p965
aS','
p966
aS'who'
p967
aS'was'
p968
aS'coming'
p969
aS'along'
p970
aS'the'
p971
aS'road'
p972
aS'and'
p973
aS'driving'
p974
aS'a'
p975
aS'cow'
p976
aS'before'
p977
aS'him'
p978
aS'.'
p979
asg60
(lp980
VThe
p981
aVhorse
p982
aVwould
p983
aVhave
p984
aVgo
p985
aVoff
p986
aVtoo
p987
aVif
p988
aVit
p989
ag63
aVnot
p990
aVbe
p991
ag462
aVby
p992
ag158
aVcountryman
p993
ag70
aVwho
p994
ag161
aVcome
p995
aValong
p996
aVthe
p997
aVroad
p998
aVand
p999
aVdrive
p1000
ag158
aVcow
p1001
aVbefore
p1002
aVhim
p1003
ag97
asg98
(lp1004
g101
ag101
ag101
ag101
ag101
ag101
ag101
ag101
ag101
ag101
ag101
ag101
ag101
ag101
ag101
ag101
ag101
ag101
ag101
ag101
ag101
ag101
ag101
ag101
ag101
ag101
ag101
ag101
ag101
ag101
asg102
(lp1005
g169
ag108
ag116
ag117
ag106
ag269
ag112
ag109
ag113
ag105
ag112
ag106
ag106
ag109
ag169
ag108
ag111
ag361
ag105
ag326
ag109
ag169
ag108
ag171
ag326
ag169
ag108
ag109
ag113
ag119
asg120
VThe horse would have gone off too if it had not been stopped by a countryman, who was coming along the road and driving a cow before him.
p1006
sba(i__main__
Sentence
p1007
(dp1008
g17
I18
sg18
(lp1009
S'Hans'
p1010
aS'pulled'
p1011
aS'himself'
p1012
aS'together'
p1013
aS'and'
p1014
aS'stood'
p1015
aS'up'
p1016
aS'on'
p1017
aS'his'
p1018
aS'legs'
p1019
aS'again'
p1020
aS','
p1021
aS'but'
p1022
aS'he'
p1023
aS'was'
p1024
aS'vexed'
p1025
aS','
p1026
aS'and'
p1027
aS'said'
p1028
aS'to'
p1029
aS'the'
p1030
aS'countryman'
p1031
aS','
p1032
aS'it'
p1033
aS'is'
p1034
aS'a'
p1035
aS'poor'
p1036
aS'joke'
p1037
aS','
p1038
aS'this'
p1039
aS'riding'
p1040
aS','
p1041
aS'especially'
p1042
aS'when'
p1043
aS'one'
p1044
aS'gets'
p1045
aS'hold'
p1046
aS'of'
p1047
aS'a'
p1048
aS'mare'
p1049
aS'like'
p1050
aS'this'
p1051
aS','
p1052
aS'that'
p1053
aS'kicks'
p1054
aS'and'
p1055
aS'throws'
p1056
aS'one'
p1057
aS'off'
p1058
aS','
p1059
aS'so'
p1060
aS'that'
p1061
aS'one'
p1062
aS'has'
p1063
aS'a'
p1064
aS'chance'
p1065
aS'of'
p1066
aS'breaking'
p1067
aS'one'
p1068
aS"'s"
p1069
aS'neck'
p1070
aS'.'
p1071
asg60
(lp1072
VHans
p1073
aVpull
p1074
aVhimself
p1075
aVtogether
p1076
aVand
p1077
aVstand
p1078
aVup
p1079
aVon
p1080
aVhis
p1081
aVleg
p1082
aVagain
p1083
ag70
aVbut
p1084
aVhe
p1085
ag161
aVvex
p1086
ag70
aVand
p1087
ag73
aVto
p1088
aVthe
p1089
aVcountryman
p1090
ag70
aVit
p1091
ag79
ag158
aVpoor
p1092
aVjoke
p1093
ag70
aVthis
p1094
aVriding
p1095
ag70
aVespecially
p1096
aVwhen
p1097
aVone
p1098
aVget
p1099
aVhold
p1100
aVof
p1101
ag158
aVmare
p1102
aVlike
p1103
aVthis
p1104
ag70
aVthat
p1105
aVkick
p1106
aVand
p1107
aVthrow
p1108
aVone
p1109
aVoff
p1110
ag70
aVso
p1111
aVthat
p1112
aVone
p1113
aVhave
p1114
ag158
aVchance
p1115
aVof
p1116
aVbreak
p1117
aVone
p1118
aV's
p1119
aVneck
p1120
ag97
asg98
(lp1121
VPERSON
p1122
ag101
ag101
ag101
ag101
ag101
ag101
ag101
ag101
ag101
ag101
ag101
ag101
ag101
ag101
ag101
ag101
ag101
ag101
ag101
ag101
ag101
ag101
ag101
ag101
ag101
ag101
ag101
ag101
ag101
ag101
ag101
ag101
ag101
ag101
ag101
ag101
ag101
ag101
ag101
ag101
ag101
ag101
ag101
ag101
ag101
ag101
ag101
ag101
ag101
ag101
ag101
ag101
ag101
ag101
ag101
ag101
ag101
ag101
ag101
ag101
ag101
asg102
(lp1123
g104
ag105
ag113
ag112
ag171
ag105
ag269
ag109
ag107
ag104
ag112
ag111
ag171
ag113
ag105
ag106
ag111
ag171
ag105
ag114
ag169
ag108
ag111
ag113
ag115
ag169
ag118
ag108
ag111
ag169
ag108
ag111
ag112
ag423
ag110
ag104
ag170
ag109
ag169
ag108
ag109
ag169
ag111
ag109
ag104
ag171
ag115
ag110
ag108
ag111
ag112
ag109
ag110
ag115
ag169
ag108
ag109
ag326
ag110
aS'POS'
p1124
ag108
ag119
asg120
VHans pulled himself together and stood up on his legs again, but he was vexed, and said to the countryman, it is a poor joke, this riding, especially when one gets hold of a mare like this, that kicks and throws one off, so that one has a chance of breaking one's neck.
p1125
sba(i__main__
Sentence
p1126
(dp1127
g17
I19
sg18
(lp1128
S'Never'
p1129
aS'again'
p1130
aS'will'
p1131
aS'I'
p1132
aS'mount'
p1133
aS'it'
p1134
aS'.'
p1135
asg60
(lp1136
VNever
p1137
aVagain
p1138
aVwill
p1139
ag82
aVmount
p1140
aVit
p1141
ag97
asg98
(lp1142
g101
ag101
ag101
ag101
ag101
ag101
ag101
asg102
(lp1143
g112
ag112
ag116
ag113
ag117
ag113
ag119
asg120
VNever again will I mount it.
p1144
sba(i__main__
Sentence
p1145
(dp1146
g17
I20
sg18
(lp1147
S'Now'
p1148
aS'I'
p1149
aS'like'
p1150
aS'your'
p1151
aS'cow'
p1152
aS','
p1153
aS'for'
p1154
aS'one'
p1155
aS'can'
p1156
aS'walk'
p1157
aS'quietly'
p1158
aS'behind'
p1159
aS'her'
p1160
aS','
p1161
aS'and'
p1162
aS'have'
p1163
aS','
p1164
aS'over'
p1165
aS'and'
p1166
aS'above'
p1167
aS','
p1168
aS'one'
p1169
aS"'s"
p1170
aS'milk'
p1171
aS','
p1172
aS'butter'
p1173
aS'and'
p1174
aS'cheese'
p1175
aS'every'
p1176
aS'day'
p1177
aS'without'
p1178
aS'fail'
p1179
aS'.'
p1180
asg60
(lp1181
VNow
p1182
ag82
aVlike
p1183
aVyour
p1184
aVcow
p1185
ag70
aVfor
p1186
aVone
p1187
aVcan
p1188
aVwalk
p1189
aVquietly
p1190
aVbehind
p1191
aVher
p1192
ag70
aVand
p1193
aVhave
p1194
ag70
aVover
p1195
aVand
p1196
aVabove
p1197
ag70
aVone
p1198
aV's
p1199
aVmilk
p1200
ag70
aVbutter
p1201
aVand
p1202
aVcheese
p1203
aVevery
p1204
aVday
p1205
aVwithout
p1206
aVfail
p1207
ag97
asg98
(lp1208
g101
ag101
ag101
ag101
ag101
ag101
ag101
ag101
ag101
ag101
ag101
ag101
ag101
ag101
ag101
ag101
ag101
ag101
ag101
ag101
ag101
ag101
ag101
ag101
ag101
ag101
ag101
ag101
ag101
ag101
ag101
ag101
ag101
asg102
(lp1209
g112
ag113
ag170
ag107
ag108
ag111
ag109
ag110
ag116
ag117
ag112
ag109
ag107
ag111
ag171
ag170
ag111
ag109
ag171
ag109
ag111
ag110
ag1124
ag108
ag111
ag108
ag171
ag118
ag169
ag108
ag109
ag108
ag119
asg120
VNow I like your cow, for one can walk quietly behind her, and have, over and above, one's milk, butter and cheese every day without fail.
p1210
sba(i__main__
Sentence
p1211
(dp1212
g17
I21
sg18
(lp1213
S'What'
p1214
aS'would'
p1215
aS'I'
p1216
aS'not'
p1217
aS'give'
p1218
aS'to'
p1219
aS'have'
p1220
aS'such'
p1221
aS'a'
p1222
aS'cow'
p1223
aS'.'
p1224
asg60
(lp1225
VWhat
p1226
aVwould
p1227
ag82
aVnot
p1228
aVgive
p1229
aVto
p1230
aVhave
p1231
aVsuch
p1232
ag158
aVcow
p1233
ag97
asg98
(lp1234
g101
ag101
ag101
ag101
ag101
ag101
ag101
ag101
ag101
ag101
ag101
asg102
(lp1235
g361
ag116
ag113
ag112
ag117
ag114
ag117
ag118
ag169
ag108
ag119
asg120
VWhat would I not give to have such a cow.
p1236
sba(i__main__
Sentence
p1237
(dp1238
g17
I22
sg18
(lp1239
S'Well'
p1240
aS','
p1241
aS'said'
p1242
aS'the'
p1243
aS'countryman'
p1244
aS','
p1245
aS'if'
p1246
aS'it'
p1247
aS'would'
p1248
aS'give'
p1249
aS'you'
p1250
aS'so'
p1251
aS'much'
p1252
aS'pleasure'
p1253
aS','
p1254
aS'I'
p1255
aS'do'
p1256
aS'not'
p1257
aS'mind'
p1258
aS'giving'
p1259
aS'the'
p1260
aS'cow'
p1261
aS'for'
p1262
aS'the'
p1263
aS'horse'
p1264
aS'.'
p1265
asg60
(lp1266
VWell
p1267
ag70
ag73
aVthe
p1268
aVcountryman
p1269
ag70
aVif
p1270
aVit
p1271
aVwould
p1272
aVgive
p1273
aVyou
p1274
aVso
p1275
aVmuch
p1276
aVpleasure
p1277
ag70
ag82
aVdo
p1278
aVnot
p1279
aVmind
p1280
aVgive
p1281
aVthe
p1282
aVcow
p1283
aVfor
p1284
aVthe
p1285
aVhorse
p1286
ag97
asg98
(lp1287
g101
ag101
ag101
ag101
ag101
ag101
ag101
ag101
ag101
ag101
ag101
ag101
ag101
ag101
ag101
ag101
ag101
ag101
ag101
ag101
ag101
ag101
ag101
ag101
ag101
ag101
asg102
(lp1288
g204
ag111
ag105
ag169
ag108
ag111
ag109
ag113
ag116
ag117
ag113
ag112
ag112
ag170
ag111
ag113
ag170
ag112
ag117
ag326
ag169
ag108
ag109
ag169
ag108
ag119
asg120
VWell, said the countryman, if it would give you so much pleasure, I do not mind giving the cow for the horse.
p1289
sba(i__main__
Sentence
p1290
(dp1291
g17
I23
sg18
(lp1292
S'Hans'
p1293
aS'agreed'
p1294
aS'with'
p1295
aS'the'
p1296
aS'greatest'
p1297
aS'delight'
p1298
aS','
p1299
aS'the'
p1300
aS'countryman'
p1301
aS'jumped'
p1302
aS'upon'
p1303
aS'the'
p1304
aS'horse'
p1305
aS','
p1306
aS'and'
p1307
aS'rode'
p1308
aS'quickly'
p1309
aS'away'
p1310
aS'.'
p1311
asg60
(lp1312
VHans
p1313
aVagree
p1314
aVwith
p1315
aVthe
p1316
aVgreat
p1317
aVdelight
p1318
ag70
aVthe
p1319
aVcountryman
p1320
aVjump
p1321
aVupon
p1322
aVthe
p1323
aVhorse
p1324
ag70
aVand
p1325
aVride
p1326
aVquickly
p1327
aVaway
p1328
ag97
asg98
(lp1329
VPERSON
p1330
ag101
ag101
ag101
ag101
ag101
ag101
ag101
ag101
ag101
ag101
ag101
ag101
ag101
ag101
ag101
ag101
ag101
ag101
asg102
(lp1331
g104
ag105
ag109
ag169
aS'JJS'
p1332
ag108
ag111
ag169
ag108
ag105
ag109
ag169
ag108
ag111
ag171
ag117
ag112
ag112
ag119
asg120
VHans agreed with the greatest delight, the countryman jumped upon the horse, and rode quickly away.
p1333
sba(i__main__
Sentence
p1334
(dp1335
g17
I24
sg18
(lp1336
S'Hans'
p1337
aS'drove'
p1338
aS'his'
p1339
aS'cow'
p1340
aS'quietly'
p1341
aS'before'
p1342
aS'him'
p1343
aS','
p1344
aS'and'
p1345
aS'thought'
p1346
aS'over'
p1347
aS'his'
p1348
aS'lucky'
p1349
aS'bargain'
p1350
aS'.'
p1351
asg60
(lp1352
VHans
p1353
aVdrive
p1354
aVhis
p1355
aVcow
p1356
aVquietly
p1357
aVbefore
p1358
aVhim
p1359
ag70
aVand
p1360
ag842
aVover
p1361
aVhis
p1362
aVlucky
p1363
aVbargain
p1364
ag97
asg98
(lp1365
VPERSON
p1366
ag101
ag101
ag101
ag101
ag101
ag101
ag101
ag101
ag101
ag101
ag101
ag101
ag101
ag101
asg102
(lp1367
g104
ag105
ag107
ag108
ag112
ag109
ag113
ag111
ag171
ag105
ag269
ag107
ag108
ag108
ag119
asg120
VHans drove his cow quietly before him, and thought over his lucky bargain.
p1368
sba(i__main__
Sentence
p1369
(dp1370
g17
I25
sg18
(lp1371
S'If'
p1372
aS'only'
p1373
aS'I'
p1374
aS'have'
p1375
aS'a'
p1376
aS'morsel'
p1377
aS'of'
p1378
aS'bread'
p1379
aS'-'
p1380
aS'and'
p1381
aS'that'
p1382
aS'can'
p1383
aS'hardly'
p1384
aS'fail'
p1385
aS'me'
p1386
aS'-'
p1387
aS'I'
p1388
aS'can'
p1389
aS'eat'
p1390
aS'butter'
p1391
aS'and'
p1392
aS'cheese'
p1393
aS'with'
p1394
aS'it'
p1395
aS'as'
p1396
aS'often'
p1397
aS'as'
p1398
aS'I'
p1399
aS'like'
p1400
aS','
p1401
aS'if'
p1402
aS'I'
p1403
aS'am'
p1404
aS'thirsty'
p1405
aS','
p1406
aS'I'
p1407
aS'can'
p1408
aS'milk'
p1409
aS'my'
p1410
aS'cow'
p1411
aS'and'
p1412
aS'drink'
p1413
aS'the'
p1414
aS'milk'
p1415
aS'.'
p1416
asg60
(lp1417
VIf
p1418
aVonly
p1419
ag82
aVhave
p1420
ag158
aVmorsel
p1421
aVof
p1422
aVbread
p1423
aV-
p1424
aVand
p1425
aVthat
p1426
aVcan
p1427
aVhardly
p1428
aVfail
p1429
aVme
p1430
ag1424
ag82
aVcan
p1431
aVeat
p1432
aVbutter
p1433
aVand
p1434
aVcheese
p1435
aVwith
p1436
aVit
p1437
ag158
aVoften
p1438
ag158
ag82
aVlike
p1439
ag70
aVif
p1440
ag82
aVbe
p1441
aVthirsty
p1442
ag70
ag82
aVcan
p1443
aVmilk
p1444
aVmy
p1445
aVcow
p1446
aVand
p1447
aVdrink
p1448
aVthe
p1449
aVmilk
p1450
ag97
asg98
(lp1451
g101
ag101
ag101
ag101
ag101
ag101
ag101
ag101
ag101
ag101
ag101
ag101
ag101
ag101
ag101
ag101
ag101
ag101
ag101
ag101
ag101
ag101
ag101
ag101
ag101
ag101
ag101
ag101
ag101
ag101
ag101
ag101
ag101
ag101
ag101
ag101
ag101
ag101
ag101
ag101
ag101
ag101
ag101
ag101
ag101
asg102
(lp1452
g109
ag112
ag113
ag170
ag169
ag108
ag109
ag108
aS':'
p1453
ag171
ag109
ag116
ag112
ag117
ag113
ag1453
ag113
ag116
ag117
ag108
ag171
ag118
ag109
ag113
ag109
ag112
ag109
ag113
ag109
ag111
ag109
ag113
ag170
ag118
ag111
ag113
ag116
ag117
ag107
ag108
ag171
ag108
ag169
ag108
ag119
asg120
VIf only I have a morsel of bread - and that can hardly fail me - I can eat butter and cheese with it as often as I like, if I am thirsty, I can milk my cow and drink the milk.
p1454
sba(i__main__
Sentence
p1455
(dp1456
g17
I26
sg18
(lp1457
S'My'
p1458
aS'goodness'
p1459
aS','
p1460
aS'what'
p1461
aS'more'
p1462
aS'can'
p1463
aS'I'
p1464
aS'want'
p1465
aS'.'
p1466
asg60
(lp1467
VMy
p1468
aVgoodness
p1469
ag70
aVwhat
p1470
aVmore
p1471
aVcan
p1472
ag82
aVwant
p1473
ag97
asg98
(lp1474
g101
ag101
ag101
ag101
ag101
ag101
ag101
ag101
ag101
asg102
(lp1475
g107
ag108
ag111
ag361
ag863
ag116
ag113
ag170
ag119
asg120
VMy goodness, what more can I want.
p1476
sba(i__main__
Sentence
p1477
(dp1478
g17
I27
sg18
(lp1479
S'When'
p1480
aS'he'
p1481
aS'came'
p1482
aS'to'
p1483
aS'an'
p1484
aS'inn'
p1485
aS'he'
p1486
aS'made'
p1487
aS'a'
p1488
aS'halt'
p1489
aS','
p1490
aS'and'
p1491
aS'in'
p1492
aS'his'
p1493
aS'great'
p1494
aS'concern'
p1495
aS'ate'
p1496
aS'up'
p1497
aS'what'
p1498
aS'he'
p1499
aS'had'
p1500
aS'with'
p1501
aS'him'
p1502
aS'-'
p1503
aS'his'
p1504
aS'dinner'
p1505
aS'and'
p1506
aS'supper'
p1507
aS'-'
p1508
aS'and'
p1509
aS'all'
p1510
aS'he'
p1511
aS'had'
p1512
aS','
p1513
aS'and'
p1514
aS'with'
p1515
aS'his'
p1516
aS'last'
p1517
aS'few'
p1518
aS'farthings'
p1519
aS'had'
p1520
aS'half'
p1521
aS'a'
p1522
aS'glass'
p1523
aS'of'
p1524
aS'beer'
p1525
aS'.'
p1526
asg60
(lp1527
VWhen
p1528
aVhe
p1529
aVcome
p1530
aVto
p1531
aVan
p1532
aVinn
p1533
aVhe
p1534
aVmake
p1535
ag158
aVhalt
p1536
ag70
aVand
p1537
aVin
p1538
aVhis
p1539
aVgreat
p1540
aVconcern
p1541
aVate
p1542
aVup
p1543
aVwhat
p1544
aVhe
p1545
ag63
aVwith
p1546
aVhim
p1547
ag1424
aVhis
p1548
aVdinner
p1549
aVand
p1550
aVsupper
p1551
ag1424
aVand
p1552
aVall
p1553
aVhe
p1554
ag63
ag70
aVand
p1555
aVwith
p1556
aVhis
p1557
aVlast
p1558
aVfew
p1559
aVfarthing
p1560
ag63
aVhalf
p1561
ag158
aVglass
p1562
aVof
p1563
aVbeer
p1564
ag97
asg98
(lp1565
g101
ag101
ag101
ag101
ag101
ag101
ag101
ag101
ag101
ag101
ag101
ag101
ag101
ag101
ag101
ag101
ag101
ag101
ag101
ag101
ag101
ag101
ag101
ag101
ag101
ag101
ag101
ag101
ag101
ag101
ag101
ag101
ag101
ag101
ag101
ag101
ag101
ag101
ag101
ag101
ag101
ag101
ag101
ag101
ag101
ag101
ag101
asg102
(lp1566
g423
ag113
ag105
ag114
ag169
ag108
ag113
ag105
ag169
ag108
ag111
ag171
ag109
ag107
ag118
ag108
ag108
ag109
ag361
ag113
ag105
ag109
ag113
ag1453
ag107
ag108
ag171
ag108
ag1453
ag171
ag169
ag113
ag105
ag111
ag171
ag109
ag107
ag118
ag118
ag104
ag105
ag169
ag169
ag108
ag109
ag108
ag119
asg120
VWhen he came to an inn he made a halt, and in his great concern ate up what he had with him - his dinner and supper - and all he had, and with his last few farthings had half a glass of beer.
p1567
sba(i__main__
Sentence
p1568
(dp1569
g17
I28
sg18
(lp1570
S'Then'
p1571
aS'he'
p1572
aS'drove'
p1573
aS'his'
p1574
aS'cow'
p1575
aS'onwards'
p1576
aS'along'
p1577
aS'the'
p1578
aS'road'
p1579
aS'to'
p1580
aS'his'
p1581
aS'mother'
p1582
aS"'s"
p1583
aS'village'
p1584
aS'.'
p1585
asg60
(lp1586
VThen
p1587
aVhe
p1588
ag1354
aVhis
p1589
aVcow
p1590
aVonwards
p1591
aValong
p1592
aVthe
p1593
aVroad
p1594
aVto
p1595
aVhis
p1596
aVmother
p1597
aV's
p1598
aVvillage
p1599
ag97
asg98
(lp1600
g101
ag101
ag101
ag101
ag101
ag101
ag101
ag101
ag101
ag101
ag101
ag101
ag101
ag101
ag101
asg102
(lp1601
g112
ag113
ag105
ag107
ag108
ag104
ag109
ag169
ag108
ag114
ag107
ag108
ag1124
ag108
ag119
asg120
VThen he drove his cow onwards along the road to his mother's village.
p1602
sba(i__main__
Sentence
p1603
(dp1604
g17
I29
sg18
(lp1605
S'As'
p1606
aS'it'
p1607
aS'drew'
p1608
aS'nearer'
p1609
aS'mid-day'
p1610
aS','
p1611
aS'the'
p1612
aS'heat'
p1613
aS'was'
p1614
aS'more'
p1615
aS'oppressive'
p1616
aS','
p1617
aS'and'
p1618
aS'Hans'
p1619
aS'found'
p1620
aS'himself'
p1621
aS'upon'
p1622
aS'a'
p1623
aS'moor'
p1624
aS'which'
p1625
aS'it'
p1626
aS'took'
p1627
aS'about'
p1628
aS'an'
p1629
aS'hour'
p1630
aS'to'
p1631
aS'cross'
p1632
aS'.'
p1633
asg60
(lp1634
VAs
p1635
aVit
p1636
aVdraw
p1637
aVnearer
p1638
aVmid-day
p1639
ag70
aVthe
p1640
aVheat
p1641
ag161
aVmore
p1642
aVoppressive
p1643
ag70
aVand
p1644
aVHans
p1645
aVfind
p1646
aVhimself
p1647
aVupon
p1648
ag158
aVmoor
p1649
aVwhich
p1650
aVit
p1651
ag717
aVabout
p1652
aVan
p1653
aVhour
p1654
aVto
p1655
aVcross
p1656
ag97
asg98
(lp1657
g101
ag101
ag101
ag101
ag101
ag101
ag101
ag101
ag101
ag101
ag101
ag101
ag101
aVPERSON
p1658
ag101
ag101
ag101
ag101
ag101
ag101
ag101
ag101
ag101
ag101
ag101
ag101
ag101
ag101
asg102
(lp1659
g109
ag113
ag105
ag108
ag108
ag111
ag169
ag108
ag105
ag863
ag118
ag111
ag171
ag204
ag105
ag113
ag109
ag169
ag108
ag945
ag113
ag105
ag109
ag169
ag108
ag114
ag104
ag119
asg120
VAs it drew nearer mid-day, the heat was more oppressive, and Hans found himself upon a moor which it took about an hour to cross.
p1660
sba(i__main__
Sentence
p1661
(dp1662
g17
I30
sg18
(lp1663
S'He'
p1664
aS'felt'
p1665
aS'it'
p1666
aS'very'
p1667
aS'hot'
p1668
aS'and'
p1669
aS'his'
p1670
aS'tongue'
p1671
aS'clave'
p1672
aS'to'
p1673
aS'the'
p1674
aS'roof'
p1675
aS'of'
p1676
aS'his'
p1677
aS'mouth'
p1678
aS'with'
p1679
aS'thirst'
p1680
aS'.'
p1681
asg60
(lp1682
VHe
p1683
aVfelt
p1684
aVit
p1685
aVvery
p1686
aVhot
p1687
aVand
p1688
aVhis
p1689
aVtongue
p1690
aVclave
p1691
aVto
p1692
aVthe
p1693
aVroof
p1694
aVof
p1695
aVhis
p1696
aVmouth
p1697
aVwith
p1698
aVthirst
p1699
ag97
asg98
(lp1700
g101
ag101
ag101
ag101
ag101
ag101
ag101
ag101
ag101
ag101
ag101
ag101
ag101
ag101
ag101
ag101
ag101
ag101
asg102
(lp1701
g113
ag105
ag113
ag112
ag118
ag171
ag107
ag108
ag105
ag114
ag169
ag108
ag109
ag107
ag108
ag109
ag118
ag119
asg120
VHe felt it very hot and his tongue clave to the roof of his mouth with thirst.
p1702
sba(i__main__
Sentence
p1703
(dp1704
g17
I31
sg18
(lp1705
S'I'
p1706
aS'can'
p1707
aS'find'
p1708
aS'a'
p1709
aS'cure'
p1710
aS'for'
p1711
aS'this'
p1712
aS','
p1713
aS'thought'
p1714
aS'Hans'
p1715
aS','
p1716
aS'I'
p1717
aS'will'
p1718
aS'milk'
p1719
aS'the'
p1720
aS'cow'
p1721
aS'now'
p1722
aS'and'
p1723
aS'refresh'
p1724
aS'myself'
p1725
aS'with'
p1726
aS'the'
p1727
aS'milk'
p1728
aS'.'
p1729
asg60
(lp1730
g82
aVcan
p1731
aVfind
p1732
ag158
aVcure
p1733
aVfor
p1734
aVthis
p1735
ag70
ag842
aVHans
p1736
ag70
ag82
aVwill
p1737
aVmilk
p1738
aVthe
p1739
aVcow
p1740
aVnow
p1741
aVand
p1742
aVrefresh
p1743
aVmyself
p1744
aVwith
p1745
aVthe
p1746
aVmilk
p1747
ag97
asg98
(lp1748
g101
ag101
ag101
ag101
ag101
ag101
ag101
ag101
ag101
aVPERSON
p1749
ag101
ag101
ag101
ag101
ag101
ag101
ag101
ag101
ag101
ag101
ag101
ag101
ag101
ag101
asg102
(lp1750
g113
ag116
ag117
ag169
ag108
ag109
ag169
ag111
ag105
ag204
ag111
ag113
ag116
ag117
ag169
ag108
ag112
ag171
ag118
ag108
ag109
ag169
ag108
ag119
asg120
VI can find a cure for this, thought Hans, I will milk the cow now and refresh myself with the milk.
p1751
sba(i__main__
Sentence
p1752
(dp1753
g17
I32
sg18
(lp1754
S'He'
p1755
aS'tied'
p1756
aS'her'
p1757
aS'to'
p1758
aS'a'
p1759
aS'withered'
p1760
aS'tree'
p1761
aS','
p1762
aS'and'
p1763
aS'as'
p1764
aS'he'
p1765
aS'had'
p1766
aS'no'
p1767
aS'pail'
p1768
aS'he'
p1769
aS'put'
p1770
aS'his'
p1771
aS'leather'
p1772
aS'cap'
p1773
aS'underneath'
p1774
aS','
p1775
aS'but'
p1776
aS'try'
p1777
aS'as'
p1778
aS'he'
p1779
aS'would'
p1780
aS','
p1781
aS'not'
p1782
aS'a'
p1783
aS'drop'
p1784
aS'of'
p1785
aS'milk'
p1786
aS'came'
p1787
aS'.'
p1788
asg60
(lp1789
VHe
p1790
aVtie
p1791
aVher
p1792
aVto
p1793
ag158
aVwither
p1794
aVtree
p1795
ag70
aVand
p1796
ag158
aVhe
p1797
ag63
aVno
p1798
aVpail
p1799
aVhe
p1800
aVput
p1801
aVhis
p1802
aVleather
p1803
aVcap
p1804
aVunderneath
p1805
ag70
aVbut
p1806
aVtry
p1807
ag158
aVhe
p1808
aVwould
p1809
ag70
aVnot
p1810
ag158
aVdrop
p1811
aVof
p1812
aVmilk
p1813
ag1530
ag97
asg98
(lp1814
g101
ag101
ag101
ag101
ag101
ag101
ag101
ag101
ag101
ag101
ag101
ag101
ag101
ag101
ag101
ag101
ag101
ag101
ag101
ag101
ag101
ag101
ag101
ag101
ag101
ag101
ag101
ag101
ag101
ag101
ag101
ag101
ag101
ag101
asg102
(lp1815
g113
ag105
ag113
ag114
ag169
ag106
ag108
ag111
ag171
ag109
ag113
ag105
ag169
ag108
ag113
ag105
ag107
ag108
ag108
ag108
ag111
ag171
ag108
ag109
ag113
ag116
ag111
ag112
ag169
ag108
ag109
ag108
ag105
ag119
asg120
VHe tied her to a withered tree, and as he had no pail he put his leather cap underneath, but try as he would, not a drop of milk came.
p1816
sba(i__main__
Sentence
p1817
(dp1818
g17
I33
sg18
(lp1819
S'And'
p1820
aS'as'
p1821
aS'he'
p1822
aS'set'
p1823
aS'himself'
p1824
aS'to'
p1825
aS'work'
p1826
aS'in'
p1827
aS'a'
p1828
aS'clumsy'
p1829
aS'way'
p1830
aS','
p1831
aS'the'
p1832
aS'impatient'
p1833
aS'beast'
p1834
aS'at'
p1835
aS'last'
p1836
aS'gave'
p1837
aS'him'
p1838
aS'such'
p1839
aS'a'
p1840
aS'blow'
p1841
aS'on'
p1842
aS'his'
p1843
aS'head'
p1844
aS'with'
p1845
aS'its'
p1846
aS'hind'
p1847
aS'foot'
p1848
aS','
p1849
aS'that'
p1850
aS'he'
p1851
aS'fell'
p1852
aS'on'
p1853
aS'the'
p1854
aS'ground'
p1855
aS','
p1856
aS'and'
p1857
aS'for'
p1858
aS'a'
p1859
aS'long'
p1860
aS'time'
p1861
aS'could'
p1862
aS'not'
p1863
aS'think'
p1864
aS'where'
p1865
aS'he'
p1866
aS'was'
p1867
aS'.'
p1868
asg60
(lp1869
VAnd
p1870
ag158
aVhe
p1871
aVset
p1872
aVhimself
p1873
aVto
p1874
aVwork
p1875
aVin
p1876
ag158
aVclumsy
p1877
aVway
p1878
ag70
aVthe
p1879
aVimpatient
p1880
aVbeast
p1881
aVat
p1882
aVlast
p1883
aVgave
p1884
aVhim
p1885
aVsuch
p1886
ag158
aVblow
p1887
aVon
p1888
aVhis
p1889
aVhead
p1890
aVwith
p1891
aVit
p1892
aVhind
p1893
aVfoot
p1894
ag70
aVthat
p1895
aVhe
p1896
aVfell
p1897
aVon
p1898
aVthe
p1899
aVground
p1900
ag70
aVand
p1901
aVfor
p1902
ag158
aVlong
p1903
aVtime
p1904
aVcould
p1905
aVnot
p1906
aVthink
p1907
aVwhere
p1908
aVhe
p1909
ag161
ag97
asg98
(lp1910
g101
ag101
ag101
ag101
ag101
ag101
ag101
ag101
ag101
ag101
ag101
ag101
ag101
ag101
ag101
ag101
ag101
ag101
ag101
ag101
ag101
ag101
ag101
ag101
ag101
ag101
ag101
ag101
ag101
ag101
ag101
ag101
ag101
ag101
ag101
ag101
ag101
ag101
ag101
ag101
ag101
ag101
ag101
ag101
ag101
ag101
ag101
ag101
ag101
asg102
(lp1911
g171
ag109
ag113
ag105
ag113
ag114
ag117
ag109
ag169
ag108
ag108
ag111
ag169
ag108
ag108
ag109
ag118
ag108
ag113
ag118
ag169
ag108
ag109
ag107
ag108
ag109
ag107
ag108
ag108
ag111
ag109
ag113
ag105
ag109
ag169
ag108
ag111
ag171
ag109
ag169
ag118
ag108
ag116
ag112
ag117
ag423
ag113
ag105
ag119
asg120
VAnd as he set himself to work in a clumsy way, the impatient beast at last gave him such a blow on his head with its hind foot, that he fell on the ground, and for a long time could not think where he was.
p1912
sba(i__main__
Sentence
p1913
(dp1914
g17
I34
sg18
(lp1915
S'By'
p1916
aS'good'
p1917
aS'fortune'
p1918
aS'a'
p1919
aS'butcher'
p1920
aS'just'
p1921
aS'then'
p1922
aS'came'
p1923
aS'along'
p1924
aS'the'
p1925
aS'road'
p1926
aS'with'
p1927
aS'a'
p1928
aS'wheel-barrow'
p1929
aS','
p1930
aS'in'
p1931
aS'which'
p1932
aS'lay'
p1933
aS'a'
p1934
aS'young'
p1935
aS'pig'
p1936
aS'.'
p1937
asg60
(lp1938
VBy
p1939
aVgood
p1940
aVfortune
p1941
ag158
aVbutcher
p1942
aVjust
p1943
aVthen
p1944
ag1530
aValong
p1945
aVthe
p1946
aVroad
p1947
aVwith
p1948
ag158
aVwheel-barrow
p1949
ag70
aVin
p1950
aVwhich
p1951
aVlay
p1952
ag158
aVyoung
p1953
aVpig
p1954
ag97
asg98
(lp1955
g101
ag101
ag101
ag101
ag101
ag101
ag101
ag101
ag101
ag101
ag101
ag101
ag101
ag101
ag101
ag101
ag101
ag101
ag101
ag101
ag101
ag101
asg102
(lp1956
g109
ag118
ag108
ag169
ag108
ag112
ag112
ag105
ag109
ag169
ag108
ag109
ag169
ag118
ag111
ag109
ag945
ag108
ag169
ag118
ag108
ag119
asg120
VBy good fortune a butcher just then came along the road with a wheel-barrow, in which lay a young pig.
p1957
sba(i__main__
Sentence
p1958
(dp1959
g17
I35
sg18
(lp1960
S'What'
p1961
aS'sort'
p1962
aS'of'
p1963
aS'a'
p1964
aS'trick'
p1965
aS'is'
p1966
aS'this'
p1967
aS','
p1968
aS'cried'
p1969
aS'he'
p1970
aS','
p1971
aS'and'
p1972
aS'helped'
p1973
aS'the'
p1974
aS'good'
p1975
aS'Hans'
p1976
aS'up'
p1977
aS'.'
p1978
asg60
(lp1979
VWhat
p1980
aVsort
p1981
aVof
p1982
ag158
aVtrick
p1983
ag79
aVthis
p1984
ag70
aVcry
p1985
aVhe
p1986
ag70
aVand
p1987
aVhelp
p1988
aVthe
p1989
aVgood
p1990
aVHans
p1991
aVup
p1992
ag97
asg98
(lp1993
g101
ag101
ag101
ag101
ag101
ag101
ag101
ag101
ag101
ag101
ag101
ag101
ag101
ag101
ag101
aVPERSON
p1994
ag101
ag101
asg102
(lp1995
g361
ag108
ag109
ag169
ag108
ag115
ag169
ag111
ag105
ag113
ag111
ag171
ag105
ag169
ag118
ag104
ag109
ag119
asg120
VWhat sort of a trick is this, cried he, and helped the good Hans up.
p1996
sba(i__main__
Sentence
p1997
(dp1998
g17
I36
sg18
(lp1999
S'Hans'
p2000
aS'told'
p2001
aS'him'
p2002
aS'what'
p2003
aS'had'
p2004
aS'happened'
p2005
aS'.'
p2006
asg60
(lp2007
VHans
p2008
aVtell
p2009
aVhim
p2010
aVwhat
p2011
ag63
aVhappen
p2012
ag97
asg98
(lp2013
VPERSON
p2014
ag101
ag101
ag101
ag101
ag101
ag101
asg102
(lp2015
g104
ag105
ag113
ag361
ag105
ag106
ag119
asg120
VHans told him what had happened.
p2016
sba(i__main__
Sentence
p2017
(dp2018
g17
I37
sg18
(lp2019
S'The'
p2020
aS'butcher'
p2021
aS'gave'
p2022
aS'him'
p2023
aS'his'
p2024
aS'flask'
p2025
aS'and'
p2026
aS'said'
p2027
aS','
p2028
aS'take'
p2029
aS'a'
p2030
aS'drink'
p2031
aS'and'
p2032
aS'refresh'
p2033
aS'yourself'
p2034
aS'.'
p2035
asg60
(lp2036
VThe
p2037
aVbutcher
p2038
ag193
aVhim
p2039
aVhis
p2040
aVflask
p2041
aVand
p2042
ag73
ag70
aVtake
p2043
ag158
aVdrink
p2044
aVand
p2045
aVrefresh
p2046
aVyourself
p2047
ag97
asg98
(lp2048
g101
ag101
ag101
ag101
ag101
ag101
ag101
ag101
ag101
ag101
ag101
ag101
ag101
ag101
ag101
ag101
asg102
(lp2049
g169
ag108
ag105
ag113
ag107
ag108
ag171
ag105
ag111
ag117
ag169
ag108
ag171
ag118
ag108
ag119
asg120
VThe butcher gave him his flask and said, take a drink and refresh yourself.
p2050
sba(i__main__
Sentence
p2051
(dp2052
g17
I38
sg18
(lp2053
S'The'
p2054
aS'cow'
p2055
aS'will'
p2056
aS'certainly'
p2057
aS'give'
p2058
aS'no'
p2059
aS'milk'
p2060
aS','
p2061
aS'it'
p2062
aS'is'
p2063
aS'an'
p2064
aS'old'
p2065
aS'beast'
p2066
aS','
p2067
aS'at'
p2068
aS'the'
p2069
aS'best'
p2070
aS'it'
p2071
aS'is'
p2072
aS'only'
p2073
aS'fit'
p2074
aS'for'
p2075
aS'the'
p2076
aS'plough'
p2077
aS','
p2078
aS'or'
p2079
aS'for'
p2080
aS'the'
p2081
aS'butcher'
p2082
aS'.'
p2083
asg60
(lp2084
VThe
p2085
aVcow
p2086
aVwill
p2087
aVcertainly
p2088
aVgive
p2089
aVno
p2090
aVmilk
p2091
ag70
aVit
p2092
ag79
aVan
p2093
aVold
p2094
aVbeast
p2095
ag70
aVat
p2096
aVthe
p2097
aVbest
p2098
aVit
p2099
ag79
aVonly
p2100
aVfit
p2101
aVfor
p2102
aVthe
p2103
aVplough
p2104
ag70
aVor
p2105
aVfor
p2106
aVthe
p2107
aVbutcher
p2108
ag97
asg98
(lp2109
g101
ag101
ag101
ag101
ag101
ag101
ag101
ag101
ag101
ag101
ag101
ag101
ag101
ag101
ag101
ag101
ag101
ag101
ag101
ag101
ag101
ag101
ag101
ag101
ag101
ag101
ag101
ag101
ag101
ag101
asg102
(lp2110
g169
ag108
ag116
ag112
ag117
ag169
ag108
ag111
ag113
ag115
ag169
ag118
ag108
ag111
ag109
ag169
ag1332
ag113
ag115
ag112
ag118
ag109
ag169
ag118
ag111
ag171
ag109
ag169
ag108
ag119
asg120
VThe cow will certainly give no milk, it is an old beast, at the best it is only fit for the plough, or for the butcher.
p2111
sba(i__main__
Sentence
p2112
(dp2113
g17
I39
sg18
(lp2114
S'Well'
p2115
aS','
p2116
aS'well'
p2117
aS','
p2118
aS'said'
p2119
aS'Hans'
p2120
aS','
p2121
aS'as'
p2122
aS'he'
p2123
aS'stroked'
p2124
aS'his'
p2125
aS'hair'
p2126
aS'down'
p2127
aS'on'
p2128
aS'his'
p2129
aS'head'
p2130
aS','
p2131
aS'who'
p2132
aS'would'
p2133
aS'have'
p2134
aS'thought'
p2135
aS'it'
p2136
aS'.'
p2137
asg60
(lp2138
VWell
p2139
ag70
aVwell
p2140
ag70
ag73
aVHans
p2141
ag70
ag158
aVhe
p2142
aVstroke
p2143
aVhis
p2144
aVhair
p2145
aVdown
p2146
aVon
p2147
aVhis
p2148
aVhead
p2149
ag70
aVwho
p2150
aVwould
p2151
aVhave
p2152
ag842
aVit
p2153
ag97
asg98
(lp2154
g101
ag101
ag101
ag101
ag101
aVPERSON
p2155
ag101
ag101
ag101
ag101
ag101
ag101
ag101
ag101
ag101
ag101
ag101
ag101
ag101
ag101
ag101
ag101
ag101
asg102
(lp2156
g204
ag111
ag112
ag111
ag105
ag204
ag111
ag109
ag113
ag105
ag107
ag108
ag109
ag109
ag107
ag108
ag111
ag361
ag116
ag117
ag106
ag113
ag119
asg120
VWell, well, said Hans, as he stroked his hair down on his head, who would have thought it.
p2157
sba(i__main__
Sentence
p2158
(dp2159
g17
I40
sg18
(lp2160
S'Certainly'
p2161
aS'it'
p2162
aS'is'
p2163
aS'a'
p2164
aS'fine'
p2165
aS'thing'
p2166
aS'when'
p2167
aS'one'
p2168
aS'can'
p2169
aS'kill'
p2170
aS'a'
p2171
aS'beast'
p2172
aS'like'
p2173
aS'that'
p2174
aS'at'
p2175
aS'home'
p2176
aS','
p2177
aS'what'
p2178
aS'meat'
p2179
aS'one'
p2180
aS'has'
p2181
aS'.'
p2182
asg60
(lp2183
VCertainly
p2184
aVit
p2185
ag79
ag158
aVfine
p2186
aVthing
p2187
aVwhen
p2188
aVone
p2189
aVcan
p2190
aVkill
p2191
ag158
aVbeast
p2192
aVlike
p2193
aVthat
p2194
aVat
p2195
aVhome
p2196
ag70
aVwhat
p2197
aVmeat
p2198
aVone
p2199
ag1114
ag97
asg98
(lp2200
g101
ag101
ag101
ag101
ag101
ag101
ag101
ag101
ag101
ag101
ag101
ag101
ag101
ag101
ag101
ag101
ag101
ag101
ag101
ag101
ag101
ag101
asg102
(lp2201
g112
ag113
ag115
ag169
ag108
ag108
ag423
ag110
ag116
ag117
ag169
ag118
ag109
ag169
ag109
ag108
ag111
ag361
ag108
ag110
ag115
ag119
asg120
VCertainly it is a fine thing when one can kill a beast like that at home, what meat one has.
p2202
sba(i__main__
Sentence
p2203
(dp2204
g17
I41
sg18
(lp2205
S'But'
p2206
aS'I'
p2207
aS'do'
p2208
aS'not'
p2209
aS'care'
p2210
aS'much'
p2211
aS'for'
p2212
aS'beef'
p2213
aS','
p2214
aS'it'
p2215
aS'is'
p2216
aS'not'
p2217
aS'juicy'
p2218
aS'enough'
p2219
aS'for'
p2220
aS'me'
p2221
aS'.'
p2222
asg60
(lp2223
VBut
p2224
ag82
aVdo
p2225
aVnot
p2226
aVcare
p2227
aVmuch
p2228
aVfor
p2229
aVbeef
p2230
ag70
aVit
p2231
ag79
aVnot
p2232
aVjuicy
p2233
aVenough
p2234
aVfor
p2235
aVme
p2236
ag97
asg98
(lp2237
g101
ag101
ag101
ag101
ag101
ag101
ag101
ag101
ag101
ag101
ag101
ag101
ag101
ag101
ag101
ag101
ag101
asg102
(lp2238
g171
ag113
ag170
ag112
ag117
ag118
ag109
ag108
ag111
ag113
ag115
ag112
ag108
ag112
ag109
ag113
ag119
asg120
VBut I do not care much for beef, it is not juicy enough for me.
p2239
sba(i__main__
Sentence
p2240
(dp2241
g17
I42
sg18
(lp2242
S'A'
p2243
aS'young'
p2244
aS'pig'
p2245
aS'like'
p2246
aS'that'
p2247
aS'now'
p2248
aS'is'
p2249
aS'the'
p2250
aS'thing'
p2251
aS'to'
p2252
aS'have'
p2253
aS','
p2254
aS'it'
p2255
aS'tastes'
p2256
aS'quite'
p2257
aS'different'
p2258
aS','
p2259
aS'and'
p2260
aS'then'
p2261
aS'there'
p2262
aS'are'
p2263
aS'the'
p2264
aS'sausages'
p2265
aS'.'
p2266
asg60
(lp2267
VA
p2268
aVyoung
p2269
aVpig
p2270
aVlike
p2271
aVthat
p2272
aVnow
p2273
ag79
aVthe
p2274
aVthing
p2275
aVto
p2276
aVhave
p2277
ag70
aVit
p2278
aVtaste
p2279
aVquite
p2280
aVdifferent
p2281
ag70
aVand
p2282
aVthen
p2283
aVthere
p2284
aVbe
p2285
aVthe
p2286
aVsausage
p2287
ag97
asg98
(lp2288
g101
ag101
ag101
ag101
ag101
ag101
ag101
ag101
ag101
ag101
ag101
ag101
ag101
ag101
ag101
ag101
ag101
ag101
ag101
ag101
ag101
ag101
ag101
ag101
asg102
(lp2289
g169
ag118
ag108
ag109
ag169
ag112
ag115
ag169
ag108
ag114
ag117
ag111
ag113
ag115
ag112
ag118
ag111
ag171
ag112
ag112
ag170
ag169
ag104
ag119
asg120
VA young pig like that now is the thing to have, it tastes quite different, and then there are the sausages.
p2290
sba(i__main__
Sentence
p2291
(dp2292
g17
I43
sg18
(lp2293
S'Listen'
p2294
aS','
p2295
aS'Hans'
p2296
aS','
p2297
aS'said'
p2298
aS'the'
p2299
aS'butcher'
p2300
aS','
p2301
aS'out'
p2302
aS'of'
p2303
aS'love'
p2304
aS'for'
p2305
aS'you'
p2306
aS'I'
p2307
aS'will'
p2308
aS'exchange'
p2309
aS','
p2310
aS'and'
p2311
aS'will'
p2312
aS'let'
p2313
aS'you'
p2314
aS'have'
p2315
aS'the'
p2316
aS'pig'
p2317
aS'for'
p2318
aS'the'
p2319
aS'cow'
p2320
aS'.'
p2321
asg60
(lp2322
VListen
p2323
ag70
aVHans
p2324
ag70
ag73
aVthe
p2325
aVbutcher
p2326
ag70
aVout
p2327
aVof
p2328
aVlove
p2329
aVfor
p2330
aVyou
p2331
ag82
aVwill
p2332
aVexchange
p2333
ag70
aVand
p2334
aVwill
p2335
aVlet
p2336
aVyou
p2337
aVhave
p2338
aVthe
p2339
aVpig
p2340
aVfor
p2341
aVthe
p2342
aVcow
p2343
ag97
asg98
(lp2344
g101
ag101
aVPERSON
p2345
ag101
ag101
ag101
ag101
ag101
ag101
ag101
ag101
ag101
ag101
ag101
ag101
ag101
ag101
ag101
ag101
ag101
ag101
ag101
ag101
ag101
ag101
ag101
ag101
ag101
asg102
(lp2346
g204
ag111
ag204
ag111
ag105
ag169
ag108
ag111
ag109
ag109
ag108
ag109
ag113
ag113
ag116
ag117
ag111
ag171
ag116
ag117
ag113
ag117
ag169
ag108
ag109
ag169
ag108
ag119
asg120
VListen, Hans, said the butcher, out of love for you I will exchange, and will let you have the pig for the cow.
p2347
sba(i__main__
Sentence
p2348
(dp2349
g17
I44
sg18
(lp2350
S'Heaven'
p2351
aS'repay'
p2352
aS'you'
p2353
aS'for'
p2354
aS'your'
p2355
aS'kindness'
p2356
aS','
p2357
aS'said'
p2358
aS'Hans'
p2359
aS'as'
p2360
aS'he'
p2361
aS'gave'
p2362
aS'up'
p2363
aS'the'
p2364
aS'cow'
p2365
aS','
p2366
aS'whilst'
p2367
aS'the'
p2368
aS'pig'
p2369
aS'was'
p2370
aS'unbound'
p2371
aS'from'
p2372
aS'the'
p2373
aS'barrow'
p2374
aS','
p2375
aS'and'
p2376
aS'the'
p2377
aS'cord'
p2378
aS'by'
p2379
aS'which'
p2380
aS'it'
p2381
aS'was'
p2382
aS'tied'
p2383
aS'was'
p2384
aS'put'
p2385
aS'in'
p2386
aS'his'
p2387
aS'hand'
p2388
aS'.'
p2389
asg60
(lp2390
VHeaven
p2391
aVrepay
p2392
aVyou
p2393
aVfor
p2394
aVyour
p2395
aVkindness
p2396
ag70
ag73
aVHans
p2397
ag158
aVhe
p2398
ag193
aVup
p2399
aVthe
p2400
aVcow
p2401
ag70
aVwhilst
p2402
aVthe
p2403
aVpig
p2404
ag161
aVunbind
p2405
aVfrom
p2406
aVthe
p2407
aVbarrow
p2408
ag70
aVand
p2409
aVthe
p2410
aVcord
p2411
aVby
p2412
aVwhich
p2413
aVit
p2414
ag161
aVtie
p2415
ag161
aVput
p2416
aVin
p2417
aVhis
p2418
aVhand
p2419
ag97
asg98
(lp2420
g101
ag101
ag101
ag101
ag101
ag101
ag101
ag101
aVPERSON
p2421
ag101
ag101
ag101
ag101
ag101
ag101
ag101
ag101
ag101
ag101
ag101
ag101
ag101
ag101
ag101
ag101
ag101
ag101
ag101
ag101
ag101
ag101
ag101
ag101
ag101
ag101
ag101
ag101
ag101
ag101
asg102
(lp2422
g112
ag170
ag113
ag109
ag107
ag108
ag111
ag105
ag204
ag109
ag113
ag105
ag269
ag169
ag108
ag111
ag108
ag169
ag108
ag105
ag106
ag109
ag169
ag108
ag111
ag171
ag169
ag108
ag109
ag945
ag113
ag105
ag106
ag105
ag106
ag269
ag107
ag108
ag119
asg120
VHeaven repay you for your kindness, said Hans as he gave up the cow, whilst the pig was unbound from the barrow, and the cord by which it was tied was put in his hand.
p2423
sba(i__main__
Sentence
p2424
(dp2425
g17
I45
sg18
(lp2426
S'Hans'
p2427
aS'went'
p2428
aS'on'
p2429
aS','
p2430
aS'and'
p2431
aS'thought'
p2432
aS'to'
p2433
aS'himself'
p2434
aS'how'
p2435
aS'everything'
p2436
aS'was'
p2437
aS'going'
p2438
aS'just'
p2439
aS'as'
p2440
aS'he'
p2441
aS'wished'
p2442
aS','
p2443
aS'if'
p2444
aS'he'
p2445
aS'did'
p2446
aS'meet'
p2447
aS'with'
p2448
aS'any'
p2449
aS'vexation'
p2450
aS'it'
p2451
aS'was'
p2452
aS'immediately'
p2453
aS'set'
p2454
aS'right'
p2455
aS'.'
p2456
asg60
(lp2457
VHans
p2458
ag304
aVon
p2459
ag70
aVand
p2460
ag842
aVto
p2461
aVhimself
p2462
aVhow
p2463
aVeverything
p2464
ag161
aVgo
p2465
aVjust
p2466
ag158
aVhe
p2467
aVwish
p2468
ag70
aVif
p2469
aVhe
p2470
aVdo
p2471
aVmeet
p2472
aVwith
p2473
aVany
p2474
aVvexation
p2475
aVit
p2476
ag161
aVimmediately
p2477
aVset
p2478
aVright
p2479
ag97
asg98
(lp2480
VPERSON
p2481
ag101
ag101
ag101
ag101
ag101
ag101
ag101
ag101
ag101
ag101
ag101
ag101
ag101
ag101
ag101
ag101
ag101
ag101
ag101
ag101
ag101
ag101
ag101
ag101
ag101
ag101
ag101
ag101
ag101
asg102
(lp2482
g104
ag105
ag109
ag111
ag171
ag105
ag114
ag113
ag423
ag326
ag105
ag326
ag112
ag109
ag113
ag105
ag111
ag109
ag113
ag105
ag117
ag109
ag169
ag108
ag113
ag105
ag112
ag106
ag112
ag119
asg120
VHans went on, and thought to himself how everything was going just as he wished, if he did meet with any vexation it was immediately set right.
p2483
sba(i__main__
Sentence
p2484
(dp2485
g17
I46
sg18
(lp2486
S'Presently'
p2487
aS'there'
p2488
aS'joined'
p2489
aS'him'
p2490
aS'a'
p2491
aS'lad'
p2492
aS'who'
p2493
aS'was'
p2494
aS'carrying'
p2495
aS'a'
p2496
aS'fine'
p2497
aS'white'
p2498
aS'goose'
p2499
aS'under'
p2500
aS'his'
p2501
aS'arm'
p2502
aS'.'
p2503
asg60
(lp2504
VPresently
p2505
aVthere
p2506
aVjoin
p2507
aVhim
p2508
ag158
aVlad
p2509
aVwho
p2510
ag161
aVcarry
p2511
ag158
aVfine
p2512
aVwhite
p2513
aVgoose
p2514
aVunder
p2515
aVhis
p2516
aVarm
p2517
ag97
asg98
(lp2518
g101
ag101
ag101
ag101
ag101
ag101
ag101
ag101
ag101
ag101
ag101
ag101
ag101
ag101
ag101
ag101
ag101
asg102
(lp2519
g112
ag422
ag106
ag113
ag169
ag108
ag361
ag105
ag326
ag169
ag108
ag108
ag108
ag109
ag107
ag108
ag119
asg120
VPresently there joined him a lad who was carrying a fine white goose under his arm.
p2520
sba(i__main__
Sentence
p2521
(dp2522
g17
I47
sg18
(lp2523
S'They'
p2524
aS'said'
p2525
aS'good'
p2526
aS'morning'
p2527
aS'to'
p2528
aS'each'
p2529
aS'other'
p2530
aS','
p2531
aS'and'
p2532
aS'Hans'
p2533
aS'began'
p2534
aS'to'
p2535
aS'tell'
p2536
aS'of'
p2537
aS'his'
p2538
aS'good'
p2539
aS'luck'
p2540
aS','
p2541
aS'and'
p2542
aS'how'
p2543
aS'he'
p2544
aS'had'
p2545
aS'always'
p2546
aS'made'
p2547
aS'such'
p2548
aS'good'
p2549
aS'bargains'
p2550
aS'.'
p2551
asg60
(lp2552
VThey
p2553
ag73
aVgood
p2554
aVmorning
p2555
aVto
p2556
aVeach
p2557
aVother
p2558
ag70
aVand
p2559
aVHans
p2560
ag851
aVto
p2561
aVtell
p2562
aVof
p2563
aVhis
p2564
aVgood
p2565
aVluck
p2566
ag70
aVand
p2567
aVhow
p2568
aVhe
p2569
ag63
aValways
p2570
ag1535
aVsuch
p2571
aVgood
p2572
aVbargain
p2573
ag97
asg98
(lp2574
g101
ag101
ag101
ag101
ag101
ag101
ag101
ag101
ag101
aVPERSON
p2575
ag101
ag101
ag101
ag101
ag101
ag101
ag101
ag101
ag101
ag101
ag101
ag101
ag101
ag101
ag101
ag101
ag101
ag101
asg102
(lp2576
g113
ag105
ag118
ag108
ag114
ag169
ag118
ag111
ag171
ag204
ag105
ag114
ag117
ag109
ag107
ag118
ag108
ag111
ag171
ag423
ag113
ag105
ag112
ag106
ag118
ag118
ag104
ag119
asg120
VThey said good morning to each other, and Hans began to tell of his good luck, and how he had always made such good bargains.
p2577
sba(i__main__
Sentence
p2578
(dp2579
g17
I48
sg18
(lp2580
S'The'
p2581
aS'boy'
p2582
aS'told'
p2583
aS'him'
p2584
aS'that'
p2585
aS'he'
p2586
aS'was'
p2587
aS'taking'
p2588
aS'the'
p2589
aS'goose'
p2590
aS'to'
p2591
aS'a'
p2592
aS'christening-feast'
p2593
aS'.'
p2594
asg60
(lp2595
VThe
p2596
aVboy
p2597
ag2009
aVhim
p2598
aVthat
p2599
aVhe
p2600
ag161
aVtake
p2601
aVthe
p2602
aVgoose
p2603
aVto
p2604
ag158
aVchristening-feast
p2605
ag97
asg98
(lp2606
g101
ag101
ag101
ag101
ag101
ag101
ag101
ag101
ag101
ag101
ag101
ag101
ag101
ag101
asg102
(lp2607
g169
ag108
ag105
ag113
ag109
ag113
ag105
ag326
ag169
ag108
ag114
ag169
ag118
ag119
asg120
VThe boy told him that he was taking the goose to a christening-feast.
p2608
sba(i__main__
Sentence
p2609
(dp2610
g17
I49
sg18
(lp2611
S'Just'
p2612
aS'lift'
p2613
aS'her'
p2614
aS','
p2615
aS'added'
p2616
aS'he'
p2617
aS','
p2618
aS'and'
p2619
aS'laid'
p2620
aS'hold'
p2621
aS'of'
p2622
aS'her'
p2623
aS'by'
p2624
aS'the'
p2625
aS'wings'
p2626
aS','
p2627
aS'how'
p2628
aS'heavy'
p2629
aS'she'
p2630
aS'is'
p2631
aS'-'
p2632
aS'she'
p2633
aS'has'
p2634
aS'been'
p2635
aS'fattened'
p2636
aS'up'
p2637
aS'for'
p2638
aS'the'
p2639
aS'last'
p2640
aS'eight'
p2641
aS'weeks'
p2642
aS'.'
p2643
asg60
(lp2644
VJust
p2645
aVlift
p2646
aVher
p2647
ag70
aVadd
p2648
aVhe
p2649
ag70
aVand
p2650
aVlay
p2651
aVhold
p2652
aVof
p2653
aVher
p2654
aVby
p2655
aVthe
p2656
aVwing
p2657
ag70
aVhow
p2658
aVheavy
p2659
aVshe
p2660
ag79
ag1424
aVshe
p2661
ag1114
ag991
aVfatten
p2662
aVup
p2663
aVfor
p2664
aVthe
p2665
aVlast
p2666
aVeight
p2667
aVweek
p2668
ag97
asg98
(lp2669
g101
ag101
ag101
ag101
ag101
ag101
ag101
ag101
ag101
ag101
ag101
ag101
ag101
ag101
ag101
ag101
ag101
ag101
ag101
ag101
ag101
ag101
ag101
ag101
ag101
ag101
ag101
ag101
ag101
ag101
ag101
ag101
asg102
(lp2670
g112
ag105
ag113
ag111
ag105
ag113
ag111
ag171
ag105
ag106
ag109
ag107
ag109
ag169
ag104
ag111
ag423
ag118
ag113
ag115
ag1453
ag113
ag115
ag106
ag106
ag269
ag109
ag169
ag118
ag108
ag104
ag119
asg120
VJust lift her, added he, and laid hold of her by the wings, how heavy she is - she has been fattened up for the last eight weeks.
p2671
sba(i__main__
Sentence
p2672
(dp2673
g17
I50
sg18
(lp2674
S'Whosoever'
p2675
aS'has'
p2676
aS'a'
p2677
aS'bit'
p2678
aS'of'
p2679
aS'her'
p2680
aS'when'
p2681
aS'she'
p2682
aS'is'
p2683
aS'roasted'
p2684
aS'will'
p2685
aS'have'
p2686
aS'to'
p2687
aS'wipe'
p2688
aS'the'
p2689
aS'fat'
p2690
aS'from'
p2691
aS'both'
p2692
aS'sides'
p2693
aS'of'
p2694
aS'his'
p2695
aS'mouth'
p2696
aS'.'
p2697
asg60
(lp2698
VWhosoever
p2699
ag1114
ag158
aVbit
p2700
aVof
p2701
aVher
p2702
aVwhen
p2703
aVshe
p2704
ag79
aVroast
p2705
aVwill
p2706
aVhave
p2707
aVto
p2708
aVwipe
p2709
aVthe
p2710
aVfat
p2711
aVfrom
p2712
aVboth
p2713
aVside
p2714
aVof
p2715
aVhis
p2716
aVmouth
p2717
ag97
asg98
(lp2718
g101
ag101
ag101
ag101
ag101
ag101
ag101
ag101
ag101
ag101
ag101
ag101
ag101
ag101
ag101
ag101
ag101
ag101
ag101
ag101
ag101
ag101
ag101
asg102
(lp2719
g112
ag115
ag169
ag108
ag109
ag107
ag423
ag113
ag115
ag106
ag116
ag117
ag114
ag117
ag169
ag118
ag109
ag169
ag104
ag109
ag107
ag108
ag119
asg120
VWhosoever has a bit of her when she is roasted will have to wipe the fat from both sides of his mouth.
p2720
sba(i__main__
Sentence
p2721
(dp2722
g17
I51
sg18
(lp2723
S'Yes'
p2724
aS','
p2725
aS'said'
p2726
aS'Hans'
p2727
aS','
p2728
aS'as'
p2729
aS'he'
p2730
aS'weighed'
p2731
aS'her'
p2732
aS'in'
p2733
aS'one'
p2734
aS'hand'
p2735
aS','
p2736
aS'she'
p2737
aS'is'
p2738
aS'a'
p2739
aS'good'
p2740
aS'weight'
p2741
aS','
p2742
aS'but'
p2743
aS'my'
p2744
aS'pig'
p2745
aS'is'
p2746
aS'no'
p2747
aS'bad'
p2748
aS'one'
p2749
aS'.'
p2750
asg60
(lp2751
VYes
p2752
ag70
ag73
aVHans
p2753
ag70
ag158
aVhe
p2754
aVweigh
p2755
aVher
p2756
aVin
p2757
aVone
p2758
aVhand
p2759
ag70
aVshe
p2760
ag79
ag158
aVgood
p2761
aVweight
p2762
ag70
aVbut
p2763
aVmy
p2764
aVpig
p2765
ag79
aVno
p2766
aVbad
p2767
aVone
p2768
ag97
asg98
(lp2769
g101
ag101
ag101
aVPERSON
p2770
ag101
ag101
ag101
ag101
ag101
ag101
ag101
ag101
ag101
ag101
ag101
ag101
ag101
ag101
ag101
ag101
ag101
ag101
ag101
ag101
ag101
ag101
ag101
asg102
(lp2771
g104
ag111
ag105
ag204
ag111
ag109
ag113
ag105
ag113
ag109
ag110
ag108
ag111
ag113
ag115
ag169
ag118
ag108
ag111
ag171
ag107
ag108
ag115
ag169
ag118
ag110
ag119
asg120
VYes, said Hans, as he weighed her in one hand, she is a good weight, but my pig is no bad one.
p2772
sba(i__main__
Sentence
p2773
(dp2774
g17
I52
sg18
(lp2775
S'Meanwhile'
p2776
aS'the'
p2777
aS'lad'
p2778
aS'looked'
p2779
aS'suspiciously'
p2780
aS'from'
p2781
aS'one'
p2782
aS'side'
p2783
aS'to'
p2784
aS'the'
p2785
aS'other'
p2786
aS','
p2787
aS'and'
p2788
aS'shook'
p2789
aS'his'
p2790
aS'head'
p2791
aS'.'
p2792
asg60
(lp2793
VMeanwhile
p2794
aVthe
p2795
aVlad
p2796
aVlook
p2797
aVsuspiciously
p2798
aVfrom
p2799
aVone
p2800
aVside
p2801
aVto
p2802
aVthe
p2803
aVother
p2804
ag70
aVand
p2805
aVshook
p2806
aVhis
p2807
aVhead
p2808
ag97
asg98
(lp2809
g101
ag101
ag101
ag101
ag101
ag101
ag101
ag101
ag101
ag101
ag101
ag101
ag101
ag101
ag101
ag101
ag101
asg102
(lp2810
g112
ag169
ag108
ag105
ag112
ag109
ag110
ag108
ag114
ag169
ag118
ag111
ag171
ag108
ag107
ag108
ag119
asg120
VMeanwhile the lad looked suspiciously from one side to the other, and shook his head.
p2811
sba(i__main__
Sentence
p2812
(dp2813
g17
I53
sg18
(lp2814
S'Look'
p2815
aS'here'
p2816
aS','
p2817
aS'he'
p2818
aS'said'
p2819
aS'at'
p2820
aS'length'
p2821
aS','
p2822
aS'it'
p2823
aS'may'
p2824
aS'not'
p2825
aS'be'
p2826
aS'all'
p2827
aS'right'
p2828
aS'with'
p2829
aS'your'
p2830
aS'pig'
p2831
aS'.'
p2832
asg60
(lp2833
VLook
p2834
aVhere
p2835
ag70
aVhe
p2836
ag73
aVat
p2837
aVlength
p2838
ag70
aVit
p2839
aVmay
p2840
aVnot
p2841
aVbe
p2842
aVall
p2843
aVright
p2844
aVwith
p2845
aVyour
p2846
aVpig
p2847
ag97
asg98
(lp2848
g101
ag101
ag101
ag101
ag101
ag101
ag101
ag101
ag101
ag101
ag101
ag101
ag101
ag101
ag101
ag101
ag101
ag101
asg102
(lp2849
g204
ag112
ag111
ag113
ag105
ag109
ag108
ag111
ag113
ag116
ag112
ag117
ag112
ag112
ag109
ag107
ag108
ag119
asg120
VLook here, he said at length, it may not be all right with your pig.
p2850
sba(i__main__
Sentence
p2851
(dp2852
g17
I54
sg18
(lp2853
S'In'
p2854
aS'the'
p2855
aS'village'
p2856
aS'through'
p2857
aS'which'
p2858
aS'I'
p2859
aS'passed'
p2860
aS','
p2861
aS'the'
p2862
aS'mayor'
p2863
aS'himself'
p2864
aS'had'
p2865
aS'just'
p2866
aS'had'
p2867
aS'one'
p2868
aS'stolen'
p2869
aS'out'
p2870
aS'of'
p2871
aS'its'
p2872
aS'sty'
p2873
aS'.'
p2874
asg60
(lp2875
VIn
p2876
aVthe
p2877
aVvillage
p2878
aVthrough
p2879
aVwhich
p2880
ag82
aVpass
p2881
ag70
aVthe
p2882
aVmayor
p2883
aVhimself
p2884
ag63
aVjust
p2885
ag63
aVone
p2886
aVsteal
p2887
aVout
p2888
aVof
p2889
aVit
p2890
aVsty
p2891
ag97
asg98
(lp2892
g101
ag101
ag101
ag101
ag101
ag101
ag101
ag101
ag101
ag101
ag101
ag101
ag101
ag101
ag101
ag101
ag101
ag101
ag101
ag101
ag101
asg102
(lp2893
g109
ag169
ag108
ag109
ag945
ag113
ag105
ag111
ag169
ag108
ag113
ag105
ag112
ag105
ag110
ag106
ag269
ag109
ag107
ag108
ag119
asg120
VIn the village through which I passed, the mayor himself had just had one stolen out of its sty.
p2894
sba(i__main__
Sentence
p2895
(dp2896
g17
I55
sg18
(lp2897
S'I'
p2898
aS'fear'
p2899
aS'-'
p2900
aS'I'
p2901
aS'fear'
p2902
aS'that'
p2903
aS'you'
p2904
aS'have'
p2905
aS'got'
p2906
aS'hold'
p2907
aS'of'
p2908
aS'it'
p2909
aS'there'
p2910
aS'.'
p2911
asg60
(lp2912
g82
aVfear
p2913
ag1424
ag82
aVfear
p2914
aVthat
p2915
aVyou
p2916
aVhave
p2917
ag715
aVhold
p2918
aVof
p2919
aVit
p2920
aVthere
p2921
ag97
asg98
(lp2922
g101
ag101
ag101
ag101
ag101
ag101
ag101
ag101
ag101
ag101
ag101
ag101
ag101
ag101
asg102
(lp2923
g113
ag170
ag1453
ag113
ag170
ag109
ag113
ag170
ag106
ag118
ag109
ag113
ag422
ag119
asg120
VI fear - I fear that you have got hold of it there.
p2924
sba(i__main__
Sentence
p2925
(dp2926
g17
I56
sg18
(lp2927
S'They'
p2928
aS'have'
p2929
aS'sent'
p2930
aS'out'
p2931
aS'some'
p2932
aS'people'
p2933
aS'and'
p2934
aS'it'
p2935
aS'would'
p2936
aS'be'
p2937
aS'a'
p2938
aS'bad'
p2939
aS'business'
p2940
aS'if'
p2941
aS'they'
p2942
aS'caught'
p2943
aS'you'
p2944
aS'with'
p2945
aS'the'
p2946
aS'pig'
p2947
aS','
p2948
aS'at'
p2949
aS'the'
p2950
aS'very'
p2951
aS'least'
p2952
aS','
p2953
aS'you'
p2954
aS'would'
p2955
aS'be'
p2956
aS'shut'
p2957
aS'up'
p2958
aS'in'
p2959
aS'the'
p2960
aS'dark'
p2961
aS'hole'
p2962
aS'.'
p2963
asg60
(lp2964
VThey
p2965
aVhave
p2966
aVsend
p2967
aVout
p2968
aVsome
p2969
aVpeople
p2970
aVand
p2971
aVit
p2972
aVwould
p2973
aVbe
p2974
ag158
aVbad
p2975
aVbusiness
p2976
aVif
p2977
aVthey
p2978
aVcatch
p2979
aVyou
p2980
aVwith
p2981
aVthe
p2982
aVpig
p2983
ag70
aVat
p2984
aVthe
p2985
aVvery
p2986
aVleast
p2987
ag70
aVyou
p2988
aVwould
p2989
aVbe
p2990
aVshut
p2991
aVup
p2992
aVin
p2993
aVthe
p2994
aVdark
p2995
aVhole
p2996
ag97
asg98
(lp2997
g101
ag101
ag101
ag101
ag101
ag101
ag101
ag101
ag101
ag101
ag101
ag101
ag101
ag101
ag101
ag101
ag101
ag101
ag101
ag101
ag101
ag101
ag101
ag101
ag101
ag101
ag101
ag101
ag101
ag101
ag101
ag101
ag101
ag101
ag101
ag101
asg102
(lp2998
g113
ag170
ag106
ag269
ag169
ag104
ag171
ag113
ag116
ag117
ag169
ag118
ag108
ag109
ag113
ag170
ag113
ag109
ag169
ag118
ag111
ag109
ag169
ag112
ag1332
ag111
ag113
ag116
ag117
ag106
ag269
ag109
ag169
ag118
ag108
ag119
asg120
VThey have sent out some people and it would be a bad business if they caught you with the pig, at the very least, you would be shut up in the dark hole.
p2999
sba(i__main__
Sentence
p3000
(dp3001
g17
I57
sg18
(lp3002
S'The'
p3003
aS'good'
p3004
aS'Hans'
p3005
aS'was'
p3006
aS'terrified'
p3007
aS'.'
p3008
asg60
(lp3009
VThe
p3010
aVgood
p3011
aVHans
p3012
ag161
aVterrify
p3013
ag97
asg98
(lp3014
g101
ag101
aVPERSON
p3015
ag101
ag101
ag101
asg102
(lp3016
g169
ag118
ag104
ag105
ag106
ag119
asg120
VThe good Hans was terrified.
p3017
sba(i__main__
Sentence
p3018
(dp3019
g17
I58
sg18
(lp3020
S'Goodness'
p3021
aS','
p3022
aS'he'
p3023
aS'said'
p3024
aS','
p3025
aS'help'
p3026
aS'me'
p3027
aS'out'
p3028
aS'of'
p3029
aS'this'
p3030
aS'fix'
p3031
aS','
p3032
aS'you'
p3033
aS'know'
p3034
aS'more'
p3035
aS'about'
p3036
aS'this'
p3037
aS'place'
p3038
aS'than'
p3039
aS'I'
p3040
aS'do'
p3041
aS','
p3042
aS'take'
p3043
aS'my'
p3044
aS'pig'
p3045
aS'and'
p3046
aS'leave'
p3047
aS'me'
p3048
aS'your'
p3049
aS'goose'
p3050
aS'.'
p3051
asg60
(lp3052
VGoodness
p3053
ag70
aVhe
p3054
ag73
ag70
aVhelp
p3055
aVme
p3056
aVout
p3057
aVof
p3058
aVthis
p3059
aVfix
p3060
ag70
aVyou
p3061
aVknow
p3062
aVmore
p3063
aVabout
p3064
aVthis
p3065
aVplace
p3066
aVthan
p3067
ag82
aVdo
p3068
ag70
aVtake
p3069
aVmy
p3070
aVpig
p3071
aVand
p3072
aVleave
p3073
aVme
p3074
aVyour
p3075
aVgoose
p3076
ag97
asg98
(lp3077
g101
ag101
ag101
ag101
ag101
ag101
ag101
ag101
ag101
ag101
ag101
ag101
ag101
ag101
ag101
ag101
ag101
ag101
ag101
ag101
ag101
ag101
ag101
ag101
ag101
ag101
ag101
ag101
ag101
ag101
ag101
asg102
(lp3078
g108
ag111
ag113
ag105
ag111
ag108
ag113
ag269
ag109
ag169
ag108
ag111
ag113
ag170
ag863
ag109
ag169
ag108
ag109
ag113
ag170
ag111
ag117
ag107
ag108
ag171
ag117
ag113
ag107
ag108
ag119
asg120
VGoodness, he said, help me out of this fix, you know more about this place than I do, take my pig and leave me your goose.
p3079
sba(i__main__
Sentence
p3080
(dp3081
g17
I59
sg18
(lp3082
S'I'
p3083
aS'shall'
p3084
aS'risk'
p3085
aS'something'
p3086
aS'at'
p3087
aS'that'
p3088
aS'game'
p3089
aS','
p3090
aS'answered'
p3091
aS'the'
p3092
aS'lad'
p3093
aS','
p3094
aS'but'
p3095
aS'I'
p3096
aS'will'
p3097
aS'not'
p3098
aS'be'
p3099
aS'the'
p3100
aS'cause'
p3101
aS'of'
p3102
aS'your'
p3103
aS'getting'
p3104
aS'into'
p3105
aS'trouble'
p3106
aS'.'
p3107
asg60
(lp3108
g82
aVshall
p3109
aVrisk
p3110
aVsomething
p3111
aVat
p3112
aVthat
p3113
aVgame
p3114
ag70
aVanswer
p3115
aVthe
p3116
aVlad
p3117
ag70
aVbut
p3118
ag82
aVwill
p3119
aVnot
p3120
aVbe
p3121
aVthe
p3122
aVcause
p3123
aVof
p3124
aVyour
p3125
aVgetting
p3126
aVinto
p3127
aVtrouble
p3128
ag97
asg98
(lp3129
g101
ag101
ag101
ag101
ag101
ag101
ag101
ag101
ag101
ag101
ag101
ag101
ag101
ag101
ag101
ag101
ag101
ag101
ag101
ag101
ag101
ag101
ag101
ag101
ag101
asg102
(lp3130
g113
ag170
ag108
ag108
ag109
ag169
ag108
ag111
ag105
ag169
ag108
ag111
ag171
ag113
ag116
ag112
ag117
ag169
ag108
ag109
ag107
ag108
ag109
ag108
ag119
asg120
VI shall risk something at that game, answered the lad, but I will not be the cause of your getting into trouble.
p3131
sba(i__main__
Sentence
p3132
(dp3133
g17
I60
sg18
(lp3134
S'So'
p3135
aS'he'
p3136
aS'took'
p3137
aS'the'
p3138
aS'cord'
p3139
aS'in'
p3140
aS'his'
p3141
aS'hand'
p3142
aS','
p3143
aS'and'
p3144
aS'drove'
p3145
aS'away'
p3146
aS'the'
p3147
aS'pig'
p3148
aS'quickly'
p3149
aS'along'
p3150
aS'a'
p3151
aS'by-path'
p3152
aS'.'
p3153
asg60
(lp3154
VSo
p3155
aVhe
p3156
ag717
aVthe
p3157
aVcord
p3158
aVin
p3159
aVhis
p3160
aVhand
p3161
ag70
aVand
p3162
ag1354
aVaway
p3163
aVthe
p3164
aVpig
p3165
aVquickly
p3166
aValong
p3167
ag158
aVby-path
p3168
ag97
asg98
(lp3169
g101
ag101
ag101
ag101
ag101
ag101
ag101
ag101
ag101
ag101
ag101
ag101
ag101
ag101
ag101
ag101
ag101
ag101
ag101
asg102
(lp3170
g109
ag113
ag105
ag169
ag108
ag109
ag107
ag108
ag111
ag171
ag105
ag112
ag169
ag108
ag112
ag109
ag169
ag118
ag119
asg120
VSo he took the cord in his hand, and drove away the pig quickly along a by-path.
p3171
sba(i__main__
Sentence
p3172
(dp3173
g17
I61
sg18
(lp3174
S'The'
p3175
aS'good'
p3176
aS'Hans'
p3177
aS','
p3178
aS'free'
p3179
aS'from'
p3180
aS'care'
p3181
aS','
p3182
aS'went'
p3183
aS'homewards'
p3184
aS'with'
p3185
aS'the'
p3186
aS'goose'
p3187
aS'under'
p3188
aS'his'
p3189
aS'arm'
p3190
aS'.'
p3191
asg60
(lp3192
VThe
p3193
aVgood
p3194
aVHans
p3195
ag70
aVfree
p3196
aVfrom
p3197
aVcare
p3198
ag70
ag304
aVhomewards
p3199
aVwith
p3200
aVthe
p3201
aVgoose
p3202
aVunder
p3203
aVhis
p3204
aVarm
p3205
ag97
asg98
(lp3206
g101
ag101
aVPERSON
p3207
ag101
ag101
ag101
ag101
ag101
ag101
ag101
ag101
ag101
ag101
ag101
ag101
ag101
ag101
asg102
(lp3208
g169
ag118
ag104
ag111
ag118
ag109
ag108
ag111
ag105
ag104
ag109
ag169
ag108
ag109
ag107
ag108
ag119
asg120
VThe good Hans, free from care, went homewards with the goose under his arm.
p3209
sba(i__main__
Sentence
p3210
(dp3211
g17
I62
sg18
(lp3212
S'When'
p3213
aS'I'
p3214
aS'think'
p3215
aS'over'
p3216
aS'it'
p3217
aS'properly'
p3218
aS','
p3219
aS'said'
p3220
aS'he'
p3221
aS'to'
p3222
aS'himself'
p3223
aS','
p3224
aS'I'
p3225
aS'have'
p3226
aS'even'
p3227
aS'gained'
p3228
aS'by'
p3229
aS'the'
p3230
aS'exchange'
p3231
aS'.'
p3232
asg60
(lp3233
VWhen
p3234
ag82
aVthink
p3235
aVover
p3236
aVit
p3237
aVproperly
p3238
ag70
ag73
aVhe
p3239
aVto
p3240
aVhimself
p3241
ag70
ag82
aVhave
p3242
aVeven
p3243
aVgain
p3244
aVby
p3245
aVthe
p3246
aVexchange
p3247
ag97
asg98
(lp3248
g101
ag101
ag101
ag101
ag101
ag101
ag101
ag101
ag101
ag101
ag101
ag101
ag101
ag101
ag101
ag101
ag101
ag101
ag101
ag101
asg102
(lp3249
g423
ag113
ag170
ag109
ag113
ag112
ag111
ag105
ag113
ag114
ag113
ag111
ag113
ag170
ag112
ag106
ag109
ag169
ag108
ag119
asg120
VWhen I think over it properly, said he to himself, I have even gained by the exchange.
p3250
sba(i__main__
Sentence
p3251
(dp3252
g17
I63
sg18
(lp3253
S'First'
p3254
aS'there'
p3255
aS'is'
p3256
aS'the'
p3257
aS'good'
p3258
aS'roast'
p3259
aS'meat'
p3260
aS','
p3261
aS'then'
p3262
aS'the'
p3263
aS'quantity'
p3264
aS'of'
p3265
aS'fat'
p3266
aS'which'
p3267
aS'will'
p3268
aS'drip'
p3269
aS'from'
p3270
aS'it'
p3271
aS','
p3272
aS'and'
p3273
aS'which'
p3274
aS'will'
p3275
aS'give'
p3276
aS'me'
p3277
aS'dripping'
p3278
aS'for'
p3279
aS'my'
p3280
aS'bread'
p3281
aS'for'
p3282
aS'a'
p3283
aS'quarter'
p3284
aS'of'
p3285
aS'a'
p3286
aS'year'
p3287
aS','
p3288
aS'and'
p3289
aS'lastly'
p3290
aS'the'
p3291
aS'beautiful'
p3292
aS'white'
p3293
aS'feathers'
p3294
aS'.'
p3295
asg60
(lp3296
VFirst
p3297
aVthere
p3298
ag79
aVthe
p3299
aVgood
p3300
aVroast
p3301
aVmeat
p3302
ag70
aVthen
p3303
aVthe
p3304
aVquantity
p3305
aVof
p3306
aVfat
p3307
aVwhich
p3308
aVwill
p3309
aVdrip
p3310
aVfrom
p3311
aVit
p3312
ag70
aVand
p3313
aVwhich
p3314
aVwill
p3315
aVgive
p3316
aVme
p3317
aVdrip
p3318
aVfor
p3319
aVmy
p3320
aVbread
p3321
aVfor
p3322
ag158
aVquarter
p3323
aVof
p3324
ag158
aVyear
p3325
ag70
aVand
p3326
aVlastly
p3327
aVthe
p3328
aVbeautiful
p3329
aVwhite
p3330
aVfeather
p3331
ag97
asg98
(lp3332
g101
ag101
ag101
ag101
ag101
ag101
ag101
ag101
ag101
ag101
ag101
ag101
ag101
ag101
ag101
ag101
ag101
ag101
ag101
ag101
ag101
ag101
ag101
ag101
ag101
ag101
ag101
ag101
ag101
ag101
ag101
ag101
ag101
ag101
ag101
ag101
ag101
ag101
ag101
ag101
ag101
ag101
asg102
(lp3333
g204
ag422
ag115
ag169
ag118
ag108
ag108
ag111
ag112
ag169
ag108
ag109
ag118
ag945
ag116
ag117
ag109
ag113
ag111
ag171
ag945
ag116
ag117
ag113
ag326
ag109
ag107
ag108
ag109
ag169
ag108
ag109
ag169
ag108
ag111
ag171
ag112
ag169
ag118
ag118
ag104
ag119
asg120
VFirst there is the good roast meat, then the quantity of fat which will drip from it, and which will give me dripping for my bread for a quarter of a year, and lastly the beautiful white feathers.
p3334
sba(i__main__
Sentence
p3335
(dp3336
g17
I64
sg18
(lp3337
S'I'
p3338
aS'will'
p3339
aS'have'
p3340
aS'my'
p3341
aS'pillow'
p3342
aS'stuffed'
p3343
aS'with'
p3344
aS'them'
p3345
aS','
p3346
aS'and'
p3347
aS'then'
p3348
aS'indeed'
p3349
aS'I'
p3350
aS'shall'
p3351
aS'go'
p3352
aS'to'
p3353
aS'sleep'
p3354
aS'without'
p3355
aS'rocking'
p3356
aS'.'
p3357
asg60
(lp3358
g82
aVwill
p3359
aVhave
p3360
aVmy
p3361
aVpillow
p3362
aVstuff
p3363
aVwith
p3364
aVthem
p3365
ag70
aVand
p3366
aVthen
p3367
aVindeed
p3368
ag82
aVshall
p3369
aVgo
p3370
aVto
p3371
aVsleep
p3372
aVwithout
p3373
aVrocking
p3374
ag97
asg98
(lp3375
g101
ag101
ag101
ag101
ag101
ag101
ag101
ag101
ag101
ag101
ag101
ag101
ag101
ag101
ag101
ag101
ag101
ag101
ag101
ag101
asg102
(lp3376
g113
ag116
ag117
ag107
ag108
ag105
ag109
ag113
ag111
ag171
ag112
ag112
ag113
ag116
ag117
ag114
ag117
ag109
ag108
ag119
asg120
VI will have my pillow stuffed with them, and then indeed I shall go to sleep without rocking.
p3377
sba(i__main__
Sentence
p3378
(dp3379
g17
I65
sg18
(lp3380
S'How'
p3381
aS'glad'
p3382
aS'my'
p3383
aS'mother'
p3384
aS'will'
p3385
aS'be'
p3386
aS'.'
p3387
asg60
(lp3388
VHow
p3389
aVglad
p3390
aVmy
p3391
aVmother
p3392
aVwill
p3393
aVbe
p3394
ag97
asg98
(lp3395
g101
ag101
ag101
ag101
ag101
ag101
ag101
asg102
(lp3396
g423
ag105
ag107
ag108
ag116
ag117
ag119
asg120
VHow glad my mother will be.
p3397
sba(i__main__
Sentence
p3398
(dp3399
g17
I66
sg18
(lp3400
S'As'
p3401
aS'he'
p3402
aS'was'
p3403
aS'going'
p3404
aS'through'
p3405
aS'the'
p3406
aS'last'
p3407
aS'village'
p3408
aS','
p3409
aS'there'
p3410
aS'stood'
p3411
aS'a'
p3412
aS'scissors-grinder'
p3413
aS'with'
p3414
aS'his'
p3415
aS'barrow'
p3416
aS','
p3417
aS'as'
p3418
aS'his'
p3419
aS'wheel'
p3420
aS'whirred'
p3421
aS'he'
p3422
aS'sang'
p3423
aS','
p3424
aS'I'
p3425
aS'sharpen'
p3426
aS'scissors'
p3427
aS'and'
p3428
aS'quickly'
p3429
aS'grind'
p3430
aS','
p3431
aS'my'
p3432
aS'coat'
p3433
aS'blows'
p3434
aS'out'
p3435
aS'in'
p3436
aS'the'
p3437
aS'wind'
p3438
aS'behind'
p3439
aS'.'
p3440
asg60
(lp3441
VAs
p3442
aVhe
p3443
ag161
aVgo
p3444
aVthrough
p3445
aVthe
p3446
aVlast
p3447
aVvillage
p3448
ag70
aVthere
p3449
aVstood
p3450
ag158
aVscissors-grinder
p3451
aVwith
p3452
aVhis
p3453
aVbarrow
p3454
ag70
ag158
aVhis
p3455
aVwheel
p3456
aVwhir
p3457
aVhe
p3458
aVsing
p3459
ag70
ag82
aVsharpen
p3460
aVscissors
p3461
aVand
p3462
aVquickly
p3463
aVgrind
p3464
ag70
aVmy
p3465
aVcoat
p3466
aVblow
p3467
aVout
p3468
aVin
p3469
aVthe
p3470
aVwind
p3471
aVbehind
p3472
ag97
asg98
(lp3473
g101
ag101
ag101
ag101
ag101
ag101
ag101
ag101
ag101
ag101
ag101
ag101
ag101
ag101
ag101
ag101
ag101
ag101
ag101
ag101
ag101
ag101
ag101
ag101
ag101
ag101
ag101
ag101
ag101
ag101
ag101
ag101
ag101
ag101
ag101
ag101
ag101
ag101
ag101
ag101
asg102
(lp3474
g109
ag113
ag105
ag326
ag109
ag169
ag118
ag108
ag111
ag422
ag108
ag169
ag108
ag109
ag107
ag108
ag111
ag109
ag107
ag108
ag105
ag113
ag105
ag111
ag113
ag170
ag104
ag171
ag112
ag118
ag111
ag107
ag108
ag115
ag269
ag109
ag169
ag108
ag109
ag119
asg120
VAs he was going through the last village, there stood a scissors-grinder with his barrow, as his wheel whirred he sang,      I sharpen scissors and quickly grind,      my coat blows out in the wind behind.
p3475
sba(i__main__
Sentence
p3476
(dp3477
g17
I67
sg18
(lp3478
S'Hans'
p3479
aS'stood'
p3480
aS'still'
p3481
aS'and'
p3482
aS'looked'
p3483
aS'at'
p3484
aS'him'
p3485
aS','
p3486
aS'at'
p3487
aS'last'
p3488
aS'he'
p3489
aS'spoke'
p3490
aS'to'
p3491
aS'him'
p3492
aS'and'
p3493
aS'said'
p3494
aS','
p3495
aS'all'
p3496
aS"'s"
p3497
aS'well'
p3498
aS'with'
p3499
aS'you'
p3500
aS','
p3501
aS'as'
p3502
aS'you'
p3503
aS'are'
p3504
aS'so'
p3505
aS'merry'
p3506
aS'with'
p3507
aS'your'
p3508
aS'grinding'
p3509
aS'.'
p3510
asg60
(lp3511
VHans
p3512
ag1078
aVstill
p3513
aVand
p3514
aVlook
p3515
aVat
p3516
aVhim
p3517
ag70
aVat
p3518
aVlast
p3519
aVhe
p3520
aVspeak
p3521
aVto
p3522
aVhim
p3523
aVand
p3524
ag73
ag70
aVall
p3525
aV's
p3526
aVwell
p3527
aVwith
p3528
aVyou
p3529
ag70
ag158
aVyou
p3530
ag2285
aVso
p3531
aVmerry
p3532
aVwith
p3533
aVyour
p3534
aVgrinding
p3535
ag97
asg98
(lp3536
VPERSON
p3537
ag101
ag101
ag101
ag101
ag101
ag101
ag101
ag101
ag101
ag101
ag101
ag101
ag101
ag101
ag101
ag101
ag101
ag101
ag101
ag101
ag101
ag101
ag101
ag101
ag101
ag101
ag101
ag101
ag101
ag101
ag101
asg102
(lp3538
g104
ag105
ag112
ag171
ag105
ag109
ag113
ag111
ag109
ag118
ag113
ag105
ag114
ag113
ag171
ag105
ag111
ag169
ag1124
ag112
ag109
ag113
ag111
ag109
ag113
ag170
ag112
ag118
ag109
ag107
ag108
ag119
asg120
VHans stood still and looked at him, at last he spoke to him and said, all's well with you, as you are so merry with your grinding.
p3539
sba(i__main__
Sentence
p3540
(dp3541
g17
I68
sg18
(lp3542
S'Yes'
p3543
aS','
p3544
aS'answered'
p3545
aS'the'
p3546
aS'scissors-grinder'
p3547
aS','
p3548
aS'the'
p3549
aS'trade'
p3550
aS'has'
p3551
aS'a'
p3552
aS'golden'
p3553
aS'foundation'
p3554
aS'.'
p3555
asg60
(lp3556
VYes
p3557
ag70
aVanswer
p3558
aVthe
p3559
aVscissors-grinder
p3560
ag70
aVthe
p3561
aVtrade
p3562
ag1114
ag158
aVgolden
p3563
aVfoundation
p3564
ag97
asg98
(lp3565
g101
ag101
ag101
ag101
ag101
ag101
ag101
ag101
ag101
ag101
ag101
ag101
ag101
asg102
(lp3566
g104
ag111
ag105
ag169
ag108
ag111
ag169
ag108
ag115
ag169
ag118
ag108
ag119
asg120
VYes, answered the scissors-grinder, the trade has a golden foundation.
p3567
sba(i__main__
Sentence
p3568
(dp3569
g17
I69
sg18
(lp3570
S'A'
p3571
aS'real'
p3572
aS'grinder'
p3573
aS'is'
p3574
aS'a'
p3575
aS'man'
p3576
aS'who'
p3577
aS'as'
p3578
aS'often'
p3579
aS'as'
p3580
aS'he'
p3581
aS'puts'
p3582
aS'his'
p3583
aS'hand'
p3584
aS'into'
p3585
aS'his'
p3586
aS'pocket'
p3587
aS'finds'
p3588
aS'gold'
p3589
aS'in'
p3590
aS'it'
p3591
aS'.'
p3592
asg60
(lp3593
g2268
aVreal
p3594
aVgrinder
p3595
ag79
ag158
aVman
p3596
aVwho
p3597
ag158
aVoften
p3598
ag158
aVhe
p3599
aVput
p3600
aVhis
p3601
aVhand
p3602
aVinto
p3603
aVhis
p3604
aVpocket
p3605
aVfind
p3606
aVgold
p3607
aVin
p3608
aVit
p3609
ag97
asg98
(lp3610
g101
ag101
ag101
ag101
ag101
ag101
ag101
ag101
ag101
ag101
ag101
ag101
ag101
ag101
ag101
ag101
ag101
ag101
ag101
ag101
ag101
ag101
asg102
(lp3611
g169
ag118
ag108
ag115
ag169
ag108
ag361
ag109
ag112
ag109
ag113
ag115
ag107
ag108
ag109
ag107
ag108
ag104
ag108
ag109
ag113
ag119
asg120
VA real grinder is a man who as often as he puts his hand into his pocket finds gold in it.
p3612
sba(i__main__
Sentence
p3613
(dp3614
g17
I70
sg18
(lp3615
S'But'
p3616
aS'where'
p3617
aS'did'
p3618
aS'you'
p3619
aS'buy'
p3620
aS'that'
p3621
aS'fine'
p3622
aS'goose'
p3623
aS'?'
p3624
asg60
(lp3625
VBut
p3626
aVwhere
p3627
ag2471
aVyou
p3628
aVbuy
p3629
aVthat
p3630
aVfine
p3631
aVgoose
p3632
aV?
p3633
asg98
(lp3634
g101
ag101
ag101
ag101
ag101
ag101
ag101
ag101
ag101
asg102
(lp3635
g171
ag423
ag105
ag113
ag117
ag109
ag108
ag108
ag119
asg120
VBut where did you buy that fine goose?
p3636
sba(i__main__
Sentence
p3637
(dp3638
g17
I71
sg18
(lp3639
S'I'
p3640
aS'did'
p3641
aS'not'
p3642
aS'buy'
p3643
aS'it'
p3644
aS','
p3645
aS'but'
p3646
aS'exchanged'
p3647
aS'my'
p3648
aS'pig'
p3649
aS'for'
p3650
aS'it'
p3651
aS'.'
p3652
asg60
(lp3653
g82
ag2471
aVnot
p3654
aVbuy
p3655
aVit
p3656
ag70
aVbut
p3657
aVexchange
p3658
aVmy
p3659
aVpig
p3660
aVfor
p3661
aVit
p3662
ag97
asg98
(lp3663
g101
ag101
ag101
ag101
ag101
ag101
ag101
ag101
ag101
ag101
ag101
ag101
ag101
asg102
(lp3664
g113
ag105
ag112
ag117
ag113
ag111
ag171
ag105
ag107
ag108
ag109
ag113
ag119
asg120
VI did not buy it, but exchanged my pig for it.
p3665
sba(i__main__
Sentence
p3666
(dp3667
g17
I72
sg18
(lp3668
S'And'
p3669
aS'the'
p3670
aS'pig'
p3671
aS'?'
p3672
asg60
(lp3673
VAnd
p3674
aVthe
p3675
aVpig
p3676
ag3633
asg98
(lp3677
g101
ag101
ag101
ag101
asg102
(lp3678
g171
ag169
ag108
ag119
asg120
VAnd the pig?
p3679
sba(i__main__
Sentence
p3680
(dp3681
g17
I73
sg18
(lp3682
S'That'
p3683
aS'I'
p3684
aS'got'
p3685
aS'for'
p3686
aS'a'
p3687
aS'cow'
p3688
aS'.'
p3689
asg60
(lp3690
VThat
p3691
ag82
ag715
aVfor
p3692
ag158
aVcow
p3693
ag97
asg98
(lp3694
g101
ag101
ag101
ag101
ag101
ag101
ag101
asg102
(lp3695
g169
ag113
ag105
ag109
ag169
ag108
ag119
asg120
VThat I got for a cow.
p3696
sba(i__main__
Sentence
p3697
(dp3698
g17
I74
sg18
(lp3699
S'And'
p3700
aS'the'
p3701
aS'cow'
p3702
aS'?'
p3703
asg60
(lp3704
VAnd
p3705
aVthe
p3706
aVcow
p3707
ag3633
asg98
(lp3708
g101
ag101
ag101
ag101
asg102
(lp3709
g171
ag169
ag108
ag119
asg120
VAnd the cow?
p3710
sba(i__main__
Sentence
p3711
(dp3712
g17
I75
sg18
(lp3713
S'I'
p3714
aS'took'
p3715
aS'that'
p3716
aS'instead'
p3717
aS'of'
p3718
aS'a'
p3719
aS'horse'
p3720
aS'.'
p3721
asg60
(lp3722
g82
ag717
aVthat
p3723
aVinstead
p3724
aVof
p3725
ag158
aVhorse
p3726
ag97
asg98
(lp3727
g101
ag101
ag101
ag101
ag101
ag101
ag101
ag101
asg102
(lp3728
g113
ag105
ag109
ag112
ag109
ag169
ag108
ag119
asg120
VI took that instead of a horse.
p3729
sba(i__main__
Sentence
p3730
(dp3731
g17
I76
sg18
(lp3732
S'And'
p3733
aS'the'
p3734
aS'horse'
p3735
aS'?'
p3736
asg60
(lp3737
VAnd
p3738
aVthe
p3739
aVhorse
p3740
ag3633
asg98
(lp3741
g101
ag101
ag101
ag101
asg102
(lp3742
g171
ag169
ag108
ag119
asg120
VAnd the horse?
p3743
sba(i__main__
Sentence
p3744
(dp3745
g17
I77
sg18
(lp3746
S'For'
p3747
aS'that'
p3748
aS'I'
p3749
aS'gave'
p3750
aS'a'
p3751
aS'lump'
p3752
aS'of'
p3753
aS'gold'
p3754
aS'as'
p3755
aS'big'
p3756
aS'as'
p3757
aS'my'
p3758
aS'head'
p3759
aS'.'
p3760
asg60
(lp3761
VFor
p3762
aVthat
p3763
ag82
ag193
ag158
aVlump
p3764
aVof
p3765
aVgold
p3766
ag158
aVbig
p3767
ag158
aVmy
p3768
aVhead
p3769
ag97
asg98
(lp3770
g101
ag101
ag101
ag101
ag101
ag101
ag101
ag101
ag101
ag101
ag101
ag101
ag101
ag101
asg102
(lp3771
g109
ag169
ag113
ag170
ag169
ag108
ag109
ag108
ag109
ag118
ag109
ag107
ag108
ag119
asg120
VFor that I gave a lump of gold as big as my head.
p3772
sba(i__main__
Sentence
p3773
(dp3774
g17
I78
sg18
(lp3775
S'And'
p3776
aS'the'
p3777
aS'gold'
p3778
aS'?'
p3779
asg60
(lp3780
VAnd
p3781
aVthe
p3782
aVgold
p3783
ag3633
asg98
(lp3784
g101
ag101
ag101
ag101
asg102
(lp3785
g171
ag169
ag108
ag119
asg120
VAnd the gold?
p3786
sba(i__main__
Sentence
p3787
(dp3788
g17
I79
sg18
(lp3789
S'Well'
p3790
aS','
p3791
aS'that'
p3792
aS'was'
p3793
aS'my'
p3794
aS'wages'
p3795
aS'for'
p3796
aS'seven'
p3797
aS'years'
p3798
aS','
p3799
aS'service'
p3800
aS'.'
p3801
asg60
(lp3802
VWell
p3803
ag70
aVthat
p3804
ag161
aVmy
p3805
aVwage
p3806
aVfor
p3807
aVseven
p3808
aVyear
p3809
ag70
aVservice
p3810
ag97
asg98
(lp3811
g101
ag101
ag101
ag101
ag101
ag101
ag101
ag101
ag101
ag101
ag101
ag101
asg102
(lp3812
g204
ag111
ag109
ag105
ag107
ag104
ag109
ag110
ag104
ag111
ag108
ag119
asg120
VWell, that was my wages for seven years, service.
p3813
sba(i__main__
Sentence
p3814
(dp3815
g17
I80
sg18
(lp3816
S'You'
p3817
aS'have'
p3818
aS'known'
p3819
aS'how'
p3820
aS'to'
p3821
aS'look'
p3822
aS'after'
p3823
aS'yourself'
p3824
aS'each'
p3825
aS'time'
p3826
aS','
p3827
aS'said'
p3828
aS'the'
p3829
aS'grinder'
p3830
aS'.'
p3831
asg60
(lp3832
VYou
p3833
aVhave
p3834
aVknow
p3835
aVhow
p3836
aVto
p3837
aVlook
p3838
aVafter
p3839
aVyourself
p3840
aVeach
p3841
aVtime
p3842
ag70
ag73
aVthe
p3843
aVgrinder
p3844
ag97
asg98
(lp3845
g101
ag101
ag101
ag101
ag101
ag101
ag101
ag101
ag101
ag101
ag101
ag101
ag101
ag101
ag101
asg102
(lp3846
g113
ag170
ag106
ag423
ag114
ag117
ag109
ag113
ag169
ag108
ag111
ag105
ag169
ag108
ag119
asg120
VYou have known how to look after yourself each time, said the grinder.
p3847
sba(i__main__
Sentence
p3848
(dp3849
g17
I81
sg18
(lp3850
S'If'
p3851
aS'you'
p3852
aS'can'
p3853
aS'only'
p3854
aS'get'
p3855
aS'on'
p3856
aS'so'
p3857
aS'far'
p3858
aS'as'
p3859
aS'to'
p3860
aS'hear'
p3861
aS'the'
p3862
aS'money'
p3863
aS'jingle'
p3864
aS'in'
p3865
aS'your'
p3866
aS'pocket'
p3867
aS'whenever'
p3868
aS'you'
p3869
aS'stand'
p3870
aS'up'
p3871
aS','
p3872
aS'you'
p3873
aS'will'
p3874
aS'have'
p3875
aS'made'
p3876
aS'your'
p3877
aS'fortune'
p3878
aS'.'
p3879
asg60
(lp3880
VIf
p3881
aVyou
p3882
aVcan
p3883
aVonly
p3884
aVget
p3885
aVon
p3886
aVso
p3887
aVfar
p3888
ag158
aVto
p3889
aVhear
p3890
aVthe
p3891
aVmoney
p3892
aVjingle
p3893
aVin
p3894
aVyour
p3895
aVpocket
p3896
aVwhenever
p3897
aVyou
p3898
aVstand
p3899
aVup
p3900
ag70
aVyou
p3901
aVwill
p3902
aVhave
p3903
ag1535
aVyour
p3904
aVfortune
p3905
ag97
asg98
(lp3906
g101
ag101
ag101
ag101
ag101
ag101
ag101
ag101
ag101
ag101
ag101
ag101
ag101
ag101
ag101
ag101
ag101
ag101
ag101
ag101
ag101
ag101
ag101
ag101
ag101
ag101
ag101
ag101
ag101
asg102
(lp3907
g109
ag113
ag116
ag112
ag117
ag109
ag112
ag112
ag109
ag114
ag117
ag169
ag108
ag108
ag109
ag107
ag108
ag108
ag113
ag170
ag269
ag111
ag113
ag116
ag117
ag106
ag107
ag108
ag119
asg120
VIf you can only get on so far as to hear the money jingle in your pocket whenever you stand up, you will have made your fortune.
p3908
sba(i__main__
Sentence
p3909
(dp3910
g17
I82
sg18
(lp3911
S'How'
p3912
aS'shall'
p3913
aS'I'
p3914
aS'manage'
p3915
aS'that'
p3916
aS','
p3917
aS'said'
p3918
aS'Hans'
p3919
aS'.'
p3920
asg60
(lp3921
VHow
p3922
aVshall
p3923
ag82
aVmanage
p3924
aVthat
p3925
ag70
ag73
aVHans
p3926
ag97
asg98
(lp3927
g101
ag101
ag101
ag101
ag101
ag101
ag101
aVPERSON
p3928
ag101
asg102
(lp3929
g423
ag116
ag113
ag170
ag109
ag111
ag105
ag204
ag119
asg120
VHow shall I manage that, said Hans.
p3930
sba(i__main__
Sentence
p3931
(dp3932
g17
I83
sg18
(lp3933
S'You'
p3934
aS'must'
p3935
aS'be'
p3936
aS'a'
p3937
aS'grinder'
p3938
aS','
p3939
aS'as'
p3940
aS'I'
p3941
aS'am'
p3942
aS','
p3943
aS'nothing'
p3944
aS'particular'
p3945
aS'is'
p3946
aS'wanted'
p3947
aS'for'
p3948
aS'it'
p3949
aS'but'
p3950
aS'a'
p3951
aS'grindstone'
p3952
aS','
p3953
aS'the'
p3954
aS'rest'
p3955
aS'finds'
p3956
aS'itself'
p3957
aS'.'
p3958
asg60
(lp3959
VYou
p3960
aVmust
p3961
aVbe
p3962
ag158
aVgrinder
p3963
ag70
ag158
ag82
ag1441
ag70
aVnothing
p3964
aVparticular
p3965
ag79
aVwant
p3966
aVfor
p3967
aVit
p3968
aVbut
p3969
ag158
aVgrindstone
p3970
ag70
aVthe
p3971
aVrest
p3972
aVfind
p3973
aVitself
p3974
ag97
asg98
(lp3975
g101
ag101
ag101
ag101
ag101
ag101
ag101
ag101
ag101
ag101
ag101
ag101
ag101
ag101
ag101
ag101
ag101
ag101
ag101
ag101
ag101
ag101
ag101
ag101
ag101
asg102
(lp3976
g113
ag116
ag117
ag169
ag108
ag111
ag109
ag113
ag170
ag111
ag108
ag118
ag115
ag106
ag109
ag113
ag171
ag169
ag108
ag111
ag169
ag108
ag104
ag113
ag119
asg120
VYou must be a grinder, as I am, nothing particular is wanted for it but a grindstone, the rest finds itself.
p3977
sba(i__main__
Sentence
p3978
(dp3979
g17
I84
sg18
(lp3980
S'I'
p3981
aS'have'
p3982
aS'one'
p3983
aS'here'
p3984
aS','
p3985
aS'it'
p3986
aS'is'
p3987
aS'certainly'
p3988
aS'a'
p3989
aS'little'
p3990
aS'worn'
p3991
aS','
p3992
aS'but'
p3993
aS'you'
p3994
aS'need'
p3995
aS'not'
p3996
aS'give'
p3997
aS'me'
p3998
aS'anything'
p3999
aS'for'
p4000
aS'it'
p4001
aS'but'
p4002
aS'your'
p4003
aS'goose'
p4004
aS','
p4005
aS'will'
p4006
aS'you'
p4007
aS'do'
p4008
aS'it'
p4009
aS'?'
p4010
asg60
(lp4011
g82
aVhave
p4012
aVone
p4013
aVhere
p4014
ag70
aVit
p4015
ag79
aVcertainly
p4016
ag158
aVlittle
p4017
aVworn
p4018
ag70
aVbut
p4019
aVyou
p4020
aVneed
p4021
aVnot
p4022
aVgive
p4023
aVme
p4024
aVanything
p4025
aVfor
p4026
aVit
p4027
aVbut
p4028
aVyour
p4029
aVgoose
p4030
ag70
aVwill
p4031
aVyou
p4032
aVdo
p4033
aVit
p4034
ag3633
asg98
(lp4035
g101
ag101
ag101
ag101
ag101
ag101
ag101
ag101
ag101
ag101
ag101
ag101
ag101
ag101
ag101
ag101
ag101
ag101
ag101
ag101
ag101
ag101
ag101
ag101
ag101
ag101
ag101
ag101
ag101
ag101
asg102
(lp4036
g113
ag170
ag110
ag112
ag111
ag113
ag115
ag112
ag169
ag112
ag108
ag111
ag171
ag113
ag170
ag112
ag117
ag113
ag108
ag109
ag113
ag171
ag107
ag108
ag111
ag116
ag113
ag117
ag113
ag119
asg120
VI have one here, it is certainly a little worn, but you need not give me anything for it but your goose, will you do it?
p4037
sba(i__main__
Sentence
p4038
(dp4039
g17
I85
sg18
(lp4040
S'How'
p4041
aS'can'
p4042
aS'you'
p4043
aS'ask'
p4044
aS','
p4045
aS'answered'
p4046
aS'Hans'
p4047
aS'.'
p4048
asg60
(lp4049
VHow
p4050
aVcan
p4051
aVyou
p4052
aVask
p4053
ag70
aVanswer
p4054
aVHans
p4055
ag97
asg98
(lp4056
g101
ag101
ag101
ag101
ag101
ag101
aVPERSON
p4057
ag101
asg102
(lp4058
g423
ag116
ag113
ag117
ag111
ag106
ag104
ag119
asg120
VHow can you ask, answered Hans.
p4059
sba(i__main__
Sentence
p4060
(dp4061
g17
I86
sg18
(lp4062
S'I'
p4063
aS'shall'
p4064
aS'be'
p4065
aS'the'
p4066
aS'luckiest'
p4067
aS'fellow'
p4068
aS'on'
p4069
aS'earth'
p4070
aS'.'
p4071
asg60
(lp4072
g82
aVshall
p4073
aVbe
p4074
aVthe
p4075
aVlucky
p4076
aVfellow
p4077
aVon
p4078
aVearth
p4079
ag97
asg98
(lp4080
g101
ag101
ag101
ag101
ag101
ag101
ag101
ag101
ag101
asg102
(lp4081
g113
ag170
ag117
ag169
ag1332
ag118
ag109
ag118
ag119
asg120
VI shall be the luckiest fellow on earth.
p4082
sba(i__main__
Sentence
p4083
(dp4084
g17
I87
sg18
(lp4085
S'If'
p4086
aS'I'
p4087
aS'have'
p4088
aS'money'
p4089
aS'whenever'
p4090
aS'I'
p4091
aS'put'
p4092
aS'my'
p4093
aS'hand'
p4094
aS'in'
p4095
aS'my'
p4096
aS'pocket'
p4097
aS','
p4098
aS'why'
p4099
aS'should'
p4100
aS'I'
p4101
aS'ever'
p4102
aS'worry'
p4103
aS'again'
p4104
aS'.'
p4105
asg60
(lp4106
VIf
p4107
ag82
aVhave
p4108
aVmoney
p4109
aVwhenever
p4110
ag82
aVput
p4111
aVmy
p4112
aVhand
p4113
aVin
p4114
aVmy
p4115
aVpocket
p4116
ag70
aVwhy
p4117
aVshould
p4118
ag82
aVever
p4119
aVworry
p4120
aVagain
p4121
ag97
asg98
(lp4122
g101
ag101
ag101
ag101
ag101
ag101
ag101
ag101
ag101
ag101
ag101
ag101
ag101
ag101
ag101
ag101
ag101
ag101
ag101
ag101
asg102
(lp4123
g109
ag113
ag170
ag108
ag112
ag113
ag105
ag107
ag108
ag109
ag107
ag108
ag111
ag423
ag116
ag113
ag112
ag170
ag112
ag119
asg120
VIf I have money whenever I put my hand in my pocket, why should I ever worry again.
p4124
sba(i__main__
Sentence
p4125
(dp4126
g17
I88
sg18
(lp4127
S'And'
p4128
aS'he'
p4129
aS'handed'
p4130
aS'him'
p4131
aS'the'
p4132
aS'goose'
p4133
aS'and'
p4134
aS'received'
p4135
aS'the'
p4136
aS'grindstone'
p4137
aS'in'
p4138
aS'exchange'
p4139
aS'.'
p4140
asg60
(lp4141
VAnd
p4142
aVhe
p4143
aVhand
p4144
aVhim
p4145
aVthe
p4146
aVgoose
p4147
aVand
p4148
aVreceive
p4149
aVthe
p4150
aVgrindstone
p4151
aVin
p4152
aVexchange
p4153
ag97
asg98
(lp4154
g101
ag101
ag101
ag101
ag101
ag101
ag101
ag101
ag101
ag101
ag101
ag101
ag101
asg102
(lp4155
g171
ag113
ag105
ag113
ag169
ag108
ag171
ag105
ag169
ag108
ag109
ag108
ag119
asg120
VAnd he handed him the goose and received the grindstone in exchange.
p4156
sba(i__main__
Sentence
p4157
(dp4158
g17
I89
sg18
(lp4159
S'Now'
p4160
aS','
p4161
aS'said'
p4162
aS'the'
p4163
aS'grinder'
p4164
aS','
p4165
aS'as'
p4166
aS'he'
p4167
aS'took'
p4168
aS'up'
p4169
aS'an'
p4170
aS'ordinary'
p4171
aS'heavy'
p4172
aS'stone'
p4173
aS'that'
p4174
aS'lay'
p4175
aS'by'
p4176
aS'him'
p4177
aS','
p4178
aS'here'
p4179
aS'is'
p4180
aS'a'
p4181
aS'strong'
p4182
aS'stone'
p4183
aS'for'
p4184
aS'you'
p4185
aS'into'
p4186
aS'the'
p4187
aS'bargain'
p4188
aS','
p4189
aS'you'
p4190
aS'can'
p4191
aS'hammer'
p4192
aS'well'
p4193
aS'upon'
p4194
aS'it'
p4195
aS','
p4196
aS'and'
p4197
aS'straighten'
p4198
aS'your'
p4199
aS'old'
p4200
aS'nails'
p4201
aS'.'
p4202
asg60
(lp4203
VNow
p4204
ag70
ag73
aVthe
p4205
aVgrinder
p4206
ag70
ag158
aVhe
p4207
ag717
aVup
p4208
aVan
p4209
aVordinary
p4210
aVheavy
p4211
aVstone
p4212
aVthat
p4213
aVlay
p4214
aVby
p4215
aVhim
p4216
ag70
aVhere
p4217
ag79
ag158
aVstrong
p4218
aVstone
p4219
aVfor
p4220
aVyou
p4221
aVinto
p4222
aVthe
p4223
aVbargain
p4224
ag70
aVyou
p4225
aVcan
p4226
aVhammer
p4227
aVwell
p4228
aVupon
p4229
aVit
p4230
ag70
aVand
p4231
aVstraighten
p4232
aVyour
p4233
aVold
p4234
aVnail
p4235
ag97
asg98
(lp4236
g101
ag101
ag101
ag101
ag101
ag101
ag101
ag101
ag101
ag101
ag101
ag101
ag101
ag101
ag101
ag101
ag101
ag101
ag101
ag101
ag101
ag101
ag101
ag101
ag101
ag101
ag101
ag101
ag101
ag101
ag101
ag101
ag101
ag101
ag101
ag101
ag101
ag101
ag101
ag101
ag101
ag101
ag101
asg102
(lp4237
g112
ag111
ag105
ag169
ag108
ag111
ag109
ag113
ag105
ag269
ag169
ag118
ag108
ag108
ag945
ag108
ag109
ag113
ag111
ag112
ag115
ag169
ag118
ag108
ag109
ag113
ag109
ag169
ag108
ag111
ag113
ag116
ag117
ag112
ag109
ag113
ag111
ag171
ag112
ag107
ag118
ag104
ag119
asg120
VNow, said the grinder, as he took up an ordinary heavy stone that lay by him, here is a strong stone for you into the bargain, you can hammer well upon it, and straighten your old nails.
p4238
sba(i__main__
Sentence
p4239
(dp4240
g17
I90
sg18
(lp4241
S'Take'
p4242
aS'it'
p4243
aS'with'
p4244
aS'you'
p4245
aS'and'
p4246
aS'keep'
p4247
aS'it'
p4248
aS'carefully'
p4249
aS'.'
p4250
asg60
(lp4251
VTake
p4252
aVit
p4253
aVwith
p4254
aVyou
p4255
aVand
p4256
aVkeep
p4257
aVit
p4258
aVcarefully
p4259
ag97
asg98
(lp4260
g101
ag101
ag101
ag101
ag101
ag101
ag101
ag101
ag101
asg102
(lp4261
g204
ag113
ag109
ag113
ag171
ag117
ag113
ag112
ag119
asg120
VTake it with you and keep it carefully.
p4262
sba(i__main__
Sentence
p4263
(dp4264
g17
I91
sg18
(lp4265
S'Hans'
p4266
aS'loaded'
p4267
aS'himself'
p4268
aS'with'
p4269
aS'the'
p4270
aS'stones'
p4271
aS','
p4272
aS'and'
p4273
aS'went'
p4274
aS'on'
p4275
aS'with'
p4276
aS'a'
p4277
aS'contented'
p4278
aS'heart'
p4279
aS','
p4280
aS'his'
p4281
aS'eyes'
p4282
aS'shining'
p4283
aS'with'
p4284
aS'joy'
p4285
aS'.'
p4286
asg60
(lp4287
VHans
p4288
aVload
p4289
aVhimself
p4290
aVwith
p4291
aVthe
p4292
aVstone
p4293
ag70
aVand
p4294
ag304
aVon
p4295
aVwith
p4296
ag158
aVcontent
p4297
aVheart
p4298
ag70
aVhis
p4299
aVeye
p4300
aVshin
p4301
aVwith
p4302
aVjoy
p4303
ag97
asg98
(lp4304
VPERSON
p4305
ag101
ag101
ag101
ag101
ag101
ag101
ag101
ag101
ag101
ag101
ag101
ag101
ag101
ag101
ag101
ag101
ag101
ag101
ag101
ag101
asg102
(lp4306
g104
ag105
ag113
ag109
ag169
ag104
ag111
ag171
ag105
ag109
ag109
ag169
ag106
ag108
ag111
ag107
ag104
ag326
ag109
ag108
ag119
asg120
VHans loaded himself with the stones, and went on with a contented heart, his eyes shining with joy.
p4307
sba(i__main__
Sentence
p4308
(dp4309
g17
I92
sg18
(lp4310
S'I'
p4311
aS'must'
p4312
aS'have'
p4313
aS'been'
p4314
aS'born'
p4315
aS'with'
p4316
aS'a'
p4317
aS'caul'
p4318
aS','
p4319
aS'he'
p4320
aS'cried'
p4321
aS','
p4322
aS'everything'
p4323
aS'I'
p4324
aS'want'
p4325
aS'happens'
p4326
aS'to'
p4327
aS'me'
p4328
aS'just'
p4329
aS'as'
p4330
aS'if'
p4331
aS'I'
p4332
aS'were'
p4333
aS'a'
p4334
aS'sunday-child'
p4335
aS'.'
p4336
asg60
(lp4337
g82
aVmust
p4338
aVhave
p4339
ag991
aVbear
p4340
aVwith
p4341
ag158
aVcaul
p4342
ag70
aVhe
p4343
ag1985
ag70
aVeverything
p4344
ag82
aVwant
p4345
aVhappens
p4346
aVto
p4347
aVme
p4348
aVjust
p4349
ag158
aVif
p4350
ag82
aVbe
p4351
ag158
aVsunday-child
p4352
ag97
asg98
(lp4353
g101
ag101
ag101
ag101
ag101
ag101
ag101
ag101
ag101
ag101
ag101
ag101
ag101
ag101
ag101
ag101
ag101
ag101
ag101
ag101
ag101
ag101
ag101
ag101
ag101
ag101
asg102
(lp4354
g113
ag116
ag117
ag106
ag106
ag109
ag169
ag118
ag111
ag113
ag105
ag111
ag108
ag113
ag170
ag104
ag114
ag113
ag112
ag109
ag109
ag113
ag105
ag169
ag118
ag119
asg120
VI must have been born with a caul, he cried, everything I want happens to me just as if I were a sunday-child.
p4355
sba(i__main__
Sentence
p4356
(dp4357
g17
I93
sg18
(lp4358
S'Meanwhile'
p4359
aS','
p4360
aS'as'
p4361
aS'he'
p4362
aS'had'
p4363
aS'been'
p4364
aS'on'
p4365
aS'his'
p4366
aS'legs'
p4367
aS'since'
p4368
aS'daybreak'
p4369
aS','
p4370
aS'he'
p4371
aS'began'
p4372
aS'to'
p4373
aS'feel'
p4374
aS'tired'
p4375
aS'.'
p4376
asg60
(lp4377
VMeanwhile
p4378
ag70
ag158
aVhe
p4379
ag63
ag991
aVon
p4380
aVhis
p4381
aVleg
p4382
aVsince
p4383
aVdaybreak
p4384
ag70
aVhe
p4385
ag851
aVto
p4386
aVfeel
p4387
aVtired
p4388
ag97
asg98
(lp4389
g101
ag101
ag101
ag101
ag101
ag101
ag101
ag101
ag101
ag101
ag101
ag101
ag101
ag101
ag101
ag101
ag101
ag101
asg102
(lp4390
g112
ag111
ag109
ag113
ag105
ag106
ag109
ag107
ag104
ag109
ag108
ag111
ag113
ag105
ag114
ag117
ag118
ag119
asg120
VMeanwhile, as he had been on his legs since daybreak, he began to feel tired.
p4391
sba(i__main__
Sentence
p4392
(dp4393
g17
I94
sg18
(lp4394
S'Hunger'
p4395
aS'also'
p4396
aS'tormented'
p4397
aS'him'
p4398
aS','
p4399
aS'for'
p4400
aS'in'
p4401
aS'his'
p4402
aS'joy'
p4403
aS'at'
p4404
aS'the'
p4405
aS'bargain'
p4406
aS'by'
p4407
aS'which'
p4408
aS'he'
p4409
aS'got'
p4410
aS'the'
p4411
aS'cow'
p4412
aS'he'
p4413
aS'had'
p4414
aS'eaten'
p4415
aS'up'
p4416
aS'all'
p4417
aS'his'
p4418
aS'store'
p4419
aS'of'
p4420
aS'food'
p4421
aS'at'
p4422
aS'once'
p4423
aS'.'
p4424
asg60
(lp4425
VHunger
p4426
aValso
p4427
aVtorment
p4428
aVhim
p4429
ag70
aVfor
p4430
aVin
p4431
aVhis
p4432
aVjoy
p4433
aVat
p4434
aVthe
p4435
aVbargain
p4436
aVby
p4437
aVwhich
p4438
aVhe
p4439
ag715
aVthe
p4440
aVcow
p4441
aVhe
p4442
ag63
aVeat
p4443
aVup
p4444
aVall
p4445
aVhis
p4446
aVstore
p4447
aVof
p4448
aVfood
p4449
aVat
p4450
aVonce
p4451
ag97
asg98
(lp4452
g101
ag101
ag101
ag101
ag101
ag101
ag101
ag101
ag101
ag101
ag101
ag101
ag101
ag101
ag101
ag101
ag101
ag101
ag101
ag101
ag101
ag101
ag101
ag101
ag101
ag101
ag101
ag101
ag101
ag101
asg102
(lp4453
g204
ag112
ag105
ag113
ag111
ag109
ag109
ag107
ag108
ag109
ag169
ag108
ag109
ag945
ag113
ag105
ag169
ag108
ag113
ag105
ag106
ag269
ag169
ag107
ag108
ag109
ag108
ag109
ag112
ag119
asg120
VHunger also tormented him, for in his joy at the bargain by which he got the cow he had eaten up all his store of food at once.
p4454
sba(i__main__
Sentence
p4455
(dp4456
g17
I95
sg18
(lp4457
S'At'
p4458
aS'last'
p4459
aS'he'
p4460
aS'could'
p4461
aS'only'
p4462
aS'go'
p4463
aS'on'
p4464
aS'with'
p4465
aS'great'
p4466
aS'trouble'
p4467
aS','
p4468
aS'and'
p4469
aS'was'
p4470
aS'forced'
p4471
aS'to'
p4472
aS'stop'
p4473
aS'every'
p4474
aS'minute'
p4475
aS','
p4476
aS'the'
p4477
aS'stones'
p4478
aS','
p4479
aS'too'
p4480
aS','
p4481
aS'weighed'
p4482
aS'him'
p4483
aS'down'
p4484
aS'dreadfully'
p4485
aS'.'
p4486
asg60
(lp4487
VAt
p4488
aVlast
p4489
aVhe
p4490
aVcould
p4491
aVonly
p4492
aVgo
p4493
aVon
p4494
aVwith
p4495
aVgreat
p4496
aVtrouble
p4497
ag70
aVand
p4498
ag161
aVforce
p4499
aVto
p4500
aVstop
p4501
aVevery
p4502
aVminute
p4503
ag70
aVthe
p4504
aVstone
p4505
ag70
aVtoo
p4506
ag70
aVweigh
p4507
aVhim
p4508
aVdown
p4509
aVdreadfully
p4510
ag97
asg98
(lp4511
g101
ag101
ag101
ag101
ag101
ag101
ag101
ag101
ag101
ag101
ag101
ag101
ag101
ag101
ag101
ag101
ag101
ag101
ag101
ag101
ag101
ag101
ag101
ag101
ag101
ag101
ag101
ag101
ag101
asg102
(lp4512
g109
ag118
ag113
ag116
ag112
ag117
ag109
ag109
ag118
ag108
ag111
ag171
ag105
ag106
ag114
ag117
ag169
ag108
ag111
ag169
ag104
ag111
ag112
ag111
ag105
ag113
ag109
ag112
ag119
asg120
VAt last he could only go on with great trouble, and was forced to stop every minute, the stones, too, weighed him down dreadfully.
p4513
sba(i__main__
Sentence
p4514
(dp4515
g17
I96
sg18
(lp4516
S'Then'
p4517
aS'he'
p4518
aS'could'
p4519
aS'not'
p4520
aS'help'
p4521
aS'thinking'
p4522
aS'how'
p4523
aS'nice'
p4524
aS'it'
p4525
aS'would'
p4526
aS'be'
p4527
aS'if'
p4528
aS'he'
p4529
aS'had'
p4530
aS'not'
p4531
aS'to'
p4532
aS'carry'
p4533
aS'them'
p4534
aS'just'
p4535
aS'then'
p4536
aS'.'
p4537
asg60
(lp4538
VThen
p4539
aVhe
p4540
aVcould
p4541
aVnot
p4542
aVhelp
p4543
aVthink
p4544
aVhow
p4545
aVnice
p4546
aVit
p4547
aVwould
p4548
aVbe
p4549
aVif
p4550
aVhe
p4551
ag63
aVnot
p4552
aVto
p4553
aVcarry
p4554
aVthem
p4555
aVjust
p4556
aVthen
p4557
ag97
asg98
(lp4558
g101
ag101
ag101
ag101
ag101
ag101
ag101
ag101
ag101
ag101
ag101
ag101
ag101
ag101
ag101
ag101
ag101
ag101
ag101
ag101
ag101
asg102
(lp4559
g112
ag113
ag116
ag112
ag117
ag326
ag423
ag118
ag113
ag116
ag117
ag109
ag113
ag105
ag112
ag114
ag117
ag113
ag112
ag112
ag119
asg120
VThen he could not help thinking how nice it would be if he had not to carry them just then.
p4560
sba(i__main__
Sentence
p4561
(dp4562
g17
I97
sg18
(lp4563
S'He'
p4564
aS'crept'
p4565
aS'like'
p4566
aS'a'
p4567
aS'snail'
p4568
aS'to'
p4569
aS'a'
p4570
aS'well'
p4571
aS'in'
p4572
aS'a'
p4573
aS'field'
p4574
aS','
p4575
aS'and'
p4576
aS'there'
p4577
aS'he'
p4578
aS'thought'
p4579
aS'that'
p4580
aS'he'
p4581
aS'would'
p4582
aS'rest'
p4583
aS'and'
p4584
aS'refresh'
p4585
aS'himself'
p4586
aS'with'
p4587
aS'a'
p4588
aS'cool'
p4589
aS'draught'
p4590
aS'of'
p4591
aS'water'
p4592
aS','
p4593
aS'but'
p4594
aS'in'
p4595
aS'order'
p4596
aS'that'
p4597
aS'he'
p4598
aS'might'
p4599
aS'not'
p4600
aS'injure'
p4601
aS'the'
p4602
aS'stones'
p4603
aS'in'
p4604
aS'sitting'
p4605
aS'down'
p4606
aS','
p4607
aS'he'
p4608
aS'laid'
p4609
aS'them'
p4610
aS'carefully'
p4611
aS'by'
p4612
aS'his'
p4613
aS'side'
p4614
aS'on'
p4615
aS'the'
p4616
aS'edge'
p4617
aS'of'
p4618
aS'the'
p4619
aS'well'
p4620
aS'.'
p4621
asg60
(lp4622
VHe
p4623
aVcreep
p4624
aVlike
p4625
ag158
aVsnail
p4626
aVto
p4627
ag158
aVwell
p4628
aVin
p4629
ag158
aVfield
p4630
ag70
aVand
p4631
aVthere
p4632
aVhe
p4633
ag842
aVthat
p4634
aVhe
p4635
aVwould
p4636
aVrest
p4637
aVand
p4638
aVrefresh
p4639
aVhimself
p4640
aVwith
p4641
ag158
aVcool
p4642
aVdraught
p4643
aVof
p4644
aVwater
p4645
ag70
aVbut
p4646
aVin
p4647
aVorder
p4648
aVthat
p4649
aVhe
p4650
aVmight
p4651
aVnot
p4652
aVinjure
p4653
aVthe
p4654
aVstone
p4655
aVin
p4656
aVsit
p4657
aVdown
p4658
ag70
aVhe
p4659
ag2651
aVthem
p4660
aVcarefully
p4661
aVby
p4662
aVhis
p4663
aVside
p4664
aVon
p4665
aVthe
p4666
aVedge
p4667
aVof
p4668
aVthe
p4669
aVwell
p4670
ag97
asg98
(lp4671
g101
ag101
ag101
ag101
ag101
ag101
ag101
ag101
ag101
ag101
ag101
ag101
ag101
ag101
ag101
ag101
ag101
ag101
ag101
ag101
ag101
ag101
ag101
ag101
ag101
ag101
ag101
ag101
ag101
ag101
ag101
ag101
ag101
ag101
ag101
ag101
ag101
ag101
ag101
ag101
ag101
ag101
ag101
ag101
ag101
ag101
ag101
ag101
ag101
ag101
ag101
ag101
ag101
ag101
ag101
ag101
ag101
ag101
asg102
(lp4672
g113
ag105
ag109
ag169
ag108
ag114
ag169
ag112
ag109
ag169
ag108
ag111
ag171
ag422
ag113
ag105
ag109
ag113
ag116
ag117
ag171
ag118
ag113
ag109
ag169
ag118
ag108
ag109
ag108
ag111
ag171
ag109
ag108
ag109
ag113
ag116
ag112
ag117
ag169
ag104
ag109
ag326
ag109
ag111
ag113
ag105
ag113
ag112
ag109
ag107
ag108
ag109
ag169
ag108
ag109
ag169
ag108
ag119
asg120
VHe crept like a snail to a well in a field, and there he thought that he would rest and refresh himself with a cool draught of water, but in order that he might not injure the stones in sitting down, he laid them carefully by his side on the edge of the well.
p4673
sba(i__main__
Sentence
p4674
(dp4675
g17
I98
sg18
(lp4676
S'Then'
p4677
aS'he'
p4678
aS'sat'
p4679
aS'down'
p4680
aS'on'
p4681
aS'it'
p4682
aS','
p4683
aS'and'
p4684
aS'was'
p4685
aS'to'
p4686
aS'stoop'
p4687
aS'and'
p4688
aS'drink'
p4689
aS','
p4690
aS'when'
p4691
aS'he'
p4692
aS'made'
p4693
aS'a'
p4694
aS'slip'
p4695
aS','
p4696
aS'pushed'
p4697
aS'against'
p4698
aS'the'
p4699
aS'stones'
p4700
aS','
p4701
aS'and'
p4702
aS'both'
p4703
aS'of'
p4704
aS'them'
p4705
aS'fell'
p4706
aS'into'
p4707
aS'the'
p4708
aS'water'
p4709
aS'.'
p4710
asg60
(lp4711
VThen
p4712
aVhe
p4713
ag792
aVdown
p4714
aVon
p4715
aVit
p4716
ag70
aVand
p4717
ag161
aVto
p4718
aVstoop
p4719
aVand
p4720
aVdrink
p4721
ag70
aVwhen
p4722
aVhe
p4723
ag1535
ag158
aVslip
p4724
ag70
aVpush
p4725
aVagainst
p4726
aVthe
p4727
aVstone
p4728
ag70
aVand
p4729
aVboth
p4730
aVof
p4731
aVthem
p4732
aVfell
p4733
aVinto
p4734
aVthe
p4735
aVwater
p4736
ag97
asg98
(lp4737
g101
ag101
ag101
ag101
ag101
ag101
ag101
ag101
ag101
ag101
ag101
ag101
ag101
ag101
ag101
ag101
ag101
ag101
ag101
ag101
ag101
ag101
ag101
ag101
ag101
ag101
ag101
ag101
ag101
ag101
ag101
ag101
ag101
ag101
asg102
(lp4738
g112
ag113
ag105
ag269
ag109
ag113
ag111
ag171
ag105
ag114
ag117
ag171
ag117
ag111
ag423
ag113
ag105
ag169
ag108
ag111
ag105
ag109
ag169
ag104
ag111
ag171
ag169
ag109
ag113
ag105
ag109
ag169
ag108
ag119
asg120
VThen he sat down on it, and was to stoop and drink, when he made a slip, pushed against the stones, and both of them fell into the water.
p4739
sba(i__main__
Sentence
p4740
(dp4741
g17
I99
sg18
(lp4742
S'When'
p4743
aS'Hans'
p4744
aS'saw'
p4745
aS'them'
p4746
aS'with'
p4747
aS'his'
p4748
aS'own'
p4749
aS'eyes'
p4750
aS'sinking'
p4751
aS'to'
p4752
aS'the'
p4753
aS'bottom'
p4754
aS','
p4755
aS'he'
p4756
aS'jumped'
p4757
aS'for'
p4758
aS'joy'
p4759
aS','
p4760
aS'and'
p4761
aS'then'
p4762
aS'knelt'
p4763
aS'down'
p4764
aS','
p4765
aS'and'
p4766
aS'with'
p4767
aS'tears'
p4768
aS'in'
p4769
aS'his'
p4770
aS'eyes'
p4771
aS'thanked'
p4772
aS'God'
p4773
aS'for'
p4774
aS'having'
p4775
aS'shown'
p4776
aS'him'
p4777
aS'this'
p4778
aS'favor'
p4779
aS'also'
p4780
aS','
p4781
aS'and'
p4782
aS'delivered'
p4783
aS'him'
p4784
aS'in'
p4785
aS'so'
p4786
aS'good'
p4787
aS'a'
p4788
aS'way'
p4789
aS','
p4790
aS'and'
p4791
aS'without'
p4792
aS'his'
p4793
aS'having'
p4794
aS'any'
p4795
aS'need'
p4796
aS'to'
p4797
aS'reproach'
p4798
aS'himself'
p4799
aS','
p4800
aS'from'
p4801
aS'those'
p4802
aS'heavy'
p4803
aS'stones'
p4804
aS'which'
p4805
aS'had'
p4806
aS'been'
p4807
aS'the'
p4808
aS'only'
p4809
aS'things'
p4810
aS'that'
p4811
aS'troubled'
p4812
aS'him'
p4813
aS'.'
p4814
asg60
(lp4815
VWhen
p4816
aVHans
p4817
aVsaw
p4818
aVthem
p4819
aVwith
p4820
aVhis
p4821
aVown
p4822
aVeye
p4823
aVsink
p4824
aVto
p4825
aVthe
p4826
aVbottom
p4827
ag70
aVhe
p4828
aVjump
p4829
aVfor
p4830
aVjoy
p4831
ag70
aVand
p4832
aVthen
p4833
aVkneel
p4834
aVdown
p4835
ag70
aVand
p4836
aVwith
p4837
aVtear
p4838
aVin
p4839
aVhis
p4840
aVeye
p4841
aVthank
p4842
aVGod
p4843
aVfor
p4844
aVhave
p4845
aVshown
p4846
aVhim
p4847
aVthis
p4848
aVfavor
p4849
aValso
p4850
ag70
aVand
p4851
aVdeliver
p4852
aVhim
p4853
aVin
p4854
aVso
p4855
aVgood
p4856
ag158
aVway
p4857
ag70
aVand
p4858
aVwithout
p4859
aVhis
p4860
aVhaving
p4861
aVany
p4862
aVneed
p4863
aVto
p4864
aVreproach
p4865
aVhimself
p4866
ag70
aVfrom
p4867
aVthose
p4868
aVheavy
p4869
aVstone
p4870
aVwhich
p4871
ag63
ag991
aVthe
p4872
aVonly
p4873
aVthing
p4874
aVthat
p4875
aVtrouble
p4876
aVhim
p4877
ag97
asg98
(lp4878
g101
aVPERSON
p4879
ag101
ag101
ag101
ag101
ag101
ag101
ag101
ag101
ag101
ag101
ag101
ag101
ag101
ag101
ag101
ag101
ag101
ag101
ag101
ag101
ag101
ag101
ag101
ag101
ag101
ag101
ag101
ag101
ag101
ag101
ag101
ag101
ag101
ag101
ag101
ag101
ag101
ag101
ag101
ag101
ag101
ag101
ag101
ag101
ag101
ag101
ag101
ag101
ag101
ag101
ag101
ag101
ag101
ag101
ag101
ag101
ag101
ag101
ag101
ag101
ag101
ag101
ag101
ag101
ag101
ag101
ag101
ag101
ag101
ag101
asg102
(lp4880
g423
ag104
ag105
ag113
ag109
ag107
ag118
ag104
ag326
ag114
ag169
ag108
ag111
ag113
ag105
ag109
ag108
ag111
ag171
ag112
ag105
ag109
ag111
ag171
ag109
ag104
ag109
ag107
ag104
ag105
ag204
ag109
ag326
ag108
ag113
ag169
ag108
ag112
ag111
ag171
ag105
ag113
ag109
ag112
ag118
ag169
ag108
ag111
ag171
ag109
ag107
ag108
ag169
ag108
ag114
ag117
ag113
ag111
ag109
ag169
ag118
ag104
ag945
ag105
ag106
ag169
ag118
ag104
ag945
ag105
ag113
ag119
asg120
VWhen Hans saw them with his own eyes sinking to the bottom, he jumped for joy, and then knelt down, and with tears in his eyes thanked God for having shown him this favor also, and delivered him in so good a way, and without his having any need to reproach himself, from those heavy stones which had been the only things that troubled him.
p4881
sba(i__main__
Sentence
p4882
(dp4883
g17
I100
sg18
(lp4884
S'There'
p4885
aS'is'
p4886
aS'no'
p4887
aS'man'
p4888
aS'under'
p4889
aS'the'
p4890
aS'sun'
p4891
aS'so'
p4892
aS'fortunate'
p4893
aS'as'
p4894
aS'I'
p4895
aS','
p4896
aS'he'
p4897
aS'cried'
p4898
aS'out'
p4899
aS'.'
p4900
asg60
(lp4901
VThere
p4902
ag79
aVno
p4903
aVman
p4904
aVunder
p4905
aVthe
p4906
aVsun
p4907
aVso
p4908
aVfortunate
p4909
ag158
ag82
ag70
aVhe
p4910
ag1985
aVout
p4911
ag97
asg98
(lp4912
g101
ag101
ag101
ag101
ag101
ag101
ag101
ag101
ag101
ag101
ag101
ag101
ag101
ag101
ag101
ag101
asg102
(lp4913
g422
ag115
ag169
ag108
ag109
ag169
ag108
ag112
ag118
ag109
ag113
ag111
ag113
ag105
ag269
ag119
asg120
VThere is no man under the sun so fortunate as I, he cried out.
p4914
sba(i__main__
Sentence
p4915
(dp4916
g17
I101
sg18
(lp4917
S'With'
p4918
aS'a'
p4919
aS'light'
p4920
aS'heart'
p4921
aS'and'
p4922
aS'free'
p4923
aS'from'
p4924
aS'every'
p4925
aS'burden'
p4926
aS'he'
p4927
aS'now'
p4928
aS'ran'
p4929
aS'on'
p4930
aS'until'
p4931
aS'he'
p4932
aS'was'
p4933
aS'with'
p4934
aS'his'
p4935
aS'mother'
p4936
aS'at'
p4937
aS'home'
p4938
aS'.'
p4939
asg60
(lp4940
VWith
p4941
ag158
aVlight
p4942
aVheart
p4943
aVand
p4944
aVfree
p4945
aVfrom
p4946
aVevery
p4947
aVburden
p4948
aVhe
p4949
aVnow
p4950
aVrun
p4951
aVon
p4952
aVuntil
p4953
aVhe
p4954
ag161
aVwith
p4955
aVhis
p4956
aVmother
p4957
aVat
p4958
aVhome
p4959
ag97
asg98
(lp4960
g101
ag101
ag101
ag101
ag101
ag101
ag101
ag101
ag101
ag101
ag101
ag101
ag101
ag101
ag101
ag101
ag101
ag101
ag101
ag101
ag101
ag101
asg102
(lp4961
g109
ag169
ag118
ag108
ag171
ag118
ag109
ag169
ag108
ag113
ag112
ag105
ag109
ag109
ag113
ag105
ag109
ag107
ag108
ag109
ag108
ag119
asg120
VWith a light heart and free from every burden he now ran on until he was with his mother at home. 
p4962
sbasbsS'summary'
p4963
g0
(g7
g2
Ntp4964
Rp4965
(dp4966
g11
S'After finishing seven years of labor, Hans asks for his pay. His master gives him a piece of gold as big as his head. Hans trades this piece of gold for a horse he can ride and rids himself of the heavy piece of gold. Hans believes this to be the best trade until he falls off the horse. Then he trades his horse for a cow and is happy until he finds the cow will not give milk. Hans continues to make trades until he winds up only with a grindstone and a plain stone. He grows weary carrying these stones and sets them on the side of a well so he can get a drink. He accidentally knocks the stones into the water. Even though he goes home empty handed, Hans believes this accident was fortunate as he no longer has...'
p4967
sg13
(lp4968
(i__main__
Sentence
p4969
(dp4970
g17
I0
sg18
(lp4971
S'After'
p4972
aS'finishing'
p4973
aS'seven'
p4974
aS'years'
p4975
aS'of'
p4976
aS'labor'
p4977
aS','
p4978
aS'Hans'
p4979
aS'asks'
p4980
aS'for'
p4981
aS'his'
p4982
aS'pay'
p4983
aS'.'
p4984
asg60
(lp4985
VAfter
p4986
aVfinish
p4987
aVseven
p4988
aVyear
p4989
aVof
p4990
aVlabor
p4991
ag70
aVHans
p4992
aVask
p4993
aVfor
p4994
aVhis
p4995
aVpay
p4996
ag97
asg98
(lp4997
g101
ag101
ag101
ag101
ag101
ag101
ag101
aVPERSON
p4998
ag101
ag101
ag101
ag101
ag101
asg102
(lp4999
g109
ag326
ag110
ag104
ag109
ag108
ag111
ag204
ag115
ag109
ag107
ag108
ag119
asg120
VAfter finishing seven years of labor, Hans asks for his pay.
p5000
sba(i__main__
Sentence
p5001
(dp5002
g17
I1
sg18
(lp5003
S'His'
p5004
aS'master'
p5005
aS'gives'
p5006
aS'him'
p5007
aS'a'
p5008
aS'piece'
p5009
aS'of'
p5010
aS'gold'
p5011
aS'as'
p5012
aS'big'
p5013
aS'as'
p5014
aS'his'
p5015
aS'head'
p5016
aS'.'
p5017
asg60
(lp5018
VHis
p5019
aVmaster
p5020
aVgive
p5021
aVhim
p5022
ag158
aVpiece
p5023
aVof
p5024
aVgold
p5025
ag158
aVbig
p5026
ag158
aVhis
p5027
aVhead
p5028
ag97
asg98
(lp5029
g101
ag101
ag101
ag101
ag101
ag101
ag101
ag101
ag101
ag101
ag101
ag101
ag101
ag101
asg102
(lp5030
g107
ag108
ag115
ag113
ag169
ag108
ag109
ag108
ag109
ag118
ag109
ag107
ag108
ag119
asg120
VHis master gives him a piece of gold as big as his head.
p5031
sba(i__main__
Sentence
p5032
(dp5033
g17
I2
sg18
(lp5034
S'Hans'
p5035
aS'trades'
p5036
aS'this'
p5037
aS'piece'
p5038
aS'of'
p5039
aS'gold'
p5040
aS'for'
p5041
aS'a'
p5042
aS'horse'
p5043
aS'he'
p5044
aS'can'
p5045
aS'ride'
p5046
aS'and'
p5047
aS'rids'
p5048
aS'himself'
p5049
aS'of'
p5050
aS'the'
p5051
aS'heavy'
p5052
aS'piece'
p5053
aS'of'
p5054
aS'gold'
p5055
aS'.'
p5056
asg60
(lp5057
VHans
p5058
aVtrade
p5059
aVthis
p5060
aVpiece
p5061
aVof
p5062
aVgold
p5063
aVfor
p5064
ag158
aVhorse
p5065
aVhe
p5066
aVcan
p5067
aVride
p5068
aVand
p5069
aVrids
p5070
aVhimself
p5071
aVof
p5072
aVthe
p5073
aVheavy
p5074
aVpiece
p5075
aVof
p5076
aVgold
p5077
ag97
asg98
(lp5078
g101
ag101
ag101
ag101
ag101
ag101
ag101
ag101
ag101
ag101
ag101
ag101
ag101
ag101
ag101
ag101
ag101
ag101
ag101
ag101
ag101
ag101
asg102
(lp5079
g104
ag104
ag169
ag108
ag109
ag108
ag109
ag169
ag108
ag113
ag116
ag117
ag171
ag104
ag113
ag109
ag169
ag118
ag108
ag109
ag108
ag119
asg120
VHans trades this piece of gold for a horse he can ride and rids himself of the heavy piece of gold.
p5080
sba(i__main__
Sentence
p5081
(dp5082
g17
I3
sg18
(lp5083
S'Hans'
p5084
aS'believes'
p5085
aS'this'
p5086
aS'to'
p5087
aS'be'
p5088
aS'the'
p5089
aS'best'
p5090
aS'trade'
p5091
aS'until'
p5092
aS'he'
p5093
aS'falls'
p5094
aS'off'
p5095
aS'the'
p5096
aS'horse'
p5097
aS'.'
p5098
asg60
(lp5099
VHans
p5100
aVbelieve
p5101
aVthis
p5102
aVto
p5103
aVbe
p5104
aVthe
p5105
aVbest
p5106
aVtrade
p5107
aVuntil
p5108
aVhe
p5109
aVfall
p5110
aVoff
p5111
aVthe
p5112
aVhorse
p5113
ag97
asg98
(lp5114
VPERSON
p5115
ag101
ag101
ag101
ag101
ag101
ag101
ag101
ag101
ag101
ag101
ag101
ag101
ag101
ag101
asg102
(lp5116
g104
ag115
ag169
ag114
ag117
ag169
ag1332
ag108
ag109
ag113
ag115
ag269
ag169
ag108
ag119
asg120
VHans believes this to be the best trade until he falls off the horse.
p5117
sba(i__main__
Sentence
p5118
(dp5119
g17
I4
sg18
(lp5120
S'Then'
p5121
aS'he'
p5122
aS'trades'
p5123
aS'his'
p5124
aS'horse'
p5125
aS'for'
p5126
aS'a'
p5127
aS'cow'
p5128
aS'and'
p5129
aS'is'
p5130
aS'happy'
p5131
aS'until'
p5132
aS'he'
p5133
aS'finds'
p5134
aS'the'
p5135
aS'cow'
p5136
aS'will'
p5137
aS'not'
p5138
aS'give'
p5139
aS'milk'
p5140
aS'.'
p5141
asg60
(lp5142
VThen
p5143
aVhe
p5144
aVtrade
p5145
aVhis
p5146
aVhorse
p5147
aVfor
p5148
ag158
aVcow
p5149
aVand
p5150
ag79
aVhappy
p5151
aVuntil
p5152
aVhe
p5153
aVfind
p5154
aVthe
p5155
aVcow
p5156
aVwill
p5157
aVnot
p5158
aVgive
p5159
aVmilk
p5160
ag97
asg98
(lp5161
g101
ag101
ag101
ag101
ag101
ag101
ag101
ag101
ag101
ag101
ag101
ag101
ag101
ag101
ag101
ag101
ag101
ag101
ag101
ag101
ag101
asg102
(lp5162
g112
ag113
ag115
ag107
ag108
ag109
ag169
ag108
ag171
ag115
ag118
ag109
ag113
ag115
ag169
ag108
ag116
ag112
ag117
ag108
ag119
asg120
VThen he trades his horse for a cow and is happy until he finds the cow will not give milk.
p5163
sba(i__main__
Sentence
p5164
(dp5165
g17
I5
sg18
(lp5166
S'Hans'
p5167
aS'continues'
p5168
aS'to'
p5169
aS'make'
p5170
aS'trades'
p5171
aS'until'
p5172
aS'he'
p5173
aS'winds'
p5174
aS'up'
p5175
aS'only'
p5176
aS'with'
p5177
aS'a'
p5178
aS'grindstone'
p5179
aS'and'
p5180
aS'a'
p5181
aS'plain'
p5182
aS'stone'
p5183
aS'.'
p5184
asg60
(lp5185
VHans
p5186
aVcontinue
p5187
aVto
p5188
aVmake
p5189
aVtrade
p5190
aVuntil
p5191
aVhe
p5192
aVwind
p5193
aVup
p5194
aVonly
p5195
aVwith
p5196
ag158
aVgrindstone
p5197
aVand
p5198
ag158
aVplain
p5199
aVstone
p5200
ag97
asg98
(lp5201
VPERSON
p5202
ag101
ag101
ag101
ag101
ag101
ag101
ag101
ag101
ag101
ag101
ag101
ag101
ag101
ag101
ag101
ag101
ag101
asg102
(lp5203
g104
ag115
ag114
ag117
ag104
ag109
ag113
ag115
ag269
ag112
ag109
ag169
ag108
ag171
ag169
ag108
ag108
ag119
asg120
VHans continues to make trades until he winds up only with a grindstone and a plain stone.
p5204
sba(i__main__
Sentence
p5205
(dp5206
g17
I6
sg18
(lp5207
S'He'
p5208
aS'grows'
p5209
aS'weary'
p5210
aS'carrying'
p5211
aS'these'
p5212
aS'stones'
p5213
aS'and'
p5214
aS'sets'
p5215
aS'them'
p5216
aS'on'
p5217
aS'the'
p5218
aS'side'
p5219
aS'of'
p5220
aS'a'
p5221
aS'well'
p5222
aS'so'
p5223
aS'he'
p5224
aS'can'
p5225
aS'get'
p5226
aS'a'
p5227
aS'drink'
p5228
aS'.'
p5229
asg60
(lp5230
VHe
p5231
aVgrow
p5232
aVweary
p5233
aVcarrying
p5234
aVthese
p5235
aVstone
p5236
aVand
p5237
aVset
p5238
aVthem
p5239
aVon
p5240
aVthe
p5241
aVside
p5242
aVof
p5243
ag158
aVwell
p5244
aVso
p5245
aVhe
p5246
aVcan
p5247
aVget
p5248
ag158
aVdrink
p5249
ag97
asg98
(lp5250
g101
ag101
ag101
ag101
ag101
ag101
ag101
ag101
ag101
ag101
ag101
ag101
ag101
ag101
ag101
ag101
ag101
ag101
ag101
ag101
ag101
ag101
asg102
(lp5251
g113
ag115
ag118
ag108
ag169
ag104
ag171
ag104
ag113
ag109
ag169
ag108
ag109
ag169
ag112
ag112
ag113
ag116
ag117
ag169
ag108
ag119
asg120
VHe grows weary carrying these stones and sets them on the side of a well so he can get a drink.
p5252
sba(i__main__
Sentence
p5253
(dp5254
g17
I7
sg18
(lp5255
S'He'
p5256
aS'accidentally'
p5257
aS'knocks'
p5258
aS'the'
p5259
aS'stones'
p5260
aS'into'
p5261
aS'the'
p5262
aS'water'
p5263
aS'.'
p5264
asg60
(lp5265
VHe
p5266
aVaccidentally
p5267
aVknock
p5268
aVthe
p5269
aVstone
p5270
aVinto
p5271
aVthe
p5272
aVwater
p5273
ag97
asg98
(lp5274
g101
ag101
ag101
ag101
ag101
ag101
ag101
ag101
ag101
asg102
(lp5275
g113
ag112
ag115
ag169
ag104
ag109
ag169
ag108
ag119
asg120
VHe accidentally knocks the stones into the water.
p5276
sba(i__main__
Sentence
p5277
(dp5278
g17
I8
sg18
(lp5279
S'Even'
p5280
aS'though'
p5281
aS'he'
p5282
aS'goes'
p5283
aS'home'
p5284
aS'empty'
p5285
aS'handed'
p5286
aS','
p5287
aS'Hans'
p5288
aS'believes'
p5289
aS'this'
p5290
aS'accident'
p5291
aS'was'
p5292
aS'fortunate'
p5293
aS'as'
p5294
aS'he'
p5295
aS'no'
p5296
aS'longer'
p5297
aS'has'
p5298
aS'...'
p5299
asg60
(lp5300
VEven
p5301
aVthough
p5302
aVhe
p5303
aVgo
p5304
aVhome
p5305
aVempty
p5306
aVhand
p5307
ag70
aVHans
p5308
aVbelieve
p5309
aVthis
p5310
aVaccident
p5311
ag161
aVfortunate
p5312
ag158
aVhe
p5313
aVno
p5314
aVlonger
p5315
ag1114
aV...
p5316
asg98
(lp5317
g101
ag101
ag101
ag101
ag101
ag101
ag101
ag101
aVPERSON
p5318
ag101
ag101
ag101
ag101
ag101
ag101
ag101
ag101
ag101
ag101
ag101
asg102
(lp5319
g112
ag109
ag113
ag115
ag108
ag108
ag105
ag111
ag204
ag115
ag169
ag108
ag105
ag118
ag109
ag113
ag169
ag108
ag115
ag1453
asg120
VEven though he goes home empty handed, Hans believes this accident was fortunate as he no longer has...
p5320
sbasbsS'name'
p5321
S'Hans in Luck'
p5322
sS'summaries'
p5323
(lp5324
g4965
asb.