ccopy_reg
_reconstructor
p0
(c__main__
Story
p1
c__builtin__
object
p2
Ntp3
Rp4
(dp5
S'text'
p6
g0
(c__main__
Document
p7
g2
Ntp8
Rp9
(dp10
S'_Document__initialContent'
p11
S'There was once upon a time a shepherd boy whose fame spread\nfar and wide because of the wise answers which he gave to every\nquestion.  The king of the country heard of it likewise, but\ndid not believe it, and sent for the boy.  Then he said to\nhim, if you can give me an answer to three questions which I\nwill ask you, I will look on you as my own child, and you shall\ndwell with me in my royal palace.  The boy said, what are the\nthree questions.  The king said, the first is, how many drops\nof water are there in the ocean.  The shepherd boy answered, lord\nking, if you will have all the rivers on earth dammed up so that\nnot a single drop runs from them into the sea until I have\ncounted it, I will tell you how many drops there are in the sea.\nThe king said, the next question is, how many stars are there\nin the sky.  The shepherd boy said, give me a great sheet of\nwhite paper, and then he made so many fine points on it with a\npen that they could\nscarcely be seen, and it was all but impossible to count them,\nany one who looked at them would have lost his sight.  Then he\nsaid, there are as many stars in the sky as there are points\non the paper.  Just count them.  But no one was able to do it.\nThe king said, the third question is, how many seconds of time\nare there in eternity.  Then said the shepherd boy, in\nlower pomerania is the diamond mountain, which is two miles\nhigh, two miles wide, and two miles deep.  Every hundred\nyears a little bird comes and sharpens its beak on it, and\nwhen the whole mountain is worn away by this, then the first\nsecond of eternity will be over.\nThe king said, you have answered the three questions like a\nwise man, and shall henceforth dwell with me in my royal\npalace, and I will regard you as my own child.\n'
p12
sS'sentences'
p13
(lp14
(i__main__
Sentence
p15
(dp16
S'index'
p17
I0
sS'words'
p18
(lp19
S'There'
p20
aS'was'
p21
aS'once'
p22
aS'upon'
p23
aS'a'
p24
aS'time'
p25
aS'a'
p26
aS'shepherd'
p27
aS'boy'
p28
aS'whose'
p29
aS'fame'
p30
aS'spread'
p31
aS'far'
p32
aS'and'
p33
aS'wide'
p34
aS'because'
p35
aS'of'
p36
aS'the'
p37
aS'wise'
p38
aS'answers'
p39
aS'which'
p40
aS'he'
p41
aS'gave'
p42
aS'to'
p43
aS'every'
p44
aS'question'
p45
aS'.'
p46
asS'lemmas'
p47
(lp48
VThere
p49
aVbe
p50
aVonce
p51
aVupon
p52
aVa
p53
aVtime
p54
ag53
aVshepherd
p55
aVboy
p56
aVwhose
p57
aVfame
p58
aVspread
p59
aVfar
p60
aVand
p61
aVwide
p62
aVbecause
p63
aVof
p64
aVthe
p65
aVwise
p66
aVanswer
p67
aVwhich
p68
aVhe
p69
aVgive
p70
aVto
p71
aVevery
p72
aVquestion
p73
aV.
p74
asS'nerTags'
p75
(lp76
VO
p77
ag77
ag77
ag77
ag77
ag77
ag77
ag77
ag77
ag77
ag77
ag77
ag77
ag77
ag77
ag77
ag77
ag77
ag77
ag77
ag77
ag77
ag77
ag77
ag77
ag77
ag77
asS'posTags'
p78
(lp79
S'EX'
p80
aS'VBD'
p81
aS'RB'
p82
aS'IN'
p83
aS'DT'
p84
aS'NN'
p85
ag84
ag85
ag85
aS'WP$'
p86
ag85
ag85
ag82
aS'CC'
p87
ag82
ag83
ag83
ag84
ag85
aS'NNS'
p88
aS'WDT'
p89
aS'PRP'
p90
ag81
aS'TO'
p91
ag84
ag85
aS'.'
p92
asS'_Sentence__initialContent'
p93
VThere was once upon a time a shepherd boy whose fame spread far and wide because of the wise answers which he gave to every question.
p94
sba(i__main__
Sentence
p95
(dp96
g17
I1
sg18
(lp97
S'The'
p98
aS'king'
p99
aS'of'
p100
aS'the'
p101
aS'country'
p102
aS'heard'
p103
aS'of'
p104
aS'it'
p105
aS'likewise'
p106
aS','
p107
aS'but'
p108
aS'did'
p109
aS'not'
p110
aS'believe'
p111
aS'it'
p112
aS','
p113
aS'and'
p114
aS'sent'
p115
aS'for'
p116
aS'the'
p117
aS'boy'
p118
aS'.'
p119
asg47
(lp120
VThe
p121
aVking
p122
aVof
p123
aVthe
p124
aVcountry
p125
aVheard
p126
aVof
p127
aVit
p128
aVlikewise
p129
aV,
p130
aVbut
p131
aVdo
p132
aVnot
p133
aVbelieve
p134
aVit
p135
ag130
aVand
p136
aVsent
p137
aVfor
p138
aVthe
p139
aVboy
p140
ag74
asg75
(lp141
g77
ag77
ag77
ag77
ag77
ag77
ag77
ag77
ag77
ag77
ag77
ag77
ag77
ag77
ag77
ag77
ag77
ag77
ag77
ag77
ag77
ag77
asg78
(lp142
g84
ag85
ag83
ag84
ag85
ag85
ag83
ag90
aS'VBP'
p143
aS','
p144
ag87
ag81
ag82
aS'VB'
p145
ag90
ag144
ag87
ag85
ag83
ag84
ag85
ag92
asg93
VThe king of the country heard of it likewise, but did not believe it, and sent for the boy.
p146
sba(i__main__
Sentence
p147
(dp148
g17
I2
sg18
(lp149
S'Then'
p150
aS'he'
p151
aS'said'
p152
aS'to'
p153
aS'him'
p154
aS','
p155
aS'if'
p156
aS'you'
p157
aS'can'
p158
aS'give'
p159
aS'me'
p160
aS'an'
p161
aS'answer'
p162
aS'to'
p163
aS'three'
p164
aS'questions'
p165
aS'which'
p166
aS'I'
p167
aS'will'
p168
aS'ask'
p169
aS'you'
p170
aS','
p171
aS'I'
p172
aS'will'
p173
aS'look'
p174
aS'on'
p175
aS'you'
p176
aS'as'
p177
aS'my'
p178
aS'own'
p179
aS'child'
p180
aS','
p181
aS'and'
p182
aS'you'
p183
aS'shall'
p184
aS'dwell'
p185
aS'with'
p186
aS'me'
p187
aS'in'
p188
aS'my'
p189
aS'royal'
p190
aS'palace'
p191
aS'.'
p192
asg47
(lp193
VThen
p194
aVhe
p195
aVsay
p196
aVto
p197
aVhim
p198
ag130
aVif
p199
aVyou
p200
aVcan
p201
aVgive
p202
aVme
p203
aVan
p204
aVanswer
p205
aVto
p206
aVthree
p207
aVquestion
p208
aVwhich
p209
aVI
p210
aVwill
p211
aVask
p212
aVyou
p213
ag130
ag210
aVwill
p214
aVlook
p215
aVon
p216
aVyou
p217
ag53
aVmy
p218
aVown
p219
aVchild
p220
ag130
aVand
p221
aVyou
p222
aVshall
p223
aVdwell
p224
aVwith
p225
aVme
p226
aVin
p227
aVmy
p228
aVroyal
p229
aVpalace
p230
ag74
asg75
(lp231
g77
ag77
ag77
ag77
ag77
ag77
ag77
ag77
ag77
ag77
ag77
ag77
ag77
ag77
ag77
ag77
ag77
ag77
ag77
ag77
ag77
ag77
ag77
ag77
ag77
ag77
ag77
ag77
ag77
ag77
ag77
ag77
ag77
ag77
ag77
ag77
ag77
ag77
ag77
ag77
ag77
ag77
ag77
asg78
(lp232
g82
ag90
ag81
ag91
ag90
ag144
ag83
ag90
aS'MD'
p233
ag145
ag90
ag84
ag85
ag91
aS'CD'
p234
ag88
ag89
ag90
ag233
ag145
ag90
ag144
ag90
ag233
ag145
ag83
ag90
ag83
aS'PRP$'
p235
aS'JJ'
p236
ag85
ag144
ag87
ag90
ag233
ag145
ag83
ag90
ag83
ag235
ag85
ag85
ag92
asg93
VThen he said to him, if you can give me an answer to three questions which I will ask you, I will look on you as my own child, and you shall dwell with me in my royal palace.
p237
sba(i__main__
Sentence
p238
(dp239
g17
I3
sg18
(lp240
S'The'
p241
aS'boy'
p242
aS'said'
p243
aS','
p244
aS'what'
p245
aS'are'
p246
aS'the'
p247
aS'three'
p248
aS'questions'
p249
aS'.'
p250
asg47
(lp251
VThe
p252
aVboy
p253
ag196
ag130
aVwhat
p254
aVbe
p255
aVthe
p256
aVthree
p257
aVquestion
p258
ag74
asg75
(lp259
g77
ag77
ag77
ag77
ag77
ag77
ag77
ag77
ag77
ag77
asg78
(lp260
g84
ag85
ag81
ag144
aS'WP'
p261
ag143
ag84
ag234
ag88
ag92
asg93
VThe boy said, what are the three questions.
p262
sba(i__main__
Sentence
p263
(dp264
g17
I4
sg18
(lp265
S'The'
p266
aS'king'
p267
aS'said'
p268
aS','
p269
aS'the'
p270
aS'first'
p271
aS'is'
p272
aS','
p273
aS'how'
p274
aS'many'
p275
aS'drops'
p276
aS'of'
p277
aS'water'
p278
aS'are'
p279
aS'there'
p280
aS'in'
p281
aS'the'
p282
aS'ocean'
p283
aS'.'
p284
asg47
(lp285
VThe
p286
aVking
p287
ag196
ag130
aVthe
p288
aVfirst
p289
aVbe
p290
ag130
aVhow
p291
aVmany
p292
aVdrop
p293
aVof
p294
aVwater
p295
ag255
aVthere
p296
aVin
p297
aVthe
p298
aVocean
p299
ag74
asg75
(lp300
g77
ag77
ag77
ag77
ag77
ag77
ag77
ag77
ag77
ag77
ag77
ag77
ag77
ag77
ag77
ag77
ag77
ag77
ag77
asg78
(lp301
g84
ag85
ag81
ag144
ag84
ag236
aS'VBZ'
p302
ag144
aS'WRB'
p303
ag236
ag88
ag83
ag85
ag143
ag82
ag83
ag84
ag236
ag92
asg93
VThe king said, the first is, how many drops of water are there in the ocean.
p304
sba(i__main__
Sentence
p305
(dp306
g17
I5
sg18
(lp307
S'The'
p308
aS'shepherd'
p309
aS'boy'
p310
aS'answered'
p311
aS','
p312
aS'lord'
p313
aS'king'
p314
aS','
p315
aS'if'
p316
aS'you'
p317
aS'will'
p318
aS'have'
p319
aS'all'
p320
aS'the'
p321
aS'rivers'
p322
aS'on'
p323
aS'earth'
p324
aS'dammed'
p325
aS'up'
p326
aS'so'
p327
aS'that'
p328
aS'not'
p329
aS'a'
p330
aS'single'
p331
aS'drop'
p332
aS'runs'
p333
aS'from'
p334
aS'them'
p335
aS'into'
p336
aS'the'
p337
aS'sea'
p338
aS'until'
p339
aS'I'
p340
aS'have'
p341
aS'counted'
p342
aS'it'
p343
aS','
p344
aS'I'
p345
aS'will'
p346
aS'tell'
p347
aS'you'
p348
aS'how'
p349
aS'many'
p350
aS'drops'
p351
aS'there'
p352
aS'are'
p353
aS'in'
p354
aS'the'
p355
aS'sea'
p356
aS'.'
p357
asg47
(lp358
VThe
p359
aVshepherd
p360
aVboy
p361
aVanswer
p362
ag130
aVlord
p363
aVking
p364
ag130
aVif
p365
aVyou
p366
aVwill
p367
aVhave
p368
aVall
p369
aVthe
p370
aVriver
p371
aVon
p372
aVearth
p373
aVdam
p374
aVup
p375
aVso
p376
aVthat
p377
aVnot
p378
ag53
aVsingle
p379
aVdrop
p380
aVrun
p381
aVfrom
p382
aVthem
p383
aVinto
p384
aVthe
p385
aVsea
p386
aVuntil
p387
ag210
aVhave
p388
aVcount
p389
aVit
p390
ag130
ag210
aVwill
p391
aVtell
p392
aVyou
p393
aVhow
p394
aVmany
p395
aVdrop
p396
aVthere
p397
ag255
aVin
p398
aVthe
p399
aVsea
p400
ag74
asg75
(lp401
g77
ag77
ag77
ag77
ag77
ag77
ag77
ag77
ag77
ag77
ag77
ag77
ag77
ag77
ag77
ag77
ag77
ag77
ag77
ag77
ag77
ag77
ag77
ag77
ag77
ag77
ag77
ag77
ag77
ag77
ag77
ag77
ag77
ag77
ag77
ag77
ag77
ag77
ag77
ag77
ag77
ag77
ag77
ag77
ag77
ag77
ag77
ag77
ag77
ag77
asg78
(lp402
g84
ag85
ag85
ag81
ag144
ag85
aS'VBG'
p403
ag144
ag83
ag90
ag233
ag145
aS'PDT'
p404
ag84
ag88
ag83
ag236
aS'VBN'
p405
aS'RP'
p406
ag82
ag83
ag82
ag84
ag236
ag85
ag302
ag83
ag90
ag83
ag84
ag85
ag83
ag90
ag143
ag405
ag90
ag144
ag90
ag233
ag145
ag90
ag303
ag236
ag88
ag80
ag143
ag83
ag84
ag85
ag92
asg93
VThe shepherd boy answered, lord king, if you will have all the rivers on earth dammed up so that not a single drop runs from them into the sea until I have counted it, I will tell you how many drops there are in the sea.
p407
sba(i__main__
Sentence
p408
(dp409
g17
I6
sg18
(lp410
S'The'
p411
aS'king'
p412
aS'said'
p413
aS','
p414
aS'the'
p415
aS'next'
p416
aS'question'
p417
aS'is'
p418
aS','
p419
aS'how'
p420
aS'many'
p421
aS'stars'
p422
aS'are'
p423
aS'there'
p424
aS'in'
p425
aS'the'
p426
aS'sky'
p427
aS'.'
p428
asg47
(lp429
VThe
p430
aVking
p431
ag196
ag130
aVthe
p432
aVnext
p433
aVquestion
p434
ag290
ag130
aVhow
p435
aVmany
p436
aVstar
p437
ag255
aVthere
p438
aVin
p439
aVthe
p440
aVsky
p441
ag74
asg75
(lp442
g77
ag77
ag77
ag77
ag77
ag77
ag77
ag77
ag77
ag77
ag77
ag77
ag77
ag77
ag77
ag77
ag77
ag77
asg78
(lp443
g84
ag85
ag81
ag144
ag84
ag236
ag85
ag302
ag144
ag303
ag236
ag88
ag143
ag82
ag83
ag84
ag85
ag92
asg93
VThe king said, the next question is, how many stars are there in the sky.
p444
sba(i__main__
Sentence
p445
(dp446
g17
I7
sg18
(lp447
S'The'
p448
aS'shepherd'
p449
aS'boy'
p450
aS'said'
p451
aS','
p452
aS'give'
p453
aS'me'
p454
aS'a'
p455
aS'great'
p456
aS'sheet'
p457
aS'of'
p458
aS'white'
p459
aS'paper'
p460
aS','
p461
aS'and'
p462
aS'then'
p463
aS'he'
p464
aS'made'
p465
aS'so'
p466
aS'many'
p467
aS'fine'
p468
aS'points'
p469
aS'on'
p470
aS'it'
p471
aS'with'
p472
aS'a'
p473
aS'pen'
p474
aS'that'
p475
aS'they'
p476
aS'could'
p477
aS'scarcely'
p478
aS'be'
p479
aS'seen'
p480
aS','
p481
aS'and'
p482
aS'it'
p483
aS'was'
p484
aS'all'
p485
aS'but'
p486
aS'impossible'
p487
aS'to'
p488
aS'count'
p489
aS'them'
p490
aS','
p491
aS'any'
p492
aS'one'
p493
aS'who'
p494
aS'looked'
p495
aS'at'
p496
aS'them'
p497
aS'would'
p498
aS'have'
p499
aS'lost'
p500
aS'his'
p501
aS'sight'
p502
aS'.'
p503
asg47
(lp504
VThe
p505
aVshepherd
p506
aVboy
p507
ag196
ag130
aVgive
p508
aVme
p509
ag53
aVgreat
p510
aVsheet
p511
aVof
p512
aVwhite
p513
aVpaper
p514
ag130
aVand
p515
aVthen
p516
aVhe
p517
aVmake
p518
aVso
p519
aVmany
p520
aVfine
p521
aVpoint
p522
aVon
p523
aVit
p524
aVwith
p525
ag53
aVpen
p526
aVthat
p527
aVthey
p528
aVcould
p529
aVscarcely
p530
aVbe
p531
aVsee
p532
ag130
aVand
p533
aVit
p534
ag50
aVall
p535
aVbut
p536
aVimpossible
p537
aVto
p538
aVcount
p539
aVthem
p540
ag130
aVany
p541
aVone
p542
aVwho
p543
aVlook
p544
aVat
p545
aVthem
p546
aVwould
p547
aVhave
p548
aVlose
p549
aVhis
p550
aVsight
p551
ag74
asg75
(lp552
g77
ag77
ag77
ag77
ag77
ag77
ag77
ag77
ag77
ag77
ag77
ag77
ag77
ag77
ag77
ag77
ag77
ag77
ag77
ag77
ag77
ag77
ag77
ag77
ag77
ag77
ag77
ag77
ag77
ag77
ag77
ag77
ag77
ag77
ag77
ag77
ag77
ag77
ag77
ag77
ag77
ag77
ag77
ag77
ag77
ag77
ag77
ag77
ag77
ag77
ag77
ag77
ag77
ag77
ag77
ag77
asg78
(lp553
g84
ag85
ag85
ag81
ag144
ag236
ag90
ag84
ag236
ag85
ag83
ag236
ag85
ag144
ag87
ag82
ag90
ag81
ag82
ag236
ag85
ag88
ag83
ag90
ag83
ag84
ag236
ag83
ag90
ag233
ag82
ag145
ag405
ag144
ag87
ag90
ag81
ag404
ag87
ag236
ag91
ag85
ag90
ag144
ag84
ag234
ag261
ag405
ag83
ag90
ag233
ag145
ag405
ag235
ag85
ag92
asg93
VThe shepherd boy said, give me a great sheet of white paper, and then he made so many fine points on it with a pen that they could scarcely be seen, and it was all but impossible to count them, any one who looked at them would have lost his sight.
p554
sba(i__main__
Sentence
p555
(dp556
g17
I8
sg18
(lp557
S'Then'
p558
aS'he'
p559
aS'said'
p560
aS','
p561
aS'there'
p562
aS'are'
p563
aS'as'
p564
aS'many'
p565
aS'stars'
p566
aS'in'
p567
aS'the'
p568
aS'sky'
p569
aS'as'
p570
aS'there'
p571
aS'are'
p572
aS'points'
p573
aS'on'
p574
aS'the'
p575
aS'paper'
p576
aS'.'
p577
asg47
(lp578
VThen
p579
aVhe
p580
ag196
ag130
aVthere
p581
ag255
aVas
p582
aVmany
p583
aVstar
p584
aVin
p585
aVthe
p586
aVsky
p587
ag53
aVthere
p588
ag255
aVpoint
p589
aVon
p590
aVthe
p591
aVpaper
p592
ag74
asg75
(lp593
g77
ag77
ag77
ag77
ag77
ag77
ag77
ag77
ag77
ag77
ag77
ag77
ag77
ag77
ag77
ag77
ag77
ag77
ag77
ag77
asg78
(lp594
g82
ag90
ag81
ag144
ag80
ag143
ag82
ag236
ag88
ag83
ag84
ag85
ag83
ag80
ag143
ag88
ag83
ag84
ag85
ag92
asg93
VThen he said, there are as many stars in the sky as there are points on the paper.
p595
sba(i__main__
Sentence
p596
(dp597
g17
I9
sg18
(lp598
S'Just'
p599
aS'count'
p600
aS'them'
p601
aS'.'
p602
asg47
(lp603
VJust
p604
aVcount
p605
aVthem
p606
ag74
asg75
(lp607
g77
ag77
ag77
ag77
asg78
(lp608
g82
ag143
ag90
ag92
asg93
VJust count them.
p609
sba(i__main__
Sentence
p610
(dp611
g17
I10
sg18
(lp612
S'But'
p613
aS'no'
p614
aS'one'
p615
aS'was'
p616
aS'able'
p617
aS'to'
p618
aS'do'
p619
aS'it'
p620
aS'.'
p621
asg47
(lp622
VBut
p623
aVno
p624
aVone
p625
ag50
aVable
p626
aVto
p627
aVdo
p628
aVit
p629
ag74
asg75
(lp630
g77
ag77
ag77
ag77
ag77
ag77
ag77
ag77
ag77
asg78
(lp631
g87
ag84
ag85
ag81
ag236
ag91
ag145
ag90
ag92
asg93
VBut no one was able to do it.
p632
sba(i__main__
Sentence
p633
(dp634
g17
I11
sg18
(lp635
S'The'
p636
aS'king'
p637
aS'said'
p638
aS','
p639
aS'the'
p640
aS'third'
p641
aS'question'
p642
aS'is'
p643
aS','
p644
aS'how'
p645
aS'many'
p646
aS'seconds'
p647
aS'of'
p648
aS'time'
p649
aS'are'
p650
aS'there'
p651
aS'in'
p652
aS'eternity'
p653
aS'.'
p654
asg47
(lp655
VThe
p656
aVking
p657
ag196
ag130
aVthe
p658
aVthird
p659
aVquestion
p660
ag290
ag130
aVhow
p661
aVmany
p662
aVsecond
p663
aVof
p664
aVtime
p665
ag255
aVthere
p666
aVin
p667
aVeternity
p668
ag74
asg75
(lp669
g77
ag77
ag77
ag77
ag77
ag77
ag77
ag77
ag77
ag77
ag77
ag77
ag77
ag77
ag77
ag77
ag77
ag77
ag77
asg78
(lp670
g84
ag85
ag81
ag144
ag84
ag236
ag85
ag302
ag144
ag303
ag236
ag88
ag83
ag85
ag143
ag82
ag83
ag85
ag92
asg93
VThe king said, the third question is, how many seconds of time are there in eternity.
p671
sba(i__main__
Sentence
p672
(dp673
g17
I12
sg18
(lp674
S'Then'
p675
aS'said'
p676
aS'the'
p677
aS'shepherd'
p678
aS'boy'
p679
aS','
p680
aS'in'
p681
aS'lower'
p682
aS'pomerania'
p683
aS'is'
p684
aS'the'
p685
aS'diamond'
p686
aS'mountain'
p687
aS','
p688
aS'which'
p689
aS'is'
p690
aS'two'
p691
aS'miles'
p692
aS'high'
p693
aS','
p694
aS'two'
p695
aS'miles'
p696
aS'wide'
p697
aS','
p698
aS'and'
p699
aS'two'
p700
aS'miles'
p701
aS'deep'
p702
aS'.'
p703
asg47
(lp704
VThen
p705
ag196
aVthe
p706
aVshepherd
p707
aVboy
p708
ag130
aVin
p709
aVlow
p710
aVpomerania
p711
ag290
aVthe
p712
aVdiamond
p713
aVmountain
p714
ag130
aVwhich
p715
ag290
aVtwo
p716
aVmile
p717
aVhigh
p718
ag130
aVtwo
p719
aVmile
p720
aVwide
p721
ag130
aVand
p722
aVtwo
p723
aVmile
p724
aVdeep
p725
ag74
asg75
(lp726
g77
ag77
ag77
ag77
ag77
ag77
ag77
ag77
ag77
ag77
ag77
ag77
ag77
ag77
ag77
ag77
ag77
ag77
ag77
ag77
ag77
ag77
ag77
ag77
ag77
ag77
ag77
ag77
ag77
asg78
(lp727
g82
ag81
ag84
ag85
ag85
ag144
ag83
aS'JJR'
p728
ag85
ag302
ag84
ag85
ag85
ag144
ag89
ag302
ag234
ag88
ag236
ag144
ag234
ag88
ag236
ag144
ag87
ag234
ag88
ag143
ag92
asg93
VThen said the shepherd boy, in lower pomerania is the diamond mountain, which is two miles high, two miles wide, and two miles deep.
p729
sba(i__main__
Sentence
p730
(dp731
g17
I13
sg18
(lp732
S'Every'
p733
aS'hundred'
p734
aS'years'
p735
aS'a'
p736
aS'little'
p737
aS'bird'
p738
aS'comes'
p739
aS'and'
p740
aS'sharpens'
p741
aS'its'
p742
aS'beak'
p743
aS'on'
p744
aS'it'
p745
aS','
p746
aS'and'
p747
aS'when'
p748
aS'the'
p749
aS'whole'
p750
aS'mountain'
p751
aS'is'
p752
aS'worn'
p753
aS'away'
p754
aS'by'
p755
aS'this'
p756
aS','
p757
aS'then'
p758
aS'the'
p759
aS'first'
p760
aS'second'
p761
aS'of'
p762
aS'eternity'
p763
aS'will'
p764
aS'be'
p765
aS'over'
p766
aS'.'
p767
asg47
(lp768
VEvery
p769
aVhundred
p770
aVyear
p771
ag53
aVlittle
p772
aVbird
p773
aVcome
p774
aVand
p775
aVsharpens
p776
aVit
p777
aVbeak
p778
aVon
p779
aVit
p780
ag130
aVand
p781
aVwhen
p782
aVthe
p783
aVwhole
p784
aVmountain
p785
ag290
aVwear
p786
aVaway
p787
aVby
p788
aVthis
p789
ag130
aVthen
p790
aVthe
p791
aVfirst
p792
aVsecond
p793
aVof
p794
aVeternity
p795
aVwill
p796
aVbe
p797
aVover
p798
ag74
asg75
(lp799
g77
ag77
ag77
ag77
ag77
ag77
ag77
ag77
ag77
ag77
ag77
ag77
ag77
ag77
ag77
ag77
ag77
ag77
ag77
ag77
ag77
ag77
ag77
ag77
ag77
ag77
ag77
ag77
ag77
ag77
ag77
ag77
ag77
ag77
ag77
asg78
(lp800
g84
ag405
ag88
ag84
ag82
ag236
ag88
ag87
ag88
ag235
ag85
ag83
ag90
ag144
ag87
ag303
ag84
ag236
ag85
ag302
ag405
ag82
ag83
ag84
ag144
ag82
ag84
ag236
ag236
ag83
ag85
ag233
ag145
ag83
ag92
asg93
VEvery hundred years a little bird comes and sharpens its beak on it, and when the whole mountain is worn away by this, then the first second of eternity will be over.
p801
sba(i__main__
Sentence
p802
(dp803
g17
I14
sg18
(lp804
S'The'
p805
aS'king'
p806
aS'said'
p807
aS','
p808
aS'you'
p809
aS'have'
p810
aS'answered'
p811
aS'the'
p812
aS'three'
p813
aS'questions'
p814
aS'like'
p815
aS'a'
p816
aS'wise'
p817
aS'man'
p818
aS','
p819
aS'and'
p820
aS'shall'
p821
aS'henceforth'
p822
aS'dwell'
p823
aS'with'
p824
aS'me'
p825
aS'in'
p826
aS'my'
p827
aS'royal'
p828
aS'palace'
p829
aS','
p830
aS'and'
p831
aS'I'
p832
aS'will'
p833
aS'regard'
p834
aS'you'
p835
aS'as'
p836
aS'my'
p837
aS'own'
p838
aS'child'
p839
aS'.'
p840
asg47
(lp841
VThe
p842
aVking
p843
ag196
ag130
aVyou
p844
aVhave
p845
aVanswer
p846
aVthe
p847
aVthree
p848
aVquestion
p849
aVlike
p850
ag53
aVwise
p851
aVman
p852
ag130
aVand
p853
aVshall
p854
aVhenceforth
p855
aVdwell
p856
aVwith
p857
aVme
p858
aVin
p859
aVmy
p860
aVroyal
p861
aVpalace
p862
ag130
aVand
p863
ag210
aVwill
p864
aVregard
p865
aVyou
p866
ag53
aVmy
p867
aVown
p868
aVchild
p869
ag74
asg75
(lp870
g77
ag77
ag77
ag77
ag77
ag77
ag77
ag77
ag77
ag77
ag77
ag77
ag77
ag77
ag77
ag77
ag77
ag77
ag77
ag77
ag77
ag77
ag77
ag77
ag77
ag77
ag77
ag77
ag77
ag77
ag77
ag77
ag77
ag77
ag77
ag77
asg78
(lp871
g84
ag85
ag81
ag144
ag90
ag143
ag405
ag84
ag234
ag88
ag83
ag84
ag85
ag85
ag144
ag87
ag233
ag145
ag85
ag83
ag90
ag83
ag235
ag85
ag85
ag144
ag87
ag90
ag233
ag145
ag90
ag83
ag235
ag236
ag85
ag92
asg93
VThe king said, you have answered the three questions like a wise man, and shall henceforth dwell with me in my royal palace, and I will regard you as my own child. 
p872
sbasbsS'summary'
p873
g0
(g7
g2
Ntp874
Rp875
(dp876
g11
S"A shepherd boy is famous for wise answers. The king tells the boy if he is pleased with the boy's answers to three questions, he will adopt the boy and regard him as his own son. The boy gives wise answers and the king adopts him."
p877
sg13
(lp878
(i__main__
Sentence
p879
(dp880
g17
I0
sg18
(lp881
S'A'
p882
aS'shepherd'
p883
aS'boy'
p884
aS'is'
p885
aS'famous'
p886
aS'for'
p887
aS'wise'
p888
aS'answers'
p889
aS'.'
p890
asg47
(lp891
VA
p892
aVshepherd
p893
aVboy
p894
ag290
aVfamous
p895
aVfor
p896
aVwise
p897
aVanswer
p898
ag74
asg75
(lp899
g77
ag77
ag77
ag77
ag77
ag77
ag77
ag77
ag77
asg78
(lp900
g84
ag85
ag85
ag302
ag236
ag83
ag85
ag88
ag92
asg93
VA shepherd boy is famous for wise answers.
p901
sba(i__main__
Sentence
p902
(dp903
g17
I1
sg18
(lp904
S'The'
p905
aS'king'
p906
aS'tells'
p907
aS'the'
p908
aS'boy'
p909
aS'if'
p910
aS'he'
p911
aS'is'
p912
aS'pleased'
p913
aS'with'
p914
aS'the'
p915
aS'boy'
p916
aS"'s"
p917
aS'answers'
p918
aS'to'
p919
aS'three'
p920
aS'questions'
p921
aS','
p922
aS'he'
p923
aS'will'
p924
aS'adopt'
p925
aS'the'
p926
aS'boy'
p927
aS'and'
p928
aS'regard'
p929
aS'him'
p930
aS'as'
p931
aS'his'
p932
aS'own'
p933
aS'son'
p934
aS'.'
p935
asg47
(lp936
VThe
p937
aVking
p938
aVtell
p939
aVthe
p940
aVboy
p941
aVif
p942
aVhe
p943
ag290
aVplease
p944
aVwith
p945
aVthe
p946
aVboy
p947
aV's
p948
aVanswer
p949
aVto
p950
aVthree
p951
aVquestion
p952
ag130
aVhe
p953
aVwill
p954
aVadopt
p955
aVthe
p956
aVboy
p957
aVand
p958
aVregard
p959
aVhim
p960
ag53
aVhis
p961
aVown
p962
aVson
p963
ag74
asg75
(lp964
g77
ag77
ag77
ag77
ag77
ag77
ag77
ag77
ag77
ag77
ag77
ag77
ag77
ag77
ag77
ag77
ag77
ag77
ag77
ag77
ag77
ag77
ag77
ag77
ag77
ag77
ag77
ag77
ag77
ag77
ag77
asg78
(lp965
g84
ag85
ag302
ag84
ag85
ag83
ag90
ag302
ag405
ag83
ag84
ag85
aS'POS'
p966
ag88
ag91
ag234
ag88
ag144
ag90
ag233
ag145
ag84
ag85
ag87
ag85
ag90
ag83
ag235
ag236
ag85
ag92
asg93
VThe king tells the boy if he is pleased with the boy's answers to three questions, he will adopt the boy and regard him as his own son.
p967
sba(i__main__
Sentence
p968
(dp969
g17
I2
sg18
(lp970
S'The'
p971
aS'boy'
p972
aS'gives'
p973
aS'wise'
p974
aS'answers'
p975
aS'and'
p976
aS'the'
p977
aS'king'
p978
aS'adopts'
p979
aS'him'
p980
aS'.'
p981
asg47
(lp982
VThe
p983
aVboy
p984
aVgive
p985
aVwise
p986
aVanswer
p987
aVand
p988
aVthe
p989
aVking
p990
aVadopt
p991
aVhim
p992
ag74
asg75
(lp993
g77
ag77
ag77
ag77
ag77
ag77
ag77
ag77
ag77
ag77
ag77
asg78
(lp994
g84
ag85
ag302
ag85
ag88
ag87
ag84
ag85
ag302
ag90
ag92
asg93
VThe boy gives wise answers and the king adopts him.
p995
sbasbsS'name'
p996
S'The Shepherd Boy'
p997
sS'summaries'
p998
(lp999
g875
asb.