ccopy_reg
_reconstructor
p0
(c__main__
Story
p1
c__builtin__
object
p2
Ntp3
Rp4
(dp5
S'text'
p6
g0
(c__main__
Document
p7
g2
Ntp8
Rp9
(dp10
S'_Document__initialContent'
p11
S"A certain man had a donkey, which had carried the corn-sacks\nto the mill indefatigably for many a long year.  But his\nstrength was going, and he was growing more and more unfit\nfor work.  Then his master began to consider how he might\nbest save his keep.  But the donkey, seeing that no good wind\nwas blowing, ran away and set out on the road to bremen.  There,\nhe thought, I can surely be a town-musician.  When he had walked\nsome distance, he found a hound lying on the road, gasping like\none who had run till he was tired.  What are you gasping so for,\nyou big fellow, asked the donkey.\nAh, replied the hound, as I am old, and daily grow weaker, and\nno longer can hunt, my master wanted to kill me, so I took to\nflight, but now how am I to earn my bread.\nI tell you what, said the donkey, I am going to bremen, and\nshall be town-musician there.  Go with me and engage yourself\nalso as a musician.  I will play the lute, and you shall beat\nthe kettle-drum.\nThe hound agreed, and on they went.\nBefore long they came to a cat, sitting on the path, with a face\nlike three rainy days.  Now then, old shaver, what has gone\naskew with you, asked the donkey.\nWho can be merry when his neck is in danger, answered the cat.\nBecause I am now getting old, and my teeth are worn to\nstumps, and I prefer to sit by the fire and spin, rather than\nhunt about after mice, my mistress wanted to drown me, so I\nran away.  But now good advice is scarce.  Where am I to go.\nGo with us to bremen.  You understand night-music, you\ncan be a town-musician.\nThe cat thought well of it, and went with them.  After this the\nthree fugitives came to a farm-yard, where the cock was sitting\nupon the gate, crowing with all his might.  Your crow goes\nthrough and through one, said the donkey.  What is the matter.\nI have been foretelling fine weather, because it is the day on\nwhich our lady washes the christ-child's little shirts, and\nwants to dry them, said the cock.  But guests are coming for\nsunday, so the housewife has no pity, and has told the cook that\nshe intends to eat me in the soup to-morrow, and this evening\nI am to have my head cut off.  Now I am crowing at the top of\nmy lungs while still I can.\nAh, but red-comb, said the donkey, you had better come away\nwith us.  We are going to bremen.  You can find something better\nthan death everywhere.  You have a good voice, and if we make\nmusic together it must have some quality.\nThe cock agreed to this plan, and all four went on together.\nThey could not reach the city of bremen in one day, however,\nand in the evening they came to a forest where they meant to\npass the night.  The donkey and the hound laid themselves down\nunder a large tree, the cat and the cock settled themselves in\nthe branches.  But the cock flew right to the top, where he was\nmost safe.  Before he went to sleep he looked round on all four\nsides, and thought he saw in the distance a little spark burning.\nSo he called out to his companions that there must be a house\nnot far off, for he saw a light.  The donkey said, if so, we\nhad better get up and go on, for the shelter here is bad.  The\nhound thought too that a few bones with some meat on would do\nhim good.\nSo they made their way to the place where the light was, and\nsoon saw it shine brighter and grow larger, until they came to\na well-lighted robbers, house.  The donkey, as the biggest, went\nto the window and looked in.\nWhat do you see, my grey-horse, asked the cock.  What do I\nsee, answered the donkey.  A table covered with good things to\neat and drink, and robbers sitting at it enjoying themselves.\nThat would be the sort of thing for us, said the cock.  Yes,\nyes.  Ah, if only we were there, said the donkey.\nThen the animals took counsel together how they should manage\nto drive away the robbers, and at last they thought of a plan.\nThe donkey was to place himself with his fore-feet upon the\nwindow-ledge, the hound was to jump on the donkey's back, the\ncat was to climb upon the dog, and lastly the cock was to fly\nup and perch upon the head of the cat.\nWhen this was done, at a given signal, they began to perform\ntheir music together.  The donkey brayed, the hound barked,\nthe cat mewed, and the cock crowed.  Then they burst through the\nwindow into the room, shattering the glass.  At this horrible din,\nthe robbers sprang up, thinking no otherwise than that a ghost\nhad come in, and fled in a great fright out into the forest.  The\nfour companions now sat down at the table, well content with\nwhat was left, and ate as if they were going to fast for a\nmonth.\nAs soon as the four minstrels had done, they put out the light,\nand each sought for himself a sleeping-place according to his\nnature and what suited him.  The donkey laid himself down upon\nsome straw in the yard, the hound behind the door, the cat upon\nthe hearth near the warm ashes, and the cock perched himself\nupon a beam of the roof.  And being tired from their long walk,\nthey soon went to sleep.\nWhen it was past midnight, and the robbers saw from afar that\nthe light was no longer burning in their house, and all appeared\nquiet, the captain said, we ought not to have let ourselves\nbe frightened out of our wits, and ordered one of them to go\nand examine the house.\nThe messenger finding all still, went into the kitchen to light\na candle, and, taking the glistening fiery eyes of the cat for\nlive coals, he held a lucifer-match to them to light it.  But\nthe cat did not understand the joke, and flew in his face, spitting\nand scratching.  He was dreadfully frightened, and ran to the\nback-door, but the dog, who lay there sprang up and bit his\nleg.  And as he ran across the yard by the dunghill, the donkey\ngave him a smart kick with its hind foot.  The cock, too, who had\nbeen awakened by the noise, and had become lively, cried down\nfrom the beam, cock-a-doodle-doo.\nThen the robber ran back as fast as he could to his captain, and\nsaid, ah, there is a horrible witch sitting in the house, who\nspat on me and scratched my face with her long claws.  And by\nthe door stands a man with a knife, who stabbed me in the leg.\nAnd in the yard there lies a black monster, who beat me with\na wooden club.  And above, upon the roof, sits the judge, who\ncalled out, bring the rogue here to me.  So I got away as well\nas I could.\nAfter this the robbers never again dared enter the house.\nBut it suited the four musicians of bremen so well that they\ndid not care to leave it any more.  And the mouth of him who\nlast told this story is still warm.\n"
p12
sS'sentences'
p13
(lp14
(i__main__
Sentence
p15
(dp16
S'index'
p17
I0
sS'words'
p18
(lp19
S'A'
p20
aS'certain'
p21
aS'man'
p22
aS'had'
p23
aS'a'
p24
aS'donkey'
p25
aS','
p26
aS'which'
p27
aS'had'
p28
aS'carried'
p29
aS'the'
p30
aS'corn-sacks'
p31
aS'to'
p32
aS'the'
p33
aS'mill'
p34
aS'indefatigably'
p35
aS'for'
p36
aS'many'
p37
aS'a'
p38
aS'long'
p39
aS'year'
p40
aS'.'
p41
asS'lemmas'
p42
(lp43
VA
p44
aVcertain
p45
aVman
p46
aVhave
p47
aVa
p48
aVdonkey
p49
aV,
p50
aVwhich
p51
ag47
aVcarry
p52
aVthe
p53
aVcorn-sacks
p54
aVto
p55
aVthe
p56
aVmill
p57
aVindefatigably
p58
aVfor
p59
aVmany
p60
ag48
aVlong
p61
aVyear
p62
aV.
p63
asS'nerTags'
p64
(lp65
VO
p66
ag66
ag66
ag66
ag66
ag66
ag66
ag66
ag66
ag66
ag66
ag66
ag66
ag66
ag66
ag66
ag66
ag66
ag66
ag66
ag66
ag66
asS'posTags'
p67
(lp68
S'DT'
p69
aS'JJ'
p70
aS'NN'
p71
aS'VBD'
p72
ag69
ag71
aS','
p73
aS'WDT'
p74
ag72
aS'VBN'
p75
ag69
aS'NNS'
p76
aS'TO'
p77
ag69
ag71
aS'RB'
p78
aS'IN'
p79
ag70
ag69
ag70
ag71
aS'.'
p80
asS'_Sentence__initialContent'
p81
VA certain man had a donkey, which had carried the corn-sacks to the mill indefatigably for many a long year.
p82
sba(i__main__
Sentence
p83
(dp84
g17
I1
sg18
(lp85
S'But'
p86
aS'his'
p87
aS'strength'
p88
aS'was'
p89
aS'going'
p90
aS','
p91
aS'and'
p92
aS'he'
p93
aS'was'
p94
aS'growing'
p95
aS'more'
p96
aS'and'
p97
aS'more'
p98
aS'unfit'
p99
aS'for'
p100
aS'work'
p101
aS'.'
p102
asg42
(lp103
VBut
p104
aVhis
p105
aVstrength
p106
aVbe
p107
aVgo
p108
ag50
aVand
p109
aVhe
p110
ag107
aVgrow
p111
aVmore
p112
aVand
p113
aVmore
p114
aVunfit
p115
aVfor
p116
aVwork
p117
ag63
asg64
(lp118
g66
ag66
ag66
ag66
ag66
ag66
ag66
ag66
ag66
ag66
ag66
ag66
ag66
ag66
ag66
ag66
ag66
asg67
(lp119
S'CC'
p120
aS'PRP$'
p121
ag71
ag72
aS'VBG'
p122
ag73
ag120
aS'PRP'
p123
ag72
ag122
aS'RBR'
p124
ag120
ag124
ag70
ag79
ag71
ag80
asg81
VBut his strength was going, and he was growing more and more unfit for work.
p125
sba(i__main__
Sentence
p126
(dp127
g17
I2
sg18
(lp128
S'Then'
p129
aS'his'
p130
aS'master'
p131
aS'began'
p132
aS'to'
p133
aS'consider'
p134
aS'how'
p135
aS'he'
p136
aS'might'
p137
aS'best'
p138
aS'save'
p139
aS'his'
p140
aS'keep'
p141
aS'.'
p142
asg42
(lp143
VThen
p144
aVhis
p145
aVmaster
p146
aVbegin
p147
aVto
p148
aVconsider
p149
aVhow
p150
aVhe
p151
aVmight
p152
aVbest
p153
aVsave
p154
aVhis
p155
aVkeep
p156
ag63
asg64
(lp157
g66
ag66
ag66
ag66
ag66
ag66
ag66
ag66
ag66
ag66
ag66
ag66
ag66
ag66
asg67
(lp158
g78
ag121
ag71
ag72
ag77
aS'VB'
p159
aS'WRB'
p160
ag123
aS'MD'
p161
ag159
ag159
ag121
ag71
ag80
asg81
VThen his master began to consider how he might best save his keep.
p162
sba(i__main__
Sentence
p163
(dp164
g17
I3
sg18
(lp165
S'But'
p166
aS'the'
p167
aS'donkey'
p168
aS','
p169
aS'seeing'
p170
aS'that'
p171
aS'no'
p172
aS'good'
p173
aS'wind'
p174
aS'was'
p175
aS'blowing'
p176
aS','
p177
aS'ran'
p178
aS'away'
p179
aS'and'
p180
aS'set'
p181
aS'out'
p182
aS'on'
p183
aS'the'
p184
aS'road'
p185
aS'to'
p186
aS'bremen'
p187
aS'.'
p188
asg42
(lp189
VBut
p190
aVthe
p191
aVdonkey
p192
ag50
aVsee
p193
aVthat
p194
aVno
p195
aVgood
p196
aVwind
p197
ag107
aVblow
p198
ag50
aVrun
p199
aVaway
p200
aVand
p201
aVset
p202
aVout
p203
aVon
p204
aVthe
p205
aVroad
p206
aVto
p207
aVbremen
p208
ag63
asg64
(lp209
g66
ag66
ag66
ag66
ag66
ag66
ag66
ag66
ag66
ag66
ag66
ag66
ag66
ag66
ag66
ag66
ag66
ag66
ag66
ag66
ag66
ag66
ag66
asg67
(lp210
g120
ag69
ag71
ag73
ag122
ag79
ag69
ag70
ag71
ag72
ag122
ag73
ag72
ag78
ag120
ag159
aS'RP'
p211
ag79
ag69
ag71
ag77
ag76
ag80
asg81
VBut the donkey, seeing that no good wind was blowing, ran away and set out on the road to bremen.
p212
sba(i__main__
Sentence
p213
(dp214
g17
I4
sg18
(lp215
S'There'
p216
aS','
p217
aS'he'
p218
aS'thought'
p219
aS','
p220
aS'I'
p221
aS'can'
p222
aS'surely'
p223
aS'be'
p224
aS'a'
p225
aS'town-musician'
p226
aS'.'
p227
asg42
(lp228
VThere
p229
ag50
aVhe
p230
aVthink
p231
ag50
aVI
p232
aVcan
p233
aVsurely
p234
aVbe
p235
ag48
aVtown-musician
p236
ag63
asg64
(lp237
g66
ag66
ag66
ag66
ag66
ag66
ag66
ag66
ag66
ag66
ag66
ag66
asg67
(lp238
S'EX'
p239
ag73
ag123
ag72
ag73
ag123
ag161
ag78
ag159
ag69
ag70
ag80
asg81
VThere, he thought, I can surely be a town-musician.
p240
sba(i__main__
Sentence
p241
(dp242
g17
I5
sg18
(lp243
S'When'
p244
aS'he'
p245
aS'had'
p246
aS'walked'
p247
aS'some'
p248
aS'distance'
p249
aS','
p250
aS'he'
p251
aS'found'
p252
aS'a'
p253
aS'hound'
p254
aS'lying'
p255
aS'on'
p256
aS'the'
p257
aS'road'
p258
aS','
p259
aS'gasping'
p260
aS'like'
p261
aS'one'
p262
aS'who'
p263
aS'had'
p264
aS'run'
p265
aS'till'
p266
aS'he'
p267
aS'was'
p268
aS'tired'
p269
aS'.'
p270
asg42
(lp271
VWhen
p272
aVhe
p273
ag47
aVwalk
p274
aVsome
p275
aVdistance
p276
ag50
aVhe
p277
aVfind
p278
ag48
aVhound
p279
aVlie
p280
aVon
p281
aVthe
p282
aVroad
p283
ag50
aVgasp
p284
aVlike
p285
aVone
p286
aVwho
p287
ag47
aVrun
p288
aVtill
p289
aVhe
p290
ag107
aVtire
p291
ag63
asg64
(lp292
g66
ag66
ag66
ag66
ag66
ag66
ag66
ag66
ag66
ag66
ag66
ag66
ag66
ag66
ag66
ag66
ag66
ag66
ag66
ag66
ag66
ag66
ag66
ag66
ag66
ag66
ag66
asg67
(lp293
g160
ag123
ag72
ag75
ag69
ag71
ag73
ag123
ag72
ag69
ag71
ag122
ag79
ag69
ag71
ag73
ag122
ag79
aS'CD'
p294
aS'WP'
p295
ag72
ag75
ag71
ag123
ag72
ag75
ag80
asg81
VWhen he had walked some distance, he found a hound lying on the road, gasping like one who had run till he was tired.
p296
sba(i__main__
Sentence
p297
(dp298
g17
I6
sg18
(lp299
S'What'
p300
aS'are'
p301
aS'you'
p302
aS'gasping'
p303
aS'so'
p304
aS'for'
p305
aS','
p306
aS'you'
p307
aS'big'
p308
aS'fellow'
p309
aS','
p310
aS'asked'
p311
aS'the'
p312
aS'donkey'
p313
aS'.'
p314
asg42
(lp315
VWhat
p316
aVbe
p317
aVyou
p318
aVgasp
p319
aVso
p320
aVfor
p321
ag50
aVyou
p322
aVbig
p323
aVfellow
p324
ag50
aVask
p325
aVthe
p326
aVdonkey
p327
ag63
asg64
(lp328
g66
ag66
ag66
ag66
ag66
ag66
ag66
ag66
ag66
ag66
ag66
ag66
ag66
ag66
ag66
asg67
(lp329
g295
aS'VBP'
p330
ag123
ag122
ag78
ag79
ag73
ag123
ag70
ag70
ag73
ag72
ag69
ag71
ag80
asg81
VWhat are you gasping so for, you big fellow, asked the donkey.
p331
sba(i__main__
Sentence
p332
(dp333
g17
I7
sg18
(lp334
S'Ah'
p335
aS','
p336
aS'replied'
p337
aS'the'
p338
aS'hound'
p339
aS','
p340
aS'as'
p341
aS'I'
p342
aS'am'
p343
aS'old'
p344
aS','
p345
aS'and'
p346
aS'daily'
p347
aS'grow'
p348
aS'weaker'
p349
aS','
p350
aS'and'
p351
aS'no'
p352
aS'longer'
p353
aS'can'
p354
aS'hunt'
p355
aS','
p356
aS'my'
p357
aS'master'
p358
aS'wanted'
p359
aS'to'
p360
aS'kill'
p361
aS'me'
p362
aS','
p363
aS'so'
p364
aS'I'
p365
aS'took'
p366
aS'to'
p367
aS'flight'
p368
aS','
p369
aS'but'
p370
aS'now'
p371
aS'how'
p372
aS'am'
p373
aS'I'
p374
aS'to'
p375
aS'earn'
p376
aS'my'
p377
aS'bread'
p378
aS'.'
p379
asg42
(lp380
VAh
p381
ag50
aVreply
p382
aVthe
p383
aVhound
p384
ag50
ag48
ag232
aVbe
p385
aVold
p386
ag50
aVand
p387
aVdaily
p388
aVgrow
p389
aVweaker
p390
ag50
aVand
p391
aVno
p392
aVlonger
p393
aVcan
p394
aVhunt
p395
ag50
aVmy
p396
aVmaster
p397
aVwant
p398
aVto
p399
aVkill
p400
aVme
p401
ag50
aVso
p402
ag232
aVtake
p403
aVto
p404
aVflight
p405
ag50
aVbut
p406
aVnow
p407
aVhow
p408
aVam
p409
ag232
aVto
p410
aVearn
p411
aVmy
p412
aVbread
p413
ag63
asg64
(lp414
g66
ag66
ag66
ag66
ag66
ag66
ag66
ag66
ag66
ag66
ag66
ag66
ag66
ag66
ag66
ag66
ag66
ag66
ag66
ag66
ag66
ag66
ag66
ag66
ag66
ag66
ag66
ag66
ag66
ag66
ag66
ag66
ag66
ag66
ag66
ag66
ag66
ag66
ag66
ag66
ag66
ag66
ag66
ag66
ag66
asg67
(lp415
S'NNP'
p416
ag73
ag72
ag69
ag71
ag73
ag79
ag123
ag330
ag70
ag73
ag120
ag70
ag71
ag71
ag73
ag120
ag69
ag71
ag161
ag159
ag73
ag121
ag71
ag72
ag77
ag159
ag123
ag73
ag78
ag123
ag72
ag77
ag71
ag73
ag120
ag78
ag160
ag71
ag123
ag77
ag159
ag121
ag71
ag80
asg81
VAh, replied the hound, as I am old, and daily grow weaker, and no longer can hunt, my master wanted to kill me, so I took to flight, but now how am I to earn my bread.
p417
sba(i__main__
Sentence
p418
(dp419
g17
I8
sg18
(lp420
S'I'
p421
aS'tell'
p422
aS'you'
p423
aS'what'
p424
aS','
p425
aS'said'
p426
aS'the'
p427
aS'donkey'
p428
aS','
p429
aS'I'
p430
aS'am'
p431
aS'going'
p432
aS'to'
p433
aS'bremen'
p434
aS','
p435
aS'and'
p436
aS'shall'
p437
aS'be'
p438
aS'town-musician'
p439
aS'there'
p440
aS'.'
p441
asg42
(lp442
g232
aVtell
p443
aVyou
p444
aVwhat
p445
ag50
aVsay
p446
aVthe
p447
aVdonkey
p448
ag50
ag232
ag385
aVgo
p449
aVto
p450
aVbremen
p451
ag50
aVand
p452
aVshall
p453
aVbe
p454
aVtown-musician
p455
aVthere
p456
ag63
asg64
(lp457
g66
ag66
ag66
ag66
ag66
ag66
ag66
ag66
ag66
ag66
ag66
ag66
ag66
ag66
ag66
ag66
ag66
ag66
ag66
ag66
ag66
asg67
(lp458
g123
ag330
ag123
ag295
ag73
ag72
ag69
ag71
ag73
ag123
ag330
ag122
ag77
ag76
ag73
ag120
ag161
ag159
ag70
ag239
ag80
asg81
VI tell you what, said the donkey, I am going to bremen, and shall be town-musician there.
p459
sba(i__main__
Sentence
p460
(dp461
g17
I9
sg18
(lp462
S'Go'
p463
aS'with'
p464
aS'me'
p465
aS'and'
p466
aS'engage'
p467
aS'yourself'
p468
aS'also'
p469
aS'as'
p470
aS'a'
p471
aS'musician'
p472
aS'.'
p473
asg42
(lp474
VGo
p475
aVwith
p476
aVme
p477
aVand
p478
aVengage
p479
aVyourself
p480
aValso
p481
ag48
ag48
aVmusician
p482
ag63
asg64
(lp483
g66
ag66
ag66
ag66
ag66
ag66
ag66
ag66
ag66
ag66
ag66
asg67
(lp484
g416
ag79
ag123
ag120
ag71
ag123
ag78
ag79
ag69
ag70
ag80
asg81
VGo with me and engage yourself also as a musician.
p485
sba(i__main__
Sentence
p486
(dp487
g17
I10
sg18
(lp488
S'I'
p489
aS'will'
p490
aS'play'
p491
aS'the'
p492
aS'lute'
p493
aS','
p494
aS'and'
p495
aS'you'
p496
aS'shall'
p497
aS'beat'
p498
aS'the'
p499
aS'kettle-drum'
p500
aS'.'
p501
asg42
(lp502
g232
aVwill
p503
aVplay
p504
aVthe
p505
aVlute
p506
ag50
aVand
p507
aVyou
p508
aVshall
p509
aVbeat
p510
aVthe
p511
aVkettle-drum
p512
ag63
asg64
(lp513
g66
ag66
ag66
ag66
ag66
ag66
ag66
ag66
ag66
ag66
ag66
ag66
ag66
asg67
(lp514
g123
ag161
ag159
ag69
ag71
ag73
ag120
ag123
ag161
ag159
ag69
ag71
ag80
asg81
VI will play the lute, and you shall beat the kettle-drum.
p515
sba(i__main__
Sentence
p516
(dp517
g17
I11
sg18
(lp518
S'The'
p519
aS'hound'
p520
aS'agreed'
p521
aS','
p522
aS'and'
p523
aS'on'
p524
aS'they'
p525
aS'went'
p526
aS'.'
p527
asg42
(lp528
VThe
p529
aVhound
p530
aVagree
p531
ag50
aVand
p532
aVon
p533
aVthey
p534
aVgo
p535
ag63
asg64
(lp536
g66
ag66
ag66
ag66
ag66
ag66
ag66
ag66
ag66
asg67
(lp537
g69
ag71
ag72
ag73
ag120
ag79
ag123
ag72
ag80
asg81
VThe hound agreed, and on they went.
p538
sba(i__main__
Sentence
p539
(dp540
g17
I12
sg18
(lp541
S'Before'
p542
aS'long'
p543
aS'they'
p544
aS'came'
p545
aS'to'
p546
aS'a'
p547
aS'cat'
p548
aS','
p549
aS'sitting'
p550
aS'on'
p551
aS'the'
p552
aS'path'
p553
aS','
p554
aS'with'
p555
aS'a'
p556
aS'face'
p557
aS'like'
p558
aS'three'
p559
aS'rainy'
p560
aS'days'
p561
aS'.'
p562
asg42
(lp563
VBefore
p564
aVlong
p565
aVthey
p566
aVcome
p567
aVto
p568
ag48
aVcat
p569
ag50
aVsit
p570
aVon
p571
aVthe
p572
aVpath
p573
ag50
aVwith
p574
ag48
aVface
p575
aVlike
p576
aVthree
p577
aVrainy
p578
aVday
p579
ag63
asg64
(lp580
g66
ag66
ag66
ag66
ag66
ag66
ag66
ag66
ag66
ag66
ag66
ag66
ag66
ag66
ag66
ag66
ag66
ag66
ag66
ag66
ag66
asg67
(lp581
g79
ag78
ag123
ag72
ag77
ag69
ag71
ag73
ag122
ag79
ag69
ag71
ag73
ag79
ag69
ag71
ag79
ag294
ag71
ag76
ag80
asg81
VBefore long they came to a cat, sitting on the path, with a face like three rainy days.
p582
sba(i__main__
Sentence
p583
(dp584
g17
I13
sg18
(lp585
S'Now'
p586
aS'then'
p587
aS','
p588
aS'old'
p589
aS'shaver'
p590
aS','
p591
aS'what'
p592
aS'has'
p593
aS'gone'
p594
aS'askew'
p595
aS'with'
p596
aS'you'
p597
aS','
p598
aS'asked'
p599
aS'the'
p600
aS'donkey'
p601
aS'.'
p602
asg42
(lp603
VNow
p604
aVthen
p605
ag50
aVold
p606
aVshaver
p607
ag50
aVwhat
p608
aVhave
p609
aVgo
p610
aVaskew
p611
aVwith
p612
aVyou
p613
ag50
aVask
p614
aVthe
p615
aVdonkey
p616
ag63
asg64
(lp617
g66
ag66
ag66
ag66
ag66
ag66
ag66
ag66
ag66
ag66
ag66
ag66
ag66
ag66
ag66
ag66
ag66
asg67
(lp618
g78
ag78
ag73
ag70
ag71
ag73
ag295
aS'VBZ'
p619
ag75
ag71
ag79
ag123
ag73
ag72
ag69
ag71
ag80
asg81
VNow then, old shaver, what has gone askew with you, asked the donkey.
p620
sba(i__main__
Sentence
p621
(dp622
g17
I14
sg18
(lp623
S'Who'
p624
aS'can'
p625
aS'be'
p626
aS'merry'
p627
aS'when'
p628
aS'his'
p629
aS'neck'
p630
aS'is'
p631
aS'in'
p632
aS'danger'
p633
aS','
p634
aS'answered'
p635
aS'the'
p636
aS'cat'
p637
aS'.'
p638
asg42
(lp639
VWho
p640
aVcan
p641
aVbe
p642
aVmerry
p643
aVwhen
p644
aVhis
p645
aVneck
p646
aVbe
p647
aVin
p648
aVdanger
p649
ag50
aVanswer
p650
aVthe
p651
aVcat
p652
ag63
asg64
(lp653
g66
ag66
ag66
ag66
ag66
ag66
ag66
ag66
ag66
ag66
ag66
ag66
ag66
ag66
ag66
asg67
(lp654
g295
ag161
ag159
ag70
ag160
ag121
ag71
ag619
ag79
ag71
ag73
ag72
ag69
ag71
ag80
asg81
VWho can be merry when his neck is in danger, answered the cat.
p655
sba(i__main__
Sentence
p656
(dp657
g17
I15
sg18
(lp658
S'Because'
p659
aS'I'
p660
aS'am'
p661
aS'now'
p662
aS'getting'
p663
aS'old'
p664
aS','
p665
aS'and'
p666
aS'my'
p667
aS'teeth'
p668
aS'are'
p669
aS'worn'
p670
aS'to'
p671
aS'stumps'
p672
aS','
p673
aS'and'
p674
aS'I'
p675
aS'prefer'
p676
aS'to'
p677
aS'sit'
p678
aS'by'
p679
aS'the'
p680
aS'fire'
p681
aS'and'
p682
aS'spin'
p683
aS','
p684
aS'rather'
p685
aS'than'
p686
aS'hunt'
p687
aS'about'
p688
aS'after'
p689
aS'mice'
p690
aS','
p691
aS'my'
p692
aS'mistress'
p693
aS'wanted'
p694
aS'to'
p695
aS'drown'
p696
aS'me'
p697
aS','
p698
aS'so'
p699
aS'I'
p700
aS'ran'
p701
aS'away'
p702
aS'.'
p703
asg42
(lp704
VBecause
p705
ag232
ag385
aVnow
p706
aVget
p707
aVold
p708
ag50
aVand
p709
aVmy
p710
aVteeth
p711
ag317
aVwear
p712
aVto
p713
aVstump
p714
ag50
aVand
p715
ag232
aVprefer
p716
aVto
p717
aVsit
p718
aVby
p719
aVthe
p720
aVfire
p721
aVand
p722
aVspin
p723
ag50
aVrather
p724
aVthan
p725
aVhunt
p726
aVabout
p727
aVafter
p728
aVmouse
p729
ag50
aVmy
p730
aVmistress
p731
aVwant
p732
aVto
p733
aVdrown
p734
aVme
p735
ag50
aVso
p736
ag232
ag199
aVaway
p737
ag63
asg64
(lp738
g66
ag66
ag66
ag66
ag66
ag66
ag66
ag66
ag66
ag66
ag66
ag66
ag66
ag66
ag66
ag66
ag66
ag66
ag66
ag66
ag66
ag66
ag66
ag66
ag66
ag66
ag66
ag66
ag66
ag66
ag66
ag66
ag66
ag66
ag66
ag66
ag66
ag66
ag66
ag66
ag66
ag66
ag66
ag66
ag66
asg67
(lp739
g79
ag123
ag330
ag78
ag122
ag70
ag73
ag120
ag121
ag71
ag330
ag75
ag77
ag76
ag73
ag120
ag123
ag330
ag77
ag159
ag79
ag69
ag71
ag120
ag71
ag73
ag78
ag79
ag71
ag79
ag79
ag71
ag73
ag121
ag71
ag72
ag77
ag159
ag123
ag73
ag78
ag123
ag72
ag78
ag80
asg81
VBecause I am now getting old, and my teeth are worn to stumps, and I prefer to sit by the fire and spin, rather than hunt about after mice, my mistress wanted to drown me, so I ran away.
p740
sba(i__main__
Sentence
p741
(dp742
g17
I16
sg18
(lp743
S'But'
p744
aS'now'
p745
aS'good'
p746
aS'advice'
p747
aS'is'
p748
aS'scarce'
p749
aS'.'
p750
asg42
(lp751
VBut
p752
aVnow
p753
aVgood
p754
aVadvice
p755
ag647
aVscarce
p756
ag63
asg64
(lp757
g66
ag66
ag66
ag66
ag66
ag66
ag66
asg67
(lp758
g120
ag78
ag70
ag71
ag619
ag71
ag80
asg81
VBut now good advice is scarce.
p759
sba(i__main__
Sentence
p760
(dp761
g17
I17
sg18
(lp762
S'Where'
p763
aS'am'
p764
aS'I'
p765
aS'to'
p766
aS'go'
p767
aS'.'
p768
asg42
(lp769
VWhere
p770
ag385
ag232
aVto
p771
aVgo
p772
ag63
asg64
(lp773
g66
ag66
ag66
ag66
ag66
ag66
asg67
(lp774
g160
ag330
ag123
ag77
ag159
ag80
asg81
VWhere am I to go.
p775
sba(i__main__
Sentence
p776
(dp777
g17
I18
sg18
(lp778
S'Go'
p779
aS'with'
p780
aS'us'
p781
aS'to'
p782
aS'bremen'
p783
aS'.'
p784
asg42
(lp785
VGo
p786
aVwith
p787
aVu
p788
aVto
p789
aVbremen
p790
ag63
asg64
(lp791
g66
ag66
ag66
ag66
ag66
ag66
asg67
(lp792
g416
ag79
ag123
ag77
ag159
ag80
asg81
VGo with us to bremen.
p793
sba(i__main__
Sentence
p794
(dp795
g17
I19
sg18
(lp796
S'You'
p797
aS'understand'
p798
aS'night-music'
p799
aS','
p800
aS'you'
p801
aS'can'
p802
aS'be'
p803
aS'a'
p804
aS'town-musician'
p805
aS'.'
p806
asg42
(lp807
VYou
p808
aVunderstand
p809
aVnight-music
p810
ag50
aVyou
p811
aVcan
p812
aVbe
p813
ag48
aVtown-musician
p814
ag63
asg64
(lp815
g66
ag66
ag66
ag66
ag66
ag66
ag66
ag66
ag66
ag66
asg67
(lp816
g123
ag330
ag70
ag73
ag123
ag161
ag159
ag69
ag70
ag80
asg81
VYou understand night-music, you can be a town-musician.
p817
sba(i__main__
Sentence
p818
(dp819
g17
I20
sg18
(lp820
S'The'
p821
aS'cat'
p822
aS'thought'
p823
aS'well'
p824
aS'of'
p825
aS'it'
p826
aS','
p827
aS'and'
p828
aS'went'
p829
aS'with'
p830
aS'them'
p831
aS'.'
p832
asg42
(lp833
VThe
p834
aVcat
p835
ag231
aVwell
p836
aVof
p837
aVit
p838
ag50
aVand
p839
ag535
aVwith
p840
aVthem
p841
ag63
asg64
(lp842
g66
ag66
ag66
ag66
ag66
ag66
ag66
ag66
ag66
ag66
ag66
ag66
asg67
(lp843
g69
ag71
ag72
ag78
ag79
ag123
ag73
ag120
ag72
ag79
ag123
ag80
asg81
VThe cat thought well of it, and went with them.
p844
sba(i__main__
Sentence
p845
(dp846
g17
I21
sg18
(lp847
S'After'
p848
aS'this'
p849
aS'the'
p850
aS'three'
p851
aS'fugitives'
p852
aS'came'
p853
aS'to'
p854
aS'a'
p855
aS'farm-yard'
p856
aS','
p857
aS'where'
p858
aS'the'
p859
aS'cock'
p860
aS'was'
p861
aS'sitting'
p862
aS'upon'
p863
aS'the'
p864
aS'gate'
p865
aS','
p866
aS'crowing'
p867
aS'with'
p868
aS'all'
p869
aS'his'
p870
aS'might'
p871
aS'.'
p872
asg42
(lp873
VAfter
p874
aVthis
p875
aVthe
p876
aVthree
p877
aVfugitive
p878
ag567
aVto
p879
ag48
aVfarm-yard
p880
ag50
aVwhere
p881
aVthe
p882
aVcock
p883
ag107
ag570
aVupon
p884
aVthe
p885
aVgate
p886
ag50
aVcrow
p887
aVwith
p888
aVall
p889
aVhis
p890
aVmight
p891
ag63
asg64
(lp892
g66
ag66
ag66
ag66
ag66
ag66
ag66
ag66
ag66
ag66
ag66
ag66
ag66
ag66
ag66
ag66
ag66
ag66
ag66
ag66
ag66
ag66
ag66
ag66
ag66
asg67
(lp893
g79
ag69
ag69
ag294
ag76
ag72
ag77
ag69
ag70
ag73
ag160
ag69
ag71
ag72
ag122
ag79
ag69
ag71
ag73
ag122
ag79
ag69
ag121
ag71
ag80
asg81
VAfter this the three fugitives came to a farm-yard, where the cock was sitting upon the gate, crowing with all his might.
p894
sba(i__main__
Sentence
p895
(dp896
g17
I22
sg18
(lp897
S'Your'
p898
aS'crow'
p899
aS'goes'
p900
aS'through'
p901
aS'and'
p902
aS'through'
p903
aS'one'
p904
aS','
p905
aS'said'
p906
aS'the'
p907
aS'donkey'
p908
aS'.'
p909
asg42
(lp910
VYour
p911
aVcrow
p912
aVgo
p913
aVthrough
p914
aVand
p915
aVthrough
p916
aVone
p917
ag50
ag446
aVthe
p918
aVdonkey
p919
ag63
asg64
(lp920
g66
ag66
ag66
ag66
ag66
ag66
ag66
ag66
ag66
ag66
ag66
ag66
asg67
(lp921
g121
ag71
ag619
ag79
ag120
ag79
ag294
ag73
ag72
ag69
ag71
ag80
asg81
VYour crow goes through and through one, said the donkey.
p922
sba(i__main__
Sentence
p923
(dp924
g17
I23
sg18
(lp925
S'What'
p926
aS'is'
p927
aS'the'
p928
aS'matter'
p929
aS'.'
p930
asg42
(lp931
VWhat
p932
ag647
aVthe
p933
aVmatter
p934
ag63
asg64
(lp935
g66
ag66
ag66
ag66
ag66
asg67
(lp936
g295
ag619
ag69
ag71
ag80
asg81
VWhat is the matter.
p937
sba(i__main__
Sentence
p938
(dp939
g17
I24
sg18
(lp940
S'I'
p941
aS'have'
p942
aS'been'
p943
aS'foretelling'
p944
aS'fine'
p945
aS'weather'
p946
aS','
p947
aS'because'
p948
aS'it'
p949
aS'is'
p950
aS'the'
p951
aS'day'
p952
aS'on'
p953
aS'which'
p954
aS'our'
p955
aS'lady'
p956
aS'washes'
p957
aS'the'
p958
aS'christ-child'
p959
aS"'s"
p960
aS'little'
p961
aS'shirts'
p962
aS','
p963
aS'and'
p964
aS'wants'
p965
aS'to'
p966
aS'dry'
p967
aS'them'
p968
aS','
p969
aS'said'
p970
aS'the'
p971
aS'cock'
p972
aS'.'
p973
asg42
(lp974
g232
aVhave
p975
aVbe
p976
aVforetell
p977
aVfine
p978
aVweather
p979
ag50
aVbecause
p980
aVit
p981
ag647
aVthe
p982
aVday
p983
aVon
p984
aVwhich
p985
aVour
p986
aVlady
p987
aVwash
p988
aVthe
p989
aVchrist-child
p990
aV's
p991
aVlittle
p992
aVshirt
p993
ag50
aVand
p994
aVwant
p995
aVto
p996
aVdry
p997
aVthem
p998
ag50
ag446
aVthe
p999
aVcock
p1000
ag63
asg64
(lp1001
g66
ag66
ag66
ag66
ag66
ag66
ag66
ag66
ag66
ag66
ag66
ag66
ag66
ag66
ag66
ag66
ag66
ag66
ag66
ag66
ag66
ag66
ag66
ag66
ag66
ag66
ag66
ag66
ag66
ag66
ag66
ag66
ag66
asg67
(lp1002
g123
ag330
ag75
ag122
ag71
ag71
ag73
ag79
ag123
ag619
ag69
ag71
ag79
ag74
ag121
ag71
ag76
ag69
ag70
aS'POS'
p1003
ag70
ag76
ag73
ag120
ag619
ag77
ag70
ag123
ag73
ag72
ag69
ag71
ag80
asg81
VI have been foretelling fine weather, because it is the day on which our lady washes the christ-child's little shirts, and wants to dry them, said the cock.
p1004
sba(i__main__
Sentence
p1005
(dp1006
g17
I25
sg18
(lp1007
S'But'
p1008
aS'guests'
p1009
aS'are'
p1010
aS'coming'
p1011
aS'for'
p1012
aS'sunday'
p1013
aS','
p1014
aS'so'
p1015
aS'the'
p1016
aS'housewife'
p1017
aS'has'
p1018
aS'no'
p1019
aS'pity'
p1020
aS','
p1021
aS'and'
p1022
aS'has'
p1023
aS'told'
p1024
aS'the'
p1025
aS'cook'
p1026
aS'that'
p1027
aS'she'
p1028
aS'intends'
p1029
aS'to'
p1030
aS'eat'
p1031
aS'me'
p1032
aS'in'
p1033
aS'the'
p1034
aS'soup'
p1035
aS'to-morrow'
p1036
aS','
p1037
aS'and'
p1038
aS'this'
p1039
aS'evening'
p1040
aS'I'
p1041
aS'am'
p1042
aS'to'
p1043
aS'have'
p1044
aS'my'
p1045
aS'head'
p1046
aS'cut'
p1047
aS'off'
p1048
aS'.'
p1049
asg42
(lp1050
VBut
p1051
aVguest
p1052
ag317
aVcome
p1053
aVfor
p1054
aVsunday
p1055
ag50
aVso
p1056
aVthe
p1057
aVhousewife
p1058
ag609
aVno
p1059
aVpity
p1060
ag50
aVand
p1061
ag609
aVtell
p1062
aVthe
p1063
aVcook
p1064
aVthat
p1065
aVshe
p1066
aVintend
p1067
aVto
p1068
aVeat
p1069
aVme
p1070
aVin
p1071
aVthe
p1072
aVsoup
p1073
aVto-morrow
p1074
ag50
aVand
p1075
aVthis
p1076
aVevening
p1077
ag232
ag385
aVto
p1078
aVhave
p1079
aVmy
p1080
aVhead
p1081
aVcut
p1082
aVoff
p1083
ag63
asg64
(lp1084
g66
ag66
ag66
ag66
ag66
ag66
ag66
ag66
ag66
ag66
ag66
ag66
ag66
ag66
ag66
ag66
ag66
ag66
ag66
ag66
ag66
ag66
ag66
ag66
ag66
ag66
ag66
ag66
ag66
ag66
ag66
ag66
ag66
ag66
ag66
ag66
ag66
ag66
ag66
ag66
ag66
ag66
asg67
(lp1085
g120
ag76
ag330
ag122
ag79
ag71
ag73
ag78
ag69
ag71
ag619
ag69
ag71
ag73
ag120
ag619
ag75
ag69
ag71
ag79
ag123
ag619
ag77
ag159
ag123
ag79
ag69
ag71
ag71
ag73
ag120
ag69
ag71
ag123
ag330
ag77
ag159
ag121
ag71
ag72
ag211
ag80
asg81
VBut guests are coming for sunday, so the housewife has no pity, and has told the cook that she intends to eat me in the soup to-morrow, and this evening I am to have my head cut off.
p1086
sba(i__main__
Sentence
p1087
(dp1088
g17
I26
sg18
(lp1089
S'Now'
p1090
aS'I'
p1091
aS'am'
p1092
aS'crowing'
p1093
aS'at'
p1094
aS'the'
p1095
aS'top'
p1096
aS'of'
p1097
aS'my'
p1098
aS'lungs'
p1099
aS'while'
p1100
aS'still'
p1101
aS'I'
p1102
aS'can'
p1103
aS'.'
p1104
asg42
(lp1105
VNow
p1106
ag232
ag385
aVcrow
p1107
aVat
p1108
aVthe
p1109
aVtop
p1110
aVof
p1111
aVmy
p1112
aVlung
p1113
aVwhile
p1114
aVstill
p1115
ag232
aVcan
p1116
ag63
asg64
(lp1117
g66
ag66
ag66
ag66
ag66
ag66
ag66
ag66
ag66
ag66
ag66
ag66
ag66
ag66
ag66
asg67
(lp1118
g78
ag123
ag330
ag122
ag79
ag69
ag70
ag79
ag121
ag76
ag79
ag78
ag123
ag161
ag80
asg81
VNow I am crowing at the top of my lungs while still I can.
p1119
sba(i__main__
Sentence
p1120
(dp1121
g17
I27
sg18
(lp1122
S'Ah'
p1123
aS','
p1124
aS'but'
p1125
aS'red-comb'
p1126
aS','
p1127
aS'said'
p1128
aS'the'
p1129
aS'donkey'
p1130
aS','
p1131
aS'you'
p1132
aS'had'
p1133
aS'better'
p1134
aS'come'
p1135
aS'away'
p1136
aS'with'
p1137
aS'us'
p1138
aS'.'
p1139
asg42
(lp1140
VAh
p1141
ag50
aVbut
p1142
aVred-comb
p1143
ag50
ag446
aVthe
p1144
aVdonkey
p1145
ag50
aVyou
p1146
ag47
aVwell
p1147
aVcome
p1148
aVaway
p1149
aVwith
p1150
ag788
ag63
asg64
(lp1151
g66
ag66
ag66
ag66
ag66
ag66
ag66
ag66
ag66
ag66
ag66
ag66
ag66
ag66
ag66
ag66
ag66
asg67
(lp1152
g416
ag73
ag120
ag416
ag73
ag72
ag69
ag71
ag73
ag123
ag72
ag124
ag75
ag78
ag79
ag123
ag80
asg81
VAh, but red-comb, said the donkey, you had better come away with us.
p1153
sba(i__main__
Sentence
p1154
(dp1155
g17
I28
sg18
(lp1156
S'We'
p1157
aS'are'
p1158
aS'going'
p1159
aS'to'
p1160
aS'bremen'
p1161
aS'.'
p1162
asg42
(lp1163
VWe
p1164
ag317
aVgo
p1165
aVto
p1166
aVbremen
p1167
ag63
asg64
(lp1168
g66
ag66
ag66
ag66
ag66
ag66
asg67
(lp1169
g123
ag330
ag122
ag77
ag76
ag80
asg81
VWe are going to bremen.
p1170
sba(i__main__
Sentence
p1171
(dp1172
g17
I29
sg18
(lp1173
S'You'
p1174
aS'can'
p1175
aS'find'
p1176
aS'something'
p1177
aS'better'
p1178
aS'than'
p1179
aS'death'
p1180
aS'everywhere'
p1181
aS'.'
p1182
asg42
(lp1183
VYou
p1184
aVcan
p1185
aVfind
p1186
aVsomething
p1187
ag1147
aVthan
p1188
aVdeath
p1189
aVeverywhere
p1190
ag63
asg64
(lp1191
g66
ag66
ag66
ag66
ag66
ag66
ag66
ag66
ag66
asg67
(lp1192
g123
ag161
ag159
ag71
ag124
ag79
ag71
ag78
ag80
asg81
VYou can find something better than death everywhere.
p1193
sba(i__main__
Sentence
p1194
(dp1195
g17
I30
sg18
(lp1196
S'You'
p1197
aS'have'
p1198
aS'a'
p1199
aS'good'
p1200
aS'voice'
p1201
aS','
p1202
aS'and'
p1203
aS'if'
p1204
aS'we'
p1205
aS'make'
p1206
aS'music'
p1207
aS'together'
p1208
aS'it'
p1209
aS'must'
p1210
aS'have'
p1211
aS'some'
p1212
aS'quality'
p1213
aS'.'
p1214
asg42
(lp1215
VYou
p1216
aVhave
p1217
ag48
aVgood
p1218
aVvoice
p1219
ag50
aVand
p1220
aVif
p1221
aVwe
p1222
aVmake
p1223
aVmusic
p1224
aVtogether
p1225
aVit
p1226
aVmust
p1227
aVhave
p1228
aVsome
p1229
aVquality
p1230
ag63
asg64
(lp1231
g66
ag66
ag66
ag66
ag66
ag66
ag66
ag66
ag66
ag66
ag66
ag66
ag66
ag66
ag66
ag66
ag66
ag66
asg67
(lp1232
g123
ag330
ag69
ag70
ag71
ag73
ag120
ag79
ag123
ag330
ag70
ag71
ag123
ag161
ag159
ag69
ag71
ag80
asg81
VYou have a good voice, and if we make music together it must have some quality.
p1233
sba(i__main__
Sentence
p1234
(dp1235
g17
I31
sg18
(lp1236
S'The'
p1237
aS'cock'
p1238
aS'agreed'
p1239
aS'to'
p1240
aS'this'
p1241
aS'plan'
p1242
aS','
p1243
aS'and'
p1244
aS'all'
p1245
aS'four'
p1246
aS'went'
p1247
aS'on'
p1248
aS'together'
p1249
aS'.'
p1250
asg42
(lp1251
VThe
p1252
aVcock
p1253
aVagree
p1254
aVto
p1255
aVthis
p1256
aVplan
p1257
ag50
aVand
p1258
aVall
p1259
aVfour
p1260
aVwent
p1261
aVon
p1262
aVtogether
p1263
ag63
asg64
(lp1264
g66
ag66
ag66
ag66
ag66
ag66
ag66
ag66
ag66
ag66
ag66
ag66
ag66
ag66
asg67
(lp1265
g69
ag71
ag72
ag77
ag69
ag71
ag73
ag120
ag69
ag294
ag71
ag79
ag71
ag80
asg81
VThe cock agreed to this plan, and all four went on together.
p1266
sba(i__main__
Sentence
p1267
(dp1268
g17
I32
sg18
(lp1269
S'They'
p1270
aS'could'
p1271
aS'not'
p1272
aS'reach'
p1273
aS'the'
p1274
aS'city'
p1275
aS'of'
p1276
aS'bremen'
p1277
aS'in'
p1278
aS'one'
p1279
aS'day'
p1280
aS','
p1281
aS'however'
p1282
aS','
p1283
aS'and'
p1284
aS'in'
p1285
aS'the'
p1286
aS'evening'
p1287
aS'they'
p1288
aS'came'
p1289
aS'to'
p1290
aS'a'
p1291
aS'forest'
p1292
aS'where'
p1293
aS'they'
p1294
aS'meant'
p1295
aS'to'
p1296
aS'pass'
p1297
aS'the'
p1298
aS'night'
p1299
aS'.'
p1300
asg42
(lp1301
VThey
p1302
aVcould
p1303
aVnot
p1304
aVreach
p1305
aVthe
p1306
aVcity
p1307
aVof
p1308
aVbremen
p1309
aVin
p1310
aVone
p1311
aVday
p1312
ag50
aVhowever
p1313
ag50
aVand
p1314
aVin
p1315
aVthe
p1316
aVevening
p1317
aVthey
p1318
ag567
aVto
p1319
ag48
aVforest
p1320
aVwhere
p1321
aVthey
p1322
aVmean
p1323
aVto
p1324
aVpass
p1325
aVthe
p1326
aVnight
p1327
ag63
asg64
(lp1328
g66
ag66
ag66
ag66
ag66
ag66
ag66
ag66
ag66
ag66
ag66
ag66
ag66
ag66
ag66
ag66
ag66
ag66
ag66
ag66
ag66
ag66
ag66
ag66
ag66
ag66
ag66
ag66
ag66
ag66
ag66
asg67
(lp1329
g123
ag161
ag78
ag159
ag69
ag71
ag79
ag76
ag79
ag294
ag71
ag73
ag78
ag73
ag120
ag79
ag69
ag71
ag123
ag72
ag77
ag69
ag71
ag160
ag123
ag330
ag77
ag159
ag69
ag71
ag80
asg81
VThey could not reach the city of bremen in one day, however, and in the evening they came to a forest where they meant to pass the night.
p1330
sba(i__main__
Sentence
p1331
(dp1332
g17
I33
sg18
(lp1333
S'The'
p1334
aS'donkey'
p1335
aS'and'
p1336
aS'the'
p1337
aS'hound'
p1338
aS'laid'
p1339
aS'themselves'
p1340
aS'down'
p1341
aS'under'
p1342
aS'a'
p1343
aS'large'
p1344
aS'tree'
p1345
aS','
p1346
aS'the'
p1347
aS'cat'
p1348
aS'and'
p1349
aS'the'
p1350
aS'cock'
p1351
aS'settled'
p1352
aS'themselves'
p1353
aS'in'
p1354
aS'the'
p1355
aS'branches'
p1356
aS'.'
p1357
asg42
(lp1358
VThe
p1359
aVdonkey
p1360
aVand
p1361
aVthe
p1362
aVhound
p1363
aVlay
p1364
aVthemselves
p1365
aVdown
p1366
aVunder
p1367
ag48
aVlarge
p1368
aVtree
p1369
ag50
aVthe
p1370
aVcat
p1371
aVand
p1372
aVthe
p1373
aVcock
p1374
aVsettle
p1375
aVthemselves
p1376
aVin
p1377
aVthe
p1378
aVbranch
p1379
ag63
asg64
(lp1380
g66
ag66
ag66
ag66
ag66
ag66
ag66
ag66
ag66
ag66
ag66
ag66
ag66
ag66
ag66
ag66
ag66
ag66
ag66
ag66
ag66
ag66
ag66
ag66
asg67
(lp1381
g69
ag71
ag120
ag69
ag71
ag72
ag123
ag79
ag79
ag69
ag70
ag71
ag73
ag69
ag71
ag120
ag69
ag71
ag72
ag123
ag79
ag69
ag76
ag80
asg81
VThe donkey and the hound laid themselves down under a large tree, the cat and the cock settled themselves in the branches.
p1382
sba(i__main__
Sentence
p1383
(dp1384
g17
I34
sg18
(lp1385
S'But'
p1386
aS'the'
p1387
aS'cock'
p1388
aS'flew'
p1389
aS'right'
p1390
aS'to'
p1391
aS'the'
p1392
aS'top'
p1393
aS','
p1394
aS'where'
p1395
aS'he'
p1396
aS'was'
p1397
aS'most'
p1398
aS'safe'
p1399
aS'.'
p1400
asg42
(lp1401
VBut
p1402
aVthe
p1403
aVcock
p1404
aVflew
p1405
aVright
p1406
aVto
p1407
aVthe
p1408
aVtop
p1409
ag50
aVwhere
p1410
aVhe
p1411
ag107
aVmost
p1412
aVsafe
p1413
ag63
asg64
(lp1414
g66
ag66
ag66
ag66
ag66
ag66
ag66
ag66
ag66
ag66
ag66
ag66
ag66
ag66
ag66
asg67
(lp1415
g120
ag69
ag71
ag71
ag78
ag77
ag69
ag70
ag73
ag160
ag123
ag72
aS'JJS'
p1416
ag70
ag80
asg81
VBut the cock flew right to the top, where he was most safe.
p1417
sba(i__main__
Sentence
p1418
(dp1419
g17
I35
sg18
(lp1420
S'Before'
p1421
aS'he'
p1422
aS'went'
p1423
aS'to'
p1424
aS'sleep'
p1425
aS'he'
p1426
aS'looked'
p1427
aS'round'
p1428
aS'on'
p1429
aS'all'
p1430
aS'four'
p1431
aS'sides'
p1432
aS','
p1433
aS'and'
p1434
aS'thought'
p1435
aS'he'
p1436
aS'saw'
p1437
aS'in'
p1438
aS'the'
p1439
aS'distance'
p1440
aS'a'
p1441
aS'little'
p1442
aS'spark'
p1443
aS'burning'
p1444
aS'.'
p1445
asg42
(lp1446
VBefore
p1447
aVhe
p1448
ag535
aVto
p1449
aVsleep
p1450
aVhe
p1451
aVlook
p1452
aVround
p1453
aVon
p1454
aVall
p1455
aVfour
p1456
aVside
p1457
ag50
aVand
p1458
ag231
aVhe
p1459
aVsaw
p1460
aVin
p1461
aVthe
p1462
aVdistance
p1463
ag48
aVlittle
p1464
aVspark
p1465
aVburn
p1466
ag63
asg64
(lp1467
g66
ag66
ag66
ag66
ag66
ag66
ag66
ag66
ag66
ag66
ag66
ag66
ag66
ag66
ag66
ag66
ag66
ag66
ag66
ag66
ag66
ag66
ag66
ag66
ag66
asg67
(lp1468
g79
ag123
ag72
ag77
ag159
ag123
ag72
ag71
ag79
ag69
ag294
ag76
ag73
ag120
ag72
ag123
ag72
ag79
ag69
ag71
ag69
ag78
ag71
ag122
ag80
asg81
VBefore he went to sleep he looked round on all four sides, and thought he saw in the distance a little spark burning.
p1469
sba(i__main__
Sentence
p1470
(dp1471
g17
I36
sg18
(lp1472
S'So'
p1473
aS'he'
p1474
aS'called'
p1475
aS'out'
p1476
aS'to'
p1477
aS'his'
p1478
aS'companions'
p1479
aS'that'
p1480
aS'there'
p1481
aS'must'
p1482
aS'be'
p1483
aS'a'
p1484
aS'house'
p1485
aS'not'
p1486
aS'far'
p1487
aS'off'
p1488
aS','
p1489
aS'for'
p1490
aS'he'
p1491
aS'saw'
p1492
aS'a'
p1493
aS'light'
p1494
aS'.'
p1495
asg42
(lp1496
VSo
p1497
aVhe
p1498
aVcall
p1499
aVout
p1500
aVto
p1501
aVhis
p1502
aVcompanion
p1503
aVthat
p1504
aVthere
p1505
aVmust
p1506
aVbe
p1507
ag48
aVhouse
p1508
aVnot
p1509
aVfar
p1510
aVoff
p1511
ag50
aVfor
p1512
aVhe
p1513
aVsaw
p1514
ag48
aVlight
p1515
ag63
asg64
(lp1516
g66
ag66
ag66
ag66
ag66
ag66
ag66
ag66
ag66
ag66
ag66
ag66
ag66
ag66
ag66
ag66
ag66
ag66
ag66
ag66
ag66
ag66
ag66
asg67
(lp1517
g79
ag123
ag72
ag211
ag77
ag121
ag76
ag74
ag239
ag161
ag159
ag69
ag71
ag78
ag78
ag79
ag73
ag79
ag123
ag72
ag69
ag71
ag80
asg81
VSo he called out to his companions that there must be a house not far off, for he saw a light.
p1518
sba(i__main__
Sentence
p1519
(dp1520
g17
I37
sg18
(lp1521
S'The'
p1522
aS'donkey'
p1523
aS'said'
p1524
aS','
p1525
aS'if'
p1526
aS'so'
p1527
aS','
p1528
aS'we'
p1529
aS'had'
p1530
aS'better'
p1531
aS'get'
p1532
aS'up'
p1533
aS'and'
p1534
aS'go'
p1535
aS'on'
p1536
aS','
p1537
aS'for'
p1538
aS'the'
p1539
aS'shelter'
p1540
aS'here'
p1541
aS'is'
p1542
aS'bad'
p1543
aS'.'
p1544
asg42
(lp1545
VThe
p1546
aVdonkey
p1547
ag446
ag50
aVif
p1548
aVso
p1549
ag50
aVwe
p1550
ag47
ag1147
aVget
p1551
aVup
p1552
aVand
p1553
aVgo
p1554
aVon
p1555
ag50
aVfor
p1556
aVthe
p1557
aVshelter
p1558
aVhere
p1559
ag647
aVbad
p1560
ag63
asg64
(lp1561
g66
ag66
ag66
ag66
ag66
ag66
ag66
ag66
ag66
ag66
ag66
ag66
ag66
ag66
ag66
ag66
ag66
ag66
ag66
ag66
ag66
ag66
ag66
asg67
(lp1562
g69
ag71
ag72
ag73
ag79
ag78
ag73
ag123
ag72
ag124
ag71
ag79
ag120
ag159
ag79
ag73
ag79
ag69
ag71
ag78
ag619
ag70
ag80
asg81
VThe donkey said, if so, we had better get up and go on, for the shelter here is bad.
p1563
sba(i__main__
Sentence
p1564
(dp1565
g17
I38
sg18
(lp1566
S'The'
p1567
aS'hound'
p1568
aS'thought'
p1569
aS'too'
p1570
aS'that'
p1571
aS'a'
p1572
aS'few'
p1573
aS'bones'
p1574
aS'with'
p1575
aS'some'
p1576
aS'meat'
p1577
aS'on'
p1578
aS'would'
p1579
aS'do'
p1580
aS'him'
p1581
aS'good'
p1582
aS'.'
p1583
asg42
(lp1584
VThe
p1585
aVhound
p1586
ag231
aVtoo
p1587
aVthat
p1588
ag48
aVfew
p1589
aVbone
p1590
aVwith
p1591
aVsome
p1592
aVmeat
p1593
aVon
p1594
aVwould
p1595
aVdo
p1596
aVhim
p1597
aVgood
p1598
ag63
asg64
(lp1599
g66
ag66
ag66
ag66
ag66
ag66
ag66
ag66
ag66
ag66
ag66
ag66
ag66
ag66
ag66
ag66
ag66
asg67
(lp1600
g69
ag71
ag72
ag78
ag79
ag69
ag70
ag76
ag79
ag69
ag71
ag79
ag161
ag159
ag123
ag159
ag80
asg81
VThe hound thought too that a few bones with some meat on would do him good.
p1601
sba(i__main__
Sentence
p1602
(dp1603
g17
I39
sg18
(lp1604
S'So'
p1605
aS'they'
p1606
aS'made'
p1607
aS'their'
p1608
aS'way'
p1609
aS'to'
p1610
aS'the'
p1611
aS'place'
p1612
aS'where'
p1613
aS'the'
p1614
aS'light'
p1615
aS'was'
p1616
aS','
p1617
aS'and'
p1618
aS'soon'
p1619
aS'saw'
p1620
aS'it'
p1621
aS'shine'
p1622
aS'brighter'
p1623
aS'and'
p1624
aS'grow'
p1625
aS'larger'
p1626
aS','
p1627
aS'until'
p1628
aS'they'
p1629
aS'came'
p1630
aS'to'
p1631
aS'a'
p1632
aS'well-lighted'
p1633
aS'robbers'
p1634
aS','
p1635
aS'house'
p1636
aS'.'
p1637
asg42
(lp1638
VSo
p1639
aVthey
p1640
aVmake
p1641
aVtheir
p1642
aVway
p1643
aVto
p1644
aVthe
p1645
aVplace
p1646
aVwhere
p1647
aVthe
p1648
aVlight
p1649
ag107
ag50
aVand
p1650
aVsoon
p1651
aVsaw
p1652
aVit
p1653
aVshine
p1654
aVbrighter
p1655
aVand
p1656
aVgrow
p1657
aVlarger
p1658
ag50
aVuntil
p1659
aVthey
p1660
ag567
aVto
p1661
ag48
aVwell-lighted
p1662
aVrobber
p1663
ag50
aVhouse
p1664
ag63
asg64
(lp1665
g66
ag66
ag66
ag66
ag66
ag66
ag66
ag66
ag66
ag66
ag66
ag66
ag66
ag66
ag66
ag66
ag66
ag66
ag66
ag66
ag66
ag66
ag66
ag66
ag66
ag66
ag66
ag66
ag66
ag66
ag66
ag66
ag66
asg67
(lp1666
g79
ag123
ag72
ag121
ag71
ag77
ag69
ag71
ag160
ag69
ag70
ag72
ag73
ag120
ag78
ag72
ag123
ag330
ag71
ag120
ag71
ag71
ag73
ag79
ag123
ag72
ag77
ag69
ag70
ag76
ag73
ag71
ag80
asg81
VSo they made their way to the place where the light was, and soon saw it shine brighter and grow larger, until they came to a well-lighted robbers, house.
p1667
sba(i__main__
Sentence
p1668
(dp1669
g17
I40
sg18
(lp1670
S'The'
p1671
aS'donkey'
p1672
aS','
p1673
aS'as'
p1674
aS'the'
p1675
aS'biggest'
p1676
aS','
p1677
aS'went'
p1678
aS'to'
p1679
aS'the'
p1680
aS'window'
p1681
aS'and'
p1682
aS'looked'
p1683
aS'in'
p1684
aS'.'
p1685
asg42
(lp1686
VThe
p1687
aVdonkey
p1688
ag50
ag48
aVthe
p1689
aVbig
p1690
ag50
ag535
aVto
p1691
aVthe
p1692
aVwindow
p1693
aVand
p1694
aVlook
p1695
aVin
p1696
ag63
asg64
(lp1697
g66
ag66
ag66
ag66
ag66
ag66
ag66
ag66
ag66
ag66
ag66
ag66
ag66
ag66
ag66
asg67
(lp1698
g69
ag71
ag73
ag79
ag69
ag1416
ag73
ag72
ag77
ag69
ag71
ag120
ag72
ag79
ag80
asg81
VThe donkey, as the biggest, went to the window and looked in.
p1699
sba(i__main__
Sentence
p1700
(dp1701
g17
I41
sg18
(lp1702
S'What'
p1703
aS'do'
p1704
aS'you'
p1705
aS'see'
p1706
aS','
p1707
aS'my'
p1708
aS'grey-horse'
p1709
aS','
p1710
aS'asked'
p1711
aS'the'
p1712
aS'cock'
p1713
aS'.'
p1714
asg42
(lp1715
VWhat
p1716
aVdo
p1717
aVyou
p1718
aVsee
p1719
ag50
aVmy
p1720
aVgrey-horse
p1721
ag50
aVask
p1722
aVthe
p1723
aVcock
p1724
ag63
asg64
(lp1725
g66
ag66
ag66
ag66
ag66
ag66
ag66
ag66
ag66
ag66
ag66
ag66
asg67
(lp1726
g295
ag330
ag123
ag159
ag73
ag121
ag70
ag73
ag72
ag69
ag71
ag80
asg81
VWhat do you see, my grey-horse, asked the cock.
p1727
sba(i__main__
Sentence
p1728
(dp1729
g17
I42
sg18
(lp1730
S'What'
p1731
aS'do'
p1732
aS'I'
p1733
aS'see'
p1734
aS','
p1735
aS'answered'
p1736
aS'the'
p1737
aS'donkey'
p1738
aS'.'
p1739
asg42
(lp1740
VWhat
p1741
aVdo
p1742
ag232
aVsee
p1743
ag50
aVanswer
p1744
aVthe
p1745
aVdonkey
p1746
ag63
asg64
(lp1747
g66
ag66
ag66
ag66
ag66
ag66
ag66
ag66
ag66
asg67
(lp1748
g295
ag330
ag123
ag159
ag73
ag75
ag69
ag71
ag80
asg81
VWhat do I see, answered the donkey.
p1749
sba(i__main__
Sentence
p1750
(dp1751
g17
I43
sg18
(lp1752
S'A'
p1753
aS'table'
p1754
aS'covered'
p1755
aS'with'
p1756
aS'good'
p1757
aS'things'
p1758
aS'to'
p1759
aS'eat'
p1760
aS'and'
p1761
aS'drink'
p1762
aS','
p1763
aS'and'
p1764
aS'robbers'
p1765
aS'sitting'
p1766
aS'at'
p1767
aS'it'
p1768
aS'enjoying'
p1769
aS'themselves'
p1770
aS'.'
p1771
asg42
(lp1772
g44
aVtable
p1773
aVcover
p1774
aVwith
p1775
aVgood
p1776
aVthing
p1777
aVto
p1778
aVeat
p1779
aVand
p1780
aVdrink
p1781
ag50
aVand
p1782
aVrobber
p1783
ag570
aVat
p1784
aVit
p1785
aVenjoy
p1786
aVthemselves
p1787
ag63
asg64
(lp1788
g66
ag66
ag66
ag66
ag66
ag66
ag66
ag66
ag66
ag66
ag66
ag66
ag66
ag66
ag66
ag66
ag66
ag66
ag66
asg67
(lp1789
g69
ag70
ag75
ag79
ag70
ag76
ag77
ag159
ag120
ag159
ag73
ag120
ag76
ag122
ag79
ag123
ag122
ag123
ag80
asg81
VA table covered with good things to eat and drink, and robbers sitting at it enjoying themselves.
p1790
sba(i__main__
Sentence
p1791
(dp1792
g17
I44
sg18
(lp1793
S'That'
p1794
aS'would'
p1795
aS'be'
p1796
aS'the'
p1797
aS'sort'
p1798
aS'of'
p1799
aS'thing'
p1800
aS'for'
p1801
aS'us'
p1802
aS','
p1803
aS'said'
p1804
aS'the'
p1805
aS'cock'
p1806
aS'.'
p1807
asg42
(lp1808
VThat
p1809
aVwould
p1810
aVbe
p1811
aVthe
p1812
aVsort
p1813
aVof
p1814
aVthing
p1815
aVfor
p1816
ag788
ag50
ag446
aVthe
p1817
aVcock
p1818
ag63
asg64
(lp1819
g66
ag66
ag66
ag66
ag66
ag66
ag66
ag66
ag66
ag66
ag66
ag66
ag66
ag66
asg67
(lp1820
g69
ag161
ag159
ag69
ag71
ag79
ag71
ag79
ag123
ag73
ag72
ag69
ag71
ag80
asg81
VThat would be the sort of thing for us, said the cock.
p1821
sba(i__main__
Sentence
p1822
(dp1823
g17
I45
sg18
(lp1824
S'Yes'
p1825
aS','
p1826
aS'yes'
p1827
aS'.'
p1828
asg42
(lp1829
VYes
p1830
ag50
aVyes
p1831
ag63
asg64
(lp1832
g66
ag66
ag66
ag66
asg67
(lp1833
g76
ag73
ag76
ag80
asg81
VYes, yes.
p1834
sba(i__main__
Sentence
p1835
(dp1836
g17
I46
sg18
(lp1837
S'Ah'
p1838
aS','
p1839
aS'if'
p1840
aS'only'
p1841
aS'we'
p1842
aS'were'
p1843
aS'there'
p1844
aS','
p1845
aS'said'
p1846
aS'the'
p1847
aS'donkey'
p1848
aS'.'
p1849
asg42
(lp1850
VAh
p1851
ag50
aVif
p1852
aVonly
p1853
aVwe
p1854
aVbe
p1855
aVthere
p1856
ag50
ag446
aVthe
p1857
aVdonkey
p1858
ag63
asg64
(lp1859
g66
ag66
ag66
ag66
ag66
ag66
ag66
ag66
ag66
ag66
ag66
ag66
asg67
(lp1860
g416
ag73
ag79
ag78
ag123
ag72
ag78
ag73
ag72
ag69
ag71
ag80
asg81
VAh, if only we were there, said the donkey.
p1861
sba(i__main__
Sentence
p1862
(dp1863
g17
I47
sg18
(lp1864
S'Then'
p1865
aS'the'
p1866
aS'animals'
p1867
aS'took'
p1868
aS'counsel'
p1869
aS'together'
p1870
aS'how'
p1871
aS'they'
p1872
aS'should'
p1873
aS'manage'
p1874
aS'to'
p1875
aS'drive'
p1876
aS'away'
p1877
aS'the'
p1878
aS'robbers'
p1879
aS','
p1880
aS'and'
p1881
aS'at'
p1882
aS'last'
p1883
aS'they'
p1884
aS'thought'
p1885
aS'of'
p1886
aS'a'
p1887
aS'plan'
p1888
aS'.'
p1889
asg42
(lp1890
VThen
p1891
aVthe
p1892
aVanimal
p1893
ag403
aVcounsel
p1894
aVtogether
p1895
aVhow
p1896
aVthey
p1897
aVshould
p1898
aVmanage
p1899
aVto
p1900
aVdrive
p1901
aVaway
p1902
aVthe
p1903
aVrobber
p1904
ag50
aVand
p1905
aVat
p1906
aVlast
p1907
aVthey
p1908
ag231
aVof
p1909
ag48
aVplan
p1910
ag63
asg64
(lp1911
g66
ag66
ag66
ag66
ag66
ag66
ag66
ag66
ag66
ag66
ag66
ag66
ag66
ag66
ag66
ag66
ag66
ag66
ag66
ag66
ag66
ag66
ag66
ag66
ag66
asg67
(lp1912
g78
ag69
ag76
ag72
ag71
ag78
ag160
ag123
ag161
ag159
ag77
ag159
ag211
ag69
ag76
ag73
ag120
ag79
ag70
ag123
ag72
ag79
ag69
ag71
ag80
asg81
VThen the animals took counsel together how they should manage to drive away the robbers, and at last they thought of a plan.
p1913
sba(i__main__
Sentence
p1914
(dp1915
g17
I48
sg18
(lp1916
S'The'
p1917
aS'donkey'
p1918
aS'was'
p1919
aS'to'
p1920
aS'place'
p1921
aS'himself'
p1922
aS'with'
p1923
aS'his'
p1924
aS'fore-feet'
p1925
aS'upon'
p1926
aS'the'
p1927
aS'window-ledge'
p1928
aS','
p1929
aS'the'
p1930
aS'hound'
p1931
aS'was'
p1932
aS'to'
p1933
aS'jump'
p1934
aS'on'
p1935
aS'the'
p1936
aS'donkey'
p1937
aS"'s"
p1938
aS'back'
p1939
aS','
p1940
aS'the'
p1941
aS'cat'
p1942
aS'was'
p1943
aS'to'
p1944
aS'climb'
p1945
aS'upon'
p1946
aS'the'
p1947
aS'dog'
p1948
aS','
p1949
aS'and'
p1950
aS'lastly'
p1951
aS'the'
p1952
aS'cock'
p1953
aS'was'
p1954
aS'to'
p1955
aS'fly'
p1956
aS'up'
p1957
aS'and'
p1958
aS'perch'
p1959
aS'upon'
p1960
aS'the'
p1961
aS'head'
p1962
aS'of'
p1963
aS'the'
p1964
aS'cat'
p1965
aS'.'
p1966
asg42
(lp1967
VThe
p1968
aVdonkey
p1969
ag107
aVto
p1970
aVplace
p1971
aVhimself
p1972
aVwith
p1973
aVhis
p1974
aVfore-feet
p1975
aVupon
p1976
aVthe
p1977
aVwindow-ledge
p1978
ag50
aVthe
p1979
aVhound
p1980
ag107
aVto
p1981
aVjump
p1982
aVon
p1983
aVthe
p1984
aVdonkey
p1985
aV's
p1986
aVback
p1987
ag50
aVthe
p1988
aVcat
p1989
ag107
aVto
p1990
aVclimb
p1991
aVupon
p1992
aVthe
p1993
aVdog
p1994
ag50
aVand
p1995
aVlastly
p1996
aVthe
p1997
aVcock
p1998
ag107
aVto
p1999
aVfly
p2000
aVup
p2001
aVand
p2002
aVperch
p2003
aVupon
p2004
aVthe
p2005
aVhead
p2006
aVof
p2007
aVthe
p2008
aVcat
p2009
ag63
asg64
(lp2010
g66
ag66
ag66
ag66
ag66
ag66
ag66
ag66
ag66
ag66
ag66
ag66
ag66
ag66
ag66
ag66
ag66
ag66
ag66
ag66
ag66
ag66
ag66
ag66
ag66
ag66
ag66
ag66
ag66
ag66
ag66
ag66
ag66
ag66
ag66
ag66
ag66
ag66
ag66
ag66
ag66
ag66
ag66
ag66
ag66
ag66
ag66
ag66
ag66
ag66
asg67
(lp2011
g69
ag71
ag72
ag77
ag159
ag123
ag79
ag121
ag70
ag79
ag69
ag70
ag73
ag69
ag71
ag72
ag77
ag159
ag79
ag69
ag71
ag1003
ag71
ag73
ag69
ag71
ag72
ag77
ag159
ag79
ag69
ag71
ag73
ag120
ag78
ag69
ag71
ag72
ag77
ag78
ag79
ag120
ag71
ag79
ag69
ag71
ag79
ag69
ag71
ag80
asg81
VThe donkey was to place himself with his fore-feet upon the window-ledge, the hound was to jump on the donkey's back, the cat was to climb upon the dog, and lastly the cock was to fly up and perch upon the head of the cat.
p2012
sba(i__main__
Sentence
p2013
(dp2014
g17
I49
sg18
(lp2015
S'When'
p2016
aS'this'
p2017
aS'was'
p2018
aS'done'
p2019
aS','
p2020
aS'at'
p2021
aS'a'
p2022
aS'given'
p2023
aS'signal'
p2024
aS','
p2025
aS'they'
p2026
aS'began'
p2027
aS'to'
p2028
aS'perform'
p2029
aS'their'
p2030
aS'music'
p2031
aS'together'
p2032
aS'.'
p2033
asg42
(lp2034
VWhen
p2035
aVthis
p2036
ag107
aVdo
p2037
ag50
aVat
p2038
ag48
aVgive
p2039
aVsignal
p2040
ag50
aVthey
p2041
ag147
aVto
p2042
aVperform
p2043
aVtheir
p2044
aVmusic
p2045
aVtogether
p2046
ag63
asg64
(lp2047
g66
ag66
ag66
ag66
ag66
ag66
ag66
ag66
ag66
ag66
ag66
ag66
ag66
ag66
ag66
ag66
ag66
ag66
asg67
(lp2048
g160
ag69
ag72
ag75
ag73
ag79
ag69
ag75
ag70
ag73
ag123
ag72
ag77
ag71
ag121
ag71
ag78
ag80
asg81
VWhen this was done, at a given signal, they began to perform their music together.
p2049
sba(i__main__
Sentence
p2050
(dp2051
g17
I50
sg18
(lp2052
S'The'
p2053
aS'donkey'
p2054
aS'brayed'
p2055
aS','
p2056
aS'the'
p2057
aS'hound'
p2058
aS'barked'
p2059
aS','
p2060
aS'the'
p2061
aS'cat'
p2062
aS'mewed'
p2063
aS','
p2064
aS'and'
p2065
aS'the'
p2066
aS'cock'
p2067
aS'crowed'
p2068
aS'.'
p2069
asg42
(lp2070
VThe
p2071
aVdonkey
p2072
aVbray
p2073
ag50
aVthe
p2074
aVhound
p2075
aVbark
p2076
ag50
aVthe
p2077
aVcat
p2078
aVmew
p2079
ag50
aVand
p2080
aVthe
p2081
aVcock
p2082
aVcrow
p2083
ag63
asg64
(lp2084
g66
ag66
ag66
ag66
ag66
ag66
ag66
ag66
ag66
ag66
ag66
ag66
ag66
ag66
ag66
ag66
ag66
asg67
(lp2085
g69
ag71
ag72
ag73
ag69
ag71
ag72
ag73
ag69
ag71
ag72
ag73
ag120
ag69
ag71
ag72
ag80
asg81
VThe donkey brayed, the hound barked, the cat mewed, and the cock crowed.
p2086
sba(i__main__
Sentence
p2087
(dp2088
g17
I51
sg18
(lp2089
S'Then'
p2090
aS'they'
p2091
aS'burst'
p2092
aS'through'
p2093
aS'the'
p2094
aS'window'
p2095
aS'into'
p2096
aS'the'
p2097
aS'room'
p2098
aS','
p2099
aS'shattering'
p2100
aS'the'
p2101
aS'glass'
p2102
aS'.'
p2103
asg42
(lp2104
VThen
p2105
aVthey
p2106
aVburst
p2107
aVthrough
p2108
aVthe
p2109
aVwindow
p2110
aVinto
p2111
aVthe
p2112
aVroom
p2113
ag50
aVshatter
p2114
aVthe
p2115
aVglass
p2116
ag63
asg64
(lp2117
g66
ag66
ag66
ag66
ag66
ag66
ag66
ag66
ag66
ag66
ag66
ag66
ag66
ag66
asg67
(lp2118
g78
ag123
ag330
ag79
ag69
ag71
ag79
ag69
ag71
ag73
ag122
ag69
ag71
ag80
asg81
VThen they burst through the window into the room, shattering the glass.
p2119
sba(i__main__
Sentence
p2120
(dp2121
g17
I52
sg18
(lp2122
S'At'
p2123
aS'this'
p2124
aS'horrible'
p2125
aS'din'
p2126
aS','
p2127
aS'the'
p2128
aS'robbers'
p2129
aS'sprang'
p2130
aS'up'
p2131
aS','
p2132
aS'thinking'
p2133
aS'no'
p2134
aS'otherwise'
p2135
aS'than'
p2136
aS'that'
p2137
aS'a'
p2138
aS'ghost'
p2139
aS'had'
p2140
aS'come'
p2141
aS'in'
p2142
aS','
p2143
aS'and'
p2144
aS'fled'
p2145
aS'in'
p2146
aS'a'
p2147
aS'great'
p2148
aS'fright'
p2149
aS'out'
p2150
aS'into'
p2151
aS'the'
p2152
aS'forest'
p2153
aS'.'
p2154
asg42
(lp2155
VAt
p2156
aVthis
p2157
aVhorrible
p2158
aVdin
p2159
ag50
aVthe
p2160
aVrobber
p2161
aVspring
p2162
aVup
p2163
ag50
aVthink
p2164
aVno
p2165
aVotherwise
p2166
aVthan
p2167
aVthat
p2168
ag48
aVghost
p2169
ag47
aVcome
p2170
aVin
p2171
ag50
aVand
p2172
aVflee
p2173
aVin
p2174
ag48
aVgreat
p2175
aVfright
p2176
aVout
p2177
aVinto
p2178
aVthe
p2179
aVforest
p2180
ag63
asg64
(lp2181
g66
ag66
ag66
ag66
ag66
ag66
ag66
ag66
ag66
ag66
ag66
ag66
ag66
ag66
ag66
ag66
ag66
ag66
ag66
ag66
ag66
ag66
ag66
ag66
ag66
ag66
ag66
ag66
ag66
ag66
ag66
ag66
asg67
(lp2182
g79
ag69
ag70
ag71
ag73
ag69
ag76
ag330
ag211
ag73
ag122
ag69
ag71
ag79
ag69
ag69
ag71
ag72
ag75
ag79
ag73
ag120
ag72
ag79
ag69
ag70
ag71
ag79
ag79
ag69
ag1416
ag80
asg81
VAt this horrible din, the robbers sprang up, thinking no otherwise than that a ghost had come in, and fled in a great fright out into the forest.
p2183
sba(i__main__
Sentence
p2184
(dp2185
g17
I53
sg18
(lp2186
S'The'
p2187
aS'four'
p2188
aS'companions'
p2189
aS'now'
p2190
aS'sat'
p2191
aS'down'
p2192
aS'at'
p2193
aS'the'
p2194
aS'table'
p2195
aS','
p2196
aS'well'
p2197
aS'content'
p2198
aS'with'
p2199
aS'what'
p2200
aS'was'
p2201
aS'left'
p2202
aS','
p2203
aS'and'
p2204
aS'ate'
p2205
aS'as'
p2206
aS'if'
p2207
aS'they'
p2208
aS'were'
p2209
aS'going'
p2210
aS'to'
p2211
aS'fast'
p2212
aS'for'
p2213
aS'a'
p2214
aS'month'
p2215
aS'.'
p2216
asg42
(lp2217
VThe
p2218
aVfour
p2219
aVcompanion
p2220
aVnow
p2221
aVsit
p2222
aVdown
p2223
aVat
p2224
aVthe
p2225
aVtable
p2226
ag50
aVwell
p2227
aVcontent
p2228
aVwith
p2229
aVwhat
p2230
ag107
aVleave
p2231
ag50
aVand
p2232
aVeat
p2233
ag48
aVif
p2234
aVthey
p2235
ag1855
aVgo
p2236
aVto
p2237
aVfast
p2238
aVfor
p2239
ag48
aVmonth
p2240
ag63
asg64
(lp2241
g66
ag66
ag66
ag66
ag66
ag66
ag66
ag66
ag66
ag66
ag66
ag66
ag66
ag66
ag66
ag66
ag66
ag66
ag66
ag66
ag66
ag66
ag66
ag66
ag66
ag66
ag66
ag66
ag66
ag66
asg67
(lp2242
g69
ag294
ag76
ag78
ag330
ag79
ag79
ag69
ag71
ag73
ag78
ag70
ag79
ag295
ag72
ag75
ag73
ag120
ag159
ag79
ag79
ag123
ag72
ag122
ag77
ag159
ag79
ag69
ag71
ag80
asg81
VThe four companions now sat down at the table, well content with what was left, and ate as if they were going to fast for a month.
p2243
sba(i__main__
Sentence
p2244
(dp2245
g17
I54
sg18
(lp2246
S'As'
p2247
aS'soon'
p2248
aS'as'
p2249
aS'the'
p2250
aS'four'
p2251
aS'minstrels'
p2252
aS'had'
p2253
aS'done'
p2254
aS','
p2255
aS'they'
p2256
aS'put'
p2257
aS'out'
p2258
aS'the'
p2259
aS'light'
p2260
aS','
p2261
aS'and'
p2262
aS'each'
p2263
aS'sought'
p2264
aS'for'
p2265
aS'himself'
p2266
aS'a'
p2267
aS'sleeping-place'
p2268
aS'according'
p2269
aS'to'
p2270
aS'his'
p2271
aS'nature'
p2272
aS'and'
p2273
aS'what'
p2274
aS'suited'
p2275
aS'him'
p2276
aS'.'
p2277
asg42
(lp2278
VAs
p2279
aVsoon
p2280
ag48
aVthe
p2281
aVfour
p2282
aVminstrel
p2283
ag47
ag2037
ag50
aVthey
p2284
aVput
p2285
aVout
p2286
aVthe
p2287
aVlight
p2288
ag50
aVand
p2289
aVeach
p2290
aVsought
p2291
aVfor
p2292
aVhimself
p2293
ag48
aVsleeping-place
p2294
aVaccord
p2295
aVto
p2296
aVhis
p2297
aVnature
p2298
aVand
p2299
aVwhat
p2300
aVsuit
p2301
aVhim
p2302
ag63
asg64
(lp2303
g66
ag66
ag66
ag66
ag66
ag66
ag66
ag66
ag66
ag66
ag66
ag66
ag66
ag66
ag66
ag66
ag66
ag66
ag66
ag66
ag66
ag66
ag66
ag66
ag66
ag66
ag66
ag66
ag66
ag66
ag66
asg67
(lp2304
g79
ag78
ag79
ag69
ag294
ag76
ag72
ag75
ag73
ag123
ag72
ag211
ag69
ag71
ag73
ag120
ag69
ag71
ag79
ag123
ag69
ag71
ag122
ag77
ag121
ag71
ag120
ag295
ag75
ag123
ag80
asg81
VAs soon as the four minstrels had done, they put out the light, and each sought for himself a sleeping-place according to his nature and what suited him.
p2305
sba(i__main__
Sentence
p2306
(dp2307
g17
I55
sg18
(lp2308
S'The'
p2309
aS'donkey'
p2310
aS'laid'
p2311
aS'himself'
p2312
aS'down'
p2313
aS'upon'
p2314
aS'some'
p2315
aS'straw'
p2316
aS'in'
p2317
aS'the'
p2318
aS'yard'
p2319
aS','
p2320
aS'the'
p2321
aS'hound'
p2322
aS'behind'
p2323
aS'the'
p2324
aS'door'
p2325
aS','
p2326
aS'the'
p2327
aS'cat'
p2328
aS'upon'
p2329
aS'the'
p2330
aS'hearth'
p2331
aS'near'
p2332
aS'the'
p2333
aS'warm'
p2334
aS'ashes'
p2335
aS','
p2336
aS'and'
p2337
aS'the'
p2338
aS'cock'
p2339
aS'perched'
p2340
aS'himself'
p2341
aS'upon'
p2342
aS'a'
p2343
aS'beam'
p2344
aS'of'
p2345
aS'the'
p2346
aS'roof'
p2347
aS'.'
p2348
asg42
(lp2349
VThe
p2350
aVdonkey
p2351
ag1364
aVhimself
p2352
aVdown
p2353
aVupon
p2354
aVsome
p2355
aVstraw
p2356
aVin
p2357
aVthe
p2358
aVyard
p2359
ag50
aVthe
p2360
aVhound
p2361
aVbehind
p2362
aVthe
p2363
aVdoor
p2364
ag50
aVthe
p2365
aVcat
p2366
aVupon
p2367
aVthe
p2368
aVhearth
p2369
aVnear
p2370
aVthe
p2371
aVwarm
p2372
aVash
p2373
ag50
aVand
p2374
aVthe
p2375
aVcock
p2376
aVperch
p2377
aVhimself
p2378
aVupon
p2379
ag48
aVbeam
p2380
aVof
p2381
aVthe
p2382
aVroof
p2383
ag63
asg64
(lp2384
g66
ag66
ag66
ag66
ag66
ag66
ag66
ag66
ag66
ag66
ag66
ag66
ag66
ag66
ag66
ag66
ag66
ag66
ag66
ag66
ag66
ag66
ag66
ag66
ag66
ag66
ag66
ag66
ag66
ag66
ag66
ag66
ag66
ag66
ag66
ag66
ag66
ag66
ag66
ag66
asg67
(lp2385
g69
ag71
ag72
ag123
ag79
ag79
ag69
ag71
ag79
ag69
ag71
ag73
ag69
ag71
ag79
ag69
ag71
ag73
ag69
ag71
ag79
ag69
ag70
ag71
ag69
ag71
ag619
ag73
ag120
ag69
ag71
ag72
ag123
ag79
ag69
ag71
ag79
ag69
ag71
ag80
asg81
VThe donkey laid himself down upon some straw in the yard, the hound behind the door, the cat upon the hearth near the warm ashes, and the cock perched himself upon a beam of the roof.
p2386
sba(i__main__
Sentence
p2387
(dp2388
g17
I56
sg18
(lp2389
S'And'
p2390
aS'being'
p2391
aS'tired'
p2392
aS'from'
p2393
aS'their'
p2394
aS'long'
p2395
aS'walk'
p2396
aS','
p2397
aS'they'
p2398
aS'soon'
p2399
aS'went'
p2400
aS'to'
p2401
aS'sleep'
p2402
aS'.'
p2403
asg42
(lp2404
VAnd
p2405
aVbe
p2406
aVtire
p2407
aVfrom
p2408
aVtheir
p2409
aVlong
p2410
aVwalk
p2411
ag50
aVthey
p2412
aVsoon
p2413
ag535
aVto
p2414
aVsleep
p2415
ag63
asg64
(lp2416
g66
ag66
ag66
ag66
ag66
ag66
ag66
ag66
ag66
ag66
ag66
ag66
ag66
ag66
asg67
(lp2417
g120
ag122
ag75
ag79
ag121
ag70
ag71
ag73
ag123
ag78
ag72
ag77
ag159
ag80
asg81
VAnd being tired from their long walk, they soon went to sleep.
p2418
sba(i__main__
Sentence
p2419
(dp2420
g17
I57
sg18
(lp2421
S'When'
p2422
aS'it'
p2423
aS'was'
p2424
aS'past'
p2425
aS'midnight'
p2426
aS','
p2427
aS'and'
p2428
aS'the'
p2429
aS'robbers'
p2430
aS'saw'
p2431
aS'from'
p2432
aS'afar'
p2433
aS'that'
p2434
aS'the'
p2435
aS'light'
p2436
aS'was'
p2437
aS'no'
p2438
aS'longer'
p2439
aS'burning'
p2440
aS'in'
p2441
aS'their'
p2442
aS'house'
p2443
aS','
p2444
aS'and'
p2445
aS'all'
p2446
aS'appeared'
p2447
aS'quiet'
p2448
aS','
p2449
aS'the'
p2450
aS'captain'
p2451
aS'said'
p2452
aS','
p2453
aS'we'
p2454
aS'ought'
p2455
aS'not'
p2456
aS'to'
p2457
aS'have'
p2458
aS'let'
p2459
aS'ourselves'
p2460
aS'be'
p2461
aS'frightened'
p2462
aS'out'
p2463
aS'of'
p2464
aS'our'
p2465
aS'wits'
p2466
aS','
p2467
aS'and'
p2468
aS'ordered'
p2469
aS'one'
p2470
aS'of'
p2471
aS'them'
p2472
aS'to'
p2473
aS'go'
p2474
aS'and'
p2475
aS'examine'
p2476
aS'the'
p2477
aS'house'
p2478
aS'.'
p2479
asg42
(lp2480
VWhen
p2481
aVit
p2482
ag107
aVpast
p2483
aVmidnight
p2484
ag50
aVand
p2485
aVthe
p2486
aVrobber
p2487
aVsaw
p2488
aVfrom
p2489
aVafar
p2490
aVthat
p2491
aVthe
p2492
aVlight
p2493
ag107
aVno
p2494
aVlonger
p2495
aVburn
p2496
aVin
p2497
aVtheir
p2498
aVhouse
p2499
ag50
aVand
p2500
aVall
p2501
aVappear
p2502
aVquiet
p2503
ag50
aVthe
p2504
aVcaptain
p2505
ag446
ag50
aVwe
p2506
aVought
p2507
aVnot
p2508
aVto
p2509
aVhave
p2510
aVlet
p2511
aVourselves
p2512
aVbe
p2513
aVfrighten
p2514
aVout
p2515
aVof
p2516
aVour
p2517
aVwit
p2518
ag50
aVand
p2519
aVorder
p2520
aVone
p2521
aVof
p2522
aVthem
p2523
aVto
p2524
aVgo
p2525
aVand
p2526
aVexamine
p2527
aVthe
p2528
aVhouse
p2529
ag63
asg64
(lp2530
g66
ag66
ag66
ag66
ag66
ag66
ag66
ag66
ag66
ag66
ag66
ag66
ag66
ag66
ag66
ag66
ag66
ag66
ag66
ag66
ag66
ag66
ag66
ag66
ag66
ag66
ag66
ag66
ag66
ag66
ag66
ag66
ag66
ag66
ag66
ag66
ag66
ag66
ag66
ag66
ag66
ag66
ag66
ag66
ag66
ag66
ag66
ag66
ag66
ag66
ag66
ag66
ag66
ag66
ag66
ag66
ag66
ag66
asg67
(lp2531
g160
ag123
ag72
ag70
ag71
ag73
ag120
ag69
ag76
ag72
ag79
ag71
ag79
ag69
ag70
ag72
ag69
ag71
ag122
ag79
ag121
ag71
ag73
ag120
ag69
ag72
ag70
ag73
ag69
ag71
ag72
ag73
ag123
ag161
ag78
ag77
ag159
ag75
ag76
ag159
ag75
ag211
ag79
ag121
ag76
ag73
ag120
ag72
ag294
ag79
ag123
ag77
ag159
ag120
ag71
ag69
ag71
ag80
asg81
VWhen it was past midnight, and the robbers saw from afar that the light was no longer burning in their house, and all appeared quiet, the captain said, we ought not to have let ourselves be frightened out of our wits, and ordered one of them to go and examine the house.
p2532
sba(i__main__
Sentence
p2533
(dp2534
g17
I58
sg18
(lp2535
S'The'
p2536
aS'messenger'
p2537
aS'finding'
p2538
aS'all'
p2539
aS'still'
p2540
aS','
p2541
aS'went'
p2542
aS'into'
p2543
aS'the'
p2544
aS'kitchen'
p2545
aS'to'
p2546
aS'light'
p2547
aS'a'
p2548
aS'candle'
p2549
aS','
p2550
aS'and'
p2551
aS','
p2552
aS'taking'
p2553
aS'the'
p2554
aS'glistening'
p2555
aS'fiery'
p2556
aS'eyes'
p2557
aS'of'
p2558
aS'the'
p2559
aS'cat'
p2560
aS'for'
p2561
aS'live'
p2562
aS'coals'
p2563
aS','
p2564
aS'he'
p2565
aS'held'
p2566
aS'a'
p2567
aS'lucifer-match'
p2568
aS'to'
p2569
aS'them'
p2570
aS'to'
p2571
aS'light'
p2572
aS'it'
p2573
aS'.'
p2574
asg42
(lp2575
VThe
p2576
aVmessenger
p2577
aVfinding
p2578
aVall
p2579
aVstill
p2580
ag50
ag535
aVinto
p2581
aVthe
p2582
aVkitchen
p2583
aVto
p2584
aVlight
p2585
ag48
aVcandle
p2586
ag50
aVand
p2587
ag50
aVtake
p2588
aVthe
p2589
aVglistening
p2590
aVfiery
p2591
aVeye
p2592
aVof
p2593
aVthe
p2594
aVcat
p2595
aVfor
p2596
aVlive
p2597
aVcoal
p2598
ag50
aVhe
p2599
aVhold
p2600
ag48
aVlucifer-match
p2601
aVto
p2602
aVthem
p2603
aVto
p2604
aVlight
p2605
aVit
p2606
ag63
asg64
(lp2607
g66
ag66
ag66
ag66
ag66
ag66
ag66
ag66
ag66
ag66
ag66
ag66
ag66
ag66
ag66
ag66
ag66
ag66
ag66
ag66
ag66
ag66
ag66
ag66
ag66
ag66
ag66
ag66
ag66
ag66
ag66
ag66
ag66
ag66
ag66
ag66
ag66
ag66
ag66
asg67
(lp2608
g69
ag71
ag71
ag69
ag78
ag73
ag72
ag79
ag69
ag70
ag77
ag70
ag69
ag71
ag73
ag120
ag73
ag122
ag69
ag71
ag71
ag76
ag79
ag69
ag71
ag79
ag70
ag76
ag73
ag123
ag72
ag69
ag70
ag77
ag123
ag77
ag70
ag123
ag80
asg81
VThe messenger finding all still, went into the kitchen to light a candle, and, taking the glistening fiery eyes of the cat for live coals, he held a lucifer-match to them to light it.
p2609
sba(i__main__
Sentence
p2610
(dp2611
g17
I59
sg18
(lp2612
S'But'
p2613
aS'the'
p2614
aS'cat'
p2615
aS'did'
p2616
aS'not'
p2617
aS'understand'
p2618
aS'the'
p2619
aS'joke'
p2620
aS','
p2621
aS'and'
p2622
aS'flew'
p2623
aS'in'
p2624
aS'his'
p2625
aS'face'
p2626
aS','
p2627
aS'spitting'
p2628
aS'and'
p2629
aS'scratching'
p2630
aS'.'
p2631
asg42
(lp2632
VBut
p2633
aVthe
p2634
aVcat
p2635
aVdo
p2636
aVnot
p2637
aVunderstand
p2638
aVthe
p2639
aVjoke
p2640
ag50
aVand
p2641
aVfly
p2642
aVin
p2643
aVhis
p2644
aVface
p2645
ag50
aVspit
p2646
aVand
p2647
aVscratch
p2648
ag63
asg64
(lp2649
g66
ag66
ag66
ag66
ag66
ag66
ag66
ag66
ag66
ag66
ag66
ag66
ag66
ag66
ag66
ag66
ag66
ag66
ag66
asg67
(lp2650
g120
ag69
ag71
ag72
ag78
ag159
ag69
ag71
ag73
ag120
ag159
ag79
ag121
ag71
ag73
ag122
ag120
ag122
ag80
asg81
VBut the cat did not understand the joke, and flew in his face, spitting and scratching.
p2651
sba(i__main__
Sentence
p2652
(dp2653
g17
I60
sg18
(lp2654
S'He'
p2655
aS'was'
p2656
aS'dreadfully'
p2657
aS'frightened'
p2658
aS','
p2659
aS'and'
p2660
aS'ran'
p2661
aS'to'
p2662
aS'the'
p2663
aS'back-door'
p2664
aS','
p2665
aS'but'
p2666
aS'the'
p2667
aS'dog'
p2668
aS','
p2669
aS'who'
p2670
aS'lay'
p2671
aS'there'
p2672
aS'sprang'
p2673
aS'up'
p2674
aS'and'
p2675
aS'bit'
p2676
aS'his'
p2677
aS'leg'
p2678
aS'.'
p2679
asg42
(lp2680
VHe
p2681
ag107
aVdreadfully
p2682
aVfrighten
p2683
ag50
aVand
p2684
ag199
aVto
p2685
aVthe
p2686
aVback-door
p2687
ag50
aVbut
p2688
aVthe
p2689
aVdog
p2690
ag50
aVwho
p2691
aVlay
p2692
aVthere
p2693
aVsprang
p2694
aVup
p2695
aVand
p2696
aVbit
p2697
aVhis
p2698
aVleg
p2699
ag63
asg64
(lp2700
g66
ag66
ag66
ag66
ag66
ag66
ag66
ag66
ag66
ag66
ag66
ag66
ag66
ag66
ag66
ag66
ag66
ag66
ag66
ag66
ag66
ag66
ag66
ag66
ag66
asg67
(lp2701
g123
ag72
ag78
ag75
ag73
ag120
ag72
ag77
ag69
ag70
ag73
ag120
ag69
ag71
ag73
ag295
ag71
ag78
ag70
ag211
ag120
ag71
ag121
ag71
ag80
asg81
VHe was dreadfully frightened, and ran to the back-door, but the dog, who lay there sprang up and bit his leg.
p2702
sba(i__main__
Sentence
p2703
(dp2704
g17
I61
sg18
(lp2705
S'And'
p2706
aS'as'
p2707
aS'he'
p2708
aS'ran'
p2709
aS'across'
p2710
aS'the'
p2711
aS'yard'
p2712
aS'by'
p2713
aS'the'
p2714
aS'dunghill'
p2715
aS','
p2716
aS'the'
p2717
aS'donkey'
p2718
aS'gave'
p2719
aS'him'
p2720
aS'a'
p2721
aS'smart'
p2722
aS'kick'
p2723
aS'with'
p2724
aS'its'
p2725
aS'hind'
p2726
aS'foot'
p2727
aS'.'
p2728
asg42
(lp2729
VAnd
p2730
ag48
aVhe
p2731
ag199
aVacross
p2732
aVthe
p2733
aVyard
p2734
aVby
p2735
aVthe
p2736
aVdunghill
p2737
ag50
aVthe
p2738
aVdonkey
p2739
aVgive
p2740
aVhim
p2741
ag48
aVsmart
p2742
aVkick
p2743
aVwith
p2744
aVit
p2745
aVhind
p2746
aVfoot
p2747
ag63
asg64
(lp2748
g66
ag66
ag66
ag66
ag66
ag66
ag66
ag66
ag66
ag66
ag66
ag66
ag66
ag66
ag66
ag66
ag66
ag66
ag66
ag66
ag66
ag66
ag66
asg67
(lp2749
g120
ag79
ag123
ag72
ag79
ag69
ag71
ag79
ag69
ag71
ag73
ag69
ag71
ag72
ag123
ag69
ag71
ag71
ag79
ag121
ag71
ag71
ag80
asg81
VAnd as he ran across the yard by the dunghill, the donkey gave him a smart kick with its hind foot.
p2750
sba(i__main__
Sentence
p2751
(dp2752
g17
I62
sg18
(lp2753
S'The'
p2754
aS'cock'
p2755
aS','
p2756
aS'too'
p2757
aS','
p2758
aS'who'
p2759
aS'had'
p2760
aS'been'
p2761
aS'awakened'
p2762
aS'by'
p2763
aS'the'
p2764
aS'noise'
p2765
aS','
p2766
aS'and'
p2767
aS'had'
p2768
aS'become'
p2769
aS'lively'
p2770
aS','
p2771
aS'cried'
p2772
aS'down'
p2773
aS'from'
p2774
aS'the'
p2775
aS'beam'
p2776
aS','
p2777
aS'cock-a-doodle-doo'
p2778
aS'.'
p2779
asg42
(lp2780
VThe
p2781
aVcock
p2782
ag50
aVtoo
p2783
ag50
aVwho
p2784
ag47
ag976
aVawaken
p2785
aVby
p2786
aVthe
p2787
aVnoise
p2788
ag50
aVand
p2789
ag47
aVbecome
p2790
aVlively
p2791
ag50
aVcry
p2792
aVdown
p2793
aVfrom
p2794
aVthe
p2795
aVbeam
p2796
ag50
aVcock-a-doodle-doo
p2797
ag63
asg64
(lp2798
g66
ag66
ag66
ag66
ag66
ag66
ag66
ag66
ag66
ag66
ag66
ag66
ag66
ag66
ag66
ag66
ag66
ag66
ag66
ag66
ag66
ag66
ag66
ag66
ag66
ag66
asg67
(lp2799
g69
ag71
ag73
ag78
ag73
ag295
ag72
ag75
ag75
ag79
ag69
ag71
ag73
ag120
ag72
ag75
ag78
ag73
ag72
ag78
ag79
ag69
ag71
ag73
ag416
ag80
asg81
VThe cock, too, who had been awakened by the noise, and had become lively, cried down from the beam, cock-a-doodle-doo.
p2800
sba(i__main__
Sentence
p2801
(dp2802
g17
I63
sg18
(lp2803
S'Then'
p2804
aS'the'
p2805
aS'robber'
p2806
aS'ran'
p2807
aS'back'
p2808
aS'as'
p2809
aS'fast'
p2810
aS'as'
p2811
aS'he'
p2812
aS'could'
p2813
aS'to'
p2814
aS'his'
p2815
aS'captain'
p2816
aS','
p2817
aS'and'
p2818
aS'said'
p2819
aS','
p2820
aS'ah'
p2821
aS','
p2822
aS'there'
p2823
aS'is'
p2824
aS'a'
p2825
aS'horrible'
p2826
aS'witch'
p2827
aS'sitting'
p2828
aS'in'
p2829
aS'the'
p2830
aS'house'
p2831
aS','
p2832
aS'who'
p2833
aS'spat'
p2834
aS'on'
p2835
aS'me'
p2836
aS'and'
p2837
aS'scratched'
p2838
aS'my'
p2839
aS'face'
p2840
aS'with'
p2841
aS'her'
p2842
aS'long'
p2843
aS'claws'
p2844
aS'.'
p2845
asg42
(lp2846
VThen
p2847
aVthe
p2848
aVrobber
p2849
ag199
aVback
p2850
ag48
aVfast
p2851
ag48
aVhe
p2852
aVcould
p2853
aVto
p2854
aVhis
p2855
aVcaptain
p2856
ag50
aVand
p2857
ag446
ag50
aVah
p2858
ag50
aVthere
p2859
ag647
ag48
aVhorrible
p2860
aVwitch
p2861
ag570
aVin
p2862
aVthe
p2863
aVhouse
p2864
ag50
aVwho
p2865
aVspat
p2866
aVon
p2867
aVme
p2868
aVand
p2869
aVscratch
p2870
aVmy
p2871
aVface
p2872
aVwith
p2873
aVher
p2874
aVlong
p2875
aVclaw
p2876
ag63
asg64
(lp2877
g66
ag66
ag66
ag66
ag66
ag66
ag66
ag66
ag66
ag66
ag66
ag66
ag66
ag66
ag66
ag66
ag66
ag66
ag66
ag66
ag66
ag66
ag66
ag66
ag66
ag66
ag66
ag66
ag66
ag66
ag66
ag66
ag66
ag66
ag66
ag66
ag66
ag66
ag66
ag66
ag66
ag66
asg67
(lp2878
g78
ag69
ag71
ag72
ag78
ag79
ag70
ag79
ag123
ag161
ag77
ag121
ag71
ag73
ag120
ag72
ag73
ag71
ag73
ag239
ag619
ag69
ag70
ag71
ag122
ag79
ag69
ag71
ag73
ag295
ag78
ag79
ag123
ag120
ag72
ag121
ag71
ag79
ag121
ag70
ag76
ag80
asg81
VThen the robber ran back as fast as he could to his captain, and said, ah, there is a horrible witch sitting in the house, who spat on me and scratched my face with her long claws.
p2879
sba(i__main__
Sentence
p2880
(dp2881
g17
I64
sg18
(lp2882
S'And'
p2883
aS'by'
p2884
aS'the'
p2885
aS'door'
p2886
aS'stands'
p2887
aS'a'
p2888
aS'man'
p2889
aS'with'
p2890
aS'a'
p2891
aS'knife'
p2892
aS','
p2893
aS'who'
p2894
aS'stabbed'
p2895
aS'me'
p2896
aS'in'
p2897
aS'the'
p2898
aS'leg'
p2899
aS'.'
p2900
asg42
(lp2901
VAnd
p2902
aVby
p2903
aVthe
p2904
aVdoor
p2905
aVstand
p2906
ag48
aVman
p2907
aVwith
p2908
ag48
aVknife
p2909
ag50
aVwho
p2910
aVstab
p2911
aVme
p2912
aVin
p2913
aVthe
p2914
aVleg
p2915
ag63
asg64
(lp2916
g66
ag66
ag66
ag66
ag66
ag66
ag66
ag66
ag66
ag66
ag66
ag66
ag66
ag66
ag66
ag66
ag66
ag66
asg67
(lp2917
g120
ag79
ag69
ag71
ag619
ag69
ag71
ag79
ag69
ag71
ag73
ag295
ag75
ag123
ag79
ag69
ag71
ag80
asg81
VAnd by the door stands a man with a knife, who stabbed me in the leg.
p2918
sba(i__main__
Sentence
p2919
(dp2920
g17
I65
sg18
(lp2921
S'And'
p2922
aS'in'
p2923
aS'the'
p2924
aS'yard'
p2925
aS'there'
p2926
aS'lies'
p2927
aS'a'
p2928
aS'black'
p2929
aS'monster'
p2930
aS','
p2931
aS'who'
p2932
aS'beat'
p2933
aS'me'
p2934
aS'with'
p2935
aS'a'
p2936
aS'wooden'
p2937
aS'club'
p2938
aS'.'
p2939
asg42
(lp2940
VAnd
p2941
aVin
p2942
aVthe
p2943
aVyard
p2944
aVthere
p2945
aVlie
p2946
ag48
aVblack
p2947
aVmonster
p2948
ag50
aVwho
p2949
aVbeat
p2950
aVme
p2951
aVwith
p2952
ag48
aVwooden
p2953
aVclub
p2954
ag63
asg64
(lp2955
g66
ag66
ag66
ag66
ag66
ag66
ag66
ag66
ag66
ag66
ag66
ag66
ag66
ag66
ag66
ag66
ag66
ag66
asg67
(lp2956
g120
ag79
ag69
ag71
ag78
ag619
ag69
ag70
ag71
ag73
ag295
ag78
ag123
ag79
ag69
ag70
ag71
ag80
asg81
VAnd in the yard there lies a black monster, who beat me with a wooden club.
p2957
sba(i__main__
Sentence
p2958
(dp2959
g17
I66
sg18
(lp2960
S'And'
p2961
aS'above'
p2962
aS','
p2963
aS'upon'
p2964
aS'the'
p2965
aS'roof'
p2966
aS','
p2967
aS'sits'
p2968
aS'the'
p2969
aS'judge'
p2970
aS','
p2971
aS'who'
p2972
aS'called'
p2973
aS'out'
p2974
aS','
p2975
aS'bring'
p2976
aS'the'
p2977
aS'rogue'
p2978
aS'here'
p2979
aS'to'
p2980
aS'me'
p2981
aS'.'
p2982
asg42
(lp2983
VAnd
p2984
aVabove
p2985
ag50
aVupon
p2986
aVthe
p2987
aVroof
p2988
ag50
aVsit
p2989
aVthe
p2990
aVjudge
p2991
ag50
aVwho
p2992
aVcall
p2993
aVout
p2994
ag50
aVbring
p2995
aVthe
p2996
aVrogue
p2997
aVhere
p2998
aVto
p2999
aVme
p3000
ag63
asg64
(lp3001
g66
ag66
ag66
ag66
ag66
ag66
ag66
ag66
ag66
ag66
ag66
ag66
ag66
ag66
ag66
ag66
ag66
ag66
ag66
ag66
ag66
ag66
asg67
(lp3002
g120
ag79
ag73
ag79
ag69
ag71
ag73
ag619
ag69
ag71
ag73
ag295
ag75
ag211
ag73
ag122
ag69
ag71
ag78
ag77
ag123
ag80
asg81
VAnd above, upon the roof, sits the judge, who called out, bring the rogue here to me.
p3003
sba(i__main__
Sentence
p3004
(dp3005
g17
I67
sg18
(lp3006
S'So'
p3007
aS'I'
p3008
aS'got'
p3009
aS'away'
p3010
aS'as'
p3011
aS'well'
p3012
aS'as'
p3013
aS'I'
p3014
aS'could'
p3015
aS'.'
p3016
asg42
(lp3017
VSo
p3018
ag232
aVget
p3019
aVaway
p3020
ag48
aVwell
p3021
ag48
ag232
aVcould
p3022
ag63
asg64
(lp3023
g66
ag66
ag66
ag66
ag66
ag66
ag66
ag66
ag66
ag66
asg67
(lp3024
g79
ag123
ag72
ag78
ag79
ag78
ag79
ag123
ag161
ag80
asg81
VSo I got away as well as I could.
p3025
sba(i__main__
Sentence
p3026
(dp3027
g17
I68
sg18
(lp3028
S'After'
p3029
aS'this'
p3030
aS'the'
p3031
aS'robbers'
p3032
aS'never'
p3033
aS'again'
p3034
aS'dared'
p3035
aS'enter'
p3036
aS'the'
p3037
aS'house'
p3038
aS'.'
p3039
asg42
(lp3040
VAfter
p3041
aVthis
p3042
aVthe
p3043
aVrobber
p3044
aVnever
p3045
aVagain
p3046
aVdare
p3047
aVenter
p3048
aVthe
p3049
aVhouse
p3050
ag63
asg64
(lp3051
g66
ag66
ag66
ag66
ag66
ag66
ag66
ag66
ag66
ag66
ag66
asg67
(lp3052
g79
ag69
ag69
ag76
ag78
ag78
ag75
ag71
ag69
ag71
ag80
asg81
VAfter this the robbers never again dared enter the house.
p3053
sba(i__main__
Sentence
p3054
(dp3055
g17
I69
sg18
(lp3056
S'But'
p3057
aS'it'
p3058
aS'suited'
p3059
aS'the'
p3060
aS'four'
p3061
aS'musicians'
p3062
aS'of'
p3063
aS'bremen'
p3064
aS'so'
p3065
aS'well'
p3066
aS'that'
p3067
aS'they'
p3068
aS'did'
p3069
aS'not'
p3070
aS'care'
p3071
aS'to'
p3072
aS'leave'
p3073
aS'it'
p3074
aS'any'
p3075
aS'more'
p3076
aS'.'
p3077
asg42
(lp3078
VBut
p3079
aVit
p3080
aVsuit
p3081
aVthe
p3082
aVfour
p3083
aVmusician
p3084
aVof
p3085
aVbremen
p3086
aVso
p3087
aVwell
p3088
aVthat
p3089
aVthey
p3090
ag2636
aVnot
p3091
aVcare
p3092
aVto
p3093
aVleave
p3094
aVit
p3095
aVany
p3096
aVmore
p3097
ag63
asg64
(lp3098
g66
ag66
ag66
ag66
ag66
ag66
ag66
ag66
ag66
ag66
ag66
ag66
ag66
ag66
ag66
ag66
ag66
ag66
ag66
ag66
ag66
asg67
(lp3099
g120
ag123
ag72
ag69
ag294
ag76
ag79
ag76
ag79
ag78
ag79
ag123
ag72
ag78
ag159
ag77
ag159
ag123
ag69
ag124
ag80
asg81
VBut it suited the four musicians of bremen so well that they did not care to leave it any more.
p3100
sba(i__main__
Sentence
p3101
(dp3102
g17
I70
sg18
(lp3103
S'And'
p3104
aS'the'
p3105
aS'mouth'
p3106
aS'of'
p3107
aS'him'
p3108
aS'who'
p3109
aS'last'
p3110
aS'told'
p3111
aS'this'
p3112
aS'story'
p3113
aS'is'
p3114
aS'still'
p3115
aS'warm'
p3116
aS'.'
p3117
asg42
(lp3118
VAnd
p3119
aVthe
p3120
aVmouth
p3121
aVof
p3122
aVhim
p3123
aVwho
p3124
aVlast
p3125
ag1062
aVthis
p3126
aVstory
p3127
ag647
aVstill
p3128
aVwarm
p3129
ag63
asg64
(lp3130
g66
ag66
ag66
ag66
ag66
ag66
ag66
ag66
ag66
ag66
ag66
ag66
ag66
ag66
asg67
(lp3131
g120
ag69
ag71
ag79
ag123
ag295
ag70
ag72
ag69
ag71
ag619
ag78
ag71
ag80
asg81
VAnd the mouth of him who last told this story is still warm. 
p3132
sbasbsS'summary'
p3133
g0
(g7
g2
Ntp3134
Rp3135
(dp3136
g11
S'A group of four animals decide to go the Bremen and be town musicians. On their way, they scare a band of robbers out of their house. The animals decide they like the house and live there the rest of their lives. '
p3137
sg13
(lp3138
(i__main__
Sentence
p3139
(dp3140
g17
I0
sg18
(lp3141
S'A'
p3142
aS'group'
p3143
aS'of'
p3144
aS'four'
p3145
aS'animals'
p3146
aS'decide'
p3147
aS'to'
p3148
aS'go'
p3149
aS'the'
p3150
aS'Bremen'
p3151
aS'and'
p3152
aS'be'
p3153
aS'town'
p3154
aS'musicians'
p3155
aS'.'
p3156
asg42
(lp3157
g44
aVgroup
p3158
aVof
p3159
aVfour
p3160
aVanimal
p3161
aVdecide
p3162
aVto
p3163
aVgo
p3164
aVthe
p3165
aVBremen
p3166
aVand
p3167
aVbe
p3168
aVtown
p3169
aVmusician
p3170
ag63
asg64
(lp3171
g66
ag66
ag66
ag66
ag66
ag66
ag66
ag66
ag66
aVLOCATION
p3172
ag66
ag66
ag66
ag66
ag66
asg67
(lp3173
g69
ag71
ag79
ag294
ag76
ag330
ag77
ag159
ag69
ag416
ag120
ag159
ag75
ag76
ag80
asg81
VA group of four animals decide to go the Bremen and be town musicians.
p3174
sba(i__main__
Sentence
p3175
(dp3176
g17
I1
sg18
(lp3177
S'On'
p3178
aS'their'
p3179
aS'way'
p3180
aS','
p3181
aS'they'
p3182
aS'scare'
p3183
aS'a'
p3184
aS'band'
p3185
aS'of'
p3186
aS'robbers'
p3187
aS'out'
p3188
aS'of'
p3189
aS'their'
p3190
aS'house'
p3191
aS'.'
p3192
asg42
(lp3193
VOn
p3194
aVtheir
p3195
aVway
p3196
ag50
aVthey
p3197
aVscare
p3198
ag48
aVband
p3199
aVof
p3200
aVrobber
p3201
aVout
p3202
aVof
p3203
aVtheir
p3204
aVhouse
p3205
ag63
asg64
(lp3206
g66
ag66
ag66
ag66
ag66
ag66
ag66
ag66
ag66
ag66
ag66
ag66
ag66
ag66
ag66
asg67
(lp3207
g79
ag121
ag71
ag73
ag123
ag330
ag69
ag71
ag79
ag76
ag79
ag79
ag121
ag71
ag80
asg81
VOn their way, they scare a band of robbers out of their house.
p3208
sba(i__main__
Sentence
p3209
(dp3210
g17
I2
sg18
(lp3211
S'The'
p3212
aS'animals'
p3213
aS'decide'
p3214
aS'they'
p3215
aS'like'
p3216
aS'the'
p3217
aS'house'
p3218
aS'and'
p3219
aS'live'
p3220
aS'there'
p3221
aS'the'
p3222
aS'rest'
p3223
aS'of'
p3224
aS'their'
p3225
aS'lives'
p3226
aS'.'
p3227
asg42
(lp3228
VThe
p3229
aVanimal
p3230
aVdecide
p3231
aVthey
p3232
aVlike
p3233
aVthe
p3234
aVhouse
p3235
aVand
p3236
aVlive
p3237
aVthere
p3238
aVthe
p3239
aVrest
p3240
aVof
p3241
aVtheir
p3242
aVlife
p3243
ag63
asg64
(lp3244
g66
ag66
ag66
ag66
ag66
ag66
ag66
ag66
ag66
ag66
ag66
ag66
ag66
ag66
ag66
ag66
asg67
(lp3245
g69
ag76
ag330
ag123
ag330
ag69
ag71
ag120
ag70
ag239
ag69
ag71
ag79
ag121
ag76
ag80
asg81
VThe animals decide they like the house and live there the rest of their lives. 
p3246
sbasbsS'name'
p3247
S'The Bremen Town-Musicians'
p3248
sS'summaries'
p3249
(lp3250
g3135
asb.