ccopy_reg
_reconstructor
p0
(c__main__
Story
p1
c__builtin__
object
p2
Ntp3
Rp4
(dp5
S'text'
p6
g0
(c__main__
Document
p7
g2
Ntp8
Rp9
(dp10
S'_Document__initialContent'
p11
S'Three women were transformed into flowers which grew in\nthe field, but one of them was allowed to be in her own home at\nnight.  Then once when day was drawing near, and she was forced to\ngo back to her companions in the field and become a flower again,\nshe said to her husband, if you will come this afternoon and\ngather me, I shall be set free and henceforth stay with you.  And\nhe did so.  Now the question is, how did her husband know her, for\nthe flowers were exactly alike, and without any difference.\nAnswer - as she was at her home during the night and not in the\nfield, no dew fell on her as it did on the others, and by this\nher husband knew her.\n'
p12
sS'sentences'
p13
(lp14
(i__main__
Sentence
p15
(dp16
S'index'
p17
I0
sS'words'
p18
(lp19
S'Three'
p20
aS'women'
p21
aS'were'
p22
aS'transformed'
p23
aS'into'
p24
aS'flowers'
p25
aS'which'
p26
aS'grew'
p27
aS'in'
p28
aS'the'
p29
aS'field'
p30
aS','
p31
aS'but'
p32
aS'one'
p33
aS'of'
p34
aS'them'
p35
aS'was'
p36
aS'allowed'
p37
aS'to'
p38
aS'be'
p39
aS'in'
p40
aS'her'
p41
aS'own'
p42
aS'home'
p43
aS'at'
p44
aS'night'
p45
aS'.'
p46
asS'lemmas'
p47
(lp48
VThree
p49
aVwoman
p50
aVbe
p51
aVtransform
p52
aVinto
p53
aVflower
p54
aVwhich
p55
aVgrow
p56
aVin
p57
aVthe
p58
aVfield
p59
aV,
p60
aVbut
p61
aVone
p62
aVof
p63
aVthem
p64
aVbe
p65
aVallow
p66
aVto
p67
aVbe
p68
aVin
p69
aVher
p70
aVown
p71
aVhome
p72
aVat
p73
aVnight
p74
aV.
p75
asS'nerTags'
p76
(lp77
VO
p78
ag78
ag78
ag78
ag78
ag78
ag78
ag78
ag78
ag78
ag78
ag78
ag78
ag78
ag78
ag78
ag78
ag78
ag78
ag78
ag78
ag78
ag78
ag78
ag78
ag78
ag78
asS'posTags'
p79
(lp80
S'CD'
p81
aS'NNS'
p82
aS'VBD'
p83
aS'VBN'
p84
aS'IN'
p85
ag82
aS'WDT'
p86
ag83
ag85
aS'DT'
p87
aS'NN'
p88
aS','
p89
aS'CC'
p90
ag81
ag85
aS'PRP'
p91
ag83
ag84
aS'TO'
p92
aS'VB'
p93
ag85
aS'PRP$'
p94
aS'JJ'
p95
ag88
ag85
ag88
aS'.'
p96
asS'_Sentence__initialContent'
p97
VThree women were transformed into flowers which grew in the field, but one of them was allowed to be in her own home at night.
p98
sba(i__main__
Sentence
p99
(dp100
g17
I1
sg18
(lp101
S'Then'
p102
aS'once'
p103
aS'when'
p104
aS'day'
p105
aS'was'
p106
aS'drawing'
p107
aS'near'
p108
aS','
p109
aS'and'
p110
aS'she'
p111
aS'was'
p112
aS'forced'
p113
aS'to'
p114
aS'go'
p115
aS'back'
p116
aS'to'
p117
aS'her'
p118
aS'companions'
p119
aS'in'
p120
aS'the'
p121
aS'field'
p122
aS'and'
p123
aS'become'
p124
aS'a'
p125
aS'flower'
p126
aS'again'
p127
aS','
p128
aS'she'
p129
aS'said'
p130
aS'to'
p131
aS'her'
p132
aS'husband'
p133
aS','
p134
aS'if'
p135
aS'you'
p136
aS'will'
p137
aS'come'
p138
aS'this'
p139
aS'afternoon'
p140
aS'and'
p141
aS'gather'
p142
aS'me'
p143
aS','
p144
aS'I'
p145
aS'shall'
p146
aS'be'
p147
aS'set'
p148
aS'free'
p149
aS'and'
p150
aS'henceforth'
p151
aS'stay'
p152
aS'with'
p153
aS'you'
p154
aS'.'
p155
asg47
(lp156
VThen
p157
aVonce
p158
aVwhen
p159
aVday
p160
ag65
aVdraw
p161
aVnear
p162
ag60
aVand
p163
aVshe
p164
ag65
aVforce
p165
aVto
p166
aVgo
p167
aVback
p168
aVto
p169
aVher
p170
aVcompanion
p171
aVin
p172
aVthe
p173
aVfield
p174
aVand
p175
aVbecome
p176
aVa
p177
aVflower
p178
aVagain
p179
ag60
aVshe
p180
aVsay
p181
aVto
p182
aVher
p183
aVhusband
p184
ag60
aVif
p185
aVyou
p186
aVwill
p187
aVcome
p188
aVthis
p189
aVafternoon
p190
aVand
p191
aVgather
p192
aVme
p193
ag60
aVI
p194
aVshall
p195
aVbe
p196
aVset
p197
aVfree
p198
aVand
p199
aVhenceforth
p200
aVstay
p201
aVwith
p202
aVyou
p203
ag75
asg76
(lp204
g78
ag78
ag78
ag78
ag78
ag78
ag78
ag78
ag78
ag78
ag78
ag78
ag78
ag78
ag78
ag78
ag78
ag78
ag78
ag78
ag78
ag78
ag78
ag78
ag78
ag78
ag78
ag78
ag78
ag78
ag78
ag78
ag78
ag78
ag78
ag78
ag78
ag78
ag78
ag78
ag78
ag78
ag78
ag78
ag78
ag78
ag78
ag78
ag78
ag78
ag78
ag78
ag78
ag78
asg79
(lp205
S'RB'
p206
ag206
aS'WRB'
p207
ag88
ag83
aS'VBG'
p208
ag85
ag89
ag90
ag91
ag83
ag84
ag92
ag93
ag206
ag92
ag94
ag82
ag85
ag87
ag88
ag90
ag93
ag87
ag88
ag206
ag89
ag91
ag83
ag92
ag94
ag88
ag89
ag85
ag91
aS'MD'
p209
ag93
ag87
ag88
ag90
ag88
ag91
ag89
ag91
ag209
ag93
ag84
ag95
ag90
ag95
ag88
ag85
ag91
ag96
asg97
VThen once when day was drawing near, and she was forced to go back to her companions in the field and become a flower again, she said to her husband, if you will come this afternoon and gather me, I shall be set free and henceforth stay with you.
p210
sba(i__main__
Sentence
p211
(dp212
g17
I2
sg18
(lp213
S'And'
p214
aS'he'
p215
aS'did'
p216
aS'so'
p217
aS'.'
p218
asg47
(lp219
VAnd
p220
aVhe
p221
aVdo
p222
aVso
p223
ag75
asg76
(lp224
g78
ag78
ag78
ag78
ag78
asg79
(lp225
g90
ag91
ag83
ag206
ag96
asg97
VAnd he did so.
p226
sba(i__main__
Sentence
p227
(dp228
g17
I3
sg18
(lp229
S'Now'
p230
aS'the'
p231
aS'question'
p232
aS'is'
p233
aS','
p234
aS'how'
p235
aS'did'
p236
aS'her'
p237
aS'husband'
p238
aS'know'
p239
aS'her'
p240
aS','
p241
aS'for'
p242
aS'the'
p243
aS'flowers'
p244
aS'were'
p245
aS'exactly'
p246
aS'alike'
p247
aS','
p248
aS'and'
p249
aS'without'
p250
aS'any'
p251
aS'difference'
p252
aS'.'
p253
asg47
(lp254
VNow
p255
aVthe
p256
aVquestion
p257
aVbe
p258
ag60
aVhow
p259
ag222
aVher
p260
aVhusband
p261
aVknow
p262
aVher
p263
ag60
aVfor
p264
aVthe
p265
aVflower
p266
ag51
aVexactly
p267
aValike
p268
ag60
aVand
p269
aVwithout
p270
aVany
p271
aVdifference
p272
ag75
asg76
(lp273
g78
ag78
ag78
ag78
ag78
ag78
ag78
ag78
ag78
ag78
ag78
ag78
ag78
ag78
ag78
ag78
ag78
ag78
ag78
ag78
ag78
ag78
ag78
ag78
asg79
(lp274
g206
ag87
ag88
aS'VBZ'
p275
ag89
ag207
ag83
ag91
ag88
aS'VBP'
p276
ag91
ag89
ag85
ag87
ag82
ag83
ag206
ag206
ag89
ag90
ag85
ag87
ag88
ag96
asg97
VNow the question is, how did her husband know her, for the flowers were exactly alike, and without any difference.
p277
sba(i__main__
Sentence
p278
(dp279
g17
I4
sg18
(lp280
S'Answer'
p281
aS'-'
p282
aS'as'
p283
aS'she'
p284
aS'was'
p285
aS'at'
p286
aS'her'
p287
aS'home'
p288
aS'during'
p289
aS'the'
p290
aS'night'
p291
aS'and'
p292
aS'not'
p293
aS'in'
p294
aS'the'
p295
aS'field'
p296
aS','
p297
aS'no'
p298
aS'dew'
p299
aS'fell'
p300
aS'on'
p301
aS'her'
p302
aS'as'
p303
aS'it'
p304
aS'did'
p305
aS'on'
p306
aS'the'
p307
aS'others'
p308
aS','
p309
aS'and'
p310
aS'by'
p311
aS'this'
p312
aS'her'
p313
aS'husband'
p314
aS'knew'
p315
aS'her'
p316
aS'.'
p317
asg47
(lp318
VAnswer
p319
aV-
p320
ag177
aVshe
p321
ag65
aVat
p322
aVher
p323
aVhome
p324
aVduring
p325
aVthe
p326
aVnight
p327
aVand
p328
aVnot
p329
aVin
p330
aVthe
p331
aVfield
p332
ag60
aVno
p333
aVdew
p334
aVfell
p335
aVon
p336
aVher
p337
ag177
aVit
p338
ag222
aVon
p339
aVthe
p340
aVothers
p341
ag60
aVand
p342
aVby
p343
aVthis
p344
aVher
p345
aVhusband
p346
aVknew
p347
aVher
p348
ag75
asg76
(lp349
g78
ag78
ag78
ag78
ag78
ag78
ag78
ag78
ag78
ag78
ag78
ag78
ag78
ag78
ag78
ag78
ag78
ag78
ag78
ag78
ag78
ag78
ag78
ag78
ag78
ag78
ag78
ag78
ag78
ag78
ag78
ag78
ag78
ag78
ag78
ag78
ag78
asg79
(lp350
S'NNP'
p351
aS':'
p352
ag85
ag91
ag83
ag85
ag94
ag88
ag85
ag87
ag88
ag90
ag206
ag85
ag87
ag88
ag89
ag87
ag88
ag83
ag85
ag94
ag85
ag91
ag83
ag85
ag87
ag82
ag89
ag90
ag85
ag87
ag91
ag276
ag95
ag94
ag96
asg97
VAnswer - as she was at her home during the night and not in the field, no dew fell on her as it did on the others, and by this her husband knew her. 
p353
sbasbsS'summary'
p354
g0
(g7
g2
Ntp355
Rp356
(dp357
g11
S'A woman is turned into a flower in the daytime but allowed to be home at night. She asks her husband to go out in the morning and pick her so she can stay at home always. How did the husband know which flower to pick? Because she was at home at night, she was the one with no dew on her.'
p358
sg13
(lp359
(i__main__
Sentence
p360
(dp361
g17
I0
sg18
(lp362
S'A'
p363
aS'woman'
p364
aS'is'
p365
aS'turned'
p366
aS'into'
p367
aS'a'
p368
aS'flower'
p369
aS'in'
p370
aS'the'
p371
aS'daytime'
p372
aS'but'
p373
aS'allowed'
p374
aS'to'
p375
aS'be'
p376
aS'home'
p377
aS'at'
p378
aS'night'
p379
aS'.'
p380
asg47
(lp381
VA
p382
aVwoman
p383
ag258
aVturn
p384
aVinto
p385
ag177
aVflower
p386
aVin
p387
aVthe
p388
aVdaytime
p389
aVbut
p390
aVallow
p391
aVto
p392
aVbe
p393
aVhome
p394
aVat
p395
aVnight
p396
ag75
asg76
(lp397
g78
ag78
ag78
ag78
ag78
ag78
ag78
ag78
ag78
ag78
ag78
ag78
ag78
ag78
ag78
ag78
ag78
ag78
asg79
(lp398
g87
ag88
ag275
ag84
ag85
ag87
ag88
ag85
ag87
ag88
ag90
ag83
ag92
ag93
ag206
ag85
ag88
ag96
asg97
VA woman is turned into a flower in the daytime but allowed to be home at night.
p399
sba(i__main__
Sentence
p400
(dp401
g17
I1
sg18
(lp402
S'She'
p403
aS'asks'
p404
aS'her'
p405
aS'husband'
p406
aS'to'
p407
aS'go'
p408
aS'out'
p409
aS'in'
p410
aS'the'
p411
aS'morning'
p412
aS'and'
p413
aS'pick'
p414
aS'her'
p415
aS'so'
p416
aS'she'
p417
aS'can'
p418
aS'stay'
p419
aS'at'
p420
aS'home'
p421
aS'always'
p422
aS'.'
p423
asg47
(lp424
VShe
p425
aVask
p426
aVher
p427
aVhusband
p428
aVto
p429
aVgo
p430
aVout
p431
aVin
p432
aVthe
p433
aVmorning
p434
aVand
p435
aVpick
p436
aVher
p437
aVso
p438
aVshe
p439
aVcan
p440
aVstay
p441
aVat
p442
aVhome
p443
aValways
p444
ag75
asg76
(lp445
g78
ag78
ag78
ag78
ag78
ag78
ag78
ag78
ag78
ag78
ag78
ag78
ag78
ag78
ag78
ag78
ag78
ag78
ag78
ag78
ag78
asg79
(lp446
g91
ag275
ag94
ag88
ag92
ag93
aS'RP'
p447
ag85
ag87
ag88
ag90
ag88
ag94
ag206
ag91
ag209
ag93
ag85
ag88
ag206
ag96
asg97
VShe asks her husband to go out in the morning and pick her so she can stay at home always.
p448
sba(i__main__
Sentence
p449
(dp450
g17
I2
sg18
(lp451
S'How'
p452
aS'did'
p453
aS'the'
p454
aS'husband'
p455
aS'know'
p456
aS'which'
p457
aS'flower'
p458
aS'to'
p459
aS'pick'
p460
aS'?'
p461
asg47
(lp462
VHow
p463
ag222
aVthe
p464
aVhusband
p465
aVknow
p466
aVwhich
p467
aVflower
p468
aVto
p469
aVpick
p470
aV?
p471
asg76
(lp472
g78
ag78
ag78
ag78
ag78
ag78
ag78
ag78
ag78
ag78
asg79
(lp473
g207
ag83
ag87
ag88
ag88
ag86
aS'JJR'
p474
ag92
ag93
ag96
asg97
VHow did the husband know which flower to pick?
p475
sba(i__main__
Sentence
p476
(dp477
g17
I3
sg18
(lp478
S'Because'
p479
aS'she'
p480
aS'was'
p481
aS'at'
p482
aS'home'
p483
aS'at'
p484
aS'night'
p485
aS','
p486
aS'she'
p487
aS'was'
p488
aS'the'
p489
aS'one'
p490
aS'with'
p491
aS'no'
p492
aS'dew'
p493
aS'on'
p494
aS'her'
p495
aS'.'
p496
asg47
(lp497
VBecause
p498
aVshe
p499
ag65
aVat
p500
aVhome
p501
aVat
p502
aVnight
p503
ag60
aVshe
p504
ag65
aVthe
p505
aVone
p506
aVwith
p507
aVno
p508
aVdew
p509
aVon
p510
aVher
p511
ag75
asg76
(lp512
g78
ag78
ag78
ag78
ag78
ag78
ag78
ag78
ag78
ag78
ag78
ag78
ag78
ag78
ag78
ag78
ag78
ag78
asg79
(lp513
g85
ag91
ag83
ag85
ag88
ag85
ag88
ag89
ag91
ag83
ag87
ag81
ag85
ag87
ag88
ag85
ag94
ag96
asg97
VBecause she was at home at night, she was the one with no dew on her.
p514
sbasbsS'name'
p515
S'A Riddling Tale'
p516
sS'summaries'
p517
(lp518
g356
asb.