ccopy_reg
_reconstructor
p0
(c__main__
Story
p1
c__builtin__
object
p2
Ntp3
Rp4
(dp5
S'text'
p6
g0
(c__main__
Document
p7
g2
Ntp8
Rp9
(dp10
S'_Document__initialContent'
p11
S'There were once upon a time two sisters, one of whom had no\nchildren and was rich, and the other had five and was a\nwidow, and so poor that she no longer had food enough to satisfy\nherself and her children.  In her need, therefore, she went to\nher sister, and said, my children and I are suffering the greatest\nhunger.  You are rich, give me a mouthful of bread.  The very\nrich sister was as hard as a stone, and said, I myself have nothing\nin the house, and drove away the poor creature with harsh words.\nAfter some time the husband of the rich sister came home, and was\njust going to cut himself a piece of bread, but when he made the\nfirst cut into the loaf, out flowed red blood.  When the woman\nsaw that she was terrified and told him what had occurred.  He\nhurried away to help the widow and her children, but when he\nentered her room, he found her praying.  She had her two youngest\nchildren in her arms, and the three eldest were lying dead.  He\noffered her food, but she answered, for earthly food have we no\nlonger any desire.  God has already satisfied the hunger of three\nof us, and he will hearken to our supplications likewise.\nScarcely had she uttered these words than the two little ones\ndrew their last breath, whereupon her heart broke, and she sank\ndown dead.\n'
p12
sS'sentences'
p13
(lp14
(i__main__
Sentence
p15
(dp16
S'index'
p17
I0
sS'words'
p18
(lp19
S'There'
p20
aS'were'
p21
aS'once'
p22
aS'upon'
p23
aS'a'
p24
aS'time'
p25
aS'two'
p26
aS'sisters'
p27
aS','
p28
aS'one'
p29
aS'of'
p30
aS'whom'
p31
aS'had'
p32
aS'no'
p33
aS'children'
p34
aS'and'
p35
aS'was'
p36
aS'rich'
p37
aS','
p38
aS'and'
p39
aS'the'
p40
aS'other'
p41
aS'had'
p42
aS'five'
p43
aS'and'
p44
aS'was'
p45
aS'a'
p46
aS'widow'
p47
aS','
p48
aS'and'
p49
aS'so'
p50
aS'poor'
p51
aS'that'
p52
aS'she'
p53
aS'no'
p54
aS'longer'
p55
aS'had'
p56
aS'food'
p57
aS'enough'
p58
aS'to'
p59
aS'satisfy'
p60
aS'herself'
p61
aS'and'
p62
aS'her'
p63
aS'children'
p64
aS'.'
p65
asS'lemmas'
p66
(lp67
VThere
p68
aVbe
p69
aVonce
p70
aVupon
p71
aVa
p72
aVtime
p73
aVtwo
p74
aVsister
p75
aV,
p76
aVone
p77
aVof
p78
aVwhom
p79
aVhave
p80
aVno
p81
aVchild
p82
aVand
p83
aVbe
p84
aVrich
p85
ag76
aVand
p86
aVthe
p87
aVother
p88
ag80
aVfive
p89
aVand
p90
ag84
ag72
aVwidow
p91
ag76
aVand
p92
aVso
p93
aVpoor
p94
aVthat
p95
aVshe
p96
aVno
p97
aVlonger
p98
ag80
aVfood
p99
aVenough
p100
aVto
p101
aVsatisfy
p102
aVherself
p103
aVand
p104
aVher
p105
ag82
aV.
p106
asS'nerTags'
p107
(lp108
VO
p109
ag109
ag109
ag109
ag109
ag109
ag109
ag109
ag109
ag109
ag109
ag109
ag109
ag109
ag109
ag109
ag109
ag109
ag109
ag109
ag109
ag109
ag109
ag109
ag109
ag109
ag109
ag109
ag109
ag109
ag109
ag109
ag109
ag109
ag109
ag109
ag109
ag109
ag109
ag109
ag109
ag109
ag109
ag109
ag109
ag109
asS'posTags'
p110
(lp111
S'EX'
p112
aS'VBD'
p113
aS'RB'
p114
aS'IN'
p115
aS'DT'
p116
aS'NN'
p117
aS'CD'
p118
aS'NNS'
p119
aS','
p120
ag118
ag115
aS'WP'
p121
ag113
ag116
ag119
aS'CC'
p122
ag113
aS'JJ'
p123
ag120
ag122
ag116
ag123
ag113
ag118
ag122
ag113
ag116
ag117
ag120
ag122
ag114
ag123
ag115
aS'PRP'
p124
ag116
ag117
ag113
ag117
ag114
aS'TO'
p125
aS'VB'
p126
ag124
ag122
aS'PRP$'
p127
ag119
aS'.'
p128
asS'_Sentence__initialContent'
p129
VThere were once upon a time two sisters, one of whom had no children and was rich, and the other had five and was a widow, and so poor that she no longer had food enough to satisfy herself and her children.
p130
sba(i__main__
Sentence
p131
(dp132
g17
I1
sg18
(lp133
S'In'
p134
aS'her'
p135
aS'need'
p136
aS','
p137
aS'therefore'
p138
aS','
p139
aS'she'
p140
aS'went'
p141
aS'to'
p142
aS'her'
p143
aS'sister'
p144
aS','
p145
aS'and'
p146
aS'said'
p147
aS','
p148
aS'my'
p149
aS'children'
p150
aS'and'
p151
aS'I'
p152
aS'are'
p153
aS'suffering'
p154
aS'the'
p155
aS'greatest'
p156
aS'hunger'
p157
aS'.'
p158
asg66
(lp159
VIn
p160
aVher
p161
aVneed
p162
ag76
aVtherefore
p163
ag76
aVshe
p164
aVgo
p165
aVto
p166
aVher
p167
aVsister
p168
ag76
aVand
p169
aVsay
p170
ag76
aVmy
p171
ag82
aVand
p172
aVI
p173
aVbe
p174
aVsuffer
p175
aVthe
p176
aVgreat
p177
aVhunger
p178
ag106
asg107
(lp179
g109
ag109
ag109
ag109
ag109
ag109
ag109
ag109
ag109
ag109
ag109
ag109
ag109
ag109
ag109
ag109
ag109
ag109
ag109
ag109
ag109
ag109
ag109
ag109
ag109
asg110
(lp180
g115
ag127
ag117
ag120
ag114
ag120
ag124
ag113
ag125
ag127
ag117
ag120
ag122
ag113
ag120
ag127
ag119
ag122
ag124
aS'VBP'
p181
aS'VBG'
p182
ag116
aS'JJS'
p183
ag117
ag128
asg129
VIn her need, therefore, she went to her sister, and said, my children and I are suffering the greatest hunger.
p184
sba(i__main__
Sentence
p185
(dp186
g17
I2
sg18
(lp187
S'You'
p188
aS'are'
p189
aS'rich'
p190
aS','
p191
aS'give'
p192
aS'me'
p193
aS'a'
p194
aS'mouthful'
p195
aS'of'
p196
aS'bread'
p197
aS'.'
p198
asg66
(lp199
VYou
p200
ag174
aVrich
p201
ag76
aVgive
p202
aVme
p203
ag72
aVmouthful
p204
aVof
p205
aVbread
p206
ag106
asg107
(lp207
g109
ag109
ag109
ag109
ag109
ag109
ag109
ag109
ag109
ag109
ag109
asg110
(lp208
g124
ag181
ag123
ag120
ag123
ag124
ag116
ag123
ag115
ag117
ag128
asg129
VYou are rich, give me a mouthful of bread.
p209
sba(i__main__
Sentence
p210
(dp211
g17
I3
sg18
(lp212
S'The'
p213
aS'very'
p214
aS'rich'
p215
aS'sister'
p216
aS'was'
p217
aS'as'
p218
aS'hard'
p219
aS'as'
p220
aS'a'
p221
aS'stone'
p222
aS','
p223
aS'and'
p224
aS'said'
p225
aS','
p226
aS'I'
p227
aS'myself'
p228
aS'have'
p229
aS'nothing'
p230
aS'in'
p231
aS'the'
p232
aS'house'
p233
aS','
p234
aS'and'
p235
aS'drove'
p236
aS'away'
p237
aS'the'
p238
aS'poor'
p239
aS'creature'
p240
aS'with'
p241
aS'harsh'
p242
aS'words'
p243
aS'.'
p244
asg66
(lp245
VThe
p246
aVvery
p247
aVrich
p248
aVsister
p249
ag84
ag72
aVhard
p250
ag72
ag72
aVstone
p251
ag76
aVand
p252
ag170
ag76
ag173
aVmyself
p253
aVhave
p254
aVnothing
p255
aVin
p256
aVthe
p257
aVhouse
p258
ag76
aVand
p259
aVdrive
p260
aVaway
p261
aVthe
p262
aVpoor
p263
aVcreature
p264
aVwith
p265
aVharsh
p266
aVword
p267
ag106
asg107
(lp268
g109
ag109
ag109
ag109
ag109
ag109
ag109
ag109
ag109
ag109
ag109
ag109
ag109
ag109
ag109
ag109
ag109
ag109
ag109
ag109
ag109
ag109
ag109
ag109
ag109
ag109
ag109
ag109
ag109
ag109
ag109
ag109
asg110
(lp269
g116
ag123
ag117
ag117
ag113
ag115
ag123
ag115
ag116
ag117
ag120
ag122
ag113
ag120
ag124
ag124
ag181
ag117
ag115
ag116
ag117
ag120
ag122
ag113
ag114
ag116
ag123
ag117
ag115
ag123
ag119
ag128
asg129
VThe very rich sister was as hard as a stone, and said, I myself have nothing in the house, and drove away the poor creature with harsh words.
p270
sba(i__main__
Sentence
p271
(dp272
g17
I4
sg18
(lp273
S'After'
p274
aS'some'
p275
aS'time'
p276
aS'the'
p277
aS'husband'
p278
aS'of'
p279
aS'the'
p280
aS'rich'
p281
aS'sister'
p282
aS'came'
p283
aS'home'
p284
aS','
p285
aS'and'
p286
aS'was'
p287
aS'just'
p288
aS'going'
p289
aS'to'
p290
aS'cut'
p291
aS'himself'
p292
aS'a'
p293
aS'piece'
p294
aS'of'
p295
aS'bread'
p296
aS','
p297
aS'but'
p298
aS'when'
p299
aS'he'
p300
aS'made'
p301
aS'the'
p302
aS'first'
p303
aS'cut'
p304
aS'into'
p305
aS'the'
p306
aS'loaf'
p307
aS','
p308
aS'out'
p309
aS'flowed'
p310
aS'red'
p311
aS'blood'
p312
aS'.'
p313
asg66
(lp314
VAfter
p315
aVsome
p316
aVtime
p317
aVthe
p318
aVhusband
p319
aVof
p320
aVthe
p321
aVrich
p322
aVsister
p323
aVcome
p324
aVhome
p325
ag76
aVand
p326
ag84
aVjust
p327
aVgo
p328
aVto
p329
aVcut
p330
aVhimself
p331
ag72
aVpiece
p332
aVof
p333
aVbread
p334
ag76
aVbut
p335
aVwhen
p336
aVhe
p337
aVmake
p338
aVthe
p339
aVfirst
p340
aVcut
p341
aVinto
p342
aVthe
p343
aVloaf
p344
ag76
aVout
p345
aVflow
p346
aVred
p347
aVblood
p348
ag106
asg107
(lp349
g109
ag109
ag109
ag109
ag109
ag109
ag109
ag109
ag109
ag109
ag109
ag109
ag109
ag109
ag109
ag109
ag109
ag109
ag109
ag109
ag109
ag109
ag109
ag109
ag109
ag109
ag109
ag109
ag109
ag109
ag109
ag109
ag109
ag109
ag109
ag109
ag109
ag109
ag109
ag109
asg110
(lp350
g115
ag116
ag117
ag116
ag117
ag115
ag116
ag123
ag117
ag113
ag117
ag120
ag122
ag113
ag114
ag182
ag125
ag126
ag124
ag116
ag117
ag115
ag117
ag120
ag122
aS'WRB'
p351
ag124
ag113
ag116
ag123
ag117
ag115
ag116
ag117
ag120
ag115
aS'VBN'
p352
ag352
ag117
ag128
asg129
VAfter some time the husband of the rich sister came home, and was just going to cut himself a piece of bread, but when he made the first cut into the loaf, out flowed red blood.
p353
sba(i__main__
Sentence
p354
(dp355
g17
I5
sg18
(lp356
S'When'
p357
aS'the'
p358
aS'woman'
p359
aS'saw'
p360
aS'that'
p361
aS'she'
p362
aS'was'
p363
aS'terrified'
p364
aS'and'
p365
aS'told'
p366
aS'him'
p367
aS'what'
p368
aS'had'
p369
aS'occurred'
p370
aS'.'
p371
asg66
(lp372
VWhen
p373
aVthe
p374
aVwoman
p375
aVsaw
p376
aVthat
p377
aVshe
p378
ag84
aVterrify
p379
aVand
p380
aVtell
p381
aVhim
p382
aVwhat
p383
ag80
aVoccur
p384
ag106
asg107
(lp385
g109
ag109
ag109
ag109
ag109
ag109
ag109
ag109
ag109
ag109
ag109
ag109
ag109
ag109
ag109
asg110
(lp386
g351
ag116
ag117
ag113
ag115
ag124
ag113
ag352
ag122
ag113
ag124
ag121
ag113
ag352
ag128
asg129
VWhen the woman saw that she was terrified and told him what had occurred.
p387
sba(i__main__
Sentence
p388
(dp389
g17
I6
sg18
(lp390
S'He'
p391
aS'hurried'
p392
aS'away'
p393
aS'to'
p394
aS'help'
p395
aS'the'
p396
aS'widow'
p397
aS'and'
p398
aS'her'
p399
aS'children'
p400
aS','
p401
aS'but'
p402
aS'when'
p403
aS'he'
p404
aS'entered'
p405
aS'her'
p406
aS'room'
p407
aS','
p408
aS'he'
p409
aS'found'
p410
aS'her'
p411
aS'praying'
p412
aS'.'
p413
asg66
(lp414
VHe
p415
aVhurry
p416
aVaway
p417
aVto
p418
aVhelp
p419
aVthe
p420
aVwidow
p421
aVand
p422
aVher
p423
ag82
ag76
aVbut
p424
aVwhen
p425
aVhe
p426
aVenter
p427
aVher
p428
aVroom
p429
ag76
aVhe
p430
aVfind
p431
aVher
p432
aVpray
p433
ag106
asg107
(lp434
g109
ag109
ag109
ag109
ag109
ag109
ag109
ag109
ag109
ag109
ag109
ag109
ag109
ag109
ag109
ag109
ag109
ag109
ag109
ag109
ag109
ag109
ag109
asg110
(lp435
g124
ag113
ag114
ag125
ag126
ag116
ag117
ag122
ag127
ag119
ag120
ag122
ag351
ag124
ag113
ag124
ag181
ag120
ag124
ag113
ag124
ag182
ag128
asg129
VHe hurried away to help the widow and her children, but when he entered her room, he found her praying.
p436
sba(i__main__
Sentence
p437
(dp438
g17
I7
sg18
(lp439
S'She'
p440
aS'had'
p441
aS'her'
p442
aS'two'
p443
aS'youngest'
p444
aS'children'
p445
aS'in'
p446
aS'her'
p447
aS'arms'
p448
aS','
p449
aS'and'
p450
aS'the'
p451
aS'three'
p452
aS'eldest'
p453
aS'were'
p454
aS'lying'
p455
aS'dead'
p456
aS'.'
p457
asg66
(lp458
VShe
p459
ag80
aVher
p460
aVtwo
p461
aVyoung
p462
ag82
aVin
p463
aVher
p464
aVarm
p465
ag76
aVand
p466
aVthe
p467
aVthree
p468
aVeldest
p469
ag69
aVlie
p470
aVdead
p471
ag106
asg107
(lp472
g109
ag109
ag109
ag109
ag109
ag109
ag109
ag109
ag109
ag109
ag109
ag109
ag109
ag109
ag109
ag109
ag109
ag109
asg110
(lp473
g124
ag113
ag127
ag118
ag183
ag119
ag115
ag127
ag119
ag120
ag122
ag116
ag118
ag183
ag113
ag182
ag123
ag128
asg129
VShe had her two youngest children in her arms, and the three eldest were lying dead.
p474
sba(i__main__
Sentence
p475
(dp476
g17
I8
sg18
(lp477
S'He'
p478
aS'offered'
p479
aS'her'
p480
aS'food'
p481
aS','
p482
aS'but'
p483
aS'she'
p484
aS'answered'
p485
aS','
p486
aS'for'
p487
aS'earthly'
p488
aS'food'
p489
aS'have'
p490
aS'we'
p491
aS'no'
p492
aS'longer'
p493
aS'any'
p494
aS'desire'
p495
aS'.'
p496
asg66
(lp497
VHe
p498
aVoffer
p499
aVher
p500
aVfood
p501
ag76
aVbut
p502
aVshe
p503
aVanswer
p504
ag76
aVfor
p505
aVearthly
p506
aVfood
p507
aVhave
p508
aVwe
p509
aVno
p510
aVlonger
p511
aVany
p512
aVdesire
p513
ag106
asg107
(lp514
g109
ag109
ag109
ag109
ag109
ag109
ag109
ag109
ag109
ag109
ag109
ag109
ag109
ag109
ag109
ag109
ag109
ag109
ag109
asg110
(lp515
g124
ag113
ag124
ag117
ag120
ag122
ag124
ag113
ag120
ag115
ag114
ag117
ag181
ag124
ag116
ag117
ag116
ag117
ag128
asg129
VHe offered her food, but she answered, for earthly food have we no longer any desire.
p516
sba(i__main__
Sentence
p517
(dp518
g17
I9
sg18
(lp519
S'God'
p520
aS'has'
p521
aS'already'
p522
aS'satisfied'
p523
aS'the'
p524
aS'hunger'
p525
aS'of'
p526
aS'three'
p527
aS'of'
p528
aS'us'
p529
aS','
p530
aS'and'
p531
aS'he'
p532
aS'will'
p533
aS'hearken'
p534
aS'to'
p535
aS'our'
p536
aS'supplications'
p537
aS'likewise'
p538
aS'.'
p539
asg66
(lp540
VGod
p541
aVhave
p542
aValready
p543
aVsatisfy
p544
aVthe
p545
aVhunger
p546
aVof
p547
aVthree
p548
aVof
p549
aVu
p550
ag76
aVand
p551
aVhe
p552
aVwill
p553
aVhearken
p554
aVto
p555
aVour
p556
aVsupplication
p557
aVlikewise
p558
ag106
asg107
(lp559
g109
ag109
ag109
ag109
ag109
ag109
ag109
ag109
ag109
ag109
ag109
ag109
ag109
ag109
ag109
ag109
ag109
ag109
ag109
ag109
asg110
(lp560
S'NNP'
p561
aS'VBZ'
p562
ag114
ag352
ag116
ag117
ag115
ag118
ag115
ag124
ag120
ag122
ag124
aS'MD'
p563
ag126
ag125
ag127
ag119
ag181
ag128
asg129
VGod has already satisfied the hunger of three of us, and he will hearken to our supplications likewise.
p564
sba(i__main__
Sentence
p565
(dp566
g17
I10
sg18
(lp567
S'Scarcely'
p568
aS'had'
p569
aS'she'
p570
aS'uttered'
p571
aS'these'
p572
aS'words'
p573
aS'than'
p574
aS'the'
p575
aS'two'
p576
aS'little'
p577
aS'ones'
p578
aS'drew'
p579
aS'their'
p580
aS'last'
p581
aS'breath'
p582
aS','
p583
aS'whereupon'
p584
aS'her'
p585
aS'heart'
p586
aS'broke'
p587
aS','
p588
aS'and'
p589
aS'she'
p590
aS'sank'
p591
aS'down'
p592
aS'dead'
p593
aS'.'
p594
asg66
(lp595
VScarcely
p596
ag80
aVshe
p597
aVutter
p598
aVthese
p599
aVword
p600
aVthan
p601
aVthe
p602
aVtwo
p603
aVlittle
p604
aVone
p605
aVdraw
p606
aVtheir
p607
aVlast
p608
aVbreath
p609
ag76
aVwhereupon
p610
aVher
p611
aVheart
p612
aVbroke
p613
ag76
aVand
p614
aVshe
p615
aVsink
p616
aVdown
p617
aVdead
p618
ag106
asg107
(lp619
g109
ag109
ag109
ag109
ag109
ag109
ag109
ag109
ag109
ag109
ag109
ag109
ag109
ag109
ag109
ag109
ag109
ag109
ag109
ag109
ag109
ag109
ag109
ag109
ag109
ag109
ag109
asg110
(lp620
g114
ag113
ag124
ag113
ag116
ag119
ag115
ag116
ag118
ag123
ag119
ag113
ag127
ag123
ag117
ag120
ag115
ag127
ag117
ag117
ag120
ag122
ag124
ag113
aS'RP'
p621
ag123
ag128
asg129
VScarcely had she uttered these words than the two little ones drew their last breath, whereupon her heart broke, and she sank down dead. 
p622
sbasbsS'summary'
p623
g0
(g7
g2
Ntp624
Rp625
(dp626
g11
S"A rich sister refuses to share bread with her poor sister and her poor sister's five children. The rich sister's husband cuts himself a slice of bread and blood flows from the loaf. The rich sister is terrified and tells her husband what happened. The husband goes to help the poor sister. He finds her praying. Three of the children are already dead. She says God will now take care of them. As she says this, the two youngest children die along with their mother. "
p627
sg13
(lp628
(i__main__
Sentence
p629
(dp630
g17
I0
sg18
(lp631
S'A'
p632
aS'rich'
p633
aS'sister'
p634
aS'refuses'
p635
aS'to'
p636
aS'share'
p637
aS'bread'
p638
aS'with'
p639
aS'her'
p640
aS'poor'
p641
aS'sister'
p642
aS'and'
p643
aS'her'
p644
aS'poor'
p645
aS'sister'
p646
aS"'s"
p647
aS'five'
p648
aS'children'
p649
aS'.'
p650
asg66
(lp651
VA
p652
aVrich
p653
aVsister
p654
aVrefuse
p655
aVto
p656
aVshare
p657
aVbread
p658
aVwith
p659
aVher
p660
aVpoor
p661
aVsister
p662
aVand
p663
aVher
p664
aVpoor
p665
aVsister
p666
aV's
p667
aVfive
p668
ag82
ag106
asg107
(lp669
g109
ag109
ag109
ag109
ag109
ag109
ag109
ag109
ag109
ag109
ag109
ag109
ag109
ag109
ag109
ag109
ag109
ag109
ag109
asg110
(lp670
g116
ag123
ag117
ag119
ag125
ag126
ag117
ag115
ag127
ag123
ag117
ag122
ag127
ag117
ag117
aS'POS'
p671
ag118
ag119
ag128
asg129
VA rich sister refuses to share bread with her poor sister and her poor sister's five children.
p672
sba(i__main__
Sentence
p673
(dp674
g17
I1
sg18
(lp675
S'The'
p676
aS'rich'
p677
aS'sister'
p678
aS"'s"
p679
aS'husband'
p680
aS'cuts'
p681
aS'himself'
p682
aS'a'
p683
aS'slice'
p684
aS'of'
p685
aS'bread'
p686
aS'and'
p687
aS'blood'
p688
aS'flows'
p689
aS'from'
p690
aS'the'
p691
aS'loaf'
p692
aS'.'
p693
asg66
(lp694
VThe
p695
aVrich
p696
aVsister
p697
aV's
p698
aVhusband
p699
aVcut
p700
aVhimself
p701
ag72
aVslice
p702
aVof
p703
aVbread
p704
aVand
p705
aVblood
p706
aVflow
p707
aVfrom
p708
aVthe
p709
aVloaf
p710
ag106
asg107
(lp711
g109
ag109
ag109
ag109
ag109
ag109
ag109
ag109
ag109
ag109
ag109
ag109
ag109
ag109
ag109
ag109
ag109
ag109
asg110
(lp712
g116
ag123
ag117
ag671
ag117
ag119
ag124
ag116
ag117
ag115
ag117
ag122
ag117
ag119
ag115
ag116
ag117
ag128
asg129
VThe rich sister's husband cuts himself a slice of bread and blood flows from the loaf.
p713
sba(i__main__
Sentence
p714
(dp715
g17
I2
sg18
(lp716
S'The'
p717
aS'rich'
p718
aS'sister'
p719
aS'is'
p720
aS'terrified'
p721
aS'and'
p722
aS'tells'
p723
aS'her'
p724
aS'husband'
p725
aS'what'
p726
aS'happened'
p727
aS'.'
p728
asg66
(lp729
VThe
p730
aVrich
p731
aVsister
p732
aVbe
p733
ag379
aVand
p734
aVtell
p735
aVher
p736
aVhusband
p737
aVwhat
p738
aVhappen
p739
ag106
asg107
(lp740
g109
ag109
ag109
ag109
ag109
ag109
ag109
ag109
ag109
ag109
ag109
ag109
asg110
(lp741
g116
ag123
ag117
ag562
ag352
ag122
ag119
ag127
ag117
ag121
ag352
ag128
asg129
VThe rich sister is terrified and tells her husband what happened.
p742
sba(i__main__
Sentence
p743
(dp744
g17
I3
sg18
(lp745
S'The'
p746
aS'husband'
p747
aS'goes'
p748
aS'to'
p749
aS'help'
p750
aS'the'
p751
aS'poor'
p752
aS'sister'
p753
aS'.'
p754
asg66
(lp755
VThe
p756
aVhusband
p757
aVgo
p758
aVto
p759
aVhelp
p760
aVthe
p761
aVpoor
p762
aVsister
p763
ag106
asg107
(lp764
g109
ag109
ag109
ag109
ag109
ag109
ag109
ag109
ag109
asg110
(lp765
g116
ag117
ag562
ag125
ag126
ag116
ag123
ag117
ag128
asg129
VThe husband goes to help the poor sister.
p766
sba(i__main__
Sentence
p767
(dp768
g17
I4
sg18
(lp769
S'He'
p770
aS'finds'
p771
aS'her'
p772
aS'praying'
p773
aS'.'
p774
asg66
(lp775
VHe
p776
aVfind
p777
aVher
p778
aVpraying
p779
ag106
asg107
(lp780
g109
ag109
ag109
ag109
ag109
asg110
(lp781
g124
ag562
ag127
ag117
ag128
asg129
VHe finds her praying.
p782
sba(i__main__
Sentence
p783
(dp784
g17
I5
sg18
(lp785
S'Three'
p786
aS'of'
p787
aS'the'
p788
aS'children'
p789
aS'are'
p790
aS'already'
p791
aS'dead'
p792
aS'.'
p793
asg66
(lp794
VThree
p795
aVof
p796
aVthe
p797
ag82
ag174
aValready
p798
aVdead
p799
ag106
asg107
(lp800
g109
ag109
ag109
ag109
ag109
ag109
ag109
ag109
asg110
(lp801
g118
ag115
ag116
ag119
ag181
ag114
ag123
ag128
asg129
VThree of the children are already dead.
p802
sba(i__main__
Sentence
p803
(dp804
g17
I6
sg18
(lp805
S'She'
p806
aS'says'
p807
aS'God'
p808
aS'will'
p809
aS'now'
p810
aS'take'
p811
aS'care'
p812
aS'of'
p813
aS'them'
p814
aS'.'
p815
asg66
(lp816
VShe
p817
aVsay
p818
aVGod
p819
aVwill
p820
aVnow
p821
aVtake
p822
aVcare
p823
aVof
p824
aVthem
p825
ag106
asg107
(lp826
g109
ag109
ag109
ag109
ag109
ag109
ag109
ag109
ag109
ag109
asg110
(lp827
g124
ag562
ag561
ag563
ag114
ag126
ag117
ag115
ag124
ag128
asg129
VShe says God will now take care of them.
p828
sba(i__main__
Sentence
p829
(dp830
g17
I7
sg18
(lp831
S'As'
p832
aS'she'
p833
aS'says'
p834
aS'this'
p835
aS','
p836
aS'the'
p837
aS'two'
p838
aS'youngest'
p839
aS'children'
p840
aS'die'
p841
aS'along'
p842
aS'with'
p843
aS'their'
p844
aS'mother'
p845
aS'.'
p846
asg66
(lp847
VAs
p848
aVshe
p849
aVsay
p850
aVthis
p851
ag76
aVthe
p852
aVtwo
p853
ag462
ag82
aVdie
p854
aValong
p855
aVwith
p856
aVtheir
p857
aVmother
p858
ag106
asg107
(lp859
g109
ag109
ag109
ag109
ag109
ag109
ag109
ag109
ag109
ag109
ag109
ag109
ag109
ag109
ag109
asg110
(lp860
g115
ag124
ag562
ag116
ag120
ag116
ag118
ag183
ag119
ag126
ag115
ag115
ag127
ag117
ag128
asg129
VAs she says this, the two youngest children die along with their mother. 
p861
sbasbsS'name'
p862
S"God's Food"
p863
sS'summaries'
p864
(lp865
g625
asb.