ccopy_reg
_reconstructor
p0
(c__main__
Story
p1
c__builtin__
object
p2
Ntp3
Rp4
(dp5
S'text'
p6
g0
(c__main__
Document
p7
g2
Ntp8
Rp9
(dp10
S'_Document__initialContent'
p11
S'Once upon a time a poor pious peasant died, and arrived before\nthe gate of heaven.  At the same time a very rich, rich lord\ncame there who also wanted to get into heaven.  Then saint\npeter came with the key, and opened the door, and let the\ngreat man in, but apparently did not see the peasant, and shut\nthe door again.  And now the peasant outside heard how the\ngreat man was received in heaven with all kinds of rejoicing,\nand how they were making music, and singing within.  At length\nall became quiet again, and saint peter came and opened the gate\nof heaven, and let the peasant in.  The peasant, however,\nexpected that they would make music and sing when he went in\nalso, but all remained quite quiet.  He was received with great\naffection, it is true, and the angels came to meet him, but no\none sang.  Then the peasant asked saint peter how it was that\nthey did not sing for him as they had done when the rich man\nwent in, and said that it seemed to him that there in heaven\nthings were done with just as much partiality as on earth.  Then\nsaid saint peter, by no means, you are just as dear to us as\nanyone else, and will enjoy every heavenly delight that the\nrich man enjoys, but poor fellows like you come to heaven every\nday, but a rich man like this does not come more than once in a\nhundred years.\n'
p12
sS'sentences'
p13
(lp14
(i__main__
Sentence
p15
(dp16
S'index'
p17
I0
sS'words'
p18
(lp19
S'Once'
p20
aS'upon'
p21
aS'a'
p22
aS'time'
p23
aS'a'
p24
aS'poor'
p25
aS'pious'
p26
aS'peasant'
p27
aS'died'
p28
aS','
p29
aS'and'
p30
aS'arrived'
p31
aS'before'
p32
aS'the'
p33
aS'gate'
p34
aS'of'
p35
aS'heaven'
p36
aS'.'
p37
asS'lemmas'
p38
(lp39
VOnce
p40
aVupon
p41
aVa
p42
aVtime
p43
ag42
aVpoor
p44
aVpious
p45
aVpeasant
p46
aVdie
p47
aV,
p48
aVand
p49
aVarrive
p50
aVbefore
p51
aVthe
p52
aVgate
p53
aVof
p54
aVheaven
p55
aV.
p56
asS'nerTags'
p57
(lp58
VO
p59
ag59
ag59
ag59
ag59
ag59
ag59
ag59
ag59
ag59
ag59
ag59
ag59
ag59
ag59
ag59
ag59
ag59
asS'posTags'
p60
(lp61
S'RB'
p62
aS'IN'
p63
aS'DT'
p64
aS'NN'
p65
ag64
aS'JJ'
p66
ag66
ag65
aS'VBD'
p67
aS','
p68
aS'CC'
p69
ag67
ag63
ag64
ag65
ag63
ag65
aS'.'
p70
asS'_Sentence__initialContent'
p71
VOnce upon a time a poor pious peasant died, and arrived before the gate of heaven.
p72
sba(i__main__
Sentence
p73
(dp74
g17
I1
sg18
(lp75
S'At'
p76
aS'the'
p77
aS'same'
p78
aS'time'
p79
aS'a'
p80
aS'very'
p81
aS'rich'
p82
aS','
p83
aS'rich'
p84
aS'lord'
p85
aS'came'
p86
aS'there'
p87
aS'who'
p88
aS'also'
p89
aS'wanted'
p90
aS'to'
p91
aS'get'
p92
aS'into'
p93
aS'heaven'
p94
aS'.'
p95
asg38
(lp96
VAt
p97
aVthe
p98
aVsame
p99
aVtime
p100
ag42
aVvery
p101
aVrich
p102
ag48
aVrich
p103
aVlord
p104
aVcome
p105
aVthere
p106
aVwho
p107
aValso
p108
aVwant
p109
aVto
p110
aVget
p111
aVinto
p112
aVheaven
p113
ag56
asg57
(lp114
g59
ag59
ag59
ag59
ag59
ag59
ag59
ag59
ag59
ag59
ag59
ag59
ag59
ag59
ag59
ag59
ag59
ag59
ag59
ag59
asg60
(lp115
g63
ag64
ag66
ag65
ag64
ag62
ag66
ag68
ag66
ag65
ag67
ag62
aS'WP'
p116
ag62
ag67
aS'TO'
p117
aS'VB'
p118
ag63
aS'CD'
p119
ag70
asg71
VAt the same time a very rich, rich lord came there who also wanted to get into heaven.
p120
sba(i__main__
Sentence
p121
(dp122
g17
I2
sg18
(lp123
S'Then'
p124
aS'saint'
p125
aS'peter'
p126
aS'came'
p127
aS'with'
p128
aS'the'
p129
aS'key'
p130
aS','
p131
aS'and'
p132
aS'opened'
p133
aS'the'
p134
aS'door'
p135
aS','
p136
aS'and'
p137
aS'let'
p138
aS'the'
p139
aS'great'
p140
aS'man'
p141
aS'in'
p142
aS','
p143
aS'but'
p144
aS'apparently'
p145
aS'did'
p146
aS'not'
p147
aS'see'
p148
aS'the'
p149
aS'peasant'
p150
aS','
p151
aS'and'
p152
aS'shut'
p153
aS'the'
p154
aS'door'
p155
aS'again'
p156
aS'.'
p157
asg38
(lp158
VThen
p159
aVsaint
p160
aVpeter
p161
ag105
aVwith
p162
aVthe
p163
aVkey
p164
ag48
aVand
p165
aVopen
p166
aVthe
p167
aVdoor
p168
ag48
aVand
p169
aVlet
p170
aVthe
p171
aVgreat
p172
aVman
p173
aVin
p174
ag48
aVbut
p175
aVapparently
p176
aVdo
p177
aVnot
p178
aVsee
p179
aVthe
p180
aVpeasant
p181
ag48
aVand
p182
aVshut
p183
aVthe
p184
aVdoor
p185
aVagain
p186
ag56
asg57
(lp187
g59
ag59
ag59
ag59
ag59
ag59
ag59
ag59
ag59
ag59
ag59
ag59
ag59
ag59
ag59
ag59
ag59
ag59
ag59
ag59
ag59
ag59
ag59
ag59
ag59
ag59
ag59
ag59
ag59
ag59
ag59
ag59
ag59
ag59
asg60
(lp188
g62
ag67
ag65
ag67
ag63
ag64
ag66
ag68
ag69
ag67
ag64
ag65
ag68
ag69
ag118
ag64
ag66
ag65
ag63
ag68
ag69
ag62
ag67
ag62
ag118
ag64
ag65
ag68
ag69
ag67
ag64
ag65
ag62
ag70
asg71
VThen saint peter came with the key, and opened the door, and let the great man in, but apparently did not see the peasant, and shut the door again.
p189
sba(i__main__
Sentence
p190
(dp191
g17
I3
sg18
(lp192
S'And'
p193
aS'now'
p194
aS'the'
p195
aS'peasant'
p196
aS'outside'
p197
aS'heard'
p198
aS'how'
p199
aS'the'
p200
aS'great'
p201
aS'man'
p202
aS'was'
p203
aS'received'
p204
aS'in'
p205
aS'heaven'
p206
aS'with'
p207
aS'all'
p208
aS'kinds'
p209
aS'of'
p210
aS'rejoicing'
p211
aS','
p212
aS'and'
p213
aS'how'
p214
aS'they'
p215
aS'were'
p216
aS'making'
p217
aS'music'
p218
aS','
p219
aS'and'
p220
aS'singing'
p221
aS'within'
p222
aS'.'
p223
asg38
(lp224
VAnd
p225
aVnow
p226
aVthe
p227
aVpeasant
p228
aVoutside
p229
aVheard
p230
aVhow
p231
aVthe
p232
aVgreat
p233
aVman
p234
aVbe
p235
aVreceive
p236
aVin
p237
aVheaven
p238
aVwith
p239
aVall
p240
aVkind
p241
aVof
p242
aVrejoice
p243
ag48
aVand
p244
aVhow
p245
aVthey
p246
aVbe
p247
aVmake
p248
aVmusic
p249
ag48
aVand
p250
aVsing
p251
aVwithin
p252
ag56
asg57
(lp253
g59
ag59
ag59
ag59
ag59
ag59
ag59
ag59
ag59
ag59
ag59
ag59
ag59
ag59
ag59
ag59
ag59
ag59
ag59
ag59
ag59
ag59
ag59
ag59
ag59
ag59
ag59
ag59
ag59
ag59
ag59
asg60
(lp254
g69
ag62
ag64
ag66
ag65
ag65
aS'WRB'
p255
ag64
ag66
ag65
ag67
aS'VBN'
p256
ag63
ag66
ag63
ag64
aS'NNS'
p257
ag63
aS'VBG'
p258
ag68
ag69
ag255
aS'PRP'
p259
ag67
ag258
ag66
ag68
ag69
ag258
ag63
ag70
asg71
VAnd now the peasant outside heard how the great man was received in heaven with all kinds of rejoicing, and how they were making music, and singing within.
p260
sba(i__main__
Sentence
p261
(dp262
g17
I4
sg18
(lp263
S'At'
p264
aS'length'
p265
aS'all'
p266
aS'became'
p267
aS'quiet'
p268
aS'again'
p269
aS','
p270
aS'and'
p271
aS'saint'
p272
aS'peter'
p273
aS'came'
p274
aS'and'
p275
aS'opened'
p276
aS'the'
p277
aS'gate'
p278
aS'of'
p279
aS'heaven'
p280
aS','
p281
aS'and'
p282
aS'let'
p283
aS'the'
p284
aS'peasant'
p285
aS'in'
p286
aS'.'
p287
asg38
(lp288
VAt
p289
aVlength
p290
aVall
p291
aVbecome
p292
aVquiet
p293
aVagain
p294
ag48
aVand
p295
aVsaint
p296
aVpeter
p297
ag105
aVand
p298
aVopen
p299
aVthe
p300
aVgate
p301
aVof
p302
aVheaven
p303
ag48
aVand
p304
aVlet
p305
aVthe
p306
aVpeasant
p307
aVin
p308
ag56
asg57
(lp309
g59
ag59
ag59
ag59
ag59
ag59
ag59
ag59
ag59
ag59
ag59
ag59
ag59
ag59
ag59
ag59
ag59
ag59
ag59
ag59
ag59
ag59
ag59
ag59
asg60
(lp310
g63
ag65
ag64
ag67
ag66
ag65
ag68
ag69
ag65
ag65
ag67
ag69
ag256
ag64
ag65
ag63
ag65
ag68
ag69
ag118
ag64
ag66
ag63
ag70
asg71
VAt length all became quiet again, and saint peter came and opened the gate of heaven, and let the peasant in.
p311
sba(i__main__
Sentence
p312
(dp313
g17
I5
sg18
(lp314
S'The'
p315
aS'peasant'
p316
aS','
p317
aS'however'
p318
aS','
p319
aS'expected'
p320
aS'that'
p321
aS'they'
p322
aS'would'
p323
aS'make'
p324
aS'music'
p325
aS'and'
p326
aS'sing'
p327
aS'when'
p328
aS'he'
p329
aS'went'
p330
aS'in'
p331
aS'also'
p332
aS','
p333
aS'but'
p334
aS'all'
p335
aS'remained'
p336
aS'quite'
p337
aS'quiet'
p338
aS'.'
p339
asg38
(lp340
VThe
p341
aVpeasant
p342
ag48
aVhowever
p343
ag48
aVexpect
p344
aVthat
p345
aVthey
p346
aVwould
p347
aVmake
p348
aVmusic
p349
aVand
p350
aVsing
p351
aVwhen
p352
aVhe
p353
aVgo
p354
aVin
p355
aValso
p356
ag48
aVbut
p357
aVall
p358
aVremain
p359
aVquite
p360
aVquiet
p361
ag56
asg57
(lp362
g59
ag59
ag59
ag59
ag59
ag59
ag59
ag59
ag59
ag59
ag59
ag59
ag59
ag59
ag59
ag59
ag59
ag59
ag59
ag59
ag59
ag59
ag59
ag59
ag59
asg60
(lp363
g64
ag65
ag68
ag62
ag68
ag256
ag64
ag259
aS'MD'
p364
ag118
ag66
ag69
ag258
ag255
ag259
ag67
ag63
ag62
ag68
ag69
ag64
ag67
ag62
ag66
ag70
asg71
VThe peasant, however, expected that they would make music and sing when he went in also, but all remained quite quiet.
p365
sba(i__main__
Sentence
p366
(dp367
g17
I6
sg18
(lp368
S'He'
p369
aS'was'
p370
aS'received'
p371
aS'with'
p372
aS'great'
p373
aS'affection'
p374
aS','
p375
aS'it'
p376
aS'is'
p377
aS'true'
p378
aS','
p379
aS'and'
p380
aS'the'
p381
aS'angels'
p382
aS'came'
p383
aS'to'
p384
aS'meet'
p385
aS'him'
p386
aS','
p387
aS'but'
p388
aS'no'
p389
aS'one'
p390
aS'sang'
p391
aS'.'
p392
asg38
(lp393
VHe
p394
ag235
aVreceive
p395
aVwith
p396
aVgreat
p397
aVaffection
p398
ag48
aVit
p399
aVbe
p400
aVtrue
p401
ag48
aVand
p402
aVthe
p403
aVangel
p404
ag105
aVto
p405
aVmeet
p406
aVhim
p407
ag48
aVbut
p408
aVno
p409
aVone
p410
aVsang
p411
ag56
asg57
(lp412
g59
ag59
ag59
ag59
ag59
ag59
ag59
ag59
ag59
ag59
ag59
ag59
ag59
ag59
ag59
ag59
ag59
ag59
ag59
ag59
ag59
ag59
ag59
ag59
asg60
(lp413
g259
ag67
ag256
ag63
ag66
ag65
ag68
ag259
aS'VBZ'
p414
ag66
ag68
ag69
ag64
ag257
ag67
ag117
ag118
ag259
ag68
ag69
ag64
ag65
ag65
ag70
asg71
VHe was received with great affection, it is true, and the angels came to meet him, but no one sang.
p415
sba(i__main__
Sentence
p416
(dp417
g17
I7
sg18
(lp418
S'Then'
p419
aS'the'
p420
aS'peasant'
p421
aS'asked'
p422
aS'saint'
p423
aS'peter'
p424
aS'how'
p425
aS'it'
p426
aS'was'
p427
aS'that'
p428
aS'they'
p429
aS'did'
p430
aS'not'
p431
aS'sing'
p432
aS'for'
p433
aS'him'
p434
aS'as'
p435
aS'they'
p436
aS'had'
p437
aS'done'
p438
aS'when'
p439
aS'the'
p440
aS'rich'
p441
aS'man'
p442
aS'went'
p443
aS'in'
p444
aS','
p445
aS'and'
p446
aS'said'
p447
aS'that'
p448
aS'it'
p449
aS'seemed'
p450
aS'to'
p451
aS'him'
p452
aS'that'
p453
aS'there'
p454
aS'in'
p455
aS'heaven'
p456
aS'things'
p457
aS'were'
p458
aS'done'
p459
aS'with'
p460
aS'just'
p461
aS'as'
p462
aS'much'
p463
aS'partiality'
p464
aS'as'
p465
aS'on'
p466
aS'earth'
p467
aS'.'
p468
asg38
(lp469
VThen
p470
aVthe
p471
aVpeasant
p472
aVask
p473
aVsaint
p474
aVpeter
p475
aVhow
p476
aVit
p477
ag235
aVthat
p478
aVthey
p479
ag177
aVnot
p480
aVsing
p481
aVfor
p482
aVhim
p483
ag42
aVthey
p484
aVhave
p485
aVdo
p486
aVwhen
p487
aVthe
p488
aVrich
p489
aVman
p490
ag354
aVin
p491
ag48
aVand
p492
aVsay
p493
aVthat
p494
aVit
p495
aVseem
p496
aVto
p497
aVhim
p498
aVthat
p499
aVthere
p500
aVin
p501
aVheaven
p502
aVthing
p503
ag247
ag486
aVwith
p504
aVjust
p505
ag42
aVmuch
p506
aVpartiality
p507
ag42
aVon
p508
aVearth
p509
ag56
asg57
(lp510
g59
ag59
ag59
ag59
ag59
aVPERSON
p511
ag59
ag59
ag59
ag59
ag59
ag59
ag59
ag59
ag59
ag59
ag59
ag59
ag59
ag59
ag59
ag59
ag59
ag59
ag59
ag59
ag59
ag59
ag59
ag59
ag59
ag59
ag59
ag59
ag59
ag59
ag59
ag59
ag59
ag59
ag59
ag59
ag59
ag59
ag59
ag59
ag59
ag59
ag59
ag59
asg60
(lp512
g62
ag64
ag65
ag67
ag65
ag65
ag255
ag259
ag67
ag63
ag259
ag67
ag62
ag258
ag63
ag259
ag63
ag259
ag67
ag256
ag255
ag64
ag66
ag65
ag67
ag63
ag68
ag69
ag67
ag63
ag259
ag67
ag117
ag259
ag63
aS'EX'
p513
ag63
ag65
ag257
ag67
ag256
ag63
ag62
ag63
ag66
ag65
ag63
ag63
ag66
ag70
asg71
VThen the peasant asked saint peter how it was that they did not sing for him as they had done when the rich man went in, and said that it seemed to him that there in heaven things were done with just as much partiality as on earth.
p514
sba(i__main__
Sentence
p515
(dp516
g17
I8
sg18
(lp517
S'Then'
p518
aS'said'
p519
aS'saint'
p520
aS'peter'
p521
aS','
p522
aS'by'
p523
aS'no'
p524
aS'means'
p525
aS','
p526
aS'you'
p527
aS'are'
p528
aS'just'
p529
aS'as'
p530
aS'dear'
p531
aS'to'
p532
aS'us'
p533
aS'as'
p534
aS'anyone'
p535
aS'else'
p536
aS','
p537
aS'and'
p538
aS'will'
p539
aS'enjoy'
p540
aS'every'
p541
aS'heavenly'
p542
aS'delight'
p543
aS'that'
p544
aS'the'
p545
aS'rich'
p546
aS'man'
p547
aS'enjoys'
p548
aS','
p549
aS'but'
p550
aS'poor'
p551
aS'fellows'
p552
aS'like'
p553
aS'you'
p554
aS'come'
p555
aS'to'
p556
aS'heaven'
p557
aS'every'
p558
aS'day'
p559
aS','
p560
aS'but'
p561
aS'a'
p562
aS'rich'
p563
aS'man'
p564
aS'like'
p565
aS'this'
p566
aS'does'
p567
aS'not'
p568
aS'come'
p569
aS'more'
p570
aS'than'
p571
aS'once'
p572
aS'in'
p573
aS'a'
p574
aS'hundred'
p575
aS'years'
p576
aS'.'
p577
asg38
(lp578
VThen
p579
ag493
aVsaint
p580
aVpeter
p581
ag48
aVby
p582
aVno
p583
aVmean
p584
ag48
aVyou
p585
aVbe
p586
aVjust
p587
ag42
aVdear
p588
aVto
p589
aVu
p590
ag42
aVanyone
p591
aVelse
p592
ag48
aVand
p593
aVwill
p594
aVenjoy
p595
aVevery
p596
aVheavenly
p597
aVdelight
p598
aVthat
p599
aVthe
p600
aVrich
p601
aVman
p602
aVenjoys
p603
ag48
aVbut
p604
aVpoor
p605
aVfellow
p606
aVlike
p607
aVyou
p608
aVcome
p609
aVto
p610
aVheaven
p611
aVevery
p612
aVday
p613
ag48
aVbut
p614
ag42
aVrich
p615
aVman
p616
aVlike
p617
aVthis
p618
aVdo
p619
aVnot
p620
aVcome
p621
aVmore
p622
aVthan
p623
aVonce
p624
aVin
p625
ag42
aVhundred
p626
aVyear
p627
ag56
asg57
(lp628
g59
ag59
ag59
aVPERSON
p629
ag59
ag59
ag59
ag59
ag59
ag59
ag59
ag59
ag59
ag59
ag59
ag59
ag59
ag59
ag59
ag59
ag59
ag59
ag59
ag59
ag59
ag59
ag59
ag59
ag59
ag59
ag59
ag59
ag59
ag59
ag59
ag59
ag59
ag59
ag59
ag59
ag59
ag59
ag59
ag59
ag59
ag59
ag59
ag59
ag59
ag59
ag59
ag59
ag59
ag59
ag59
ag59
ag59
ag59
ag59
ag59
asg60
(lp630
g62
ag67
ag65
ag65
ag68
ag63
ag64
ag257
ag68
ag259
aS'VBP'
p631
ag62
ag63
ag66
ag117
ag259
ag63
ag65
ag62
ag68
ag69
ag364
ag118
ag64
ag62
ag66
ag63
ag64
ag66
ag65
ag257
ag68
ag69
ag66
ag257
ag63
ag259
ag631
ag117
ag118
ag64
ag65
ag68
ag69
ag64
ag66
ag65
ag63
ag64
ag414
ag62
ag118
aS'JJR'
p632
ag63
ag62
ag63
ag64
ag119
ag257
ag70
asg71
VThen said saint peter, by no means, you are just as dear to us as anyone else, and will enjoy every heavenly delight that the rich man enjoys, but poor fellows like you come to heaven every day, but a rich man like this does not come more than once in a hundred years. 
p633
sbasbsS'summary'
p634
g0
(g7
g2
Ntp635
Rp636
(dp637
g11
S"A peasant and a rich man die and go to heaven at the same time. St. Peter lets the rich man in but seems to overlook the peasant. While waiting outside the gates, the peasant hears much singing and rejoicing at the rich man's entrance into heaven. When St. Peter opens the gates again, he sees the peasant and lets him in. The peasant is welcomed warmly but there is no singing or rejoicing. The peasant assumes heaven is no different than earth, with the rich preferred over the poor. St. Peter tells him the rejoicing was because peasants were admitted every day while rich people came only rarely."
p638
sg13
(lp639
(i__main__
Sentence
p640
(dp641
g17
I0
sg18
(lp642
S'A'
p643
aS'peasant'
p644
aS'and'
p645
aS'a'
p646
aS'rich'
p647
aS'man'
p648
aS'die'
p649
aS'and'
p650
aS'go'
p651
aS'to'
p652
aS'heaven'
p653
aS'at'
p654
aS'the'
p655
aS'same'
p656
aS'time'
p657
aS'.'
p658
asg38
(lp659
VA
p660
aVpeasant
p661
aVand
p662
ag42
aVrich
p663
aVman
p664
aVdie
p665
aVand
p666
aVgo
p667
aVto
p668
aVheaven
p669
aVat
p670
aVthe
p671
aVsame
p672
aVtime
p673
ag56
asg57
(lp674
g59
ag59
ag59
ag59
ag59
ag59
ag59
ag59
ag59
ag59
ag59
ag59
ag59
ag59
ag59
ag59
asg60
(lp675
g64
ag65
ag69
ag64
ag66
ag65
ag118
ag69
ag118
ag117
ag118
ag63
ag64
ag66
ag65
ag70
asg71
VA peasant and a rich man die and go to heaven at the same time.
p676
sba(i__main__
Sentence
p677
(dp678
g17
I1
sg18
(lp679
S'St.'
p680
aS'Peter'
p681
aS'lets'
p682
aS'the'
p683
aS'rich'
p684
aS'man'
p685
aS'in'
p686
aS'but'
p687
aS'seems'
p688
aS'to'
p689
aS'overlook'
p690
aS'the'
p691
aS'peasant'
p692
aS'.'
p693
asg38
(lp694
VSt.
p695
aVPeter
p696
aVlet
p697
aVthe
p698
aVrich
p699
aVman
p700
aVin
p701
aVbut
p702
aVseem
p703
aVto
p704
aVoverlook
p705
aVthe
p706
aVpeasant
p707
ag56
asg57
(lp708
g59
aVPERSON
p709
ag59
ag59
ag59
ag59
ag59
ag59
ag59
ag59
ag59
ag59
ag59
ag59
asg60
(lp710
S'NNP'
p711
ag711
ag257
ag64
ag66
ag65
ag63
ag69
ag414
ag117
ag118
ag64
ag65
ag70
asg71
VSt. Peter lets the rich man in but seems to overlook the peasant.
p712
sba(i__main__
Sentence
p713
(dp714
g17
I2
sg18
(lp715
S'While'
p716
aS'waiting'
p717
aS'outside'
p718
aS'the'
p719
aS'gates'
p720
aS','
p721
aS'the'
p722
aS'peasant'
p723
aS'hears'
p724
aS'much'
p725
aS'singing'
p726
aS'and'
p727
aS'rejoicing'
p728
aS'at'
p729
aS'the'
p730
aS'rich'
p731
aS'man'
p732
aS"'s"
p733
aS'entrance'
p734
aS'into'
p735
aS'heaven'
p736
aS'.'
p737
asg38
(lp738
VWhile
p739
aVwait
p740
aVoutside
p741
aVthe
p742
aVgate
p743
ag48
aVthe
p744
aVpeasant
p745
aVhears
p746
aVmuch
p747
ag251
aVand
p748
aVrejoice
p749
aVat
p750
aVthe
p751
aVrich
p752
aVman
p753
aV's
p754
aVentrance
p755
aVinto
p756
aVheaven
p757
ag56
asg57
(lp758
g59
ag59
ag59
ag59
ag59
ag59
ag59
ag59
ag59
ag59
ag59
ag59
ag59
ag59
ag59
ag59
ag59
ag59
ag59
ag59
ag59
ag59
asg60
(lp759
g63
ag258
ag63
ag64
ag257
ag68
ag64
ag65
ag257
ag62
ag258
ag69
ag258
ag63
ag64
ag66
ag65
aS'POS'
p760
ag65
ag63
ag65
ag70
asg71
VWhile waiting outside the gates, the peasant hears much singing and rejoicing at the rich man's entrance into heaven.
p761
sba(i__main__
Sentence
p762
(dp763
g17
I3
sg18
(lp764
S'When'
p765
aS'St.'
p766
aS'Peter'
p767
aS'opens'
p768
aS'the'
p769
aS'gates'
p770
aS'again'
p771
aS','
p772
aS'he'
p773
aS'sees'
p774
aS'the'
p775
aS'peasant'
p776
aS'and'
p777
aS'lets'
p778
aS'him'
p779
aS'in'
p780
aS'.'
p781
asg38
(lp782
VWhen
p783
aVSt.
p784
aVPeter
p785
aVopen
p786
aVthe
p787
aVgate
p788
aVagain
p789
ag48
aVhe
p790
aVsee
p791
aVthe
p792
aVpeasant
p793
aVand
p794
aVlet
p795
aVhim
p796
aVin
p797
ag56
asg57
(lp798
g59
ag59
aVPERSON
p799
ag59
ag59
ag59
ag59
ag59
ag59
ag59
ag59
ag59
ag59
ag59
ag59
ag59
ag59
asg60
(lp800
g255
ag711
ag711
ag414
ag64
ag257
ag62
ag68
ag259
ag414
ag64
ag65
ag69
ag257
ag259
ag63
ag70
asg71
VWhen St. Peter opens the gates again, he sees the peasant and lets him in.
p801
sba(i__main__
Sentence
p802
(dp803
g17
I4
sg18
(lp804
S'The'
p805
aS'peasant'
p806
aS'is'
p807
aS'welcomed'
p808
aS'warmly'
p809
aS'but'
p810
aS'there'
p811
aS'is'
p812
aS'no'
p813
aS'singing'
p814
aS'or'
p815
aS'rejoicing'
p816
aS'.'
p817
asg38
(lp818
VThe
p819
aVpeasant
p820
ag400
aVwelcome
p821
aVwarmly
p822
aVbut
p823
aVthere
p824
ag400
aVno
p825
aVsinging
p826
aVor
p827
aVrejoice
p828
ag56
asg57
(lp829
g59
ag59
ag59
ag59
ag59
ag59
ag59
ag59
ag59
ag59
ag59
ag59
ag59
asg60
(lp830
g64
ag65
ag414
ag256
ag62
ag69
ag513
ag414
ag64
ag65
ag69
ag258
ag70
asg71
VThe peasant is welcomed warmly but there is no singing or rejoicing.
p831
sba(i__main__
Sentence
p832
(dp833
g17
I5
sg18
(lp834
S'The'
p835
aS'peasant'
p836
aS'assumes'
p837
aS'heaven'
p838
aS'is'
p839
aS'no'
p840
aS'different'
p841
aS'than'
p842
aS'earth'
p843
aS','
p844
aS'with'
p845
aS'the'
p846
aS'rich'
p847
aS'preferred'
p848
aS'over'
p849
aS'the'
p850
aS'poor'
p851
aS'.'
p852
asg38
(lp853
VThe
p854
aVpeasant
p855
aVassume
p856
aVheaven
p857
ag400
aVno
p858
aVdifferent
p859
aVthan
p860
aVearth
p861
ag48
aVwith
p862
aVthe
p863
aVrich
p864
aVprefer
p865
aVover
p866
aVthe
p867
aVpoor
p868
ag56
asg57
(lp869
g59
ag59
ag59
ag59
ag59
ag59
ag59
ag59
ag59
ag59
ag59
ag59
ag59
ag59
ag59
ag59
ag59
ag59
asg60
(lp870
g64
ag65
ag414
ag256
ag414
ag64
ag66
ag63
ag66
ag68
ag63
ag64
ag66
ag256
ag63
ag64
ag66
ag70
asg71
VThe peasant assumes heaven is no different than earth, with the rich preferred over the poor.
p871
sba(i__main__
Sentence
p872
(dp873
g17
I6
sg18
(lp874
S'St.'
p875
aS'Peter'
p876
aS'tells'
p877
aS'him'
p878
aS'the'
p879
aS'rejoicing'
p880
aS'was'
p881
aS'because'
p882
aS'peasants'
p883
aS'were'
p884
aS'admitted'
p885
aS'every'
p886
aS'day'
p887
aS'while'
p888
aS'rich'
p889
aS'people'
p890
aS'came'
p891
aS'only'
p892
aS'rarely'
p893
aS'.'
p894
asg38
(lp895
VSt.
p896
aVPeter
p897
aVtell
p898
aVhim
p899
aVthe
p900
aVrejoice
p901
ag235
aVbecause
p902
aVpeasant
p903
ag247
aVadmit
p904
aVevery
p905
aVday
p906
aVwhile
p907
aVrich
p908
aVpeople
p909
ag105
aVonly
p910
aVrarely
p911
ag56
asg57
(lp912
VPERSON
p913
aVPERSON
p914
ag59
ag59
ag59
ag59
ag59
ag59
ag59
ag59
ag59
ag59
ag59
ag59
ag59
ag59
ag59
ag59
ag59
ag59
asg60
(lp915
g711
ag711
ag414
ag259
ag64
ag258
ag67
ag63
ag257
ag67
ag256
ag64
ag65
ag63
ag66
ag257
ag67
ag62
ag62
ag70
asg71
VSt. Peter tells him the rejoicing was because peasants were admitted every day while rich people came only rarely.
p916
sbasbsS'name'
p917
S'The Peasant in Heaven'
p918
sS'summaries'
p919
(lp920
g636
asb.