ccopy_reg
_reconstructor
p0
(c__main__
Story
p1
c__builtin__
object
p2
Ntp3
Rp4
(dp5
S'text'
p6
g0
(c__main__
Document
p7
g2
Ntp8
Rp9
(dp10
S'_Document__initialContent'
p11
S'AT 8 A. M. it lay on Giuseppi\'s news-stand, still damp from the presses. Giuseppi, with the cunning of his ilk, philandered on the opposite comer, leaving his patrons to help themselves, no doubt on a theory related to the hypothesis of the watched pot.\n\n\n\nThis particular newspaper was, according to its custom and design, an educator, a guide, a monitor, a champion and a household counsellor and vade mecum.\n\n\n\nFrom its many excellencies might be selected three editorials. One was in simple and chaste but illuminat- ing language directed to parents and teachers, depreca- ting corporal punishment for children.\n\n\n\nAnother was an accusive and significant warning addressed to a notorious labour leader who was on the point of instigating his clients to a troublesome strike.\n\n\n\nThe third was an eloquent demand that the police force be sustained and aided in everything that tended to increase its efficiency as public guardians and servants.\n\n\n\nBesides these more important chidings and requisitions upon the store of good citizenship was a wise prescription or form of procedure laid out by the editor of the heart- to-heart column in the specific case of a young man who had complained of the obduracy of his lady love, teaching him how he might win her.\n\n\n\nAgain, there was, on the beauty page, a complete answer to a young lady inquirer who desired admonition toward the securing of bright eyes, rosy cheeks and a beautiful countenance.\n\n\n\nOne other item requiring special cognizance was a brief "personal," running thus:\n\n\n\nDEAR JACK: -- Forgive me. You were right. Meet me comer Madison and -th at 8.30 this morning. We leave at noon.\n\n\n\nPENITENT.\n\n\n\nAt 8 o\'clock a young man with a haggard look and the feverish gleam of unrest in his eye dropped a penny and picked up the top paper as he passed Giuseppi\'s stand. A sleepless night had left him a late riser. There was an office to be reached by nine, and a shave and a hasty cup of coffee to be crowded into the interval.\n\n\n\nHe visited his barber shop and then hurried on his way. He pocketed his paper, meditating a belated perusal of it at the luncheon hour. At the next corner it fell from his pocket, carrying with it his pair of new gloves. Three blocks he walked, missed the gloves and turned back fuming.\n\n\n\nJust on the half-hour he reached the corner where lay the gloves and the paper. But he strangely ignored that which he had come to seek. He was holding two little hands as tightly as ever he could and looking into two penitent brown eyes, while joy rioted in his heart.\n\n\n\n"Dear Jack," she said, "I knew you would be here on time."\n\n\n\n"I wonder what she means by that," he was saying to himself; "but it\'s all right, it\'s all right."\n\n\n\nA big wind puffed out of the west, picked up the paper from the sidewalk, opened it out and sent it flying and whirling down a side street. Up that street was driving a skittish bay to a spider-wheel buggy, the young man who had written to the heart-to-heart editor for a recipe that he might win her for whom he sighed.\n\n\n\nThe wind, with a prankish flurry, flapped the flying newspaper against the face of the skittish bay. There was a lengthened streak of bay mingled with the red of running gear that stretched itself out for four blocks. Then a water-hydrant played its part in the cosmogony, the buggy became matchwood as foreordained, and the driver rested very quietly where he had been flung on the asphalt in front of a certain brownstone mansion.\n\n\n\nThey came out and had him inside very promptly. And there was one who made herself a pillow for his head, and cared for no curious eyes, bending over and saying, "Oh, it was you; it was you all the time, Bobby! Couldn\'t you see it? And if you die, why, so must I, and -- "\n\n\n\nBut in all this wind we must hurry to keep in touch with our paper.\n\n\n\nPoliceman O\'Brine arrested it as a character dangerous to traffic. Straightening its dishevelled leaves with his big, slow fingers, he stood a few feet from the family entrance of the Shandon Bells Caf. One headline he spelled out ponderously: "The Papers to the Front in a Move to Help the Police."\n\n\n\nBut, whisht! The voice of Danny, the head bartender, through the crack of the door: "Here\'s a nip for ye, Mike, ould man."\n\n\n\nBehind the widespread, amicable columns of the press Policeman O\'Brine receives swiftly his nip of the real stuff. He moves away, stalwart, refreshed, fortified, to his duties. Might not the editor man view with pride the early, the spiritual, the literal fruit that had blessed his labours.\n\n\n\nPoliceman O\'Brine folded the paper and poked it playfully under the arm of a small boy that was passing. That boy was named Johnny, and he took the paper home with him. His sister was named Gladys, and she had written to the beauty editor of the paper asking for the practicable touchstone of beauty. That was weeks ago, and she had ceased to look for an answer. Gladys was a pale girl, with dull eyes and a discontented expression. She was dressing to go up to the avenue to get some braid. Beneath her skirt she pinned two leaves of the paper Johnny had brought. When she walked the rustling sound was an exact imitation of the real thing.\n\n\n\nOn the street she met the Brown girl from the flat below and stopped to talk. The Brown girl turned green. Only silk at $5 a yard could make the sound that she heard when Gladys moved. The Brown girl, consumed by jealousy, said something spiteful and went her way, with pinched lips.\n\n\n\nGladys proceeded toward the avenue. Her eyes now sparkled like jagerfonteins. A rosy bloom visited her cheeks; a triumphant, subtle, vivifying, smile transfigured her face. She was beautiful. Could the beauty editor have seen her then! There was something in her answer in the paper, I believe, about cultivating kind feelings toward others in order to make plain features attractive.\n\n\n\nThe labour leader against whom the paper\'s solemn and weighty editorial injunction was laid was the father of Gladys and Johnny. He picked up the remains of the journal from which Gladys had ravished a cosmetic of silken sounds. The editorial did not come under his eye, but instead it was greeted by one of those ingenious and specious puzzle problems that enthrall alike the simpleton and the sage.\n\n\n\nThe labour leader tore off half of the page, provided himself with table, pencil and paper and glued himself to his puzzle.\n\n\n\nThree hours later, after waiting vainly for him at the appointed place, other more conservative leaders declared and ruled in favour of arbitration, and the strike with its attendant dangers was averted. Subsequent editions of the paper referred, in coloured inks, to the clarion tone of its successful denunciation of the labour leader\'s intended designs.\n\n\n\nThe remaining leaves of the active journal also went loyally to the proving of its potency.\n\n\n\nWhen Johnny returned from school he sought a secluded spot and removed the missing columns from the inside of his clothing, where they had been artfully distributed so as to successfully defend such areas as are generally attacked during scholastic castigations. Johnny attended a private school and had had trouble with his teacher. As has been said, there was an excellent editorial against corporal punishment in that morning\'s issue, and no doubt it had its effect.\n\n\n\nAfter this can any one doubt the power of the press?'
p12
sS'sentences'
p13
(lp14
(i__main__
Sentence
p15
(dp16
S'index'
p17
I0
sS'words'
p18
(lp19
S'AT'
p20
aS'8'
p21
aS'A.'
p22
aS'M.'
p23
aS'it'
p24
aS'lay'
p25
aS'on'
p26
aS'Giuseppi'
p27
aS"'s"
p28
aS'news-stand'
p29
aS','
p30
aS'still'
p31
aS'damp'
p32
aS'from'
p33
aS'the'
p34
aS'presses'
p35
aS'.'
p36
asS'lemmas'
p37
(lp38
VAT
p39
aV8
p40
aVA.
p41
aVM.
p42
aVit
p43
aVlay
p44
aVon
p45
aVGiuseppi
p46
aV's
p47
aVnews-stand
p48
aV,
p49
aVstill
p50
aVdamp
p51
aVfrom
p52
aVthe
p53
aVpress
p54
aV.
p55
asS'nerTags'
p56
(lp57
VO
p58
ag58
ag58
ag58
ag58
ag58
ag58
aVPERSON
p59
ag58
ag58
ag58
ag58
ag58
ag58
ag58
ag58
ag58
asS'posTags'
p60
(lp61
S'IN'
p62
aS'CD'
p63
aS'NNP'
p64
ag64
aS'PRP'
p65
aS'VBD'
p66
ag62
ag64
aS'POS'
p67
aS'JJ'
p68
aS','
p69
aS'RB'
p70
aS'VB'
p71
ag62
aS'DT'
p72
aS'NNS'
p73
aS'.'
p74
asS'_Sentence__initialContent'
p75
VAT 8 A. M. it lay on Giuseppi's news-stand, still damp from the presses.
p76
sba(i__main__
Sentence
p77
(dp78
g17
I1
sg18
(lp79
S'Giuseppi'
p80
aS','
p81
aS'with'
p82
aS'the'
p83
aS'cunning'
p84
aS'of'
p85
aS'his'
p86
aS'ilk'
p87
aS','
p88
aS'philandered'
p89
aS'on'
p90
aS'the'
p91
aS'opposite'
p92
aS'comer'
p93
aS','
p94
aS'leaving'
p95
aS'his'
p96
aS'patrons'
p97
aS'to'
p98
aS'help'
p99
aS'themselves'
p100
aS','
p101
aS'no'
p102
aS'doubt'
p103
aS'on'
p104
aS'a'
p105
aS'theory'
p106
aS'related'
p107
aS'to'
p108
aS'the'
p109
aS'hypothesis'
p110
aS'of'
p111
aS'the'
p112
aS'watched'
p113
aS'pot'
p114
aS'.'
p115
asg37
(lp116
VGiuseppi
p117
ag49
aVwith
p118
aVthe
p119
aVcunning
p120
aVof
p121
aVhis
p122
aVilk
p123
ag49
aVphilander
p124
aVon
p125
aVthe
p126
aVopposite
p127
aVcomer
p128
ag49
aVleave
p129
aVhis
p130
aVpatron
p131
aVto
p132
aVhelp
p133
aVthemselves
p134
ag49
aVno
p135
aVdoubt
p136
aVon
p137
aVa
p138
aVtheory
p139
aVrelate
p140
aVto
p141
aVthe
p142
aVhypothesis
p143
aVof
p144
aVthe
p145
aVwatched
p146
aVpot
p147
ag55
asg56
(lp148
VPERSON
p149
ag58
ag58
ag58
ag58
ag58
ag58
ag58
ag58
ag58
ag58
ag58
ag58
ag58
ag58
ag58
ag58
ag58
ag58
ag58
ag58
ag58
ag58
ag58
ag58
ag58
ag58
ag58
ag58
ag58
ag58
ag58
ag58
ag58
ag58
ag58
asg60
(lp150
g64
ag69
ag62
ag72
aS'VBG'
p151
ag62
aS'PRP$'
p152
aS'NN'
p153
ag69
ag66
ag62
ag72
ag68
ag153
ag69
ag151
ag152
ag73
aS'TO'
p154
ag71
ag65
ag69
ag72
ag153
ag62
ag72
ag153
aS'VBN'
p155
ag154
ag72
ag153
ag62
ag72
ag68
ag153
ag74
asg75
VGiuseppi, with the cunning of his ilk, philandered on the opposite comer, leaving his patrons to help themselves, no doubt on a theory related to the hypothesis of the watched pot.
p156
sba(i__main__
Sentence
p157
(dp158
g17
I2
sg18
(lp159
S'This'
p160
aS'particular'
p161
aS'newspaper'
p162
aS'was'
p163
aS','
p164
aS'according'
p165
aS'to'
p166
aS'its'
p167
aS'custom'
p168
aS'and'
p169
aS'design'
p170
aS','
p171
aS'an'
p172
aS'educator'
p173
aS','
p174
aS'a'
p175
aS'guide'
p176
aS','
p177
aS'a'
p178
aS'monitor'
p179
aS','
p180
aS'a'
p181
aS'champion'
p182
aS'and'
p183
aS'a'
p184
aS'household'
p185
aS'counsellor'
p186
aS'and'
p187
aS'vade'
p188
aS'mecum'
p189
aS'.'
p190
asg37
(lp191
VThis
p192
aVparticular
p193
aVnewspaper
p194
aVbe
p195
ag49
aVaccord
p196
aVto
p197
aVit
p198
aVcustom
p199
aVand
p200
aVdesign
p201
ag49
aVan
p202
aVeducator
p203
ag49
ag138
aVguide
p204
ag49
ag138
aVmonitor
p205
ag49
ag138
aVchampion
p206
aVand
p207
ag138
aVhousehold
p208
aVcounsellor
p209
aVand
p210
aVvade
p211
aVmecum
p212
ag55
asg56
(lp213
g58
ag58
ag58
ag58
ag58
ag58
ag58
ag58
ag58
ag58
ag58
ag58
ag58
ag58
ag58
ag58
ag58
ag58
ag58
ag58
ag58
ag58
ag58
ag58
ag58
ag58
ag58
ag58
ag58
ag58
ag58
asg60
(lp214
g72
ag68
ag153
ag66
ag69
ag151
ag154
ag152
ag153
aS'CC'
p215
ag153
ag69
ag72
ag153
ag69
ag72
ag153
ag69
ag72
ag153
ag69
ag72
ag153
ag215
ag72
ag153
ag153
ag215
ag153
ag153
ag74
asg75
VThis particular newspaper was, according to its custom and design, an educator, a guide, a monitor, a champion and a household counsellor and vade mecum.
p216
sba(i__main__
Sentence
p217
(dp218
g17
I3
sg18
(lp219
S'From'
p220
aS'its'
p221
aS'many'
p222
aS'excellencies'
p223
aS'might'
p224
aS'be'
p225
aS'selected'
p226
aS'three'
p227
aS'editorials'
p228
aS'.'
p229
asg37
(lp230
VFrom
p231
aVit
p232
aVmany
p233
aVexcellency
p234
aVmight
p235
aVbe
p236
aVselect
p237
aVthree
p238
aVeditorial
p239
ag55
asg56
(lp240
g58
ag58
ag58
ag58
ag58
ag58
ag58
ag58
ag58
ag58
asg60
(lp241
g62
ag152
ag68
ag73
aS'MD'
p242
ag71
ag155
ag63
ag73
ag74
asg75
VFrom its many excellencies might be selected three editorials.
p243
sba(i__main__
Sentence
p244
(dp245
g17
I4
sg18
(lp246
S'One'
p247
aS'was'
p248
aS'in'
p249
aS'simple'
p250
aS'and'
p251
aS'chaste'
p252
aS'but'
p253
aS'illuminat-'
p254
aS'ing'
p255
aS'language'
p256
aS'directed'
p257
aS'to'
p258
aS'parents'
p259
aS'and'
p260
aS'teachers'
p261
aS','
p262
aS'depreca-'
p263
aS'ting'
p264
aS'corporal'
p265
aS'punishment'
p266
aS'for'
p267
aS'children'
p268
aS'.'
p269
asg37
(lp270
VOne
p271
ag195
aVin
p272
aVsimple
p273
aVand
p274
aVchaste
p275
aVbut
p276
aVilluminat-
p277
aVing
p278
aVlanguage
p279
aVdirect
p280
aVto
p281
aVparent
p282
aVand
p283
aVteacher
p284
ag49
aVdepreca-
p285
aVting
p286
aVcorporal
p287
aVpunishment
p288
aVfor
p289
aVchild
p290
ag55
asg56
(lp291
g58
ag58
ag58
ag58
ag58
ag58
ag58
ag58
ag58
ag58
ag58
ag58
ag58
ag58
ag58
ag58
ag58
ag58
ag58
ag58
ag58
ag58
ag58
asg60
(lp292
g63
ag66
ag62
ag68
ag215
ag153
ag215
ag64
ag153
ag153
ag66
ag154
ag73
ag215
ag73
ag69
ag64
ag153
ag68
ag153
ag62
ag73
ag74
asg75
VOne was in simple and chaste but illuminat- ing language directed to parents and teachers, depreca- ting corporal punishment for children.
p293
sba(i__main__
Sentence
p294
(dp295
g17
I5
sg18
(lp296
S'Another'
p297
aS'was'
p298
aS'an'
p299
aS'accusive'
p300
aS'and'
p301
aS'significant'
p302
aS'warning'
p303
aS'addressed'
p304
aS'to'
p305
aS'a'
p306
aS'notorious'
p307
aS'labour'
p308
aS'leader'
p309
aS'who'
p310
aS'was'
p311
aS'on'
p312
aS'the'
p313
aS'point'
p314
aS'of'
p315
aS'instigating'
p316
aS'his'
p317
aS'clients'
p318
aS'to'
p319
aS'a'
p320
aS'troublesome'
p321
aS'strike'
p322
aS'.'
p323
asg37
(lp324
VAnother
p325
ag195
aVan
p326
aVaccusive
p327
aVand
p328
aVsignificant
p329
aVwarning
p330
aVaddress
p331
aVto
p332
ag138
aVnotorious
p333
aVlabour
p334
aVleader
p335
aVwho
p336
ag195
aVon
p337
aVthe
p338
aVpoint
p339
aVof
p340
aVinstigate
p341
aVhis
p342
aVclient
p343
aVto
p344
ag138
aVtroublesome
p345
aVstrike
p346
ag55
asg56
(lp347
g58
ag58
ag58
ag58
ag58
ag58
ag58
ag58
ag58
ag58
ag58
ag58
ag58
ag58
ag58
ag58
ag58
ag58
ag58
ag58
ag58
ag58
ag58
ag58
ag58
ag58
ag58
asg60
(lp348
g72
ag66
ag72
ag68
ag215
ag68
ag153
ag66
ag154
ag72
ag68
ag153
ag153
aS'WP'
p349
ag66
ag62
ag72
ag153
ag62
ag151
ag152
ag73
ag154
ag72
ag153
ag153
ag74
asg75
VAnother was an accusive and significant warning addressed to a notorious labour leader who was on the point of instigating his clients to a troublesome strike.
p350
sba(i__main__
Sentence
p351
(dp352
g17
I6
sg18
(lp353
S'The'
p354
aS'third'
p355
aS'was'
p356
aS'an'
p357
aS'eloquent'
p358
aS'demand'
p359
aS'that'
p360
aS'the'
p361
aS'police'
p362
aS'force'
p363
aS'be'
p364
aS'sustained'
p365
aS'and'
p366
aS'aided'
p367
aS'in'
p368
aS'everything'
p369
aS'that'
p370
aS'tended'
p371
aS'to'
p372
aS'increase'
p373
aS'its'
p374
aS'efficiency'
p375
aS'as'
p376
aS'public'
p377
aS'guardians'
p378
aS'and'
p379
aS'servants'
p380
aS'.'
p381
asg37
(lp382
VThe
p383
aVthird
p384
ag195
aVan
p385
aVeloquent
p386
aVdemand
p387
aVthat
p388
aVthe
p389
aVpolice
p390
aVforce
p391
aVbe
p392
aVsustain
p393
aVand
p394
aVaid
p395
aVin
p396
aVeverything
p397
aVthat
p398
aVtend
p399
aVto
p400
aVincrease
p401
aVit
p402
aVefficiency
p403
ag138
aVpublic
p404
aVguardian
p405
aVand
p406
aVservant
p407
ag55
asg56
(lp408
g58
ag58
ag58
ag58
ag58
ag58
ag58
ag58
ag58
ag58
ag58
ag58
ag58
ag58
ag58
ag58
ag58
ag58
ag58
ag58
ag58
ag58
ag58
ag58
ag58
ag58
ag58
ag58
asg60
(lp409
g72
ag68
ag66
ag72
ag153
ag153
aS'WDT'
p410
ag72
ag153
ag153
ag71
ag155
ag215
ag66
ag62
ag153
ag62
ag155
ag154
ag71
ag152
ag153
ag62
ag68
ag73
ag215
ag73
ag74
asg75
VThe third was an eloquent demand that the police force be sustained and aided in everything that tended to increase its efficiency as public guardians and servants.
p411
sba(i__main__
Sentence
p412
(dp413
g17
I7
sg18
(lp414
S'Besides'
p415
aS'these'
p416
aS'more'
p417
aS'important'
p418
aS'chidings'
p419
aS'and'
p420
aS'requisitions'
p421
aS'upon'
p422
aS'the'
p423
aS'store'
p424
aS'of'
p425
aS'good'
p426
aS'citizenship'
p427
aS'was'
p428
aS'a'
p429
aS'wise'
p430
aS'prescription'
p431
aS'or'
p432
aS'form'
p433
aS'of'
p434
aS'procedure'
p435
aS'laid'
p436
aS'out'
p437
aS'by'
p438
aS'the'
p439
aS'editor'
p440
aS'of'
p441
aS'the'
p442
aS'heart-'
p443
aS'to-heart'
p444
aS'column'
p445
aS'in'
p446
aS'the'
p447
aS'specific'
p448
aS'case'
p449
aS'of'
p450
aS'a'
p451
aS'young'
p452
aS'man'
p453
aS'who'
p454
aS'had'
p455
aS'complained'
p456
aS'of'
p457
aS'the'
p458
aS'obduracy'
p459
aS'of'
p460
aS'his'
p461
aS'lady'
p462
aS'love'
p463
aS','
p464
aS'teaching'
p465
aS'him'
p466
aS'how'
p467
aS'he'
p468
aS'might'
p469
aS'win'
p470
aS'her'
p471
aS'.'
p472
asg37
(lp473
VBesides
p474
aVthese
p475
aVmore
p476
aVimportant
p477
aVchiding
p478
aVand
p479
aVrequisition
p480
aVupon
p481
aVthe
p482
aVstore
p483
aVof
p484
aVgood
p485
aVcitizenship
p486
ag195
ag138
aVwise
p487
aVprescription
p488
aVor
p489
aVform
p490
aVof
p491
aVprocedure
p492
aVlay
p493
aVout
p494
aVby
p495
aVthe
p496
aVeditor
p497
aVof
p498
aVthe
p499
aVheart-
p500
aVto-heart
p501
aVcolumn
p502
aVin
p503
aVthe
p504
aVspecific
p505
aVcase
p506
aVof
p507
ag138
aVyoung
p508
aVman
p509
aVwho
p510
aVhave
p511
aVcomplain
p512
aVof
p513
aVthe
p514
aVobduracy
p515
aVof
p516
aVhis
p517
aVlady
p518
aVlove
p519
ag49
aVteaching
p520
aVhim
p521
aVhow
p522
aVhe
p523
aVmight
p524
aVwin
p525
aVher
p526
ag55
asg56
(lp527
g58
ag58
ag58
ag58
ag58
ag58
ag58
ag58
ag58
ag58
ag58
ag58
ag58
ag58
ag58
ag58
ag58
ag58
ag58
ag58
ag58
ag58
ag58
ag58
ag58
ag58
ag58
ag58
ag58
ag58
ag58
ag58
ag58
ag58
ag58
ag58
ag58
ag58
ag58
ag58
ag58
ag58
ag58
ag58
ag58
ag58
ag58
ag58
ag58
ag58
ag58
ag58
ag58
ag58
ag58
ag58
ag58
ag58
asg60
(lp528
g62
ag72
aS'RBR'
p529
ag68
ag73
ag215
ag73
ag62
ag72
ag153
ag62
ag68
ag153
ag66
ag72
ag153
ag153
ag215
ag153
ag62
ag153
ag66
aS'RP'
p530
ag62
ag72
ag153
ag62
ag72
ag68
ag153
ag153
ag62
ag72
ag68
ag153
ag62
ag72
ag68
ag153
ag349
ag66
ag155
ag62
ag72
ag153
ag62
ag152
ag153
ag153
ag69
ag153
ag65
aS'WRB'
p531
ag65
ag242
ag71
ag65
ag74
asg75
VBesides these more important chidings and requisitions upon the store of good citizenship was a wise prescription or form of procedure laid out by the editor of the heart- to-heart column in the specific case of a young man who had complained of the obduracy of his lady love, teaching him how he might win her.
p532
sba(i__main__
Sentence
p533
(dp534
g17
I8
sg18
(lp535
S'Again'
p536
aS','
p537
aS'there'
p538
aS'was'
p539
aS','
p540
aS'on'
p541
aS'the'
p542
aS'beauty'
p543
aS'page'
p544
aS','
p545
aS'a'
p546
aS'complete'
p547
aS'answer'
p548
aS'to'
p549
aS'a'
p550
aS'young'
p551
aS'lady'
p552
aS'inquirer'
p553
aS'who'
p554
aS'desired'
p555
aS'admonition'
p556
aS'toward'
p557
aS'the'
p558
aS'securing'
p559
aS'of'
p560
aS'bright'
p561
aS'eyes'
p562
aS','
p563
aS'rosy'
p564
aS'cheeks'
p565
aS'and'
p566
aS'a'
p567
aS'beautiful'
p568
aS'countenance'
p569
aS'.'
p570
asg37
(lp571
VAgain
p572
ag49
aVthere
p573
ag195
ag49
aVon
p574
aVthe
p575
aVbeauty
p576
aVpage
p577
ag49
ag138
aVcomplete
p578
aVanswer
p579
aVto
p580
ag138
aVyoung
p581
aVlady
p582
aVinquirer
p583
aVwho
p584
aVdesire
p585
aVadmonition
p586
aVtoward
p587
aVthe
p588
aVsecuring
p589
aVof
p590
aVbright
p591
aVeye
p592
ag49
aVrosy
p593
aVcheek
p594
aVand
p595
ag138
aVbeautiful
p596
aVcountenance
p597
ag55
asg56
(lp598
g58
ag58
ag58
ag58
ag58
ag58
ag58
ag58
ag58
ag58
ag58
ag58
ag58
ag58
ag58
ag58
ag58
ag58
ag58
ag58
ag58
ag58
ag58
ag58
ag58
ag58
ag58
ag58
ag58
ag58
ag58
ag58
ag58
ag58
ag58
asg60
(lp599
g70
ag69
aS'EX'
p600
ag66
ag69
ag62
ag72
ag153
ag153
ag69
ag72
ag68
ag153
ag154
ag72
ag68
ag153
ag153
ag349
ag155
ag153
ag62
ag72
ag153
ag62
ag68
ag73
ag69
ag68
ag73
ag215
ag72
ag68
ag153
ag74
asg75
VAgain, there was, on the beauty page, a complete answer to a young lady inquirer who desired admonition toward the securing of bright eyes, rosy cheeks and a beautiful countenance.
p601
sba(i__main__
Sentence
p602
(dp603
g17
I9
sg18
(lp604
S'One'
p605
aS'other'
p606
aS'item'
p607
aS'requiring'
p608
aS'special'
p609
aS'cognizance'
p610
aS'was'
p611
aS'a'
p612
aS'brief'
p613
aS'``'
p614
aS'personal'
p615
aS','
p616
aS"''"
p617
aS'running'
p618
aS'thus'
p619
aS':'
p620
aS'DEAR'
p621
aS'JACK'
p622
aS':'
p623
aS'--'
p624
aS'Forgive'
p625
aS'me'
p626
aS'.'
p627
asg37
(lp628
VOne
p629
aVother
p630
aVitem
p631
aVrequire
p632
aVspecial
p633
aVcognizance
p634
ag195
ag138
aVbrief
p635
aV``
p636
aVpersonal
p637
ag49
aV''
p638
aVrun
p639
aVthus
p640
aV:
p641
aVDEAR
p642
aVJACK
p643
ag641
aV--
p644
aVForgive
p645
aVme
p646
ag55
asg56
(lp647
g58
ag58
ag58
ag58
ag58
ag58
ag58
ag58
ag58
ag58
ag58
ag58
ag58
ag58
ag58
ag58
ag58
ag58
ag58
ag58
ag58
ag58
ag58
asg60
(lp648
g63
ag68
ag153
ag151
ag68
ag153
ag66
ag72
ag68
aS'``'
p649
ag68
ag69
aS"''"
p650
ag151
ag70
aS':'
p651
ag64
ag64
ag651
ag651
ag68
ag65
ag74
asg75
VOne other item requiring special cognizance was a brief "personal," running thus:    DEAR JACK: -- Forgive me.
p652
sba(i__main__
Sentence
p653
(dp654
g17
I10
sg18
(lp655
S'You'
p656
aS'were'
p657
aS'right'
p658
aS'.'
p659
asg37
(lp660
VYou
p661
aVbe
p662
aVright
p663
ag55
asg56
(lp664
g58
ag58
ag58
ag58
asg60
(lp665
g65
ag66
ag70
ag74
asg75
VYou were right.
p666
sba(i__main__
Sentence
p667
(dp668
g17
I11
sg18
(lp669
S'Meet'
p670
aS'me'
p671
aS'comer'
p672
aS'Madison'
p673
aS'and'
p674
aS'-th'
p675
aS'at'
p676
aS'8.30'
p677
aS'this'
p678
aS'morning'
p679
aS'.'
p680
asg37
(lp681
VMeet
p682
aVme
p683
aVcomer
p684
aVMadison
p685
aVand
p686
aV-th
p687
aVat
p688
aV8.30
p689
aVthis
p690
aVmorning
p691
ag55
asg56
(lp692
g58
ag58
ag58
ag58
ag58
ag58
ag58
ag58
ag58
ag58
ag58
asg60
(lp693
g64
ag65
aS'JJR'
p694
ag64
ag215
ag68
ag62
ag63
ag72
ag153
ag74
asg75
VMeet me comer Madison and -th at 8.30 this morning.
p695
sba(i__main__
Sentence
p696
(dp697
g17
I12
sg18
(lp698
S'We'
p699
aS'leave'
p700
aS'at'
p701
aS'noon'
p702
aS'.'
p703
asg37
(lp704
VWe
p705
aVleave
p706
aVat
p707
aVnoon
p708
ag55
asg56
(lp709
g58
ag58
ag58
ag58
ag58
asg60
(lp710
g65
aS'VBP'
p711
ag62
ag153
ag74
asg75
VWe leave at noon.
p712
sba(i__main__
Sentence
p713
(dp714
g17
I13
sg18
(lp715
S'PENITENT'
p716
aS'.'
p717
asg37
(lp718
VPENITENT
p719
ag55
asg56
(lp720
g58
ag58
asg60
(lp721
g153
ag74
asg75
VPENITENT.
p722
sba(i__main__
Sentence
p723
(dp724
g17
I14
sg18
(lp725
S'At'
p726
aS'8'
p727
aS"o'clock"
p728
aS'a'
p729
aS'young'
p730
aS'man'
p731
aS'with'
p732
aS'a'
p733
aS'haggard'
p734
aS'look'
p735
aS'and'
p736
aS'the'
p737
aS'feverish'
p738
aS'gleam'
p739
aS'of'
p740
aS'unrest'
p741
aS'in'
p742
aS'his'
p743
aS'eye'
p744
aS'dropped'
p745
aS'a'
p746
aS'penny'
p747
aS'and'
p748
aS'picked'
p749
aS'up'
p750
aS'the'
p751
aS'top'
p752
aS'paper'
p753
aS'as'
p754
aS'he'
p755
aS'passed'
p756
aS'Giuseppi'
p757
aS"'s"
p758
aS'stand'
p759
aS'.'
p760
asg37
(lp761
VAt
p762
ag40
aVo'clock
p763
ag138
aVyoung
p764
aVman
p765
aVwith
p766
ag138
aVhaggard
p767
aVlook
p768
aVand
p769
aVthe
p770
aVfeverish
p771
aVgleam
p772
aVof
p773
aVunrest
p774
aVin
p775
aVhis
p776
aVeye
p777
aVdrop
p778
ag138
aVpenny
p779
aVand
p780
aVpick
p781
aVup
p782
aVthe
p783
aVtop
p784
aVpaper
p785
ag138
aVhe
p786
aVpass
p787
aVGiuseppi
p788
aV's
p789
aVstand
p790
ag55
asg56
(lp791
g58
ag58
ag58
ag58
ag58
ag58
ag58
ag58
ag58
ag58
ag58
ag58
ag58
ag58
ag58
ag58
ag58
ag58
ag58
ag58
ag58
ag58
ag58
ag58
ag58
ag58
ag58
ag58
ag58
ag58
ag58
aVPERSON
p792
ag58
ag58
ag58
asg60
(lp793
g62
ag63
ag68
ag72
ag68
ag153
ag62
ag72
ag153
ag153
ag215
ag72
ag68
ag153
ag62
ag153
ag62
ag152
ag153
ag66
ag72
ag68
ag215
ag66
ag530
ag72
ag68
ag153
ag62
ag65
ag66
ag64
ag67
ag153
ag74
asg75
VAt 8 o'clock a young man with a haggard look and the feverish gleam of unrest in his eye dropped a penny and picked up the top paper as he passed Giuseppi's stand.
p794
sba(i__main__
Sentence
p795
(dp796
g17
I15
sg18
(lp797
S'A'
p798
aS'sleepless'
p799
aS'night'
p800
aS'had'
p801
aS'left'
p802
aS'him'
p803
aS'a'
p804
aS'late'
p805
aS'riser'
p806
aS'.'
p807
asg37
(lp808
VA
p809
aVsleepless
p810
aVnight
p811
ag511
aVleave
p812
aVhim
p813
ag138
aVlate
p814
aVriser
p815
ag55
asg56
(lp816
g58
ag58
ag58
ag58
ag58
ag58
ag58
ag58
ag58
ag58
asg60
(lp817
g72
ag153
ag153
ag66
ag155
ag65
ag72
ag68
ag153
ag74
asg75
VA sleepless night had left him a late riser.
p818
sba(i__main__
Sentence
p819
(dp820
g17
I16
sg18
(lp821
S'There'
p822
aS'was'
p823
aS'an'
p824
aS'office'
p825
aS'to'
p826
aS'be'
p827
aS'reached'
p828
aS'by'
p829
aS'nine'
p830
aS','
p831
aS'and'
p832
aS'a'
p833
aS'shave'
p834
aS'and'
p835
aS'a'
p836
aS'hasty'
p837
aS'cup'
p838
aS'of'
p839
aS'coffee'
p840
aS'to'
p841
aS'be'
p842
aS'crowded'
p843
aS'into'
p844
aS'the'
p845
aS'interval'
p846
aS'.'
p847
asg37
(lp848
VThere
p849
ag195
aVan
p850
aVoffice
p851
aVto
p852
aVbe
p853
aVreach
p854
aVby
p855
aVnine
p856
ag49
aVand
p857
ag138
aVshave
p858
aVand
p859
ag138
aVhasty
p860
aVcup
p861
aVof
p862
aVcoffee
p863
aVto
p864
aVbe
p865
aVcrowd
p866
aVinto
p867
aVthe
p868
aVinterval
p869
ag55
asg56
(lp870
g58
ag58
ag58
ag58
ag58
ag58
ag58
ag58
ag58
ag58
ag58
ag58
ag58
ag58
ag58
ag58
ag58
ag58
ag58
ag58
ag58
ag58
ag58
ag58
ag58
ag58
asg60
(lp871
g600
ag66
ag72
ag153
ag154
ag71
ag155
ag62
ag63
ag69
ag215
ag72
ag153
ag215
ag72
ag153
ag153
ag62
ag153
ag154
ag71
ag155
ag62
ag72
ag68
ag74
asg75
VThere was an office to be reached by nine, and a shave and a hasty cup of coffee to be crowded into the interval.
p872
sba(i__main__
Sentence
p873
(dp874
g17
I17
sg18
(lp875
S'He'
p876
aS'visited'
p877
aS'his'
p878
aS'barber'
p879
aS'shop'
p880
aS'and'
p881
aS'then'
p882
aS'hurried'
p883
aS'on'
p884
aS'his'
p885
aS'way'
p886
aS'.'
p887
asg37
(lp888
VHe
p889
aVvisit
p890
aVhis
p891
aVbarber
p892
aVshop
p893
aVand
p894
aVthen
p895
aVhurry
p896
aVon
p897
aVhis
p898
aVway
p899
ag55
asg56
(lp900
g58
ag58
ag58
ag58
ag58
ag58
ag58
ag58
ag58
ag58
ag58
ag58
asg60
(lp901
g65
ag66
ag152
ag153
ag153
ag215
ag70
ag66
ag62
ag152
ag153
ag74
asg75
VHe visited his barber shop and then hurried on his way.
p902
sba(i__main__
Sentence
p903
(dp904
g17
I18
sg18
(lp905
S'He'
p906
aS'pocketed'
p907
aS'his'
p908
aS'paper'
p909
aS','
p910
aS'meditating'
p911
aS'a'
p912
aS'belated'
p913
aS'perusal'
p914
aS'of'
p915
aS'it'
p916
aS'at'
p917
aS'the'
p918
aS'luncheon'
p919
aS'hour'
p920
aS'.'
p921
asg37
(lp922
VHe
p923
aVpocket
p924
aVhis
p925
aVpaper
p926
ag49
aVmeditate
p927
ag138
aVbelated
p928
aVperusal
p929
aVof
p930
aVit
p931
aVat
p932
aVthe
p933
aVluncheon
p934
aVhour
p935
ag55
asg56
(lp936
g58
ag58
ag58
ag58
ag58
ag58
ag58
ag58
ag58
ag58
ag58
ag58
ag58
ag58
ag58
ag58
asg60
(lp937
g65
ag66
ag152
ag153
ag69
ag151
ag72
ag68
ag153
ag62
ag65
ag62
ag72
ag153
ag153
ag74
asg75
VHe pocketed his paper, meditating a belated perusal of it at the luncheon hour.
p938
sba(i__main__
Sentence
p939
(dp940
g17
I19
sg18
(lp941
S'At'
p942
aS'the'
p943
aS'next'
p944
aS'corner'
p945
aS'it'
p946
aS'fell'
p947
aS'from'
p948
aS'his'
p949
aS'pocket'
p950
aS','
p951
aS'carrying'
p952
aS'with'
p953
aS'it'
p954
aS'his'
p955
aS'pair'
p956
aS'of'
p957
aS'new'
p958
aS'gloves'
p959
aS'.'
p960
asg37
(lp961
VAt
p962
aVthe
p963
aVnext
p964
aVcorner
p965
aVit
p966
aVfell
p967
aVfrom
p968
aVhis
p969
aVpocket
p970
ag49
aVcarry
p971
aVwith
p972
aVit
p973
aVhis
p974
aVpair
p975
aVof
p976
aVnew
p977
aVglove
p978
ag55
asg56
(lp979
g58
ag58
ag58
ag58
ag58
ag58
ag58
ag58
ag58
ag58
ag58
ag58
ag58
ag58
ag58
ag58
ag58
ag58
ag58
asg60
(lp980
g62
ag72
ag68
ag153
ag65
ag66
ag62
ag152
ag153
ag69
ag151
ag62
ag65
ag152
ag153
ag62
ag68
ag73
ag74
asg75
VAt the next corner it fell from his pocket, carrying with it his pair of new gloves.
p981
sba(i__main__
Sentence
p982
(dp983
g17
I20
sg18
(lp984
S'Three'
p985
aS'blocks'
p986
aS'he'
p987
aS'walked'
p988
aS','
p989
aS'missed'
p990
aS'the'
p991
aS'gloves'
p992
aS'and'
p993
aS'turned'
p994
aS'back'
p995
aS'fuming'
p996
aS'.'
p997
asg37
(lp998
VThree
p999
aVblock
p1000
aVhe
p1001
aVwalk
p1002
ag49
aVmiss
p1003
aVthe
p1004
aVglove
p1005
aVand
p1006
aVturn
p1007
aVback
p1008
aVfume
p1009
ag55
asg56
(lp1010
g58
ag58
ag58
ag58
ag58
ag58
ag58
ag58
ag58
ag58
ag58
ag58
ag58
asg60
(lp1011
g63
ag73
ag65
ag66
ag69
ag155
ag72
ag73
ag215
ag66
ag530
ag151
ag74
asg75
VThree blocks he walked, missed the gloves and turned back fuming.
p1012
sba(i__main__
Sentence
p1013
(dp1014
g17
I21
sg18
(lp1015
S'Just'
p1016
aS'on'
p1017
aS'the'
p1018
aS'half-hour'
p1019
aS'he'
p1020
aS'reached'
p1021
aS'the'
p1022
aS'corner'
p1023
aS'where'
p1024
aS'lay'
p1025
aS'the'
p1026
aS'gloves'
p1027
aS'and'
p1028
aS'the'
p1029
aS'paper'
p1030
aS'.'
p1031
asg37
(lp1032
VJust
p1033
aVon
p1034
aVthe
p1035
aVhalf-hour
p1036
aVhe
p1037
aVreach
p1038
aVthe
p1039
aVcorner
p1040
aVwhere
p1041
aVlay
p1042
aVthe
p1043
aVglove
p1044
aVand
p1045
aVthe
p1046
aVpaper
p1047
ag55
asg56
(lp1048
g58
ag58
ag58
ag58
ag58
ag58
ag58
ag58
ag58
ag58
ag58
ag58
ag58
ag58
ag58
ag58
asg60
(lp1049
g70
ag62
ag72
ag68
ag65
ag66
ag72
ag153
ag531
ag153
ag72
ag73
ag215
ag72
ag153
ag74
asg75
VJust on the half-hour he reached the corner where lay the gloves and the paper.
p1050
sba(i__main__
Sentence
p1051
(dp1052
g17
I22
sg18
(lp1053
S'But'
p1054
aS'he'
p1055
aS'strangely'
p1056
aS'ignored'
p1057
aS'that'
p1058
aS'which'
p1059
aS'he'
p1060
aS'had'
p1061
aS'come'
p1062
aS'to'
p1063
aS'seek'
p1064
aS'.'
p1065
asg37
(lp1066
VBut
p1067
aVhe
p1068
aVstrangely
p1069
aVignore
p1070
aVthat
p1071
aVwhich
p1072
aVhe
p1073
ag511
aVcome
p1074
aVto
p1075
aVseek
p1076
ag55
asg56
(lp1077
g58
ag58
ag58
ag58
ag58
ag58
ag58
ag58
ag58
ag58
ag58
ag58
asg60
(lp1078
g215
ag65
ag70
ag66
ag62
ag410
ag65
ag66
ag155
ag154
ag71
ag74
asg75
VBut he strangely ignored that which he had come to seek.
p1079
sba(i__main__
Sentence
p1080
(dp1081
g17
I23
sg18
(lp1082
S'He'
p1083
aS'was'
p1084
aS'holding'
p1085
aS'two'
p1086
aS'little'
p1087
aS'hands'
p1088
aS'as'
p1089
aS'tightly'
p1090
aS'as'
p1091
aS'ever'
p1092
aS'he'
p1093
aS'could'
p1094
aS'and'
p1095
aS'looking'
p1096
aS'into'
p1097
aS'two'
p1098
aS'penitent'
p1099
aS'brown'
p1100
aS'eyes'
p1101
aS','
p1102
aS'while'
p1103
aS'joy'
p1104
aS'rioted'
p1105
aS'in'
p1106
aS'his'
p1107
aS'heart'
p1108
aS'.'
p1109
asg37
(lp1110
VHe
p1111
ag195
aVhold
p1112
aVtwo
p1113
aVlittle
p1114
aVhand
p1115
ag138
aVtightly
p1116
ag138
aVever
p1117
aVhe
p1118
aVcould
p1119
aVand
p1120
aVlook
p1121
aVinto
p1122
aVtwo
p1123
aVpenitent
p1124
aVbrown
p1125
aVeye
p1126
ag49
aVwhile
p1127
aVjoy
p1128
aVriot
p1129
aVin
p1130
aVhis
p1131
aVheart
p1132
ag55
asg56
(lp1133
g58
ag58
ag58
ag58
ag58
ag58
ag58
ag58
ag58
ag58
ag58
ag58
ag58
ag58
ag58
ag58
ag58
ag58
ag58
ag58
ag58
ag58
ag58
ag58
ag58
ag58
ag58
asg60
(lp1134
g65
ag66
ag151
ag63
ag68
ag73
ag62
ag70
ag62
ag70
ag65
ag242
ag215
ag151
ag62
ag63
ag68
ag153
ag73
ag69
ag62
ag153
ag66
ag62
ag152
ag153
ag74
asg75
VHe was holding two little hands as tightly as ever he could and looking into two penitent brown eyes, while joy rioted in his heart.
p1135
sba(i__main__
Sentence
p1136
(dp1137
g17
I24
sg18
(lp1138
S'``'
p1139
aS'Dear'
p1140
aS'Jack'
p1141
aS','
p1142
aS"''"
p1143
aS'she'
p1144
aS'said'
p1145
aS','
p1146
aS'``'
p1147
aS'I'
p1148
aS'knew'
p1149
aS'you'
p1150
aS'would'
p1151
aS'be'
p1152
aS'here'
p1153
aS'on'
p1154
aS'time'
p1155
aS'.'
p1156
aS"''"
p1157
asg37
(lp1158
V``
p1159
aVDear
p1160
aVJack
p1161
ag49
aV''
p1162
aVshe
p1163
aVsay
p1164
ag49
aV``
p1165
aVI
p1166
aVknow
p1167
aVyou
p1168
aVwould
p1169
aVbe
p1170
aVhere
p1171
aVon
p1172
aVtime
p1173
ag55
aV''
p1174
asg56
(lp1175
g58
ag58
aVPERSON
p1176
ag58
ag58
ag58
ag58
ag58
ag58
ag58
ag58
ag58
ag58
ag58
ag58
ag58
ag58
ag58
ag58
asg60
(lp1177
g649
ag68
ag64
ag69
ag650
ag65
ag66
ag69
ag649
ag65
ag66
ag65
ag242
ag71
ag70
ag62
ag153
ag74
ag650
asg75
V"Dear Jack," she said, "I knew you would be here on time."
p1178
sba(i__main__
Sentence
p1179
(dp1180
g17
I25
sg18
(lp1181
S'``'
p1182
aS'I'
p1183
aS'wonder'
p1184
aS'what'
p1185
aS'she'
p1186
aS'means'
p1187
aS'by'
p1188
aS'that'
p1189
aS','
p1190
aS"''"
p1191
aS'he'
p1192
aS'was'
p1193
aS'saying'
p1194
aS'to'
p1195
aS'himself'
p1196
aS';'
p1197
aS'``'
p1198
aS'but'
p1199
aS'it'
p1200
aS"'s"
p1201
aS'all'
p1202
aS'right'
p1203
aS','
p1204
aS'it'
p1205
aS"'s"
p1206
aS'all'
p1207
aS'right'
p1208
aS'.'
p1209
aS"''"
p1210
asg37
(lp1211
V``
p1212
ag1166
aVwonder
p1213
aVwhat
p1214
aVshe
p1215
aVmean
p1216
aVby
p1217
aVthat
p1218
ag49
aV''
p1219
aVhe
p1220
ag195
aVsay
p1221
aVto
p1222
aVhimself
p1223
aV;
p1224
aV``
p1225
aVbut
p1226
aVit
p1227
aV's
p1228
aVall
p1229
aVright
p1230
ag49
aVit
p1231
aV's
p1232
aVall
p1233
aVright
p1234
ag55
aV''
p1235
asg56
(lp1236
g58
ag58
ag58
ag58
ag58
ag58
ag58
ag58
ag58
ag58
ag58
ag58
ag58
ag58
ag58
ag58
ag58
ag58
ag58
ag58
ag58
ag58
ag58
ag58
ag58
ag58
ag58
ag58
ag58
asg60
(lp1237
g649
ag65
ag711
ag349
ag65
aS'VBZ'
p1238
ag62
ag72
ag69
ag650
ag65
ag66
ag151
ag154
ag65
ag651
ag649
ag215
ag65
ag1238
ag72
ag70
ag69
ag65
ag1238
ag72
ag70
ag74
ag650
asg75
V"I wonder what she means by that," he was saying to himself; "but it's all right, it's all right."
p1239
sba(i__main__
Sentence
p1240
(dp1241
g17
I26
sg18
(lp1242
S'A'
p1243
aS'big'
p1244
aS'wind'
p1245
aS'puffed'
p1246
aS'out'
p1247
aS'of'
p1248
aS'the'
p1249
aS'west'
p1250
aS','
p1251
aS'picked'
p1252
aS'up'
p1253
aS'the'
p1254
aS'paper'
p1255
aS'from'
p1256
aS'the'
p1257
aS'sidewalk'
p1258
aS','
p1259
aS'opened'
p1260
aS'it'
p1261
aS'out'
p1262
aS'and'
p1263
aS'sent'
p1264
aS'it'
p1265
aS'flying'
p1266
aS'and'
p1267
aS'whirling'
p1268
aS'down'
p1269
aS'a'
p1270
aS'side'
p1271
aS'street'
p1272
aS'.'
p1273
asg37
(lp1274
g809
aVbig
p1275
aVwind
p1276
aVpuff
p1277
aVout
p1278
aVof
p1279
aVthe
p1280
aVwest
p1281
ag49
aVpick
p1282
aVup
p1283
aVthe
p1284
aVpaper
p1285
aVfrom
p1286
aVthe
p1287
aVsidewalk
p1288
ag49
aVopen
p1289
aVit
p1290
aVout
p1291
aVand
p1292
aVsent
p1293
aVit
p1294
aVfly
p1295
aVand
p1296
aVwhirl
p1297
aVdown
p1298
ag138
aVside
p1299
aVstreet
p1300
ag55
asg56
(lp1301
g58
ag58
ag58
ag58
ag58
ag58
ag58
ag58
ag58
ag58
ag58
ag58
ag58
ag58
ag58
ag58
ag58
ag58
ag58
ag58
ag58
ag58
ag58
ag58
ag58
ag58
ag58
ag58
ag58
ag58
ag58
asg60
(lp1302
g72
ag68
ag153
ag66
ag530
ag62
ag72
ag153
ag69
ag66
ag530
ag72
ag153
ag62
ag72
ag153
ag69
ag66
ag65
ag62
ag215
ag153
ag65
ag151
ag215
ag151
ag62
ag72
ag153
ag153
ag74
asg75
VA big wind puffed out of the west, picked up the paper from the sidewalk, opened it out and sent it flying and whirling down a side street.
p1303
sba(i__main__
Sentence
p1304
(dp1305
g17
I27
sg18
(lp1306
S'Up'
p1307
aS'that'
p1308
aS'street'
p1309
aS'was'
p1310
aS'driving'
p1311
aS'a'
p1312
aS'skittish'
p1313
aS'bay'
p1314
aS'to'
p1315
aS'a'
p1316
aS'spider-wheel'
p1317
aS'buggy'
p1318
aS','
p1319
aS'the'
p1320
aS'young'
p1321
aS'man'
p1322
aS'who'
p1323
aS'had'
p1324
aS'written'
p1325
aS'to'
p1326
aS'the'
p1327
aS'heart-to-heart'
p1328
aS'editor'
p1329
aS'for'
p1330
aS'a'
p1331
aS'recipe'
p1332
aS'that'
p1333
aS'he'
p1334
aS'might'
p1335
aS'win'
p1336
aS'her'
p1337
aS'for'
p1338
aS'whom'
p1339
aS'he'
p1340
aS'sighed'
p1341
aS'.'
p1342
asg37
(lp1343
VUp
p1344
aVthat
p1345
aVstreet
p1346
ag195
aVdrive
p1347
ag138
aVskittish
p1348
aVbay
p1349
aVto
p1350
ag138
aVspider-wheel
p1351
aVbuggy
p1352
ag49
aVthe
p1353
aVyoung
p1354
aVman
p1355
aVwho
p1356
ag511
aVwrite
p1357
aVto
p1358
aVthe
p1359
aVheart-to-heart
p1360
aVeditor
p1361
aVfor
p1362
ag138
aVrecipe
p1363
aVthat
p1364
aVhe
p1365
aVmight
p1366
aVwin
p1367
aVher
p1368
aVfor
p1369
aVwhom
p1370
aVhe
p1371
aVsigh
p1372
ag55
asg56
(lp1373
g58
ag58
ag58
ag58
ag58
ag58
ag58
ag58
ag58
ag58
ag58
ag58
ag58
ag58
ag58
ag58
ag58
ag58
ag58
ag58
ag58
ag58
ag58
ag58
ag58
ag58
ag58
ag58
ag58
ag58
ag58
ag58
ag58
ag58
ag58
ag58
asg60
(lp1374
g62
ag72
ag153
ag66
ag151
ag72
ag68
ag153
ag154
ag72
ag68
ag153
ag69
ag72
ag68
ag153
ag349
ag66
ag155
ag154
ag72
ag153
ag153
ag62
ag72
ag153
ag410
ag65
ag242
ag71
ag65
ag62
ag349
ag65
ag66
ag74
asg75
VUp that street was driving a skittish bay to a spider-wheel buggy, the young man who had written to the heart-to-heart editor for a recipe that he might win her for whom he sighed.
p1375
sba(i__main__
Sentence
p1376
(dp1377
g17
I28
sg18
(lp1378
S'The'
p1379
aS'wind'
p1380
aS','
p1381
aS'with'
p1382
aS'a'
p1383
aS'prankish'
p1384
aS'flurry'
p1385
aS','
p1386
aS'flapped'
p1387
aS'the'
p1388
aS'flying'
p1389
aS'newspaper'
p1390
aS'against'
p1391
aS'the'
p1392
aS'face'
p1393
aS'of'
p1394
aS'the'
p1395
aS'skittish'
p1396
aS'bay'
p1397
aS'.'
p1398
asg37
(lp1399
VThe
p1400
aVwind
p1401
ag49
aVwith
p1402
ag138
aVprankish
p1403
aVflurry
p1404
ag49
aVflap
p1405
aVthe
p1406
aVflying
p1407
aVnewspaper
p1408
aVagainst
p1409
aVthe
p1410
aVface
p1411
aVof
p1412
aVthe
p1413
aVskittish
p1414
aVbay
p1415
ag55
asg56
(lp1416
g58
ag58
ag58
ag58
ag58
ag58
ag58
ag58
ag58
ag58
ag58
ag58
ag58
ag58
ag58
ag58
ag58
ag58
ag58
ag58
asg60
(lp1417
g72
ag153
ag69
ag62
ag72
ag68
ag153
ag69
ag66
ag72
ag153
ag153
ag62
ag72
ag153
ag62
ag72
ag68
ag153
ag74
asg75
VThe wind, with a prankish flurry, flapped the flying newspaper against the face of the skittish bay.
p1418
sba(i__main__
Sentence
p1419
(dp1420
g17
I29
sg18
(lp1421
S'There'
p1422
aS'was'
p1423
aS'a'
p1424
aS'lengthened'
p1425
aS'streak'
p1426
aS'of'
p1427
aS'bay'
p1428
aS'mingled'
p1429
aS'with'
p1430
aS'the'
p1431
aS'red'
p1432
aS'of'
p1433
aS'running'
p1434
aS'gear'
p1435
aS'that'
p1436
aS'stretched'
p1437
aS'itself'
p1438
aS'out'
p1439
aS'for'
p1440
aS'four'
p1441
aS'blocks'
p1442
aS'.'
p1443
asg37
(lp1444
VThere
p1445
ag195
ag138
aVlengthen
p1446
aVstreak
p1447
aVof
p1448
aVbay
p1449
aVmingle
p1450
aVwith
p1451
aVthe
p1452
aVred
p1453
aVof
p1454
ag639
aVgear
p1455
aVthat
p1456
aVstretched
p1457
aVitself
p1458
aVout
p1459
aVfor
p1460
aVfour
p1461
aVblock
p1462
ag55
asg56
(lp1463
g58
ag58
ag58
ag58
ag58
ag58
ag58
ag58
ag58
ag58
ag58
ag58
ag58
ag58
ag58
ag58
ag58
ag58
ag58
ag58
ag58
ag58
asg60
(lp1464
g600
ag66
ag72
ag155
ag153
ag62
ag153
ag155
ag62
ag72
ag153
ag62
ag151
ag68
ag62
ag68
ag65
ag62
ag62
ag63
ag73
ag74
asg75
VThere was a lengthened streak of bay mingled with the red of running gear that stretched itself out for four blocks.
p1465
sba(i__main__
Sentence
p1466
(dp1467
g17
I30
sg18
(lp1468
S'Then'
p1469
aS'a'
p1470
aS'water-hydrant'
p1471
aS'played'
p1472
aS'its'
p1473
aS'part'
p1474
aS'in'
p1475
aS'the'
p1476
aS'cosmogony'
p1477
aS','
p1478
aS'the'
p1479
aS'buggy'
p1480
aS'became'
p1481
aS'matchwood'
p1482
aS'as'
p1483
aS'foreordained'
p1484
aS','
p1485
aS'and'
p1486
aS'the'
p1487
aS'driver'
p1488
aS'rested'
p1489
aS'very'
p1490
aS'quietly'
p1491
aS'where'
p1492
aS'he'
p1493
aS'had'
p1494
aS'been'
p1495
aS'flung'
p1496
aS'on'
p1497
aS'the'
p1498
aS'asphalt'
p1499
aS'in'
p1500
aS'front'
p1501
aS'of'
p1502
aS'a'
p1503
aS'certain'
p1504
aS'brownstone'
p1505
aS'mansion'
p1506
aS'.'
p1507
asg37
(lp1508
VThen
p1509
ag138
aVwater-hydrant
p1510
aVplay
p1511
aVit
p1512
aVpart
p1513
aVin
p1514
aVthe
p1515
aVcosmogony
p1516
ag49
aVthe
p1517
aVbuggy
p1518
aVbecome
p1519
aVmatchwood
p1520
ag138
aVforeordain
p1521
ag49
aVand
p1522
aVthe
p1523
aVdriver
p1524
aVrest
p1525
aVvery
p1526
aVquietly
p1527
aVwhere
p1528
aVhe
p1529
ag511
aVbe
p1530
aVfling
p1531
aVon
p1532
aVthe
p1533
aVasphalt
p1534
aVin
p1535
aVfront
p1536
aVof
p1537
ag138
aVcertain
p1538
aVbrownstone
p1539
aVmansion
p1540
ag55
asg56
(lp1541
g58
ag58
ag58
ag58
ag58
ag58
ag58
ag58
ag58
ag58
ag58
ag58
ag58
ag58
ag58
ag58
ag58
ag58
ag58
ag58
ag58
ag58
ag58
ag58
ag58
ag58
ag58
ag58
ag58
ag58
ag58
ag58
ag58
ag58
ag58
ag58
ag58
ag58
ag58
asg60
(lp1542
g70
ag72
ag68
ag155
ag152
ag153
ag62
ag72
ag153
ag69
ag72
ag153
ag66
ag153
ag62
ag155
ag69
ag215
ag72
ag153
ag66
ag70
ag70
ag531
ag65
ag66
ag155
ag155
ag62
ag72
ag153
ag62
ag153
ag62
ag72
ag68
ag153
ag153
ag74
asg75
VThen a water-hydrant played its part in the cosmogony, the buggy became matchwood as foreordained, and the driver rested very quietly where he had been flung on the asphalt in front of a certain brownstone mansion.
p1543
sba(i__main__
Sentence
p1544
(dp1545
g17
I31
sg18
(lp1546
S'They'
p1547
aS'came'
p1548
aS'out'
p1549
aS'and'
p1550
aS'had'
p1551
aS'him'
p1552
aS'inside'
p1553
aS'very'
p1554
aS'promptly'
p1555
aS'.'
p1556
asg37
(lp1557
VThey
p1558
aVcome
p1559
aVout
p1560
aVand
p1561
ag511
aVhim
p1562
aVinside
p1563
aVvery
p1564
aVpromptly
p1565
ag55
asg56
(lp1566
g58
ag58
ag58
ag58
ag58
ag58
ag58
ag58
ag58
ag58
asg60
(lp1567
g65
ag66
ag530
ag215
ag66
ag65
ag711
ag70
ag70
ag74
asg75
VThey came out and had him inside very promptly.
p1568
sba(i__main__
Sentence
p1569
(dp1570
g17
I32
sg18
(lp1571
S'And'
p1572
aS'there'
p1573
aS'was'
p1574
aS'one'
p1575
aS'who'
p1576
aS'made'
p1577
aS'herself'
p1578
aS'a'
p1579
aS'pillow'
p1580
aS'for'
p1581
aS'his'
p1582
aS'head'
p1583
aS','
p1584
aS'and'
p1585
aS'cared'
p1586
aS'for'
p1587
aS'no'
p1588
aS'curious'
p1589
aS'eyes'
p1590
aS','
p1591
aS'bending'
p1592
aS'over'
p1593
aS'and'
p1594
aS'saying'
p1595
aS','
p1596
aS'``'
p1597
aS'Oh'
p1598
aS','
p1599
aS'it'
p1600
aS'was'
p1601
aS'you'
p1602
aS';'
p1603
aS'it'
p1604
aS'was'
p1605
aS'you'
p1606
aS'all'
p1607
aS'the'
p1608
aS'time'
p1609
aS','
p1610
aS'Bobby'
p1611
aS'!'
p1612
asg37
(lp1613
VAnd
p1614
aVthere
p1615
ag195
aVone
p1616
aVwho
p1617
aVmake
p1618
aVherself
p1619
ag138
aVpillow
p1620
aVfor
p1621
aVhis
p1622
aVhead
p1623
ag49
aVand
p1624
aVcare
p1625
aVfor
p1626
aVno
p1627
aVcurious
p1628
aVeye
p1629
ag49
aVbend
p1630
aVover
p1631
aVand
p1632
aVsay
p1633
ag49
aV``
p1634
aVOh
p1635
ag49
aVit
p1636
ag195
aVyou
p1637
ag1224
aVit
p1638
ag195
aVyou
p1639
aVall
p1640
aVthe
p1641
aVtime
p1642
ag49
aVBobby
p1643
aV!
p1644
asg56
(lp1645
g58
ag58
ag58
ag58
ag58
ag58
ag58
ag58
ag58
ag58
ag58
ag58
ag58
ag58
ag58
ag58
ag58
ag58
ag58
ag58
ag58
ag58
ag58
ag58
ag58
ag58
ag58
ag58
ag58
ag58
ag58
ag58
ag58
ag58
ag58
ag58
ag58
ag58
ag58
aVPERSON
p1646
ag58
asg60
(lp1647
g215
ag600
ag66
ag63
ag349
ag155
ag65
ag72
ag153
ag62
ag152
ag153
ag69
ag215
ag66
ag62
ag72
ag68
ag73
ag69
ag151
ag62
ag215
ag151
ag69
ag649
aS'UH'
p1648
ag69
ag65
ag66
ag65
ag651
ag65
ag66
ag65
ag70
ag72
ag153
ag69
ag64
ag74
asg75
VAnd there was one who made herself a pillow for his head, and cared for no curious eyes, bending over and saying, "Oh, it was you; it was you all the time, Bobby!
p1649
sba(i__main__
Sentence
p1650
(dp1651
g17
I33
sg18
(lp1652
S'Could'
p1653
aS"n't"
p1654
aS'you'
p1655
aS'see'
p1656
aS'it'
p1657
aS'?'
p1658
asg37
(lp1659
VCould
p1660
aVn't
p1661
aVyou
p1662
aVsee
p1663
aVit
p1664
aV?
p1665
asg56
(lp1666
g58
ag58
ag58
ag58
ag58
ag58
asg60
(lp1667
g242
ag70
ag65
ag71
ag65
ag74
asg75
VCouldn't you see it?
p1668
sba(i__main__
Sentence
p1669
(dp1670
g17
I34
sg18
(lp1671
S'And'
p1672
aS'if'
p1673
aS'you'
p1674
aS'die'
p1675
aS','
p1676
aS'why'
p1677
aS','
p1678
aS'so'
p1679
aS'must'
p1680
aS'I'
p1681
aS','
p1682
aS'and'
p1683
aS'--'
p1684
aS'``'
p1685
aS'But'
p1686
aS'in'
p1687
aS'all'
p1688
aS'this'
p1689
aS'wind'
p1690
aS'we'
p1691
aS'must'
p1692
aS'hurry'
p1693
aS'to'
p1694
aS'keep'
p1695
aS'in'
p1696
aS'touch'
p1697
aS'with'
p1698
aS'our'
p1699
aS'paper'
p1700
aS'.'
p1701
asg37
(lp1702
VAnd
p1703
aVif
p1704
aVyou
p1705
aVdie
p1706
ag49
aVwhy
p1707
ag49
aVso
p1708
aVmust
p1709
ag1166
ag49
aVand
p1710
aV--
p1711
aV``
p1712
aVBut
p1713
aVin
p1714
aVall
p1715
aVthis
p1716
aVwind
p1717
aVwe
p1718
aVmust
p1719
aVhurry
p1720
aVto
p1721
aVkeep
p1722
aVin
p1723
aVtouch
p1724
aVwith
p1725
aVour
p1726
aVpaper
p1727
ag55
asg56
(lp1728
g58
ag58
ag58
ag58
ag58
ag58
ag58
ag58
ag58
ag58
ag58
ag58
ag58
ag58
ag58
ag58
ag58
ag58
ag58
ag58
ag58
ag58
ag58
ag58
ag58
ag58
ag58
ag58
ag58
ag58
asg60
(lp1729
g215
ag62
ag65
ag711
ag69
ag531
ag69
ag70
ag242
ag65
ag69
ag215
ag651
ag649
ag215
ag62
ag72
ag72
ag153
ag65
ag242
ag71
ag154
ag71
ag62
ag153
ag62
ag152
ag153
ag74
asg75
VAnd if you die, why, so must I, and -- "    But in all this wind we must hurry to keep in touch with our paper.
p1730
sba(i__main__
Sentence
p1731
(dp1732
g17
I35
sg18
(lp1733
S'Policeman'
p1734
aS"O'Brine"
p1735
aS'arrested'
p1736
aS'it'
p1737
aS'as'
p1738
aS'a'
p1739
aS'character'
p1740
aS'dangerous'
p1741
aS'to'
p1742
aS'traffic'
p1743
aS'.'
p1744
asg37
(lp1745
VPoliceman
p1746
aVO'Brine
p1747
aVarrest
p1748
aVit
p1749
ag138
ag138
aVcharacter
p1750
aVdangerous
p1751
aVto
p1752
aVtraffic
p1753
ag55
asg56
(lp1754
g58
aVPERSON
p1755
ag58
ag58
ag58
ag58
ag58
ag58
ag58
ag58
ag58
asg60
(lp1756
g64
ag153
ag66
ag65
ag62
ag72
ag153
ag68
ag154
ag68
ag74
asg75
VPoliceman O'Brine arrested it as a character dangerous to traffic.
p1757
sba(i__main__
Sentence
p1758
(dp1759
g17
I36
sg18
(lp1760
S'Straightening'
p1761
aS'its'
p1762
aS'dishevelled'
p1763
aS'leaves'
p1764
aS'with'
p1765
aS'his'
p1766
aS'big'
p1767
aS','
p1768
aS'slow'
p1769
aS'fingers'
p1770
aS','
p1771
aS'he'
p1772
aS'stood'
p1773
aS'a'
p1774
aS'few'
p1775
aS'feet'
p1776
aS'from'
p1777
aS'the'
p1778
aS'family'
p1779
aS'entrance'
p1780
aS'of'
p1781
aS'the'
p1782
aS'Shandon'
p1783
aS'Bells'
p1784
aS'Caf'
p1785
aS'.'
p1786
asg37
(lp1787
VStraightening
p1788
aVit
p1789
aVdishevelled
p1790
aVleaf
p1791
aVwith
p1792
aVhis
p1793
aVbig
p1794
ag49
aVslow
p1795
aVfinger
p1796
ag49
aVhe
p1797
aVstand
p1798
ag138
aVfew
p1799
aVfoot
p1800
aVfrom
p1801
aVthe
p1802
aVfamily
p1803
aVentrance
p1804
aVof
p1805
aVthe
p1806
aVShandon
p1807
aVBells
p1808
aVCaf
p1809
ag55
asg56
(lp1810
g58
ag58
ag58
ag58
ag58
ag58
ag58
ag58
ag58
ag58
ag58
ag58
ag58
ag58
ag58
ag58
ag58
ag58
ag58
ag58
ag58
ag58
aVORGANIZATION
p1811
aVORGANIZATION
p1812
aVORGANIZATION
p1813
ag58
asg60
(lp1814
g151
ag152
ag68
ag73
ag62
ag152
ag68
ag69
ag68
ag73
ag69
ag65
ag66
ag72
ag68
ag153
ag62
ag72
ag153
ag153
ag62
ag72
ag64
ag64
ag64
ag74
asg75
VStraightening its dishevelled leaves with his big, slow fingers, he stood a few feet from the family entrance of the Shandon Bells Caf.
p1815
sba(i__main__
Sentence
p1816
(dp1817
g17
I37
sg18
(lp1818
S'One'
p1819
aS'headline'
p1820
aS'he'
p1821
aS'spelled'
p1822
aS'out'
p1823
aS'ponderously'
p1824
aS':'
p1825
aS'``'
p1826
aS'The'
p1827
aS'Papers'
p1828
aS'to'
p1829
aS'the'
p1830
aS'Front'
p1831
aS'in'
p1832
aS'a'
p1833
aS'Move'
p1834
aS'to'
p1835
aS'Help'
p1836
aS'the'
p1837
aS'Police'
p1838
aS'.'
p1839
aS"''"
p1840
asg37
(lp1841
VOne
p1842
aVheadline
p1843
aVhe
p1844
aVspell
p1845
aVout
p1846
aVponderously
p1847
ag641
aV``
p1848
aVThe
p1849
aVPapers
p1850
aVto
p1851
aVthe
p1852
aVFront
p1853
aVin
p1854
ag138
aVMove
p1855
aVto
p1856
aVHelp
p1857
aVthe
p1858
aVPolice
p1859
ag55
aV''
p1860
asg56
(lp1861
g58
ag58
ag58
ag58
ag58
ag58
ag58
ag58
ag58
ag58
ag58
ag58
ag58
ag58
ag58
ag58
ag58
ag58
ag58
ag58
ag58
ag58
asg60
(lp1862
g63
ag153
ag65
ag66
ag530
ag70
ag651
ag649
ag72
ag64
ag154
ag72
ag64
ag62
ag72
ag64
ag154
ag64
ag72
ag64
ag74
ag650
asg75
VOne headline he spelled out ponderously: "The Papers to the Front in a Move to Help the Police."
p1863
sba(i__main__
Sentence
p1864
(dp1865
g17
I38
sg18
(lp1866
S'But'
p1867
aS','
p1868
aS'whisht'
p1869
aS'!'
p1870
asg37
(lp1871
VBut
p1872
ag49
aVwhisht
p1873
ag1644
asg56
(lp1874
g58
ag58
ag58
ag58
asg60
(lp1875
g215
ag69
ag66
ag74
asg75
VBut, whisht!
p1876
sba(i__main__
Sentence
p1877
(dp1878
g17
I39
sg18
(lp1879
S'The'
p1880
aS'voice'
p1881
aS'of'
p1882
aS'Danny'
p1883
aS','
p1884
aS'the'
p1885
aS'head'
p1886
aS'bartender'
p1887
aS','
p1888
aS'through'
p1889
aS'the'
p1890
aS'crack'
p1891
aS'of'
p1892
aS'the'
p1893
aS'door'
p1894
aS':'
p1895
aS'``'
p1896
aS'Here'
p1897
aS"'s"
p1898
aS'a'
p1899
aS'nip'
p1900
aS'for'
p1901
aS'ye'
p1902
aS','
p1903
aS'Mike'
p1904
aS','
p1905
aS'ould'
p1906
aS'man'
p1907
aS'.'
p1908
aS"''"
p1909
asg37
(lp1910
VThe
p1911
aVvoice
p1912
aVof
p1913
aVDanny
p1914
ag49
aVthe
p1915
aVhead
p1916
aVbartender
p1917
ag49
aVthrough
p1918
aVthe
p1919
aVcrack
p1920
aVof
p1921
aVthe
p1922
aVdoor
p1923
ag641
aV``
p1924
aVHere
p1925
aV's
p1926
ag138
aVnip
p1927
aVfor
p1928
aVye
p1929
ag49
aVMike
p1930
ag49
aVould
p1931
aVman
p1932
ag55
aV''
p1933
asg56
(lp1934
g58
ag58
ag58
aVPERSON
p1935
ag58
ag58
ag58
ag58
ag58
ag58
ag58
ag58
ag58
ag58
ag58
ag58
ag58
ag58
ag58
ag58
ag58
ag58
ag58
ag58
aVPERSON
p1936
ag58
ag58
ag58
ag58
ag58
asg60
(lp1937
g72
ag153
ag62
ag64
ag69
ag72
ag153
ag153
ag69
ag62
ag72
ag153
ag62
ag72
ag153
ag651
ag649
ag70
ag1238
ag72
ag153
ag62
ag153
ag69
ag64
ag69
ag242
ag71
ag74
ag650
asg75
VThe voice of Danny, the head bartender, through the crack of the door: "Here's a nip for ye, Mike, ould man."
p1938
sba(i__main__
Sentence
p1939
(dp1940
g17
I40
sg18
(lp1941
S'Behind'
p1942
aS'the'
p1943
aS'widespread'
p1944
aS','
p1945
aS'amicable'
p1946
aS'columns'
p1947
aS'of'
p1948
aS'the'
p1949
aS'press'
p1950
aS'Policeman'
p1951
aS"O'Brine"
p1952
aS'receives'
p1953
aS'swiftly'
p1954
aS'his'
p1955
aS'nip'
p1956
aS'of'
p1957
aS'the'
p1958
aS'real'
p1959
aS'stuff'
p1960
aS'.'
p1961
asg37
(lp1962
VBehind
p1963
aVthe
p1964
aVwidespread
p1965
ag49
aVamicable
p1966
aVcolumn
p1967
aVof
p1968
aVthe
p1969
aVpress
p1970
aVPoliceman
p1971
aVO'Brine
p1972
aVreceive
p1973
aVswiftly
p1974
aVhis
p1975
aVnip
p1976
aVof
p1977
aVthe
p1978
aVreal
p1979
aVstuff
p1980
ag55
asg56
(lp1981
g58
ag58
ag58
ag58
ag58
ag58
ag58
ag58
ag58
ag58
aVPERSON
p1982
ag58
ag58
ag58
ag58
ag58
ag58
ag58
ag58
ag58
asg60
(lp1983
g62
ag72
ag68
ag69
ag68
ag73
ag62
ag72
ag153
ag64
ag64
ag1238
ag70
ag152
ag153
ag62
ag72
ag68
ag153
ag74
asg75
VBehind the widespread, amicable columns of the press Policeman O'Brine receives swiftly his nip of the real stuff.
p1984
sba(i__main__
Sentence
p1985
(dp1986
g17
I41
sg18
(lp1987
S'He'
p1988
aS'moves'
p1989
aS'away'
p1990
aS','
p1991
aS'stalwart'
p1992
aS','
p1993
aS'refreshed'
p1994
aS','
p1995
aS'fortified'
p1996
aS','
p1997
aS'to'
p1998
aS'his'
p1999
aS'duties'
p2000
aS'.'
p2001
asg37
(lp2002
VHe
p2003
aVmove
p2004
aVaway
p2005
ag49
aVstalwart
p2006
ag49
aVrefresh
p2007
ag49
aVfortify
p2008
ag49
aVto
p2009
aVhis
p2010
aVduty
p2011
ag55
asg56
(lp2012
g58
ag58
ag58
ag58
ag58
ag58
ag58
ag58
ag58
ag58
ag58
ag58
ag58
ag58
asg60
(lp2013
g65
ag1238
ag70
ag69
ag153
ag69
ag66
ag69
ag155
ag69
ag154
ag152
ag73
ag74
asg75
VHe moves away, stalwart, refreshed, fortified, to his duties.
p2014
sba(i__main__
Sentence
p2015
(dp2016
g17
I42
sg18
(lp2017
S'Might'
p2018
aS'not'
p2019
aS'the'
p2020
aS'editor'
p2021
aS'man'
p2022
aS'view'
p2023
aS'with'
p2024
aS'pride'
p2025
aS'the'
p2026
aS'early'
p2027
aS','
p2028
aS'the'
p2029
aS'spiritual'
p2030
aS','
p2031
aS'the'
p2032
aS'literal'
p2033
aS'fruit'
p2034
aS'that'
p2035
aS'had'
p2036
aS'blessed'
p2037
aS'his'
p2038
aS'labours'
p2039
aS'.'
p2040
asg37
(lp2041
VMight
p2042
aVnot
p2043
aVthe
p2044
aVeditor
p2045
aVman
p2046
aVview
p2047
aVwith
p2048
aVpride
p2049
aVthe
p2050
aVearly
p2051
ag49
aVthe
p2052
aVspiritual
p2053
ag49
aVthe
p2054
aVliteral
p2055
aVfruit
p2056
aVthat
p2057
ag511
aVbless
p2058
aVhis
p2059
aVlabour
p2060
ag55
asg56
(lp2061
g58
ag58
ag58
ag58
ag58
ag58
ag58
ag58
ag58
ag58
ag58
ag58
ag58
ag58
ag58
ag58
ag58
ag58
ag58
ag58
ag58
ag58
ag58
asg60
(lp2062
g64
ag70
ag72
ag153
ag153
ag153
ag62
ag153
ag72
ag68
ag69
ag72
ag68
ag69
ag72
ag68
ag153
ag410
ag66
ag155
ag152
ag73
ag74
asg75
VMight not the editor man view with pride the early, the spiritual, the literal fruit that had blessed his labours.
p2063
sba(i__main__
Sentence
p2064
(dp2065
g17
I43
sg18
(lp2066
S'Policeman'
p2067
aS"O'Brine"
p2068
aS'folded'
p2069
aS'the'
p2070
aS'paper'
p2071
aS'and'
p2072
aS'poked'
p2073
aS'it'
p2074
aS'playfully'
p2075
aS'under'
p2076
aS'the'
p2077
aS'arm'
p2078
aS'of'
p2079
aS'a'
p2080
aS'small'
p2081
aS'boy'
p2082
aS'that'
p2083
aS'was'
p2084
aS'passing'
p2085
aS'.'
p2086
asg37
(lp2087
VPoliceman
p2088
aVO'Brine
p2089
aVfold
p2090
aVthe
p2091
aVpaper
p2092
aVand
p2093
aVpoke
p2094
aVit
p2095
aVplayfully
p2096
aVunder
p2097
aVthe
p2098
aVarm
p2099
aVof
p2100
ag138
aVsmall
p2101
aVboy
p2102
aVthat
p2103
ag195
aVpass
p2104
ag55
asg56
(lp2105
g58
aVPERSON
p2106
ag58
ag58
ag58
ag58
ag58
ag58
ag58
ag58
ag58
ag58
ag58
ag58
ag58
ag58
ag58
ag58
ag58
ag58
asg60
(lp2107
g64
ag153
ag66
ag72
ag153
ag215
ag66
ag65
ag70
ag62
ag72
ag153
ag62
ag72
ag68
ag153
ag410
ag66
ag151
ag74
asg75
VPoliceman O'Brine folded the paper and poked it playfully under the arm of a small boy that was passing.
p2108
sba(i__main__
Sentence
p2109
(dp2110
g17
I44
sg18
(lp2111
S'That'
p2112
aS'boy'
p2113
aS'was'
p2114
aS'named'
p2115
aS'Johnny'
p2116
aS','
p2117
aS'and'
p2118
aS'he'
p2119
aS'took'
p2120
aS'the'
p2121
aS'paper'
p2122
aS'home'
p2123
aS'with'
p2124
aS'him'
p2125
aS'.'
p2126
asg37
(lp2127
VThat
p2128
aVboy
p2129
ag195
aVname
p2130
aVJohnny
p2131
ag49
aVand
p2132
aVhe
p2133
aVtake
p2134
aVthe
p2135
aVpaper
p2136
aVhome
p2137
aVwith
p2138
aVhim
p2139
ag55
asg56
(lp2140
g58
ag58
ag58
ag58
aVPERSON
p2141
ag58
ag58
ag58
ag58
ag58
ag58
ag58
ag58
ag58
ag58
asg60
(lp2142
g72
ag153
ag66
ag155
ag64
ag69
ag215
ag65
ag66
ag72
ag153
ag153
ag62
ag65
ag74
asg75
VThat boy was named Johnny, and he took the paper home with him.
p2143
sba(i__main__
Sentence
p2144
(dp2145
g17
I45
sg18
(lp2146
S'His'
p2147
aS'sister'
p2148
aS'was'
p2149
aS'named'
p2150
aS'Gladys'
p2151
aS','
p2152
aS'and'
p2153
aS'she'
p2154
aS'had'
p2155
aS'written'
p2156
aS'to'
p2157
aS'the'
p2158
aS'beauty'
p2159
aS'editor'
p2160
aS'of'
p2161
aS'the'
p2162
aS'paper'
p2163
aS'asking'
p2164
aS'for'
p2165
aS'the'
p2166
aS'practicable'
p2167
aS'touchstone'
p2168
aS'of'
p2169
aS'beauty'
p2170
aS'.'
p2171
asg37
(lp2172
VHis
p2173
aVsister
p2174
ag195
aVname
p2175
aVGladys
p2176
ag49
aVand
p2177
aVshe
p2178
ag511
ag1357
aVto
p2179
aVthe
p2180
aVbeauty
p2181
aVeditor
p2182
aVof
p2183
aVthe
p2184
aVpaper
p2185
aVask
p2186
aVfor
p2187
aVthe
p2188
aVpracticable
p2189
aVtouchstone
p2190
aVof
p2191
aVbeauty
p2192
ag55
asg56
(lp2193
g58
ag58
ag58
ag58
aVPERSON
p2194
ag58
ag58
ag58
ag58
ag58
ag58
ag58
ag58
ag58
ag58
ag58
ag58
ag58
ag58
ag58
ag58
ag58
ag58
ag58
ag58
asg60
(lp2195
g152
ag153
ag66
ag155
ag64
ag69
ag215
ag65
ag66
ag155
ag154
ag72
ag153
ag153
ag62
ag72
ag153
ag151
ag62
ag72
ag68
ag153
ag62
ag153
ag74
asg75
VHis sister was named Gladys, and she had written to the beauty editor of the paper asking for the practicable touchstone of beauty.
p2196
sba(i__main__
Sentence
p2197
(dp2198
g17
I46
sg18
(lp2199
S'That'
p2200
aS'was'
p2201
aS'weeks'
p2202
aS'ago'
p2203
aS','
p2204
aS'and'
p2205
aS'she'
p2206
aS'had'
p2207
aS'ceased'
p2208
aS'to'
p2209
aS'look'
p2210
aS'for'
p2211
aS'an'
p2212
aS'answer'
p2213
aS'.'
p2214
asg37
(lp2215
VThat
p2216
ag195
aVweek
p2217
aVago
p2218
ag49
aVand
p2219
aVshe
p2220
ag511
aVcease
p2221
aVto
p2222
aVlook
p2223
aVfor
p2224
aVan
p2225
aVanswer
p2226
ag55
asg56
(lp2227
g58
ag58
ag58
ag58
ag58
ag58
ag58
ag58
ag58
ag58
ag58
ag58
ag58
ag58
ag58
asg60
(lp2228
g72
ag66
ag73
ag62
ag69
ag215
ag65
ag66
ag155
ag154
ag71
ag62
ag72
ag153
ag74
asg75
VThat was weeks ago, and she had ceased to look for an answer.
p2229
sba(i__main__
Sentence
p2230
(dp2231
g17
I47
sg18
(lp2232
S'Gladys'
p2233
aS'was'
p2234
aS'a'
p2235
aS'pale'
p2236
aS'girl'
p2237
aS','
p2238
aS'with'
p2239
aS'dull'
p2240
aS'eyes'
p2241
aS'and'
p2242
aS'a'
p2243
aS'discontented'
p2244
aS'expression'
p2245
aS'.'
p2246
asg37
(lp2247
VGladys
p2248
ag195
ag138
aVpale
p2249
aVgirl
p2250
ag49
aVwith
p2251
aVdull
p2252
aVeye
p2253
aVand
p2254
ag138
aVdiscontented
p2255
aVexpression
p2256
ag55
asg56
(lp2257
VPERSON
p2258
ag58
ag58
ag58
ag58
ag58
ag58
ag58
ag58
ag58
ag58
ag58
ag58
ag58
asg60
(lp2259
g73
ag66
ag72
ag153
ag153
ag69
ag62
ag68
ag73
ag215
ag72
ag68
ag153
ag74
asg75
VGladys was a pale girl, with dull eyes and a discontented expression.
p2260
sba(i__main__
Sentence
p2261
(dp2262
g17
I48
sg18
(lp2263
S'She'
p2264
aS'was'
p2265
aS'dressing'
p2266
aS'to'
p2267
aS'go'
p2268
aS'up'
p2269
aS'to'
p2270
aS'the'
p2271
aS'avenue'
p2272
aS'to'
p2273
aS'get'
p2274
aS'some'
p2275
aS'braid'
p2276
aS'.'
p2277
asg37
(lp2278
VShe
p2279
ag195
aVdress
p2280
aVto
p2281
aVgo
p2282
aVup
p2283
aVto
p2284
aVthe
p2285
aVavenue
p2286
aVto
p2287
aVget
p2288
aVsome
p2289
aVbraid
p2290
ag55
asg56
(lp2291
g58
ag58
ag58
ag58
ag58
ag58
ag58
ag58
ag58
ag58
ag58
ag58
ag58
ag58
asg60
(lp2292
g65
ag66
ag151
ag154
ag71
ag530
ag154
ag72
ag153
ag154
ag71
ag72
ag153
ag74
asg75
VShe was dressing to go up to the avenue to get some braid.
p2293
sba(i__main__
Sentence
p2294
(dp2295
g17
I49
sg18
(lp2296
S'Beneath'
p2297
aS'her'
p2298
aS'skirt'
p2299
aS'she'
p2300
aS'pinned'
p2301
aS'two'
p2302
aS'leaves'
p2303
aS'of'
p2304
aS'the'
p2305
aS'paper'
p2306
aS'Johnny'
p2307
aS'had'
p2308
aS'brought'
p2309
aS'.'
p2310
asg37
(lp2311
VBeneath
p2312
aVher
p2313
aVskirt
p2314
aVshe
p2315
aVpin
p2316
aVtwo
p2317
ag1791
aVof
p2318
aVthe
p2319
aVpaper
p2320
aVJohnny
p2321
ag511
aVbring
p2322
ag55
asg56
(lp2323
g58
ag58
ag58
ag58
ag58
ag58
ag58
ag58
ag58
ag58
aVPERSON
p2324
ag58
ag58
ag58
asg60
(lp2325
g64
ag152
ag153
ag65
ag66
ag63
ag73
ag62
ag72
ag153
ag64
ag66
ag155
ag74
asg75
VBeneath her skirt she pinned two leaves of the paper Johnny had brought.
p2326
sba(i__main__
Sentence
p2327
(dp2328
g17
I50
sg18
(lp2329
S'When'
p2330
aS'she'
p2331
aS'walked'
p2332
aS'the'
p2333
aS'rustling'
p2334
aS'sound'
p2335
aS'was'
p2336
aS'an'
p2337
aS'exact'
p2338
aS'imitation'
p2339
aS'of'
p2340
aS'the'
p2341
aS'real'
p2342
aS'thing'
p2343
aS'.'
p2344
asg37
(lp2345
VWhen
p2346
aVshe
p2347
aVwalk
p2348
aVthe
p2349
aVrustling
p2350
aVsound
p2351
ag195
aVan
p2352
aVexact
p2353
aVimitation
p2354
aVof
p2355
aVthe
p2356
aVreal
p2357
aVthing
p2358
ag55
asg56
(lp2359
g58
ag58
ag58
ag58
ag58
ag58
ag58
ag58
ag58
ag58
ag58
ag58
ag58
ag58
ag58
asg60
(lp2360
g531
ag65
ag66
ag72
ag153
ag153
ag66
ag72
ag68
ag153
ag62
ag72
ag68
ag153
ag74
asg75
VWhen she walked the rustling sound was an exact imitation of the real thing.
p2361
sba(i__main__
Sentence
p2362
(dp2363
g17
I51
sg18
(lp2364
S'On'
p2365
aS'the'
p2366
aS'street'
p2367
aS'she'
p2368
aS'met'
p2369
aS'the'
p2370
aS'Brown'
p2371
aS'girl'
p2372
aS'from'
p2373
aS'the'
p2374
aS'flat'
p2375
aS'below'
p2376
aS'and'
p2377
aS'stopped'
p2378
aS'to'
p2379
aS'talk'
p2380
aS'.'
p2381
asg37
(lp2382
VOn
p2383
aVthe
p2384
aVstreet
p2385
aVshe
p2386
aVmeet
p2387
aVthe
p2388
aVBrown
p2389
aVgirl
p2390
aVfrom
p2391
aVthe
p2392
aVflat
p2393
aVbelow
p2394
aVand
p2395
aVstop
p2396
aVto
p2397
aVtalk
p2398
ag55
asg56
(lp2399
g58
ag58
ag58
ag58
ag58
ag58
aVPERSON
p2400
ag58
ag58
ag58
ag58
ag58
ag58
ag58
ag58
ag58
ag58
asg60
(lp2401
g62
ag72
ag153
ag65
ag66
ag72
ag64
ag153
ag62
ag72
ag68
ag62
ag215
ag66
ag154
ag71
ag74
asg75
VOn the street she met the Brown girl from the flat below and stopped to talk.
p2402
sba(i__main__
Sentence
p2403
(dp2404
g17
I52
sg18
(lp2405
S'The'
p2406
aS'Brown'
p2407
aS'girl'
p2408
aS'turned'
p2409
aS'green'
p2410
aS'.'
p2411
asg37
(lp2412
VThe
p2413
aVBrown
p2414
aVgirl
p2415
aVturn
p2416
aVgreen
p2417
ag55
asg56
(lp2418
g58
aVPERSON
p2419
ag58
ag58
ag58
ag58
asg60
(lp2420
g72
ag64
ag153
ag66
ag68
ag74
asg75
VThe Brown girl turned green.
p2421
sba(i__main__
Sentence
p2422
(dp2423
g17
I53
sg18
(lp2424
S'Only'
p2425
aS'silk'
p2426
aS'at'
p2427
aS'$'
p2428
aS'5'
p2429
aS'a'
p2430
aS'yard'
p2431
aS'could'
p2432
aS'make'
p2433
aS'the'
p2434
aS'sound'
p2435
aS'that'
p2436
aS'she'
p2437
aS'heard'
p2438
aS'when'
p2439
aS'Gladys'
p2440
aS'moved'
p2441
aS'.'
p2442
asg37
(lp2443
VOnly
p2444
aVsilk
p2445
aVat
p2446
aV$
p2447
aV5
p2448
ag138
aVyard
p2449
aVcould
p2450
aVmake
p2451
aVthe
p2452
aVsound
p2453
aVthat
p2454
aVshe
p2455
aVhear
p2456
aVwhen
p2457
aVGladys
p2458
aVmove
p2459
ag55
asg56
(lp2460
g58
ag58
ag58
ag58
ag58
ag58
ag58
ag58
ag58
ag58
ag58
ag58
ag58
ag58
ag58
aVPERSON
p2461
ag58
ag58
asg60
(lp2462
g70
ag711
ag62
aS'$'
p2463
ag63
ag72
ag153
ag242
ag71
ag72
ag153
ag62
ag65
ag66
ag531
ag64
ag66
ag74
asg75
VOnly silk at $5 a yard could make the sound that she heard when Gladys moved.
p2464
sba(i__main__
Sentence
p2465
(dp2466
g17
I54
sg18
(lp2467
S'The'
p2468
aS'Brown'
p2469
aS'girl'
p2470
aS','
p2471
aS'consumed'
p2472
aS'by'
p2473
aS'jealousy'
p2474
aS','
p2475
aS'said'
p2476
aS'something'
p2477
aS'spiteful'
p2478
aS'and'
p2479
aS'went'
p2480
aS'her'
p2481
aS'way'
p2482
aS','
p2483
aS'with'
p2484
aS'pinched'
p2485
aS'lips'
p2486
aS'.'
p2487
asg37
(lp2488
VThe
p2489
aVBrown
p2490
aVgirl
p2491
ag49
aVconsume
p2492
aVby
p2493
aVjealousy
p2494
ag49
ag1164
aVsomething
p2495
aVspiteful
p2496
aVand
p2497
aVgo
p2498
aVher
p2499
aVway
p2500
ag49
aVwith
p2501
aVpinched
p2502
aVlip
p2503
ag55
asg56
(lp2504
g58
ag58
ag58
ag58
ag58
ag58
ag58
ag58
ag58
ag58
ag58
ag58
ag58
ag58
ag58
ag58
ag58
ag58
ag58
ag58
asg60
(lp2505
g72
ag64
ag153
ag69
ag66
ag62
ag153
ag69
ag66
ag153
ag68
ag215
ag66
ag65
ag153
ag69
ag62
ag68
ag73
ag74
asg75
VThe Brown girl, consumed by jealousy, said something spiteful and went her way, with pinched lips.
p2506
sba(i__main__
Sentence
p2507
(dp2508
g17
I55
sg18
(lp2509
S'Gladys'
p2510
aS'proceeded'
p2511
aS'toward'
p2512
aS'the'
p2513
aS'avenue'
p2514
aS'.'
p2515
asg37
(lp2516
VGladys
p2517
aVproceed
p2518
aVtoward
p2519
aVthe
p2520
aVavenue
p2521
ag55
asg56
(lp2522
VPERSON
p2523
ag58
ag58
ag58
ag58
ag58
asg60
(lp2524
g73
ag66
ag62
ag72
ag153
ag74
asg75
VGladys proceeded toward the avenue.
p2525
sba(i__main__
Sentence
p2526
(dp2527
g17
I56
sg18
(lp2528
S'Her'
p2529
aS'eyes'
p2530
aS'now'
p2531
aS'sparkled'
p2532
aS'like'
p2533
aS'jagerfonteins'
p2534
aS'.'
p2535
asg37
(lp2536
VHer
p2537
aVeye
p2538
aVnow
p2539
aVsparkle
p2540
aVlike
p2541
aVjagerfonteins
p2542
ag55
asg56
(lp2543
g58
ag58
ag58
ag58
ag58
ag58
ag58
asg60
(lp2544
g152
ag73
ag70
ag155
ag62
ag73
ag74
asg75
VHer eyes now sparkled like jagerfonteins.
p2545
sba(i__main__
Sentence
p2546
(dp2547
g17
I57
sg18
(lp2548
S'A'
p2549
aS'rosy'
p2550
aS'bloom'
p2551
aS'visited'
p2552
aS'her'
p2553
aS'cheeks'
p2554
aS';'
p2555
aS'a'
p2556
aS'triumphant'
p2557
aS','
p2558
aS'subtle'
p2559
aS','
p2560
aS'vivifying'
p2561
aS','
p2562
aS'smile'
p2563
aS'transfigured'
p2564
aS'her'
p2565
aS'face'
p2566
aS'.'
p2567
asg37
(lp2568
g809
aVrosy
p2569
aVbloom
p2570
aVvisit
p2571
aVher
p2572
aVcheek
p2573
ag1224
ag138
aVtriumphant
p2574
ag49
aVsubtle
p2575
ag49
aVvivify
p2576
ag49
aVsmile
p2577
aVtransfigure
p2578
aVher
p2579
aVface
p2580
ag55
asg56
(lp2581
g58
ag58
ag58
ag58
ag58
ag58
ag58
ag58
ag58
ag58
ag58
ag58
ag58
ag58
ag58
ag58
ag58
ag58
ag58
asg60
(lp2582
g72
ag153
ag153
ag66
ag65
ag1238
ag651
ag72
ag153
ag69
ag153
ag69
ag151
ag69
ag68
ag155
ag65
ag711
ag74
asg75
VA rosy bloom visited her cheeks; a triumphant, subtle, vivifying, smile transfigured her face.
p2583
sba(i__main__
Sentence
p2584
(dp2585
g17
I58
sg18
(lp2586
S'She'
p2587
aS'was'
p2588
aS'beautiful'
p2589
aS'.'
p2590
asg37
(lp2591
VShe
p2592
ag195
aVbeautiful
p2593
ag55
asg56
(lp2594
g58
ag58
ag58
ag58
asg60
(lp2595
g65
ag66
ag68
ag74
asg75
VShe was beautiful.
p2596
sba(i__main__
Sentence
p2597
(dp2598
g17
I59
sg18
(lp2599
S'Could'
p2600
aS'the'
p2601
aS'beauty'
p2602
aS'editor'
p2603
aS'have'
p2604
aS'seen'
p2605
aS'her'
p2606
aS'then'
p2607
aS'!'
p2608
asg37
(lp2609
VCould
p2610
aVthe
p2611
aVbeauty
p2612
aVeditor
p2613
aVhave
p2614
aVsee
p2615
aVher
p2616
aVthen
p2617
ag1644
asg56
(lp2618
g58
ag58
ag58
ag58
ag58
ag58
ag58
ag58
ag58
asg60
(lp2619
g242
ag72
ag153
ag153
ag711
ag155
ag152
ag70
ag74
asg75
VCould the beauty editor have seen her then!
p2620
sba(i__main__
Sentence
p2621
(dp2622
g17
I60
sg18
(lp2623
S'There'
p2624
aS'was'
p2625
aS'something'
p2626
aS'in'
p2627
aS'her'
p2628
aS'answer'
p2629
aS'in'
p2630
aS'the'
p2631
aS'paper'
p2632
aS','
p2633
aS'I'
p2634
aS'believe'
p2635
aS','
p2636
aS'about'
p2637
aS'cultivating'
p2638
aS'kind'
p2639
aS'feelings'
p2640
aS'toward'
p2641
aS'others'
p2642
aS'in'
p2643
aS'order'
p2644
aS'to'
p2645
aS'make'
p2646
aS'plain'
p2647
aS'features'
p2648
aS'attractive'
p2649
aS'.'
p2650
asg37
(lp2651
VThere
p2652
ag195
aVsomething
p2653
aVin
p2654
aVher
p2655
aVanswer
p2656
aVin
p2657
aVthe
p2658
aVpaper
p2659
ag49
ag1166
aVbelieve
p2660
ag49
aVabout
p2661
aVcultivate
p2662
aVkind
p2663
aVfeeling
p2664
aVtoward
p2665
aVothers
p2666
aVin
p2667
aVorder
p2668
aVto
p2669
aVmake
p2670
aVplain
p2671
aVfeature
p2672
aVattractive
p2673
ag55
asg56
(lp2674
g58
ag58
ag58
ag58
ag58
ag58
ag58
ag58
ag58
ag58
ag58
ag58
ag58
ag58
ag58
ag58
ag58
ag58
ag58
ag58
ag58
ag58
ag58
ag58
ag58
ag58
ag58
asg60
(lp2675
g600
ag66
ag153
ag62
ag152
ag153
ag62
ag72
ag153
ag69
ag65
ag711
ag69
ag62
ag151
ag153
ag73
ag62
ag73
ag62
ag153
ag154
ag71
ag153
ag73
ag711
ag74
asg75
VThere was something in her answer in the paper, I believe, about cultivating kind feelings toward others in order to make plain features attractive.
p2676
sba(i__main__
Sentence
p2677
(dp2678
g17
I61
sg18
(lp2679
S'The'
p2680
aS'labour'
p2681
aS'leader'
p2682
aS'against'
p2683
aS'whom'
p2684
aS'the'
p2685
aS'paper'
p2686
aS"'s"
p2687
aS'solemn'
p2688
aS'and'
p2689
aS'weighty'
p2690
aS'editorial'
p2691
aS'injunction'
p2692
aS'was'
p2693
aS'laid'
p2694
aS'was'
p2695
aS'the'
p2696
aS'father'
p2697
aS'of'
p2698
aS'Gladys'
p2699
aS'and'
p2700
aS'Johnny'
p2701
aS'.'
p2702
asg37
(lp2703
VThe
p2704
aVlabour
p2705
aVleader
p2706
aVagainst
p2707
aVwhom
p2708
aVthe
p2709
aVpaper
p2710
aV's
p2711
aVsolemn
p2712
aVand
p2713
aVweighty
p2714
aVeditorial
p2715
aVinjunction
p2716
ag195
ag493
ag195
aVthe
p2717
aVfather
p2718
aVof
p2719
aVGladys
p2720
aVand
p2721
aVJohnny
p2722
ag55
asg56
(lp2723
g58
ag58
ag58
ag58
ag58
ag58
ag58
ag58
ag58
ag58
ag58
ag58
ag58
ag58
ag58
ag58
ag58
ag58
ag58
aVPERSON
p2724
ag58
aVPERSON
p2725
ag58
asg60
(lp2726
g72
ag152
ag153
ag62
ag349
ag72
ag153
ag67
ag153
ag215
ag153
ag153
ag153
ag66
ag155
ag66
ag72
ag153
ag62
ag64
ag215
ag64
ag74
asg75
VThe labour leader against whom the paper's solemn and weighty editorial injunction was laid was the father of Gladys and Johnny.
p2727
sba(i__main__
Sentence
p2728
(dp2729
g17
I62
sg18
(lp2730
S'He'
p2731
aS'picked'
p2732
aS'up'
p2733
aS'the'
p2734
aS'remains'
p2735
aS'of'
p2736
aS'the'
p2737
aS'journal'
p2738
aS'from'
p2739
aS'which'
p2740
aS'Gladys'
p2741
aS'had'
p2742
aS'ravished'
p2743
aS'a'
p2744
aS'cosmetic'
p2745
aS'of'
p2746
aS'silken'
p2747
aS'sounds'
p2748
aS'.'
p2749
asg37
(lp2750
VHe
p2751
aVpick
p2752
aVup
p2753
aVthe
p2754
aVremains
p2755
aVof
p2756
aVthe
p2757
aVjournal
p2758
aVfrom
p2759
aVwhich
p2760
aVGladys
p2761
ag511
aVravish
p2762
ag138
aVcosmetic
p2763
aVof
p2764
aVsilken
p2765
aVsound
p2766
ag55
asg56
(lp2767
g58
ag58
ag58
ag58
ag58
ag58
ag58
ag58
ag58
ag58
aVPERSON
p2768
ag58
ag58
ag58
ag58
ag58
ag58
ag58
ag58
asg60
(lp2769
g65
ag66
ag530
ag72
ag73
ag62
ag72
ag153
ag62
ag410
ag64
ag66
ag155
ag72
ag68
ag62
ag153
ag73
ag74
asg75
VHe picked up the remains of the journal from which Gladys had ravished a cosmetic of silken sounds.
p2770
sba(i__main__
Sentence
p2771
(dp2772
g17
I63
sg18
(lp2773
S'The'
p2774
aS'editorial'
p2775
aS'did'
p2776
aS'not'
p2777
aS'come'
p2778
aS'under'
p2779
aS'his'
p2780
aS'eye'
p2781
aS','
p2782
aS'but'
p2783
aS'instead'
p2784
aS'it'
p2785
aS'was'
p2786
aS'greeted'
p2787
aS'by'
p2788
aS'one'
p2789
aS'of'
p2790
aS'those'
p2791
aS'ingenious'
p2792
aS'and'
p2793
aS'specious'
p2794
aS'puzzle'
p2795
aS'problems'
p2796
aS'that'
p2797
aS'enthrall'
p2798
aS'alike'
p2799
aS'the'
p2800
aS'simpleton'
p2801
aS'and'
p2802
aS'the'
p2803
aS'sage'
p2804
aS'.'
p2805
asg37
(lp2806
VThe
p2807
aVeditorial
p2808
aVdo
p2809
aVnot
p2810
aVcome
p2811
aVunder
p2812
aVhis
p2813
aVeye
p2814
ag49
aVbut
p2815
aVinstead
p2816
aVit
p2817
ag195
aVgreet
p2818
aVby
p2819
aVone
p2820
aVof
p2821
aVthose
p2822
aVingenious
p2823
aVand
p2824
aVspecious
p2825
aVpuzzle
p2826
aVproblem
p2827
aVthat
p2828
aVenthrall
p2829
aValike
p2830
aVthe
p2831
aVsimpleton
p2832
aVand
p2833
aVthe
p2834
aVsage
p2835
ag55
asg56
(lp2836
g58
ag58
ag58
ag58
ag58
ag58
ag58
ag58
ag58
ag58
ag58
ag58
ag58
ag58
ag58
ag58
ag58
ag58
ag58
ag58
ag58
ag58
ag58
ag58
ag58
ag58
ag58
ag58
ag58
ag58
ag58
ag58
asg60
(lp2837
g72
ag153
ag66
ag70
ag155
ag62
ag152
ag153
ag69
ag215
ag70
ag65
ag66
ag155
ag62
ag63
ag62
ag72
ag68
ag215
ag68
ag153
ag73
ag410
ag242
ag71
ag72
ag153
ag215
ag72
ag153
ag74
asg75
VThe editorial did not come under his eye, but instead it was greeted by one of those ingenious and specious puzzle problems that enthrall alike the simpleton and the sage.
p2838
sba(i__main__
Sentence
p2839
(dp2840
g17
I64
sg18
(lp2841
S'The'
p2842
aS'labour'
p2843
aS'leader'
p2844
aS'tore'
p2845
aS'off'
p2846
aS'half'
p2847
aS'of'
p2848
aS'the'
p2849
aS'page'
p2850
aS','
p2851
aS'provided'
p2852
aS'himself'
p2853
aS'with'
p2854
aS'table'
p2855
aS','
p2856
aS'pencil'
p2857
aS'and'
p2858
aS'paper'
p2859
aS'and'
p2860
aS'glued'
p2861
aS'himself'
p2862
aS'to'
p2863
aS'his'
p2864
aS'puzzle'
p2865
aS'.'
p2866
asg37
(lp2867
VThe
p2868
aVlabour
p2869
aVleader
p2870
aVtore
p2871
aVoff
p2872
aVhalf
p2873
aVof
p2874
aVthe
p2875
aVpage
p2876
ag49
aVprovide
p2877
aVhimself
p2878
aVwith
p2879
aVtable
p2880
ag49
aVpencil
p2881
aVand
p2882
aVpaper
p2883
aVand
p2884
aVglue
p2885
aVhimself
p2886
aVto
p2887
aVhis
p2888
aVpuzzle
p2889
ag55
asg56
(lp2890
g58
ag58
ag58
ag58
ag58
ag58
ag58
ag58
ag58
ag58
ag58
ag58
ag58
ag58
ag58
ag58
ag58
ag58
ag58
ag58
ag58
ag58
ag58
ag58
ag58
asg60
(lp2891
g72
ag152
ag153
ag153
ag62
ag72
ag62
ag72
ag153
ag69
ag155
ag65
ag62
ag68
ag69
ag153
ag215
ag153
ag215
ag66
ag65
ag154
ag152
ag153
ag74
asg75
VThe labour leader tore off half of the page, provided himself with table, pencil and paper and glued himself to his puzzle.
p2892
sba(i__main__
Sentence
p2893
(dp2894
g17
I65
sg18
(lp2895
S'Three'
p2896
aS'hours'
p2897
aS'later'
p2898
aS','
p2899
aS'after'
p2900
aS'waiting'
p2901
aS'vainly'
p2902
aS'for'
p2903
aS'him'
p2904
aS'at'
p2905
aS'the'
p2906
aS'appointed'
p2907
aS'place'
p2908
aS','
p2909
aS'other'
p2910
aS'more'
p2911
aS'conservative'
p2912
aS'leaders'
p2913
aS'declared'
p2914
aS'and'
p2915
aS'ruled'
p2916
aS'in'
p2917
aS'favour'
p2918
aS'of'
p2919
aS'arbitration'
p2920
aS','
p2921
aS'and'
p2922
aS'the'
p2923
aS'strike'
p2924
aS'with'
p2925
aS'its'
p2926
aS'attendant'
p2927
aS'dangers'
p2928
aS'was'
p2929
aS'averted'
p2930
aS'.'
p2931
asg37
(lp2932
VThree
p2933
aVhour
p2934
aVlate
p2935
ag49
aVafter
p2936
aVwait
p2937
aVvainly
p2938
aVfor
p2939
aVhim
p2940
aVat
p2941
aVthe
p2942
aVappoint
p2943
aVplace
p2944
ag49
aVother
p2945
aVmore
p2946
aVconservative
p2947
aVleader
p2948
aVdeclare
p2949
aVand
p2950
aVrule
p2951
aVin
p2952
aVfavour
p2953
aVof
p2954
aVarbitration
p2955
ag49
aVand
p2956
aVthe
p2957
aVstrike
p2958
aVwith
p2959
aVit
p2960
aVattendant
p2961
aVdanger
p2962
ag195
aVavert
p2963
ag55
asg56
(lp2964
g58
ag58
ag58
ag58
ag58
ag58
ag58
ag58
ag58
ag58
ag58
ag58
ag58
ag58
ag58
ag58
ag58
ag58
ag58
ag58
ag58
ag58
ag58
ag58
ag58
ag58
ag58
ag58
ag58
ag58
ag58
ag58
ag58
ag58
ag58
ag58
asg60
(lp2965
g63
ag73
ag68
ag69
ag62
ag151
ag70
ag62
ag65
ag62
ag72
ag155
ag153
ag69
ag68
ag529
ag68
ag73
ag66
ag215
ag155
ag62
ag152
ag62
ag153
ag69
ag215
ag72
ag153
ag62
ag152
ag68
ag73
ag66
ag155
ag74
asg75
VThree hours later, after waiting vainly for him at the appointed place, other more conservative leaders declared and ruled in favour of arbitration, and the strike with its attendant dangers was averted.
p2966
sba(i__main__
Sentence
p2967
(dp2968
g17
I66
sg18
(lp2969
S'Subsequent'
p2970
aS'editions'
p2971
aS'of'
p2972
aS'the'
p2973
aS'paper'
p2974
aS'referred'
p2975
aS','
p2976
aS'in'
p2977
aS'coloured'
p2978
aS'inks'
p2979
aS','
p2980
aS'to'
p2981
aS'the'
p2982
aS'clarion'
p2983
aS'tone'
p2984
aS'of'
p2985
aS'its'
p2986
aS'successful'
p2987
aS'denunciation'
p2988
aS'of'
p2989
aS'the'
p2990
aS'labour'
p2991
aS'leader'
p2992
aS"'s"
p2993
aS'intended'
p2994
aS'designs'
p2995
aS'.'
p2996
asg37
(lp2997
VSubsequent
p2998
aVedition
p2999
aVof
p3000
aVthe
p3001
aVpaper
p3002
aVrefer
p3003
ag49
aVin
p3004
aVcolour
p3005
aVink
p3006
ag49
aVto
p3007
aVthe
p3008
aVclarion
p3009
aVtone
p3010
aVof
p3011
aVit
p3012
aVsuccessful
p3013
aVdenunciation
p3014
aVof
p3015
aVthe
p3016
aVlabour
p3017
aVleader
p3018
aV's
p3019
aVintend
p3020
aVdesign
p3021
ag55
asg56
(lp3022
g58
ag58
ag58
ag58
ag58
ag58
ag58
ag58
ag58
ag58
ag58
ag58
ag58
ag58
ag58
ag58
ag58
ag58
ag58
ag58
ag58
ag58
ag58
ag58
ag58
ag58
ag58
asg60
(lp3023
g64
ag73
ag62
ag72
ag153
ag66
ag69
ag62
ag155
ag73
ag69
ag154
ag72
ag153
ag153
ag62
ag152
ag68
ag153
ag62
ag72
ag153
ag153
ag67
ag155
ag73
ag74
asg75
VSubsequent editions of the paper referred, in coloured inks, to the clarion tone of its successful denunciation of the labour leader's intended designs.
p3024
sba(i__main__
Sentence
p3025
(dp3026
g17
I67
sg18
(lp3027
S'The'
p3028
aS'remaining'
p3029
aS'leaves'
p3030
aS'of'
p3031
aS'the'
p3032
aS'active'
p3033
aS'journal'
p3034
aS'also'
p3035
aS'went'
p3036
aS'loyally'
p3037
aS'to'
p3038
aS'the'
p3039
aS'proving'
p3040
aS'of'
p3041
aS'its'
p3042
aS'potency'
p3043
aS'.'
p3044
asg37
(lp3045
VThe
p3046
aVremain
p3047
ag1791
aVof
p3048
aVthe
p3049
aVactive
p3050
aVjournal
p3051
aValso
p3052
ag2498
aVloyally
p3053
aVto
p3054
aVthe
p3055
aVproving
p3056
aVof
p3057
aVit
p3058
aVpotency
p3059
ag55
asg56
(lp3060
g58
ag58
ag58
ag58
ag58
ag58
ag58
ag58
ag58
ag58
ag58
ag58
ag58
ag58
ag58
ag58
ag58
asg60
(lp3061
g72
ag151
ag73
ag62
ag72
ag68
ag153
ag70
ag66
ag70
ag154
ag72
ag153
ag62
ag152
ag153
ag74
asg75
VThe remaining leaves of the active journal also went loyally to the proving of its potency.
p3062
sba(i__main__
Sentence
p3063
(dp3064
g17
I68
sg18
(lp3065
S'When'
p3066
aS'Johnny'
p3067
aS'returned'
p3068
aS'from'
p3069
aS'school'
p3070
aS'he'
p3071
aS'sought'
p3072
aS'a'
p3073
aS'secluded'
p3074
aS'spot'
p3075
aS'and'
p3076
aS'removed'
p3077
aS'the'
p3078
aS'missing'
p3079
aS'columns'
p3080
aS'from'
p3081
aS'the'
p3082
aS'inside'
p3083
aS'of'
p3084
aS'his'
p3085
aS'clothing'
p3086
aS','
p3087
aS'where'
p3088
aS'they'
p3089
aS'had'
p3090
aS'been'
p3091
aS'artfully'
p3092
aS'distributed'
p3093
aS'so'
p3094
aS'as'
p3095
aS'to'
p3096
aS'successfully'
p3097
aS'defend'
p3098
aS'such'
p3099
aS'areas'
p3100
aS'as'
p3101
aS'are'
p3102
aS'generally'
p3103
aS'attacked'
p3104
aS'during'
p3105
aS'scholastic'
p3106
aS'castigations'
p3107
aS'.'
p3108
asg37
(lp3109
VWhen
p3110
aVJohnny
p3111
aVreturn
p3112
aVfrom
p3113
aVschool
p3114
aVhe
p3115
aVseek
p3116
ag138
aVseclude
p3117
aVspot
p3118
aVand
p3119
aVremove
p3120
aVthe
p3121
aVmissing
p3122
aVcolumn
p3123
aVfrom
p3124
aVthe
p3125
aVinside
p3126
aVof
p3127
aVhis
p3128
aVclothing
p3129
ag49
aVwhere
p3130
aVthey
p3131
ag511
ag1530
aVartfully
p3132
aVdistribute
p3133
aVso
p3134
ag138
aVto
p3135
aVsuccessfully
p3136
aVdefend
p3137
aVsuch
p3138
aVarea
p3139
ag138
aVbe
p3140
aVgenerally
p3141
aVattack
p3142
aVduring
p3143
aVscholastic
p3144
aVcastigation
p3145
ag55
asg56
(lp3146
g58
aVPERSON
p3147
ag58
ag58
ag58
ag58
ag58
ag58
ag58
ag58
ag58
ag58
ag58
ag58
ag58
ag58
ag58
ag58
ag58
ag58
ag58
ag58
ag58
ag58
ag58
ag58
ag58
ag58
ag58
ag58
ag58
ag58
ag58
ag58
ag58
ag58
ag58
ag58
ag58
ag58
ag58
ag58
ag58
asg60
(lp3148
g531
ag64
ag66
ag62
ag153
ag65
ag66
ag72
ag155
ag153
ag215
ag66
ag72
ag153
ag73
ag62
ag72
ag153
ag62
ag152
ag153
ag69
ag531
ag65
ag66
ag155
ag70
ag155
ag70
ag62
ag154
ag70
ag71
ag68
ag73
ag62
ag711
ag70
ag155
ag62
ag68
ag73
ag74
asg75
VWhen Johnny returned from school he sought a secluded spot and removed the missing columns from the inside of his clothing, where they had been artfully distributed so as to successfully defend such areas as are generally attacked during scholastic castigations.
p3149
sba(i__main__
Sentence
p3150
(dp3151
g17
I69
sg18
(lp3152
S'Johnny'
p3153
aS'attended'
p3154
aS'a'
p3155
aS'private'
p3156
aS'school'
p3157
aS'and'
p3158
aS'had'
p3159
aS'had'
p3160
aS'trouble'
p3161
aS'with'
p3162
aS'his'
p3163
aS'teacher'
p3164
aS'.'
p3165
asg37
(lp3166
VJohnny
p3167
aVattend
p3168
ag138
aVprivate
p3169
aVschool
p3170
aVand
p3171
ag511
ag511
aVtrouble
p3172
aVwith
p3173
aVhis
p3174
aVteacher
p3175
ag55
asg56
(lp3176
VPERSON
p3177
ag58
ag58
ag58
ag58
ag58
ag58
ag58
ag58
ag58
ag58
ag58
ag58
asg60
(lp3178
g64
ag66
ag72
ag68
ag153
ag215
ag66
ag155
ag68
ag62
ag152
ag153
ag74
asg75
VJohnny attended a private school and had had trouble with his teacher.
p3179
sba(i__main__
Sentence
p3180
(dp3181
g17
I70
sg18
(lp3182
S'As'
p3183
aS'has'
p3184
aS'been'
p3185
aS'said'
p3186
aS','
p3187
aS'there'
p3188
aS'was'
p3189
aS'an'
p3190
aS'excellent'
p3191
aS'editorial'
p3192
aS'against'
p3193
aS'corporal'
p3194
aS'punishment'
p3195
aS'in'
p3196
aS'that'
p3197
aS'morning'
p3198
aS"'s"
p3199
aS'issue'
p3200
aS','
p3201
aS'and'
p3202
aS'no'
p3203
aS'doubt'
p3204
aS'it'
p3205
aS'had'
p3206
aS'its'
p3207
aS'effect'
p3208
aS'.'
p3209
asg37
(lp3210
VAs
p3211
aVhave
p3212
ag1530
ag1164
ag49
aVthere
p3213
ag195
aVan
p3214
aVexcellent
p3215
aVeditorial
p3216
aVagainst
p3217
aVcorporal
p3218
aVpunishment
p3219
aVin
p3220
aVthat
p3221
aVmorning
p3222
aV's
p3223
aVissue
p3224
ag49
aVand
p3225
aVno
p3226
aVdoubt
p3227
aVit
p3228
ag511
aVit
p3229
aVeffect
p3230
ag55
asg56
(lp3231
g58
ag58
ag58
ag58
ag58
ag58
ag58
ag58
ag58
ag58
ag58
ag58
ag58
ag58
ag58
ag58
ag58
ag58
ag58
ag58
ag58
ag58
ag58
ag58
ag58
ag58
ag58
asg60
(lp3232
g62
ag1238
ag155
ag155
ag69
ag600
ag66
ag72
ag153
ag153
ag62
ag68
ag153
ag62
ag72
ag153
ag67
ag153
ag69
ag215
ag72
ag153
ag65
ag66
ag152
ag153
ag74
asg75
VAs has been said, there was an excellent editorial against corporal punishment in that morning's issue, and no doubt it had its effect.
p3233
sba(i__main__
Sentence
p3234
(dp3235
g17
I71
sg18
(lp3236
S'After'
p3237
aS'this'
p3238
aS'can'
p3239
aS'any'
p3240
aS'one'
p3241
aS'doubt'
p3242
aS'the'
p3243
aS'power'
p3244
aS'of'
p3245
aS'the'
p3246
aS'press'
p3247
aS'?'
p3248
asg37
(lp3249
VAfter
p3250
aVthis
p3251
aVcan
p3252
aVany
p3253
aVone
p3254
aVdoubt
p3255
aVthe
p3256
aVpower
p3257
aVof
p3258
aVthe
p3259
aVpress
p3260
ag1665
asg56
(lp3261
g58
ag58
ag58
ag58
ag58
ag58
ag58
ag58
ag58
ag58
ag58
ag58
asg60
(lp3262
g62
ag72
ag242
ag72
ag63
ag153
ag72
ag153
ag62
ag72
ag153
ag74
asg75
VAfter this can any one doubt the power of the press?
p3263
sbasbsS'summary'
p3264
g0
(g7
g2
Ntp3265
Rp3266
(dp3267
g11
S"On the street she met the Brown girl from the flat below and stopped to talk. The Brown girl turned green. Only silk at $5 a yard could make the sound that she heard when Gladys moved. The Brown girl, consumed by jealousy, said something spiteful and went her way, with pinched lips.\n\n\n\nGladys proceeded toward the avenue. Her eyes now sparkled like jagerfonteins. A rosy bloom visited her cheeks; a triumphant, subtle, vivifying, smile transfigured her face. She was beautiful. Could the beauty editor have seen her then! There was something in her answer in the paper, I believe, about cultivating kind feelings toward others in order to make plain features attractive.\n\n\n\nThe labour leader against whom the paper's solemn and weighty editorial injunction was laid was the father of Gladys and Johnny. He picked up the remains of the journal from which Gladys had ravished a cosmetic of silken sounds. The editorial did not come under his eye, but instead it was greeted by one of those ingenious and specious puzzle problems that enthrall alike the simpleton and the sage.\n\n\n\nThe labour leader tore off half of the page, provided himself with table, pencil and paper and glued himself to his puzzle.\n\n\n\nThree hours later, after waiting vainly for him at the appointed place, other more conservative leaders declared and ruled in favour of arbitration, and the strike with its attendant dangers was averted. Subsequent editions of the paper referred, in coloured inks, to the clarion tone of its successful denunciation of the labour leader's intended designs."
p3268
sg13
(lp3269
(i__main__
Sentence
p3270
(dp3271
g17
I0
sg18
(lp3272
S'On'
p3273
aS'the'
p3274
aS'street'
p3275
aS'she'
p3276
aS'met'
p3277
aS'the'
p3278
aS'Brown'
p3279
aS'girl'
p3280
aS'from'
p3281
aS'the'
p3282
aS'flat'
p3283
aS'below'
p3284
aS'and'
p3285
aS'stopped'
p3286
aS'to'
p3287
aS'talk'
p3288
aS'.'
p3289
asg37
(lp3290
VOn
p3291
aVthe
p3292
aVstreet
p3293
aVshe
p3294
ag2387
aVthe
p3295
aVBrown
p3296
aVgirl
p3297
aVfrom
p3298
aVthe
p3299
aVflat
p3300
aVbelow
p3301
aVand
p3302
ag2396
aVto
p3303
aVtalk
p3304
ag55
asg56
(lp3305
g58
ag58
ag58
ag58
ag58
ag58
aVPERSON
p3306
ag58
ag58
ag58
ag58
ag58
ag58
ag58
ag58
ag58
ag58
asg60
(lp3307
g62
ag72
ag153
ag65
ag66
ag72
ag64
ag153
ag62
ag72
ag68
ag62
ag215
ag66
ag154
ag71
ag74
asg75
VOn the street she met the Brown girl from the flat below and stopped to talk.
p3308
sba(i__main__
Sentence
p3309
(dp3310
g17
I1
sg18
(lp3311
S'The'
p3312
aS'Brown'
p3313
aS'girl'
p3314
aS'turned'
p3315
aS'green'
p3316
aS'.'
p3317
asg37
(lp3318
VThe
p3319
aVBrown
p3320
aVgirl
p3321
aVturn
p3322
aVgreen
p3323
ag55
asg56
(lp3324
g58
aVPERSON
p3325
ag58
ag58
ag58
ag58
asg60
(lp3326
g72
ag64
ag153
ag66
ag68
ag74
asg75
VThe Brown girl turned green.
p3327
sba(i__main__
Sentence
p3328
(dp3329
g17
I2
sg18
(lp3330
S'Only'
p3331
aS'silk'
p3332
aS'at'
p3333
aS'$'
p3334
aS'5'
p3335
aS'a'
p3336
aS'yard'
p3337
aS'could'
p3338
aS'make'
p3339
aS'the'
p3340
aS'sound'
p3341
aS'that'
p3342
aS'she'
p3343
aS'heard'
p3344
aS'when'
p3345
aS'Gladys'
p3346
aS'moved'
p3347
aS'.'
p3348
asg37
(lp3349
VOnly
p3350
aVsilk
p3351
aVat
p3352
ag2447
ag2448
ag138
aVyard
p3353
aVcould
p3354
aVmake
p3355
aVthe
p3356
aVsound
p3357
aVthat
p3358
aVshe
p3359
ag2456
aVwhen
p3360
aVGladys
p3361
aVmove
p3362
ag55
asg56
(lp3363
g58
ag58
ag58
ag58
ag58
ag58
ag58
ag58
ag58
ag58
ag58
ag58
ag58
ag58
ag58
aVPERSON
p3364
ag58
ag58
asg60
(lp3365
g70
ag711
ag62
ag2463
ag63
ag72
ag153
ag242
ag71
ag72
ag153
ag62
ag65
ag66
ag531
ag64
ag66
ag74
asg75
VOnly silk at $5 a yard could make the sound that she heard when Gladys moved.
p3366
sba(i__main__
Sentence
p3367
(dp3368
g17
I3
sg18
(lp3369
S'The'
p3370
aS'Brown'
p3371
aS'girl'
p3372
aS','
p3373
aS'consumed'
p3374
aS'by'
p3375
aS'jealousy'
p3376
aS','
p3377
aS'said'
p3378
aS'something'
p3379
aS'spiteful'
p3380
aS'and'
p3381
aS'went'
p3382
aS'her'
p3383
aS'way'
p3384
aS','
p3385
aS'with'
p3386
aS'pinched'
p3387
aS'lips'
p3388
aS'.'
p3389
asg37
(lp3390
VThe
p3391
aVBrown
p3392
aVgirl
p3393
ag49
aVconsume
p3394
aVby
p3395
aVjealousy
p3396
ag49
ag1164
aVsomething
p3397
aVspiteful
p3398
aVand
p3399
ag2498
aVher
p3400
aVway
p3401
ag49
aVwith
p3402
aVpinched
p3403
aVlip
p3404
ag55
asg56
(lp3405
g58
ag58
ag58
ag58
ag58
ag58
ag58
ag58
ag58
ag58
ag58
ag58
ag58
ag58
ag58
ag58
ag58
ag58
ag58
ag58
asg60
(lp3406
g72
ag64
ag153
ag69
ag66
ag62
ag153
ag69
ag66
ag153
ag68
ag215
ag66
ag65
ag153
ag69
ag62
ag68
ag73
ag74
asg75
VThe Brown girl, consumed by jealousy, said something spiteful and went her way, with pinched lips.
p3407
sba(i__main__
Sentence
p3408
(dp3409
g17
I4
sg18
(lp3410
S'Gladys'
p3411
aS'proceeded'
p3412
aS'toward'
p3413
aS'the'
p3414
aS'avenue'
p3415
aS'.'
p3416
asg37
(lp3417
VGladys
p3418
aVproceed
p3419
aVtoward
p3420
aVthe
p3421
aVavenue
p3422
ag55
asg56
(lp3423
VPERSON
p3424
ag58
ag58
ag58
ag58
ag58
asg60
(lp3425
g73
ag66
ag62
ag72
ag153
ag74
asg75
VGladys proceeded toward the avenue.
p3426
sba(i__main__
Sentence
p3427
(dp3428
g17
I5
sg18
(lp3429
S'Her'
p3430
aS'eyes'
p3431
aS'now'
p3432
aS'sparkled'
p3433
aS'like'
p3434
aS'jagerfonteins'
p3435
aS'.'
p3436
asg37
(lp3437
VHer
p3438
aVeye
p3439
aVnow
p3440
aVsparkle
p3441
aVlike
p3442
aVjagerfonteins
p3443
ag55
asg56
(lp3444
g58
ag58
ag58
ag58
ag58
ag58
ag58
asg60
(lp3445
g152
ag73
ag70
ag155
ag62
ag73
ag74
asg75
VHer eyes now sparkled like jagerfonteins.
p3446
sba(i__main__
Sentence
p3447
(dp3448
g17
I6
sg18
(lp3449
S'A'
p3450
aS'rosy'
p3451
aS'bloom'
p3452
aS'visited'
p3453
aS'her'
p3454
aS'cheeks'
p3455
aS';'
p3456
aS'a'
p3457
aS'triumphant'
p3458
aS','
p3459
aS'subtle'
p3460
aS','
p3461
aS'vivifying'
p3462
aS','
p3463
aS'smile'
p3464
aS'transfigured'
p3465
aS'her'
p3466
aS'face'
p3467
aS'.'
p3468
asg37
(lp3469
g809
aVrosy
p3470
aVbloom
p3471
aVvisit
p3472
aVher
p3473
aVcheek
p3474
ag1224
ag138
aVtriumphant
p3475
ag49
aVsubtle
p3476
ag49
aVvivify
p3477
ag49
aVsmile
p3478
aVtransfigure
p3479
aVher
p3480
aVface
p3481
ag55
asg56
(lp3482
g58
ag58
ag58
ag58
ag58
ag58
ag58
ag58
ag58
ag58
ag58
ag58
ag58
ag58
ag58
ag58
ag58
ag58
ag58
asg60
(lp3483
g72
ag153
ag153
ag66
ag65
ag1238
ag651
ag72
ag153
ag69
ag153
ag69
ag151
ag69
ag68
ag155
ag65
ag711
ag74
asg75
VA rosy bloom visited her cheeks; a triumphant, subtle, vivifying, smile transfigured her face.
p3484
sba(i__main__
Sentence
p3485
(dp3486
g17
I7
sg18
(lp3487
S'She'
p3488
aS'was'
p3489
aS'beautiful'
p3490
aS'.'
p3491
asg37
(lp3492
VShe
p3493
ag195
aVbeautiful
p3494
ag55
asg56
(lp3495
g58
ag58
ag58
ag58
asg60
(lp3496
g65
ag66
ag68
ag74
asg75
VShe was beautiful.
p3497
sba(i__main__
Sentence
p3498
(dp3499
g17
I8
sg18
(lp3500
S'Could'
p3501
aS'the'
p3502
aS'beauty'
p3503
aS'editor'
p3504
aS'have'
p3505
aS'seen'
p3506
aS'her'
p3507
aS'then'
p3508
aS'!'
p3509
asg37
(lp3510
VCould
p3511
aVthe
p3512
aVbeauty
p3513
aVeditor
p3514
aVhave
p3515
ag2615
aVher
p3516
aVthen
p3517
ag1644
asg56
(lp3518
g58
ag58
ag58
ag58
ag58
ag58
ag58
ag58
ag58
asg60
(lp3519
g242
ag72
ag153
ag153
ag711
ag155
ag152
ag70
ag74
asg75
VCould the beauty editor have seen her then!
p3520
sba(i__main__
Sentence
p3521
(dp3522
g17
I9
sg18
(lp3523
S'There'
p3524
aS'was'
p3525
aS'something'
p3526
aS'in'
p3527
aS'her'
p3528
aS'answer'
p3529
aS'in'
p3530
aS'the'
p3531
aS'paper'
p3532
aS','
p3533
aS'I'
p3534
aS'believe'
p3535
aS','
p3536
aS'about'
p3537
aS'cultivating'
p3538
aS'kind'
p3539
aS'feelings'
p3540
aS'toward'
p3541
aS'others'
p3542
aS'in'
p3543
aS'order'
p3544
aS'to'
p3545
aS'make'
p3546
aS'plain'
p3547
aS'features'
p3548
aS'attractive'
p3549
aS'.'
p3550
asg37
(lp3551
VThere
p3552
ag195
aVsomething
p3553
aVin
p3554
aVher
p3555
aVanswer
p3556
aVin
p3557
aVthe
p3558
aVpaper
p3559
ag49
ag1166
aVbelieve
p3560
ag49
aVabout
p3561
aVcultivate
p3562
aVkind
p3563
aVfeeling
p3564
aVtoward
p3565
aVothers
p3566
aVin
p3567
aVorder
p3568
aVto
p3569
aVmake
p3570
aVplain
p3571
aVfeature
p3572
aVattractive
p3573
ag55
asg56
(lp3574
g58
ag58
ag58
ag58
ag58
ag58
ag58
ag58
ag58
ag58
ag58
ag58
ag58
ag58
ag58
ag58
ag58
ag58
ag58
ag58
ag58
ag58
ag58
ag58
ag58
ag58
ag58
asg60
(lp3575
g600
ag66
ag153
ag62
ag152
ag153
ag62
ag72
ag153
ag69
ag65
ag711
ag69
ag62
ag151
ag153
ag73
ag62
ag73
ag62
ag153
ag154
ag71
ag153
ag73
ag711
ag74
asg75
VThere was something in her answer in the paper, I believe, about cultivating kind feelings toward others in order to make plain features attractive.
p3576
sba(i__main__
Sentence
p3577
(dp3578
g17
I10
sg18
(lp3579
S'The'
p3580
aS'labour'
p3581
aS'leader'
p3582
aS'against'
p3583
aS'whom'
p3584
aS'the'
p3585
aS'paper'
p3586
aS"'s"
p3587
aS'solemn'
p3588
aS'and'
p3589
aS'weighty'
p3590
aS'editorial'
p3591
aS'injunction'
p3592
aS'was'
p3593
aS'laid'
p3594
aS'was'
p3595
aS'the'
p3596
aS'father'
p3597
aS'of'
p3598
aS'Gladys'
p3599
aS'and'
p3600
aS'Johnny'
p3601
aS'.'
p3602
asg37
(lp3603
VThe
p3604
aVlabour
p3605
aVleader
p3606
aVagainst
p3607
aVwhom
p3608
aVthe
p3609
aVpaper
p3610
aV's
p3611
aVsolemn
p3612
aVand
p3613
aVweighty
p3614
aVeditorial
p3615
aVinjunction
p3616
ag195
ag493
ag195
aVthe
p3617
aVfather
p3618
aVof
p3619
aVGladys
p3620
aVand
p3621
aVJohnny
p3622
ag55
asg56
(lp3623
g58
ag58
ag58
ag58
ag58
ag58
ag58
ag58
ag58
ag58
ag58
ag58
ag58
ag58
ag58
ag58
ag58
ag58
ag58
aVPERSON
p3624
ag58
aVPERSON
p3625
ag58
asg60
(lp3626
g72
ag152
ag153
ag62
ag349
ag72
ag153
ag67
ag153
ag215
ag153
ag153
ag153
ag66
ag155
ag66
ag72
ag153
ag62
ag64
ag215
ag64
ag74
asg75
VThe labour leader against whom the paper's solemn and weighty editorial injunction was laid was the father of Gladys and Johnny.
p3627
sba(i__main__
Sentence
p3628
(dp3629
g17
I11
sg18
(lp3630
S'He'
p3631
aS'picked'
p3632
aS'up'
p3633
aS'the'
p3634
aS'remains'
p3635
aS'of'
p3636
aS'the'
p3637
aS'journal'
p3638
aS'from'
p3639
aS'which'
p3640
aS'Gladys'
p3641
aS'had'
p3642
aS'ravished'
p3643
aS'a'
p3644
aS'cosmetic'
p3645
aS'of'
p3646
aS'silken'
p3647
aS'sounds'
p3648
aS'.'
p3649
asg37
(lp3650
VHe
p3651
aVpick
p3652
aVup
p3653
aVthe
p3654
aVremains
p3655
aVof
p3656
aVthe
p3657
aVjournal
p3658
aVfrom
p3659
aVwhich
p3660
aVGladys
p3661
ag511
aVravish
p3662
ag138
aVcosmetic
p3663
aVof
p3664
aVsilken
p3665
aVsound
p3666
ag55
asg56
(lp3667
g58
ag58
ag58
ag58
ag58
ag58
ag58
ag58
ag58
ag58
aVPERSON
p3668
ag58
ag58
ag58
ag58
ag58
ag58
ag58
ag58
asg60
(lp3669
g65
ag66
ag530
ag72
ag73
ag62
ag72
ag153
ag62
ag410
ag64
ag66
ag155
ag72
ag68
ag62
ag153
ag73
ag74
asg75
VHe picked up the remains of the journal from which Gladys had ravished a cosmetic of silken sounds.
p3670
sba(i__main__
Sentence
p3671
(dp3672
g17
I12
sg18
(lp3673
S'The'
p3674
aS'editorial'
p3675
aS'did'
p3676
aS'not'
p3677
aS'come'
p3678
aS'under'
p3679
aS'his'
p3680
aS'eye'
p3681
aS','
p3682
aS'but'
p3683
aS'instead'
p3684
aS'it'
p3685
aS'was'
p3686
aS'greeted'
p3687
aS'by'
p3688
aS'one'
p3689
aS'of'
p3690
aS'those'
p3691
aS'ingenious'
p3692
aS'and'
p3693
aS'specious'
p3694
aS'puzzle'
p3695
aS'problems'
p3696
aS'that'
p3697
aS'enthrall'
p3698
aS'alike'
p3699
aS'the'
p3700
aS'simpleton'
p3701
aS'and'
p3702
aS'the'
p3703
aS'sage'
p3704
aS'.'
p3705
asg37
(lp3706
VThe
p3707
aVeditorial
p3708
ag2809
aVnot
p3709
aVcome
p3710
aVunder
p3711
aVhis
p3712
aVeye
p3713
ag49
aVbut
p3714
aVinstead
p3715
aVit
p3716
ag195
aVgreet
p3717
aVby
p3718
aVone
p3719
aVof
p3720
aVthose
p3721
aVingenious
p3722
aVand
p3723
aVspecious
p3724
aVpuzzle
p3725
aVproblem
p3726
aVthat
p3727
aVenthrall
p3728
aValike
p3729
aVthe
p3730
aVsimpleton
p3731
aVand
p3732
aVthe
p3733
aVsage
p3734
ag55
asg56
(lp3735
g58
ag58
ag58
ag58
ag58
ag58
ag58
ag58
ag58
ag58
ag58
ag58
ag58
ag58
ag58
ag58
ag58
ag58
ag58
ag58
ag58
ag58
ag58
ag58
ag58
ag58
ag58
ag58
ag58
ag58
ag58
ag58
asg60
(lp3736
g72
ag153
ag66
ag70
ag155
ag62
ag152
ag153
ag69
ag215
ag70
ag65
ag66
ag155
ag62
ag63
ag62
ag72
ag68
ag215
ag68
ag153
ag73
ag410
ag242
ag71
ag72
ag153
ag215
ag72
ag153
ag74
asg75
VThe editorial did not come under his eye, but instead it was greeted by one of those ingenious and specious puzzle problems that enthrall alike the simpleton and the sage.
p3737
sba(i__main__
Sentence
p3738
(dp3739
g17
I13
sg18
(lp3740
S'The'
p3741
aS'labour'
p3742
aS'leader'
p3743
aS'tore'
p3744
aS'off'
p3745
aS'half'
p3746
aS'of'
p3747
aS'the'
p3748
aS'page'
p3749
aS','
p3750
aS'provided'
p3751
aS'himself'
p3752
aS'with'
p3753
aS'table'
p3754
aS','
p3755
aS'pencil'
p3756
aS'and'
p3757
aS'paper'
p3758
aS'and'
p3759
aS'glued'
p3760
aS'himself'
p3761
aS'to'
p3762
aS'his'
p3763
aS'puzzle'
p3764
aS'.'
p3765
asg37
(lp3766
VThe
p3767
aVlabour
p3768
aVleader
p3769
aVtore
p3770
aVoff
p3771
aVhalf
p3772
aVof
p3773
aVthe
p3774
aVpage
p3775
ag49
aVprovide
p3776
aVhimself
p3777
aVwith
p3778
aVtable
p3779
ag49
aVpencil
p3780
aVand
p3781
aVpaper
p3782
aVand
p3783
aVglue
p3784
aVhimself
p3785
aVto
p3786
aVhis
p3787
aVpuzzle
p3788
ag55
asg56
(lp3789
g58
ag58
ag58
ag58
ag58
ag58
ag58
ag58
ag58
ag58
ag58
ag58
ag58
ag58
ag58
ag58
ag58
ag58
ag58
ag58
ag58
ag58
ag58
ag58
ag58
asg60
(lp3790
g72
ag152
ag153
ag153
ag62
ag72
ag62
ag72
ag153
ag69
ag155
ag65
ag62
ag68
ag69
ag153
ag215
ag153
ag215
ag66
ag65
ag154
ag152
ag153
ag74
asg75
VThe labour leader tore off half of the page, provided himself with table, pencil and paper and glued himself to his puzzle.
p3791
sba(i__main__
Sentence
p3792
(dp3793
g17
I14
sg18
(lp3794
S'Three'
p3795
aS'hours'
p3796
aS'later'
p3797
aS','
p3798
aS'after'
p3799
aS'waiting'
p3800
aS'vainly'
p3801
aS'for'
p3802
aS'him'
p3803
aS'at'
p3804
aS'the'
p3805
aS'appointed'
p3806
aS'place'
p3807
aS','
p3808
aS'other'
p3809
aS'more'
p3810
aS'conservative'
p3811
aS'leaders'
p3812
aS'declared'
p3813
aS'and'
p3814
aS'ruled'
p3815
aS'in'
p3816
aS'favour'
p3817
aS'of'
p3818
aS'arbitration'
p3819
aS','
p3820
aS'and'
p3821
aS'the'
p3822
aS'strike'
p3823
aS'with'
p3824
aS'its'
p3825
aS'attendant'
p3826
aS'dangers'
p3827
aS'was'
p3828
aS'averted'
p3829
aS'.'
p3830
asg37
(lp3831
VThree
p3832
aVhour
p3833
aVlate
p3834
ag49
aVafter
p3835
aVwait
p3836
aVvainly
p3837
aVfor
p3838
aVhim
p3839
aVat
p3840
aVthe
p3841
aVappoint
p3842
aVplace
p3843
ag49
aVother
p3844
aVmore
p3845
aVconservative
p3846
aVleader
p3847
aVdeclare
p3848
aVand
p3849
aVrule
p3850
aVin
p3851
aVfavour
p3852
aVof
p3853
aVarbitration
p3854
ag49
aVand
p3855
aVthe
p3856
aVstrike
p3857
aVwith
p3858
aVit
p3859
aVattendant
p3860
aVdanger
p3861
ag195
aVavert
p3862
ag55
asg56
(lp3863
g58
ag58
ag58
ag58
ag58
ag58
ag58
ag58
ag58
ag58
ag58
ag58
ag58
ag58
ag58
ag58
ag58
ag58
ag58
ag58
ag58
ag58
ag58
ag58
ag58
ag58
ag58
ag58
ag58
ag58
ag58
ag58
ag58
ag58
ag58
ag58
asg60
(lp3864
g63
ag73
ag68
ag69
ag62
ag151
ag70
ag62
ag65
ag62
ag72
ag155
ag153
ag69
ag68
ag529
ag68
ag73
ag66
ag215
ag155
ag62
ag152
ag62
ag153
ag69
ag215
ag72
ag153
ag62
ag152
ag68
ag73
ag66
ag155
ag74
asg75
VThree hours later, after waiting vainly for him at the appointed place, other more conservative leaders declared and ruled in favour of arbitration, and the strike with its attendant dangers was averted.
p3865
sba(i__main__
Sentence
p3866
(dp3867
g17
I15
sg18
(lp3868
S'Subsequent'
p3869
aS'editions'
p3870
aS'of'
p3871
aS'the'
p3872
aS'paper'
p3873
aS'referred'
p3874
aS','
p3875
aS'in'
p3876
aS'coloured'
p3877
aS'inks'
p3878
aS','
p3879
aS'to'
p3880
aS'the'
p3881
aS'clarion'
p3882
aS'tone'
p3883
aS'of'
p3884
aS'its'
p3885
aS'successful'
p3886
aS'denunciation'
p3887
aS'of'
p3888
aS'the'
p3889
aS'labour'
p3890
aS'leader'
p3891
aS"'s"
p3892
aS'intended'
p3893
aS'designs'
p3894
aS'.'
p3895
asg37
(lp3896
VSubsequent
p3897
aVedition
p3898
aVof
p3899
aVthe
p3900
aVpaper
p3901
ag3003
ag49
aVin
p3902
aVcolour
p3903
aVink
p3904
ag49
aVto
p3905
aVthe
p3906
aVclarion
p3907
aVtone
p3908
aVof
p3909
aVit
p3910
aVsuccessful
p3911
aVdenunciation
p3912
aVof
p3913
aVthe
p3914
aVlabour
p3915
aVleader
p3916
aV's
p3917
aVintend
p3918
aVdesign
p3919
ag55
asg56
(lp3920
g58
ag58
ag58
ag58
ag58
ag58
ag58
ag58
ag58
ag58
ag58
ag58
ag58
ag58
ag58
ag58
ag58
ag58
ag58
ag58
ag58
ag58
ag58
ag58
ag58
ag58
ag58
asg60
(lp3921
g64
ag73
ag62
ag72
ag153
ag66
ag69
ag62
ag155
ag73
ag69
ag154
ag72
ag153
ag153
ag62
ag152
ag68
ag153
ag62
ag72
ag153
ag153
ag67
ag155
ag73
ag74
asg75
VSubsequent editions of the paper referred, in coloured inks, to the clarion tone of its successful denunciation of the labour leader's intended designs.
p3922
sbasbsS'name'
p3923
S'A Newspaper Story'
p3924
sS'summaries'
p3925
(lp3926
g3266
asb.