ccopy_reg
_reconstructor
p0
(c__main__
Story
p1
c__builtin__
object
p2
Ntp3
Rp4
(dp5
S'text'
p6
g0
(c__main__
Document
p7
g2
Ntp8
Rp9
(dp10
S'_Document__initialContent'
p11
S"There were once two brothers, the one rich, the other poor.\nThe rich one, however, gave nothing to the poor one, and he\ngained a scanty living by trading in corn, and often did so\nbadly that he had no bread for his wife and children.  Once\nwhen he was wheeling a barrow through the forest he saw, on\none side of him, a great, bare, naked-looking mountain, and as he\nhad never seen it before, he stood still and stared at it with\namazement.\nWhile he was thus standing he saw twelve great, wild men coming\ntowards him, and as he believed they were robbers he pushed his\nbarrow into the thicket, climbed up a tree, and waited to see\nwhat would happen.  The twelve men, however, went to the\nmountain and cried, semsi mountain, semsi mountain, open up, and\nimmediately the barren mountain opened down the middle, and\nthe twelve went into it, and as soon as they were within, it\nshut.  After a short time, it opened again, and the men came\nforth carrying heavy sacks on their shoulders, and when they\nwere all once more in the daylight they said, semsi mountain,\nsemsi mountain, shut yourself, then the mountain closed\ntogether, and there was no longer any entrance to be seen to it,\nand the twelve went away.\nWhen they were quite out of sight the poor man got down from\nthe tree, and was curious to know what was secretly hidden in\nthe mountain.  So he went up to it and said, semsi mountain,\nsemsi mountain, open up, and the mountain opened up to him also.\nThen he went inside, and the whole mountain was a cavern full of\nsilver and gold, and behind lay great piles of pearls and\nsparkling jewels, heaped up like corn.  The poor man hardly knew\nwhat to do, and whether he might take any of these treasures for\nhimself or not.  At last he filled his pockets with gold, but\nhe left the pearls and precious stones where they were.  When he\ncame out again he also said, semsi mountain, semsi mountain,\nshut yourself, and the mountain closed itself, and he went home\nwith his barrow.\nAnd now he had no more cause for anxiety, but could buy bread\nfor his wife and children with his gold, and wine into the bargain.\nHe lived joyously and honorably, gave help to the poor, and did\ngood to every one.  When the money came to an end, however, he\nwent to his brother, borrowed a measure that held a bushel,\nand brought himself some more, but did not touch any of the\nmost valuable things.  When for the third time he wanted to\nfetch something, he again borrowed the measure of his brother.\nBut the rich man had long been envious of his brother's\npossessions, and of the handsome household which he kept up,\nand could not understand from whence the riches came, and what his\nbrother wanted with the measure.  Then he thought of a cunning\ntrick, and covered the bottom of the measure with pitch, and when\nhe got the measure back a piece of gold was sticking to it.  He\nat once went to his brother and asked him, what have you been\nmeasuring in the bushel measure.  Corn and barley, said the other.\nThen he showed him the piece of gold and threatened that if he did\nnot tell\nthe truth he would accuse him before a court of justice.  The poor\nman then told him everything, just as it had happened.  So the\nrich man ordered his carriage to be made ready, and drove away,\nresolved to use the opportunity better than his brother had\ndone, and to bring back with him quite different treasures.\nWhen he came to the mountain he cried, semsi mountain, semsi\nmountain, open up.  The mountain opened, and he went inside it.\nThere lay the treasures all before him, and for a long time he\ndid not know which to grab first.  At length he loaded himself\nwith as many precious stones as he could carry.  He wished to\ncarry his burden outside, but as his heart and soul were entirely\nfull of the treasures, he had forgotten the name of the mountain,\nand cried, simeli mountain, simeli mountain, open up.  That,\nhowever, was not the right name, and the mountain never stirred,\nbut remained shut.  Then he was alarmed, and the longer he\nthought about it the more his thoughts confused themselves, and\nall his treasures were of no help to him.  In the evening the\nmountain opened, and the twelve robbers came in, and when they\nsaw him they laughed, and cried out, bird, have we caught you\nat last.  Did you think we had never noticed that you had\nbeen in here twice.  We could not catch you then, this third\ntime you shall not get out again.  Then he cried, it was not I,\nit was my brother, but let him beg for his life and say what he\nwould, they cut off his head.\n"
p12
sS'sentences'
p13
(lp14
(i__main__
Sentence
p15
(dp16
S'index'
p17
I0
sS'words'
p18
(lp19
S'There'
p20
aS'were'
p21
aS'once'
p22
aS'two'
p23
aS'brothers'
p24
aS','
p25
aS'the'
p26
aS'one'
p27
aS'rich'
p28
aS','
p29
aS'the'
p30
aS'other'
p31
aS'poor'
p32
aS'.'
p33
asS'lemmas'
p34
(lp35
VThere
p36
aVbe
p37
aVonce
p38
aVtwo
p39
aVbrother
p40
aV,
p41
aVthe
p42
aVone
p43
aVrich
p44
ag41
aVthe
p45
aVother
p46
aVpoor
p47
aV.
p48
asS'nerTags'
p49
(lp50
VO
p51
ag51
ag51
ag51
ag51
ag51
ag51
ag51
ag51
ag51
ag51
ag51
ag51
ag51
asS'posTags'
p52
(lp53
S'EX'
p54
aS'VBD'
p55
aS'RB'
p56
aS'CD'
p57
aS'NNS'
p58
aS','
p59
aS'DT'
p60
ag57
aS'JJ'
p61
ag59
ag60
ag61
aS'NN'
p62
aS'.'
p63
asS'_Sentence__initialContent'
p64
VThere were once two brothers, the one rich, the other poor.
p65
sba(i__main__
Sentence
p66
(dp67
g17
I1
sg18
(lp68
S'The'
p69
aS'rich'
p70
aS'one'
p71
aS','
p72
aS'however'
p73
aS','
p74
aS'gave'
p75
aS'nothing'
p76
aS'to'
p77
aS'the'
p78
aS'poor'
p79
aS'one'
p80
aS','
p81
aS'and'
p82
aS'he'
p83
aS'gained'
p84
aS'a'
p85
aS'scanty'
p86
aS'living'
p87
aS'by'
p88
aS'trading'
p89
aS'in'
p90
aS'corn'
p91
aS','
p92
aS'and'
p93
aS'often'
p94
aS'did'
p95
aS'so'
p96
aS'badly'
p97
aS'that'
p98
aS'he'
p99
aS'had'
p100
aS'no'
p101
aS'bread'
p102
aS'for'
p103
aS'his'
p104
aS'wife'
p105
aS'and'
p106
aS'children'
p107
aS'.'
p108
asg34
(lp109
VThe
p110
aVrich
p111
aVone
p112
ag41
aVhowever
p113
ag41
aVgive
p114
aVnothing
p115
aVto
p116
aVthe
p117
aVpoor
p118
aVone
p119
ag41
aVand
p120
aVhe
p121
aVgain
p122
aVa
p123
aVscanty
p124
aVlive
p125
aVby
p126
aVtrading
p127
aVin
p128
aVcorn
p129
ag41
aVand
p130
aVoften
p131
aVdo
p132
aVso
p133
aVbadly
p134
aVthat
p135
aVhe
p136
aVhave
p137
aVno
p138
aVbread
p139
aVfor
p140
aVhis
p141
aVwife
p142
aVand
p143
aVchild
p144
ag48
asg49
(lp145
g51
ag51
ag51
ag51
ag51
ag51
ag51
ag51
ag51
ag51
ag51
ag51
ag51
ag51
ag51
ag51
ag51
ag51
ag51
ag51
ag51
ag51
ag51
ag51
ag51
ag51
ag51
ag51
ag51
ag51
ag51
ag51
ag51
ag51
ag51
ag51
ag51
ag51
ag51
ag51
asg52
(lp146
g60
ag61
ag57
ag59
ag56
ag59
ag55
ag62
aS'TO'
p147
ag60
ag61
ag57
ag59
aS'CC'
p148
aS'PRP'
p149
ag55
ag60
ag62
aS'VBG'
p150
aS'IN'
p151
ag62
ag151
ag62
ag59
ag148
ag56
ag55
ag56
ag56
ag151
ag149
ag55
ag60
ag62
ag151
aS'PRP$'
p152
ag62
ag148
ag58
ag63
asg64
VThe rich one, however, gave nothing to the poor one, and he gained a scanty living by trading in corn, and often did so badly that he had no bread for his wife and children.
p153
sba(i__main__
Sentence
p154
(dp155
g17
I2
sg18
(lp156
S'Once'
p157
aS'when'
p158
aS'he'
p159
aS'was'
p160
aS'wheeling'
p161
aS'a'
p162
aS'barrow'
p163
aS'through'
p164
aS'the'
p165
aS'forest'
p166
aS'he'
p167
aS'saw'
p168
aS','
p169
aS'on'
p170
aS'one'
p171
aS'side'
p172
aS'of'
p173
aS'him'
p174
aS','
p175
aS'a'
p176
aS'great'
p177
aS','
p178
aS'bare'
p179
aS','
p180
aS'naked-looking'
p181
aS'mountain'
p182
aS','
p183
aS'and'
p184
aS'as'
p185
aS'he'
p186
aS'had'
p187
aS'never'
p188
aS'seen'
p189
aS'it'
p190
aS'before'
p191
aS','
p192
aS'he'
p193
aS'stood'
p194
aS'still'
p195
aS'and'
p196
aS'stared'
p197
aS'at'
p198
aS'it'
p199
aS'with'
p200
aS'amazement'
p201
aS'.'
p202
asg34
(lp203
VOnce
p204
aVwhen
p205
aVhe
p206
aVbe
p207
aVwheel
p208
ag123
aVbarrow
p209
aVthrough
p210
aVthe
p211
aVforest
p212
aVhe
p213
aVsaw
p214
ag41
aVon
p215
aVone
p216
aVside
p217
aVof
p218
aVhim
p219
ag41
ag123
aVgreat
p220
ag41
aVbare
p221
ag41
aVnaked-looking
p222
aVmountain
p223
ag41
aVand
p224
ag123
aVhe
p225
ag137
aVnever
p226
aVsee
p227
aVit
p228
aVbefore
p229
ag41
aVhe
p230
aVstand
p231
aVstill
p232
aVand
p233
aVstar
p234
aVat
p235
aVit
p236
aVwith
p237
aVamazement
p238
ag48
asg49
(lp239
g51
ag51
ag51
ag51
ag51
ag51
ag51
ag51
ag51
ag51
ag51
ag51
ag51
ag51
ag51
ag51
ag51
ag51
ag51
ag51
ag51
ag51
ag51
ag51
ag51
ag51
ag51
ag51
ag51
ag51
ag51
ag51
ag51
ag51
ag51
ag51
ag51
ag51
ag51
ag51
ag51
ag51
ag51
ag51
ag51
ag51
asg52
(lp240
g56
aS'WRB'
p241
ag149
ag55
ag150
ag60
ag62
ag151
ag60
aS'JJS'
p242
ag149
ag55
ag59
ag151
ag57
ag62
ag151
ag149
ag59
ag60
ag61
ag59
ag61
ag59
ag61
ag62
ag59
ag148
ag151
ag149
ag55
ag56
aS'VBN'
p243
ag149
ag56
ag59
ag149
ag55
ag56
ag148
ag55
ag151
ag149
ag151
ag62
ag63
asg64
VOnce when he was wheeling a barrow through the forest he saw, on one side of him, a great, bare, naked-looking mountain, and as he had never seen it before, he stood still and stared at it with amazement.
p244
sba(i__main__
Sentence
p245
(dp246
g17
I3
sg18
(lp247
S'While'
p248
aS'he'
p249
aS'was'
p250
aS'thus'
p251
aS'standing'
p252
aS'he'
p253
aS'saw'
p254
aS'twelve'
p255
aS'great'
p256
aS','
p257
aS'wild'
p258
aS'men'
p259
aS'coming'
p260
aS'towards'
p261
aS'him'
p262
aS','
p263
aS'and'
p264
aS'as'
p265
aS'he'
p266
aS'believed'
p267
aS'they'
p268
aS'were'
p269
aS'robbers'
p270
aS'he'
p271
aS'pushed'
p272
aS'his'
p273
aS'barrow'
p274
aS'into'
p275
aS'the'
p276
aS'thicket'
p277
aS','
p278
aS'climbed'
p279
aS'up'
p280
aS'a'
p281
aS'tree'
p282
aS','
p283
aS'and'
p284
aS'waited'
p285
aS'to'
p286
aS'see'
p287
aS'what'
p288
aS'would'
p289
aS'happen'
p290
aS'.'
p291
asg34
(lp292
VWhile
p293
aVhe
p294
ag207
aVthus
p295
aVstand
p296
aVhe
p297
aVsaw
p298
aVtwelve
p299
aVgreat
p300
ag41
aVwild
p301
aVmen
p302
aVcome
p303
aVtowards
p304
aVhim
p305
ag41
aVand
p306
ag123
aVhe
p307
aVbelieve
p308
aVthey
p309
ag37
aVrobber
p310
aVhe
p311
aVpush
p312
aVhis
p313
aVbarrow
p314
aVinto
p315
aVthe
p316
aVthicket
p317
ag41
aVclimb
p318
aVup
p319
ag123
aVtree
p320
ag41
aVand
p321
aVwait
p322
aVto
p323
aVsee
p324
aVwhat
p325
aVwould
p326
aVhappen
p327
ag48
asg49
(lp328
g51
ag51
ag51
ag51
ag51
ag51
ag51
ag51
ag51
ag51
ag51
ag51
ag51
ag51
ag51
ag51
ag51
ag51
ag51
ag51
ag51
ag51
ag51
ag51
ag51
ag51
ag51
ag51
ag51
ag51
ag51
ag51
ag51
ag51
ag51
ag51
ag51
ag51
ag51
ag51
ag51
ag51
ag51
ag51
asg52
(lp329
g151
ag149
ag55
ag56
ag150
ag149
ag55
aS'VB'
p330
ag61
ag59
ag61
ag58
ag150
ag58
ag149
ag59
ag148
ag151
ag149
ag55
ag149
ag55
ag58
ag149
ag55
ag152
ag62
ag151
ag60
ag62
ag59
ag55
aS'RP'
p331
ag60
ag62
ag59
ag148
ag55
ag147
ag330
aS'WP'
p332
aS'MD'
p333
ag330
ag63
asg64
VWhile he was thus standing he saw twelve great, wild men coming towards him, and as he believed they were robbers he pushed his barrow into the thicket, climbed up a tree, and waited to see what would happen.
p334
sba(i__main__
Sentence
p335
(dp336
g17
I4
sg18
(lp337
S'The'
p338
aS'twelve'
p339
aS'men'
p340
aS','
p341
aS'however'
p342
aS','
p343
aS'went'
p344
aS'to'
p345
aS'the'
p346
aS'mountain'
p347
aS'and'
p348
aS'cried'
p349
aS','
p350
aS'semsi'
p351
aS'mountain'
p352
aS','
p353
aS'semsi'
p354
aS'mountain'
p355
aS','
p356
aS'open'
p357
aS'up'
p358
aS','
p359
aS'and'
p360
aS'immediately'
p361
aS'the'
p362
aS'barren'
p363
aS'mountain'
p364
aS'opened'
p365
aS'down'
p366
aS'the'
p367
aS'middle'
p368
aS','
p369
aS'and'
p370
aS'the'
p371
aS'twelve'
p372
aS'went'
p373
aS'into'
p374
aS'it'
p375
aS','
p376
aS'and'
p377
aS'as'
p378
aS'soon'
p379
aS'as'
p380
aS'they'
p381
aS'were'
p382
aS'within'
p383
aS','
p384
aS'it'
p385
aS'shut'
p386
aS'.'
p387
asg34
(lp388
VThe
p389
aVtwelve
p390
aVmen
p391
ag41
aVhowever
p392
ag41
aVgo
p393
aVto
p394
aVthe
p395
aVmountain
p396
aVand
p397
aVcry
p398
ag41
aVsemsi
p399
aVmountain
p400
ag41
aVsemsi
p401
aVmountain
p402
ag41
aVopen
p403
aVup
p404
ag41
aVand
p405
aVimmediately
p406
aVthe
p407
aVbarren
p408
aVmountain
p409
aVopen
p410
aVdown
p411
aVthe
p412
aVmiddle
p413
ag41
aVand
p414
aVthe
p415
aVtwelve
p416
ag393
aVinto
p417
aVit
p418
ag41
aVand
p419
ag123
aVsoon
p420
ag123
aVthey
p421
ag37
aVwithin
p422
ag41
aVit
p423
aVshut
p424
ag48
asg49
(lp425
g51
ag51
ag51
ag51
ag51
ag51
ag51
ag51
ag51
ag51
ag51
ag51
ag51
ag51
ag51
ag51
ag51
ag51
ag51
ag51
ag51
ag51
ag51
ag51
ag51
ag51
ag51
ag51
ag51
ag51
ag51
ag51
ag51
ag51
ag51
ag51
ag51
ag51
ag51
ag51
ag51
ag51
ag51
ag51
ag51
ag51
ag51
ag51
ag51
ag51
asg52
(lp426
g60
ag62
ag58
ag59
ag56
ag59
ag55
ag147
ag60
ag62
ag148
ag55
ag59
ag62
ag62
ag59
ag62
ag62
ag59
ag61
ag331
ag59
ag148
ag56
ag60
ag58
aS'VBP'
p427
ag243
ag331
ag60
ag62
ag59
ag148
ag60
ag62
ag55
ag151
ag149
ag59
ag148
ag151
ag56
ag151
ag149
ag55
ag151
ag59
ag149
ag55
ag63
asg64
VThe twelve men, however, went to the mountain and cried, semsi mountain, semsi mountain, open up, and immediately the barren mountain opened down the middle, and the twelve went into it, and as soon as they were within, it shut.
p428
sba(i__main__
Sentence
p429
(dp430
g17
I5
sg18
(lp431
S'After'
p432
aS'a'
p433
aS'short'
p434
aS'time'
p435
aS','
p436
aS'it'
p437
aS'opened'
p438
aS'again'
p439
aS','
p440
aS'and'
p441
aS'the'
p442
aS'men'
p443
aS'came'
p444
aS'forth'
p445
aS'carrying'
p446
aS'heavy'
p447
aS'sacks'
p448
aS'on'
p449
aS'their'
p450
aS'shoulders'
p451
aS','
p452
aS'and'
p453
aS'when'
p454
aS'they'
p455
aS'were'
p456
aS'all'
p457
aS'once'
p458
aS'more'
p459
aS'in'
p460
aS'the'
p461
aS'daylight'
p462
aS'they'
p463
aS'said'
p464
aS','
p465
aS'semsi'
p466
aS'mountain'
p467
aS','
p468
aS'semsi'
p469
aS'mountain'
p470
aS','
p471
aS'shut'
p472
aS'yourself'
p473
aS','
p474
aS'then'
p475
aS'the'
p476
aS'mountain'
p477
aS'closed'
p478
aS'together'
p479
aS','
p480
aS'and'
p481
aS'there'
p482
aS'was'
p483
aS'no'
p484
aS'longer'
p485
aS'any'
p486
aS'entrance'
p487
aS'to'
p488
aS'be'
p489
aS'seen'
p490
aS'to'
p491
aS'it'
p492
aS','
p493
aS'and'
p494
aS'the'
p495
aS'twelve'
p496
aS'went'
p497
aS'away'
p498
aS'.'
p499
asg34
(lp500
VAfter
p501
ag123
aVshort
p502
aVtime
p503
ag41
aVit
p504
aVopen
p505
aVagain
p506
ag41
aVand
p507
aVthe
p508
aVmen
p509
aVcome
p510
aVforth
p511
aVcarrying
p512
aVheavy
p513
aVsack
p514
aVon
p515
aVtheir
p516
aVshoulder
p517
ag41
aVand
p518
aVwhen
p519
aVthey
p520
ag37
aVall
p521
aVonce
p522
aVmore
p523
aVin
p524
aVthe
p525
aVdaylight
p526
aVthey
p527
aVsay
p528
ag41
aVsemsi
p529
aVmountain
p530
ag41
aVsemsi
p531
aVmountain
p532
ag41
aVshut
p533
aVyourself
p534
ag41
aVthen
p535
aVthe
p536
aVmountain
p537
aVclose
p538
aVtogether
p539
ag41
aVand
p540
aVthere
p541
ag207
aVno
p542
aVlonger
p543
aVany
p544
aVentrance
p545
aVto
p546
aVbe
p547
ag227
aVto
p548
aVit
p549
ag41
aVand
p550
aVthe
p551
aVtwelve
p552
ag393
aVaway
p553
ag48
asg49
(lp554
g51
ag51
ag51
ag51
ag51
ag51
ag51
ag51
ag51
ag51
ag51
ag51
ag51
ag51
ag51
ag51
ag51
ag51
ag51
ag51
ag51
ag51
ag51
ag51
ag51
ag51
ag51
ag51
ag51
ag51
ag51
ag51
ag51
ag51
ag51
ag51
ag51
ag51
ag51
ag51
ag51
ag51
ag51
ag51
ag51
ag51
ag51
ag51
ag51
ag51
ag51
ag51
ag51
ag51
ag51
ag51
ag51
ag51
ag51
ag51
ag51
ag51
ag51
ag51
ag51
ag51
ag51
ag51
asg52
(lp555
g151
ag60
ag61
ag62
ag59
ag149
ag55
ag56
ag59
ag148
ag60
ag58
ag55
ag61
ag62
ag61
ag58
ag151
ag152
ag58
ag59
ag148
ag241
ag149
ag55
aS'PDT'
p556
ag56
aS'RBR'
p557
ag151
ag60
ag62
ag149
ag55
ag59
ag62
ag62
ag59
ag62
ag62
ag59
ag62
ag149
ag59
ag56
ag60
ag62
ag55
ag56
ag59
ag148
ag54
ag55
ag60
ag62
ag60
ag62
ag147
ag330
ag243
ag147
ag149
ag59
ag148
ag60
ag62
ag55
ag56
ag63
asg64
VAfter a short time, it opened again, and the men came forth carrying heavy sacks on their shoulders, and when they were all once more in the daylight they said, semsi mountain, semsi mountain, shut yourself, then the mountain closed together, and there was no longer any entrance to be seen to it, and the twelve went away.
p558
sba(i__main__
Sentence
p559
(dp560
g17
I6
sg18
(lp561
S'When'
p562
aS'they'
p563
aS'were'
p564
aS'quite'
p565
aS'out'
p566
aS'of'
p567
aS'sight'
p568
aS'the'
p569
aS'poor'
p570
aS'man'
p571
aS'got'
p572
aS'down'
p573
aS'from'
p574
aS'the'
p575
aS'tree'
p576
aS','
p577
aS'and'
p578
aS'was'
p579
aS'curious'
p580
aS'to'
p581
aS'know'
p582
aS'what'
p583
aS'was'
p584
aS'secretly'
p585
aS'hidden'
p586
aS'in'
p587
aS'the'
p588
aS'mountain'
p589
aS'.'
p590
asg34
(lp591
VWhen
p592
aVthey
p593
ag37
aVquite
p594
aVout
p595
aVof
p596
aVsight
p597
aVthe
p598
aVpoor
p599
aVman
p600
aVget
p601
aVdown
p602
aVfrom
p603
aVthe
p604
aVtree
p605
ag41
aVand
p606
ag207
aVcurious
p607
aVto
p608
aVknow
p609
aVwhat
p610
ag207
aVsecretly
p611
aVhide
p612
aVin
p613
aVthe
p614
aVmountain
p615
ag48
asg49
(lp616
g51
ag51
ag51
ag51
ag51
ag51
ag51
ag51
ag51
ag51
ag51
ag51
ag51
ag51
ag51
ag51
ag51
ag51
ag51
ag51
ag51
ag51
ag51
ag51
ag51
ag51
ag51
ag51
ag51
asg52
(lp617
g241
ag149
ag55
ag56
ag151
ag151
ag62
ag60
ag61
ag62
ag55
ag151
ag151
ag60
ag62
ag59
ag148
ag55
ag61
ag147
ag330
ag332
ag55
ag56
ag243
ag151
ag60
ag62
ag63
asg64
VWhen they were quite out of sight the poor man got down from the tree, and was curious to know what was secretly hidden in the mountain.
p618
sba(i__main__
Sentence
p619
(dp620
g17
I7
sg18
(lp621
S'So'
p622
aS'he'
p623
aS'went'
p624
aS'up'
p625
aS'to'
p626
aS'it'
p627
aS'and'
p628
aS'said'
p629
aS','
p630
aS'semsi'
p631
aS'mountain'
p632
aS','
p633
aS'semsi'
p634
aS'mountain'
p635
aS','
p636
aS'open'
p637
aS'up'
p638
aS','
p639
aS'and'
p640
aS'the'
p641
aS'mountain'
p642
aS'opened'
p643
aS'up'
p644
aS'to'
p645
aS'him'
p646
aS'also'
p647
aS'.'
p648
asg34
(lp649
VSo
p650
aVhe
p651
ag393
aVup
p652
aVto
p653
aVit
p654
aVand
p655
ag528
ag41
aVsemsi
p656
aVmountain
p657
ag41
aVsemsi
p658
aVmountain
p659
ag41
aVopen
p660
aVup
p661
ag41
aVand
p662
aVthe
p663
aVmountain
p664
aVopen
p665
aVup
p666
aVto
p667
aVhim
p668
aValso
p669
ag48
asg49
(lp670
g51
ag51
ag51
ag51
ag51
ag51
ag51
ag51
ag51
ag51
ag51
ag51
ag51
ag51
ag51
ag51
ag51
ag51
ag51
ag51
ag51
ag51
ag51
ag51
ag51
ag51
ag51
asg52
(lp671
g151
ag149
ag55
ag331
ag147
ag149
ag148
ag55
ag59
ag62
ag62
ag59
ag62
ag62
ag59
ag61
ag331
ag59
ag148
ag60
ag62
ag55
ag331
ag147
ag149
ag56
ag63
asg64
VSo he went up to it and said, semsi mountain, semsi mountain, open up, and the mountain opened up to him also.
p672
sba(i__main__
Sentence
p673
(dp674
g17
I8
sg18
(lp675
S'Then'
p676
aS'he'
p677
aS'went'
p678
aS'inside'
p679
aS','
p680
aS'and'
p681
aS'the'
p682
aS'whole'
p683
aS'mountain'
p684
aS'was'
p685
aS'a'
p686
aS'cavern'
p687
aS'full'
p688
aS'of'
p689
aS'silver'
p690
aS'and'
p691
aS'gold'
p692
aS','
p693
aS'and'
p694
aS'behind'
p695
aS'lay'
p696
aS'great'
p697
aS'piles'
p698
aS'of'
p699
aS'pearls'
p700
aS'and'
p701
aS'sparkling'
p702
aS'jewels'
p703
aS','
p704
aS'heaped'
p705
aS'up'
p706
aS'like'
p707
aS'corn'
p708
aS'.'
p709
asg34
(lp710
VThen
p711
aVhe
p712
ag393
aVinside
p713
ag41
aVand
p714
aVthe
p715
aVwhole
p716
aVmountain
p717
ag207
ag123
aVcavern
p718
aVfull
p719
aVof
p720
aVsilver
p721
aVand
p722
aVgold
p723
ag41
aVand
p724
aVbehind
p725
aVlay
p726
aVgreat
p727
aVpile
p728
aVof
p729
aVpearl
p730
aVand
p731
aVsparkle
p732
aVjewel
p733
ag41
aVheap
p734
aVup
p735
aVlike
p736
aVcorn
p737
ag48
asg49
(lp738
g51
ag51
ag51
ag51
ag51
ag51
ag51
ag51
ag51
ag51
ag51
ag51
ag51
ag51
ag51
ag51
ag51
ag51
ag51
ag51
ag51
ag51
ag51
ag51
ag51
ag51
ag51
ag51
ag51
ag51
ag51
ag51
ag51
ag51
asg52
(lp739
g56
ag149
ag55
ag56
ag59
ag148
ag60
ag61
ag62
ag55
ag60
ag62
ag61
ag151
ag62
ag148
ag62
ag59
ag148
ag151
ag62
ag62
ag58
ag151
ag58
ag148
ag150
ag58
ag59
ag55
ag331
ag151
ag62
ag63
asg64
VThen he went inside, and the whole mountain was a cavern full of silver and gold, and behind lay great piles of pearls and sparkling jewels, heaped up like corn.
p740
sba(i__main__
Sentence
p741
(dp742
g17
I9
sg18
(lp743
S'The'
p744
aS'poor'
p745
aS'man'
p746
aS'hardly'
p747
aS'knew'
p748
aS'what'
p749
aS'to'
p750
aS'do'
p751
aS','
p752
aS'and'
p753
aS'whether'
p754
aS'he'
p755
aS'might'
p756
aS'take'
p757
aS'any'
p758
aS'of'
p759
aS'these'
p760
aS'treasures'
p761
aS'for'
p762
aS'himself'
p763
aS'or'
p764
aS'not'
p765
aS'.'
p766
asg34
(lp767
VThe
p768
aVpoor
p769
aVman
p770
aVhardly
p771
aVknow
p772
aVwhat
p773
aVto
p774
aVdo
p775
ag41
aVand
p776
aVwhether
p777
aVhe
p778
aVmight
p779
aVtake
p780
aVany
p781
aVof
p782
aVthese
p783
aVtreasure
p784
aVfor
p785
aVhimself
p786
aVor
p787
aVnot
p788
ag48
asg49
(lp789
g51
ag51
ag51
ag51
ag51
ag51
ag51
ag51
ag51
ag51
ag51
ag51
ag51
ag51
ag51
ag51
ag51
ag51
ag51
ag51
ag51
ag51
ag51
asg52
(lp790
g60
ag61
ag62
ag56
ag55
ag332
ag147
ag330
ag59
ag148
ag151
ag149
ag333
ag330
ag60
ag151
ag60
ag58
ag151
ag149
ag148
ag56
ag63
asg64
VThe poor man hardly knew what to do, and whether he might take any of these treasures for himself or not.
p791
sba(i__main__
Sentence
p792
(dp793
g17
I10
sg18
(lp794
S'At'
p795
aS'last'
p796
aS'he'
p797
aS'filled'
p798
aS'his'
p799
aS'pockets'
p800
aS'with'
p801
aS'gold'
p802
aS','
p803
aS'but'
p804
aS'he'
p805
aS'left'
p806
aS'the'
p807
aS'pearls'
p808
aS'and'
p809
aS'precious'
p810
aS'stones'
p811
aS'where'
p812
aS'they'
p813
aS'were'
p814
aS'.'
p815
asg34
(lp816
VAt
p817
aVlast
p818
aVhe
p819
aVfill
p820
aVhis
p821
aVpocket
p822
aVwith
p823
aVgold
p824
ag41
aVbut
p825
aVhe
p826
aVleave
p827
aVthe
p828
aVpearl
p829
aVand
p830
aVprecious
p831
aVstone
p832
aVwhere
p833
aVthey
p834
ag37
ag48
asg49
(lp835
g51
ag51
ag51
ag51
ag51
ag51
ag51
ag51
ag51
ag51
ag51
ag51
ag51
ag51
ag51
ag51
ag51
ag51
ag51
ag51
ag51
asg52
(lp836
g151
ag61
ag149
ag55
ag152
ag58
ag151
ag62
ag59
ag148
ag149
ag55
ag60
ag58
ag148
ag61
ag58
ag241
ag149
ag55
ag63
asg64
VAt last he filled his pockets with gold, but he left the pearls and precious stones where they were.
p837
sba(i__main__
Sentence
p838
(dp839
g17
I11
sg18
(lp840
S'When'
p841
aS'he'
p842
aS'came'
p843
aS'out'
p844
aS'again'
p845
aS'he'
p846
aS'also'
p847
aS'said'
p848
aS','
p849
aS'semsi'
p850
aS'mountain'
p851
aS','
p852
aS'semsi'
p853
aS'mountain'
p854
aS','
p855
aS'shut'
p856
aS'yourself'
p857
aS','
p858
aS'and'
p859
aS'the'
p860
aS'mountain'
p861
aS'closed'
p862
aS'itself'
p863
aS','
p864
aS'and'
p865
aS'he'
p866
aS'went'
p867
aS'home'
p868
aS'with'
p869
aS'his'
p870
aS'barrow'
p871
aS'.'
p872
asg34
(lp873
VWhen
p874
aVhe
p875
ag510
aVout
p876
aVagain
p877
aVhe
p878
aValso
p879
ag528
ag41
aVsemsi
p880
aVmountain
p881
ag41
aVsemsi
p882
aVmountain
p883
ag41
aVshut
p884
aVyourself
p885
ag41
aVand
p886
aVthe
p887
aVmountain
p888
aVclose
p889
aVitself
p890
ag41
aVand
p891
aVhe
p892
ag393
aVhome
p893
aVwith
p894
aVhis
p895
aVbarrow
p896
ag48
asg49
(lp897
g51
ag51
ag51
ag51
ag51
ag51
ag51
ag51
ag51
ag51
ag51
ag51
ag51
ag51
ag51
ag51
ag51
ag51
ag51
ag51
ag51
ag51
ag51
ag51
ag51
ag51
ag51
ag51
ag51
ag51
ag51
ag51
asg52
(lp898
g241
ag149
ag55
ag331
ag56
ag149
ag56
ag55
ag59
ag62
ag62
ag59
ag62
ag62
ag59
ag62
ag149
ag59
ag148
ag60
ag62
ag55
ag149
ag59
ag148
ag149
ag55
ag62
ag151
ag152
ag62
ag63
asg64
VWhen he came out again he also said, semsi mountain, semsi mountain, shut yourself, and the mountain closed itself, and he went home with his barrow.
p899
sba(i__main__
Sentence
p900
(dp901
g17
I12
sg18
(lp902
S'And'
p903
aS'now'
p904
aS'he'
p905
aS'had'
p906
aS'no'
p907
aS'more'
p908
aS'cause'
p909
aS'for'
p910
aS'anxiety'
p911
aS','
p912
aS'but'
p913
aS'could'
p914
aS'buy'
p915
aS'bread'
p916
aS'for'
p917
aS'his'
p918
aS'wife'
p919
aS'and'
p920
aS'children'
p921
aS'with'
p922
aS'his'
p923
aS'gold'
p924
aS','
p925
aS'and'
p926
aS'wine'
p927
aS'into'
p928
aS'the'
p929
aS'bargain'
p930
aS'.'
p931
asg34
(lp932
VAnd
p933
aVnow
p934
aVhe
p935
ag137
aVno
p936
aVmore
p937
aVcause
p938
aVfor
p939
aVanxiety
p940
ag41
aVbut
p941
aVcould
p942
aVbuy
p943
aVbread
p944
aVfor
p945
aVhis
p946
aVwife
p947
aVand
p948
ag144
aVwith
p949
aVhis
p950
aVgold
p951
ag41
aVand
p952
aVwine
p953
aVinto
p954
aVthe
p955
aVbargain
p956
ag48
asg49
(lp957
g51
ag51
ag51
ag51
ag51
ag51
ag51
ag51
ag51
ag51
ag51
ag51
ag51
ag51
ag51
ag51
ag51
ag51
ag51
ag51
ag51
ag51
ag51
ag51
ag51
ag51
ag51
ag51
ag51
asg52
(lp958
g148
ag56
ag149
ag55
ag60
ag557
ag62
ag151
ag62
ag59
ag148
ag333
ag330
ag62
ag151
ag152
ag62
ag148
ag58
ag151
ag152
ag62
ag59
ag148
ag62
ag151
ag60
ag62
ag63
asg64
VAnd now he had no more cause for anxiety, but could buy bread for his wife and children with his gold, and wine into the bargain.
p959
sba(i__main__
Sentence
p960
(dp961
g17
I13
sg18
(lp962
S'He'
p963
aS'lived'
p964
aS'joyously'
p965
aS'and'
p966
aS'honorably'
p967
aS','
p968
aS'gave'
p969
aS'help'
p970
aS'to'
p971
aS'the'
p972
aS'poor'
p973
aS','
p974
aS'and'
p975
aS'did'
p976
aS'good'
p977
aS'to'
p978
aS'every'
p979
aS'one'
p980
aS'.'
p981
asg34
(lp982
VHe
p983
aVlive
p984
aVjoyously
p985
aVand
p986
aVhonorably
p987
ag41
ag114
aVhelp
p988
aVto
p989
aVthe
p990
aVpoor
p991
ag41
aVand
p992
ag132
aVgood
p993
aVto
p994
aVevery
p995
aVone
p996
ag48
asg49
(lp997
g51
ag51
ag51
ag51
ag51
ag51
ag51
ag51
ag51
ag51
ag51
ag51
ag51
ag51
ag51
ag51
ag51
ag51
ag51
asg52
(lp998
g149
ag55
ag56
ag148
ag56
ag59
ag55
ag62
ag147
ag60
ag61
ag59
ag148
ag55
ag61
ag147
ag60
ag57
ag63
asg64
VHe lived joyously and honorably, gave help to the poor, and did good to every one.
p999
sba(i__main__
Sentence
p1000
(dp1001
g17
I14
sg18
(lp1002
S'When'
p1003
aS'the'
p1004
aS'money'
p1005
aS'came'
p1006
aS'to'
p1007
aS'an'
p1008
aS'end'
p1009
aS','
p1010
aS'however'
p1011
aS','
p1012
aS'he'
p1013
aS'went'
p1014
aS'to'
p1015
aS'his'
p1016
aS'brother'
p1017
aS','
p1018
aS'borrowed'
p1019
aS'a'
p1020
aS'measure'
p1021
aS'that'
p1022
aS'held'
p1023
aS'a'
p1024
aS'bushel'
p1025
aS','
p1026
aS'and'
p1027
aS'brought'
p1028
aS'himself'
p1029
aS'some'
p1030
aS'more'
p1031
aS','
p1032
aS'but'
p1033
aS'did'
p1034
aS'not'
p1035
aS'touch'
p1036
aS'any'
p1037
aS'of'
p1038
aS'the'
p1039
aS'most'
p1040
aS'valuable'
p1041
aS'things'
p1042
aS'.'
p1043
asg34
(lp1044
VWhen
p1045
aVthe
p1046
aVmoney
p1047
ag510
aVto
p1048
aVan
p1049
aVend
p1050
ag41
aVhowever
p1051
ag41
aVhe
p1052
ag393
aVto
p1053
aVhis
p1054
aVbrother
p1055
ag41
aVborrow
p1056
ag123
aVmeasure
p1057
aVthat
p1058
aVhold
p1059
ag123
aVbushel
p1060
ag41
aVand
p1061
aVbring
p1062
aVhimself
p1063
aVsome
p1064
aVmore
p1065
ag41
aVbut
p1066
ag132
aVnot
p1067
aVtouch
p1068
aVany
p1069
aVof
p1070
aVthe
p1071
aVmost
p1072
aVvaluable
p1073
aVthing
p1074
ag48
asg49
(lp1075
g51
ag51
ag51
ag51
ag51
ag51
ag51
ag51
ag51
ag51
ag51
ag51
ag51
ag51
ag51
ag51
ag51
ag51
ag51
ag51
ag51
ag51
ag51
ag51
ag51
ag51
ag51
ag51
ag51
ag51
ag51
ag51
ag51
ag51
ag51
ag51
ag51
ag51
ag51
ag51
ag51
asg52
(lp1076
g241
ag60
ag62
ag55
ag147
ag60
ag62
ag59
ag56
ag59
ag149
ag55
ag147
ag152
ag62
ag59
ag55
ag60
ag62
aS'WDT'
p1077
ag243
ag60
ag62
ag59
ag148
ag55
ag149
ag60
ag557
ag59
ag148
ag55
ag56
ag61
ag60
ag151
ag60
aS'RBS'
p1078
ag61
ag58
ag63
asg64
VWhen the money came to an end, however, he went to his brother, borrowed a measure that held a bushel, and brought himself some more, but did not touch any of the most valuable things.
p1079
sba(i__main__
Sentence
p1080
(dp1081
g17
I15
sg18
(lp1082
S'When'
p1083
aS'for'
p1084
aS'the'
p1085
aS'third'
p1086
aS'time'
p1087
aS'he'
p1088
aS'wanted'
p1089
aS'to'
p1090
aS'fetch'
p1091
aS'something'
p1092
aS','
p1093
aS'he'
p1094
aS'again'
p1095
aS'borrowed'
p1096
aS'the'
p1097
aS'measure'
p1098
aS'of'
p1099
aS'his'
p1100
aS'brother'
p1101
aS'.'
p1102
asg34
(lp1103
VWhen
p1104
aVfor
p1105
aVthe
p1106
aVthird
p1107
aVtime
p1108
aVhe
p1109
aVwant
p1110
aVto
p1111
aVfetch
p1112
aVsomething
p1113
ag41
aVhe
p1114
aVagain
p1115
aVborrow
p1116
aVthe
p1117
aVmeasure
p1118
aVof
p1119
aVhis
p1120
aVbrother
p1121
ag48
asg49
(lp1122
g51
ag51
ag51
ag51
ag51
ag51
ag51
ag51
ag51
ag51
ag51
ag51
ag51
ag51
ag51
ag51
ag51
ag51
ag51
ag51
asg52
(lp1123
g241
ag151
ag60
ag61
ag62
ag149
ag55
ag147
ag330
ag62
ag59
ag149
ag56
ag55
ag60
ag62
ag151
ag152
ag62
ag63
asg64
VWhen for the third time he wanted to fetch something, he again borrowed the measure of his brother.
p1124
sba(i__main__
Sentence
p1125
(dp1126
g17
I16
sg18
(lp1127
S'But'
p1128
aS'the'
p1129
aS'rich'
p1130
aS'man'
p1131
aS'had'
p1132
aS'long'
p1133
aS'been'
p1134
aS'envious'
p1135
aS'of'
p1136
aS'his'
p1137
aS'brother'
p1138
aS"'s"
p1139
aS'possessions'
p1140
aS','
p1141
aS'and'
p1142
aS'of'
p1143
aS'the'
p1144
aS'handsome'
p1145
aS'household'
p1146
aS'which'
p1147
aS'he'
p1148
aS'kept'
p1149
aS'up'
p1150
aS','
p1151
aS'and'
p1152
aS'could'
p1153
aS'not'
p1154
aS'understand'
p1155
aS'from'
p1156
aS'whence'
p1157
aS'the'
p1158
aS'riches'
p1159
aS'came'
p1160
aS','
p1161
aS'and'
p1162
aS'what'
p1163
aS'his'
p1164
aS'brother'
p1165
aS'wanted'
p1166
aS'with'
p1167
aS'the'
p1168
aS'measure'
p1169
aS'.'
p1170
asg34
(lp1171
VBut
p1172
aVthe
p1173
aVrich
p1174
aVman
p1175
ag137
aVlong
p1176
aVbe
p1177
aVenvious
p1178
aVof
p1179
aVhis
p1180
aVbrother
p1181
aV's
p1182
aVpossession
p1183
ag41
aVand
p1184
aVof
p1185
aVthe
p1186
aVhandsome
p1187
aVhousehold
p1188
aVwhich
p1189
aVhe
p1190
aVkeep
p1191
aVup
p1192
ag41
aVand
p1193
aVcould
p1194
aVnot
p1195
aVunderstand
p1196
aVfrom
p1197
aVwhence
p1198
aVthe
p1199
aVrich
p1200
ag510
ag41
aVand
p1201
aVwhat
p1202
aVhis
p1203
aVbrother
p1204
aVwant
p1205
aVwith
p1206
aVthe
p1207
aVmeasure
p1208
ag48
asg49
(lp1209
g51
ag51
ag51
ag51
ag51
ag51
ag51
ag51
ag51
ag51
ag51
ag51
ag51
ag51
ag51
ag51
ag51
ag51
ag51
ag51
ag51
ag51
ag51
ag51
ag51
ag51
ag51
ag51
ag51
ag51
ag51
ag51
ag51
ag51
ag51
ag51
ag51
ag51
ag51
ag51
ag51
ag51
ag51
asg52
(lp1210
g148
ag60
ag61
ag62
ag55
ag61
ag243
ag61
ag151
ag152
ag62
aS'POS'
p1211
ag58
ag59
ag148
ag151
ag60
ag62
ag62
ag1077
ag149
ag55
ag331
ag59
ag148
ag333
ag56
ag330
ag151
ag62
ag60
ag58
ag55
ag59
ag148
ag332
ag152
ag62
ag55
ag151
ag60
ag62
ag63
asg64
VBut the rich man had long been envious of his brother's possessions, and of the handsome household which he kept up, and could not understand from whence the riches came, and what his brother wanted with the measure.
p1212
sba(i__main__
Sentence
p1213
(dp1214
g17
I17
sg18
(lp1215
S'Then'
p1216
aS'he'
p1217
aS'thought'
p1218
aS'of'
p1219
aS'a'
p1220
aS'cunning'
p1221
aS'trick'
p1222
aS','
p1223
aS'and'
p1224
aS'covered'
p1225
aS'the'
p1226
aS'bottom'
p1227
aS'of'
p1228
aS'the'
p1229
aS'measure'
p1230
aS'with'
p1231
aS'pitch'
p1232
aS','
p1233
aS'and'
p1234
aS'when'
p1235
aS'he'
p1236
aS'got'
p1237
aS'the'
p1238
aS'measure'
p1239
aS'back'
p1240
aS'a'
p1241
aS'piece'
p1242
aS'of'
p1243
aS'gold'
p1244
aS'was'
p1245
aS'sticking'
p1246
aS'to'
p1247
aS'it'
p1248
aS'.'
p1249
asg34
(lp1250
VThen
p1251
aVhe
p1252
aVthink
p1253
aVof
p1254
ag123
aVcunning
p1255
aVtrick
p1256
ag41
aVand
p1257
aVcover
p1258
aVthe
p1259
aVbottom
p1260
aVof
p1261
aVthe
p1262
aVmeasure
p1263
aVwith
p1264
aVpitch
p1265
ag41
aVand
p1266
aVwhen
p1267
aVhe
p1268
ag601
aVthe
p1269
aVmeasure
p1270
aVback
p1271
ag123
aVpiece
p1272
aVof
p1273
aVgold
p1274
ag207
aVstick
p1275
aVto
p1276
aVit
p1277
ag48
asg49
(lp1278
g51
ag51
ag51
ag51
ag51
ag51
ag51
ag51
ag51
ag51
ag51
ag51
ag51
ag51
ag51
ag51
ag51
ag51
ag51
ag51
ag51
ag51
ag51
ag51
ag51
ag51
ag51
ag51
ag51
ag51
ag51
ag51
ag51
ag51
asg52
(lp1279
g56
ag149
ag55
ag151
ag60
ag62
ag62
ag59
ag148
ag55
ag60
ag62
ag151
ag60
ag62
ag151
ag62
ag59
ag148
ag241
ag149
ag55
ag60
ag62
ag56
ag60
ag62
ag151
ag62
ag55
ag150
ag147
ag149
ag63
asg64
VThen he thought of a cunning trick, and covered the bottom of the measure with pitch, and when he got the measure back a piece of gold was sticking to it.
p1280
sba(i__main__
Sentence
p1281
(dp1282
g17
I18
sg18
(lp1283
S'He'
p1284
aS'at'
p1285
aS'once'
p1286
aS'went'
p1287
aS'to'
p1288
aS'his'
p1289
aS'brother'
p1290
aS'and'
p1291
aS'asked'
p1292
aS'him'
p1293
aS','
p1294
aS'what'
p1295
aS'have'
p1296
aS'you'
p1297
aS'been'
p1298
aS'measuring'
p1299
aS'in'
p1300
aS'the'
p1301
aS'bushel'
p1302
aS'measure'
p1303
aS'.'
p1304
asg34
(lp1305
VHe
p1306
aVat
p1307
aVonce
p1308
ag393
aVto
p1309
aVhis
p1310
aVbrother
p1311
aVand
p1312
aVask
p1313
aVhim
p1314
ag41
aVwhat
p1315
aVhave
p1316
aVyou
p1317
ag1177
aVmeasure
p1318
aVin
p1319
aVthe
p1320
aVbushel
p1321
aVmeasure
p1322
ag48
asg49
(lp1323
g51
ag51
ag51
ag51
ag51
ag51
ag51
ag51
ag51
ag51
ag51
ag51
ag51
ag51
ag51
ag51
ag51
ag51
ag51
ag51
ag51
asg52
(lp1324
g149
ag151
ag56
ag55
ag147
ag152
ag62
ag148
ag55
ag149
ag59
ag332
ag427
ag149
ag243
ag150
ag151
ag60
ag62
ag62
ag63
asg64
VHe at once went to his brother and asked him, what have you been measuring in the bushel measure.
p1325
sba(i__main__
Sentence
p1326
(dp1327
g17
I19
sg18
(lp1328
S'Corn'
p1329
aS'and'
p1330
aS'barley'
p1331
aS','
p1332
aS'said'
p1333
aS'the'
p1334
aS'other'
p1335
aS'.'
p1336
asg34
(lp1337
VCorn
p1338
aVand
p1339
aVbarley
p1340
ag41
ag528
aVthe
p1341
aVother
p1342
ag48
asg49
(lp1343
g51
ag51
ag51
ag51
ag51
ag51
ag51
ag51
asg52
(lp1344
g62
ag148
ag62
ag59
ag55
ag60
ag61
ag63
asg64
VCorn and barley, said the other.
p1345
sba(i__main__
Sentence
p1346
(dp1347
g17
I20
sg18
(lp1348
S'Then'
p1349
aS'he'
p1350
aS'showed'
p1351
aS'him'
p1352
aS'the'
p1353
aS'piece'
p1354
aS'of'
p1355
aS'gold'
p1356
aS'and'
p1357
aS'threatened'
p1358
aS'that'
p1359
aS'if'
p1360
aS'he'
p1361
aS'did'
p1362
aS'not'
p1363
aS'tell'
p1364
aS'the'
p1365
aS'truth'
p1366
aS'he'
p1367
aS'would'
p1368
aS'accuse'
p1369
aS'him'
p1370
aS'before'
p1371
aS'a'
p1372
aS'court'
p1373
aS'of'
p1374
aS'justice'
p1375
aS'.'
p1376
asg34
(lp1377
VThen
p1378
aVhe
p1379
aVshow
p1380
aVhim
p1381
aVthe
p1382
aVpiece
p1383
aVof
p1384
aVgold
p1385
aVand
p1386
aVthreaten
p1387
aVthat
p1388
aVif
p1389
aVhe
p1390
ag132
aVnot
p1391
aVtell
p1392
aVthe
p1393
aVtruth
p1394
aVhe
p1395
aVwould
p1396
aVaccuse
p1397
aVhim
p1398
aVbefore
p1399
ag123
aVcourt
p1400
aVof
p1401
aVjustice
p1402
ag48
asg49
(lp1403
g51
ag51
ag51
ag51
ag51
ag51
ag51
ag51
ag51
ag51
ag51
ag51
ag51
ag51
ag51
ag51
ag51
ag51
ag51
ag51
ag51
ag51
ag51
ag51
ag51
ag51
ag51
ag51
asg52
(lp1404
g56
ag149
ag55
ag149
ag60
ag62
ag151
ag62
ag148
ag243
ag151
ag151
ag149
ag55
ag56
ag330
ag60
ag62
ag149
ag333
ag330
ag149
ag151
ag60
ag62
ag151
ag62
ag63
asg64
VThen he showed him the piece of gold and threatened that if he did not tell the truth he would accuse him before a court of justice.
p1405
sba(i__main__
Sentence
p1406
(dp1407
g17
I21
sg18
(lp1408
S'The'
p1409
aS'poor'
p1410
aS'man'
p1411
aS'then'
p1412
aS'told'
p1413
aS'him'
p1414
aS'everything'
p1415
aS','
p1416
aS'just'
p1417
aS'as'
p1418
aS'it'
p1419
aS'had'
p1420
aS'happened'
p1421
aS'.'
p1422
asg34
(lp1423
VThe
p1424
aVpoor
p1425
aVman
p1426
aVthen
p1427
aVtell
p1428
aVhim
p1429
aVeverything
p1430
ag41
aVjust
p1431
ag123
aVit
p1432
ag137
aVhappen
p1433
ag48
asg49
(lp1434
g51
ag51
ag51
ag51
ag51
ag51
ag51
ag51
ag51
ag51
ag51
ag51
ag51
ag51
asg52
(lp1435
g60
ag61
ag62
ag56
ag55
ag149
ag62
ag59
ag56
ag151
ag149
ag55
ag243
ag63
asg64
VThe poor man then told him everything, just as it had happened.
p1436
sba(i__main__
Sentence
p1437
(dp1438
g17
I22
sg18
(lp1439
S'So'
p1440
aS'the'
p1441
aS'rich'
p1442
aS'man'
p1443
aS'ordered'
p1444
aS'his'
p1445
aS'carriage'
p1446
aS'to'
p1447
aS'be'
p1448
aS'made'
p1449
aS'ready'
p1450
aS','
p1451
aS'and'
p1452
aS'drove'
p1453
aS'away'
p1454
aS','
p1455
aS'resolved'
p1456
aS'to'
p1457
aS'use'
p1458
aS'the'
p1459
aS'opportunity'
p1460
aS'better'
p1461
aS'than'
p1462
aS'his'
p1463
aS'brother'
p1464
aS'had'
p1465
aS'done'
p1466
aS','
p1467
aS'and'
p1468
aS'to'
p1469
aS'bring'
p1470
aS'back'
p1471
aS'with'
p1472
aS'him'
p1473
aS'quite'
p1474
aS'different'
p1475
aS'treasures'
p1476
aS'.'
p1477
asg34
(lp1478
VSo
p1479
aVthe
p1480
aVrich
p1481
aVman
p1482
aVorder
p1483
aVhis
p1484
aVcarriage
p1485
aVto
p1486
aVbe
p1487
aVmake
p1488
aVready
p1489
ag41
aVand
p1490
aVdrive
p1491
aVaway
p1492
ag41
aVresolve
p1493
aVto
p1494
aVuse
p1495
aVthe
p1496
aVopportunity
p1497
aVbetter
p1498
aVthan
p1499
aVhis
p1500
aVbrother
p1501
ag137
aVdo
p1502
ag41
aVand
p1503
aVto
p1504
aVbring
p1505
aVback
p1506
aVwith
p1507
aVhim
p1508
aVquite
p1509
aVdifferent
p1510
aVtreasure
p1511
ag48
asg49
(lp1512
g51
ag51
ag51
ag51
ag51
ag51
ag51
ag51
ag51
ag51
ag51
ag51
ag51
ag51
ag51
ag51
ag51
ag51
ag51
ag51
ag51
ag51
ag51
ag51
ag51
ag51
ag51
ag51
ag51
ag51
ag51
ag51
ag51
ag51
ag51
ag51
ag51
ag51
asg52
(lp1513
g151
ag60
ag61
ag62
ag243
ag152
ag62
ag147
ag330
ag243
ag56
ag59
ag148
ag55
ag56
ag59
ag55
ag147
ag330
ag60
ag62
ag62
ag151
ag152
ag62
ag55
ag243
ag59
ag148
ag147
ag330
ag56
ag151
ag149
ag56
ag61
ag58
ag63
asg64
VSo the rich man ordered his carriage to be made ready, and drove away, resolved to use the opportunity better than his brother had done, and to bring back with him quite different treasures.
p1514
sba(i__main__
Sentence
p1515
(dp1516
g17
I23
sg18
(lp1517
S'When'
p1518
aS'he'
p1519
aS'came'
p1520
aS'to'
p1521
aS'the'
p1522
aS'mountain'
p1523
aS'he'
p1524
aS'cried'
p1525
aS','
p1526
aS'semsi'
p1527
aS'mountain'
p1528
aS','
p1529
aS'semsi'
p1530
aS'mountain'
p1531
aS','
p1532
aS'open'
p1533
aS'up'
p1534
aS'.'
p1535
asg34
(lp1536
VWhen
p1537
aVhe
p1538
ag510
aVto
p1539
aVthe
p1540
aVmountain
p1541
aVhe
p1542
ag398
ag41
aVsemsi
p1543
aVmountain
p1544
ag41
aVsemsi
p1545
aVmountain
p1546
ag41
aVopen
p1547
aVup
p1548
ag48
asg49
(lp1549
g51
ag51
ag51
ag51
ag51
ag51
ag51
ag51
ag51
ag51
ag51
ag51
ag51
ag51
ag51
ag51
ag51
ag51
asg52
(lp1550
g241
ag149
ag55
ag147
ag60
ag62
ag149
ag55
ag59
ag62
ag62
ag59
ag62
ag62
ag59
ag61
ag331
ag63
asg64
VWhen he came to the mountain he cried, semsi mountain, semsi mountain, open up.
p1551
sba(i__main__
Sentence
p1552
(dp1553
g17
I24
sg18
(lp1554
S'The'
p1555
aS'mountain'
p1556
aS'opened'
p1557
aS','
p1558
aS'and'
p1559
aS'he'
p1560
aS'went'
p1561
aS'inside'
p1562
aS'it'
p1563
aS'.'
p1564
asg34
(lp1565
VThe
p1566
aVmountain
p1567
aVopen
p1568
ag41
aVand
p1569
aVhe
p1570
ag393
aVinside
p1571
aVit
p1572
ag48
asg49
(lp1573
g51
ag51
ag51
ag51
ag51
ag51
ag51
ag51
ag51
ag51
asg52
(lp1574
g60
ag62
ag55
ag59
ag148
ag149
ag55
ag56
ag149
ag63
asg64
VThe mountain opened, and he went inside it.
p1575
sba(i__main__
Sentence
p1576
(dp1577
g17
I25
sg18
(lp1578
S'There'
p1579
aS'lay'
p1580
aS'the'
p1581
aS'treasures'
p1582
aS'all'
p1583
aS'before'
p1584
aS'him'
p1585
aS','
p1586
aS'and'
p1587
aS'for'
p1588
aS'a'
p1589
aS'long'
p1590
aS'time'
p1591
aS'he'
p1592
aS'did'
p1593
aS'not'
p1594
aS'know'
p1595
aS'which'
p1596
aS'to'
p1597
aS'grab'
p1598
aS'first'
p1599
aS'.'
p1600
asg34
(lp1601
VThere
p1602
aVlay
p1603
aVthe
p1604
aVtreasure
p1605
aVall
p1606
aVbefore
p1607
aVhim
p1608
ag41
aVand
p1609
aVfor
p1610
ag123
aVlong
p1611
aVtime
p1612
aVhe
p1613
ag132
aVnot
p1614
aVknow
p1615
aVwhich
p1616
aVto
p1617
aVgrab
p1618
aVfirst
p1619
ag48
asg49
(lp1620
g51
ag51
ag51
ag51
ag51
ag51
ag51
ag51
ag51
ag51
ag51
ag51
ag51
ag51
ag51
ag51
ag51
ag51
ag51
ag51
ag51
ag51
asg52
(lp1621
g54
ag62
ag60
ag58
ag60
ag151
ag149
ag59
ag148
ag151
ag60
ag61
ag62
ag149
ag55
ag56
ag330
ag1077
ag147
ag330
ag56
ag63
asg64
VThere lay the treasures all before him, and for a long time he did not know which to grab first.
p1622
sba(i__main__
Sentence
p1623
(dp1624
g17
I26
sg18
(lp1625
S'At'
p1626
aS'length'
p1627
aS'he'
p1628
aS'loaded'
p1629
aS'himself'
p1630
aS'with'
p1631
aS'as'
p1632
aS'many'
p1633
aS'precious'
p1634
aS'stones'
p1635
aS'as'
p1636
aS'he'
p1637
aS'could'
p1638
aS'carry'
p1639
aS'.'
p1640
asg34
(lp1641
VAt
p1642
aVlength
p1643
aVhe
p1644
aVload
p1645
aVhimself
p1646
aVwith
p1647
ag123
aVmany
p1648
aVprecious
p1649
aVstone
p1650
ag123
aVhe
p1651
aVcould
p1652
aVcarry
p1653
ag48
asg49
(lp1654
g51
ag51
ag51
ag51
ag51
ag51
ag51
ag51
ag51
ag51
ag51
ag51
ag51
ag51
ag51
asg52
(lp1655
g151
ag62
ag149
ag55
ag149
ag151
ag151
ag61
ag61
ag58
ag151
ag149
ag333
ag330
ag63
asg64
VAt length he loaded himself with as many precious stones as he could carry.
p1656
sba(i__main__
Sentence
p1657
(dp1658
g17
I27
sg18
(lp1659
S'He'
p1660
aS'wished'
p1661
aS'to'
p1662
aS'carry'
p1663
aS'his'
p1664
aS'burden'
p1665
aS'outside'
p1666
aS','
p1667
aS'but'
p1668
aS'as'
p1669
aS'his'
p1670
aS'heart'
p1671
aS'and'
p1672
aS'soul'
p1673
aS'were'
p1674
aS'entirely'
p1675
aS'full'
p1676
aS'of'
p1677
aS'the'
p1678
aS'treasures'
p1679
aS','
p1680
aS'he'
p1681
aS'had'
p1682
aS'forgotten'
p1683
aS'the'
p1684
aS'name'
p1685
aS'of'
p1686
aS'the'
p1687
aS'mountain'
p1688
aS','
p1689
aS'and'
p1690
aS'cried'
p1691
aS','
p1692
aS'simeli'
p1693
aS'mountain'
p1694
aS','
p1695
aS'simeli'
p1696
aS'mountain'
p1697
aS','
p1698
aS'open'
p1699
aS'up'
p1700
aS'.'
p1701
asg34
(lp1702
VHe
p1703
aVwish
p1704
aVto
p1705
aVcarry
p1706
aVhis
p1707
aVburden
p1708
aVoutside
p1709
ag41
aVbut
p1710
ag123
aVhis
p1711
aVheart
p1712
aVand
p1713
aVsoul
p1714
ag37
aVentirely
p1715
aVfull
p1716
aVof
p1717
aVthe
p1718
aVtreasure
p1719
ag41
aVhe
p1720
ag137
aVforget
p1721
aVthe
p1722
aVname
p1723
aVof
p1724
aVthe
p1725
aVmountain
p1726
ag41
aVand
p1727
ag398
ag41
aVsimeli
p1728
aVmountain
p1729
ag41
aVsimeli
p1730
aVmountain
p1731
ag41
aVopen
p1732
aVup
p1733
ag48
asg49
(lp1734
g51
ag51
ag51
ag51
ag51
ag51
ag51
ag51
ag51
ag51
ag51
ag51
ag51
ag51
ag51
ag51
ag51
ag51
ag51
ag51
ag51
ag51
ag51
ag51
ag51
ag51
ag51
ag51
ag51
ag51
ag51
ag51
ag51
ag51
ag51
ag51
ag51
ag51
ag51
ag51
ag51
ag51
asg52
(lp1735
g149
ag55
ag147
ag330
ag152
ag62
ag151
ag59
ag148
ag151
ag152
ag62
ag148
ag61
ag55
ag56
ag61
ag151
ag60
ag58
ag59
ag149
ag55
ag243
ag60
ag62
ag151
ag60
ag62
ag59
ag148
ag55
ag59
ag62
ag62
ag59
ag62
ag62
ag59
ag61
ag331
ag63
asg64
VHe wished to carry his burden outside, but as his heart and soul were entirely full of the treasures, he had forgotten the name of the mountain, and cried, simeli mountain, simeli mountain, open up.
p1736
sba(i__main__
Sentence
p1737
(dp1738
g17
I28
sg18
(lp1739
S'That'
p1740
aS','
p1741
aS'however'
p1742
aS','
p1743
aS'was'
p1744
aS'not'
p1745
aS'the'
p1746
aS'right'
p1747
aS'name'
p1748
aS','
p1749
aS'and'
p1750
aS'the'
p1751
aS'mountain'
p1752
aS'never'
p1753
aS'stirred'
p1754
aS','
p1755
aS'but'
p1756
aS'remained'
p1757
aS'shut'
p1758
aS'.'
p1759
asg34
(lp1760
VThat
p1761
ag41
aVhowever
p1762
ag41
ag207
aVnot
p1763
aVthe
p1764
aVright
p1765
aVname
p1766
ag41
aVand
p1767
aVthe
p1768
aVmountain
p1769
aVnever
p1770
aVstir
p1771
ag41
aVbut
p1772
aVremain
p1773
aVshut
p1774
ag48
asg49
(lp1775
g51
ag51
ag51
ag51
ag51
ag51
ag51
ag51
ag51
ag51
ag51
ag51
ag51
ag51
ag51
ag51
ag51
ag51
ag51
ag51
asg52
(lp1776
g60
ag59
ag56
ag59
ag55
ag56
ag60
ag62
ag62
ag59
ag148
ag60
ag62
ag56
ag55
ag59
ag148
ag55
ag243
ag63
asg64
VThat, however, was not the right name, and the mountain never stirred, but remained shut.
p1777
sba(i__main__
Sentence
p1778
(dp1779
g17
I29
sg18
(lp1780
S'Then'
p1781
aS'he'
p1782
aS'was'
p1783
aS'alarmed'
p1784
aS','
p1785
aS'and'
p1786
aS'the'
p1787
aS'longer'
p1788
aS'he'
p1789
aS'thought'
p1790
aS'about'
p1791
aS'it'
p1792
aS'the'
p1793
aS'more'
p1794
aS'his'
p1795
aS'thoughts'
p1796
aS'confused'
p1797
aS'themselves'
p1798
aS','
p1799
aS'and'
p1800
aS'all'
p1801
aS'his'
p1802
aS'treasures'
p1803
aS'were'
p1804
aS'of'
p1805
aS'no'
p1806
aS'help'
p1807
aS'to'
p1808
aS'him'
p1809
aS'.'
p1810
asg34
(lp1811
VThen
p1812
aVhe
p1813
ag207
aValarm
p1814
ag41
aVand
p1815
aVthe
p1816
aVlonger
p1817
aVhe
p1818
ag1253
aVabout
p1819
aVit
p1820
aVthe
p1821
aVmore
p1822
aVhis
p1823
aVthought
p1824
aVconfuse
p1825
aVthemselves
p1826
ag41
aVand
p1827
aVall
p1828
aVhis
p1829
aVtreasure
p1830
ag37
aVof
p1831
aVno
p1832
aVhelp
p1833
aVto
p1834
aVhim
p1835
ag48
asg49
(lp1836
g51
ag51
ag51
ag51
ag51
ag51
ag51
ag51
ag51
ag51
ag51
ag51
ag51
ag51
ag51
ag51
ag51
ag51
ag51
ag51
ag51
ag51
ag51
ag51
ag51
ag51
ag51
ag51
ag51
ag51
asg52
(lp1837
g56
ag149
ag55
ag243
ag59
ag148
ag60
ag62
ag149
ag55
ag151
ag149
ag60
ag557
ag152
ag58
ag55
ag149
ag59
ag148
ag60
ag152
ag58
ag55
ag151
ag60
ag62
ag147
ag330
ag63
asg64
VThen he was alarmed, and the longer he thought about it the more his thoughts confused themselves, and all his treasures were of no help to him.
p1838
sba(i__main__
Sentence
p1839
(dp1840
g17
I30
sg18
(lp1841
S'In'
p1842
aS'the'
p1843
aS'evening'
p1844
aS'the'
p1845
aS'mountain'
p1846
aS'opened'
p1847
aS','
p1848
aS'and'
p1849
aS'the'
p1850
aS'twelve'
p1851
aS'robbers'
p1852
aS'came'
p1853
aS'in'
p1854
aS','
p1855
aS'and'
p1856
aS'when'
p1857
aS'they'
p1858
aS'saw'
p1859
aS'him'
p1860
aS'they'
p1861
aS'laughed'
p1862
aS','
p1863
aS'and'
p1864
aS'cried'
p1865
aS'out'
p1866
aS','
p1867
aS'bird'
p1868
aS','
p1869
aS'have'
p1870
aS'we'
p1871
aS'caught'
p1872
aS'you'
p1873
aS'at'
p1874
aS'last'
p1875
aS'.'
p1876
asg34
(lp1877
VIn
p1878
aVthe
p1879
aVevening
p1880
aVthe
p1881
aVmountain
p1882
aVopen
p1883
ag41
aVand
p1884
aVthe
p1885
aVtwelve
p1886
aVrobber
p1887
ag510
aVin
p1888
ag41
aVand
p1889
aVwhen
p1890
aVthey
p1891
aVsaw
p1892
aVhim
p1893
aVthey
p1894
aVlaugh
p1895
ag41
aVand
p1896
ag398
aVout
p1897
ag41
aVbird
p1898
ag41
aVhave
p1899
aVwe
p1900
aVcatch
p1901
aVyou
p1902
aVat
p1903
aVlast
p1904
ag48
asg49
(lp1905
g51
ag51
ag51
ag51
ag51
ag51
ag51
ag51
ag51
ag51
ag51
ag51
ag51
ag51
ag51
ag51
ag51
ag51
ag51
ag51
ag51
ag51
ag51
ag51
ag51
ag51
ag51
ag51
ag51
ag51
ag51
ag51
ag51
ag51
ag51
asg52
(lp1906
g151
ag60
ag62
ag60
ag62
ag55
ag59
ag148
ag60
ag62
ag58
ag55
ag151
ag59
ag148
ag241
ag149
ag427
ag149
ag149
ag55
ag59
ag148
ag55
ag331
ag59
ag61
ag59
ag427
ag149
ag243
ag149
ag151
ag61
ag63
asg64
VIn the evening the mountain opened, and the twelve robbers came in, and when they saw him they laughed, and cried out, bird, have we caught you at last.
p1907
sba(i__main__
Sentence
p1908
(dp1909
g17
I31
sg18
(lp1910
S'Did'
p1911
aS'you'
p1912
aS'think'
p1913
aS'we'
p1914
aS'had'
p1915
aS'never'
p1916
aS'noticed'
p1917
aS'that'
p1918
aS'you'
p1919
aS'had'
p1920
aS'been'
p1921
aS'in'
p1922
aS'here'
p1923
aS'twice'
p1924
aS'.'
p1925
asg34
(lp1926
VDid
p1927
aVyou
p1928
aVthink
p1929
aVwe
p1930
ag137
aVnever
p1931
aVnotice
p1932
aVthat
p1933
aVyou
p1934
ag137
ag1177
aVin
p1935
aVhere
p1936
aVtwice
p1937
ag48
asg49
(lp1938
g51
ag51
ag51
ag51
ag51
ag51
ag51
ag51
ag51
ag51
ag51
ag51
ag51
ag51
ag51
asg52
(lp1939
S'NNP'
p1940
ag149
ag427
ag149
ag55
ag56
ag243
ag151
ag149
ag55
ag243
ag151
ag56
ag62
ag63
asg64
VDid you think we had never noticed that you had been in here twice.
p1941
sba(i__main__
Sentence
p1942
(dp1943
g17
I32
sg18
(lp1944
S'We'
p1945
aS'could'
p1946
aS'not'
p1947
aS'catch'
p1948
aS'you'
p1949
aS'then'
p1950
aS','
p1951
aS'this'
p1952
aS'third'
p1953
aS'time'
p1954
aS'you'
p1955
aS'shall'
p1956
aS'not'
p1957
aS'get'
p1958
aS'out'
p1959
aS'again'
p1960
aS'.'
p1961
asg34
(lp1962
VWe
p1963
aVcould
p1964
aVnot
p1965
aVcatch
p1966
aVyou
p1967
aVthen
p1968
ag41
aVthis
p1969
aVthird
p1970
aVtime
p1971
aVyou
p1972
aVshall
p1973
aVnot
p1974
aVget
p1975
aVout
p1976
aVagain
p1977
ag48
asg49
(lp1978
g51
ag51
ag51
ag51
ag51
ag51
ag51
ag51
ag51
ag51
ag51
ag51
ag51
ag51
ag51
ag51
ag51
asg52
(lp1979
g149
ag333
ag56
ag330
ag149
ag56
ag59
ag60
ag61
ag62
ag149
ag333
ag56
ag330
ag151
ag56
ag63
asg64
VWe could not catch you then, this third time you shall not get out again.
p1980
sba(i__main__
Sentence
p1981
(dp1982
g17
I33
sg18
(lp1983
S'Then'
p1984
aS'he'
p1985
aS'cried'
p1986
aS','
p1987
aS'it'
p1988
aS'was'
p1989
aS'not'
p1990
aS'I'
p1991
aS','
p1992
aS'it'
p1993
aS'was'
p1994
aS'my'
p1995
aS'brother'
p1996
aS','
p1997
aS'but'
p1998
aS'let'
p1999
aS'him'
p2000
aS'beg'
p2001
aS'for'
p2002
aS'his'
p2003
aS'life'
p2004
aS'and'
p2005
aS'say'
p2006
aS'what'
p2007
aS'he'
p2008
aS'would'
p2009
aS','
p2010
aS'they'
p2011
aS'cut'
p2012
aS'off'
p2013
aS'his'
p2014
aS'head'
p2015
aS'.'
p2016
asg34
(lp2017
VThen
p2018
aVhe
p2019
ag398
ag41
aVit
p2020
ag207
aVnot
p2021
aVI
p2022
ag41
aVit
p2023
ag207
aVmy
p2024
aVbrother
p2025
ag41
aVbut
p2026
aVlet
p2027
aVhim
p2028
aVbeg
p2029
aVfor
p2030
aVhis
p2031
aVlife
p2032
aVand
p2033
aVsay
p2034
aVwhat
p2035
aVhe
p2036
aVwould
p2037
ag41
aVthey
p2038
aVcut
p2039
aVoff
p2040
aVhis
p2041
aVhead
p2042
ag48
asg49
(lp2043
g51
ag51
ag51
ag51
ag51
ag51
ag51
ag51
ag51
ag51
ag51
ag51
ag51
ag51
ag51
ag51
ag51
ag51
ag51
ag51
ag51
ag51
ag51
ag51
ag51
ag51
ag51
ag51
ag51
ag51
ag51
ag51
ag51
asg52
(lp2044
g56
ag149
ag55
ag59
ag149
ag55
ag56
ag149
ag59
ag149
ag55
ag152
ag62
ag59
ag148
ag330
ag149
ag330
ag151
ag152
ag62
ag148
ag330
ag332
ag149
ag333
ag59
ag149
ag55
ag331
ag152
ag62
ag63
asg64
VThen he cried, it was not I, it was my brother, but let him beg for his life and say what he would, they cut off his head. 
p2045
sbasbsS'summary'
p2046
g0
(g7
g2
Ntp2047
Rp2048
(dp2049
g11
S'A poor brother watches as twelve robbers leave a mountain. He goes to the mountain and says the secret password. He decides to take only a pocketful of gold with which he feeds his family and does good works. His rich brother demands to know where his poor brother has gotten his money. The rich brother goes to the mountain and picks up as many jewels as he can carry. He forgets the name of the mountain which he must call in order to leave. The robbers catch him in the cave and kill him. '
p2050
sg13
(lp2051
(i__main__
Sentence
p2052
(dp2053
g17
I0
sg18
(lp2054
S'A'
p2055
aS'poor'
p2056
aS'brother'
p2057
aS'watches'
p2058
aS'as'
p2059
aS'twelve'
p2060
aS'robbers'
p2061
aS'leave'
p2062
aS'a'
p2063
aS'mountain'
p2064
aS'.'
p2065
asg34
(lp2066
VA
p2067
aVpoor
p2068
aVbrother
p2069
aVwatch
p2070
ag123
aVtwelve
p2071
aVrobber
p2072
aVleave
p2073
ag123
aVmountain
p2074
ag48
asg49
(lp2075
g51
ag51
ag51
ag51
ag51
ag51
ag51
ag51
ag51
ag51
ag51
asg52
(lp2076
g60
ag61
ag62
ag58
ag151
ag61
ag58
ag427
ag60
ag62
ag63
asg64
VA poor brother watches as twelve robbers leave a mountain.
p2077
sba(i__main__
Sentence
p2078
(dp2079
g17
I1
sg18
(lp2080
S'He'
p2081
aS'goes'
p2082
aS'to'
p2083
aS'the'
p2084
aS'mountain'
p2085
aS'and'
p2086
aS'says'
p2087
aS'the'
p2088
aS'secret'
p2089
aS'password'
p2090
aS'.'
p2091
asg34
(lp2092
VHe
p2093
aVgo
p2094
aVto
p2095
aVthe
p2096
aVmountain
p2097
aVand
p2098
aVsay
p2099
aVthe
p2100
aVsecret
p2101
aVpassword
p2102
ag48
asg49
(lp2103
g51
ag51
ag51
ag51
ag51
ag51
ag51
ag51
ag51
ag51
ag51
asg52
(lp2104
g149
aS'VBZ'
p2105
ag147
ag60
ag62
ag148
ag2105
ag60
ag62
ag62
ag63
asg64
VHe goes to the mountain and says the secret password.
p2106
sba(i__main__
Sentence
p2107
(dp2108
g17
I2
sg18
(lp2109
S'He'
p2110
aS'decides'
p2111
aS'to'
p2112
aS'take'
p2113
aS'only'
p2114
aS'a'
p2115
aS'pocketful'
p2116
aS'of'
p2117
aS'gold'
p2118
aS'with'
p2119
aS'which'
p2120
aS'he'
p2121
aS'feeds'
p2122
aS'his'
p2123
aS'family'
p2124
aS'and'
p2125
aS'does'
p2126
aS'good'
p2127
aS'works'
p2128
aS'.'
p2129
asg34
(lp2130
VHe
p2131
aVdecide
p2132
aVto
p2133
aVtake
p2134
aVonly
p2135
ag123
aVpocketful
p2136
aVof
p2137
aVgold
p2138
aVwith
p2139
aVwhich
p2140
aVhe
p2141
aVfeed
p2142
aVhis
p2143
aVfamily
p2144
aVand
p2145
aVdo
p2146
aVgood
p2147
aVwork
p2148
ag48
asg49
(lp2149
g51
ag51
ag51
ag51
ag51
ag51
ag51
ag51
ag51
ag51
ag51
ag51
ag51
ag51
ag51
ag51
ag51
ag51
ag51
ag51
asg52
(lp2150
g149
ag2105
ag147
ag330
ag56
ag60
ag61
ag151
ag62
ag151
ag1077
ag149
ag2105
ag152
ag62
ag148
ag2105
ag61
ag58
ag63
asg64
VHe decides to take only a pocketful of gold with which he feeds his family and does good works.
p2151
sba(i__main__
Sentence
p2152
(dp2153
g17
I3
sg18
(lp2154
S'His'
p2155
aS'rich'
p2156
aS'brother'
p2157
aS'demands'
p2158
aS'to'
p2159
aS'know'
p2160
aS'where'
p2161
aS'his'
p2162
aS'poor'
p2163
aS'brother'
p2164
aS'has'
p2165
aS'gotten'
p2166
aS'his'
p2167
aS'money'
p2168
aS'.'
p2169
asg34
(lp2170
VHis
p2171
aVrich
p2172
aVbrother
p2173
aVdemand
p2174
aVto
p2175
aVknow
p2176
aVwhere
p2177
aVhis
p2178
aVpoor
p2179
aVbrother
p2180
aVhave
p2181
aVget
p2182
aVhis
p2183
aVmoney
p2184
ag48
asg49
(lp2185
g51
ag51
ag51
ag51
ag51
ag51
ag51
ag51
ag51
ag51
ag51
ag51
ag51
ag51
ag51
asg52
(lp2186
g152
ag62
ag62
ag58
ag147
ag330
ag241
ag152
ag61
ag62
ag2105
ag243
ag152
ag62
ag63
asg64
VHis rich brother demands to know where his poor brother has gotten his money.
p2187
sba(i__main__
Sentence
p2188
(dp2189
g17
I4
sg18
(lp2190
S'The'
p2191
aS'rich'
p2192
aS'brother'
p2193
aS'goes'
p2194
aS'to'
p2195
aS'the'
p2196
aS'mountain'
p2197
aS'and'
p2198
aS'picks'
p2199
aS'up'
p2200
aS'as'
p2201
aS'many'
p2202
aS'jewels'
p2203
aS'as'
p2204
aS'he'
p2205
aS'can'
p2206
aS'carry'
p2207
aS'.'
p2208
asg34
(lp2209
VThe
p2210
aVrich
p2211
aVbrother
p2212
aVgo
p2213
aVto
p2214
aVthe
p2215
aVmountain
p2216
aVand
p2217
aVpick
p2218
aVup
p2219
aVas
p2220
aVmany
p2221
aVjewel
p2222
ag123
aVhe
p2223
aVcan
p2224
aVcarry
p2225
ag48
asg49
(lp2226
g51
ag51
ag51
ag51
ag51
ag51
ag51
ag51
ag51
ag51
ag51
ag51
ag51
ag51
ag51
ag51
ag51
ag51
asg52
(lp2227
g60
ag61
ag62
ag2105
ag147
ag60
ag62
ag148
ag58
ag331
ag56
ag61
ag58
ag151
ag149
ag333
ag330
ag63
asg64
VThe rich brother goes to the mountain and picks up as many jewels as he can carry.
p2228
sba(i__main__
Sentence
p2229
(dp2230
g17
I5
sg18
(lp2231
S'He'
p2232
aS'forgets'
p2233
aS'the'
p2234
aS'name'
p2235
aS'of'
p2236
aS'the'
p2237
aS'mountain'
p2238
aS'which'
p2239
aS'he'
p2240
aS'must'
p2241
aS'call'
p2242
aS'in'
p2243
aS'order'
p2244
aS'to'
p2245
aS'leave'
p2246
aS'.'
p2247
asg34
(lp2248
VHe
p2249
aVforget
p2250
aVthe
p2251
aVname
p2252
aVof
p2253
aVthe
p2254
aVmountain
p2255
aVwhich
p2256
aVhe
p2257
aVmust
p2258
aVcall
p2259
aVin
p2260
aVorder
p2261
aVto
p2262
aVleave
p2263
ag48
asg49
(lp2264
g51
ag51
ag51
ag51
ag51
ag51
ag51
ag51
ag51
ag51
ag51
ag51
ag51
ag51
ag51
ag51
asg52
(lp2265
g149
ag2105
ag60
ag62
ag151
ag60
ag62
ag1077
ag149
ag333
ag330
ag151
ag62
ag147
ag330
ag63
asg64
VHe forgets the name of the mountain which he must call in order to leave.
p2266
sba(i__main__
Sentence
p2267
(dp2268
g17
I6
sg18
(lp2269
S'The'
p2270
aS'robbers'
p2271
aS'catch'
p2272
aS'him'
p2273
aS'in'
p2274
aS'the'
p2275
aS'cave'
p2276
aS'and'
p2277
aS'kill'
p2278
aS'him'
p2279
aS'.'
p2280
asg34
(lp2281
VThe
p2282
aVrobber
p2283
aVcatch
p2284
aVhim
p2285
aVin
p2286
aVthe
p2287
aVcave
p2288
aVand
p2289
aVkill
p2290
aVhim
p2291
ag48
asg49
(lp2292
g51
ag51
ag51
ag51
ag51
ag51
ag51
ag51
ag51
ag51
ag51
asg52
(lp2293
g60
ag58
ag427
ag149
ag151
ag60
ag62
ag148
ag62
ag149
ag63
asg64
VThe robbers catch him in the cave and kill him. 
p2294
sbasbsS'name'
p2295
S'Simeli Mountain'
p2296
sS'summaries'
p2297
(lp2298
g2048
asb.