ccopy_reg
_reconstructor
p0
(c__main__
Story
p1
c__builtin__
object
p2
Ntp3
Rp4
(dp5
S'text'
p6
g0
(c__main__
Document
p7
g2
Ntp8
Rp9
(dp10
S'_Document__initialContent'
p11
S'The man in the ticket-office said:\n\n\n\n"Have an accident insurance ticket, also?"\n\n\n\n"No," I said, after studying the matter over a little. "No, I believe not; I am going to be traveling by rail all day today. However, tomorrow I don\'t travel. Give me one for tomorrow."\n\n\n\nThe man looked puzzled. He said:\n\n\n\n"But it is for accident insurance, and if you are going to travel by rail--"\n\n\n\n"If I am going to travel by rail I sha\'n\'t need it. Lying at home in bed is the thing _I_ am afraid of."\n\n\n\nI had been looking into this matter. Last year I traveled twenty thousand miles, almost entirely by rail; the year before, I traveled over twenty-five thousand miles, half by sea and half by rail; and the year before that I traveled in the neighborhood of ten thousand miles, exclusively by rail. I suppose if I put in all the little odd journeys here and there, I may say I have traveled sixty thousand miles during the three years I have mentioned. AND NEVER AN ACCIDENT.\n\n\n\nFor a good while I said to myself every morning: "Now I have escaped thus far, and so the chances are just that much increased that I shall catch it this time. I will be shrewd, and buy an accident ticket." And to a dead moral certainty I drew a blank, and went to bed that night without a joint started or a bone splintered. I got tired of that sort of daily bother, and fell to buying accident tickets that were good for a month. I said to myself, "A man CAN\'T buy thirty blanks in one bundle."\n\n\n\nBut I was mistaken. There was never a prize in the the lot. I could read of railway accidents every day--the newspaper atmosphere was foggy with them; but somehow they never came my way. I found I had spent a good deal of money in the accident business, and had nothing to show for it. My suspicions were aroused, and I began to hunt around for somebody that had won in this lottery. I found plenty of people who had invested, but not an individual that had ever had an accident or made a cent. I stopped buying accident tickets and went to ciphering. The result was astounding. THE PERIL LAY NOT IN TRAVELING, BUT IN STAYING AT HOME.\n\n\n\nI hunted up statistics, and was amazed to find that after all the glaring newspaper headlines concerning railroad disasters, less than THREE HUNDRED people had really lost their lives by those disasters in the preceding twelve months. The Erie road was set down as the most murderous in the list. It had killed forty-six-- or twenty-six, I do not exactly remember which, but I know the number was double that of any other road. But the fact straightway suggested itself that the Erie was an immensely long road, and did more business than any other line in the country; so the double number of killed ceased to be matter for surprise.\n\n\n\nBy further figuring, it appeared that between New York and Rochester the Erie ran eight passenger-trains each way every day--16 altogether; and carried a daily average of 6,000 persons. That is about a million in six months--the population of New York City. Well, the Erie kills from 13 to 23 persons of ITS million in six months; and in the same time 13,000 of New York\'s million die in their beds! My flesh crept, my hair stood on end. "This is appalling!" I said. "The danger isn\'t in traveling by rail, but in trusting to those deadly beds. I will never sleep in a bed again."\n\n\n\nI had figured on considerably less than one-half the length of the Erie road. It was plain that the entire road must transport at least eleven or twelve thousand people every day. There are many short roads running out of Boston that do fully half as much; a great many such roads. There are many roads scattered about the Union that do a prodigious passenger business. Therefore it was fair to presume that an average of 2,500 passengers a day for each road in the country would be almost correct. There are 846 railway lines in our country, and 846 times 2,500 are 2,115,000. So the railways of America move more than two millions of people every day; six hundred and fifty millions of people a year, without counting the Sundays. They do that, too--there is no question about it; though where they get the raw material is clear beyond the jurisdiction of my arithmetic; for I have hunted the census through and through, and I find that there are not that many people in the United States, by a matter of six hundred and ten millions at the very least. They must use some of the same people over again, likely.\n\n\n\nSan Francisco is one-eighth as populous as New York; there are 60 deaths a week in the former and 500 a week in the latter--if they have luck. That is 3,120 deaths a year in San Francisco, and eight times as many in New York--say about 25,000 or 26,000. The health of the two places is the same. So we will let it stand as a fair presumption that this will hold good all over the country, and that consequently 25,000 out of every million of people we have must die every year. That amounts to one-fortieth of our total population. One million of us, then, die annually. Out of this million ten or twelve thousand are stabbed, shot, drowned, hanged, poisoned, or meet a similarly violent death in some other popular way, such as perishing by kerosene-lamp and hoop-skirt conflagrations, getting buried in coal-mines, falling off house-tops, breaking through church, or lecture-room floors, taking patent medicines, or committing suicide in other forms. The Erie railroad kills 23 to 46; the other 845 railroads kill an average of one-third of a man each; and the rest of that million, amounting in the aggregate to that appalling figure of 987,631 corpses, die naturally in their beds!\n\n\n\nYou will excuse me from taking any more chances on those beds. The railroads are good enough for me.\n\n\n\nAnd my advice to all people is, Don\'t stay at home any more than you can help; but when you have GOT to stay at home a while, buy a package of those insurance tickets and sit up nights. You cannot be too cautious.\n\n\n\n[One can see now why I answered that ticket-agent in the manner recorded at the top of this sketch.]\n\n\n\nThe moral of this composition is, that thoughtless people grumble more than is fair about railroad management in the United States. When we consider that every day and night of the year full fourteen thousand railway-trains of various kinds, freighted with life and armed with death, go thundering over the land, the marvel is, NOT that they kill three hundred human beings in a twelvemonth, but that they do not kill three hundred times three hundred!\n\n\n\n-THE END-\n\n[Clemens] Mark Twain\'s short story: The Danger of Lying in Bed'
p12
sS'sentences'
p13
(lp14
(i__main__
Sentence
p15
(dp16
S'index'
p17
I0
sS'words'
p18
(lp19
S'The'
p20
aS'man'
p21
aS'in'
p22
aS'the'
p23
aS'ticket-office'
p24
aS'said'
p25
aS':'
p26
aS'``'
p27
aS'Have'
p28
aS'an'
p29
aS'accident'
p30
aS'insurance'
p31
aS'ticket'
p32
aS','
p33
aS'also'
p34
aS'?'
p35
aS"''"
p36
asS'lemmas'
p37
(lp38
VThe
p39
aVman
p40
aVin
p41
aVthe
p42
aVticket-office
p43
aVsay
p44
aV:
p45
aV``
p46
aVHave
p47
aVan
p48
aVaccident
p49
aVinsurance
p50
aVticket
p51
aV,
p52
aValso
p53
aV?
p54
aV''
p55
asS'nerTags'
p56
(lp57
VO
p58
ag58
ag58
ag58
ag58
ag58
ag58
ag58
ag58
ag58
ag58
ag58
ag58
ag58
ag58
ag58
ag58
asS'posTags'
p59
(lp60
S'DT'
p61
aS'NN'
p62
aS'IN'
p63
ag61
ag62
aS'VBD'
p64
aS':'
p65
aS'``'
p66
aS'VB'
p67
ag61
ag62
ag62
ag62
aS','
p68
aS'RB'
p69
aS'.'
p70
aS"''"
p71
asS'_Sentence__initialContent'
p72
VThe man in the ticket-office said:    "Have an accident insurance ticket, also?"
p73
sba(i__main__
Sentence
p74
(dp75
g17
I1
sg18
(lp76
S'``'
p77
aS'No'
p78
aS','
p79
aS"''"
p80
aS'I'
p81
aS'said'
p82
aS','
p83
aS'after'
p84
aS'studying'
p85
aS'the'
p86
aS'matter'
p87
aS'over'
p88
aS'a'
p89
aS'little'
p90
aS'.'
p91
asg37
(lp92
V``
p93
aVNo
p94
ag52
aV''
p95
aVI
p96
ag44
ag52
aVafter
p97
aVstudy
p98
aVthe
p99
aVmatter
p100
aVover
p101
aVa
p102
aVlittle
p103
aV.
p104
asg56
(lp105
g58
ag58
ag58
ag58
ag58
ag58
ag58
ag58
ag58
ag58
ag58
ag58
ag58
ag58
ag58
asg59
(lp106
g66
ag61
ag68
ag71
aS'PRP'
p107
ag64
ag68
ag63
aS'VBG'
p108
ag61
ag62
ag63
ag61
ag69
ag70
asg72
V"No," I said, after studying the matter over a little.
p109
sba(i__main__
Sentence
p110
(dp111
g17
I2
sg18
(lp112
S'``'
p113
aS'No'
p114
aS','
p115
aS'I'
p116
aS'believe'
p117
aS'not'
p118
aS';'
p119
aS'I'
p120
aS'am'
p121
aS'going'
p122
aS'to'
p123
aS'be'
p124
aS'traveling'
p125
aS'by'
p126
aS'rail'
p127
aS'all'
p128
aS'day'
p129
aS'today'
p130
aS'.'
p131
asg37
(lp132
V``
p133
aVNo
p134
ag52
ag96
aVbelieve
p135
aVnot
p136
aV;
p137
ag96
aVbe
p138
aVgo
p139
aVto
p140
aVbe
p141
aVtravel
p142
aVby
p143
aVrail
p144
aVall
p145
aVday
p146
aVtoday
p147
ag104
asg56
(lp148
g58
ag58
ag58
ag58
ag58
ag58
ag58
ag58
ag58
ag58
ag58
ag58
ag58
ag58
ag58
ag58
ag58
ag58
ag58
asg59
(lp149
g66
ag61
ag68
ag107
aS'VBP'
p150
ag69
ag65
ag107
ag150
ag108
aS'TO'
p151
ag67
ag108
ag63
ag62
ag61
ag62
ag62
ag70
asg72
V"No, I believe not; I am going to be traveling by rail all day today.
p152
sba(i__main__
Sentence
p153
(dp154
g17
I3
sg18
(lp155
S'However'
p156
aS','
p157
aS'tomorrow'
p158
aS'I'
p159
aS'do'
p160
aS"n't"
p161
aS'travel'
p162
aS'.'
p163
asg37
(lp164
VHowever
p165
ag52
aVtomorrow
p166
ag96
aVdo
p167
aVn't
p168
aVtravel
p169
ag104
asg56
(lp170
g58
ag58
ag58
ag58
ag58
ag58
ag58
ag58
asg59
(lp171
g69
ag68
ag62
ag107
ag150
ag69
ag67
ag70
asg72
VHowever, tomorrow I don't travel.
p172
sba(i__main__
Sentence
p173
(dp174
g17
I4
sg18
(lp175
S'Give'
p176
aS'me'
p177
aS'one'
p178
aS'for'
p179
aS'tomorrow'
p180
aS'.'
p181
aS"''"
p182
asg37
(lp183
VGive
p184
aVme
p185
aVone
p186
aVfor
p187
aVtomorrow
p188
ag104
aV''
p189
asg56
(lp190
g58
ag58
ag58
ag58
ag58
ag58
ag58
asg59
(lp191
S'JJ'
p192
ag107
aS'CD'
p193
ag63
ag62
ag70
ag71
asg72
VGive me one for tomorrow."
p194
sba(i__main__
Sentence
p195
(dp196
g17
I5
sg18
(lp197
S'The'
p198
aS'man'
p199
aS'looked'
p200
aS'puzzled'
p201
aS'.'
p202
asg37
(lp203
VThe
p204
aVman
p205
aVlook
p206
aVpuzzle
p207
ag104
asg56
(lp208
g58
ag58
ag58
ag58
ag58
asg59
(lp209
g61
ag62
ag64
aS'VBN'
p210
ag70
asg72
VThe man looked puzzled.
p211
sba(i__main__
Sentence
p212
(dp213
g17
I6
sg18
(lp214
S'He'
p215
aS'said'
p216
aS':'
p217
aS'``'
p218
aS'But'
p219
aS'it'
p220
aS'is'
p221
aS'for'
p222
aS'accident'
p223
aS'insurance'
p224
aS','
p225
aS'and'
p226
aS'if'
p227
aS'you'
p228
aS'are'
p229
aS'going'
p230
aS'to'
p231
aS'travel'
p232
aS'by'
p233
aS'rail'
p234
aS'--'
p235
aS"''"
p236
aS'``'
p237
aS'If'
p238
aS'I'
p239
aS'am'
p240
aS'going'
p241
aS'to'
p242
aS'travel'
p243
aS'by'
p244
aS'rail'
p245
aS'I'
p246
aS"sha'n't"
p247
aS'need'
p248
aS'it'
p249
aS'.'
p250
asg37
(lp251
VHe
p252
ag44
ag45
aV``
p253
aVBut
p254
aVit
p255
aVbe
p256
aVfor
p257
aVaccident
p258
aVinsurance
p259
ag52
aVand
p260
aVif
p261
aVyou
p262
aVbe
p263
aVgo
p264
aVto
p265
aVtravel
p266
aVby
p267
aVrail
p268
aV--
p269
aV''
p270
aV``
p271
aVIf
p272
ag96
ag138
aVgo
p273
aVto
p274
aVtravel
p275
aVby
p276
aVrail
p277
ag96
aVsha'n't
p278
aVneed
p279
aVit
p280
ag104
asg56
(lp281
g58
ag58
ag58
ag58
ag58
ag58
ag58
ag58
ag58
ag58
ag58
ag58
ag58
ag58
ag58
ag58
ag58
ag58
ag58
ag58
ag58
ag58
ag58
ag58
ag58
ag58
ag58
ag58
ag58
ag58
ag58
ag58
ag58
ag58
ag58
ag58
asg59
(lp282
g107
ag64
ag65
ag66
aS'CC'
p283
ag107
aS'VBZ'
p284
ag63
ag62
ag62
ag68
ag283
ag63
ag107
ag150
ag108
ag151
ag62
ag63
ag62
ag65
ag71
ag66
ag63
ag107
ag150
ag108
ag151
ag62
ag63
ag62
ag107
ag69
ag150
ag107
ag70
asg72
VHe said:    "But it is for accident insurance, and if you are going to travel by rail--"    "If I am going to travel by rail I sha'n't need it.
p285
sba(i__main__
Sentence
p286
(dp287
g17
I7
sg18
(lp288
S'Lying'
p289
aS'at'
p290
aS'home'
p291
aS'in'
p292
aS'bed'
p293
aS'is'
p294
aS'the'
p295
aS'thing'
p296
aS'_I_'
p297
aS'am'
p298
aS'afraid'
p299
aS'of'
p300
aS'.'
p301
aS"''"
p302
asg37
(lp303
VLying
p304
aVat
p305
aVhome
p306
aVin
p307
aVbed
p308
ag256
aVthe
p309
aVthing
p310
aV_I_
p311
aVam
p312
aVafraid
p313
aVof
p314
ag104
aV''
p315
asg56
(lp316
g58
ag58
ag58
ag58
ag58
ag58
ag58
ag58
ag58
ag58
ag58
ag58
ag58
ag58
asg59
(lp317
g108
ag63
ag62
ag63
ag210
ag284
ag61
ag62
aS'NNP'
p318
ag62
ag64
ag63
ag70
ag71
asg72
VLying at home in bed is the thing _I_ am afraid of."
p319
sba(i__main__
Sentence
p320
(dp321
g17
I8
sg18
(lp322
S'I'
p323
aS'had'
p324
aS'been'
p325
aS'looking'
p326
aS'into'
p327
aS'this'
p328
aS'matter'
p329
aS'.'
p330
asg37
(lp331
g96
aVhave
p332
aVbe
p333
aVlook
p334
aVinto
p335
aVthis
p336
aVmatter
p337
ag104
asg56
(lp338
g58
ag58
ag58
ag58
ag58
ag58
ag58
ag58
asg59
(lp339
g107
ag64
ag210
ag108
ag63
ag61
ag62
ag70
asg72
VI had been looking into this matter.
p340
sba(i__main__
Sentence
p341
(dp342
g17
I9
sg18
(lp343
S'Last'
p344
aS'year'
p345
aS'I'
p346
aS'traveled'
p347
aS'twenty'
p348
aS'thousand'
p349
aS'miles'
p350
aS','
p351
aS'almost'
p352
aS'entirely'
p353
aS'by'
p354
aS'rail'
p355
aS';'
p356
aS'the'
p357
aS'year'
p358
aS'before'
p359
aS','
p360
aS'I'
p361
aS'traveled'
p362
aS'over'
p363
aS'twenty-five'
p364
aS'thousand'
p365
aS'miles'
p366
aS','
p367
aS'half'
p368
aS'by'
p369
aS'sea'
p370
aS'and'
p371
aS'half'
p372
aS'by'
p373
aS'rail'
p374
aS';'
p375
aS'and'
p376
aS'the'
p377
aS'year'
p378
aS'before'
p379
aS'that'
p380
aS'I'
p381
aS'traveled'
p382
aS'in'
p383
aS'the'
p384
aS'neighborhood'
p385
aS'of'
p386
aS'ten'
p387
aS'thousand'
p388
aS'miles'
p389
aS','
p390
aS'exclusively'
p391
aS'by'
p392
aS'rail'
p393
aS'.'
p394
asg37
(lp395
VLast
p396
aVyear
p397
ag96
aVtravel
p398
aVtwenty
p399
aVthousand
p400
aVmile
p401
ag52
aValmost
p402
aVentirely
p403
aVby
p404
aVrail
p405
ag137
aVthe
p406
aVyear
p407
aVbefore
p408
ag52
ag96
aVtravel
p409
aVover
p410
aVtwenty-five
p411
aVthousand
p412
aVmile
p413
ag52
aVhalf
p414
aVby
p415
aVsea
p416
aVand
p417
aVhalf
p418
aVby
p419
aVrail
p420
ag137
aVand
p421
aVthe
p422
aVyear
p423
aVbefore
p424
aVthat
p425
ag96
aVtravel
p426
aVin
p427
aVthe
p428
aVneighborhood
p429
aVof
p430
aVten
p431
aVthousand
p432
aVmile
p433
ag52
aVexclusively
p434
aVby
p435
aVrail
p436
ag104
asg56
(lp437
g58
ag58
ag58
ag58
ag58
ag58
ag58
ag58
ag58
ag58
ag58
ag58
ag58
ag58
ag58
ag58
ag58
ag58
ag58
ag58
ag58
ag58
ag58
ag58
ag58
ag58
ag58
ag58
ag58
ag58
ag58
ag58
ag58
ag58
ag58
ag58
ag58
ag58
ag58
ag58
ag58
ag58
ag58
ag58
ag58
ag58
ag58
ag58
ag58
ag58
ag58
asg59
(lp438
g192
ag62
ag107
ag64
ag62
ag62
aS'NNS'
p439
ag68
ag69
ag69
ag63
ag62
ag65
ag61
ag62
ag63
ag68
ag107
ag64
aS'RP'
p440
ag192
ag62
ag439
ag68
ag61
ag63
ag62
ag283
ag61
ag63
ag62
ag65
ag283
ag61
ag62
ag63
ag63
ag107
ag64
ag63
ag61
ag62
ag63
ag62
ag62
ag439
ag68
ag69
ag63
ag62
ag70
asg72
VLast year I traveled twenty thousand miles, almost entirely by rail; the year before, I traveled over twenty-five thousand miles, half by sea and half by rail; and the year before that I traveled in the neighborhood of ten thousand miles, exclusively by rail.
p441
sba(i__main__
Sentence
p442
(dp443
g17
I10
sg18
(lp444
S'I'
p445
aS'suppose'
p446
aS'if'
p447
aS'I'
p448
aS'put'
p449
aS'in'
p450
aS'all'
p451
aS'the'
p452
aS'little'
p453
aS'odd'
p454
aS'journeys'
p455
aS'here'
p456
aS'and'
p457
aS'there'
p458
aS','
p459
aS'I'
p460
aS'may'
p461
aS'say'
p462
aS'I'
p463
aS'have'
p464
aS'traveled'
p465
aS'sixty'
p466
aS'thousand'
p467
aS'miles'
p468
aS'during'
p469
aS'the'
p470
aS'three'
p471
aS'years'
p472
aS'I'
p473
aS'have'
p474
aS'mentioned'
p475
aS'.'
p476
asg37
(lp477
g96
aVsuppose
p478
aVif
p479
ag96
aVput
p480
aVin
p481
aVall
p482
aVthe
p483
aVlittle
p484
aVodd
p485
aVjourney
p486
aVhere
p487
aVand
p488
aVthere
p489
ag52
ag96
aVmay
p490
aVsay
p491
ag96
aVhave
p492
aVtravel
p493
aVsixty
p494
aVthousand
p495
aVmile
p496
aVduring
p497
aVthe
p498
aVthree
p499
aVyear
p500
ag96
aVhave
p501
aVmention
p502
ag104
asg56
(lp503
g58
ag58
ag58
ag58
ag58
ag58
ag58
ag58
ag58
ag58
ag58
ag58
ag58
ag58
ag58
ag58
ag58
ag58
ag58
ag58
ag58
ag58
ag58
ag58
ag58
ag58
ag58
ag58
ag58
ag58
ag58
ag58
asg59
(lp504
g107
ag150
ag63
ag107
ag64
ag440
ag61
ag61
ag192
ag62
ag439
ag69
ag283
aS'EX'
p505
ag68
ag107
aS'MD'
p506
ag67
ag107
ag150
ag210
ag62
ag62
ag439
ag63
ag61
ag193
ag439
ag107
ag150
ag210
ag70
asg72
VI suppose if I put in all the little odd journeys here and there, I may say I have traveled sixty thousand miles during the three years I have mentioned.
p507
sba(i__main__
Sentence
p508
(dp509
g17
I11
sg18
(lp510
S'AND'
p511
aS'NEVER'
p512
aS'AN'
p513
aS'ACCIDENT'
p514
aS'.'
p515
asg37
(lp516
VAND
p517
aVNEVER
p518
aVAN
p519
aVACCIDENT
p520
ag104
asg56
(lp521
g58
ag58
ag58
ag58
ag58
asg59
(lp522
g283
ag318
ag318
ag318
ag70
asg72
VAND NEVER AN ACCIDENT.
p523
sba(i__main__
Sentence
p524
(dp525
g17
I12
sg18
(lp526
S'For'
p527
aS'a'
p528
aS'good'
p529
aS'while'
p530
aS'I'
p531
aS'said'
p532
aS'to'
p533
aS'myself'
p534
aS'every'
p535
aS'morning'
p536
aS':'
p537
aS'``'
p538
aS'Now'
p539
aS'I'
p540
aS'have'
p541
aS'escaped'
p542
aS'thus'
p543
aS'far'
p544
aS','
p545
aS'and'
p546
aS'so'
p547
aS'the'
p548
aS'chances'
p549
aS'are'
p550
aS'just'
p551
aS'that'
p552
aS'much'
p553
aS'increased'
p554
aS'that'
p555
aS'I'
p556
aS'shall'
p557
aS'catch'
p558
aS'it'
p559
aS'this'
p560
aS'time'
p561
aS'.'
p562
asg37
(lp563
VFor
p564
ag102
aVgood
p565
aVwhile
p566
ag96
ag44
aVto
p567
aVmyself
p568
aVevery
p569
aVmorning
p570
ag45
aV``
p571
aVNow
p572
ag96
aVhave
p573
aVescape
p574
aVthus
p575
aVfar
p576
ag52
aVand
p577
aVso
p578
aVthe
p579
aVchance
p580
ag263
aVjust
p581
aVthat
p582
aVmuch
p583
aVincrease
p584
aVthat
p585
ag96
aVshall
p586
aVcatch
p587
aVit
p588
aVthis
p589
aVtime
p590
ag104
asg56
(lp591
g58
ag58
ag58
ag58
ag58
ag58
ag58
ag58
ag58
ag58
ag58
ag58
ag58
ag58
ag58
ag58
ag58
ag58
ag58
ag58
ag58
ag58
ag58
ag58
ag58
ag58
ag58
ag58
ag58
ag58
ag58
ag58
ag58
ag58
ag58
ag58
asg59
(lp592
g63
ag61
ag192
ag62
ag107
ag64
ag151
ag107
ag61
ag62
ag65
ag66
ag69
ag107
ag150
ag210
ag69
ag69
ag68
ag283
ag69
ag61
ag439
ag150
ag69
ag63
ag192
ag210
ag63
ag107
ag506
ag67
ag107
ag61
ag62
ag70
asg72
VFor a good while I said to myself every morning: "Now I have escaped thus far, and so the chances are just that much increased that I shall catch it this time.
p593
sba(i__main__
Sentence
p594
(dp595
g17
I13
sg18
(lp596
S'I'
p597
aS'will'
p598
aS'be'
p599
aS'shrewd'
p600
aS','
p601
aS'and'
p602
aS'buy'
p603
aS'an'
p604
aS'accident'
p605
aS'ticket'
p606
aS'.'
p607
aS"''"
p608
asg37
(lp609
g96
aVwill
p610
aVbe
p611
aVshrewd
p612
ag52
aVand
p613
aVbuy
p614
aVan
p615
aVaccident
p616
aVticket
p617
ag104
aV''
p618
asg56
(lp619
g58
ag58
ag58
ag58
ag58
ag58
ag58
ag58
ag58
ag58
ag58
ag58
asg59
(lp620
g107
ag506
ag67
ag210
ag68
ag283
ag67
ag61
ag62
ag62
ag70
ag71
asg72
VI will be shrewd, and buy an accident ticket."
p621
sba(i__main__
Sentence
p622
(dp623
g17
I14
sg18
(lp624
S'And'
p625
aS'to'
p626
aS'a'
p627
aS'dead'
p628
aS'moral'
p629
aS'certainty'
p630
aS'I'
p631
aS'drew'
p632
aS'a'
p633
aS'blank'
p634
aS','
p635
aS'and'
p636
aS'went'
p637
aS'to'
p638
aS'bed'
p639
aS'that'
p640
aS'night'
p641
aS'without'
p642
aS'a'
p643
aS'joint'
p644
aS'started'
p645
aS'or'
p646
aS'a'
p647
aS'bone'
p648
aS'splintered'
p649
aS'.'
p650
asg37
(lp651
VAnd
p652
aVto
p653
ag102
aVdead
p654
aVmoral
p655
aVcertainty
p656
ag96
aVdraw
p657
ag102
aVblank
p658
ag52
aVand
p659
aVgo
p660
aVto
p661
aVbed
p662
aVthat
p663
aVnight
p664
aVwithout
p665
ag102
aVjoint
p666
aVstart
p667
aVor
p668
ag102
aVbone
p669
aVsplinter
p670
ag104
asg56
(lp671
g58
ag58
ag58
ag58
ag58
ag58
ag58
ag58
ag58
ag58
ag58
ag58
ag58
ag58
ag58
ag58
ag58
ag58
ag58
ag58
ag58
ag58
ag58
ag58
ag58
ag58
asg59
(lp672
g283
ag151
ag61
ag192
ag192
ag62
ag107
ag64
ag61
ag62
ag68
ag283
ag64
ag151
ag210
ag63
ag62
ag63
ag61
ag192
ag210
ag283
ag61
ag62
ag210
ag70
asg72
VAnd to a dead moral certainty I drew a blank, and went to bed that night without a joint started or a bone splintered.
p673
sba(i__main__
Sentence
p674
(dp675
g17
I15
sg18
(lp676
S'I'
p677
aS'got'
p678
aS'tired'
p679
aS'of'
p680
aS'that'
p681
aS'sort'
p682
aS'of'
p683
aS'daily'
p684
aS'bother'
p685
aS','
p686
aS'and'
p687
aS'fell'
p688
aS'to'
p689
aS'buying'
p690
aS'accident'
p691
aS'tickets'
p692
aS'that'
p693
aS'were'
p694
aS'good'
p695
aS'for'
p696
aS'a'
p697
aS'month'
p698
aS'.'
p699
asg37
(lp700
g96
aVget
p701
aVtired
p702
aVof
p703
aVthat
p704
aVsort
p705
aVof
p706
aVdaily
p707
aVbother
p708
ag52
aVand
p709
aVfell
p710
aVto
p711
aVbuying
p712
aVaccident
p713
aVticket
p714
aVthat
p715
aVbe
p716
aVgood
p717
aVfor
p718
ag102
aVmonth
p719
ag104
asg56
(lp720
g58
ag58
ag58
ag58
ag58
ag58
ag58
ag58
ag58
ag58
ag58
ag58
ag58
ag58
ag58
ag58
ag58
ag58
ag58
ag58
ag58
ag58
ag58
asg59
(lp721
g107
ag64
ag192
ag63
ag61
ag62
ag63
ag192
ag62
ag68
ag283
ag64
ag151
ag62
ag62
ag439
aS'WDT'
p722
ag64
ag192
ag63
ag61
ag62
ag70
asg72
VI got tired of that sort of daily bother, and fell to buying accident tickets that were good for a month.
p723
sba(i__main__
Sentence
p724
(dp725
g17
I16
sg18
(lp726
S'I'
p727
aS'said'
p728
aS'to'
p729
aS'myself'
p730
aS','
p731
aS'``'
p732
aS'A'
p733
aS'man'
p734
aS'CA'
p735
aS"N'T"
p736
aS'buy'
p737
aS'thirty'
p738
aS'blanks'
p739
aS'in'
p740
aS'one'
p741
aS'bundle'
p742
aS'.'
p743
aS"''"
p744
asg37
(lp745
g96
ag44
aVto
p746
aVmyself
p747
ag52
aV``
p748
aVA
p749
aVman
p750
aVCA
p751
aVN'T
p752
aVbuy
p753
aVthirty
p754
aVblank
p755
aVin
p756
aVone
p757
aVbundle
p758
ag104
aV''
p759
asg56
(lp760
g58
ag58
ag58
ag58
ag58
ag58
ag58
ag58
ag58
ag58
ag58
ag58
ag58
ag58
ag58
ag58
ag58
ag58
asg59
(lp761
g107
ag64
ag151
ag107
ag68
ag66
ag61
ag62
ag318
ag69
ag67
ag192
ag439
ag63
ag193
ag62
ag70
ag71
asg72
VI said to myself, "A man CAN'T buy thirty blanks in one bundle."
p762
sba(i__main__
Sentence
p763
(dp764
g17
I17
sg18
(lp765
S'But'
p766
aS'I'
p767
aS'was'
p768
aS'mistaken'
p769
aS'.'
p770
asg37
(lp771
VBut
p772
ag96
aVbe
p773
aVmistake
p774
ag104
asg56
(lp775
g58
ag58
ag58
ag58
ag58
asg59
(lp776
g283
ag107
ag64
ag210
ag70
asg72
VBut I was mistaken.
p777
sba(i__main__
Sentence
p778
(dp779
g17
I18
sg18
(lp780
S'There'
p781
aS'was'
p782
aS'never'
p783
aS'a'
p784
aS'prize'
p785
aS'in'
p786
aS'the'
p787
aS'the'
p788
aS'lot'
p789
aS'.'
p790
asg37
(lp791
VThere
p792
ag773
aVnever
p793
ag102
aVprize
p794
aVin
p795
aVthe
p796
aVthe
p797
aVlot
p798
ag104
asg56
(lp799
g58
ag58
ag58
ag58
ag58
ag58
ag58
ag58
ag58
ag58
asg59
(lp800
g505
ag64
ag69
ag61
ag62
ag63
ag61
ag61
ag62
ag70
asg72
VThere was never a prize in the the lot.
p801
sba(i__main__
Sentence
p802
(dp803
g17
I19
sg18
(lp804
S'I'
p805
aS'could'
p806
aS'read'
p807
aS'of'
p808
aS'railway'
p809
aS'accidents'
p810
aS'every'
p811
aS'day'
p812
aS'--'
p813
aS'the'
p814
aS'newspaper'
p815
aS'atmosphere'
p816
aS'was'
p817
aS'foggy'
p818
aS'with'
p819
aS'them'
p820
aS';'
p821
aS'but'
p822
aS'somehow'
p823
aS'they'
p824
aS'never'
p825
aS'came'
p826
aS'my'
p827
aS'way'
p828
aS'.'
p829
asg37
(lp830
g96
aVcould
p831
aVread
p832
aVof
p833
aVrailway
p834
aVaccident
p835
aVevery
p836
aVday
p837
aV--
p838
aVthe
p839
aVnewspaper
p840
aVatmosphere
p841
ag773
aVfoggy
p842
aVwith
p843
aVthem
p844
ag137
aVbut
p845
aVsomehow
p846
aVthey
p847
aVnever
p848
aVcome
p849
aVmy
p850
aVway
p851
ag104
asg56
(lp852
g58
ag58
ag58
ag58
ag58
ag58
ag58
ag58
ag58
ag58
ag58
ag58
ag58
ag58
ag58
ag58
ag58
ag58
ag58
ag58
ag58
ag58
ag58
ag58
ag58
asg59
(lp853
g107
ag506
ag67
ag63
ag62
ag439
ag61
ag62
ag65
ag61
ag62
ag69
ag64
ag62
ag63
ag107
ag65
ag283
ag69
ag107
ag69
ag64
aS'PRP$'
p854
ag62
ag70
asg72
VI could read of railway accidents every day--the newspaper atmosphere was foggy with them; but somehow they never came my way.
p855
sba(i__main__
Sentence
p856
(dp857
g17
I20
sg18
(lp858
S'I'
p859
aS'found'
p860
aS'I'
p861
aS'had'
p862
aS'spent'
p863
aS'a'
p864
aS'good'
p865
aS'deal'
p866
aS'of'
p867
aS'money'
p868
aS'in'
p869
aS'the'
p870
aS'accident'
p871
aS'business'
p872
aS','
p873
aS'and'
p874
aS'had'
p875
aS'nothing'
p876
aS'to'
p877
aS'show'
p878
aS'for'
p879
aS'it'
p880
aS'.'
p881
asg37
(lp882
g96
aVfind
p883
ag96
ag332
aVspend
p884
ag102
aVgood
p885
aVdeal
p886
aVof
p887
aVmoney
p888
aVin
p889
aVthe
p890
aVaccident
p891
aVbusiness
p892
ag52
aVand
p893
ag332
aVnothing
p894
aVto
p895
aVshow
p896
aVfor
p897
aVit
p898
ag104
asg56
(lp899
g58
ag58
ag58
ag58
ag58
ag58
ag58
ag58
ag58
ag58
ag58
ag58
ag58
ag58
ag58
ag58
ag58
ag58
ag58
ag58
ag58
ag58
ag58
asg59
(lp900
g107
ag64
ag107
ag64
ag210
ag61
ag192
ag62
ag63
ag62
ag63
ag61
ag62
ag62
ag68
ag283
ag64
ag62
ag151
ag67
ag63
ag107
ag70
asg72
VI found I had spent a good deal of money in the accident business, and had nothing to show for it.
p901
sba(i__main__
Sentence
p902
(dp903
g17
I21
sg18
(lp904
S'My'
p905
aS'suspicions'
p906
aS'were'
p907
aS'aroused'
p908
aS','
p909
aS'and'
p910
aS'I'
p911
aS'began'
p912
aS'to'
p913
aS'hunt'
p914
aS'around'
p915
aS'for'
p916
aS'somebody'
p917
aS'that'
p918
aS'had'
p919
aS'won'
p920
aS'in'
p921
aS'this'
p922
aS'lottery'
p923
aS'.'
p924
asg37
(lp925
VMy
p926
aVsuspicion
p927
ag716
aVarouse
p928
ag52
aVand
p929
ag96
aVbegin
p930
aVto
p931
aVhunt
p932
aVaround
p933
aVfor
p934
aVsomebody
p935
aVthat
p936
ag332
aVwin
p937
aVin
p938
aVthis
p939
aVlottery
p940
ag104
asg56
(lp941
g58
ag58
ag58
ag58
ag58
ag58
ag58
ag58
ag58
ag58
ag58
ag58
ag58
ag58
ag58
ag58
ag58
ag58
ag58
ag58
asg59
(lp942
g854
ag439
ag64
ag210
ag68
ag283
ag107
ag64
ag151
ag62
ag63
ag63
ag62
ag722
ag64
ag64
ag63
ag61
ag62
ag70
asg72
VMy suspicions were aroused, and I began to hunt around for somebody that had won in this lottery.
p943
sba(i__main__
Sentence
p944
(dp945
g17
I22
sg18
(lp946
S'I'
p947
aS'found'
p948
aS'plenty'
p949
aS'of'
p950
aS'people'
p951
aS'who'
p952
aS'had'
p953
aS'invested'
p954
aS','
p955
aS'but'
p956
aS'not'
p957
aS'an'
p958
aS'individual'
p959
aS'that'
p960
aS'had'
p961
aS'ever'
p962
aS'had'
p963
aS'an'
p964
aS'accident'
p965
aS'or'
p966
aS'made'
p967
aS'a'
p968
aS'cent'
p969
aS'.'
p970
asg37
(lp971
g96
ag883
aVplenty
p972
aVof
p973
aVpeople
p974
aVwho
p975
ag332
aVinvest
p976
ag52
aVbut
p977
aVnot
p978
aVan
p979
aVindividual
p980
aVthat
p981
ag332
aVever
p982
ag332
aVan
p983
aVaccident
p984
aVor
p985
aVmake
p986
ag102
aVcent
p987
ag104
asg56
(lp988
g58
ag58
ag58
ag58
ag58
ag58
ag58
ag58
ag58
ag58
ag58
ag58
ag58
ag58
ag58
ag58
ag58
ag58
ag58
ag58
ag58
ag58
ag58
ag58
asg59
(lp989
g107
ag64
ag62
ag63
ag439
aS'WP'
p990
ag64
ag210
ag68
ag283
ag69
ag61
ag192
ag63
ag64
ag69
ag210
ag61
ag62
ag283
ag210
ag61
ag62
ag70
asg72
VI found plenty of people who had invested, but not an individual that had ever had an accident or made a cent.
p991
sba(i__main__
Sentence
p992
(dp993
g17
I23
sg18
(lp994
S'I'
p995
aS'stopped'
p996
aS'buying'
p997
aS'accident'
p998
aS'tickets'
p999
aS'and'
p1000
aS'went'
p1001
aS'to'
p1002
aS'ciphering'
p1003
aS'.'
p1004
asg37
(lp1005
g96
aVstop
p1006
aVbuy
p1007
aVaccident
p1008
aVticket
p1009
aVand
p1010
ag660
aVto
p1011
aVciphering
p1012
ag104
asg56
(lp1013
g58
ag58
ag58
ag58
ag58
ag58
ag58
ag58
ag58
ag58
asg59
(lp1014
g107
ag64
ag108
ag62
ag439
ag283
ag64
ag151
ag62
ag70
asg72
VI stopped buying accident tickets and went to ciphering.
p1015
sba(i__main__
Sentence
p1016
(dp1017
g17
I24
sg18
(lp1018
S'The'
p1019
aS'result'
p1020
aS'was'
p1021
aS'astounding'
p1022
aS'.'
p1023
asg37
(lp1024
VThe
p1025
aVresult
p1026
ag773
aVastound
p1027
ag104
asg56
(lp1028
g58
ag58
ag58
ag58
ag58
asg59
(lp1029
g61
ag62
ag64
ag108
ag70
asg72
VThe result was astounding.
p1030
sba(i__main__
Sentence
p1031
(dp1032
g17
I25
sg18
(lp1033
S'THE'
p1034
aS'PERIL'
p1035
aS'LAY'
p1036
aS'NOT'
p1037
aS'IN'
p1038
aS'TRAVELING'
p1039
aS','
p1040
aS'BUT'
p1041
aS'IN'
p1042
aS'STAYING'
p1043
aS'AT'
p1044
aS'HOME'
p1045
aS'.'
p1046
asg37
(lp1047
VTHE
p1048
aVPERIL
p1049
aVLAY
p1050
aVNOT
p1051
aVIN
p1052
aVTRAVELING
p1053
ag52
aVBUT
p1054
aVIN
p1055
aVSTAYING
p1056
aVAT
p1057
aVHOME
p1058
ag104
asg56
(lp1059
g58
ag58
ag58
ag58
ag58
ag58
ag58
ag58
ag58
ag58
ag58
ag58
ag58
asg59
(lp1060
g61
ag318
ag318
ag318
ag318
ag318
ag68
ag283
ag318
ag318
ag318
ag318
ag70
asg72
VTHE PERIL LAY NOT IN TRAVELING, BUT IN STAYING AT HOME.
p1061
sba(i__main__
Sentence
p1062
(dp1063
g17
I26
sg18
(lp1064
S'I'
p1065
aS'hunted'
p1066
aS'up'
p1067
aS'statistics'
p1068
aS','
p1069
aS'and'
p1070
aS'was'
p1071
aS'amazed'
p1072
aS'to'
p1073
aS'find'
p1074
aS'that'
p1075
aS'after'
p1076
aS'all'
p1077
aS'the'
p1078
aS'glaring'
p1079
aS'newspaper'
p1080
aS'headlines'
p1081
aS'concerning'
p1082
aS'railroad'
p1083
aS'disasters'
p1084
aS','
p1085
aS'less'
p1086
aS'than'
p1087
aS'THREE'
p1088
aS'HUNDRED'
p1089
aS'people'
p1090
aS'had'
p1091
aS'really'
p1092
aS'lost'
p1093
aS'their'
p1094
aS'lives'
p1095
aS'by'
p1096
aS'those'
p1097
aS'disasters'
p1098
aS'in'
p1099
aS'the'
p1100
aS'preceding'
p1101
aS'twelve'
p1102
aS'months'
p1103
aS'.'
p1104
asg37
(lp1105
g96
aVhunt
p1106
aVup
p1107
aVstatistic
p1108
ag52
aVand
p1109
ag773
aVamaze
p1110
aVto
p1111
aVfind
p1112
aVthat
p1113
aVafter
p1114
aVall
p1115
aVthe
p1116
aVglaring
p1117
aVnewspaper
p1118
aVheadline
p1119
aVconcern
p1120
aVrailroad
p1121
aVdisaster
p1122
ag52
aVless
p1123
aVthan
p1124
aVTHREE
p1125
aVHUNDRED
p1126
aVpeople
p1127
ag332
aVreally
p1128
aVlose
p1129
aVtheir
p1130
aVlife
p1131
aVby
p1132
aVthose
p1133
aVdisaster
p1134
aVin
p1135
aVthe
p1136
aVpreceding
p1137
aVtwelve
p1138
aVmonth
p1139
ag104
asg56
(lp1140
g58
ag58
ag58
ag58
ag58
ag58
ag58
ag58
ag58
ag58
ag58
ag58
ag58
ag58
ag58
ag58
ag58
ag58
ag58
ag58
ag58
ag58
ag58
ag58
ag58
ag58
ag58
ag58
ag58
ag58
ag58
ag58
ag58
ag58
ag58
ag58
ag58
ag58
ag58
ag58
asg59
(lp1141
g107
ag64
ag440
ag439
ag68
ag283
ag64
ag210
ag151
ag67
ag63
ag63
ag61
ag61
ag62
ag62
ag439
ag108
ag62
ag439
ag68
aS'RBR'
p1142
ag63
ag193
ag193
ag439
ag64
ag69
ag210
ag854
ag439
ag63
ag61
ag439
ag63
ag61
ag62
ag62
ag439
ag70
asg72
VI hunted up statistics, and was amazed to find that after all the glaring newspaper headlines concerning railroad disasters, less than THREE HUNDRED people had really lost their lives by those disasters in the preceding twelve months.
p1143
sba(i__main__
Sentence
p1144
(dp1145
g17
I27
sg18
(lp1146
S'The'
p1147
aS'Erie'
p1148
aS'road'
p1149
aS'was'
p1150
aS'set'
p1151
aS'down'
p1152
aS'as'
p1153
aS'the'
p1154
aS'most'
p1155
aS'murderous'
p1156
aS'in'
p1157
aS'the'
p1158
aS'list'
p1159
aS'.'
p1160
asg37
(lp1161
VThe
p1162
aVErie
p1163
aVroad
p1164
ag773
aVset
p1165
aVdown
p1166
ag102
aVthe
p1167
aVmost
p1168
aVmurderous
p1169
aVin
p1170
aVthe
p1171
aVlist
p1172
ag104
asg56
(lp1173
g58
ag58
ag58
ag58
ag58
ag58
ag58
ag58
ag58
ag58
ag58
ag58
ag58
ag58
asg59
(lp1174
g61
ag318
ag62
ag64
ag210
ag440
ag63
ag61
aS'RBS'
p1175
ag192
ag63
ag61
ag62
ag70
asg72
VThe Erie road was set down as the most murderous in the list.
p1176
sba(i__main__
Sentence
p1177
(dp1178
g17
I28
sg18
(lp1179
S'It'
p1180
aS'had'
p1181
aS'killed'
p1182
aS'forty-six'
p1183
aS'--'
p1184
aS'or'
p1185
aS'twenty-six'
p1186
aS','
p1187
aS'I'
p1188
aS'do'
p1189
aS'not'
p1190
aS'exactly'
p1191
aS'remember'
p1192
aS'which'
p1193
aS','
p1194
aS'but'
p1195
aS'I'
p1196
aS'know'
p1197
aS'the'
p1198
aS'number'
p1199
aS'was'
p1200
aS'double'
p1201
aS'that'
p1202
aS'of'
p1203
aS'any'
p1204
aS'other'
p1205
aS'road'
p1206
aS'.'
p1207
asg37
(lp1208
VIt
p1209
ag332
aVkill
p1210
aVforty-six
p1211
aV--
p1212
aVor
p1213
aVtwenty-six
p1214
ag52
ag96
aVdo
p1215
aVnot
p1216
aVexactly
p1217
aVremember
p1218
aVwhich
p1219
ag52
aVbut
p1220
ag96
aVknow
p1221
aVthe
p1222
aVnumber
p1223
ag773
aVdouble
p1224
aVthat
p1225
aVof
p1226
aVany
p1227
aVother
p1228
aVroad
p1229
ag104
asg56
(lp1230
g58
ag58
ag58
ag58
ag58
ag58
ag58
ag58
ag58
ag58
ag58
ag58
ag58
ag58
ag58
ag58
ag58
ag58
ag58
ag58
ag58
ag58
ag58
ag58
ag58
ag58
ag58
ag58
asg59
(lp1231
g107
ag64
ag210
aS'-NONE-'
p1232
ag65
ag283
ag193
ag68
ag107
ag150
ag69
ag69
aS'JJR'
p1233
ag722
ag68
ag283
ag107
ag150
ag61
ag62
ag64
ag192
ag63
ag63
ag61
ag192
ag62
ag70
asg72
VIt had killed forty-six-- or twenty-six, I do not exactly remember which, but I know the number was double that of any other road.
p1234
sba(i__main__
Sentence
p1235
(dp1236
g17
I29
sg18
(lp1237
S'But'
p1238
aS'the'
p1239
aS'fact'
p1240
aS'straightway'
p1241
aS'suggested'
p1242
aS'itself'
p1243
aS'that'
p1244
aS'the'
p1245
aS'Erie'
p1246
aS'was'
p1247
aS'an'
p1248
aS'immensely'
p1249
aS'long'
p1250
aS'road'
p1251
aS','
p1252
aS'and'
p1253
aS'did'
p1254
aS'more'
p1255
aS'business'
p1256
aS'than'
p1257
aS'any'
p1258
aS'other'
p1259
aS'line'
p1260
aS'in'
p1261
aS'the'
p1262
aS'country'
p1263
aS';'
p1264
aS'so'
p1265
aS'the'
p1266
aS'double'
p1267
aS'number'
p1268
aS'of'
p1269
aS'killed'
p1270
aS'ceased'
p1271
aS'to'
p1272
aS'be'
p1273
aS'matter'
p1274
aS'for'
p1275
aS'surprise'
p1276
aS'.'
p1277
asg37
(lp1278
VBut
p1279
aVthe
p1280
aVfact
p1281
aVstraightway
p1282
aVsuggest
p1283
aVitself
p1284
aVthat
p1285
aVthe
p1286
aVErie
p1287
ag773
aVan
p1288
aVimmensely
p1289
aVlong
p1290
aVroad
p1291
ag52
aVand
p1292
aVdo
p1293
aVmore
p1294
aVbusiness
p1295
aVthan
p1296
aVany
p1297
aVother
p1298
aVline
p1299
aVin
p1300
aVthe
p1301
aVcountry
p1302
ag137
aVso
p1303
aVthe
p1304
aVdouble
p1305
aVnumber
p1306
aVof
p1307
aVkill
p1308
aVcease
p1309
aVto
p1310
aVbe
p1311
aVmatter
p1312
aVfor
p1313
aVsurprise
p1314
ag104
asg56
(lp1315
g58
ag58
ag58
ag58
ag58
ag58
ag58
ag58
ag58
ag58
ag58
ag58
ag58
ag58
ag58
ag58
ag58
ag58
ag58
ag58
ag58
ag58
ag58
ag58
ag58
ag58
ag58
ag58
ag58
ag58
ag58
ag58
ag58
ag58
ag58
ag58
ag58
ag58
ag58
ag58
asg59
(lp1316
g283
ag61
ag62
ag62
ag64
ag107
ag63
ag61
ag318
ag64
ag61
ag69
ag192
ag62
ag68
ag283
ag64
ag1142
ag62
ag63
ag61
ag192
ag62
ag63
ag61
ag62
ag65
ag69
ag61
ag192
ag62
ag63
ag210
ag210
ag151
ag67
ag62
ag63
ag62
ag70
asg72
VBut the fact straightway suggested itself that the Erie was an immensely long road, and did more business than any other line in the country; so the double number of killed ceased to be matter for surprise.
p1317
sba(i__main__
Sentence
p1318
(dp1319
g17
I30
sg18
(lp1320
S'By'
p1321
aS'further'
p1322
aS'figuring'
p1323
aS','
p1324
aS'it'
p1325
aS'appeared'
p1326
aS'that'
p1327
aS'between'
p1328
aS'New'
p1329
aS'York'
p1330
aS'and'
p1331
aS'Rochester'
p1332
aS'the'
p1333
aS'Erie'
p1334
aS'ran'
p1335
aS'eight'
p1336
aS'passenger-trains'
p1337
aS'each'
p1338
aS'way'
p1339
aS'every'
p1340
aS'day'
p1341
aS'--'
p1342
aS'16'
p1343
aS'altogether'
p1344
aS';'
p1345
aS'and'
p1346
aS'carried'
p1347
aS'a'
p1348
aS'daily'
p1349
aS'average'
p1350
aS'of'
p1351
aS'6,000'
p1352
aS'persons'
p1353
aS'.'
p1354
asg37
(lp1355
VBy
p1356
aVfurther
p1357
aVfiguring
p1358
ag52
aVit
p1359
aVappear
p1360
aVthat
p1361
aVbetween
p1362
aVNew
p1363
aVYork
p1364
aVand
p1365
aVRochester
p1366
aVthe
p1367
aVErie
p1368
aVrun
p1369
aVeight
p1370
aVpassenger-trains
p1371
aVeach
p1372
aVway
p1373
aVevery
p1374
aVday
p1375
aV--
p1376
aV16
p1377
aValtogether
p1378
ag137
aVand
p1379
aVcarry
p1380
ag102
aVdaily
p1381
aVaverage
p1382
aVof
p1383
aV6,000
p1384
aVperson
p1385
ag104
asg56
(lp1386
g58
ag58
ag58
ag58
ag58
ag58
ag58
ag58
aVLOCATION
p1387
aVLOCATION
p1388
ag58
aVLOCATION
p1389
ag58
ag58
ag58
ag58
ag58
ag58
ag58
ag58
ag58
ag58
ag58
ag58
ag58
ag58
ag58
ag58
ag58
ag58
ag58
ag58
ag58
ag58
asg59
(lp1390
g63
ag192
ag62
ag68
ag107
ag64
ag63
ag63
ag318
ag318
ag283
ag318
ag61
ag318
ag64
ag193
ag439
ag61
ag62
ag61
ag62
ag65
ag193
ag69
ag65
ag283
ag64
ag61
ag192
ag62
ag63
ag193
ag439
ag70
asg72
VBy further figuring, it appeared that between New York and Rochester the Erie ran eight passenger-trains each way every day--16 altogether; and carried a daily average of 6,000 persons.
p1391
sba(i__main__
Sentence
p1392
(dp1393
g17
I31
sg18
(lp1394
S'That'
p1395
aS'is'
p1396
aS'about'
p1397
aS'a'
p1398
aS'million'
p1399
aS'in'
p1400
aS'six'
p1401
aS'months'
p1402
aS'--'
p1403
aS'the'
p1404
aS'population'
p1405
aS'of'
p1406
aS'New'
p1407
aS'York'
p1408
aS'City'
p1409
aS'.'
p1410
asg37
(lp1411
VThat
p1412
ag256
aVabout
p1413
ag102
aVmillion
p1414
aVin
p1415
aVsix
p1416
aVmonth
p1417
aV--
p1418
aVthe
p1419
aVpopulation
p1420
aVof
p1421
aVNew
p1422
aVYork
p1423
aVCity
p1424
ag104
asg56
(lp1425
g58
ag58
ag58
ag58
ag58
ag58
ag58
ag58
ag58
ag58
ag58
ag58
aVLOCATION
p1426
aVLOCATION
p1427
aVLOCATION
p1428
ag58
asg59
(lp1429
g61
ag284
ag63
ag61
ag62
ag63
ag193
ag439
ag65
ag61
ag62
ag63
ag318
ag318
ag318
ag70
asg72
VThat is about a million in six months--the population of New York City.
p1430
sba(i__main__
Sentence
p1431
(dp1432
g17
I32
sg18
(lp1433
S'Well'
p1434
aS','
p1435
aS'the'
p1436
aS'Erie'
p1437
aS'kills'
p1438
aS'from'
p1439
aS'13'
p1440
aS'to'
p1441
aS'23'
p1442
aS'persons'
p1443
aS'of'
p1444
aS'ITS'
p1445
aS'million'
p1446
aS'in'
p1447
aS'six'
p1448
aS'months'
p1449
aS';'
p1450
aS'and'
p1451
aS'in'
p1452
aS'the'
p1453
aS'same'
p1454
aS'time'
p1455
aS'13,000'
p1456
aS'of'
p1457
aS'New'
p1458
aS'York'
p1459
aS"'s"
p1460
aS'million'
p1461
aS'die'
p1462
aS'in'
p1463
aS'their'
p1464
aS'beds'
p1465
aS'!'
p1466
asg37
(lp1467
VWell
p1468
ag52
aVthe
p1469
aVErie
p1470
aVkill
p1471
aVfrom
p1472
aV13
p1473
aVto
p1474
aV23
p1475
aVperson
p1476
aVof
p1477
aVITS
p1478
aVmillion
p1479
aVin
p1480
aVsix
p1481
aVmonth
p1482
ag137
aVand
p1483
aVin
p1484
aVthe
p1485
aVsame
p1486
aVtime
p1487
aV13,000
p1488
aVof
p1489
aVNew
p1490
aVYork
p1491
aV's
p1492
aVmillion
p1493
aVdie
p1494
aVin
p1495
aVtheir
p1496
aVbed
p1497
aV!
p1498
asg56
(lp1499
g58
ag58
ag58
aVPERSON
p1500
ag58
ag58
ag58
ag58
ag58
ag58
ag58
ag58
ag58
ag58
ag58
ag58
ag58
ag58
ag58
ag58
ag58
ag58
ag58
ag58
aVLOCATION
p1501
aVLOCATION
p1502
ag58
ag58
ag58
ag58
ag58
ag58
ag58
asg59
(lp1503
g318
ag68
ag61
ag318
ag284
ag63
ag193
ag151
ag193
ag439
ag63
ag318
ag193
ag63
ag193
ag439
ag65
ag283
ag63
ag61
ag192
ag62
ag193
ag63
ag318
ag318
aS'POS'
p1504
ag62
ag67
ag63
ag854
ag439
ag70
asg72
VWell, the Erie kills from 13 to 23 persons of ITS million in six months; and in the same time 13,000 of New York's million die in their beds!
p1505
sba(i__main__
Sentence
p1506
(dp1507
g17
I33
sg18
(lp1508
S'My'
p1509
aS'flesh'
p1510
aS'crept'
p1511
aS','
p1512
aS'my'
p1513
aS'hair'
p1514
aS'stood'
p1515
aS'on'
p1516
aS'end'
p1517
aS'.'
p1518
asg37
(lp1519
VMy
p1520
aVflesh
p1521
aVcrept
p1522
ag52
aVmy
p1523
aVhair
p1524
aVstood
p1525
aVon
p1526
aVend
p1527
ag104
asg56
(lp1528
g58
ag58
ag58
ag58
ag58
ag58
ag58
ag58
ag58
ag58
asg59
(lp1529
g854
ag62
ag62
ag68
ag854
ag62
ag62
ag63
ag62
ag70
asg72
VMy flesh crept, my hair stood on end.
p1530
sba(i__main__
Sentence
p1531
(dp1532
g17
I34
sg18
(lp1533
S'``'
p1534
aS'This'
p1535
aS'is'
p1536
aS'appalling'
p1537
aS'!'
p1538
aS"''"
p1539
asg37
(lp1540
V``
p1541
aVThis
p1542
ag256
aVappal
p1543
ag1498
aV''
p1544
asg56
(lp1545
g58
ag58
ag58
ag58
ag58
ag58
asg59
(lp1546
g66
ag61
ag284
ag108
ag70
ag71
asg72
V"This is appalling!"
p1547
sba(i__main__
Sentence
p1548
(dp1549
g17
I35
sg18
(lp1550
S'I'
p1551
aS'said'
p1552
aS'.'
p1553
asg37
(lp1554
g96
ag44
ag104
asg56
(lp1555
g58
ag58
ag58
asg59
(lp1556
g107
ag64
ag70
asg72
VI said.
p1557
sba(i__main__
Sentence
p1558
(dp1559
g17
I36
sg18
(lp1560
S'``'
p1561
aS'The'
p1562
aS'danger'
p1563
aS'is'
p1564
aS"n't"
p1565
aS'in'
p1566
aS'traveling'
p1567
aS'by'
p1568
aS'rail'
p1569
aS','
p1570
aS'but'
p1571
aS'in'
p1572
aS'trusting'
p1573
aS'to'
p1574
aS'those'
p1575
aS'deadly'
p1576
aS'beds'
p1577
aS'.'
p1578
asg37
(lp1579
V``
p1580
aVThe
p1581
aVdanger
p1582
ag256
aVn't
p1583
aVin
p1584
aVtraveling
p1585
aVby
p1586
aVrail
p1587
ag52
aVbut
p1588
aVin
p1589
aVtrusting
p1590
aVto
p1591
aVthose
p1592
aVdeadly
p1593
aVbed
p1594
ag104
asg56
(lp1595
g58
ag58
ag58
ag58
ag58
ag58
ag58
ag58
ag58
ag58
ag58
ag58
ag58
ag58
ag58
ag58
ag58
ag58
asg59
(lp1596
g66
ag61
ag62
ag284
ag69
ag63
ag62
ag63
ag62
ag68
ag283
ag63
ag62
ag151
ag61
ag69
ag284
ag70
asg72
V"The danger isn't in traveling by rail, but in trusting to those deadly beds.
p1597
sba(i__main__
Sentence
p1598
(dp1599
g17
I37
sg18
(lp1600
S'I'
p1601
aS'will'
p1602
aS'never'
p1603
aS'sleep'
p1604
aS'in'
p1605
aS'a'
p1606
aS'bed'
p1607
aS'again'
p1608
aS'.'
p1609
aS"''"
p1610
asg37
(lp1611
g96
aVwill
p1612
aVnever
p1613
aVsleep
p1614
aVin
p1615
ag102
aVbed
p1616
aVagain
p1617
ag104
aV''
p1618
asg56
(lp1619
g58
ag58
ag58
ag58
ag58
ag58
ag58
ag58
ag58
ag58
asg59
(lp1620
g107
ag506
ag69
ag67
ag63
ag61
ag210
ag69
ag70
ag71
asg72
VI will never sleep in a bed again."
p1621
sba(i__main__
Sentence
p1622
(dp1623
g17
I38
sg18
(lp1624
S'I'
p1625
aS'had'
p1626
aS'figured'
p1627
aS'on'
p1628
aS'considerably'
p1629
aS'less'
p1630
aS'than'
p1631
aS'one-half'
p1632
aS'the'
p1633
aS'length'
p1634
aS'of'
p1635
aS'the'
p1636
aS'Erie'
p1637
aS'road'
p1638
aS'.'
p1639
asg37
(lp1640
g96
ag332
aVfigure
p1641
aVon
p1642
aVconsiderably
p1643
aVless
p1644
aVthan
p1645
aVone-half
p1646
aVthe
p1647
aVlength
p1648
aVof
p1649
aVthe
p1650
aVErie
p1651
aVroad
p1652
ag104
asg56
(lp1653
g58
ag58
ag58
ag58
ag58
ag58
ag58
ag58
ag58
ag58
ag58
ag58
aVLOCATION
p1654
ag58
ag58
asg59
(lp1655
g107
ag64
ag210
ag63
ag69
ag1233
ag63
ag192
ag61
ag62
ag63
ag61
ag318
ag62
ag70
asg72
VI had figured on considerably less than one-half the length of the Erie road.
p1656
sba(i__main__
Sentence
p1657
(dp1658
g17
I39
sg18
(lp1659
S'It'
p1660
aS'was'
p1661
aS'plain'
p1662
aS'that'
p1663
aS'the'
p1664
aS'entire'
p1665
aS'road'
p1666
aS'must'
p1667
aS'transport'
p1668
aS'at'
p1669
aS'least'
p1670
aS'eleven'
p1671
aS'or'
p1672
aS'twelve'
p1673
aS'thousand'
p1674
aS'people'
p1675
aS'every'
p1676
aS'day'
p1677
aS'.'
p1678
asg37
(lp1679
VIt
p1680
ag773
aVplain
p1681
aVthat
p1682
aVthe
p1683
aVentire
p1684
aVroad
p1685
aVmust
p1686
aVtransport
p1687
aVat
p1688
aVleast
p1689
aVeleven
p1690
aVor
p1691
aVtwelve
p1692
aVthousand
p1693
aVpeople
p1694
aVevery
p1695
aVday
p1696
ag104
asg56
(lp1697
g58
ag58
ag58
ag58
ag58
ag58
ag58
ag58
ag58
ag58
ag58
ag58
ag58
ag58
ag58
ag58
ag58
ag58
ag58
asg59
(lp1698
g107
ag64
ag69
ag63
ag61
ag192
ag62
ag506
ag67
ag63
aS'JJS'
p1699
ag69
ag283
ag67
ag62
ag439
ag61
ag62
ag70
asg72
VIt was plain that the entire road must transport at least eleven or twelve thousand people every day.
p1700
sba(i__main__
Sentence
p1701
(dp1702
g17
I40
sg18
(lp1703
S'There'
p1704
aS'are'
p1705
aS'many'
p1706
aS'short'
p1707
aS'roads'
p1708
aS'running'
p1709
aS'out'
p1710
aS'of'
p1711
aS'Boston'
p1712
aS'that'
p1713
aS'do'
p1714
aS'fully'
p1715
aS'half'
p1716
aS'as'
p1717
aS'much'
p1718
aS';'
p1719
aS'a'
p1720
aS'great'
p1721
aS'many'
p1722
aS'such'
p1723
aS'roads'
p1724
aS'.'
p1725
asg37
(lp1726
VThere
p1727
ag263
aVmany
p1728
aVshort
p1729
aVroad
p1730
aVrun
p1731
aVout
p1732
aVof
p1733
aVBoston
p1734
aVthat
p1735
aVdo
p1736
aVfully
p1737
aVhalf
p1738
ag102
aVmuch
p1739
ag137
ag102
aVgreat
p1740
aVmany
p1741
aVsuch
p1742
aVroad
p1743
ag104
asg56
(lp1744
g58
ag58
ag58
ag58
ag58
ag58
ag58
ag58
aVLOCATION
p1745
ag58
ag58
ag58
ag58
ag58
ag58
ag58
ag58
ag58
ag58
ag58
ag58
ag58
asg59
(lp1746
g505
ag150
ag192
ag192
ag439
ag108
ag440
ag63
ag318
ag63
ag67
ag69
ag67
ag63
ag192
ag65
ag61
ag192
ag192
ag192
ag439
ag70
asg72
VThere are many short roads running out of Boston that do fully half as much; a great many such roads.
p1747
sba(i__main__
Sentence
p1748
(dp1749
g17
I41
sg18
(lp1750
S'There'
p1751
aS'are'
p1752
aS'many'
p1753
aS'roads'
p1754
aS'scattered'
p1755
aS'about'
p1756
aS'the'
p1757
aS'Union'
p1758
aS'that'
p1759
aS'do'
p1760
aS'a'
p1761
aS'prodigious'
p1762
aS'passenger'
p1763
aS'business'
p1764
aS'.'
p1765
asg37
(lp1766
VThere
p1767
ag263
aVmany
p1768
aVroad
p1769
aVscatter
p1770
aVabout
p1771
aVthe
p1772
aVUnion
p1773
aVthat
p1774
aVdo
p1775
ag102
aVprodigious
p1776
aVpassenger
p1777
aVbusiness
p1778
ag104
asg56
(lp1779
g58
ag58
ag58
ag58
ag58
ag58
ag58
ag58
ag58
ag58
ag58
ag58
ag58
ag58
ag58
asg59
(lp1780
g505
ag150
ag192
ag439
ag210
ag63
ag61
ag318
ag63
ag67
ag61
ag192
ag62
ag62
ag70
asg72
VThere are many roads scattered about the Union that do a prodigious passenger business.
p1781
sba(i__main__
Sentence
p1782
(dp1783
g17
I42
sg18
(lp1784
S'Therefore'
p1785
aS'it'
p1786
aS'was'
p1787
aS'fair'
p1788
aS'to'
p1789
aS'presume'
p1790
aS'that'
p1791
aS'an'
p1792
aS'average'
p1793
aS'of'
p1794
aS'2,500'
p1795
aS'passengers'
p1796
aS'a'
p1797
aS'day'
p1798
aS'for'
p1799
aS'each'
p1800
aS'road'
p1801
aS'in'
p1802
aS'the'
p1803
aS'country'
p1804
aS'would'
p1805
aS'be'
p1806
aS'almost'
p1807
aS'correct'
p1808
aS'.'
p1809
asg37
(lp1810
VTherefore
p1811
aVit
p1812
ag773
aVfair
p1813
aVto
p1814
aVpresume
p1815
aVthat
p1816
aVan
p1817
aVaverage
p1818
aVof
p1819
aV2,500
p1820
aVpassenger
p1821
ag102
aVday
p1822
aVfor
p1823
aVeach
p1824
aVroad
p1825
aVin
p1826
aVthe
p1827
aVcountry
p1828
aVwould
p1829
aVbe
p1830
aValmost
p1831
aVcorrect
p1832
ag104
asg56
(lp1833
g58
ag58
ag58
ag58
ag58
ag58
ag58
ag58
ag58
ag58
ag58
ag58
ag58
ag58
ag58
ag58
ag58
ag58
ag58
ag58
ag58
ag58
ag58
ag58
ag58
asg59
(lp1834
g318
ag107
ag64
ag192
ag151
ag67
ag63
ag61
ag192
ag63
ag193
ag439
ag61
ag62
ag63
ag61
ag62
ag63
ag61
ag62
ag506
ag67
ag69
ag67
ag70
asg72
VTherefore it was fair to presume that an average of 2,500 passengers a day for each road in the country would be almost correct.
p1835
sba(i__main__
Sentence
p1836
(dp1837
g17
I43
sg18
(lp1838
S'There'
p1839
aS'are'
p1840
aS'846'
p1841
aS'railway'
p1842
aS'lines'
p1843
aS'in'
p1844
aS'our'
p1845
aS'country'
p1846
aS','
p1847
aS'and'
p1848
aS'846'
p1849
aS'times'
p1850
aS'2,500'
p1851
aS'are'
p1852
aS'2,115,000'
p1853
aS'.'
p1854
asg37
(lp1855
VThere
p1856
ag263
aV846
p1857
aVrailway
p1858
aVline
p1859
aVin
p1860
aVour
p1861
aVcountry
p1862
ag52
aVand
p1863
aV846
p1864
aVtime
p1865
aV2,500
p1866
ag263
aV2,115,000
p1867
ag104
asg56
(lp1868
g58
ag58
ag58
ag58
ag58
ag58
ag58
ag58
ag58
ag58
ag58
ag58
ag58
ag58
ag58
ag58
asg59
(lp1869
g505
ag150
ag193
ag62
ag439
ag63
ag854
ag62
ag68
ag283
ag193
ag439
ag193
ag150
ag193
ag70
asg72
VThere are 846 railway lines in our country, and 846 times 2,500 are 2,115,000.
p1870
sba(i__main__
Sentence
p1871
(dp1872
g17
I44
sg18
(lp1873
S'So'
p1874
aS'the'
p1875
aS'railways'
p1876
aS'of'
p1877
aS'America'
p1878
aS'move'
p1879
aS'more'
p1880
aS'than'
p1881
aS'two'
p1882
aS'millions'
p1883
aS'of'
p1884
aS'people'
p1885
aS'every'
p1886
aS'day'
p1887
aS';'
p1888
aS'six'
p1889
aS'hundred'
p1890
aS'and'
p1891
aS'fifty'
p1892
aS'millions'
p1893
aS'of'
p1894
aS'people'
p1895
aS'a'
p1896
aS'year'
p1897
aS','
p1898
aS'without'
p1899
aS'counting'
p1900
aS'the'
p1901
aS'Sundays'
p1902
aS'.'
p1903
asg37
(lp1904
VSo
p1905
aVthe
p1906
aVrailway
p1907
aVof
p1908
aVAmerica
p1909
aVmove
p1910
aVmore
p1911
aVthan
p1912
aVtwo
p1913
aVmillion
p1914
aVof
p1915
aVpeople
p1916
aVevery
p1917
aVday
p1918
ag137
aVsix
p1919
aVhundred
p1920
aVand
p1921
aVfifty
p1922
aVmillion
p1923
aVof
p1924
aVpeople
p1925
ag102
aVyear
p1926
ag52
aVwithout
p1927
aVcounting
p1928
aVthe
p1929
aVSundays
p1930
ag104
asg56
(lp1931
g58
ag58
ag58
ag58
aVLOCATION
p1932
ag58
ag58
ag58
ag58
ag58
ag58
ag58
ag58
ag58
ag58
ag58
ag58
ag58
ag58
ag58
ag58
ag58
ag58
ag58
ag58
ag58
ag58
ag58
ag58
ag58
asg59
(lp1933
g63
ag61
ag439
ag63
ag318
ag62
ag1233
ag63
ag193
ag439
ag63
ag439
ag61
ag62
ag65
ag193
ag193
ag283
ag192
ag439
ag63
ag439
ag61
ag62
ag68
ag63
ag62
ag61
ag318
ag70
asg72
VSo the railways of America move more than two millions of people every day; six hundred and fifty millions of people a year, without counting the Sundays.
p1934
sba(i__main__
Sentence
p1935
(dp1936
g17
I45
sg18
(lp1937
S'They'
p1938
aS'do'
p1939
aS'that'
p1940
aS','
p1941
aS'too'
p1942
aS'--'
p1943
aS'there'
p1944
aS'is'
p1945
aS'no'
p1946
aS'question'
p1947
aS'about'
p1948
aS'it'
p1949
aS';'
p1950
aS'though'
p1951
aS'where'
p1952
aS'they'
p1953
aS'get'
p1954
aS'the'
p1955
aS'raw'
p1956
aS'material'
p1957
aS'is'
p1958
aS'clear'
p1959
aS'beyond'
p1960
aS'the'
p1961
aS'jurisdiction'
p1962
aS'of'
p1963
aS'my'
p1964
aS'arithmetic'
p1965
aS';'
p1966
aS'for'
p1967
aS'I'
p1968
aS'have'
p1969
aS'hunted'
p1970
aS'the'
p1971
aS'census'
p1972
aS'through'
p1973
aS'and'
p1974
aS'through'
p1975
aS','
p1976
aS'and'
p1977
aS'I'
p1978
aS'find'
p1979
aS'that'
p1980
aS'there'
p1981
aS'are'
p1982
aS'not'
p1983
aS'that'
p1984
aS'many'
p1985
aS'people'
p1986
aS'in'
p1987
aS'the'
p1988
aS'United'
p1989
aS'States'
p1990
aS','
p1991
aS'by'
p1992
aS'a'
p1993
aS'matter'
p1994
aS'of'
p1995
aS'six'
p1996
aS'hundred'
p1997
aS'and'
p1998
aS'ten'
p1999
aS'millions'
p2000
aS'at'
p2001
aS'the'
p2002
aS'very'
p2003
aS'least'
p2004
aS'.'
p2005
asg37
(lp2006
VThey
p2007
aVdo
p2008
aVthat
p2009
ag52
aVtoo
p2010
aV--
p2011
aVthere
p2012
ag256
aVno
p2013
aVquestion
p2014
aVabout
p2015
aVit
p2016
ag137
aVthough
p2017
aVwhere
p2018
aVthey
p2019
aVget
p2020
aVthe
p2021
aVraw
p2022
aVmaterial
p2023
ag256
aVclear
p2024
aVbeyond
p2025
aVthe
p2026
aVjurisdiction
p2027
aVof
p2028
aVmy
p2029
aVarithmetic
p2030
ag137
aVfor
p2031
ag96
aVhave
p2032
aVhunt
p2033
aVthe
p2034
aVcensus
p2035
aVthrough
p2036
aVand
p2037
aVthrough
p2038
ag52
aVand
p2039
ag96
aVfind
p2040
aVthat
p2041
aVthere
p2042
ag263
aVnot
p2043
aVthat
p2044
aVmany
p2045
aVpeople
p2046
aVin
p2047
aVthe
p2048
aVUnited
p2049
aVStates
p2050
ag52
aVby
p2051
ag102
aVmatter
p2052
aVof
p2053
aVsix
p2054
aVhundred
p2055
aVand
p2056
aVten
p2057
aVmillion
p2058
aVat
p2059
aVthe
p2060
aVvery
p2061
aVleast
p2062
ag104
asg56
(lp2063
g58
ag58
ag58
ag58
ag58
ag58
ag58
ag58
ag58
ag58
ag58
ag58
ag58
ag58
ag58
ag58
ag58
ag58
ag58
ag58
ag58
ag58
ag58
ag58
ag58
ag58
ag58
ag58
ag58
ag58
ag58
ag58
ag58
ag58
ag58
ag58
ag58
ag58
ag58
ag58
ag58
ag58
ag58
ag58
ag58
ag58
ag58
ag58
ag58
ag58
ag58
aVLOCATION
p2064
aVLOCATION
p2065
ag58
ag58
ag58
ag58
ag58
ag58
ag58
ag58
ag58
ag58
ag58
ag58
ag58
ag58
ag58
asg59
(lp2066
g107
ag150
ag63
ag68
ag69
ag65
ag505
ag284
ag61
ag62
ag63
ag107
ag65
ag63
aS'WRB'
p2067
ag107
ag150
ag61
ag62
ag62
ag284
ag192
ag62
ag61
ag62
ag63
ag854
ag192
ag65
ag63
ag107
ag150
ag210
ag61
ag62
ag63
ag283
ag63
ag68
ag283
ag107
ag150
ag63
ag505
ag150
ag69
ag63
ag192
ag439
ag63
ag61
ag318
aS'NNPS'
p2068
ag68
ag63
ag61
ag62
ag63
ag193
ag193
ag283
ag193
ag439
ag63
ag61
ag69
ag1699
ag70
asg72
VThey do that, too--there is no question about it; though where they get the raw material is clear beyond the jurisdiction of my arithmetic; for I have hunted the census through and through, and I find that there are not that many people in the United States, by a matter of six hundred and ten millions at the very least.
p2069
sba(i__main__
Sentence
p2070
(dp2071
g17
I46
sg18
(lp2072
S'They'
p2073
aS'must'
p2074
aS'use'
p2075
aS'some'
p2076
aS'of'
p2077
aS'the'
p2078
aS'same'
p2079
aS'people'
p2080
aS'over'
p2081
aS'again'
p2082
aS','
p2083
aS'likely'
p2084
aS'.'
p2085
asg37
(lp2086
VThey
p2087
aVmust
p2088
aVuse
p2089
aVsome
p2090
aVof
p2091
aVthe
p2092
aVsame
p2093
aVpeople
p2094
aVover
p2095
aVagain
p2096
ag52
aVlikely
p2097
ag104
asg56
(lp2098
g58
ag58
ag58
ag58
ag58
ag58
ag58
ag58
ag58
ag58
ag58
ag58
ag58
asg59
(lp2099
g107
ag506
ag67
ag61
ag63
ag61
ag192
ag439
ag63
ag69
ag68
ag192
ag70
asg72
VThey must use some of the same people over again, likely.
p2100
sba(i__main__
Sentence
p2101
(dp2102
g17
I47
sg18
(lp2103
S'San'
p2104
aS'Francisco'
p2105
aS'is'
p2106
aS'one-eighth'
p2107
aS'as'
p2108
aS'populous'
p2109
aS'as'
p2110
aS'New'
p2111
aS'York'
p2112
aS';'
p2113
aS'there'
p2114
aS'are'
p2115
aS'60'
p2116
aS'deaths'
p2117
aS'a'
p2118
aS'week'
p2119
aS'in'
p2120
aS'the'
p2121
aS'former'
p2122
aS'and'
p2123
aS'500'
p2124
aS'a'
p2125
aS'week'
p2126
aS'in'
p2127
aS'the'
p2128
aS'latter'
p2129
aS'--'
p2130
aS'if'
p2131
aS'they'
p2132
aS'have'
p2133
aS'luck'
p2134
aS'.'
p2135
asg37
(lp2136
VSan
p2137
aVFrancisco
p2138
ag256
aVone-eighth
p2139
ag102
aVpopulous
p2140
ag102
aVNew
p2141
aVYork
p2142
ag137
aVthere
p2143
ag263
aV60
p2144
aVdeath
p2145
ag102
aVweek
p2146
aVin
p2147
aVthe
p2148
aVformer
p2149
aVand
p2150
aV500
p2151
ag102
aVweek
p2152
aVin
p2153
aVthe
p2154
aVlatter
p2155
aV--
p2156
aVif
p2157
aVthey
p2158
aVhave
p2159
aVluck
p2160
ag104
asg56
(lp2161
VLOCATION
p2162
aVLOCATION
p2163
ag58
ag58
ag58
ag58
ag58
aVLOCATION
p2164
aVLOCATION
p2165
ag58
ag58
ag58
ag58
ag58
ag58
ag58
ag58
ag58
ag58
ag58
ag58
ag58
ag58
ag58
ag58
ag58
ag58
ag58
ag58
ag58
ag58
ag58
asg59
(lp2166
g318
ag318
ag284
ag192
ag63
ag192
ag63
ag318
ag318
ag65
ag505
ag150
ag193
ag439
ag61
ag62
ag63
ag61
ag192
ag283
ag193
ag61
ag62
ag63
ag61
ag62
ag65
ag63
ag107
ag150
ag62
ag70
asg72
VSan Francisco is one-eighth as populous as New York; there are 60 deaths a week in the former and 500 a week in the latter--if they have luck.
p2167
sba(i__main__
Sentence
p2168
(dp2169
g17
I48
sg18
(lp2170
S'That'
p2171
aS'is'
p2172
aS'3,120'
p2173
aS'deaths'
p2174
aS'a'
p2175
aS'year'
p2176
aS'in'
p2177
aS'San'
p2178
aS'Francisco'
p2179
aS','
p2180
aS'and'
p2181
aS'eight'
p2182
aS'times'
p2183
aS'as'
p2184
aS'many'
p2185
aS'in'
p2186
aS'New'
p2187
aS'York'
p2188
aS'--'
p2189
aS'say'
p2190
aS'about'
p2191
aS'25,000'
p2192
aS'or'
p2193
aS'26,000'
p2194
aS'.'
p2195
asg37
(lp2196
VThat
p2197
ag256
aV3,120
p2198
aVdeath
p2199
ag102
aVyear
p2200
aVin
p2201
aVSan
p2202
aVFrancisco
p2203
ag52
aVand
p2204
aVeight
p2205
aVtime
p2206
aVas
p2207
aVmany
p2208
aVin
p2209
aVNew
p2210
aVYork
p2211
aV--
p2212
aVsay
p2213
aVabout
p2214
aV25,000
p2215
aVor
p2216
aV26,000
p2217
ag104
asg56
(lp2218
g58
ag58
ag58
ag58
ag58
ag58
ag58
aVLOCATION
p2219
aVLOCATION
p2220
ag58
ag58
ag58
ag58
ag58
ag58
ag58
aVLOCATION
p2221
aVLOCATION
p2222
ag58
ag58
ag58
ag58
ag58
ag58
ag58
asg59
(lp2223
g61
ag284
ag193
ag439
ag61
ag62
ag63
ag318
ag318
ag68
ag283
ag193
ag439
ag69
ag192
ag63
ag318
ag318
ag65
ag150
ag63
ag193
ag283
ag193
ag70
asg72
VThat is 3,120 deaths a year in San Francisco, and eight times as many in New York--say about 25,000 or 26,000.
p2224
sba(i__main__
Sentence
p2225
(dp2226
g17
I49
sg18
(lp2227
S'The'
p2228
aS'health'
p2229
aS'of'
p2230
aS'the'
p2231
aS'two'
p2232
aS'places'
p2233
aS'is'
p2234
aS'the'
p2235
aS'same'
p2236
aS'.'
p2237
asg37
(lp2238
VThe
p2239
aVhealth
p2240
aVof
p2241
aVthe
p2242
aVtwo
p2243
aVplace
p2244
ag256
aVthe
p2245
aVsame
p2246
ag104
asg56
(lp2247
g58
ag58
ag58
ag58
ag58
ag58
ag58
ag58
ag58
ag58
asg59
(lp2248
g61
ag62
ag63
ag61
ag193
ag439
ag284
ag61
ag192
ag70
asg72
VThe health of the two places is the same.
p2249
sba(i__main__
Sentence
p2250
(dp2251
g17
I50
sg18
(lp2252
S'So'
p2253
aS'we'
p2254
aS'will'
p2255
aS'let'
p2256
aS'it'
p2257
aS'stand'
p2258
aS'as'
p2259
aS'a'
p2260
aS'fair'
p2261
aS'presumption'
p2262
aS'that'
p2263
aS'this'
p2264
aS'will'
p2265
aS'hold'
p2266
aS'good'
p2267
aS'all'
p2268
aS'over'
p2269
aS'the'
p2270
aS'country'
p2271
aS','
p2272
aS'and'
p2273
aS'that'
p2274
aS'consequently'
p2275
aS'25,000'
p2276
aS'out'
p2277
aS'of'
p2278
aS'every'
p2279
aS'million'
p2280
aS'of'
p2281
aS'people'
p2282
aS'we'
p2283
aS'have'
p2284
aS'must'
p2285
aS'die'
p2286
aS'every'
p2287
aS'year'
p2288
aS'.'
p2289
asg37
(lp2290
VSo
p2291
aVwe
p2292
aVwill
p2293
aVlet
p2294
aVit
p2295
aVstand
p2296
ag102
ag102
aVfair
p2297
aVpresumption
p2298
aVthat
p2299
aVthis
p2300
aVwill
p2301
aVhold
p2302
aVgood
p2303
aVall
p2304
aVover
p2305
aVthe
p2306
aVcountry
p2307
ag52
aVand
p2308
aVthat
p2309
aVconsequently
p2310
aV25,000
p2311
aVout
p2312
aVof
p2313
aVevery
p2314
aVmillion
p2315
aVof
p2316
aVpeople
p2317
aVwe
p2318
aVhave
p2319
aVmust
p2320
aVdie
p2321
aVevery
p2322
aVyear
p2323
ag104
asg56
(lp2324
g58
ag58
ag58
ag58
ag58
ag58
ag58
ag58
ag58
ag58
ag58
ag58
ag58
ag58
ag58
ag58
ag58
ag58
ag58
ag58
ag58
ag58
ag58
ag58
ag58
ag58
ag58
ag58
ag58
ag58
ag58
ag58
ag58
ag58
ag58
ag58
ag58
asg59
(lp2325
g63
ag107
ag506
ag67
ag107
ag150
ag63
ag61
ag62
ag62
ag722
ag61
ag506
ag67
ag192
ag62
ag63
ag61
ag62
ag68
ag283
ag63
ag69
ag193
ag63
ag63
ag61
ag62
ag63
ag439
ag107
ag150
ag506
ag67
ag61
ag62
ag70
asg72
VSo we will let it stand as a fair presumption that this will hold good all over the country, and that consequently 25,000 out of every million of people we have must die every year.
p2326
sba(i__main__
Sentence
p2327
(dp2328
g17
I51
sg18
(lp2329
S'That'
p2330
aS'amounts'
p2331
aS'to'
p2332
aS'one-fortieth'
p2333
aS'of'
p2334
aS'our'
p2335
aS'total'
p2336
aS'population'
p2337
aS'.'
p2338
asg37
(lp2339
VThat
p2340
aVamount
p2341
aVto
p2342
aVone-fortieth
p2343
aVof
p2344
aVour
p2345
aVtotal
p2346
aVpopulation
p2347
ag104
asg56
(lp2348
g58
ag58
ag58
ag58
ag58
ag58
ag58
ag58
ag58
asg59
(lp2349
g61
ag284
ag151
ag192
ag63
ag854
ag192
ag62
ag70
asg72
VThat amounts to one-fortieth of our total population.
p2350
sba(i__main__
Sentence
p2351
(dp2352
g17
I52
sg18
(lp2353
S'One'
p2354
aS'million'
p2355
aS'of'
p2356
aS'us'
p2357
aS','
p2358
aS'then'
p2359
aS','
p2360
aS'die'
p2361
aS'annually'
p2362
aS'.'
p2363
asg37
(lp2364
VOne
p2365
aVmillion
p2366
aVof
p2367
aVu
p2368
ag52
aVthen
p2369
ag52
aVdie
p2370
aVannually
p2371
ag104
asg56
(lp2372
g58
ag58
ag58
ag58
ag58
ag58
ag58
ag58
ag58
ag58
asg59
(lp2373
g193
ag193
ag63
ag107
ag68
ag69
ag68
ag67
ag69
ag70
asg72
VOne million of us, then, die annually.
p2374
sba(i__main__
Sentence
p2375
(dp2376
g17
I53
sg18
(lp2377
S'Out'
p2378
aS'of'
p2379
aS'this'
p2380
aS'million'
p2381
aS'ten'
p2382
aS'or'
p2383
aS'twelve'
p2384
aS'thousand'
p2385
aS'are'
p2386
aS'stabbed'
p2387
aS','
p2388
aS'shot'
p2389
aS','
p2390
aS'drowned'
p2391
aS','
p2392
aS'hanged'
p2393
aS','
p2394
aS'poisoned'
p2395
aS','
p2396
aS'or'
p2397
aS'meet'
p2398
aS'a'
p2399
aS'similarly'
p2400
aS'violent'
p2401
aS'death'
p2402
aS'in'
p2403
aS'some'
p2404
aS'other'
p2405
aS'popular'
p2406
aS'way'
p2407
aS','
p2408
aS'such'
p2409
aS'as'
p2410
aS'perishing'
p2411
aS'by'
p2412
aS'kerosene-lamp'
p2413
aS'and'
p2414
aS'hoop-skirt'
p2415
aS'conflagrations'
p2416
aS','
p2417
aS'getting'
p2418
aS'buried'
p2419
aS'in'
p2420
aS'coal-mines'
p2421
aS','
p2422
aS'falling'
p2423
aS'off'
p2424
aS'house-tops'
p2425
aS','
p2426
aS'breaking'
p2427
aS'through'
p2428
aS'church'
p2429
aS','
p2430
aS'or'
p2431
aS'lecture-room'
p2432
aS'floors'
p2433
aS','
p2434
aS'taking'
p2435
aS'patent'
p2436
aS'medicines'
p2437
aS','
p2438
aS'or'
p2439
aS'committing'
p2440
aS'suicide'
p2441
aS'in'
p2442
aS'other'
p2443
aS'forms'
p2444
aS'.'
p2445
asg37
(lp2446
VOut
p2447
aVof
p2448
aVthis
p2449
aVmillion
p2450
aVten
p2451
aVor
p2452
aVtwelve
p2453
aVthousand
p2454
ag263
aVstab
p2455
ag52
aVshot
p2456
ag52
aVdrown
p2457
ag52
aVhang
p2458
ag52
aVpoison
p2459
ag52
aVor
p2460
aVmeet
p2461
ag102
aVsimilarly
p2462
aVviolent
p2463
aVdeath
p2464
aVin
p2465
aVsome
p2466
aVother
p2467
aVpopular
p2468
aVway
p2469
ag52
aVsuch
p2470
ag102
aVperishing
p2471
aVby
p2472
aVkerosene-lamp
p2473
aVand
p2474
aVhoop-skirt
p2475
aVconflagration
p2476
ag52
aVget
p2477
aVbury
p2478
aVin
p2479
aVcoal-mines
p2480
ag52
aVfall
p2481
aVoff
p2482
aVhouse-tops
p2483
ag52
aVbreak
p2484
aVthrough
p2485
aVchurch
p2486
ag52
aVor
p2487
aVlecture-room
p2488
aVfloor
p2489
ag52
aVtake
p2490
aVpatent
p2491
aVmedicine
p2492
ag52
aVor
p2493
aVcommit
p2494
aVsuicide
p2495
aVin
p2496
aVother
p2497
aVform
p2498
ag104
asg56
(lp2499
g58
ag58
ag58
ag58
ag58
ag58
ag58
ag58
ag58
ag58
ag58
ag58
ag58
ag58
ag58
ag58
ag58
ag58
ag58
ag58
ag58
ag58
ag58
ag58
ag58
ag58
ag58
ag58
ag58
ag58
ag58
ag58
ag58
ag58
ag58
ag58
ag58
ag58
ag58
ag58
ag58
ag58
ag58
ag58
ag58
ag58
ag58
ag58
ag58
ag58
ag58
ag58
ag58
ag58
ag58
ag58
ag58
ag58
ag58
ag58
ag58
ag58
ag58
ag58
ag58
ag58
ag58
ag58
asg59
(lp2500
g63
ag63
ag61
ag62
ag69
ag283
ag67
ag62
ag150
ag210
ag68
ag69
ag68
ag210
ag68
ag210
ag68
ag210
ag68
ag283
ag67
ag61
ag69
ag192
ag62
ag63
ag61
ag192
ag192
ag62
ag68
ag192
ag63
ag62
ag63
ag192
ag283
ag192
ag439
ag68
ag108
ag210
ag63
ag439
ag68
ag108
ag440
ag439
ag68
ag108
ag63
ag62
ag68
ag283
ag192
ag439
ag68
ag108
ag62
ag439
ag68
ag283
ag108
ag62
ag63
ag192
ag439
ag70
asg72
VOut of this million ten or twelve thousand are stabbed, shot, drowned, hanged, poisoned, or meet a similarly violent death in some other popular way, such as perishing by kerosene-lamp and hoop-skirt conflagrations, getting buried in coal-mines, falling off house-tops, breaking through church, or lecture-room floors, taking patent medicines, or committing suicide in other forms.
p2501
sba(i__main__
Sentence
p2502
(dp2503
g17
I54
sg18
(lp2504
S'The'
p2505
aS'Erie'
p2506
aS'railroad'
p2507
aS'kills'
p2508
aS'23'
p2509
aS'to'
p2510
aS'46'
p2511
aS';'
p2512
aS'the'
p2513
aS'other'
p2514
aS'845'
p2515
aS'railroads'
p2516
aS'kill'
p2517
aS'an'
p2518
aS'average'
p2519
aS'of'
p2520
aS'one-third'
p2521
aS'of'
p2522
aS'a'
p2523
aS'man'
p2524
aS'each'
p2525
aS';'
p2526
aS'and'
p2527
aS'the'
p2528
aS'rest'
p2529
aS'of'
p2530
aS'that'
p2531
aS'million'
p2532
aS','
p2533
aS'amounting'
p2534
aS'in'
p2535
aS'the'
p2536
aS'aggregate'
p2537
aS'to'
p2538
aS'that'
p2539
aS'appalling'
p2540
aS'figure'
p2541
aS'of'
p2542
aS'987,631'
p2543
aS'corpses'
p2544
aS','
p2545
aS'die'
p2546
aS'naturally'
p2547
aS'in'
p2548
aS'their'
p2549
aS'beds'
p2550
aS'!'
p2551
asg37
(lp2552
VThe
p2553
aVErie
p2554
aVrailroad
p2555
aVkill
p2556
aV23
p2557
aVto
p2558
aV46
p2559
ag137
aVthe
p2560
aVother
p2561
aV845
p2562
aVrailroad
p2563
aVkill
p2564
aVan
p2565
aVaverage
p2566
aVof
p2567
aVone-third
p2568
aVof
p2569
ag102
aVman
p2570
aVeach
p2571
ag137
aVand
p2572
aVthe
p2573
aVrest
p2574
aVof
p2575
aVthat
p2576
aVmillion
p2577
ag52
aVamounting
p2578
aVin
p2579
aVthe
p2580
aVaggregate
p2581
aVto
p2582
aVthat
p2583
aVappalling
p2584
aVfigure
p2585
aVof
p2586
aV987,631
p2587
aVcorps
p2588
ag52
aVdie
p2589
aVnaturally
p2590
aVin
p2591
aVtheir
p2592
aVbed
p2593
ag1498
asg56
(lp2594
g58
ag58
ag58
ag58
ag58
ag58
ag58
ag58
ag58
ag58
ag58
ag58
ag58
ag58
ag58
ag58
ag58
ag58
ag58
ag58
ag58
ag58
ag58
ag58
ag58
ag58
ag58
ag58
ag58
ag58
ag58
ag58
ag58
ag58
ag58
ag58
ag58
ag58
ag58
ag58
ag58
ag58
ag58
ag58
ag58
ag58
ag58
asg59
(lp2595
g61
ag318
ag62
ag439
ag193
ag151
ag193
ag65
ag61
ag192
ag193
ag439
ag150
ag61
ag192
ag63
ag62
ag63
ag61
ag62
ag61
ag65
ag283
ag61
ag62
ag63
ag61
ag193
ag68
ag192
ag63
ag61
ag62
ag151
ag61
ag62
ag62
ag63
ag193
ag439
ag68
ag67
ag69
ag63
ag854
ag439
ag70
asg72
VThe Erie railroad kills 23 to 46; the other 845 railroads kill an average of one-third of a man each; and the rest of that million, amounting in the aggregate to that appalling figure of 987,631 corpses, die naturally in their beds!
p2596
sba(i__main__
Sentence
p2597
(dp2598
g17
I55
sg18
(lp2599
S'You'
p2600
aS'will'
p2601
aS'excuse'
p2602
aS'me'
p2603
aS'from'
p2604
aS'taking'
p2605
aS'any'
p2606
aS'more'
p2607
aS'chances'
p2608
aS'on'
p2609
aS'those'
p2610
aS'beds'
p2611
aS'.'
p2612
asg37
(lp2613
VYou
p2614
aVwill
p2615
aVexcuse
p2616
aVme
p2617
aVfrom
p2618
aVtake
p2619
aVany
p2620
aVmore
p2621
aVchance
p2622
aVon
p2623
aVthose
p2624
aVbed
p2625
ag104
asg56
(lp2626
g58
ag58
ag58
ag58
ag58
ag58
ag58
ag58
ag58
ag58
ag58
ag58
ag58
asg59
(lp2627
g107
ag506
ag67
ag107
ag63
ag108
ag61
ag1233
ag439
ag63
ag61
ag439
ag70
asg72
VYou will excuse me from taking any more chances on those beds.
p2628
sba(i__main__
Sentence
p2629
(dp2630
g17
I56
sg18
(lp2631
S'The'
p2632
aS'railroads'
p2633
aS'are'
p2634
aS'good'
p2635
aS'enough'
p2636
aS'for'
p2637
aS'me'
p2638
aS'.'
p2639
asg37
(lp2640
VThe
p2641
aVrailroad
p2642
ag263
aVgood
p2643
aVenough
p2644
aVfor
p2645
aVme
p2646
ag104
asg56
(lp2647
g58
ag58
ag58
ag58
ag58
ag58
ag58
ag58
asg59
(lp2648
g61
ag439
ag150
ag192
ag192
ag63
ag107
ag70
asg72
VThe railroads are good enough for me.
p2649
sba(i__main__
Sentence
p2650
(dp2651
g17
I57
sg18
(lp2652
S'And'
p2653
aS'my'
p2654
aS'advice'
p2655
aS'to'
p2656
aS'all'
p2657
aS'people'
p2658
aS'is'
p2659
aS','
p2660
aS'Do'
p2661
aS"n't"
p2662
aS'stay'
p2663
aS'at'
p2664
aS'home'
p2665
aS'any'
p2666
aS'more'
p2667
aS'than'
p2668
aS'you'
p2669
aS'can'
p2670
aS'help'
p2671
aS';'
p2672
aS'but'
p2673
aS'when'
p2674
aS'you'
p2675
aS'have'
p2676
aS'GOT'
p2677
aS'to'
p2678
aS'stay'
p2679
aS'at'
p2680
aS'home'
p2681
aS'a'
p2682
aS'while'
p2683
aS','
p2684
aS'buy'
p2685
aS'a'
p2686
aS'package'
p2687
aS'of'
p2688
aS'those'
p2689
aS'insurance'
p2690
aS'tickets'
p2691
aS'and'
p2692
aS'sit'
p2693
aS'up'
p2694
aS'nights'
p2695
aS'.'
p2696
asg37
(lp2697
VAnd
p2698
aVmy
p2699
aVadvice
p2700
aVto
p2701
aVall
p2702
aVpeople
p2703
ag256
ag52
aVDo
p2704
aVn't
p2705
aVstay
p2706
aVat
p2707
aVhome
p2708
aVany
p2709
aVmore
p2710
aVthan
p2711
aVyou
p2712
aVcan
p2713
aVhelp
p2714
ag137
aVbut
p2715
aVwhen
p2716
aVyou
p2717
aVhave
p2718
aVGOT
p2719
aVto
p2720
aVstay
p2721
aVat
p2722
aVhome
p2723
ag102
aVwhile
p2724
ag52
aVbuy
p2725
ag102
aVpackage
p2726
aVof
p2727
aVthose
p2728
aVinsurance
p2729
aVticket
p2730
aVand
p2731
aVsit
p2732
aVup
p2733
aVnight
p2734
ag104
asg56
(lp2735
g58
ag58
ag58
ag58
ag58
ag58
ag58
ag58
ag58
ag58
ag58
ag58
ag58
ag58
ag58
ag58
ag58
ag58
ag58
ag58
ag58
ag58
ag58
ag58
ag58
ag58
ag58
ag58
ag58
ag58
ag58
ag58
ag58
ag58
ag58
ag58
ag58
ag58
ag58
ag58
ag58
ag58
ag58
ag58
asg59
(lp2736
g283
ag854
ag62
ag151
ag61
ag439
ag284
ag68
ag318
ag69
ag67
ag63
ag62
ag61
ag1142
ag63
ag107
ag506
ag67
ag65
ag283
ag2067
ag107
ag150
ag210
ag151
ag67
ag63
ag62
ag61
ag62
ag68
ag62
ag61
ag62
ag63
ag61
ag62
ag439
ag283
ag62
ag440
ag439
ag70
asg72
VAnd my advice to all people is, Don't stay at home any more than you can help; but when you have GOT to stay at home a while, buy a package of those insurance tickets and sit up nights.
p2737
sba(i__main__
Sentence
p2738
(dp2739
g17
I58
sg18
(lp2740
S'You'
p2741
aS'can'
p2742
aS'not'
p2743
aS'be'
p2744
aS'too'
p2745
aS'cautious'
p2746
aS'.'
p2747
asg37
(lp2748
VYou
p2749
aVcan
p2750
aVnot
p2751
aVbe
p2752
aVtoo
p2753
aVcautious
p2754
ag104
asg56
(lp2755
g58
ag58
ag58
ag58
ag58
ag58
ag58
asg59
(lp2756
g107
ag506
ag69
ag67
ag69
ag192
ag70
asg72
VYou cannot be too cautious.
p2757
sba(i__main__
Sentence
p2758
(dp2759
g17
I59
sg18
(lp2760
S'['
p2761
aS'One'
p2762
aS'can'
p2763
aS'see'
p2764
aS'now'
p2765
aS'why'
p2766
aS'I'
p2767
aS'answered'
p2768
aS'that'
p2769
aS'ticket-agent'
p2770
aS'in'
p2771
aS'the'
p2772
aS'manner'
p2773
aS'recorded'
p2774
aS'at'
p2775
aS'the'
p2776
aS'top'
p2777
aS'of'
p2778
aS'this'
p2779
aS'sketch'
p2780
aS'.'
p2781
aS']'
p2782
asg37
(lp2783
V[
p2784
aVOne
p2785
aVcan
p2786
aVsee
p2787
aVnow
p2788
aVwhy
p2789
ag96
aVanswer
p2790
aVthat
p2791
aVticket-agent
p2792
aVin
p2793
aVthe
p2794
aVmanner
p2795
aVrecord
p2796
aVat
p2797
aVthe
p2798
aVtop
p2799
aVof
p2800
aVthis
p2801
aVsketch
p2802
ag104
aV]
p2803
asg56
(lp2804
g58
ag58
ag58
ag58
ag58
ag58
ag58
ag58
ag58
ag58
ag58
ag58
ag58
ag58
ag58
ag58
ag58
ag58
ag58
ag58
ag58
ag58
asg59
(lp2805
g62
ag193
ag506
ag67
ag69
ag2067
ag107
ag64
ag63
ag192
ag63
ag61
ag62
ag64
ag63
ag61
ag192
ag63
ag61
ag62
ag70
ag62
asg72
V[One can see now why I answered that ticket-agent in the manner recorded at the top of this sketch.]
p2806
sba(i__main__
Sentence
p2807
(dp2808
g17
I60
sg18
(lp2809
S'The'
p2810
aS'moral'
p2811
aS'of'
p2812
aS'this'
p2813
aS'composition'
p2814
aS'is'
p2815
aS','
p2816
aS'that'
p2817
aS'thoughtless'
p2818
aS'people'
p2819
aS'grumble'
p2820
aS'more'
p2821
aS'than'
p2822
aS'is'
p2823
aS'fair'
p2824
aS'about'
p2825
aS'railroad'
p2826
aS'management'
p2827
aS'in'
p2828
aS'the'
p2829
aS'United'
p2830
aS'States'
p2831
aS'.'
p2832
asg37
(lp2833
VThe
p2834
aVmoral
p2835
aVof
p2836
aVthis
p2837
aVcomposition
p2838
ag256
ag52
aVthat
p2839
aVthoughtless
p2840
aVpeople
p2841
aVgrumble
p2842
aVmore
p2843
aVthan
p2844
ag256
aVfair
p2845
aVabout
p2846
aVrailroad
p2847
aVmanagement
p2848
aVin
p2849
aVthe
p2850
aVUnited
p2851
aVStates
p2852
ag104
asg56
(lp2853
g58
ag58
ag58
ag58
ag58
ag58
ag58
ag58
ag58
ag58
ag58
ag58
ag58
ag58
ag58
ag58
ag58
ag58
ag58
ag58
aVLOCATION
p2854
aVLOCATION
p2855
ag58
asg59
(lp2856
g61
ag192
ag63
ag61
ag62
ag284
ag68
ag63
ag62
ag439
ag192
ag1142
ag63
ag284
ag192
ag63
ag62
ag62
ag63
ag61
ag318
ag2068
ag70
asg72
VThe moral of this composition is, that thoughtless people grumble more than is fair about railroad management in the United States.
p2857
sba(i__main__
Sentence
p2858
(dp2859
g17
I61
sg18
(lp2860
S'When'
p2861
aS'we'
p2862
aS'consider'
p2863
aS'that'
p2864
aS'every'
p2865
aS'day'
p2866
aS'and'
p2867
aS'night'
p2868
aS'of'
p2869
aS'the'
p2870
aS'year'
p2871
aS'full'
p2872
aS'fourteen'
p2873
aS'thousand'
p2874
aS'railway-trains'
p2875
aS'of'
p2876
aS'various'
p2877
aS'kinds'
p2878
aS','
p2879
aS'freighted'
p2880
aS'with'
p2881
aS'life'
p2882
aS'and'
p2883
aS'armed'
p2884
aS'with'
p2885
aS'death'
p2886
aS','
p2887
aS'go'
p2888
aS'thundering'
p2889
aS'over'
p2890
aS'the'
p2891
aS'land'
p2892
aS','
p2893
aS'the'
p2894
aS'marvel'
p2895
aS'is'
p2896
aS','
p2897
aS'NOT'
p2898
aS'that'
p2899
aS'they'
p2900
aS'kill'
p2901
aS'three'
p2902
aS'hundred'
p2903
aS'human'
p2904
aS'beings'
p2905
aS'in'
p2906
aS'a'
p2907
aS'twelvemonth'
p2908
aS','
p2909
aS'but'
p2910
aS'that'
p2911
aS'they'
p2912
aS'do'
p2913
aS'not'
p2914
aS'kill'
p2915
aS'three'
p2916
aS'hundred'
p2917
aS'times'
p2918
aS'three'
p2919
aS'hundred'
p2920
aS'!'
p2921
asg37
(lp2922
VWhen
p2923
aVwe
p2924
aVconsider
p2925
aVthat
p2926
aVevery
p2927
aVday
p2928
aVand
p2929
aVnight
p2930
aVof
p2931
aVthe
p2932
aVyear
p2933
aVfull
p2934
aVfourteen
p2935
aVthousand
p2936
aVrailway-trains
p2937
aVof
p2938
aVvarious
p2939
aVkind
p2940
ag52
aVfreight
p2941
aVwith
p2942
aVlife
p2943
aVand
p2944
aVarm
p2945
aVwith
p2946
aVdeath
p2947
ag52
aVgo
p2948
aVthunder
p2949
aVover
p2950
aVthe
p2951
aVland
p2952
ag52
aVthe
p2953
aVmarvel
p2954
ag256
ag52
aVNOT
p2955
aVthat
p2956
aVthey
p2957
aVkill
p2958
aVthree
p2959
aVhundred
p2960
aVhuman
p2961
aVbeing
p2962
aVin
p2963
ag102
aVtwelvemonth
p2964
ag52
aVbut
p2965
aVthat
p2966
aVthey
p2967
aVdo
p2968
aVnot
p2969
aVkill
p2970
aVthree
p2971
aVhundred
p2972
aVtime
p2973
aVthree
p2974
aVhundred
p2975
ag1498
asg56
(lp2976
g58
ag58
ag58
ag58
ag58
ag58
ag58
ag58
ag58
ag58
ag58
ag58
ag58
ag58
ag58
ag58
ag58
ag58
ag58
ag58
ag58
ag58
ag58
ag58
ag58
ag58
ag58
ag58
ag58
ag58
ag58
ag58
ag58
ag58
ag58
ag58
ag58
ag58
ag58
ag58
ag58
ag58
ag58
ag58
ag58
ag58
ag58
ag58
ag58
ag58
ag58
ag58
ag58
ag58
ag58
ag58
ag58
ag58
ag58
ag58
ag58
asg59
(lp2977
g2067
ag107
ag150
ag63
ag61
ag62
ag283
ag62
ag63
ag61
ag62
ag192
ag62
ag62
ag439
ag63
ag192
ag439
ag68
ag64
ag63
ag62
ag283
ag64
ag63
ag62
ag68
ag150
ag108
ag63
ag61
ag62
ag68
ag61
ag62
ag284
ag68
ag69
ag63
ag107
ag150
ag193
ag210
ag192
ag439
ag63
ag61
ag62
ag68
ag283
ag63
ag107
ag150
ag69
ag67
ag193
ag210
ag439
ag193
ag210
ag70
asg72
VWhen we consider that every day and night of the year full fourteen thousand railway-trains of various kinds, freighted with life and armed with death, go thundering over the land, the marvel is, NOT that they kill three hundred human beings in a twelvemonth, but that they do not kill three hundred times three hundred!
p2978
sba(i__main__
Sentence
p2979
(dp2980
g17
I62
sg18
(lp2981
S'-THE'
p2982
aS'END-'
p2983
aS'['
p2984
aS'Clemens'
p2985
aS']'
p2986
aS'Mark'
p2987
aS'Twain'
p2988
aS"'s"
p2989
aS'short'
p2990
aS'story'
p2991
aS':'
p2992
aS'The'
p2993
aS'Danger'
p2994
aS'of'
p2995
aS'Lying'
p2996
aS'in'
p2997
aS'Bed'
p2998
asg37
(lp2999
V-THE
p3000
aVEND-
p3001
ag2784
aVClemens
p3002
ag2803
aVMark
p3003
aVTwain
p3004
aV's
p3005
aVshort
p3006
aVstory
p3007
ag45
aVThe
p3008
aVDanger
p3009
aVof
p3010
aVLying
p3011
aVin
p3012
aVBed
p3013
asg56
(lp3014
g58
ag58
ag58
ag58
ag58
aVPERSON
p3015
aVPERSON
p3016
ag58
ag58
ag58
ag58
ag58
ag58
ag58
ag58
ag58
ag58
asg59
(lp3017
g61
ag62
ag65
ag318
ag65
ag318
ag318
ag1504
ag192
ag62
ag65
ag61
ag318
ag63
ag318
ag63
ag318
asg72
V-THE END-  [Clemens] Mark Twain's short story: The Danger of Lying in Bed
p3018
sbasbsS'summary'
p3019
g0
(g7
g2
Ntp3020
Rp3021
(dp3022
g11
S"At a ticket offer, a man inquires of the narrator if he has insurance.  The man says he doesn't but would like to buy one for the next day when he will in fact be in bed and not travelling.  The man goes into a detailed explanation that when doing extensive research on the subject matter, he discovered that the statistical likeliness of dying while on trains or boats or other modes of transportation is significantly less than the likelihood of dying in bed.  To that end, he swears by only purchasing insurance when he knows he will be staying in his own bed as opposed to any other place that he encounters."
p3023
sg13
(lp3024
(i__main__
Sentence
p3025
(dp3026
g17
I0
sg18
(lp3027
S'At'
p3028
aS'a'
p3029
aS'ticket'
p3030
aS'offer'
p3031
aS','
p3032
aS'a'
p3033
aS'man'
p3034
aS'inquires'
p3035
aS'of'
p3036
aS'the'
p3037
aS'narrator'
p3038
aS'if'
p3039
aS'he'
p3040
aS'has'
p3041
aS'insurance'
p3042
aS'.'
p3043
asg37
(lp3044
VAt
p3045
ag102
aVticket
p3046
aVoffer
p3047
ag52
ag102
aVman
p3048
aVinquire
p3049
aVof
p3050
aVthe
p3051
aVnarrator
p3052
aVif
p3053
aVhe
p3054
aVhave
p3055
aVinsurance
p3056
ag104
asg56
(lp3057
g58
ag58
ag58
ag58
ag58
ag58
ag58
ag58
ag58
ag58
ag58
ag58
ag58
ag58
ag58
ag58
asg59
(lp3058
g63
ag61
ag62
ag62
ag68
ag61
ag62
ag284
ag63
ag61
ag62
ag63
ag107
ag284
ag62
ag70
asg72
VAt a ticket offer, a man inquires of the narrator if he has insurance.
p3059
sba(i__main__
Sentence
p3060
(dp3061
g17
I1
sg18
(lp3062
S'The'
p3063
aS'man'
p3064
aS'says'
p3065
aS'he'
p3066
aS'does'
p3067
aS"n't"
p3068
aS'but'
p3069
aS'would'
p3070
aS'like'
p3071
aS'to'
p3072
aS'buy'
p3073
aS'one'
p3074
aS'for'
p3075
aS'the'
p3076
aS'next'
p3077
aS'day'
p3078
aS'when'
p3079
aS'he'
p3080
aS'will'
p3081
aS'in'
p3082
aS'fact'
p3083
aS'be'
p3084
aS'in'
p3085
aS'bed'
p3086
aS'and'
p3087
aS'not'
p3088
aS'travelling'
p3089
aS'.'
p3090
asg37
(lp3091
VThe
p3092
aVman
p3093
aVsay
p3094
aVhe
p3095
aVdo
p3096
aVn't
p3097
aVbut
p3098
aVwould
p3099
aVlike
p3100
aVto
p3101
aVbuy
p3102
aVone
p3103
aVfor
p3104
aVthe
p3105
aVnext
p3106
aVday
p3107
aVwhen
p3108
aVhe
p3109
aVwill
p3110
aVin
p3111
aVfact
p3112
aVbe
p3113
aVin
p3114
aVbed
p3115
aVand
p3116
aVnot
p3117
aVtravel
p3118
ag104
asg56
(lp3119
g58
ag58
ag58
ag58
ag58
ag58
ag58
ag58
ag58
ag58
ag58
ag58
ag58
ag58
ag58
ag58
ag58
ag58
ag58
ag58
ag58
ag58
ag58
ag58
ag58
ag58
ag58
ag58
asg59
(lp3120
g61
ag62
ag284
ag107
ag284
ag69
ag67
ag506
ag67
ag151
ag67
ag193
ag63
ag61
ag192
ag62
ag2067
ag107
ag506
ag67
ag62
ag67
ag63
ag210
ag283
ag69
ag108
ag70
asg72
VThe man says he doesn't but would like to buy one for the next day when he will in fact be in bed and not travelling.
p3121
sba(i__main__
Sentence
p3122
(dp3123
g17
I2
sg18
(lp3124
S'The'
p3125
aS'man'
p3126
aS'goes'
p3127
aS'into'
p3128
aS'a'
p3129
aS'detailed'
p3130
aS'explanation'
p3131
aS'that'
p3132
aS'when'
p3133
aS'doing'
p3134
aS'extensive'
p3135
aS'research'
p3136
aS'on'
p3137
aS'the'
p3138
aS'subject'
p3139
aS'matter'
p3140
aS','
p3141
aS'he'
p3142
aS'discovered'
p3143
aS'that'
p3144
aS'the'
p3145
aS'statistical'
p3146
aS'likeliness'
p3147
aS'of'
p3148
aS'dying'
p3149
aS'while'
p3150
aS'on'
p3151
aS'trains'
p3152
aS'or'
p3153
aS'boats'
p3154
aS'or'
p3155
aS'other'
p3156
aS'modes'
p3157
aS'of'
p3158
aS'transportation'
p3159
aS'is'
p3160
aS'significantly'
p3161
aS'less'
p3162
aS'than'
p3163
aS'the'
p3164
aS'likelihood'
p3165
aS'of'
p3166
aS'dying'
p3167
aS'in'
p3168
aS'bed'
p3169
aS'.'
p3170
asg37
(lp3171
VThe
p3172
aVman
p3173
aVgo
p3174
aVinto
p3175
ag102
aVdetailed
p3176
aVexplanation
p3177
aVthat
p3178
aVwhen
p3179
aVdo
p3180
aVextensive
p3181
aVresearch
p3182
aVon
p3183
aVthe
p3184
aVsubject
p3185
aVmatter
p3186
ag52
aVhe
p3187
aVdiscover
p3188
aVthat
p3189
aVthe
p3190
aVstatistical
p3191
aVlikeliness
p3192
aVof
p3193
aVdie
p3194
aVwhile
p3195
aVon
p3196
aVtrain
p3197
aVor
p3198
aVboat
p3199
aVor
p3200
aVother
p3201
aVmode
p3202
aVof
p3203
aVtransportation
p3204
ag256
aVsignificantly
p3205
aVless
p3206
aVthan
p3207
aVthe
p3208
aVlikelihood
p3209
aVof
p3210
ag3194
aVin
p3211
aVbed
p3212
ag104
asg56
(lp3213
g58
ag58
ag58
ag58
ag58
ag58
ag58
ag58
ag58
ag58
ag58
ag58
ag58
ag58
ag58
ag58
ag58
ag58
ag58
ag58
ag58
ag58
ag58
ag58
ag58
ag58
ag58
ag58
ag58
ag58
ag58
ag58
ag58
ag58
ag58
ag58
ag58
ag58
ag58
ag58
ag58
ag58
ag58
ag58
ag58
ag58
asg59
(lp3214
g61
ag62
ag284
ag63
ag61
ag192
ag62
ag722
ag2067
ag108
ag192
ag62
ag63
ag61
ag62
ag62
ag68
ag107
ag64
ag63
ag61
ag192
ag62
ag63
ag108
ag63
ag63
ag439
ag283
ag439
ag283
ag192
ag439
ag63
ag62
ag284
ag69
ag1233
ag63
ag61
ag62
ag63
ag108
ag63
ag192
ag70
asg72
VThe man goes into a detailed explanation that when doing extensive research on the subject matter, he discovered that the statistical likeliness of dying while on trains or boats or other modes of transportation is significantly less than the likelihood of dying in bed.
p3215
sba(i__main__
Sentence
p3216
(dp3217
g17
I3
sg18
(lp3218
S'To'
p3219
aS'that'
p3220
aS'end'
p3221
aS','
p3222
aS'he'
p3223
aS'swears'
p3224
aS'by'
p3225
aS'only'
p3226
aS'purchasing'
p3227
aS'insurance'
p3228
aS'when'
p3229
aS'he'
p3230
aS'knows'
p3231
aS'he'
p3232
aS'will'
p3233
aS'be'
p3234
aS'staying'
p3235
aS'in'
p3236
aS'his'
p3237
aS'own'
p3238
aS'bed'
p3239
aS'as'
p3240
aS'opposed'
p3241
aS'to'
p3242
aS'any'
p3243
aS'other'
p3244
aS'place'
p3245
aS'that'
p3246
aS'he'
p3247
aS'encounters'
p3248
aS'.'
p3249
asg37
(lp3250
VTo
p3251
aVthat
p3252
aVend
p3253
ag52
aVhe
p3254
aVswear
p3255
aVby
p3256
aVonly
p3257
aVpurchase
p3258
aVinsurance
p3259
aVwhen
p3260
aVhe
p3261
aVknow
p3262
aVhe
p3263
aVwill
p3264
aVbe
p3265
aVstay
p3266
aVin
p3267
aVhis
p3268
aVown
p3269
aVbed
p3270
ag102
aVoppose
p3271
aVto
p3272
aVany
p3273
aVother
p3274
aVplace
p3275
aVthat
p3276
aVhe
p3277
aVencounter
p3278
ag104
asg56
(lp3279
g58
ag58
ag58
ag58
ag58
ag58
ag58
ag58
ag58
ag58
ag58
ag58
ag58
ag58
ag58
ag58
ag58
ag58
ag58
ag58
ag58
ag58
ag58
ag58
ag58
ag58
ag58
ag58
ag58
ag58
ag58
asg59
(lp3280
g151
ag61
ag62
ag68
ag107
ag284
ag63
ag69
ag108
ag62
ag2067
ag107
ag284
ag107
ag506
ag67
ag108
ag63
ag854
ag192
ag210
ag63
ag210
ag151
ag61
ag192
ag62
ag63
ag107
ag284
ag70
asg72
VTo that end, he swears by only purchasing insurance when he knows he will be staying in his own bed as opposed to any other place that he encounters.
p3281
sbasbsS'name'
p3282
S'The Danger of Lying in Bed '
p3283
sS'summaries'
p3284
(lp3285
g3021
asb.