ccopy_reg
_reconstructor
p0
(c__main__
Story
p1
c__builtin__
object
p2
Ntp3
Rp4
(dp5
S'text'
p6
g0
(c__main__
Document
p7
g2
Ntp8
Rp9
(dp10
S'_Document__initialContent'
p11
S"There was once an enchantress, who had three sons who loved each\nother as brothers, but the old woman did not trust them, and\nthought they wanted to steal her power from her.  So she changed\nthe eldest into an eagle, which was forced to dwell in the rocky\nmountains, and was often seen flying in great circles in the sky.\nThe second, she changed into a whale, which lived in the deep sea,\nand all that was seen of it was that it sometimes spouted up a\ngreat jet of water in the air.  Each of them bore his\nhuman form for only two hours daily.  The third son, who was afraid\nshe might change him into a raging wild beast - a bear perhaps, or\na wolf, went secretly away.  He had heard that a king's daughter\nwho was bewitched, was imprisoned in the castle of the golden sun,\nand was waiting to be set free.  Those, however, who tried to free\nher risked their lives.  Three-and-twenty youths had already died\na miserable death, and now only one other might make the attempt,\nafter which no more must come.  And as his heart was without fear,\nhe made up his mind to seek out the castle of the golden sun.  He\nhad already traveled about for a long time without being able to\nfind it, when he came by chance into a great forest, and did not\nknow the way out of it.  All at once he saw in the distance two\ngiants, who made a sign to him with their hands, and when he came\nto them they said, we are quarreling about a cap, and which of us\nit is to belong to, and as we are equally strong, neither of us\ncan get the better of the other.  The small men are cleverer than\nwe are, so we will leave the decision to you.  How can you\ndispute about an old cap, said the youth.  You do not know what\nproperties it has.  It is a wishing-cap, whosoever puts it on, can\nwish himself away wherever he likes, and in an instant he will be\nthere.  Give me the cap, said the youth, I will go a short\ndistance off, and when I call you, you must run a race, and the\ncap shall belong to the one who gets first to me.  He put it on\nand went away, and thought of the king's daughter, forgot the\ngiants, and walked continually onward.  At length he sighed from\nthe very bottom of his heart, and cried, ah, if I were but at the\ncastle of the golden sun.  And hardly had the words passed his\nlips than he was standing on a high mountain before the\ngate of the castle.\nHe entered and went through all the rooms, until in the last he\nfound the king's daughter.  But how shocked he was when he saw\nher.  She had an ashen-gray face full of wrinkles, bleary eyes,\nand red hair.  Are you the king's daughter, whose beauty the whole\nworld praises, cried he.  Ah, she answered, this is not my form,\nhuman eyes can only see me in this state of ugliness, but that you\nmay know what I am like, look in the mirror - it does not let\nitself be misled - it will show you my image as it is in truth.\nShe gave him the mirror in his hand, and he saw therein the\nlikeness of the most beautiful maiden on earth, and saw, too, how\nthe tears were rolling down her cheeks with grief.  Then said he,\nhow can you be set free.  I fear no danger.  She said, he who gets\nthe crystal ball, and holds it before the enchanter, will destroy\nhis power with it, and I shall resume my true shape.  Ah, she\nadded, so many have already gone to meet death for this, and you\nare so young, I grieve that you should encounter such great\ndanger.  Nothing can keep me from doing it, said he, but tell me\nwhat I must do.  You shall know everything, said the king's\ndaughter, when you descend the mountain on which the castle stands,\na wild bull will stand below by a spring, and you must fight with\nit, and if you have the luck to kill it, a fiery bird will spring\nout of it, which bears in its body a red-hot egg, and in the egg\nthe crystal ball lies as its yolk.  The bird, however, will not\nlet the egg fall until forced to do so, and if it falls on the\nground, it will flame up and burn everything that is near, and\neven the egg itself will melt, and with it the crystal ball,\nand then your trouble will have been in vain.\nThe youth went down to the spring, where the bull snorted and\nbellowed at him.  After a long struggle he plunged his sword in the\nanimal's body, and it fell down.  Instantly a fiery bird arose\nfrom it and was about to fly away, but the young man's brother,\nthe eagle, who was passing between the clouds, swooped down,\nhunted it away to the sea, and struck it with his beak until, in\nits extremity, it let the egg fall.  The egg, however, did not\nfall into the sea, but on a fisherman's hut which stood on the\nshore and the hut began at once to smoke and was about to break\nout in flames.  Then arose in the sea waves as high as a house,\nwhich streamed over the hut, and subdued the fire.  The other\nbrother, the whale, had come swimming to them, and had driven the\nwater up on high.  When the fire was extinguished, the youth\nsought for the egg and happily found it, it was not yet melted,\nbut the shell was broken by being so suddenly cooled with the\nwater, and he could take out the crystal ball unhurt.\nWhen the youth went to the enchanter and held it before him,\nthe latter said, my power is destroyed, and from this time forth\nyou are the king of the castle of the golden sun.  With this you\ncan likewise give back to your brothers their human form.\nThen the youth hastened to the king's daughter, and when he\nentered the room, she was standing there in the full splendor\nof her beauty, and joyfully they exchanged rings with each other.\n"
p12
sS'sentences'
p13
(lp14
(i__main__
Sentence
p15
(dp16
S'index'
p17
I0
sS'words'
p18
(lp19
S'There'
p20
aS'was'
p21
aS'once'
p22
aS'an'
p23
aS'enchantress'
p24
aS','
p25
aS'who'
p26
aS'had'
p27
aS'three'
p28
aS'sons'
p29
aS'who'
p30
aS'loved'
p31
aS'each'
p32
aS'other'
p33
aS'as'
p34
aS'brothers'
p35
aS','
p36
aS'but'
p37
aS'the'
p38
aS'old'
p39
aS'woman'
p40
aS'did'
p41
aS'not'
p42
aS'trust'
p43
aS'them'
p44
aS','
p45
aS'and'
p46
aS'thought'
p47
aS'they'
p48
aS'wanted'
p49
aS'to'
p50
aS'steal'
p51
aS'her'
p52
aS'power'
p53
aS'from'
p54
aS'her'
p55
aS'.'
p56
asS'lemmas'
p57
(lp58
VThere
p59
aVbe
p60
aVonce
p61
aVan
p62
aVenchantress
p63
aV,
p64
aVwho
p65
aVhave
p66
aVthree
p67
aVson
p68
aVwho
p69
aVlove
p70
aVeach
p71
aVother
p72
aVa
p73
aVbrother
p74
ag64
aVbut
p75
aVthe
p76
aVold
p77
aVwoman
p78
aVdo
p79
aVnot
p80
aVtrust
p81
aVthem
p82
ag64
aVand
p83
aVthink
p84
aVthey
p85
aVwant
p86
aVto
p87
aVsteal
p88
aVher
p89
aVpower
p90
aVfrom
p91
aVher
p92
aV.
p93
asS'nerTags'
p94
(lp95
VO
p96
ag96
ag96
ag96
ag96
ag96
ag96
ag96
ag96
ag96
ag96
ag96
ag96
ag96
ag96
ag96
ag96
ag96
ag96
ag96
ag96
ag96
ag96
ag96
ag96
ag96
ag96
ag96
ag96
ag96
ag96
ag96
ag96
ag96
ag96
ag96
ag96
asS'posTags'
p97
(lp98
S'EX'
p99
aS'VBD'
p100
aS'RB'
p101
aS'DT'
p102
aS'NN'
p103
aS','
p104
aS'WP'
p105
ag100
aS'CD'
p106
aS'NNS'
p107
ag105
aS'VBN'
p108
ag102
aS'JJ'
p109
aS'IN'
p110
ag107
ag104
aS'CC'
p111
ag102
ag109
ag103
ag100
ag101
aS'VB'
p112
aS'PRP'
p113
ag104
ag111
ag100
ag113
ag100
aS'TO'
p114
ag112
aS'PRP$'
p115
ag103
ag110
ag115
aS'.'
p116
asS'_Sentence__initialContent'
p117
VThere was once an enchantress, who had three sons who loved each other as brothers, but the old woman did not trust them, and thought they wanted to steal her power from her.
p118
sba(i__main__
Sentence
p119
(dp120
g17
I1
sg18
(lp121
S'So'
p122
aS'she'
p123
aS'changed'
p124
aS'the'
p125
aS'eldest'
p126
aS'into'
p127
aS'an'
p128
aS'eagle'
p129
aS','
p130
aS'which'
p131
aS'was'
p132
aS'forced'
p133
aS'to'
p134
aS'dwell'
p135
aS'in'
p136
aS'the'
p137
aS'rocky'
p138
aS'mountains'
p139
aS','
p140
aS'and'
p141
aS'was'
p142
aS'often'
p143
aS'seen'
p144
aS'flying'
p145
aS'in'
p146
aS'great'
p147
aS'circles'
p148
aS'in'
p149
aS'the'
p150
aS'sky'
p151
aS'.'
p152
asg57
(lp153
VSo
p154
aVshe
p155
aVchange
p156
aVthe
p157
aVeldest
p158
aVinto
p159
aVan
p160
aVeagle
p161
ag64
aVwhich
p162
ag60
aVforce
p163
aVto
p164
aVdwell
p165
aVin
p166
aVthe
p167
aVrocky
p168
aVmountain
p169
ag64
aVand
p170
ag60
aVoften
p171
aVsee
p172
aVfly
p173
aVin
p174
aVgreat
p175
aVcircle
p176
aVin
p177
aVthe
p178
aVsky
p179
ag93
asg94
(lp180
g96
ag96
ag96
ag96
ag96
ag96
ag96
ag96
ag96
ag96
ag96
ag96
ag96
ag96
ag96
ag96
ag96
ag96
ag96
ag96
ag96
ag96
ag96
ag96
ag96
ag96
ag96
ag96
ag96
ag96
ag96
asg97
(lp181
g110
ag113
ag100
ag102
aS'JJS'
p182
ag110
ag102
ag109
ag104
aS'WDT'
p183
ag100
ag108
ag114
ag112
ag110
ag102
ag109
ag107
ag104
ag111
ag100
ag101
ag108
aS'VBG'
p184
ag110
ag109
ag107
ag110
ag102
ag103
ag116
asg117
VSo she changed the eldest into an eagle, which was forced to dwell in the rocky mountains, and was often seen flying in great circles in the sky.
p185
sba(i__main__
Sentence
p186
(dp187
g17
I2
sg18
(lp188
S'The'
p189
aS'second'
p190
aS','
p191
aS'she'
p192
aS'changed'
p193
aS'into'
p194
aS'a'
p195
aS'whale'
p196
aS','
p197
aS'which'
p198
aS'lived'
p199
aS'in'
p200
aS'the'
p201
aS'deep'
p202
aS'sea'
p203
aS','
p204
aS'and'
p205
aS'all'
p206
aS'that'
p207
aS'was'
p208
aS'seen'
p209
aS'of'
p210
aS'it'
p211
aS'was'
p212
aS'that'
p213
aS'it'
p214
aS'sometimes'
p215
aS'spouted'
p216
aS'up'
p217
aS'a'
p218
aS'great'
p219
aS'jet'
p220
aS'of'
p221
aS'water'
p222
aS'in'
p223
aS'the'
p224
aS'air'
p225
aS'.'
p226
asg57
(lp227
VThe
p228
aVsecond
p229
ag64
aVshe
p230
aVchange
p231
aVinto
p232
ag73
aVwhale
p233
ag64
aVwhich
p234
aVlive
p235
aVin
p236
aVthe
p237
aVdeep
p238
aVsea
p239
ag64
aVand
p240
aVall
p241
aVthat
p242
ag60
ag172
aVof
p243
aVit
p244
ag60
aVthat
p245
aVit
p246
aVsometimes
p247
aVspout
p248
aVup
p249
ag73
aVgreat
p250
aVjet
p251
aVof
p252
aVwater
p253
aVin
p254
aVthe
p255
aVair
p256
ag93
asg94
(lp257
g96
ag96
ag96
ag96
ag96
ag96
ag96
ag96
ag96
ag96
ag96
ag96
ag96
ag96
ag96
ag96
ag96
ag96
ag96
ag96
ag96
ag96
ag96
ag96
ag96
ag96
ag96
ag96
ag96
ag96
ag96
ag96
ag96
ag96
ag96
ag96
ag96
ag96
asg97
(lp258
g102
ag109
ag104
ag113
ag100
ag110
ag102
ag109
ag104
ag183
ag108
ag110
ag102
ag103
ag103
ag104
ag111
ag102
ag102
ag100
ag108
ag110
ag113
ag100
ag110
ag113
aS'VBZ'
p259
ag108
aS'RP'
p260
ag102
ag109
ag103
ag110
ag103
ag110
ag102
ag103
ag116
asg117
VThe second, she changed into a whale, which lived in the deep sea, and all that was seen of it was that it sometimes spouted up a great jet of water in the air.
p261
sba(i__main__
Sentence
p262
(dp263
g17
I3
sg18
(lp264
S'Each'
p265
aS'of'
p266
aS'them'
p267
aS'bore'
p268
aS'his'
p269
aS'human'
p270
aS'form'
p271
aS'for'
p272
aS'only'
p273
aS'two'
p274
aS'hours'
p275
aS'daily'
p276
aS'.'
p277
asg57
(lp278
VEach
p279
aVof
p280
aVthem
p281
aVbore
p282
aVhis
p283
aVhuman
p284
aVform
p285
aVfor
p286
aVonly
p287
aVtwo
p288
aVhour
p289
aVdaily
p290
ag93
asg94
(lp291
g96
ag96
ag96
ag96
ag96
ag96
ag96
ag96
ag96
ag96
ag96
ag96
ag96
asg97
(lp292
g102
ag110
ag113
aS'JJR'
p293
ag115
ag103
ag103
ag110
ag101
ag106
ag107
ag101
ag116
asg117
VEach of them bore his human form for only two hours daily.
p294
sba(i__main__
Sentence
p295
(dp296
g17
I4
sg18
(lp297
S'The'
p298
aS'third'
p299
aS'son'
p300
aS','
p301
aS'who'
p302
aS'was'
p303
aS'afraid'
p304
aS'she'
p305
aS'might'
p306
aS'change'
p307
aS'him'
p308
aS'into'
p309
aS'a'
p310
aS'raging'
p311
aS'wild'
p312
aS'beast'
p313
aS'-'
p314
aS'a'
p315
aS'bear'
p316
aS'perhaps'
p317
aS','
p318
aS'or'
p319
aS'a'
p320
aS'wolf'
p321
aS','
p322
aS'went'
p323
aS'secretly'
p324
aS'away'
p325
aS'.'
p326
asg57
(lp327
VThe
p328
aVthird
p329
aVson
p330
ag64
aVwho
p331
ag60
aVafraid
p332
aVshe
p333
aVmight
p334
aVchange
p335
aVhim
p336
aVinto
p337
ag73
aVraging
p338
aVwild
p339
aVbeast
p340
aV-
p341
ag73
aVbear
p342
aVperhaps
p343
ag64
aVor
p344
ag73
aVwolf
p345
ag64
aVgo
p346
aVsecretly
p347
aVaway
p348
ag93
asg94
(lp349
g96
ag96
ag96
ag96
ag96
ag96
ag96
ag96
ag96
ag96
ag96
ag96
ag96
ag96
ag96
ag96
ag96
ag96
ag96
ag96
ag96
ag96
ag96
ag96
ag96
ag96
ag96
ag96
ag96
asg97
(lp350
g102
ag109
ag103
ag104
ag105
ag100
ag108
ag113
aS'MD'
p351
ag112
ag113
ag110
ag102
ag109
ag103
ag103
aS':'
p352
ag102
ag103
ag101
ag104
ag111
ag102
ag103
ag104
ag100
ag101
ag101
ag116
asg117
VThe third son, who was afraid she might change him into a raging wild beast - a bear perhaps, or a wolf, went secretly away.
p353
sba(i__main__
Sentence
p354
(dp355
g17
I5
sg18
(lp356
S'He'
p357
aS'had'
p358
aS'heard'
p359
aS'that'
p360
aS'a'
p361
aS'king'
p362
aS"'s"
p363
aS'daughter'
p364
aS'who'
p365
aS'was'
p366
aS'bewitched'
p367
aS','
p368
aS'was'
p369
aS'imprisoned'
p370
aS'in'
p371
aS'the'
p372
aS'castle'
p373
aS'of'
p374
aS'the'
p375
aS'golden'
p376
aS'sun'
p377
aS','
p378
aS'and'
p379
aS'was'
p380
aS'waiting'
p381
aS'to'
p382
aS'be'
p383
aS'set'
p384
aS'free'
p385
aS'.'
p386
asg57
(lp387
VHe
p388
ag66
aVhear
p389
aVthat
p390
ag73
aVking
p391
aV's
p392
aVdaughter
p393
aVwho
p394
ag60
aVbewitch
p395
ag64
ag60
aVimprison
p396
aVin
p397
aVthe
p398
aVcastle
p399
aVof
p400
aVthe
p401
aVgolden
p402
aVsun
p403
ag64
aVand
p404
ag60
aVwait
p405
aVto
p406
aVbe
p407
aVset
p408
aVfree
p409
ag93
asg94
(lp410
g96
ag96
ag96
ag96
ag96
ag96
ag96
ag96
ag96
ag96
ag96
ag96
ag96
ag96
ag96
ag96
ag96
ag96
ag96
ag96
ag96
ag96
ag96
ag96
ag96
ag96
ag96
ag96
ag96
ag96
asg97
(lp411
g113
ag100
ag108
ag110
ag102
ag103
aS'POS'
p412
ag103
ag105
ag100
ag108
ag104
ag100
ag108
ag110
ag102
ag103
ag110
ag102
ag109
ag103
ag104
ag111
ag100
ag184
ag114
ag112
ag108
ag109
ag116
asg117
VHe had heard that a king's daughter who was bewitched, was imprisoned in the castle of the golden sun, and was waiting to be set free.
p413
sba(i__main__
Sentence
p414
(dp415
g17
I6
sg18
(lp416
S'Those'
p417
aS','
p418
aS'however'
p419
aS','
p420
aS'who'
p421
aS'tried'
p422
aS'to'
p423
aS'free'
p424
aS'her'
p425
aS'risked'
p426
aS'their'
p427
aS'lives'
p428
aS'.'
p429
asg57
(lp430
VThose
p431
ag64
aVhowever
p432
ag64
aVwho
p433
aVtry
p434
aVto
p435
aVfree
p436
aVher
p437
aVrisked
p438
aVtheir
p439
aVlife
p440
ag93
asg94
(lp441
g96
ag96
ag96
ag96
ag96
ag96
ag96
ag96
ag96
ag96
ag96
ag96
ag96
asg97
(lp442
g102
ag104
ag101
ag104
ag105
ag100
ag114
ag109
ag115
ag109
ag115
ag107
ag116
asg117
VThose, however, who tried to free her risked their lives.
p443
sba(i__main__
Sentence
p444
(dp445
g17
I7
sg18
(lp446
S'Three-and-twenty'
p447
aS'youths'
p448
aS'had'
p449
aS'already'
p450
aS'died'
p451
aS'a'
p452
aS'miserable'
p453
aS'death'
p454
aS','
p455
aS'and'
p456
aS'now'
p457
aS'only'
p458
aS'one'
p459
aS'other'
p460
aS'might'
p461
aS'make'
p462
aS'the'
p463
aS'attempt'
p464
aS','
p465
aS'after'
p466
aS'which'
p467
aS'no'
p468
aS'more'
p469
aS'must'
p470
aS'come'
p471
aS'.'
p472
asg57
(lp473
VThree-and-twenty
p474
aVyouth
p475
ag66
aValready
p476
aVdie
p477
ag73
aVmiserable
p478
aVdeath
p479
ag64
aVand
p480
aVnow
p481
aVonly
p482
aVone
p483
aVother
p484
aVmight
p485
aVmake
p486
aVthe
p487
aVattempt
p488
ag64
aVafter
p489
aVwhich
p490
aVno
p491
aVmore
p492
aVmust
p493
aVcome
p494
ag93
asg94
(lp495
g96
ag96
ag96
ag96
ag96
ag96
ag96
ag96
ag96
ag96
ag96
ag96
ag96
ag96
ag96
ag96
ag96
ag96
ag96
ag96
ag96
ag96
ag96
ag96
ag96
ag96
asg97
(lp496
g109
ag107
ag100
ag101
ag108
ag102
ag109
ag103
ag104
ag111
ag101
ag101
ag106
ag109
ag103
ag112
ag102
ag103
ag104
ag110
ag183
ag102
aS'RBR'
p497
ag351
ag112
ag116
asg117
VThree-and-twenty youths had already died a miserable death, and now only one other might make the attempt, after which no more must come.
p498
sba(i__main__
Sentence
p499
(dp500
g17
I8
sg18
(lp501
S'And'
p502
aS'as'
p503
aS'his'
p504
aS'heart'
p505
aS'was'
p506
aS'without'
p507
aS'fear'
p508
aS','
p509
aS'he'
p510
aS'made'
p511
aS'up'
p512
aS'his'
p513
aS'mind'
p514
aS'to'
p515
aS'seek'
p516
aS'out'
p517
aS'the'
p518
aS'castle'
p519
aS'of'
p520
aS'the'
p521
aS'golden'
p522
aS'sun'
p523
aS'.'
p524
asg57
(lp525
VAnd
p526
ag73
aVhis
p527
aVheart
p528
ag60
aVwithout
p529
aVfear
p530
ag64
aVhe
p531
aVmake
p532
aVup
p533
aVhis
p534
aVmind
p535
aVto
p536
aVseek
p537
aVout
p538
aVthe
p539
aVcastle
p540
aVof
p541
aVthe
p542
aVgolden
p543
aVsun
p544
ag93
asg94
(lp545
g96
ag96
ag96
ag96
ag96
ag96
ag96
ag96
ag96
ag96
ag96
ag96
ag96
ag96
ag96
ag96
ag96
ag96
ag96
ag96
ag96
ag96
ag96
asg97
(lp546
g111
ag110
ag115
ag103
ag100
ag110
ag103
ag104
ag113
ag100
ag260
ag115
ag103
ag114
ag112
ag260
ag102
ag103
ag110
ag102
ag109
ag103
ag116
asg117
VAnd as his heart was without fear, he made up his mind to seek out the castle of the golden sun.
p547
sba(i__main__
Sentence
p548
(dp549
g17
I9
sg18
(lp550
S'He'
p551
aS'had'
p552
aS'already'
p553
aS'traveled'
p554
aS'about'
p555
aS'for'
p556
aS'a'
p557
aS'long'
p558
aS'time'
p559
aS'without'
p560
aS'being'
p561
aS'able'
p562
aS'to'
p563
aS'find'
p564
aS'it'
p565
aS','
p566
aS'when'
p567
aS'he'
p568
aS'came'
p569
aS'by'
p570
aS'chance'
p571
aS'into'
p572
aS'a'
p573
aS'great'
p574
aS'forest'
p575
aS','
p576
aS'and'
p577
aS'did'
p578
aS'not'
p579
aS'know'
p580
aS'the'
p581
aS'way'
p582
aS'out'
p583
aS'of'
p584
aS'it'
p585
aS'.'
p586
asg57
(lp587
VHe
p588
ag66
aValready
p589
aVtravel
p590
aVabout
p591
aVfor
p592
ag73
aVlong
p593
aVtime
p594
aVwithout
p595
aVbe
p596
aVable
p597
aVto
p598
aVfind
p599
aVit
p600
ag64
aVwhen
p601
aVhe
p602
aVcome
p603
aVby
p604
aVchance
p605
aVinto
p606
ag73
aVgreat
p607
aVforest
p608
ag64
aVand
p609
ag79
aVnot
p610
aVknow
p611
aVthe
p612
aVway
p613
aVout
p614
aVof
p615
aVit
p616
ag93
asg94
(lp617
g96
ag96
ag96
ag96
ag96
ag96
ag96
ag96
ag96
ag96
ag96
ag96
ag96
ag96
ag96
ag96
ag96
ag96
ag96
ag96
ag96
ag96
ag96
ag96
ag96
ag96
ag96
ag96
ag96
ag96
ag96
ag96
ag96
ag96
ag96
ag96
asg97
(lp618
g113
ag100
ag101
ag108
ag110
ag110
ag102
ag109
ag103
ag110
ag184
ag109
ag114
ag112
ag113
ag104
aS'WRB'
p619
ag113
ag100
ag110
ag103
ag110
ag102
ag109
ag103
ag104
ag111
ag100
ag101
ag112
ag102
ag103
ag110
ag110
ag113
ag116
asg117
VHe had already traveled about for a long time without being able to find it, when he came by chance into a great forest, and did not know the way out of it.
p620
sba(i__main__
Sentence
p621
(dp622
g17
I10
sg18
(lp623
S'All'
p624
aS'at'
p625
aS'once'
p626
aS'he'
p627
aS'saw'
p628
aS'in'
p629
aS'the'
p630
aS'distance'
p631
aS'two'
p632
aS'giants'
p633
aS','
p634
aS'who'
p635
aS'made'
p636
aS'a'
p637
aS'sign'
p638
aS'to'
p639
aS'him'
p640
aS'with'
p641
aS'their'
p642
aS'hands'
p643
aS','
p644
aS'and'
p645
aS'when'
p646
aS'he'
p647
aS'came'
p648
aS'to'
p649
aS'them'
p650
aS'they'
p651
aS'said'
p652
aS','
p653
aS'we'
p654
aS'are'
p655
aS'quarreling'
p656
aS'about'
p657
aS'a'
p658
aS'cap'
p659
aS','
p660
aS'and'
p661
aS'which'
p662
aS'of'
p663
aS'us'
p664
aS'it'
p665
aS'is'
p666
aS'to'
p667
aS'belong'
p668
aS'to'
p669
aS','
p670
aS'and'
p671
aS'as'
p672
aS'we'
p673
aS'are'
p674
aS'equally'
p675
aS'strong'
p676
aS','
p677
aS'neither'
p678
aS'of'
p679
aS'us'
p680
aS'can'
p681
aS'get'
p682
aS'the'
p683
aS'better'
p684
aS'of'
p685
aS'the'
p686
aS'other'
p687
aS'.'
p688
asg57
(lp689
VAll
p690
aVat
p691
aVonce
p692
aVhe
p693
aVsaw
p694
aVin
p695
aVthe
p696
aVdistance
p697
aVtwo
p698
aVgiant
p699
ag64
aVwho
p700
ag532
ag73
aVsign
p701
aVto
p702
aVhim
p703
aVwith
p704
aVtheir
p705
aVhand
p706
ag64
aVand
p707
aVwhen
p708
aVhe
p709
ag603
aVto
p710
aVthem
p711
aVthey
p712
aVsay
p713
ag64
aVwe
p714
aVbe
p715
aVquarrel
p716
aVabout
p717
ag73
aVcap
p718
ag64
aVand
p719
aVwhich
p720
aVof
p721
aVu
p722
aVit
p723
aVbe
p724
aVto
p725
aVbelong
p726
aVto
p727
ag64
aVand
p728
ag73
aVwe
p729
ag715
aVequally
p730
aVstrong
p731
ag64
aVneither
p732
aVof
p733
ag722
aVcan
p734
aVget
p735
aVthe
p736
aVgood
p737
aVof
p738
aVthe
p739
aVother
p740
ag93
asg94
(lp741
g96
ag96
ag96
ag96
ag96
ag96
ag96
ag96
ag96
ag96
ag96
ag96
ag96
ag96
ag96
ag96
ag96
ag96
ag96
ag96
ag96
ag96
ag96
ag96
ag96
ag96
ag96
ag96
ag96
ag96
ag96
ag96
ag96
ag96
ag96
ag96
ag96
ag96
ag96
ag96
ag96
ag96
ag96
ag96
ag96
ag96
ag96
ag96
ag96
ag96
ag96
ag96
ag96
ag96
ag96
ag96
ag96
ag96
ag96
ag96
ag96
ag96
ag96
ag96
ag96
asg97
(lp742
g102
ag110
ag101
ag113
ag100
ag110
ag102
ag103
ag106
ag107
ag104
ag105
ag108
ag102
ag103
ag114
ag113
ag110
ag115
ag107
ag104
ag111
ag619
ag113
ag100
ag114
ag113
ag113
ag100
ag104
ag113
aS'VBP'
p743
ag184
ag110
ag102
ag103
ag104
ag111
ag183
ag110
ag113
ag113
ag259
ag114
ag109
ag114
ag104
ag111
ag110
ag113
ag743
ag101
ag109
ag104
ag102
ag110
ag113
ag351
ag112
ag102
ag293
ag110
ag102
ag109
ag116
asg117
VAll at once he saw in the distance two giants, who made a sign to him with their hands, and when he came to them they said, we are quarreling about a cap, and which of us it is to belong to, and as we are equally strong, neither of us can get the better of the other.
p744
sba(i__main__
Sentence
p745
(dp746
g17
I11
sg18
(lp747
S'The'
p748
aS'small'
p749
aS'men'
p750
aS'are'
p751
aS'cleverer'
p752
aS'than'
p753
aS'we'
p754
aS'are'
p755
aS','
p756
aS'so'
p757
aS'we'
p758
aS'will'
p759
aS'leave'
p760
aS'the'
p761
aS'decision'
p762
aS'to'
p763
aS'you'
p764
aS'.'
p765
asg57
(lp766
VThe
p767
aVsmall
p768
aVmen
p769
ag715
aVcleverer
p770
aVthan
p771
aVwe
p772
ag715
ag64
aVso
p773
aVwe
p774
aVwill
p775
aVleave
p776
aVthe
p777
aVdecision
p778
aVto
p779
aVyou
p780
ag93
asg94
(lp781
g96
ag96
ag96
ag96
ag96
ag96
ag96
ag96
ag96
ag96
ag96
ag96
ag96
ag96
ag96
ag96
ag96
ag96
asg97
(lp782
g102
ag109
ag107
ag743
ag101
ag110
ag113
ag743
ag104
ag101
ag113
ag351
ag112
ag102
ag103
ag114
ag113
ag116
asg117
VThe small men are cleverer than we are, so we will leave the decision to you.
p783
sba(i__main__
Sentence
p784
(dp785
g17
I12
sg18
(lp786
S'How'
p787
aS'can'
p788
aS'you'
p789
aS'dispute'
p790
aS'about'
p791
aS'an'
p792
aS'old'
p793
aS'cap'
p794
aS','
p795
aS'said'
p796
aS'the'
p797
aS'youth'
p798
aS'.'
p799
asg57
(lp800
VHow
p801
aVcan
p802
aVyou
p803
aVdispute
p804
aVabout
p805
aVan
p806
aVold
p807
aVcap
p808
ag64
ag713
aVthe
p809
aVyouth
p810
ag93
asg94
(lp811
g96
ag96
ag96
ag96
ag96
ag96
ag96
ag96
ag96
ag96
ag96
ag96
ag96
asg97
(lp812
g619
ag351
ag113
ag112
ag110
ag102
ag109
ag103
ag104
ag100
ag102
ag103
ag116
asg117
VHow can you dispute about an old cap, said the youth.
p813
sba(i__main__
Sentence
p814
(dp815
g17
I13
sg18
(lp816
S'You'
p817
aS'do'
p818
aS'not'
p819
aS'know'
p820
aS'what'
p821
aS'properties'
p822
aS'it'
p823
aS'has'
p824
aS'.'
p825
asg57
(lp826
VYou
p827
aVdo
p828
aVnot
p829
aVknow
p830
aVwhat
p831
aVproperty
p832
aVit
p833
aVhave
p834
ag93
asg94
(lp835
g96
ag96
ag96
ag96
ag96
ag96
ag96
ag96
ag96
asg97
(lp836
g113
ag743
ag101
ag112
ag105
ag107
ag113
ag259
ag116
asg117
VYou do not know what properties it has.
p837
sba(i__main__
Sentence
p838
(dp839
g17
I14
sg18
(lp840
S'It'
p841
aS'is'
p842
aS'a'
p843
aS'wishing-cap'
p844
aS','
p845
aS'whosoever'
p846
aS'puts'
p847
aS'it'
p848
aS'on'
p849
aS','
p850
aS'can'
p851
aS'wish'
p852
aS'himself'
p853
aS'away'
p854
aS'wherever'
p855
aS'he'
p856
aS'likes'
p857
aS','
p858
aS'and'
p859
aS'in'
p860
aS'an'
p861
aS'instant'
p862
aS'he'
p863
aS'will'
p864
aS'be'
p865
aS'there'
p866
aS'.'
p867
asg57
(lp868
VIt
p869
ag724
ag73
aVwishing-cap
p870
ag64
aVwhosoever
p871
aVput
p872
aVit
p873
aVon
p874
ag64
aVcan
p875
aVwish
p876
aVhimself
p877
aVaway
p878
aVwherever
p879
aVhe
p880
aVlike
p881
ag64
aVand
p882
aVin
p883
aVan
p884
aVinstant
p885
aVhe
p886
aVwill
p887
aVbe
p888
aVthere
p889
ag93
asg94
(lp890
g96
ag96
ag96
ag96
ag96
ag96
ag96
ag96
ag96
ag96
ag96
ag96
ag96
ag96
ag96
ag96
ag96
ag96
ag96
ag96
ag96
ag96
ag96
ag96
ag96
ag96
ag96
asg97
(lp891
g113
ag259
ag102
ag109
ag104
ag101
ag259
ag113
ag110
ag104
ag351
ag112
ag113
ag101
ag101
ag113
ag259
ag104
ag111
ag110
ag102
ag109
ag113
ag351
ag112
ag101
ag116
asg117
VIt is a wishing-cap, whosoever puts it on, can wish himself away wherever he likes, and in an instant he will be there.
p892
sba(i__main__
Sentence
p893
(dp894
g17
I15
sg18
(lp895
S'Give'
p896
aS'me'
p897
aS'the'
p898
aS'cap'
p899
aS','
p900
aS'said'
p901
aS'the'
p902
aS'youth'
p903
aS','
p904
aS'I'
p905
aS'will'
p906
aS'go'
p907
aS'a'
p908
aS'short'
p909
aS'distance'
p910
aS'off'
p911
aS','
p912
aS'and'
p913
aS'when'
p914
aS'I'
p915
aS'call'
p916
aS'you'
p917
aS','
p918
aS'you'
p919
aS'must'
p920
aS'run'
p921
aS'a'
p922
aS'race'
p923
aS','
p924
aS'and'
p925
aS'the'
p926
aS'cap'
p927
aS'shall'
p928
aS'belong'
p929
aS'to'
p930
aS'the'
p931
aS'one'
p932
aS'who'
p933
aS'gets'
p934
aS'first'
p935
aS'to'
p936
aS'me'
p937
aS'.'
p938
asg57
(lp939
VGive
p940
aVme
p941
aVthe
p942
aVcap
p943
ag64
ag713
aVthe
p944
aVyouth
p945
ag64
aVI
p946
aVwill
p947
aVgo
p948
ag73
aVshort
p949
aVdistance
p950
aVoff
p951
ag64
aVand
p952
aVwhen
p953
ag946
aVcall
p954
aVyou
p955
ag64
aVyou
p956
aVmust
p957
aVrun
p958
ag73
aVrace
p959
ag64
aVand
p960
aVthe
p961
aVcap
p962
aVshall
p963
aVbelong
p964
aVto
p965
aVthe
p966
aVone
p967
aVwho
p968
aVget
p969
aVfirst
p970
aVto
p971
aVme
p972
ag93
asg94
(lp973
g96
ag96
ag96
ag96
ag96
ag96
ag96
ag96
ag96
ag96
ag96
ag96
ag96
ag96
ag96
ag96
ag96
ag96
ag96
ag96
ag96
ag96
ag96
ag96
ag96
ag96
ag96
ag96
ag96
ag96
ag96
ag96
ag96
ag96
ag96
ag96
ag96
ag96
ag96
ag96
ag96
ag96
ag96
asg97
(lp974
g109
ag113
ag102
ag103
ag104
ag100
ag102
ag103
ag104
ag113
ag351
ag112
ag102
ag109
ag103
ag110
ag104
ag111
ag619
ag113
ag743
ag113
ag104
ag113
ag351
ag112
ag102
ag103
ag104
ag111
ag102
ag103
ag351
ag112
ag114
ag102
ag106
ag105
ag107
ag101
ag114
ag113
ag116
asg117
VGive me the cap, said the youth, I will go a short distance off, and when I call you, you must run a race, and the cap shall belong to the one who gets first to me.
p975
sba(i__main__
Sentence
p976
(dp977
g17
I16
sg18
(lp978
S'He'
p979
aS'put'
p980
aS'it'
p981
aS'on'
p982
aS'and'
p983
aS'went'
p984
aS'away'
p985
aS','
p986
aS'and'
p987
aS'thought'
p988
aS'of'
p989
aS'the'
p990
aS'king'
p991
aS"'s"
p992
aS'daughter'
p993
aS','
p994
aS'forgot'
p995
aS'the'
p996
aS'giants'
p997
aS','
p998
aS'and'
p999
aS'walked'
p1000
aS'continually'
p1001
aS'onward'
p1002
aS'.'
p1003
asg57
(lp1004
VHe
p1005
aVput
p1006
aVit
p1007
aVon
p1008
aVand
p1009
ag346
aVaway
p1010
ag64
aVand
p1011
ag84
aVof
p1012
aVthe
p1013
aVking
p1014
aV's
p1015
aVdaughter
p1016
ag64
aVforget
p1017
aVthe
p1018
aVgiant
p1019
ag64
aVand
p1020
aVwalk
p1021
aVcontinually
p1022
aVonward
p1023
ag93
asg94
(lp1024
g96
ag96
ag96
ag96
ag96
ag96
ag96
ag96
ag96
ag96
ag96
ag96
ag96
ag96
ag96
ag96
ag96
ag96
ag96
ag96
ag96
ag96
ag96
ag96
ag96
asg97
(lp1025
g113
ag100
ag113
ag110
ag111
ag100
ag101
ag104
ag111
ag100
ag110
ag102
ag103
ag412
ag103
ag104
ag100
ag102
ag107
ag104
ag111
ag100
ag101
ag109
ag116
asg117
VHe put it on and went away, and thought of the king's daughter, forgot the giants, and walked continually onward.
p1026
sba(i__main__
Sentence
p1027
(dp1028
g17
I17
sg18
(lp1029
S'At'
p1030
aS'length'
p1031
aS'he'
p1032
aS'sighed'
p1033
aS'from'
p1034
aS'the'
p1035
aS'very'
p1036
aS'bottom'
p1037
aS'of'
p1038
aS'his'
p1039
aS'heart'
p1040
aS','
p1041
aS'and'
p1042
aS'cried'
p1043
aS','
p1044
aS'ah'
p1045
aS','
p1046
aS'if'
p1047
aS'I'
p1048
aS'were'
p1049
aS'but'
p1050
aS'at'
p1051
aS'the'
p1052
aS'castle'
p1053
aS'of'
p1054
aS'the'
p1055
aS'golden'
p1056
aS'sun'
p1057
aS'.'
p1058
asg57
(lp1059
VAt
p1060
aVlength
p1061
aVhe
p1062
aVsigh
p1063
aVfrom
p1064
aVthe
p1065
aVvery
p1066
aVbottom
p1067
aVof
p1068
aVhis
p1069
aVheart
p1070
ag64
aVand
p1071
aVcry
p1072
ag64
aVah
p1073
ag64
aVif
p1074
ag946
aVbe
p1075
aVbut
p1076
aVat
p1077
aVthe
p1078
aVcastle
p1079
aVof
p1080
aVthe
p1081
aVgolden
p1082
aVsun
p1083
ag93
asg94
(lp1084
g96
ag96
ag96
ag96
ag96
ag96
ag96
ag96
ag96
ag96
ag96
ag96
ag96
ag96
ag96
ag96
ag96
ag96
ag96
ag96
ag96
ag96
ag96
ag96
ag96
ag96
ag96
ag96
ag96
asg97
(lp1085
g110
ag103
ag113
ag100
ag110
ag102
ag109
ag103
ag110
ag115
ag103
ag104
ag111
ag100
ag104
ag103
ag104
ag110
ag113
ag100
ag111
ag110
ag102
ag103
ag110
ag102
ag109
ag103
ag116
asg117
VAt length he sighed from the very bottom of his heart, and cried, ah, if I were but at the castle of the golden sun.
p1086
sba(i__main__
Sentence
p1087
(dp1088
g17
I18
sg18
(lp1089
S'And'
p1090
aS'hardly'
p1091
aS'had'
p1092
aS'the'
p1093
aS'words'
p1094
aS'passed'
p1095
aS'his'
p1096
aS'lips'
p1097
aS'than'
p1098
aS'he'
p1099
aS'was'
p1100
aS'standing'
p1101
aS'on'
p1102
aS'a'
p1103
aS'high'
p1104
aS'mountain'
p1105
aS'before'
p1106
aS'the'
p1107
aS'gate'
p1108
aS'of'
p1109
aS'the'
p1110
aS'castle'
p1111
aS'.'
p1112
asg57
(lp1113
VAnd
p1114
aVhardly
p1115
ag66
aVthe
p1116
aVword
p1117
aVpass
p1118
aVhis
p1119
aVlip
p1120
aVthan
p1121
aVhe
p1122
ag60
aVstand
p1123
aVon
p1124
ag73
aVhigh
p1125
aVmountain
p1126
aVbefore
p1127
aVthe
p1128
aVgate
p1129
aVof
p1130
aVthe
p1131
aVcastle
p1132
ag93
asg94
(lp1133
g96
ag96
ag96
ag96
ag96
ag96
ag96
ag96
ag96
ag96
ag96
ag96
ag96
ag96
ag96
ag96
ag96
ag96
ag96
ag96
ag96
ag96
ag96
asg97
(lp1134
g111
ag101
ag100
ag102
ag107
ag100
ag115
ag107
ag110
ag113
ag100
ag184
ag110
ag102
ag109
ag103
ag110
ag102
ag103
ag110
ag102
ag103
ag116
asg117
VAnd hardly had the words passed his lips than he was standing on a high mountain before the gate of the castle.
p1135
sba(i__main__
Sentence
p1136
(dp1137
g17
I19
sg18
(lp1138
S'He'
p1139
aS'entered'
p1140
aS'and'
p1141
aS'went'
p1142
aS'through'
p1143
aS'all'
p1144
aS'the'
p1145
aS'rooms'
p1146
aS','
p1147
aS'until'
p1148
aS'in'
p1149
aS'the'
p1150
aS'last'
p1151
aS'he'
p1152
aS'found'
p1153
aS'the'
p1154
aS'king'
p1155
aS"'s"
p1156
aS'daughter'
p1157
aS'.'
p1158
asg57
(lp1159
VHe
p1160
aVenter
p1161
aVand
p1162
ag346
aVthrough
p1163
aVall
p1164
aVthe
p1165
aVroom
p1166
ag64
aVuntil
p1167
aVin
p1168
aVthe
p1169
aVlast
p1170
aVhe
p1171
aVfind
p1172
aVthe
p1173
aVking
p1174
aV's
p1175
aVdaughter
p1176
ag93
asg94
(lp1177
g96
ag96
ag96
ag96
ag96
ag96
ag96
ag96
ag96
ag96
ag96
ag96
ag96
ag96
ag96
ag96
ag96
ag96
ag96
ag96
asg97
(lp1178
g113
ag100
ag111
ag100
ag110
ag102
ag102
ag107
ag104
ag110
ag110
ag102
ag109
ag113
ag100
ag102
ag103
ag412
ag103
ag116
asg117
VHe entered and went through all the rooms, until in the last he found the king's daughter.
p1179
sba(i__main__
Sentence
p1180
(dp1181
g17
I20
sg18
(lp1182
S'But'
p1183
aS'how'
p1184
aS'shocked'
p1185
aS'he'
p1186
aS'was'
p1187
aS'when'
p1188
aS'he'
p1189
aS'saw'
p1190
aS'her'
p1191
aS'.'
p1192
asg57
(lp1193
VBut
p1194
aVhow
p1195
aVshock
p1196
aVhe
p1197
ag60
aVwhen
p1198
aVhe
p1199
aVsaw
p1200
aVher
p1201
ag93
asg94
(lp1202
g96
ag96
ag96
ag96
ag96
ag96
ag96
ag96
ag96
ag96
asg97
(lp1203
g111
ag619
ag108
ag113
ag100
ag619
ag113
ag100
ag113
ag116
asg117
VBut how shocked he was when he saw her.
p1204
sba(i__main__
Sentence
p1205
(dp1206
g17
I21
sg18
(lp1207
S'She'
p1208
aS'had'
p1209
aS'an'
p1210
aS'ashen-gray'
p1211
aS'face'
p1212
aS'full'
p1213
aS'of'
p1214
aS'wrinkles'
p1215
aS','
p1216
aS'bleary'
p1217
aS'eyes'
p1218
aS','
p1219
aS'and'
p1220
aS'red'
p1221
aS'hair'
p1222
aS'.'
p1223
asg57
(lp1224
VShe
p1225
ag66
aVan
p1226
aVashen-gray
p1227
aVface
p1228
aVfull
p1229
aVof
p1230
aVwrinkle
p1231
ag64
aVbleary
p1232
aVeye
p1233
ag64
aVand
p1234
aVred
p1235
aVhair
p1236
ag93
asg94
(lp1237
g96
ag96
ag96
ag96
ag96
ag96
ag96
ag96
ag96
ag96
ag96
ag96
ag96
ag96
ag96
ag96
asg97
(lp1238
g113
ag100
ag102
ag109
ag103
ag109
ag110
ag107
ag104
ag109
ag107
ag104
ag111
ag100
ag103
ag116
asg117
VShe had an ashen-gray face full of wrinkles, bleary eyes, and red hair.
p1239
sba(i__main__
Sentence
p1240
(dp1241
g17
I22
sg18
(lp1242
S'Are'
p1243
aS'you'
p1244
aS'the'
p1245
aS'king'
p1246
aS"'s"
p1247
aS'daughter'
p1248
aS','
p1249
aS'whose'
p1250
aS'beauty'
p1251
aS'the'
p1252
aS'whole'
p1253
aS'world'
p1254
aS'praises'
p1255
aS','
p1256
aS'cried'
p1257
aS'he'
p1258
aS'.'
p1259
asg57
(lp1260
VAre
p1261
aVyou
p1262
aVthe
p1263
aVking
p1264
aV's
p1265
aVdaughter
p1266
ag64
aVwhose
p1267
aVbeauty
p1268
aVthe
p1269
aVwhole
p1270
aVworld
p1271
aVpraise
p1272
ag64
ag1072
aVhe
p1273
ag93
asg94
(lp1274
g96
ag96
ag96
ag96
ag96
ag96
ag96
ag96
ag96
ag96
ag96
ag96
ag96
ag96
ag96
ag96
ag96
asg97
(lp1275
S'NNP'
p1276
ag113
ag102
ag184
ag412
ag103
ag104
aS'WP$'
p1277
ag103
ag102
ag109
ag103
ag107
ag104
ag100
ag113
ag116
asg117
VAre you the king's daughter, whose beauty the whole world praises, cried he.
p1278
sba(i__main__
Sentence
p1279
(dp1280
g17
I23
sg18
(lp1281
S'Ah'
p1282
aS','
p1283
aS'she'
p1284
aS'answered'
p1285
aS','
p1286
aS'this'
p1287
aS'is'
p1288
aS'not'
p1289
aS'my'
p1290
aS'form'
p1291
aS','
p1292
aS'human'
p1293
aS'eyes'
p1294
aS'can'
p1295
aS'only'
p1296
aS'see'
p1297
aS'me'
p1298
aS'in'
p1299
aS'this'
p1300
aS'state'
p1301
aS'of'
p1302
aS'ugliness'
p1303
aS','
p1304
aS'but'
p1305
aS'that'
p1306
aS'you'
p1307
aS'may'
p1308
aS'know'
p1309
aS'what'
p1310
aS'I'
p1311
aS'am'
p1312
aS'like'
p1313
aS','
p1314
aS'look'
p1315
aS'in'
p1316
aS'the'
p1317
aS'mirror'
p1318
aS'-'
p1319
aS'it'
p1320
aS'does'
p1321
aS'not'
p1322
aS'let'
p1323
aS'itself'
p1324
aS'be'
p1325
aS'misled'
p1326
aS'-'
p1327
aS'it'
p1328
aS'will'
p1329
aS'show'
p1330
aS'you'
p1331
aS'my'
p1332
aS'image'
p1333
aS'as'
p1334
aS'it'
p1335
aS'is'
p1336
aS'in'
p1337
aS'truth'
p1338
aS'.'
p1339
asg57
(lp1340
VAh
p1341
ag64
aVshe
p1342
aVanswer
p1343
ag64
aVthis
p1344
ag724
aVnot
p1345
aVmy
p1346
aVform
p1347
ag64
aVhuman
p1348
aVeye
p1349
aVcan
p1350
aVonly
p1351
aVsee
p1352
aVme
p1353
aVin
p1354
aVthis
p1355
aVstate
p1356
aVof
p1357
aVugliness
p1358
ag64
aVbut
p1359
aVthat
p1360
aVyou
p1361
aVmay
p1362
aVknow
p1363
aVwhat
p1364
ag946
aVbe
p1365
aVlike
p1366
ag64
aVlook
p1367
aVin
p1368
aVthe
p1369
aVmirror
p1370
ag341
aVit
p1371
aVdo
p1372
aVnot
p1373
aVlet
p1374
aVitself
p1375
aVbe
p1376
aVmislead
p1377
ag341
aVit
p1378
aVwill
p1379
aVshow
p1380
aVyou
p1381
aVmy
p1382
aVimage
p1383
ag73
aVit
p1384
ag724
aVin
p1385
aVtruth
p1386
ag93
asg94
(lp1387
g96
ag96
ag96
ag96
ag96
ag96
ag96
ag96
ag96
ag96
ag96
ag96
ag96
ag96
ag96
ag96
ag96
ag96
ag96
ag96
ag96
ag96
ag96
ag96
ag96
ag96
ag96
ag96
ag96
ag96
ag96
ag96
ag96
ag96
ag96
ag96
ag96
ag96
ag96
ag96
ag96
ag96
ag96
ag96
ag96
ag96
ag96
ag96
ag96
ag96
ag96
ag96
ag96
ag96
ag96
ag96
ag96
ag96
asg97
(lp1388
g1276
ag104
ag113
ag100
ag104
ag102
ag259
ag101
ag115
ag103
ag104
ag109
ag107
ag351
ag101
ag112
ag113
ag110
ag102
ag103
ag110
ag103
ag104
ag111
ag110
ag113
ag351
ag112
ag105
ag113
ag743
ag110
ag104
ag743
ag110
ag102
ag103
ag352
ag113
ag259
ag101
ag112
ag113
ag112
ag108
ag352
ag113
ag351
ag112
ag113
ag115
ag103
ag110
ag113
ag259
ag110
ag103
ag116
asg117
VAh, she answered, this is not my form, human eyes can only see me in this state of ugliness, but that you may know what I am like, look in the mirror - it does not let itself be misled - it will show you my image as it is in truth.
p1389
sba(i__main__
Sentence
p1390
(dp1391
g17
I24
sg18
(lp1392
S'She'
p1393
aS'gave'
p1394
aS'him'
p1395
aS'the'
p1396
aS'mirror'
p1397
aS'in'
p1398
aS'his'
p1399
aS'hand'
p1400
aS','
p1401
aS'and'
p1402
aS'he'
p1403
aS'saw'
p1404
aS'therein'
p1405
aS'the'
p1406
aS'likeness'
p1407
aS'of'
p1408
aS'the'
p1409
aS'most'
p1410
aS'beautiful'
p1411
aS'maiden'
p1412
aS'on'
p1413
aS'earth'
p1414
aS','
p1415
aS'and'
p1416
aS'saw'
p1417
aS','
p1418
aS'too'
p1419
aS','
p1420
aS'how'
p1421
aS'the'
p1422
aS'tears'
p1423
aS'were'
p1424
aS'rolling'
p1425
aS'down'
p1426
aS'her'
p1427
aS'cheeks'
p1428
aS'with'
p1429
aS'grief'
p1430
aS'.'
p1431
asg57
(lp1432
VShe
p1433
aVgive
p1434
aVhim
p1435
aVthe
p1436
aVmirror
p1437
aVin
p1438
aVhis
p1439
aVhand
p1440
ag64
aVand
p1441
aVhe
p1442
aVsaw
p1443
aVtherein
p1444
aVthe
p1445
aVlikeness
p1446
aVof
p1447
aVthe
p1448
aVmost
p1449
aVbeautiful
p1450
aVmaiden
p1451
aVon
p1452
aVearth
p1453
ag64
aVand
p1454
aVsaw
p1455
ag64
aVtoo
p1456
ag64
aVhow
p1457
aVthe
p1458
aVtear
p1459
ag1075
aVroll
p1460
aVdown
p1461
aVher
p1462
aVcheek
p1463
aVwith
p1464
aVgrief
p1465
ag93
asg94
(lp1466
g96
ag96
ag96
ag96
ag96
ag96
ag96
ag96
ag96
ag96
ag96
ag96
ag96
ag96
ag96
ag96
ag96
ag96
ag96
ag96
ag96
ag96
ag96
ag96
ag96
ag96
ag96
ag96
ag96
ag96
ag96
ag96
ag96
ag96
ag96
ag96
ag96
ag96
ag96
asg97
(lp1467
g113
ag100
ag113
ag102
ag103
ag110
ag115
ag103
ag104
ag111
ag113
ag100
ag103
ag102
ag103
ag110
ag102
aS'RBS'
p1468
ag109
ag103
ag110
ag109
ag104
ag111
ag100
ag104
ag101
ag104
ag619
ag102
ag107
ag100
ag184
ag110
ag115
ag107
ag110
ag109
ag116
asg117
VShe gave him the mirror in his hand, and he saw therein the likeness of the most beautiful maiden on earth, and saw, too, how the tears were rolling down her cheeks with grief.
p1469
sba(i__main__
Sentence
p1470
(dp1471
g17
I25
sg18
(lp1472
S'Then'
p1473
aS'said'
p1474
aS'he'
p1475
aS','
p1476
aS'how'
p1477
aS'can'
p1478
aS'you'
p1479
aS'be'
p1480
aS'set'
p1481
aS'free'
p1482
aS'.'
p1483
asg57
(lp1484
VThen
p1485
ag713
aVhe
p1486
ag64
aVhow
p1487
aVcan
p1488
aVyou
p1489
aVbe
p1490
aVset
p1491
aVfree
p1492
ag93
asg94
(lp1493
g96
ag96
ag96
ag96
ag96
ag96
ag96
ag96
ag96
ag96
ag96
asg97
(lp1494
g101
ag100
ag113
ag104
ag619
ag351
ag113
ag112
ag108
ag109
ag116
asg117
VThen said he, how can you be set free.
p1495
sba(i__main__
Sentence
p1496
(dp1497
g17
I26
sg18
(lp1498
S'I'
p1499
aS'fear'
p1500
aS'no'
p1501
aS'danger'
p1502
aS'.'
p1503
asg57
(lp1504
g946
aVfear
p1505
aVno
p1506
aVdanger
p1507
ag93
asg94
(lp1508
g96
ag96
ag96
ag96
ag96
asg97
(lp1509
g113
ag743
ag102
ag103
ag116
asg117
VI fear no danger.
p1510
sba(i__main__
Sentence
p1511
(dp1512
g17
I27
sg18
(lp1513
S'She'
p1514
aS'said'
p1515
aS','
p1516
aS'he'
p1517
aS'who'
p1518
aS'gets'
p1519
aS'the'
p1520
aS'crystal'
p1521
aS'ball'
p1522
aS','
p1523
aS'and'
p1524
aS'holds'
p1525
aS'it'
p1526
aS'before'
p1527
aS'the'
p1528
aS'enchanter'
p1529
aS','
p1530
aS'will'
p1531
aS'destroy'
p1532
aS'his'
p1533
aS'power'
p1534
aS'with'
p1535
aS'it'
p1536
aS','
p1537
aS'and'
p1538
aS'I'
p1539
aS'shall'
p1540
aS'resume'
p1541
aS'my'
p1542
aS'true'
p1543
aS'shape'
p1544
aS'.'
p1545
asg57
(lp1546
VShe
p1547
ag713
ag64
aVhe
p1548
aVwho
p1549
aVget
p1550
aVthe
p1551
aVcrystal
p1552
aVball
p1553
ag64
aVand
p1554
aVhold
p1555
aVit
p1556
aVbefore
p1557
aVthe
p1558
aVenchanter
p1559
ag64
aVwill
p1560
aVdestroy
p1561
aVhis
p1562
aVpower
p1563
aVwith
p1564
aVit
p1565
ag64
aVand
p1566
ag946
aVshall
p1567
aVresume
p1568
aVmy
p1569
aVtrue
p1570
aVshape
p1571
ag93
asg94
(lp1572
g96
ag96
ag96
ag96
ag96
ag96
ag96
ag96
ag96
ag96
ag96
ag96
ag96
ag96
ag96
ag96
ag96
ag96
ag96
ag96
ag96
ag96
ag96
ag96
ag96
ag96
ag96
ag96
ag96
ag96
ag96
ag96
asg97
(lp1573
g113
ag100
ag104
ag113
ag105
ag259
ag102
ag103
ag103
ag104
ag111
ag107
ag113
ag110
ag102
ag103
ag104
ag351
ag112
ag115
ag103
ag110
ag113
ag104
ag111
ag113
ag351
ag112
ag115
ag109
ag103
ag116
asg117
VShe said, he who gets the crystal ball, and holds it before the enchanter, will destroy his power with it, and I shall resume my true shape.
p1574
sba(i__main__
Sentence
p1575
(dp1576
g17
I28
sg18
(lp1577
S'Ah'
p1578
aS','
p1579
aS'she'
p1580
aS'added'
p1581
aS','
p1582
aS'so'
p1583
aS'many'
p1584
aS'have'
p1585
aS'already'
p1586
aS'gone'
p1587
aS'to'
p1588
aS'meet'
p1589
aS'death'
p1590
aS'for'
p1591
aS'this'
p1592
aS','
p1593
aS'and'
p1594
aS'you'
p1595
aS'are'
p1596
aS'so'
p1597
aS'young'
p1598
aS','
p1599
aS'I'
p1600
aS'grieve'
p1601
aS'that'
p1602
aS'you'
p1603
aS'should'
p1604
aS'encounter'
p1605
aS'such'
p1606
aS'great'
p1607
aS'danger'
p1608
aS'.'
p1609
asg57
(lp1610
VAh
p1611
ag64
aVshe
p1612
aVadd
p1613
ag64
aVso
p1614
aVmany
p1615
aVhave
p1616
aValready
p1617
aVgo
p1618
aVto
p1619
aVmeet
p1620
aVdeath
p1621
aVfor
p1622
aVthis
p1623
ag64
aVand
p1624
aVyou
p1625
ag715
aVso
p1626
aVyoung
p1627
ag64
ag946
aVgrieve
p1628
aVthat
p1629
aVyou
p1630
aVshould
p1631
aVencounter
p1632
aVsuch
p1633
aVgreat
p1634
aVdanger
p1635
ag93
asg94
(lp1636
g96
ag96
ag96
ag96
ag96
ag96
ag96
ag96
ag96
ag96
ag96
ag96
ag96
ag96
ag96
ag96
ag96
ag96
ag96
ag96
ag96
ag96
ag96
ag96
ag96
ag96
ag96
ag96
ag96
ag96
ag96
ag96
asg97
(lp1637
g1276
ag104
ag113
ag100
ag104
ag101
ag109
ag743
ag101
ag108
ag114
ag112
ag103
ag110
ag102
ag104
ag111
ag113
ag743
ag101
ag109
ag104
ag113
ag743
ag110
ag113
ag351
ag112
ag109
ag109
ag103
ag116
asg117
VAh, she added, so many have already gone to meet death for this, and you are so young, I grieve that you should encounter such great danger.
p1638
sba(i__main__
Sentence
p1639
(dp1640
g17
I29
sg18
(lp1641
S'Nothing'
p1642
aS'can'
p1643
aS'keep'
p1644
aS'me'
p1645
aS'from'
p1646
aS'doing'
p1647
aS'it'
p1648
aS','
p1649
aS'said'
p1650
aS'he'
p1651
aS','
p1652
aS'but'
p1653
aS'tell'
p1654
aS'me'
p1655
aS'what'
p1656
aS'I'
p1657
aS'must'
p1658
aS'do'
p1659
aS'.'
p1660
asg57
(lp1661
VNothing
p1662
aVcan
p1663
aVkeep
p1664
aVme
p1665
aVfrom
p1666
aVdo
p1667
aVit
p1668
ag64
ag713
aVhe
p1669
ag64
aVbut
p1670
aVtell
p1671
aVme
p1672
aVwhat
p1673
ag946
aVmust
p1674
aVdo
p1675
ag93
asg94
(lp1676
g96
ag96
ag96
ag96
ag96
ag96
ag96
ag96
ag96
ag96
ag96
ag96
ag96
ag96
ag96
ag96
ag96
ag96
ag96
asg97
(lp1677
g103
ag351
ag112
ag113
ag110
ag184
ag113
ag104
ag100
ag113
ag104
ag111
ag101
ag113
ag105
ag113
ag351
ag112
ag116
asg117
VNothing can keep me from doing it, said he, but tell me what I must do.
p1678
sba(i__main__
Sentence
p1679
(dp1680
g17
I30
sg18
(lp1681
S'You'
p1682
aS'shall'
p1683
aS'know'
p1684
aS'everything'
p1685
aS','
p1686
aS'said'
p1687
aS'the'
p1688
aS'king'
p1689
aS"'s"
p1690
aS'daughter'
p1691
aS','
p1692
aS'when'
p1693
aS'you'
p1694
aS'descend'
p1695
aS'the'
p1696
aS'mountain'
p1697
aS'on'
p1698
aS'which'
p1699
aS'the'
p1700
aS'castle'
p1701
aS'stands'
p1702
aS','
p1703
aS'a'
p1704
aS'wild'
p1705
aS'bull'
p1706
aS'will'
p1707
aS'stand'
p1708
aS'below'
p1709
aS'by'
p1710
aS'a'
p1711
aS'spring'
p1712
aS','
p1713
aS'and'
p1714
aS'you'
p1715
aS'must'
p1716
aS'fight'
p1717
aS'with'
p1718
aS'it'
p1719
aS','
p1720
aS'and'
p1721
aS'if'
p1722
aS'you'
p1723
aS'have'
p1724
aS'the'
p1725
aS'luck'
p1726
aS'to'
p1727
aS'kill'
p1728
aS'it'
p1729
aS','
p1730
aS'a'
p1731
aS'fiery'
p1732
aS'bird'
p1733
aS'will'
p1734
aS'spring'
p1735
aS'out'
p1736
aS'of'
p1737
aS'it'
p1738
aS','
p1739
aS'which'
p1740
aS'bears'
p1741
aS'in'
p1742
aS'its'
p1743
aS'body'
p1744
aS'a'
p1745
aS'red-hot'
p1746
aS'egg'
p1747
aS','
p1748
aS'and'
p1749
aS'in'
p1750
aS'the'
p1751
aS'egg'
p1752
aS'the'
p1753
aS'crystal'
p1754
aS'ball'
p1755
aS'lies'
p1756
aS'as'
p1757
aS'its'
p1758
aS'yolk'
p1759
aS'.'
p1760
asg57
(lp1761
VYou
p1762
aVshall
p1763
aVknow
p1764
aVeverything
p1765
ag64
ag713
aVthe
p1766
aVking
p1767
aV's
p1768
aVdaughter
p1769
ag64
aVwhen
p1770
aVyou
p1771
aVdescend
p1772
aVthe
p1773
aVmountain
p1774
aVon
p1775
aVwhich
p1776
aVthe
p1777
aVcastle
p1778
aVstand
p1779
ag64
ag73
aVwild
p1780
aVbull
p1781
aVwill
p1782
aVstand
p1783
aVbelow
p1784
aVby
p1785
ag73
aVspring
p1786
ag64
aVand
p1787
aVyou
p1788
aVmust
p1789
aVfight
p1790
aVwith
p1791
aVit
p1792
ag64
aVand
p1793
aVif
p1794
aVyou
p1795
aVhave
p1796
aVthe
p1797
aVluck
p1798
aVto
p1799
aVkill
p1800
aVit
p1801
ag64
ag73
aVfiery
p1802
aVbird
p1803
aVwill
p1804
aVspring
p1805
aVout
p1806
aVof
p1807
aVit
p1808
ag64
aVwhich
p1809
aVbear
p1810
aVin
p1811
aVit
p1812
aVbody
p1813
ag73
aVred-hot
p1814
aVegg
p1815
ag64
aVand
p1816
aVin
p1817
aVthe
p1818
aVegg
p1819
aVthe
p1820
aVcrystal
p1821
aVball
p1822
aVlie
p1823
ag73
aVit
p1824
aVyolk
p1825
ag93
asg94
(lp1826
g96
ag96
ag96
ag96
ag96
ag96
ag96
ag96
ag96
ag96
ag96
ag96
ag96
ag96
ag96
ag96
ag96
ag96
ag96
ag96
ag96
ag96
ag96
ag96
ag96
ag96
ag96
ag96
ag96
ag96
ag96
ag96
ag96
ag96
ag96
ag96
ag96
ag96
ag96
ag96
ag96
ag96
ag96
ag96
ag96
ag96
ag96
ag96
ag96
ag96
ag96
ag96
ag96
ag96
ag96
ag96
ag96
ag96
ag96
ag96
ag96
ag96
ag96
ag96
ag96
ag96
ag96
ag96
ag96
ag96
ag96
ag96
ag96
ag96
ag96
ag96
ag96
ag96
ag96
asg97
(lp1827
g113
ag351
ag112
ag103
ag104
ag100
ag102
ag103
ag412
ag103
ag104
ag619
ag113
ag743
ag102
ag103
ag110
ag183
ag102
ag103
ag259
ag104
ag102
ag103
ag103
ag351
ag112
ag110
ag110
ag102
ag103
ag104
ag111
ag113
ag351
ag112
ag110
ag113
ag104
ag111
ag110
ag113
ag743
ag102
ag103
ag114
ag112
ag113
ag104
ag102
ag103
ag103
ag351
ag103
ag110
ag110
ag113
ag104
ag183
ag107
ag110
ag115
ag103
ag102
ag109
ag103
ag104
ag111
ag110
ag102
ag103
ag102
ag103
ag103
ag107
ag110
ag115
ag103
ag116
asg117
VYou shall know everything, said the king's daughter, when you descend the mountain on which the castle stands, a wild bull will stand below by a spring, and you must fight with it, and if you have the luck to kill it, a fiery bird will spring out of it, which bears in its body a red-hot egg, and in the egg the crystal ball lies as its yolk.
p1828
sba(i__main__
Sentence
p1829
(dp1830
g17
I31
sg18
(lp1831
S'The'
p1832
aS'bird'
p1833
aS','
p1834
aS'however'
p1835
aS','
p1836
aS'will'
p1837
aS'not'
p1838
aS'let'
p1839
aS'the'
p1840
aS'egg'
p1841
aS'fall'
p1842
aS'until'
p1843
aS'forced'
p1844
aS'to'
p1845
aS'do'
p1846
aS'so'
p1847
aS','
p1848
aS'and'
p1849
aS'if'
p1850
aS'it'
p1851
aS'falls'
p1852
aS'on'
p1853
aS'the'
p1854
aS'ground'
p1855
aS','
p1856
aS'it'
p1857
aS'will'
p1858
aS'flame'
p1859
aS'up'
p1860
aS'and'
p1861
aS'burn'
p1862
aS'everything'
p1863
aS'that'
p1864
aS'is'
p1865
aS'near'
p1866
aS','
p1867
aS'and'
p1868
aS'even'
p1869
aS'the'
p1870
aS'egg'
p1871
aS'itself'
p1872
aS'will'
p1873
aS'melt'
p1874
aS','
p1875
aS'and'
p1876
aS'with'
p1877
aS'it'
p1878
aS'the'
p1879
aS'crystal'
p1880
aS'ball'
p1881
aS','
p1882
aS'and'
p1883
aS'then'
p1884
aS'your'
p1885
aS'trouble'
p1886
aS'will'
p1887
aS'have'
p1888
aS'been'
p1889
aS'in'
p1890
aS'vain'
p1891
aS'.'
p1892
asg57
(lp1893
VThe
p1894
aVbird
p1895
ag64
aVhowever
p1896
ag64
aVwill
p1897
aVnot
p1898
aVlet
p1899
aVthe
p1900
aVegg
p1901
aVfall
p1902
aVuntil
p1903
aVforce
p1904
aVto
p1905
aVdo
p1906
aVso
p1907
ag64
aVand
p1908
aVif
p1909
aVit
p1910
aVfall
p1911
aVon
p1912
aVthe
p1913
aVground
p1914
ag64
aVit
p1915
aVwill
p1916
aVflame
p1917
aVup
p1918
aVand
p1919
aVburn
p1920
aVeverything
p1921
aVthat
p1922
ag724
aVnear
p1923
ag64
aVand
p1924
aVeven
p1925
aVthe
p1926
aVegg
p1927
aVitself
p1928
aVwill
p1929
aVmelt
p1930
ag64
aVand
p1931
aVwith
p1932
aVit
p1933
aVthe
p1934
aVcrystal
p1935
aVball
p1936
ag64
aVand
p1937
aVthen
p1938
aVyour
p1939
aVtrouble
p1940
aVwill
p1941
aVhave
p1942
aVbe
p1943
aVin
p1944
aVvain
p1945
ag93
asg94
(lp1946
g96
ag96
ag96
ag96
ag96
ag96
ag96
ag96
ag96
ag96
ag96
ag96
ag96
ag96
ag96
ag96
ag96
ag96
ag96
ag96
ag96
ag96
ag96
ag96
ag96
ag96
ag96
ag96
ag96
ag96
ag96
ag96
ag96
ag96
ag96
ag96
ag96
ag96
ag96
ag96
ag96
ag96
ag96
ag96
ag96
ag96
ag96
ag96
ag96
ag96
ag96
ag96
ag96
ag96
ag96
ag96
ag96
ag96
ag96
ag96
ag96
asg97
(lp1947
g102
ag103
ag104
ag101
ag104
ag351
ag101
ag112
ag102
ag103
ag103
ag110
ag108
ag114
ag112
ag101
ag104
ag111
ag110
ag113
ag259
ag110
ag102
ag103
ag104
ag113
ag351
ag112
ag260
ag111
ag103
ag103
ag183
ag259
ag110
ag104
ag111
ag101
ag102
ag103
ag113
ag351
ag112
ag104
ag111
ag110
ag113
ag102
ag103
ag103
ag104
ag111
ag101
ag115
ag103
ag351
ag112
ag108
ag110
ag103
ag116
asg117
VThe bird, however, will not let the egg fall until forced to do so, and if it falls on the ground, it will flame up and burn everything that is near, and even the egg itself will melt, and with it the crystal ball, and then your trouble will have been in vain.
p1948
sba(i__main__
Sentence
p1949
(dp1950
g17
I32
sg18
(lp1951
S'The'
p1952
aS'youth'
p1953
aS'went'
p1954
aS'down'
p1955
aS'to'
p1956
aS'the'
p1957
aS'spring'
p1958
aS','
p1959
aS'where'
p1960
aS'the'
p1961
aS'bull'
p1962
aS'snorted'
p1963
aS'and'
p1964
aS'bellowed'
p1965
aS'at'
p1966
aS'him'
p1967
aS'.'
p1968
asg57
(lp1969
VThe
p1970
aVyouth
p1971
ag346
aVdown
p1972
aVto
p1973
aVthe
p1974
aVspring
p1975
ag64
aVwhere
p1976
aVthe
p1977
aVbull
p1978
aVsnort
p1979
aVand
p1980
aVbellow
p1981
aVat
p1982
aVhim
p1983
ag93
asg94
(lp1984
g96
ag96
ag96
ag96
ag96
ag96
ag96
ag96
ag96
ag96
ag96
ag96
ag96
ag96
ag96
ag96
ag96
asg97
(lp1985
g102
ag103
ag100
ag110
ag114
ag102
ag103
ag104
ag619
ag102
ag109
ag108
ag111
ag100
ag110
ag113
ag116
asg117
VThe youth went down to the spring, where the bull snorted and bellowed at him.
p1986
sba(i__main__
Sentence
p1987
(dp1988
g17
I33
sg18
(lp1989
S'After'
p1990
aS'a'
p1991
aS'long'
p1992
aS'struggle'
p1993
aS'he'
p1994
aS'plunged'
p1995
aS'his'
p1996
aS'sword'
p1997
aS'in'
p1998
aS'the'
p1999
aS'animal'
p2000
aS"'s"
p2001
aS'body'
p2002
aS','
p2003
aS'and'
p2004
aS'it'
p2005
aS'fell'
p2006
aS'down'
p2007
aS'.'
p2008
asg57
(lp2009
VAfter
p2010
ag73
aVlong
p2011
aVstruggle
p2012
aVhe
p2013
aVplunge
p2014
aVhis
p2015
aVsword
p2016
aVin
p2017
aVthe
p2018
aVanimal
p2019
aV's
p2020
aVbody
p2021
ag64
aVand
p2022
aVit
p2023
aVfell
p2024
aVdown
p2025
ag93
asg94
(lp2026
g96
ag96
ag96
ag96
ag96
ag96
ag96
ag96
ag96
ag96
ag96
ag96
ag96
ag96
ag96
ag96
ag96
ag96
ag96
asg97
(lp2027
g110
ag102
ag109
ag103
ag113
ag100
ag115
ag103
ag110
ag102
ag109
ag412
ag103
ag104
ag111
ag113
ag100
ag260
ag116
asg117
VAfter a long struggle he plunged his sword in the animal's body, and it fell down.
p2028
sba(i__main__
Sentence
p2029
(dp2030
g17
I34
sg18
(lp2031
S'Instantly'
p2032
aS'a'
p2033
aS'fiery'
p2034
aS'bird'
p2035
aS'arose'
p2036
aS'from'
p2037
aS'it'
p2038
aS'and'
p2039
aS'was'
p2040
aS'about'
p2041
aS'to'
p2042
aS'fly'
p2043
aS'away'
p2044
aS','
p2045
aS'but'
p2046
aS'the'
p2047
aS'young'
p2048
aS'man'
p2049
aS"'s"
p2050
aS'brother'
p2051
aS','
p2052
aS'the'
p2053
aS'eagle'
p2054
aS','
p2055
aS'who'
p2056
aS'was'
p2057
aS'passing'
p2058
aS'between'
p2059
aS'the'
p2060
aS'clouds'
p2061
aS','
p2062
aS'swooped'
p2063
aS'down'
p2064
aS','
p2065
aS'hunted'
p2066
aS'it'
p2067
aS'away'
p2068
aS'to'
p2069
aS'the'
p2070
aS'sea'
p2071
aS','
p2072
aS'and'
p2073
aS'struck'
p2074
aS'it'
p2075
aS'with'
p2076
aS'his'
p2077
aS'beak'
p2078
aS'until'
p2079
aS','
p2080
aS'in'
p2081
aS'its'
p2082
aS'extremity'
p2083
aS','
p2084
aS'it'
p2085
aS'let'
p2086
aS'the'
p2087
aS'egg'
p2088
aS'fall'
p2089
aS'.'
p2090
asg57
(lp2091
VInstantly
p2092
ag73
aVfiery
p2093
aVbird
p2094
aVarose
p2095
aVfrom
p2096
aVit
p2097
aVand
p2098
ag60
aVabout
p2099
aVto
p2100
aVfly
p2101
aVaway
p2102
ag64
aVbut
p2103
aVthe
p2104
aVyoung
p2105
aVman
p2106
aV's
p2107
aVbrother
p2108
ag64
aVthe
p2109
aVeagle
p2110
ag64
aVwho
p2111
ag60
aVpass
p2112
aVbetween
p2113
aVthe
p2114
aVcloud
p2115
ag64
aVswoop
p2116
aVdown
p2117
ag64
aVhunt
p2118
aVit
p2119
aVaway
p2120
aVto
p2121
aVthe
p2122
aVsea
p2123
ag64
aVand
p2124
aVstruck
p2125
aVit
p2126
aVwith
p2127
aVhis
p2128
aVbeak
p2129
aVuntil
p2130
ag64
aVin
p2131
aVit
p2132
aVextremity
p2133
ag64
aVit
p2134
aVlet
p2135
aVthe
p2136
aVegg
p2137
aVfall
p2138
ag93
asg94
(lp2139
g96
ag96
ag96
ag96
ag96
ag96
ag96
ag96
ag96
ag96
ag96
ag96
ag96
ag96
ag96
ag96
ag96
ag96
ag96
ag96
ag96
ag96
ag96
ag96
ag96
ag96
ag96
ag96
ag96
ag96
ag96
ag96
ag96
ag96
ag96
ag96
ag96
ag96
ag96
ag96
ag96
ag96
ag96
ag96
ag96
ag96
ag96
ag96
ag96
ag96
ag96
ag96
ag96
ag96
ag96
ag96
ag96
ag96
ag96
asg97
(lp2140
g101
ag102
ag103
ag103
ag103
ag110
ag113
ag111
ag100
ag110
ag114
ag101
ag101
ag104
ag111
ag102
ag109
ag103
ag412
ag103
ag104
ag102
ag103
ag104
ag105
ag100
ag184
ag110
ag102
ag107
ag104
ag100
ag101
ag104
ag108
ag113
ag101
ag114
ag102
ag103
ag104
ag111
ag103
ag113
ag110
ag115
ag103
ag110
ag104
ag110
ag115
ag103
ag104
ag113
ag100
ag102
ag103
ag103
ag116
asg117
VInstantly a fiery bird arose from it and was about to fly away, but the young man's brother, the eagle, who was passing between the clouds, swooped down, hunted it away to the sea, and struck it with his beak until, in its extremity, it let the egg fall.
p2141
sba(i__main__
Sentence
p2142
(dp2143
g17
I35
sg18
(lp2144
S'The'
p2145
aS'egg'
p2146
aS','
p2147
aS'however'
p2148
aS','
p2149
aS'did'
p2150
aS'not'
p2151
aS'fall'
p2152
aS'into'
p2153
aS'the'
p2154
aS'sea'
p2155
aS','
p2156
aS'but'
p2157
aS'on'
p2158
aS'a'
p2159
aS'fisherman'
p2160
aS"'s"
p2161
aS'hut'
p2162
aS'which'
p2163
aS'stood'
p2164
aS'on'
p2165
aS'the'
p2166
aS'shore'
p2167
aS'and'
p2168
aS'the'
p2169
aS'hut'
p2170
aS'began'
p2171
aS'at'
p2172
aS'once'
p2173
aS'to'
p2174
aS'smoke'
p2175
aS'and'
p2176
aS'was'
p2177
aS'about'
p2178
aS'to'
p2179
aS'break'
p2180
aS'out'
p2181
aS'in'
p2182
aS'flames'
p2183
aS'.'
p2184
asg57
(lp2185
VThe
p2186
aVegg
p2187
ag64
aVhowever
p2188
ag64
ag79
aVnot
p2189
aVfall
p2190
aVinto
p2191
aVthe
p2192
aVsea
p2193
ag64
aVbut
p2194
aVon
p2195
ag73
aVfisherman
p2196
aV's
p2197
aVhut
p2198
aVwhich
p2199
aVstood
p2200
aVon
p2201
aVthe
p2202
aVshore
p2203
aVand
p2204
aVthe
p2205
aVhut
p2206
aVbegin
p2207
aVat
p2208
aVonce
p2209
aVto
p2210
aVsmoke
p2211
aVand
p2212
ag60
aVabout
p2213
aVto
p2214
aVbreak
p2215
aVout
p2216
aVin
p2217
aVflame
p2218
ag93
asg94
(lp2219
g96
ag96
ag96
ag96
ag96
ag96
ag96
ag96
ag96
ag96
ag96
ag96
ag96
ag96
ag96
ag96
ag96
ag96
ag96
ag96
ag96
ag96
ag96
ag96
ag96
ag96
ag96
ag96
ag96
ag96
ag96
ag96
ag96
ag96
ag96
ag96
ag96
ag96
ag96
ag96
asg97
(lp2220
g102
ag103
ag104
ag101
ag104
ag100
ag101
ag112
ag110
ag102
ag103
ag104
ag111
ag110
ag102
ag103
ag412
ag103
ag183
ag103
ag110
ag102
ag103
ag111
ag102
ag103
ag100
ag110
ag101
ag114
ag112
ag111
ag100
ag110
ag114
ag112
ag260
ag110
ag107
ag116
asg117
VThe egg, however, did not fall into the sea, but on a fisherman's hut which stood on the shore and the hut began at once to smoke and was about to break out in flames.
p2221
sba(i__main__
Sentence
p2222
(dp2223
g17
I36
sg18
(lp2224
S'Then'
p2225
aS'arose'
p2226
aS'in'
p2227
aS'the'
p2228
aS'sea'
p2229
aS'waves'
p2230
aS'as'
p2231
aS'high'
p2232
aS'as'
p2233
aS'a'
p2234
aS'house'
p2235
aS','
p2236
aS'which'
p2237
aS'streamed'
p2238
aS'over'
p2239
aS'the'
p2240
aS'hut'
p2241
aS','
p2242
aS'and'
p2243
aS'subdued'
p2244
aS'the'
p2245
aS'fire'
p2246
aS'.'
p2247
asg57
(lp2248
VThen
p2249
aVarise
p2250
aVin
p2251
aVthe
p2252
aVsea
p2253
aVwave
p2254
ag73
aVhigh
p2255
ag73
ag73
aVhouse
p2256
ag64
aVwhich
p2257
aVstream
p2258
aVover
p2259
aVthe
p2260
aVhut
p2261
ag64
aVand
p2262
aVsubdue
p2263
aVthe
p2264
aVfire
p2265
ag93
asg94
(lp2266
g96
ag96
ag96
ag96
ag96
ag96
ag96
ag96
ag96
ag96
ag96
ag96
ag96
ag96
ag96
ag96
ag96
ag96
ag96
ag96
ag96
ag96
ag96
asg97
(lp2267
g101
ag100
ag110
ag102
ag103
ag259
ag110
ag109
ag110
ag102
ag103
ag104
ag183
ag108
ag110
ag102
ag103
ag104
ag111
ag100
ag102
ag103
ag116
asg117
VThen arose in the sea waves as high as a house, which streamed over the hut, and subdued the fire.
p2268
sba(i__main__
Sentence
p2269
(dp2270
g17
I37
sg18
(lp2271
S'The'
p2272
aS'other'
p2273
aS'brother'
p2274
aS','
p2275
aS'the'
p2276
aS'whale'
p2277
aS','
p2278
aS'had'
p2279
aS'come'
p2280
aS'swimming'
p2281
aS'to'
p2282
aS'them'
p2283
aS','
p2284
aS'and'
p2285
aS'had'
p2286
aS'driven'
p2287
aS'the'
p2288
aS'water'
p2289
aS'up'
p2290
aS'on'
p2291
aS'high'
p2292
aS'.'
p2293
asg57
(lp2294
VThe
p2295
aVother
p2296
aVbrother
p2297
ag64
aVthe
p2298
aVwhale
p2299
ag64
ag66
aVcome
p2300
aVswim
p2301
aVto
p2302
aVthem
p2303
ag64
aVand
p2304
ag66
aVdrive
p2305
aVthe
p2306
aVwater
p2307
aVup
p2308
aVon
p2309
aVhigh
p2310
ag93
asg94
(lp2311
g96
ag96
ag96
ag96
ag96
ag96
ag96
ag96
ag96
ag96
ag96
ag96
ag96
ag96
ag96
ag96
ag96
ag96
ag96
ag96
ag96
ag96
asg97
(lp2312
g102
ag109
ag103
ag104
ag102
ag103
ag104
ag100
ag108
ag184
ag114
ag113
ag104
ag111
ag100
ag108
ag102
ag103
ag260
ag110
ag109
ag116
asg117
VThe other brother, the whale, had come swimming to them, and had driven the water up on high.
p2313
sba(i__main__
Sentence
p2314
(dp2315
g17
I38
sg18
(lp2316
S'When'
p2317
aS'the'
p2318
aS'fire'
p2319
aS'was'
p2320
aS'extinguished'
p2321
aS','
p2322
aS'the'
p2323
aS'youth'
p2324
aS'sought'
p2325
aS'for'
p2326
aS'the'
p2327
aS'egg'
p2328
aS'and'
p2329
aS'happily'
p2330
aS'found'
p2331
aS'it'
p2332
aS','
p2333
aS'it'
p2334
aS'was'
p2335
aS'not'
p2336
aS'yet'
p2337
aS'melted'
p2338
aS','
p2339
aS'but'
p2340
aS'the'
p2341
aS'shell'
p2342
aS'was'
p2343
aS'broken'
p2344
aS'by'
p2345
aS'being'
p2346
aS'so'
p2347
aS'suddenly'
p2348
aS'cooled'
p2349
aS'with'
p2350
aS'the'
p2351
aS'water'
p2352
aS','
p2353
aS'and'
p2354
aS'he'
p2355
aS'could'
p2356
aS'take'
p2357
aS'out'
p2358
aS'the'
p2359
aS'crystal'
p2360
aS'ball'
p2361
aS'unhurt'
p2362
aS'.'
p2363
asg57
(lp2364
VWhen
p2365
aVthe
p2366
aVfire
p2367
ag60
aVextinguish
p2368
ag64
aVthe
p2369
aVyouth
p2370
aVseek
p2371
aVfor
p2372
aVthe
p2373
aVegg
p2374
aVand
p2375
aVhappily
p2376
ag1172
aVit
p2377
ag64
aVit
p2378
ag60
aVnot
p2379
aVyet
p2380
aVmelt
p2381
ag64
aVbut
p2382
aVthe
p2383
aVshell
p2384
ag60
aVbreak
p2385
aVby
p2386
aVbe
p2387
aVso
p2388
aVsuddenly
p2389
aVcool
p2390
aVwith
p2391
aVthe
p2392
aVwater
p2393
ag64
aVand
p2394
aVhe
p2395
aVcould
p2396
aVtake
p2397
aVout
p2398
aVthe
p2399
aVcrystal
p2400
aVball
p2401
aVunhurt
p2402
ag93
asg94
(lp2403
g96
ag96
ag96
ag96
ag96
ag96
ag96
ag96
ag96
ag96
ag96
ag96
ag96
ag96
ag96
ag96
ag96
ag96
ag96
ag96
ag96
ag96
ag96
ag96
ag96
ag96
ag96
ag96
ag96
ag96
ag96
ag96
ag96
ag96
ag96
ag96
ag96
ag96
ag96
ag96
ag96
ag96
ag96
ag96
ag96
ag96
ag96
asg97
(lp2404
g619
ag102
ag103
ag100
ag108
ag104
ag102
ag103
ag100
ag110
ag102
ag103
ag111
ag101
ag108
ag113
ag104
ag113
ag100
ag101
ag101
ag108
ag104
ag111
ag102
ag103
ag100
ag108
ag110
ag184
ag101
ag101
ag108
ag110
ag102
ag103
ag104
ag111
ag113
ag351
ag112
ag260
ag102
ag103
ag103
ag103
ag116
asg117
VWhen the fire was extinguished, the youth sought for the egg and happily found it, it was not yet melted, but the shell was broken by being so suddenly cooled with the water, and he could take out the crystal ball unhurt.
p2405
sba(i__main__
Sentence
p2406
(dp2407
g17
I39
sg18
(lp2408
S'When'
p2409
aS'the'
p2410
aS'youth'
p2411
aS'went'
p2412
aS'to'
p2413
aS'the'
p2414
aS'enchanter'
p2415
aS'and'
p2416
aS'held'
p2417
aS'it'
p2418
aS'before'
p2419
aS'him'
p2420
aS','
p2421
aS'the'
p2422
aS'latter'
p2423
aS'said'
p2424
aS','
p2425
aS'my'
p2426
aS'power'
p2427
aS'is'
p2428
aS'destroyed'
p2429
aS','
p2430
aS'and'
p2431
aS'from'
p2432
aS'this'
p2433
aS'time'
p2434
aS'forth'
p2435
aS'you'
p2436
aS'are'
p2437
aS'the'
p2438
aS'king'
p2439
aS'of'
p2440
aS'the'
p2441
aS'castle'
p2442
aS'of'
p2443
aS'the'
p2444
aS'golden'
p2445
aS'sun'
p2446
aS'.'
p2447
asg57
(lp2448
VWhen
p2449
aVthe
p2450
aVyouth
p2451
ag346
aVto
p2452
aVthe
p2453
aVenchanter
p2454
aVand
p2455
aVhold
p2456
aVit
p2457
aVbefore
p2458
aVhim
p2459
ag64
aVthe
p2460
aVlatter
p2461
ag713
ag64
aVmy
p2462
aVpower
p2463
ag724
aVdestroy
p2464
ag64
aVand
p2465
aVfrom
p2466
aVthis
p2467
aVtime
p2468
aVforth
p2469
aVyou
p2470
ag715
aVthe
p2471
aVking
p2472
aVof
p2473
aVthe
p2474
aVcastle
p2475
aVof
p2476
aVthe
p2477
aVgolden
p2478
aVsun
p2479
ag93
asg94
(lp2480
g96
ag96
ag96
ag96
ag96
ag96
ag96
ag96
ag96
ag96
ag96
ag96
ag96
ag96
ag96
ag96
ag96
ag96
ag96
ag96
ag96
ag96
ag96
ag96
ag96
ag96
ag96
ag96
ag96
ag96
ag96
ag96
ag96
ag96
ag96
ag96
ag96
ag96
ag96
asg97
(lp2481
g619
ag102
ag103
ag100
ag114
ag102
ag103
ag111
ag100
ag113
ag110
ag113
ag104
ag102
ag103
ag100
ag104
ag115
ag103
ag259
ag108
ag104
ag111
ag110
ag102
ag103
ag103
ag113
ag743
ag102
ag184
ag110
ag102
ag103
ag110
ag102
ag109
ag103
ag116
asg117
VWhen the youth went to the enchanter and held it before him, the latter said, my power is destroyed, and from this time forth you are the king of the castle of the golden sun.
p2482
sba(i__main__
Sentence
p2483
(dp2484
g17
I40
sg18
(lp2485
S'With'
p2486
aS'this'
p2487
aS'you'
p2488
aS'can'
p2489
aS'likewise'
p2490
aS'give'
p2491
aS'back'
p2492
aS'to'
p2493
aS'your'
p2494
aS'brothers'
p2495
aS'their'
p2496
aS'human'
p2497
aS'form'
p2498
aS'.'
p2499
asg57
(lp2500
VWith
p2501
aVthis
p2502
aVyou
p2503
aVcan
p2504
aVlikewise
p2505
aVgive
p2506
aVback
p2507
aVto
p2508
aVyour
p2509
aVbrother
p2510
aVtheir
p2511
aVhuman
p2512
aVform
p2513
ag93
asg94
(lp2514
g96
ag96
ag96
ag96
ag96
ag96
ag96
ag96
ag96
ag96
ag96
ag96
ag96
ag96
asg97
(lp2515
g110
ag102
ag113
ag351
ag112
ag109
ag103
ag114
ag115
ag107
ag115
ag109
ag103
ag116
asg117
VWith this you can likewise give back to your brothers their human form.
p2516
sba(i__main__
Sentence
p2517
(dp2518
g17
I41
sg18
(lp2519
S'Then'
p2520
aS'the'
p2521
aS'youth'
p2522
aS'hastened'
p2523
aS'to'
p2524
aS'the'
p2525
aS'king'
p2526
aS"'s"
p2527
aS'daughter'
p2528
aS','
p2529
aS'and'
p2530
aS'when'
p2531
aS'he'
p2532
aS'entered'
p2533
aS'the'
p2534
aS'room'
p2535
aS','
p2536
aS'she'
p2537
aS'was'
p2538
aS'standing'
p2539
aS'there'
p2540
aS'in'
p2541
aS'the'
p2542
aS'full'
p2543
aS'splendor'
p2544
aS'of'
p2545
aS'her'
p2546
aS'beauty'
p2547
aS','
p2548
aS'and'
p2549
aS'joyfully'
p2550
aS'they'
p2551
aS'exchanged'
p2552
aS'rings'
p2553
aS'with'
p2554
aS'each'
p2555
aS'other'
p2556
aS'.'
p2557
asg57
(lp2558
VThen
p2559
aVthe
p2560
aVyouth
p2561
aVhasten
p2562
aVto
p2563
aVthe
p2564
aVking
p2565
aV's
p2566
aVdaughter
p2567
ag64
aVand
p2568
aVwhen
p2569
aVhe
p2570
aVenter
p2571
aVthe
p2572
aVroom
p2573
ag64
aVshe
p2574
ag60
aVstand
p2575
aVthere
p2576
aVin
p2577
aVthe
p2578
aVfull
p2579
aVsplendor
p2580
aVof
p2581
aVher
p2582
aVbeauty
p2583
ag64
aVand
p2584
aVjoyfully
p2585
aVthey
p2586
aVexchange
p2587
aVring
p2588
aVwith
p2589
aVeach
p2590
aVother
p2591
ag93
asg94
(lp2592
g96
ag96
ag96
ag96
ag96
ag96
ag96
ag96
ag96
ag96
ag96
ag96
ag96
ag96
ag96
ag96
ag96
ag96
ag96
ag96
ag96
ag96
ag96
ag96
ag96
ag96
ag96
ag96
ag96
ag96
ag96
ag96
ag96
ag96
ag96
ag96
ag96
ag96
asg97
(lp2593
g101
ag102
ag103
ag100
ag114
ag102
ag103
ag412
ag103
ag104
ag111
ag619
ag113
ag100
ag102
ag103
ag104
ag113
ag100
ag184
ag101
ag110
ag102
ag109
ag103
ag110
ag115
ag103
ag104
ag111
ag101
ag113
ag100
ag107
ag110
ag102
ag109
ag116
asg117
VThen the youth hastened to the king's daughter, and when he entered the room, she was standing there in the full splendor of her beauty, and joyfully they exchanged rings with each other. 
p2594
sbasbsS'summary'
p2595
g0
(g7
g2
Ntp2596
Rp2597
(dp2598
g11
S"Fearing they will steal her power, an enchantress changes her sons into animals. One is turned into an eagle and the second a whale. The third son flees his mother and runs away. The youth makes up his mind to travel to the castle of the golden sun and rescue a princess who is being held captive there. He arrives at the castle using a cap he steals from some giants. He finds the princess. She is ugly. She tells him that if he looks at her in the mirror he will see her real beauty. The princess tells the youth that in order for him to rescue her and change her back into her real self; he must get a crystal ball and use it to destroy the power of the enchanter. The youth's brothers help him recover the crystal ball safely..."
p2599
sg13
(lp2600
(i__main__
Sentence
p2601
(dp2602
g17
I0
sg18
(lp2603
S'Fearing'
p2604
aS'they'
p2605
aS'will'
p2606
aS'steal'
p2607
aS'her'
p2608
aS'power'
p2609
aS','
p2610
aS'an'
p2611
aS'enchantress'
p2612
aS'changes'
p2613
aS'her'
p2614
aS'sons'
p2615
aS'into'
p2616
aS'animals'
p2617
aS'.'
p2618
asg57
(lp2619
VFearing
p2620
aVthey
p2621
aVwill
p2622
aVsteal
p2623
aVher
p2624
aVpower
p2625
ag64
aVan
p2626
aVenchantress
p2627
aVchange
p2628
aVher
p2629
aVson
p2630
aVinto
p2631
aVanimal
p2632
ag93
asg94
(lp2633
g96
ag96
ag96
ag96
ag96
ag96
ag96
ag96
ag96
ag96
ag96
ag96
ag96
ag96
ag96
asg97
(lp2634
g184
ag113
ag351
ag112
ag113
ag103
ag104
ag102
ag103
ag107
ag115
ag107
ag110
ag107
ag116
asg117
VFearing they will steal her power, an enchantress changes her sons into animals.
p2635
sba(i__main__
Sentence
p2636
(dp2637
g17
I1
sg18
(lp2638
S'One'
p2639
aS'is'
p2640
aS'turned'
p2641
aS'into'
p2642
aS'an'
p2643
aS'eagle'
p2644
aS'and'
p2645
aS'the'
p2646
aS'second'
p2647
aS'a'
p2648
aS'whale'
p2649
aS'.'
p2650
asg57
(lp2651
VOne
p2652
ag724
aVturn
p2653
aVinto
p2654
aVan
p2655
aVeagle
p2656
aVand
p2657
aVthe
p2658
aVsecond
p2659
ag73
aVwhale
p2660
ag93
asg94
(lp2661
g96
ag96
ag96
ag96
ag96
ag96
ag96
ag96
ag96
ag96
ag96
ag96
asg97
(lp2662
g106
ag259
ag108
ag110
ag102
ag109
ag111
ag102
ag109
ag102
ag103
ag116
asg117
VOne is turned into an eagle and the second a whale.
p2663
sba(i__main__
Sentence
p2664
(dp2665
g17
I2
sg18
(lp2666
S'The'
p2667
aS'third'
p2668
aS'son'
p2669
aS'flees'
p2670
aS'his'
p2671
aS'mother'
p2672
aS'and'
p2673
aS'runs'
p2674
aS'away'
p2675
aS'.'
p2676
asg57
(lp2677
VThe
p2678
aVthird
p2679
aVson
p2680
aVflees
p2681
aVhis
p2682
aVmother
p2683
aVand
p2684
aVrun
p2685
aVaway
p2686
ag93
asg94
(lp2687
g96
ag96
ag96
ag96
ag96
ag96
ag96
ag96
ag96
ag96
asg97
(lp2688
g102
ag109
ag103
ag107
ag115
ag103
ag111
ag259
ag101
ag116
asg117
VThe third son flees his mother and runs away.
p2689
sba(i__main__
Sentence
p2690
(dp2691
g17
I3
sg18
(lp2692
S'The'
p2693
aS'youth'
p2694
aS'makes'
p2695
aS'up'
p2696
aS'his'
p2697
aS'mind'
p2698
aS'to'
p2699
aS'travel'
p2700
aS'to'
p2701
aS'the'
p2702
aS'castle'
p2703
aS'of'
p2704
aS'the'
p2705
aS'golden'
p2706
aS'sun'
p2707
aS'and'
p2708
aS'rescue'
p2709
aS'a'
p2710
aS'princess'
p2711
aS'who'
p2712
aS'is'
p2713
aS'being'
p2714
aS'held'
p2715
aS'captive'
p2716
aS'there'
p2717
aS'.'
p2718
asg57
(lp2719
VThe
p2720
aVyouth
p2721
aVmake
p2722
aVup
p2723
aVhis
p2724
aVmind
p2725
aVto
p2726
aVtravel
p2727
aVto
p2728
aVthe
p2729
aVcastle
p2730
aVof
p2731
aVthe
p2732
aVgolden
p2733
aVsun
p2734
aVand
p2735
aVrescue
p2736
ag73
aVprincess
p2737
aVwho
p2738
ag724
aVbe
p2739
ag2456
aVcaptive
p2740
aVthere
p2741
ag93
asg94
(lp2742
g96
ag96
ag96
ag96
ag96
ag96
ag96
ag96
ag96
ag96
ag96
ag96
ag96
ag96
ag96
ag96
ag96
ag96
ag96
ag96
ag96
ag96
ag96
ag96
ag96
ag96
asg97
(lp2743
g102
ag103
ag259
ag260
ag115
ag103
ag114
ag103
ag114
ag102
ag103
ag110
ag102
ag109
ag103
ag111
ag103
ag102
ag103
ag105
ag259
ag184
ag108
ag109
ag101
ag116
asg117
VThe youth makes up his mind to travel to the castle of the golden sun and rescue a princess who is being held captive there.
p2744
sba(i__main__
Sentence
p2745
(dp2746
g17
I4
sg18
(lp2747
S'He'
p2748
aS'arrives'
p2749
aS'at'
p2750
aS'the'
p2751
aS'castle'
p2752
aS'using'
p2753
aS'a'
p2754
aS'cap'
p2755
aS'he'
p2756
aS'steals'
p2757
aS'from'
p2758
aS'some'
p2759
aS'giants'
p2760
aS'.'
p2761
asg57
(lp2762
VHe
p2763
aVarrive
p2764
aVat
p2765
aVthe
p2766
aVcastle
p2767
aVuse
p2768
ag73
aVcap
p2769
aVhe
p2770
aVsteal
p2771
aVfrom
p2772
aVsome
p2773
aVgiant
p2774
ag93
asg94
(lp2775
g96
ag96
ag96
ag96
ag96
ag96
ag96
ag96
ag96
ag96
ag96
ag96
ag96
ag96
asg97
(lp2776
g113
ag259
ag110
ag102
ag103
ag184
ag102
ag103
ag113
ag259
ag110
ag102
ag107
ag116
asg117
VHe arrives at the castle using a cap he steals from some giants.
p2777
sba(i__main__
Sentence
p2778
(dp2779
g17
I5
sg18
(lp2780
S'He'
p2781
aS'finds'
p2782
aS'the'
p2783
aS'princess'
p2784
aS'.'
p2785
asg57
(lp2786
VHe
p2787
aVfind
p2788
aVthe
p2789
aVprincess
p2790
ag93
asg94
(lp2791
g96
ag96
ag96
ag96
ag96
asg97
(lp2792
g113
ag259
ag102
ag103
ag116
asg117
VHe finds the princess.
p2793
sba(i__main__
Sentence
p2794
(dp2795
g17
I6
sg18
(lp2796
S'She'
p2797
aS'is'
p2798
aS'ugly'
p2799
aS'.'
p2800
asg57
(lp2801
VShe
p2802
ag724
aVugly
p2803
ag93
asg94
(lp2804
g96
ag96
ag96
ag96
asg97
(lp2805
g113
ag259
ag101
ag116
asg117
VShe is ugly.
p2806
sba(i__main__
Sentence
p2807
(dp2808
g17
I7
sg18
(lp2809
S'She'
p2810
aS'tells'
p2811
aS'him'
p2812
aS'that'
p2813
aS'if'
p2814
aS'he'
p2815
aS'looks'
p2816
aS'at'
p2817
aS'her'
p2818
aS'in'
p2819
aS'the'
p2820
aS'mirror'
p2821
aS'he'
p2822
aS'will'
p2823
aS'see'
p2824
aS'her'
p2825
aS'real'
p2826
aS'beauty'
p2827
aS'.'
p2828
asg57
(lp2829
VShe
p2830
aVtell
p2831
aVhim
p2832
aVthat
p2833
aVif
p2834
aVhe
p2835
aVlook
p2836
aVat
p2837
aVher
p2838
aVin
p2839
aVthe
p2840
aVmirror
p2841
aVhe
p2842
aVwill
p2843
aVsee
p2844
aVher
p2845
aVreal
p2846
aVbeauty
p2847
ag93
asg94
(lp2848
g96
ag96
ag96
ag96
ag96
ag96
ag96
ag96
ag96
ag96
ag96
ag96
ag96
ag96
ag96
ag96
ag96
ag96
ag96
asg97
(lp2849
g113
ag259
ag113
ag110
ag110
ag113
ag259
ag110
ag115
ag110
ag102
ag103
ag113
ag351
ag112
ag113
ag109
ag103
ag116
asg117
VShe tells him that if he looks at her in the mirror he will see her real beauty.
p2850
sba(i__main__
Sentence
p2851
(dp2852
g17
I8
sg18
(lp2853
S'The'
p2854
aS'princess'
p2855
aS'tells'
p2856
aS'the'
p2857
aS'youth'
p2858
aS'that'
p2859
aS'in'
p2860
aS'order'
p2861
aS'for'
p2862
aS'him'
p2863
aS'to'
p2864
aS'rescue'
p2865
aS'her'
p2866
aS'and'
p2867
aS'change'
p2868
aS'her'
p2869
aS'back'
p2870
aS'into'
p2871
aS'her'
p2872
aS'real'
p2873
aS'self'
p2874
aS';'
p2875
aS'he'
p2876
aS'must'
p2877
aS'get'
p2878
aS'a'
p2879
aS'crystal'
p2880
aS'ball'
p2881
aS'and'
p2882
aS'use'
p2883
aS'it'
p2884
aS'to'
p2885
aS'destroy'
p2886
aS'the'
p2887
aS'power'
p2888
aS'of'
p2889
aS'the'
p2890
aS'enchanter'
p2891
aS'.'
p2892
asg57
(lp2893
VThe
p2894
aVprincess
p2895
aVtell
p2896
aVthe
p2897
aVyouth
p2898
aVthat
p2899
aVin
p2900
aVorder
p2901
aVfor
p2902
aVhim
p2903
aVto
p2904
aVrescue
p2905
aVher
p2906
aVand
p2907
aVchange
p2908
aVher
p2909
aVback
p2910
aVinto
p2911
aVher
p2912
aVreal
p2913
aVself
p2914
aV;
p2915
aVhe
p2916
aVmust
p2917
aVget
p2918
ag73
aVcrystal
p2919
aVball
p2920
aVand
p2921
aVuse
p2922
aVit
p2923
aVto
p2924
aVdestroy
p2925
aVthe
p2926
aVpower
p2927
aVof
p2928
aVthe
p2929
aVenchanter
p2930
ag93
asg94
(lp2931
g96
ag96
ag96
ag96
ag96
ag96
ag96
ag96
ag96
ag96
ag96
ag96
ag96
ag96
ag96
ag96
ag96
ag96
ag96
ag96
ag96
ag96
ag96
ag96
ag96
ag96
ag96
ag96
ag96
ag96
ag96
ag96
ag96
ag96
ag96
ag96
ag96
ag96
ag96
asg97
(lp2932
g102
ag103
ag259
ag102
ag103
ag110
ag110
ag103
ag110
ag113
ag114
ag112
ag115
ag111
ag103
ag115
ag103
ag110
ag115
ag109
ag103
ag352
ag113
ag351
ag112
ag102
ag103
ag103
ag111
ag743
ag113
ag114
ag112
ag102
ag103
ag110
ag102
ag103
ag116
asg117
VThe princess tells the youth that in order for him to rescue her and change her back into her real self; he must get a crystal ball and use it to destroy the power of the enchanter.
p2933
sba(i__main__
Sentence
p2934
(dp2935
g17
I9
sg18
(lp2936
S'The'
p2937
aS'youth'
p2938
aS"'s"
p2939
aS'brothers'
p2940
aS'help'
p2941
aS'him'
p2942
aS'recover'
p2943
aS'the'
p2944
aS'crystal'
p2945
aS'ball'
p2946
aS'safely'
p2947
aS'...'
p2948
asg57
(lp2949
VThe
p2950
aVyouth
p2951
aV's
p2952
aVbrother
p2953
aVhelp
p2954
aVhim
p2955
aVrecover
p2956
aVthe
p2957
aVcrystal
p2958
aVball
p2959
aVsafely
p2960
aV...
p2961
asg94
(lp2962
g96
ag96
ag96
ag96
ag96
ag96
ag96
ag96
ag96
ag96
ag96
ag96
asg97
(lp2963
g102
ag103
ag412
ag107
ag743
ag113
ag101
ag102
ag103
ag103
ag101
ag352
asg117
VThe youth's brothers help him recover the crystal ball safely...
p2964
sbasbsS'name'
p2965
S'The Crystal Ball'
p2966
sS'summaries'
p2967
(lp2968
g2597
asb.