ccopy_reg
_reconstructor
p0
(c__main__
Story
p1
c__builtin__
object
p2
Ntp3
Rp4
(dp5
S'text'
p6
g0
(c__main__
Document
p7
g2
Ntp8
Rp9
(dp10
S'_Document__initialContent'
p11
S'There was once a little girl who was obstinate and inquisitive,\nand when her parents told her to do anything, she did not obey\nthem, so how could she fare well.  One day she said to her\nparents, I have heard so much of frau trude, I will go to her\nsome day.  People say that everything about her does look so\nstrange, and that there are such odd things in her house, that\nI have become quite curious.  Her parents absolutely forbade\nher, and said, frau trude is a bad woman, who does wicked things,\nand if you go to her, you are no longer our child.  But the maiden\ndid not let herself be turned aside by her parents, prohibition,\nand still went to frau trude.  And when she got to her, frau\ntrude said, why are you so pale.  Ah, she replied, and her whole\nbody trembled, I have been so terrified at what I have seen.  What\nhave you seen.  I saw a black man on your steps.  That was a\ncollier.  Then I saw a green man.  That was a huntsman.  After\nthat I saw a blood-red man.  That was a butcher.  Ah, frau\ntrude, I was terrified.  I looked through the window and saw\nnot you, but, as I verily believe, the devil himself with a head\nof fire.  Oho. Said she, then you have seen the witch in her\nproper costume.  I have been waiting for you, and wanting you\na long time already.  You shall give me some light.  Then she\nchanged the girl into a block of wood, and threw it into the\nfire.  And when it was in a full blaze she sat down close to it,\nand warmed herself by it, and said, that shines bright for once\nin a way.\n'
p12
sS'sentences'
p13
(lp14
(i__main__
Sentence
p15
(dp16
S'index'
p17
I0
sS'words'
p18
(lp19
S'There'
p20
aS'was'
p21
aS'once'
p22
aS'a'
p23
aS'little'
p24
aS'girl'
p25
aS'who'
p26
aS'was'
p27
aS'obstinate'
p28
aS'and'
p29
aS'inquisitive'
p30
aS','
p31
aS'and'
p32
aS'when'
p33
aS'her'
p34
aS'parents'
p35
aS'told'
p36
aS'her'
p37
aS'to'
p38
aS'do'
p39
aS'anything'
p40
aS','
p41
aS'she'
p42
aS'did'
p43
aS'not'
p44
aS'obey'
p45
aS'them'
p46
aS','
p47
aS'so'
p48
aS'how'
p49
aS'could'
p50
aS'she'
p51
aS'fare'
p52
aS'well'
p53
aS'.'
p54
asS'lemmas'
p55
(lp56
VThere
p57
aVbe
p58
aVonce
p59
aVa
p60
aVlittle
p61
aVgirl
p62
aVwho
p63
ag58
aVobstinate
p64
aVand
p65
aVinquisitive
p66
aV,
p67
aVand
p68
aVwhen
p69
aVher
p70
aVparent
p71
aVtell
p72
aVher
p73
aVto
p74
aVdo
p75
aVanything
p76
ag67
aVshe
p77
aVdo
p78
aVnot
p79
aVobey
p80
aVthem
p81
ag67
aVso
p82
aVhow
p83
aVcould
p84
aVshe
p85
aVfare
p86
aVwell
p87
aV.
p88
asS'nerTags'
p89
(lp90
VO
p91
ag91
ag91
ag91
ag91
ag91
ag91
ag91
ag91
ag91
ag91
ag91
ag91
ag91
ag91
ag91
ag91
ag91
ag91
ag91
ag91
ag91
ag91
ag91
ag91
ag91
ag91
ag91
ag91
ag91
ag91
ag91
ag91
ag91
ag91
asS'posTags'
p92
(lp93
S'EX'
p94
aS'VBD'
p95
aS'RB'
p96
aS'DT'
p97
ag96
aS'NN'
p98
aS'WP'
p99
ag95
aS'VBP'
p100
aS'CC'
p101
aS'JJ'
p102
aS','
p103
ag101
aS'WRB'
p104
aS'PRP$'
p105
aS'NNS'
p106
ag95
aS'PRP'
p107
aS'TO'
p108
aS'VB'
p109
ag98
ag103
ag107
ag95
ag96
ag109
ag107
ag103
ag96
ag104
aS'MD'
p110
ag107
ag109
ag96
aS'.'
p111
asS'_Sentence__initialContent'
p112
VThere was once a little girl who was obstinate and inquisitive, and when her parents told her to do anything, she did not obey them, so how could she fare well.
p113
sba(i__main__
Sentence
p114
(dp115
g17
I1
sg18
(lp116
S'One'
p117
aS'day'
p118
aS'she'
p119
aS'said'
p120
aS'to'
p121
aS'her'
p122
aS'parents'
p123
aS','
p124
aS'I'
p125
aS'have'
p126
aS'heard'
p127
aS'so'
p128
aS'much'
p129
aS'of'
p130
aS'frau'
p131
aS'trude'
p132
aS','
p133
aS'I'
p134
aS'will'
p135
aS'go'
p136
aS'to'
p137
aS'her'
p138
aS'some'
p139
aS'day'
p140
aS'.'
p141
asg55
(lp142
VOne
p143
aVday
p144
aVshe
p145
aVsay
p146
aVto
p147
aVher
p148
aVparent
p149
ag67
aVI
p150
aVhave
p151
aVhear
p152
aVso
p153
aVmuch
p154
aVof
p155
aVfrau
p156
aVtrude
p157
ag67
ag150
aVwill
p158
aVgo
p159
aVto
p160
aVher
p161
aVsome
p162
aVday
p163
ag88
asg89
(lp164
g91
ag91
ag91
ag91
ag91
ag91
ag91
ag91
ag91
ag91
ag91
ag91
ag91
ag91
ag91
ag91
ag91
ag91
ag91
ag91
ag91
ag91
ag91
ag91
ag91
asg92
(lp165
S'CD'
p166
ag98
ag107
ag95
ag108
ag105
ag106
ag103
ag107
ag100
aS'VBN'
p167
ag96
ag96
aS'IN'
p168
ag98
ag98
ag103
ag107
ag110
ag109
ag108
ag105
ag97
ag98
ag111
asg112
VOne day she said to her parents, I have heard so much of frau trude, I will go to her some day.
p169
sba(i__main__
Sentence
p170
(dp171
g17
I2
sg18
(lp172
S'People'
p173
aS'say'
p174
aS'that'
p175
aS'everything'
p176
aS'about'
p177
aS'her'
p178
aS'does'
p179
aS'look'
p180
aS'so'
p181
aS'strange'
p182
aS','
p183
aS'and'
p184
aS'that'
p185
aS'there'
p186
aS'are'
p187
aS'such'
p188
aS'odd'
p189
aS'things'
p190
aS'in'
p191
aS'her'
p192
aS'house'
p193
aS','
p194
aS'that'
p195
aS'I'
p196
aS'have'
p197
aS'become'
p198
aS'quite'
p199
aS'curious'
p200
aS'.'
p201
asg55
(lp202
VPeople
p203
aVsay
p204
aVthat
p205
aVeverything
p206
aVabout
p207
aVher
p208
aVdoe
p209
aVlook
p210
aVso
p211
aVstrange
p212
ag67
aVand
p213
aVthat
p214
aVthere
p215
aVbe
p216
aVsuch
p217
aVodd
p218
aVthing
p219
aVin
p220
aVher
p221
aVhouse
p222
ag67
aVthat
p223
ag150
aVhave
p224
aVbecome
p225
aVquite
p226
aVcurious
p227
ag88
asg89
(lp228
g91
ag91
ag91
ag91
ag91
ag91
ag91
ag91
ag91
ag91
ag91
ag91
ag91
ag91
ag91
ag91
ag91
ag91
ag91
ag91
ag91
ag91
ag91
ag91
ag91
ag91
ag91
ag91
ag91
asg92
(lp229
g106
ag100
ag168
ag98
ag168
ag105
ag106
ag100
ag96
ag98
ag103
ag101
ag168
ag94
ag100
ag102
ag102
ag106
ag168
ag105
ag98
ag103
ag168
ag107
ag100
ag167
ag96
ag102
ag111
asg112
VPeople say that everything about her does look so strange, and that there are such odd things in her house, that I have become quite curious.
p230
sba(i__main__
Sentence
p231
(dp232
g17
I3
sg18
(lp233
S'Her'
p234
aS'parents'
p235
aS'absolutely'
p236
aS'forbade'
p237
aS'her'
p238
aS','
p239
aS'and'
p240
aS'said'
p241
aS','
p242
aS'frau'
p243
aS'trude'
p244
aS'is'
p245
aS'a'
p246
aS'bad'
p247
aS'woman'
p248
aS','
p249
aS'who'
p250
aS'does'
p251
aS'wicked'
p252
aS'things'
p253
aS','
p254
aS'and'
p255
aS'if'
p256
aS'you'
p257
aS'go'
p258
aS'to'
p259
aS'her'
p260
aS','
p261
aS'you'
p262
aS'are'
p263
aS'no'
p264
aS'longer'
p265
aS'our'
p266
aS'child'
p267
aS'.'
p268
asg55
(lp269
VHer
p270
aVparent
p271
aVabsolutely
p272
aVforbid
p273
aVher
p274
ag67
aVand
p275
ag146
ag67
aVfrau
p276
aVtrude
p277
aVbe
p278
ag60
aVbad
p279
aVwoman
p280
ag67
aVwho
p281
aVdo
p282
aVwicked
p283
aVthing
p284
ag67
aVand
p285
aVif
p286
aVyou
p287
aVgo
p288
aVto
p289
aVher
p290
ag67
aVyou
p291
ag216
aVno
p292
aVlong
p293
aVour
p294
aVchild
p295
ag88
asg89
(lp296
g91
ag91
ag91
ag91
ag91
ag91
ag91
ag91
ag91
ag91
ag91
ag91
ag91
ag91
ag91
ag91
ag91
ag91
ag91
ag91
ag91
ag91
ag91
ag91
ag91
ag91
ag91
ag91
ag91
ag91
ag91
ag91
ag91
ag91
ag91
asg92
(lp297
g105
ag106
ag96
ag100
ag107
ag103
ag101
ag95
ag103
ag98
ag98
aS'VBZ'
p298
ag97
ag102
ag98
ag103
ag99
ag298
ag167
ag106
ag103
ag101
ag168
ag107
ag100
ag108
ag105
ag103
ag107
ag100
ag97
aS'JJR'
p299
ag105
ag98
ag111
asg112
VHer parents absolutely forbade her, and said, frau trude is a bad woman, who does wicked things, and if you go to her, you are no longer our child.
p300
sba(i__main__
Sentence
p301
(dp302
g17
I4
sg18
(lp303
S'But'
p304
aS'the'
p305
aS'maiden'
p306
aS'did'
p307
aS'not'
p308
aS'let'
p309
aS'herself'
p310
aS'be'
p311
aS'turned'
p312
aS'aside'
p313
aS'by'
p314
aS'her'
p315
aS'parents'
p316
aS','
p317
aS'prohibition'
p318
aS','
p319
aS'and'
p320
aS'still'
p321
aS'went'
p322
aS'to'
p323
aS'frau'
p324
aS'trude'
p325
aS'.'
p326
asg55
(lp327
VBut
p328
aVthe
p329
aVmaiden
p330
ag78
aVnot
p331
aVlet
p332
aVherself
p333
aVbe
p334
aVturn
p335
aVaside
p336
aVby
p337
aVher
p338
aVparent
p339
ag67
aVprohibition
p340
ag67
aVand
p341
aVstill
p342
aVgo
p343
aVto
p344
aVfrau
p345
aVtrude
p346
ag88
asg89
(lp347
g91
ag91
ag91
ag91
ag91
ag91
ag91
ag91
ag91
ag91
ag91
ag91
ag91
ag91
ag91
ag91
ag91
ag91
ag91
ag91
ag91
ag91
ag91
asg92
(lp348
g101
ag97
ag98
ag95
ag96
ag109
ag107
ag109
ag167
ag98
ag168
ag105
ag106
ag103
ag98
ag103
ag101
ag96
ag95
ag108
ag109
ag98
ag111
asg112
VBut the maiden did not let herself be turned aside by her parents, prohibition, and still went to frau trude.
p349
sba(i__main__
Sentence
p350
(dp351
g17
I5
sg18
(lp352
S'And'
p353
aS'when'
p354
aS'she'
p355
aS'got'
p356
aS'to'
p357
aS'her'
p358
aS','
p359
aS'frau'
p360
aS'trude'
p361
aS'said'
p362
aS','
p363
aS'why'
p364
aS'are'
p365
aS'you'
p366
aS'so'
p367
aS'pale'
p368
aS'.'
p369
asg55
(lp370
VAnd
p371
aVwhen
p372
aVshe
p373
aVget
p374
aVto
p375
aVher
p376
ag67
aVfrau
p377
aVtrude
p378
ag146
ag67
aVwhy
p379
ag216
aVyou
p380
aVso
p381
aVpale
p382
ag88
asg89
(lp383
g91
ag91
ag91
ag91
ag91
ag91
ag91
ag91
ag91
ag91
ag91
ag91
ag91
ag91
ag91
ag91
ag91
asg92
(lp384
g101
ag104
ag107
ag95
ag108
ag105
ag103
ag98
ag98
ag95
ag103
ag104
ag100
ag107
ag96
ag102
ag111
asg112
VAnd when she got to her, frau trude said, why are you so pale.
p385
sba(i__main__
Sentence
p386
(dp387
g17
I6
sg18
(lp388
S'Ah'
p389
aS','
p390
aS'she'
p391
aS'replied'
p392
aS','
p393
aS'and'
p394
aS'her'
p395
aS'whole'
p396
aS'body'
p397
aS'trembled'
p398
aS','
p399
aS'I'
p400
aS'have'
p401
aS'been'
p402
aS'so'
p403
aS'terrified'
p404
aS'at'
p405
aS'what'
p406
aS'I'
p407
aS'have'
p408
aS'seen'
p409
aS'.'
p410
asg55
(lp411
VAh
p412
ag67
aVshe
p413
aVreply
p414
ag67
aVand
p415
aVher
p416
aVwhole
p417
aVbody
p418
aVtremble
p419
ag67
ag150
aVhave
p420
aVbe
p421
aVso
p422
aVterrify
p423
aVat
p424
aVwhat
p425
ag150
aVhave
p426
aVsee
p427
ag88
asg89
(lp428
g91
ag91
ag91
ag91
ag91
ag91
ag91
ag91
ag91
ag91
ag91
ag91
ag91
ag91
ag91
ag91
ag91
ag91
ag91
ag91
ag91
ag91
asg92
(lp429
S'NNP'
p430
ag103
ag107
ag95
ag103
ag101
ag105
ag98
ag98
ag95
ag103
ag107
ag100
ag167
ag96
ag167
ag168
ag99
ag107
ag100
ag167
ag111
asg112
VAh, she replied, and her whole body trembled, I have been so terrified at what I have seen.
p431
sba(i__main__
Sentence
p432
(dp433
g17
I7
sg18
(lp434
S'What'
p435
aS'have'
p436
aS'you'
p437
aS'seen'
p438
aS'.'
p439
asg55
(lp440
VWhat
p441
aVhave
p442
aVyou
p443
ag427
ag88
asg89
(lp444
g91
ag91
ag91
ag91
ag91
asg92
(lp445
g99
ag100
ag107
ag167
ag111
asg112
VWhat have you seen.
p446
sba(i__main__
Sentence
p447
(dp448
g17
I8
sg18
(lp449
S'I'
p450
aS'saw'
p451
aS'a'
p452
aS'black'
p453
aS'man'
p454
aS'on'
p455
aS'your'
p456
aS'steps'
p457
aS'.'
p458
asg55
(lp459
g150
aVsaw
p460
ag60
aVblack
p461
aVman
p462
aVon
p463
aVyour
p464
aVstep
p465
ag88
asg89
(lp466
g91
ag91
ag91
ag91
ag91
ag91
ag91
ag91
ag91
asg92
(lp467
g107
ag95
ag97
ag102
ag98
ag168
ag105
ag106
ag111
asg112
VI saw a black man on your steps.
p468
sba(i__main__
Sentence
p469
(dp470
g17
I9
sg18
(lp471
S'That'
p472
aS'was'
p473
aS'a'
p474
aS'collier'
p475
aS'.'
p476
asg55
(lp477
VThat
p478
ag58
ag60
aVcollier
p479
ag88
asg89
(lp480
g91
ag91
ag91
ag91
ag91
asg92
(lp481
g97
ag95
ag97
ag98
ag111
asg112
VThat was a collier.
p482
sba(i__main__
Sentence
p483
(dp484
g17
I10
sg18
(lp485
S'Then'
p486
aS'I'
p487
aS'saw'
p488
aS'a'
p489
aS'green'
p490
aS'man'
p491
aS'.'
p492
asg55
(lp493
VThen
p494
ag150
aVsaw
p495
ag60
aVgreen
p496
aVman
p497
ag88
asg89
(lp498
g91
ag91
ag91
ag91
ag91
ag91
ag91
asg92
(lp499
g96
ag107
ag95
ag97
ag102
ag98
ag111
asg112
VThen I saw a green man.
p500
sba(i__main__
Sentence
p501
(dp502
g17
I11
sg18
(lp503
S'That'
p504
aS'was'
p505
aS'a'
p506
aS'huntsman'
p507
aS'.'
p508
asg55
(lp509
VThat
p510
ag58
ag60
aVhuntsman
p511
ag88
asg89
(lp512
g91
ag91
ag91
ag91
ag91
asg92
(lp513
g97
ag95
ag97
ag98
ag111
asg112
VThat was a huntsman.
p514
sba(i__main__
Sentence
p515
(dp516
g17
I12
sg18
(lp517
S'After'
p518
aS'that'
p519
aS'I'
p520
aS'saw'
p521
aS'a'
p522
aS'blood-red'
p523
aS'man'
p524
aS'.'
p525
asg55
(lp526
VAfter
p527
aVthat
p528
ag150
aVsaw
p529
ag60
aVblood-red
p530
aVman
p531
ag88
asg89
(lp532
g91
ag91
ag91
ag91
ag91
ag91
ag91
ag91
asg92
(lp533
g168
ag97
ag107
ag95
ag97
ag102
ag98
ag111
asg112
VAfter that I saw a blood-red man.
p534
sba(i__main__
Sentence
p535
(dp536
g17
I13
sg18
(lp537
S'That'
p538
aS'was'
p539
aS'a'
p540
aS'butcher'
p541
aS'.'
p542
asg55
(lp543
VThat
p544
ag58
ag60
aVbutcher
p545
ag88
asg89
(lp546
g91
ag91
ag91
ag91
ag91
asg92
(lp547
g97
ag95
ag97
ag98
ag111
asg112
VThat was a butcher.
p548
sba(i__main__
Sentence
p549
(dp550
g17
I14
sg18
(lp551
S'Ah'
p552
aS','
p553
aS'frau'
p554
aS'trude'
p555
aS','
p556
aS'I'
p557
aS'was'
p558
aS'terrified'
p559
aS'.'
p560
asg55
(lp561
VAh
p562
ag67
aVfrau
p563
aVtrude
p564
ag67
ag150
ag58
ag423
ag88
asg89
(lp565
g91
ag91
ag91
ag91
ag91
ag91
ag91
ag91
ag91
asg92
(lp566
g430
ag103
ag98
ag98
ag103
ag107
ag95
ag167
ag111
asg112
VAh, frau trude, I was terrified.
p567
sba(i__main__
Sentence
p568
(dp569
g17
I15
sg18
(lp570
S'I'
p571
aS'looked'
p572
aS'through'
p573
aS'the'
p574
aS'window'
p575
aS'and'
p576
aS'saw'
p577
aS'not'
p578
aS'you'
p579
aS','
p580
aS'but'
p581
aS','
p582
aS'as'
p583
aS'I'
p584
aS'verily'
p585
aS'believe'
p586
aS','
p587
aS'the'
p588
aS'devil'
p589
aS'himself'
p590
aS'with'
p591
aS'a'
p592
aS'head'
p593
aS'of'
p594
aS'fire'
p595
aS'.'
p596
asg55
(lp597
g150
aVlook
p598
aVthrough
p599
aVthe
p600
aVwindow
p601
aVand
p602
aVsaw
p603
aVnot
p604
aVyou
p605
ag67
aVbut
p606
ag67
ag60
ag150
aVverily
p607
aVbelieve
p608
ag67
aVthe
p609
aVdevil
p610
aVhimself
p611
aVwith
p612
ag60
aVhead
p613
aVof
p614
aVfire
p615
ag88
asg89
(lp616
g91
ag91
ag91
ag91
ag91
ag91
ag91
ag91
ag91
ag91
ag91
ag91
ag91
ag91
ag91
ag91
ag91
ag91
ag91
ag91
ag91
ag91
ag91
ag91
ag91
ag91
asg92
(lp617
g107
ag95
ag168
ag97
ag98
ag101
ag95
ag96
ag107
ag103
ag101
ag103
ag168
ag107
ag96
ag100
ag103
ag97
ag98
ag107
ag168
ag97
ag98
ag168
ag98
ag111
asg112
VI looked through the window and saw not you, but, as I verily believe, the devil himself with a head of fire.
p618
sba(i__main__
Sentence
p619
(dp620
g17
I16
sg18
(lp621
S'Oho'
p622
aS'.'
p623
asg55
(lp624
VOho
p625
ag88
asg89
(lp626
VLOCATION
p627
ag91
asg92
(lp628
g430
ag111
asg112
VOho.
p629
sba(i__main__
Sentence
p630
(dp631
g17
I17
sg18
(lp632
S'Said'
p633
aS'she'
p634
aS','
p635
aS'then'
p636
aS'you'
p637
aS'have'
p638
aS'seen'
p639
aS'the'
p640
aS'witch'
p641
aS'in'
p642
aS'her'
p643
aS'proper'
p644
aS'costume'
p645
aS'.'
p646
asg55
(lp647
VSaid
p648
aVshe
p649
ag67
aVthen
p650
aVyou
p651
aVhave
p652
ag427
aVthe
p653
aVwitch
p654
aVin
p655
aVher
p656
aVproper
p657
aVcostume
p658
ag88
asg89
(lp659
g91
ag91
ag91
ag91
ag91
ag91
ag91
ag91
ag91
ag91
ag91
ag91
ag91
ag91
asg92
(lp660
g430
ag107
ag103
ag96
ag107
ag109
ag167
ag97
ag98
ag168
ag105
ag98
ag98
ag111
asg112
VSaid she, then you have seen the witch in her proper costume.
p661
sba(i__main__
Sentence
p662
(dp663
g17
I18
sg18
(lp664
S'I'
p665
aS'have'
p666
aS'been'
p667
aS'waiting'
p668
aS'for'
p669
aS'you'
p670
aS','
p671
aS'and'
p672
aS'wanting'
p673
aS'you'
p674
aS'a'
p675
aS'long'
p676
aS'time'
p677
aS'already'
p678
aS'.'
p679
asg55
(lp680
g150
aVhave
p681
ag421
aVwait
p682
aVfor
p683
aVyou
p684
ag67
aVand
p685
aVwant
p686
aVyou
p687
ag60
aVlong
p688
aVtime
p689
aValready
p690
ag88
asg89
(lp691
g91
ag91
ag91
ag91
ag91
ag91
ag91
ag91
ag91
ag91
ag91
ag91
ag91
ag91
ag91
asg92
(lp692
g107
ag100
ag167
aS'VBG'
p693
ag168
ag107
ag103
ag101
ag693
ag107
ag97
ag102
ag98
ag96
ag111
asg112
VI have been waiting for you, and wanting you a long time already.
p694
sba(i__main__
Sentence
p695
(dp696
g17
I19
sg18
(lp697
S'You'
p698
aS'shall'
p699
aS'give'
p700
aS'me'
p701
aS'some'
p702
aS'light'
p703
aS'.'
p704
asg55
(lp705
VYou
p706
aVshall
p707
aVgive
p708
aVme
p709
aVsome
p710
aVlight
p711
ag88
asg89
(lp712
g91
ag91
ag91
ag91
ag91
ag91
ag91
asg92
(lp713
g107
ag110
ag109
ag107
ag97
ag102
ag111
asg112
VYou shall give me some light.
p714
sba(i__main__
Sentence
p715
(dp716
g17
I20
sg18
(lp717
S'Then'
p718
aS'she'
p719
aS'changed'
p720
aS'the'
p721
aS'girl'
p722
aS'into'
p723
aS'a'
p724
aS'block'
p725
aS'of'
p726
aS'wood'
p727
aS','
p728
aS'and'
p729
aS'threw'
p730
aS'it'
p731
aS'into'
p732
aS'the'
p733
aS'fire'
p734
aS'.'
p735
asg55
(lp736
VThen
p737
aVshe
p738
aVchange
p739
aVthe
p740
aVgirl
p741
aVinto
p742
ag60
aVblock
p743
aVof
p744
aVwood
p745
ag67
aVand
p746
aVthrow
p747
aVit
p748
aVinto
p749
aVthe
p750
aVfire
p751
ag88
asg89
(lp752
g91
ag91
ag91
ag91
ag91
ag91
ag91
ag91
ag91
ag91
ag91
ag91
ag91
ag91
ag91
ag91
ag91
ag91
asg92
(lp753
g96
ag107
ag95
ag97
ag98
ag168
ag97
ag98
ag168
ag98
ag103
ag101
ag95
ag107
ag168
ag97
ag98
ag111
asg112
VThen she changed the girl into a block of wood, and threw it into the fire.
p754
sba(i__main__
Sentence
p755
(dp756
g17
I21
sg18
(lp757
S'And'
p758
aS'when'
p759
aS'it'
p760
aS'was'
p761
aS'in'
p762
aS'a'
p763
aS'full'
p764
aS'blaze'
p765
aS'she'
p766
aS'sat'
p767
aS'down'
p768
aS'close'
p769
aS'to'
p770
aS'it'
p771
aS','
p772
aS'and'
p773
aS'warmed'
p774
aS'herself'
p775
aS'by'
p776
aS'it'
p777
aS','
p778
aS'and'
p779
aS'said'
p780
aS','
p781
aS'that'
p782
aS'shines'
p783
aS'bright'
p784
aS'for'
p785
aS'once'
p786
aS'in'
p787
aS'a'
p788
aS'way'
p789
aS'.'
p790
asg55
(lp791
VAnd
p792
aVwhen
p793
aVit
p794
ag58
aVin
p795
ag60
aVfull
p796
aVblaze
p797
aVshe
p798
aVsit
p799
aVdown
p800
aVclose
p801
aVto
p802
aVit
p803
ag67
aVand
p804
aVwarm
p805
aVherself
p806
aVby
p807
aVit
p808
ag67
aVand
p809
ag146
ag67
aVthat
p810
aVshine
p811
aVbright
p812
aVfor
p813
aVonce
p814
aVin
p815
ag60
aVway
p816
ag88
asg89
(lp817
g91
ag91
ag91
ag91
ag91
ag91
ag91
ag91
ag91
ag91
ag91
ag91
ag91
ag91
ag91
ag91
ag91
ag91
ag91
ag91
ag91
ag91
ag91
ag91
ag91
ag91
ag91
ag91
ag91
ag91
ag91
ag91
ag91
asg92
(lp818
g101
ag104
ag107
ag95
ag168
ag97
ag102
ag98
ag107
ag95
aS'RP'
p819
ag102
ag108
ag107
ag103
ag101
ag95
ag107
ag168
ag107
ag103
ag101
ag95
ag103
ag168
ag106
ag95
ag168
ag96
ag168
ag97
ag98
ag111
asg112
VAnd when it was in a full blaze she sat down close to it, and warmed herself by it, and said, that shines bright for once in a way. 
p820
sbasbsS'summary'
p821
g0
(g7
g2
Ntp822
Rp823
(dp824
g11
S'A girl is forbidden by her parents to visit the house of Frau Trude. The girl goes anyway and finds herself in fear when she looks in the window and sees the devil himself. Frau Trude knows the girl has seen her as she really is. For this reason, the girl is turned into a block of wood.'
p825
sg13
(lp826
(i__main__
Sentence
p827
(dp828
g17
I0
sg18
(lp829
S'A'
p830
aS'girl'
p831
aS'is'
p832
aS'forbidden'
p833
aS'by'
p834
aS'her'
p835
aS'parents'
p836
aS'to'
p837
aS'visit'
p838
aS'the'
p839
aS'house'
p840
aS'of'
p841
aS'Frau'
p842
aS'Trude'
p843
aS'.'
p844
asg55
(lp845
VA
p846
aVgirl
p847
ag278
aVforbid
p848
aVby
p849
aVher
p850
aVparent
p851
aVto
p852
aVvisit
p853
aVthe
p854
aVhouse
p855
aVof
p856
aVFrau
p857
aVTrude
p858
ag88
asg89
(lp859
g91
ag91
ag91
ag91
ag91
ag91
ag91
ag91
ag91
ag91
ag91
ag91
aVPERSON
p860
aVPERSON
p861
ag91
asg92
(lp862
g97
ag98
ag298
ag167
ag168
ag105
ag106
ag108
ag109
ag97
ag98
ag168
ag430
ag430
ag111
asg112
VA girl is forbidden by her parents to visit the house of Frau Trude.
p863
sba(i__main__
Sentence
p864
(dp865
g17
I1
sg18
(lp866
S'The'
p867
aS'girl'
p868
aS'goes'
p869
aS'anyway'
p870
aS'and'
p871
aS'finds'
p872
aS'herself'
p873
aS'in'
p874
aS'fear'
p875
aS'when'
p876
aS'she'
p877
aS'looks'
p878
aS'in'
p879
aS'the'
p880
aS'window'
p881
aS'and'
p882
aS'sees'
p883
aS'the'
p884
aS'devil'
p885
aS'himself'
p886
aS'.'
p887
asg55
(lp888
VThe
p889
aVgirl
p890
aVgo
p891
aVanyway
p892
aVand
p893
aVfind
p894
aVherself
p895
aVin
p896
aVfear
p897
aVwhen
p898
aVshe
p899
aVlook
p900
aVin
p901
aVthe
p902
aVwindow
p903
aVand
p904
aVsee
p905
aVthe
p906
aVdevil
p907
aVhimself
p908
ag88
asg89
(lp909
g91
ag91
ag91
ag91
ag91
ag91
ag91
ag91
ag91
ag91
ag91
ag91
ag91
ag91
ag91
ag91
ag91
ag91
ag91
ag91
ag91
asg92
(lp910
g97
ag98
ag298
ag98
ag101
ag106
ag107
ag168
ag98
ag104
ag107
ag298
ag168
ag97
ag98
ag101
ag106
ag97
ag98
ag107
ag111
asg112
VThe girl goes anyway and finds herself in fear when she looks in the window and sees the devil himself.
p911
sba(i__main__
Sentence
p912
(dp913
g17
I2
sg18
(lp914
S'Frau'
p915
aS'Trude'
p916
aS'knows'
p917
aS'the'
p918
aS'girl'
p919
aS'has'
p920
aS'seen'
p921
aS'her'
p922
aS'as'
p923
aS'she'
p924
aS'really'
p925
aS'is'
p926
aS'.'
p927
asg55
(lp928
VFrau
p929
aVTrude
p930
aVknow
p931
aVthe
p932
aVgirl
p933
aVhave
p934
ag427
aVher
p935
ag60
aVshe
p936
aVreally
p937
ag278
ag88
asg89
(lp938
VPERSON
p939
aVPERSON
p940
ag91
ag91
ag91
ag91
ag91
ag91
ag91
ag91
ag91
ag91
ag91
asg92
(lp941
g430
ag430
ag298
ag97
ag98
ag298
ag167
ag105
ag168
ag107
ag96
ag298
ag111
asg112
VFrau Trude knows the girl has seen her as she really is.
p942
sba(i__main__
Sentence
p943
(dp944
g17
I3
sg18
(lp945
S'For'
p946
aS'this'
p947
aS'reason'
p948
aS','
p949
aS'the'
p950
aS'girl'
p951
aS'is'
p952
aS'turned'
p953
aS'into'
p954
aS'a'
p955
aS'block'
p956
aS'of'
p957
aS'wood'
p958
aS'.'
p959
asg55
(lp960
VFor
p961
aVthis
p962
aVreason
p963
ag67
aVthe
p964
aVgirl
p965
ag278
aVturn
p966
aVinto
p967
ag60
aVblock
p968
aVof
p969
aVwood
p970
ag88
asg89
(lp971
g91
ag91
ag91
ag91
ag91
ag91
ag91
ag91
ag91
ag91
ag91
ag91
ag91
ag91
asg92
(lp972
g168
ag97
ag98
ag103
ag97
ag98
ag298
ag167
ag168
ag97
ag98
ag168
ag98
ag111
asg112
VFor this reason, the girl is turned into a block of wood.
p973
sbasbsS'name'
p974
S'Frau Trude'
p975
sS'summaries'
p976
(lp977
g823
asb.