ccopy_reg
_reconstructor
p0
(c__main__
Story
p1
c__builtin__
object
p2
Ntp3
Rp4
(dp5
S'text'
p6
g0
(c__main__
Document
p7
g2
Ntp8
Rp9
(dp10
S'_Document__initialContent'
p11
S"George one day said to his little chickens, come into the\nparlor and enjoy yourselves, and pick up the bread-crumbs\non the table.  Your mistress has gone out to pay some visits.\nThen the chickens said, no, no, we will not go.  If\nthe mistress gets to know it, she will beat us.  George said,\nshe will\nknow nothing about it.  So come.  After all, she never gives\nyou anything good.  Then the chickens again said, nay, nay, we\nmust let it alone.  We must not go.  But george let them have\nno peace until at last they went, and got on the table, and ate\nup the bread-crumbs with all their might.  But at that very moment\nthe mistress came, and seized the stick in great haste, and\nbeat them and treated them very harshly.  And when they were\noutside the house, the chickens said to george, do, do, do, do,\ndo, you see.  Then george laughed and said, didn't, didn't, didn't,\nI expect it.  So they just had to run away.\n"
p12
sS'sentences'
p13
(lp14
(i__main__
Sentence
p15
(dp16
S'index'
p17
I0
sS'words'
p18
(lp19
S'George'
p20
aS'one'
p21
aS'day'
p22
aS'said'
p23
aS'to'
p24
aS'his'
p25
aS'little'
p26
aS'chickens'
p27
aS','
p28
aS'come'
p29
aS'into'
p30
aS'the'
p31
aS'parlor'
p32
aS'and'
p33
aS'enjoy'
p34
aS'yourselves'
p35
aS','
p36
aS'and'
p37
aS'pick'
p38
aS'up'
p39
aS'the'
p40
aS'bread-crumbs'
p41
aS'on'
p42
aS'the'
p43
aS'table'
p44
aS'.'
p45
asS'lemmas'
p46
(lp47
VGeorge
p48
aVone
p49
aVday
p50
aVsay
p51
aVto
p52
aVhis
p53
aVlittle
p54
aVchicken
p55
aV,
p56
aVcome
p57
aVinto
p58
aVthe
p59
aVparlor
p60
aVand
p61
aVenjoy
p62
aVyourselves
p63
ag56
aVand
p64
aVpick
p65
aVup
p66
aVthe
p67
aVbread-crumbs
p68
aVon
p69
aVthe
p70
aVtable
p71
aV.
p72
asS'nerTags'
p73
(lp74
VPERSON
p75
aVO
p76
ag76
ag76
ag76
ag76
ag76
ag76
ag76
ag76
ag76
ag76
ag76
ag76
ag76
ag76
ag76
ag76
ag76
ag76
ag76
ag76
ag76
ag76
ag76
ag76
asS'posTags'
p77
(lp78
S'NNP'
p79
aS'CD'
p80
aS'NN'
p81
aS'VBD'
p82
aS'TO'
p83
aS'PRP$'
p84
aS'JJ'
p85
aS'NNS'
p86
aS','
p87
aS'VBP'
p88
aS'IN'
p89
aS'DT'
p90
ag81
aS'CC'
p91
ag81
ag86
ag87
ag91
aS'VB'
p92
aS'RP'
p93
ag90
ag86
ag89
ag90
ag81
aS'.'
p94
asS'_Sentence__initialContent'
p95
VGeorge one day said to his little chickens, come into the parlor and enjoy yourselves, and pick up the bread-crumbs on the table.
p96
sba(i__main__
Sentence
p97
(dp98
g17
I1
sg18
(lp99
S'Your'
p100
aS'mistress'
p101
aS'has'
p102
aS'gone'
p103
aS'out'
p104
aS'to'
p105
aS'pay'
p106
aS'some'
p107
aS'visits'
p108
aS'.'
p109
asg46
(lp110
VYour
p111
aVmistress
p112
aVhave
p113
aVgo
p114
aVout
p115
aVto
p116
aVpay
p117
aVsome
p118
aVvisit
p119
ag72
asg73
(lp120
g76
ag76
ag76
ag76
ag76
ag76
ag76
ag76
ag76
ag76
asg77
(lp121
g84
ag81
aS'VBZ'
p122
aS'VBN'
p123
ag93
ag83
ag92
ag90
ag86
ag94
asg95
VYour mistress has gone out to pay some visits.
p124
sba(i__main__
Sentence
p125
(dp126
g17
I2
sg18
(lp127
S'Then'
p128
aS'the'
p129
aS'chickens'
p130
aS'said'
p131
aS','
p132
aS'no'
p133
aS','
p134
aS'no'
p135
aS','
p136
aS'we'
p137
aS'will'
p138
aS'not'
p139
aS'go'
p140
aS'.'
p141
asg46
(lp142
VThen
p143
aVthe
p144
aVchicken
p145
ag51
ag56
aVno
p146
ag56
aVno
p147
ag56
aVwe
p148
aVwill
p149
aVnot
p150
aVgo
p151
ag72
asg73
(lp152
g76
ag76
ag76
ag76
ag76
ag76
ag76
ag76
ag76
ag76
ag76
ag76
ag76
ag76
asg77
(lp153
S'RB'
p154
ag90
ag86
ag82
ag87
ag90
ag87
ag90
ag87
aS'PRP'
p155
aS'MD'
p156
ag154
ag92
ag94
asg95
VThen the chickens said, no, no, we will not go.
p157
sba(i__main__
Sentence
p158
(dp159
g17
I3
sg18
(lp160
S'If'
p161
aS'the'
p162
aS'mistress'
p163
aS'gets'
p164
aS'to'
p165
aS'know'
p166
aS'it'
p167
aS','
p168
aS'she'
p169
aS'will'
p170
aS'beat'
p171
aS'us'
p172
aS'.'
p173
asg46
(lp174
VIf
p175
aVthe
p176
aVmistress
p177
aVget
p178
aVto
p179
aVknow
p180
aVit
p181
ag56
aVshe
p182
aVwill
p183
aVbeat
p184
aVu
p185
ag72
asg73
(lp186
g76
ag76
ag76
ag76
ag76
ag76
ag76
ag76
ag76
ag76
ag76
ag76
ag76
asg77
(lp187
g89
ag90
ag81
ag122
ag83
ag92
ag155
ag87
ag155
ag156
ag92
ag155
ag94
asg95
VIf the mistress gets to know it, she will beat us.
p188
sba(i__main__
Sentence
p189
(dp190
g17
I4
sg18
(lp191
S'George'
p192
aS'said'
p193
aS','
p194
aS'she'
p195
aS'will'
p196
aS'know'
p197
aS'nothing'
p198
aS'about'
p199
aS'it'
p200
aS'.'
p201
asg46
(lp202
VGeorge
p203
ag51
ag56
aVshe
p204
aVwill
p205
aVknow
p206
aVnothing
p207
aVabout
p208
aVit
p209
ag72
asg73
(lp210
VPERSON
p211
ag76
ag76
ag76
ag76
ag76
ag76
ag76
ag76
ag76
asg77
(lp212
g79
ag82
ag87
ag155
ag156
ag92
ag81
ag89
ag155
ag94
asg95
VGeorge said, she will know nothing about it.
p213
sba(i__main__
Sentence
p214
(dp215
g17
I5
sg18
(lp216
S'So'
p217
aS'come'
p218
aS'.'
p219
asg46
(lp220
VSo
p221
aVcome
p222
ag72
asg73
(lp223
g76
ag76
ag76
asg77
(lp224
g89
ag123
ag94
asg95
VSo come.
p225
sba(i__main__
Sentence
p226
(dp227
g17
I6
sg18
(lp228
S'After'
p229
aS'all'
p230
aS','
p231
aS'she'
p232
aS'never'
p233
aS'gives'
p234
aS'you'
p235
aS'anything'
p236
aS'good'
p237
aS'.'
p238
asg46
(lp239
VAfter
p240
aVall
p241
ag56
aVshe
p242
aVnever
p243
aVgive
p244
aVyou
p245
aVanything
p246
aVgood
p247
ag72
asg73
(lp248
g76
ag76
ag76
ag76
ag76
ag76
ag76
ag76
ag76
ag76
asg77
(lp249
g89
ag90
ag87
ag155
ag154
ag122
ag155
ag81
ag82
ag94
asg95
VAfter all, she never gives you anything good.
p250
sba(i__main__
Sentence
p251
(dp252
g17
I7
sg18
(lp253
S'Then'
p254
aS'the'
p255
aS'chickens'
p256
aS'again'
p257
aS'said'
p258
aS','
p259
aS'nay'
p260
aS','
p261
aS'nay'
p262
aS','
p263
aS'we'
p264
aS'must'
p265
aS'let'
p266
aS'it'
p267
aS'alone'
p268
aS'.'
p269
asg46
(lp270
VThen
p271
aVthe
p272
aVchicken
p273
aVagain
p274
ag51
ag56
aVnay
p275
ag56
aVnay
p276
ag56
aVwe
p277
aVmust
p278
aVlet
p279
aVit
p280
aValone
p281
ag72
asg73
(lp282
g76
ag76
ag76
ag76
ag76
ag76
ag76
ag76
ag76
ag76
ag76
ag76
ag76
ag76
ag76
ag76
asg77
(lp283
g154
ag90
ag86
ag154
ag82
ag87
ag81
ag87
ag81
ag87
ag155
ag156
ag92
ag155
ag154
ag94
asg95
VThen the chickens again said, nay, nay, we must let it alone.
p284
sba(i__main__
Sentence
p285
(dp286
g17
I8
sg18
(lp287
S'We'
p288
aS'must'
p289
aS'not'
p290
aS'go'
p291
aS'.'
p292
asg46
(lp293
VWe
p294
aVmust
p295
aVnot
p296
aVgo
p297
ag72
asg73
(lp298
g76
ag76
ag76
ag76
ag76
asg77
(lp299
g155
ag156
ag154
ag92
ag94
asg95
VWe must not go.
p300
sba(i__main__
Sentence
p301
(dp302
g17
I9
sg18
(lp303
S'But'
p304
aS'george'
p305
aS'let'
p306
aS'them'
p307
aS'have'
p308
aS'no'
p309
aS'peace'
p310
aS'until'
p311
aS'at'
p312
aS'last'
p313
aS'they'
p314
aS'went'
p315
aS','
p316
aS'and'
p317
aS'got'
p318
aS'on'
p319
aS'the'
p320
aS'table'
p321
aS','
p322
aS'and'
p323
aS'ate'
p324
aS'up'
p325
aS'the'
p326
aS'bread-crumbs'
p327
aS'with'
p328
aS'all'
p329
aS'their'
p330
aS'might'
p331
aS'.'
p332
asg46
(lp333
VBut
p334
aVgeorge
p335
aVlet
p336
aVthem
p337
aVhave
p338
aVno
p339
aVpeace
p340
aVuntil
p341
aVat
p342
aVlast
p343
aVthey
p344
aVgo
p345
ag56
aVand
p346
aVget
p347
aVon
p348
aVthe
p349
aVtable
p350
ag56
aVand
p351
aVeat
p352
aVup
p353
aVthe
p354
aVbread-crumbs
p355
aVwith
p356
aVall
p357
aVtheir
p358
aVmight
p359
ag72
asg73
(lp360
g76
ag76
ag76
ag76
ag76
ag76
ag76
ag76
ag76
ag76
ag76
ag76
ag76
ag76
ag76
ag76
ag76
ag76
ag76
ag76
ag76
ag76
ag76
ag76
ag76
ag76
ag76
ag76
ag76
asg77
(lp361
g91
ag88
ag123
ag155
ag88
ag90
ag81
ag89
ag89
ag85
ag155
ag82
ag87
ag91
ag82
ag89
ag90
ag81
ag87
ag91
ag92
ag93
ag90
ag86
ag89
ag90
ag84
ag81
ag94
asg95
VBut george let them have no peace until at last they went, and got on the table, and ate up the bread-crumbs with all their might.
p362
sba(i__main__
Sentence
p363
(dp364
g17
I10
sg18
(lp365
S'But'
p366
aS'at'
p367
aS'that'
p368
aS'very'
p369
aS'moment'
p370
aS'the'
p371
aS'mistress'
p372
aS'came'
p373
aS','
p374
aS'and'
p375
aS'seized'
p376
aS'the'
p377
aS'stick'
p378
aS'in'
p379
aS'great'
p380
aS'haste'
p381
aS','
p382
aS'and'
p383
aS'beat'
p384
aS'them'
p385
aS'and'
p386
aS'treated'
p387
aS'them'
p388
aS'very'
p389
aS'harshly'
p390
aS'.'
p391
asg46
(lp392
VBut
p393
aVat
p394
aVthat
p395
aVvery
p396
aVmoment
p397
aVthe
p398
aVmistress
p399
aVcome
p400
ag56
aVand
p401
aVseize
p402
aVthe
p403
aVstick
p404
aVin
p405
aVgreat
p406
aVhaste
p407
ag56
aVand
p408
aVbeat
p409
aVthem
p410
aVand
p411
aVtreat
p412
aVthem
p413
aVvery
p414
aVharshly
p415
ag72
asg73
(lp416
g76
ag76
ag76
ag76
ag76
ag76
ag76
ag76
ag76
ag76
ag76
ag76
ag76
ag76
ag76
ag76
ag76
ag76
ag76
ag76
ag76
ag76
ag76
ag76
ag76
ag76
asg77
(lp417
g91
ag89
ag90
ag154
ag85
ag90
ag81
ag82
ag87
ag91
ag82
ag90
ag81
ag89
ag85
ag81
ag87
ag91
ag92
ag155
ag91
ag82
ag155
ag154
ag154
ag94
asg95
VBut at that very moment the mistress came, and seized the stick in great haste, and beat them and treated them very harshly.
p418
sba(i__main__
Sentence
p419
(dp420
g17
I11
sg18
(lp421
S'And'
p422
aS'when'
p423
aS'they'
p424
aS'were'
p425
aS'outside'
p426
aS'the'
p427
aS'house'
p428
aS','
p429
aS'the'
p430
aS'chickens'
p431
aS'said'
p432
aS'to'
p433
aS'george'
p434
aS','
p435
aS'do'
p436
aS','
p437
aS'do'
p438
aS','
p439
aS'do'
p440
aS','
p441
aS'do'
p442
aS','
p443
aS'do'
p444
aS','
p445
aS'you'
p446
aS'see'
p447
aS'.'
p448
asg46
(lp449
VAnd
p450
aVwhen
p451
aVthey
p452
aVbe
p453
aVoutside
p454
aVthe
p455
aVhouse
p456
ag56
aVthe
p457
aVchicken
p458
ag51
aVto
p459
aVgeorge
p460
ag56
aVdo
p461
ag56
aVdo
p462
ag56
aVdo
p463
ag56
aVdo
p464
ag56
aVdo
p465
ag56
aVyou
p466
aVsee
p467
ag72
asg73
(lp468
g76
ag76
ag76
ag76
ag76
ag76
ag76
ag76
ag76
ag76
ag76
ag76
ag76
ag76
ag76
ag76
ag76
ag76
ag76
ag76
ag76
ag76
ag76
ag76
ag76
ag76
ag76
asg77
(lp469
g91
aS'WRB'
p470
ag155
ag82
ag89
ag90
ag81
ag87
ag90
ag86
ag82
ag83
ag92
ag87
ag92
ag87
ag92
ag87
ag92
ag87
ag92
ag87
ag92
ag87
ag155
ag88
ag94
asg95
VAnd when they were outside the house, the chickens said to george, do, do, do, do, do, you see.
p471
sba(i__main__
Sentence
p472
(dp473
g17
I12
sg18
(lp474
S'Then'
p475
aS'george'
p476
aS'laughed'
p477
aS'and'
p478
aS'said'
p479
aS','
p480
aS'did'
p481
aS"n't"
p482
aS','
p483
aS'did'
p484
aS"n't"
p485
aS','
p486
aS'did'
p487
aS"n't"
p488
aS','
p489
aS'I'
p490
aS'expect'
p491
aS'it'
p492
aS'.'
p493
asg46
(lp494
VThen
p495
aVgeorge
p496
aVlaugh
p497
aVand
p498
ag51
ag56
aVdo
p499
aVn't
p500
ag56
ag499
aVn't
p501
ag56
ag499
aVn't
p502
ag56
aVI
p503
aVexpect
p504
aVit
p505
ag72
asg73
(lp506
g76
ag76
ag76
ag76
ag76
ag76
ag76
ag76
ag76
ag76
ag76
ag76
ag76
ag76
ag76
ag76
ag76
ag76
ag76
asg77
(lp507
g154
ag88
ag123
ag91
ag82
ag87
ag82
ag154
ag87
ag82
ag154
ag87
ag82
ag154
ag87
ag155
ag88
ag155
ag94
asg95
VThen george laughed and said, didn't, didn't, didn't, I expect it.
p508
sba(i__main__
Sentence
p509
(dp510
g17
I13
sg18
(lp511
S'So'
p512
aS'they'
p513
aS'just'
p514
aS'had'
p515
aS'to'
p516
aS'run'
p517
aS'away'
p518
aS'.'
p519
asg46
(lp520
VSo
p521
aVthey
p522
aVjust
p523
aVhave
p524
aVto
p525
aVrun
p526
aVaway
p527
ag72
asg73
(lp528
g76
ag76
ag76
ag76
ag76
ag76
ag76
ag76
asg77
(lp529
g89
ag155
ag154
ag82
ag83
ag123
ag154
ag94
asg95
VSo they just had to run away. 
p530
sbasbsS'summary'
p531
g0
(g7
g2
Ntp532
Rp533
(dp534
g11
S"George pesters his chickens until they finally give in and eat crumbs off their mistress' table. As soon as they eat, they are caught by the mistress who beats them. "
p535
sg13
(lp536
(i__main__
Sentence
p537
(dp538
g17
I0
sg18
(lp539
S'George'
p540
aS'pesters'
p541
aS'his'
p542
aS'chickens'
p543
aS'until'
p544
aS'they'
p545
aS'finally'
p546
aS'give'
p547
aS'in'
p548
aS'and'
p549
aS'eat'
p550
aS'crumbs'
p551
aS'off'
p552
aS'their'
p553
aS'mistress'
p554
aS"'"
p555
aS'table'
p556
aS'.'
p557
asg46
(lp558
VGeorge
p559
aVpesters
p560
aVhis
p561
aVchicken
p562
aVuntil
p563
aVthey
p564
aVfinally
p565
aVgive
p566
aVin
p567
aVand
p568
aVeat
p569
aVcrumb
p570
aVoff
p571
aVtheir
p572
aVmistress
p573
aV'
p574
aVtable
p575
ag72
asg73
(lp576
VPERSON
p577
ag76
ag76
ag76
ag76
ag76
ag76
ag76
ag76
ag76
ag76
ag76
ag76
ag76
ag76
ag76
ag76
ag76
asg77
(lp578
g79
ag86
ag84
ag86
ag89
ag155
ag154
ag88
ag89
ag91
ag81
ag86
ag89
ag84
ag81
aS"''"
p579
ag85
ag94
asg95
VGeorge pesters his chickens until they finally give in and eat crumbs off their mistress' table.
p580
sba(i__main__
Sentence
p581
(dp582
g17
I1
sg18
(lp583
S'As'
p584
aS'soon'
p585
aS'as'
p586
aS'they'
p587
aS'eat'
p588
aS','
p589
aS'they'
p590
aS'are'
p591
aS'caught'
p592
aS'by'
p593
aS'the'
p594
aS'mistress'
p595
aS'who'
p596
aS'beats'
p597
aS'them'
p598
aS'.'
p599
asg46
(lp600
VAs
p601
aVsoon
p602
aVa
p603
aVthey
p604
aVeat
p605
ag56
aVthey
p606
aVbe
p607
aVcatch
p608
aVby
p609
aVthe
p610
aVmistress
p611
aVwho
p612
aVbeat
p613
aVthem
p614
ag72
asg73
(lp615
g76
ag76
ag76
ag76
ag76
ag76
ag76
ag76
ag76
ag76
ag76
ag76
ag76
ag76
ag76
ag76
asg77
(lp616
g89
ag154
ag89
ag155
ag88
ag87
ag155
ag88
ag123
ag89
ag90
ag81
aS'WP'
p617
ag86
ag155
ag94
asg95
VAs soon as they eat, they are caught by the mistress who beats them. 
p618
sbasbsS'name'
p619
S'The Crumbs on the Table'
p620
sS'summaries'
p621
(lp622
g533
asb.