ccopy_reg
_reconstructor
p0
(c__main__
Story
p1
c__builtin__
object
p2
Ntp3
Rp4
(dp5
S'text'
p6
g0
(c__main__
Document
p7
g2
Ntp8
Rp9
(dp10
S'_Document__initialContent'
p11
S'How fortunate is the master, and how well all goes in his\nhouse, when he has a wise servant who listens to his orders\nand does not obey them, but prefers following his own wisdom.  A\nclever Hans of this kind was once sent out by his master to seek a\nlost cow.  He stayed away a long time, and the master thought,\nfaithful Hans does not spare any pains over his work.  But when\nhe did not come back at all, the master was afraid lest some\nmisfortune had befallen him, and set out himself to look for\nhim.  He had to search a long time, but at last he caught sight\nof the boy running up and down a large field.  Now, dear Hans,\nsaid the master when he had got up to him, have you found the cow\nwhich I sent you to\nseek.  No, master, he answered, I have not found the cow, but\nthen I have not looked for it.  Then what have you looked for,\nHans.  Three blackbirds, answered the boy.  And where are they,\nasked the master.  I see one of them, I hear the other, and I\nam running after the third, answered the wise boy.\nTake example by this, do not trouble yourselves about your\nmasters or their orders, but rather do what comes into your\nhead and pleases you, and then you will act just as wisely as\nclever Hans.\n'
p12
sS'sentences'
p13
(lp14
(i__main__
Sentence
p15
(dp16
S'index'
p17
I0
sS'words'
p18
(lp19
S'How'
p20
aS'fortunate'
p21
aS'is'
p22
aS'the'
p23
aS'master'
p24
aS','
p25
aS'and'
p26
aS'how'
p27
aS'well'
p28
aS'all'
p29
aS'goes'
p30
aS'in'
p31
aS'his'
p32
aS'house'
p33
aS','
p34
aS'when'
p35
aS'he'
p36
aS'has'
p37
aS'a'
p38
aS'wise'
p39
aS'servant'
p40
aS'who'
p41
aS'listens'
p42
aS'to'
p43
aS'his'
p44
aS'orders'
p45
aS'and'
p46
aS'does'
p47
aS'not'
p48
aS'obey'
p49
aS'them'
p50
aS','
p51
aS'but'
p52
aS'prefers'
p53
aS'following'
p54
aS'his'
p55
aS'own'
p56
aS'wisdom'
p57
aS'.'
p58
asS'lemmas'
p59
(lp60
VHow
p61
aVfortunate
p62
aVbe
p63
aVthe
p64
aVmaster
p65
aV,
p66
aVand
p67
aVhow
p68
aVwell
p69
aVall
p70
aVgo
p71
aVin
p72
aVhis
p73
aVhouse
p74
ag66
aVwhen
p75
aVhe
p76
aVhave
p77
aVa
p78
aVwise
p79
aVservant
p80
aVwho
p81
aVlistens
p82
aVto
p83
aVhis
p84
aVorder
p85
aVand
p86
aVdo
p87
aVnot
p88
aVobey
p89
aVthem
p90
ag66
aVbut
p91
aVprefers
p92
aVfollow
p93
aVhis
p94
aVown
p95
aVwisdom
p96
aV.
p97
asS'nerTags'
p98
(lp99
VO
p100
ag100
ag100
ag100
ag100
ag100
ag100
ag100
ag100
ag100
ag100
ag100
ag100
ag100
ag100
ag100
ag100
ag100
ag100
ag100
ag100
ag100
ag100
ag100
ag100
ag100
ag100
ag100
ag100
ag100
ag100
ag100
ag100
ag100
ag100
ag100
ag100
ag100
ag100
asS'posTags'
p101
(lp102
S'WRB'
p103
aS'JJ'
p104
aS'VBZ'
p105
aS'DT'
p106
aS'NN'
p107
aS','
p108
aS'CC'
p109
ag103
aS'RB'
p110
ag106
ag105
aS'IN'
p111
aS'PRP$'
p112
ag107
ag108
ag103
aS'PRP'
p113
ag105
ag106
ag107
ag107
aS'WP'
p114
aS'NNS'
p115
aS'TO'
p116
ag112
ag115
ag109
ag105
ag110
aS'VB'
p117
ag113
ag108
ag109
ag115
aS'VBG'
p118
ag112
ag104
ag107
aS'.'
p119
asS'_Sentence__initialContent'
p120
VHow fortunate is the master, and how well all goes in his house, when he has a wise servant who listens to his orders and does not obey them, but prefers following his own wisdom.
p121
sba(i__main__
Sentence
p122
(dp123
g17
I1
sg18
(lp124
S'A'
p125
aS'clever'
p126
aS'Hans'
p127
aS'of'
p128
aS'this'
p129
aS'kind'
p130
aS'was'
p131
aS'once'
p132
aS'sent'
p133
aS'out'
p134
aS'by'
p135
aS'his'
p136
aS'master'
p137
aS'to'
p138
aS'seek'
p139
aS'a'
p140
aS'lost'
p141
aS'cow'
p142
aS'.'
p143
asg59
(lp144
VA
p145
aVclever
p146
aVHans
p147
aVof
p148
aVthis
p149
aVkind
p150
aVbe
p151
aVonce
p152
aVsend
p153
aVout
p154
aVby
p155
aVhis
p156
aVmaster
p157
aVto
p158
aVseek
p159
ag78
aVlost
p160
aVcow
p161
ag97
asg98
(lp162
g100
ag100
aVPERSON
p163
ag100
ag100
ag100
ag100
ag100
ag100
ag100
ag100
ag100
ag100
ag100
ag100
ag100
ag100
ag100
ag100
asg101
(lp164
g106
ag107
aS'NNPS'
p165
ag111
ag106
ag107
aS'VBD'
p166
ag110
aS'VBN'
p167
aS'RP'
p168
ag111
ag112
ag107
ag116
ag117
ag106
ag107
ag107
ag119
asg120
VA clever Hans of this kind was once sent out by his master to seek a lost cow.
p169
sba(i__main__
Sentence
p170
(dp171
g17
I2
sg18
(lp172
S'He'
p173
aS'stayed'
p174
aS'away'
p175
aS'a'
p176
aS'long'
p177
aS'time'
p178
aS','
p179
aS'and'
p180
aS'the'
p181
aS'master'
p182
aS'thought'
p183
aS','
p184
aS'faithful'
p185
aS'Hans'
p186
aS'does'
p187
aS'not'
p188
aS'spare'
p189
aS'any'
p190
aS'pains'
p191
aS'over'
p192
aS'his'
p193
aS'work'
p194
aS'.'
p195
asg59
(lp196
VHe
p197
aVstay
p198
aVaway
p199
ag78
aVlong
p200
aVtime
p201
ag66
aVand
p202
aVthe
p203
aVmaster
p204
aVthink
p205
ag66
aVfaithful
p206
aVHans
p207
aVdo
p208
aVnot
p209
aVspare
p210
aVany
p211
aVpain
p212
aVover
p213
aVhis
p214
aVwork
p215
ag97
asg98
(lp216
g100
ag100
ag100
ag100
ag100
ag100
ag100
ag100
ag100
ag100
ag100
ag100
ag100
aVPERSON
p217
ag100
ag100
ag100
ag100
ag100
ag100
ag100
ag100
ag100
asg101
(lp218
g113
ag166
ag110
ag106
ag104
ag107
ag108
ag109
ag106
ag107
ag166
ag108
ag104
ag115
ag105
ag110
ag117
ag106
ag115
ag111
ag112
ag107
ag119
asg120
VHe stayed away a long time, and the master thought, faithful Hans does not spare any pains over his work.
p219
sba(i__main__
Sentence
p220
(dp221
g17
I3
sg18
(lp222
S'But'
p223
aS'when'
p224
aS'he'
p225
aS'did'
p226
aS'not'
p227
aS'come'
p228
aS'back'
p229
aS'at'
p230
aS'all'
p231
aS','
p232
aS'the'
p233
aS'master'
p234
aS'was'
p235
aS'afraid'
p236
aS'lest'
p237
aS'some'
p238
aS'misfortune'
p239
aS'had'
p240
aS'befallen'
p241
aS'him'
p242
aS','
p243
aS'and'
p244
aS'set'
p245
aS'out'
p246
aS'himself'
p247
aS'to'
p248
aS'look'
p249
aS'for'
p250
aS'him'
p251
aS'.'
p252
asg59
(lp253
VBut
p254
aVwhen
p255
aVhe
p256
aVdo
p257
aVnot
p258
aVcome
p259
aVback
p260
aVat
p261
aVall
p262
ag66
aVthe
p263
aVmaster
p264
ag151
aVafraid
p265
aVlest
p266
aVsome
p267
aVmisfortune
p268
aVhave
p269
aVbefall
p270
aVhim
p271
ag66
aVand
p272
aVset
p273
aVout
p274
aVhimself
p275
aVto
p276
aVlook
p277
aVfor
p278
aVhim
p279
ag97
asg98
(lp280
g100
ag100
ag100
ag100
ag100
ag100
ag100
ag100
ag100
ag100
ag100
ag100
ag100
ag100
ag100
ag100
ag100
ag100
ag100
ag100
ag100
ag100
ag100
ag100
ag100
ag100
ag100
ag100
ag100
ag100
asg101
(lp281
g109
ag103
ag113
ag166
ag110
ag167
ag110
ag111
ag106
ag108
ag106
ag107
ag166
ag104
ag107
ag106
ag107
ag166
ag167
ag113
ag108
ag109
ag166
ag168
ag113
ag116
ag117
ag111
ag113
ag119
asg120
VBut when he did not come back at all, the master was afraid lest some misfortune had befallen him, and set out himself to look for him.
p282
sba(i__main__
Sentence
p283
(dp284
g17
I4
sg18
(lp285
S'He'
p286
aS'had'
p287
aS'to'
p288
aS'search'
p289
aS'a'
p290
aS'long'
p291
aS'time'
p292
aS','
p293
aS'but'
p294
aS'at'
p295
aS'last'
p296
aS'he'
p297
aS'caught'
p298
aS'sight'
p299
aS'of'
p300
aS'the'
p301
aS'boy'
p302
aS'running'
p303
aS'up'
p304
aS'and'
p305
aS'down'
p306
aS'a'
p307
aS'large'
p308
aS'field'
p309
aS'.'
p310
asg59
(lp311
VHe
p312
ag269
aVto
p313
aVsearch
p314
ag78
aVlong
p315
aVtime
p316
ag66
aVbut
p317
aVat
p318
aVlast
p319
aVhe
p320
aVcatch
p321
aVsight
p322
aVof
p323
aVthe
p324
aVboy
p325
aVrun
p326
aVup
p327
aVand
p328
aVdown
p329
ag78
aVlarge
p330
aVfield
p331
ag97
asg98
(lp332
g100
ag100
ag100
ag100
ag100
ag100
ag100
ag100
ag100
ag100
ag100
ag100
ag100
ag100
ag100
ag100
ag100
ag100
ag100
ag100
ag100
ag100
ag100
ag100
ag100
asg101
(lp333
g113
ag166
ag116
ag117
ag106
ag104
ag107
ag108
ag109
ag111
ag104
ag113
ag166
ag167
ag111
ag106
ag107
ag118
ag168
ag109
ag111
ag106
ag104
ag107
ag119
asg120
VHe had to search a long time, but at last he caught sight of the boy running up and down a large field.
p334
sba(i__main__
Sentence
p335
(dp336
g17
I5
sg18
(lp337
S'Now'
p338
aS','
p339
aS'dear'
p340
aS'Hans'
p341
aS','
p342
aS'said'
p343
aS'the'
p344
aS'master'
p345
aS'when'
p346
aS'he'
p347
aS'had'
p348
aS'got'
p349
aS'up'
p350
aS'to'
p351
aS'him'
p352
aS','
p353
aS'have'
p354
aS'you'
p355
aS'found'
p356
aS'the'
p357
aS'cow'
p358
aS'which'
p359
aS'I'
p360
aS'sent'
p361
aS'you'
p362
aS'to'
p363
aS'seek'
p364
aS'.'
p365
asg59
(lp366
VNow
p367
ag66
aVdear
p368
aVHans
p369
ag66
aVsay
p370
aVthe
p371
aVmaster
p372
aVwhen
p373
aVhe
p374
ag269
aVget
p375
aVup
p376
aVto
p377
aVhim
p378
ag66
aVhave
p379
aVyou
p380
aVfind
p381
aVthe
p382
aVcow
p383
aVwhich
p384
aVI
p385
ag153
aVyou
p386
aVto
p387
aVseek
p388
ag97
asg98
(lp389
g100
ag100
ag100
aVPERSON
p390
ag100
ag100
ag100
ag100
ag100
ag100
ag100
ag100
ag100
ag100
ag100
ag100
ag100
ag100
ag100
ag100
ag100
ag100
ag100
ag100
ag100
ag100
ag100
ag100
asg101
(lp391
g110
ag108
ag104
ag115
ag108
ag166
ag106
ag107
ag103
ag113
ag166
ag167
ag168
ag116
ag113
ag108
aS'VBP'
p392
ag113
ag166
ag106
ag107
aS'WDT'
p393
ag113
ag392
ag113
ag116
ag117
ag119
asg120
VNow, dear Hans, said the master when he had got up to him, have you found the cow which I sent you to seek.
p394
sba(i__main__
Sentence
p395
(dp396
g17
I6
sg18
(lp397
S'No'
p398
aS','
p399
aS'master'
p400
aS','
p401
aS'he'
p402
aS'answered'
p403
aS','
p404
aS'I'
p405
aS'have'
p406
aS'not'
p407
aS'found'
p408
aS'the'
p409
aS'cow'
p410
aS','
p411
aS'but'
p412
aS'then'
p413
aS'I'
p414
aS'have'
p415
aS'not'
p416
aS'looked'
p417
aS'for'
p418
aS'it'
p419
aS'.'
p420
asg59
(lp421
VNo
p422
ag66
aVmaster
p423
ag66
aVhe
p424
aVanswer
p425
ag66
ag385
aVhave
p426
aVnot
p427
ag381
aVthe
p428
aVcow
p429
ag66
aVbut
p430
aVthen
p431
ag385
aVhave
p432
aVnot
p433
aVlook
p434
aVfor
p435
aVit
p436
ag97
asg98
(lp437
g100
ag100
ag100
ag100
ag100
ag100
ag100
ag100
ag100
ag100
ag100
ag100
ag100
ag100
ag100
ag100
ag100
ag100
ag100
ag100
ag100
ag100
ag100
asg101
(lp438
g106
ag108
ag107
ag108
ag113
ag166
ag108
ag113
ag392
ag110
ag167
ag106
ag107
ag108
ag109
ag110
ag113
ag392
ag110
ag167
ag111
ag113
ag119
asg120
VNo, master, he answered, I have not found the cow, but then I have not looked for it.
p439
sba(i__main__
Sentence
p440
(dp441
g17
I7
sg18
(lp442
S'Then'
p443
aS'what'
p444
aS'have'
p445
aS'you'
p446
aS'looked'
p447
aS'for'
p448
aS','
p449
aS'Hans'
p450
aS'.'
p451
asg59
(lp452
VThen
p453
aVwhat
p454
aVhave
p455
aVyou
p456
aVlook
p457
aVfor
p458
ag66
aVHans
p459
ag97
asg98
(lp460
g100
ag100
ag100
ag100
ag100
ag100
ag100
aVPERSON
p461
ag100
asg101
(lp462
g110
ag114
ag392
ag113
ag166
ag111
ag108
aS'NNP'
p463
ag119
asg120
VThen what have you looked for, Hans.
p464
sba(i__main__
Sentence
p465
(dp466
g17
I8
sg18
(lp467
S'Three'
p468
aS'blackbirds'
p469
aS','
p470
aS'answered'
p471
aS'the'
p472
aS'boy'
p473
aS'.'
p474
asg59
(lp475
VThree
p476
aVblackbird
p477
ag66
aVanswer
p478
aVthe
p479
aVboy
p480
ag97
asg98
(lp481
g100
ag100
ag100
ag100
ag100
ag100
ag100
asg101
(lp482
S'CD'
p483
ag115
ag108
ag166
ag106
ag107
ag119
asg120
VThree blackbirds, answered the boy.
p484
sba(i__main__
Sentence
p485
(dp486
g17
I9
sg18
(lp487
S'And'
p488
aS'where'
p489
aS'are'
p490
aS'they'
p491
aS','
p492
aS'asked'
p493
aS'the'
p494
aS'master'
p495
aS'.'
p496
asg59
(lp497
VAnd
p498
aVwhere
p499
aVbe
p500
aVthey
p501
ag66
aVask
p502
aVthe
p503
aVmaster
p504
ag97
asg98
(lp505
g100
ag100
ag100
ag100
ag100
ag100
ag100
ag100
ag100
asg101
(lp506
g109
ag103
ag392
ag113
ag108
ag166
ag106
ag107
ag119
asg120
VAnd where are they, asked the master.
p507
sba(i__main__
Sentence
p508
(dp509
g17
I10
sg18
(lp510
S'I'
p511
aS'see'
p512
aS'one'
p513
aS'of'
p514
aS'them'
p515
aS','
p516
aS'I'
p517
aS'hear'
p518
aS'the'
p519
aS'other'
p520
aS','
p521
aS'and'
p522
aS'I'
p523
aS'am'
p524
aS'running'
p525
aS'after'
p526
aS'the'
p527
aS'third'
p528
aS','
p529
aS'answered'
p530
aS'the'
p531
aS'wise'
p532
aS'boy'
p533
aS'.'
p534
asg59
(lp535
g385
aVsee
p536
aVone
p537
aVof
p538
aVthem
p539
ag66
ag385
aVhear
p540
aVthe
p541
aVother
p542
ag66
aVand
p543
ag385
aVbe
p544
ag326
aVafter
p545
aVthe
p546
aVthird
p547
ag66
aVanswer
p548
aVthe
p549
aVwise
p550
aVboy
p551
ag97
asg98
(lp552
g100
ag100
ag100
ag100
ag100
ag100
ag100
ag100
ag100
ag100
ag100
ag100
ag100
ag100
ag100
ag100
ag100
ag100
ag100
ag100
ag100
ag100
ag100
ag100
asg101
(lp553
g113
ag392
ag483
ag111
ag113
ag108
ag113
ag392
ag106
ag104
ag108
ag109
ag113
ag392
ag118
ag111
ag106
ag104
ag108
ag167
ag106
ag107
ag107
ag119
asg120
VI see one of them, I hear the other, and I am running after the third, answered the wise boy.
p554
sba(i__main__
Sentence
p555
(dp556
g17
I11
sg18
(lp557
S'Take'
p558
aS'example'
p559
aS'by'
p560
aS'this'
p561
aS','
p562
aS'do'
p563
aS'not'
p564
aS'trouble'
p565
aS'yourselves'
p566
aS'about'
p567
aS'your'
p568
aS'masters'
p569
aS'or'
p570
aS'their'
p571
aS'orders'
p572
aS','
p573
aS'but'
p574
aS'rather'
p575
aS'do'
p576
aS'what'
p577
aS'comes'
p578
aS'into'
p579
aS'your'
p580
aS'head'
p581
aS'and'
p582
aS'pleases'
p583
aS'you'
p584
aS','
p585
aS'and'
p586
aS'then'
p587
aS'you'
p588
aS'will'
p589
aS'act'
p590
aS'just'
p591
aS'as'
p592
aS'wisely'
p593
aS'as'
p594
aS'clever'
p595
aS'Hans'
p596
aS'.'
p597
asg59
(lp598
VTake
p599
aVexample
p600
aVby
p601
aVthis
p602
ag66
aVdo
p603
aVnot
p604
aVtrouble
p605
aVyourselves
p606
aVabout
p607
aVyour
p608
aVmaster
p609
aVor
p610
aVtheir
p611
aVorder
p612
ag66
aVbut
p613
aVrather
p614
aVdo
p615
aVwhat
p616
aVcome
p617
aVinto
p618
aVyour
p619
aVhead
p620
aVand
p621
aVplea
p622
aVyou
p623
ag66
aVand
p624
aVthen
p625
aVyou
p626
aVwill
p627
aVact
p628
aVjust
p629
ag78
aVwisely
p630
ag78
aVclever
p631
aVHans
p632
ag97
asg98
(lp633
g100
ag100
ag100
ag100
ag100
ag100
ag100
ag100
ag100
ag100
ag100
ag100
ag100
ag100
ag100
ag100
ag100
ag100
ag100
ag100
ag100
ag100
ag100
ag100
ag100
ag100
ag100
ag100
ag100
ag100
ag100
ag100
ag100
ag100
ag100
ag100
ag100
ag100
aVPERSON
p634
ag100
asg101
(lp635
g463
ag107
ag111
ag106
ag108
ag392
ag110
ag104
ag115
ag111
ag112
ag115
ag109
ag112
ag115
ag108
ag109
ag110
ag392
ag114
ag115
ag111
ag112
ag107
ag109
ag115
ag113
ag108
ag109
ag110
ag113
aS'MD'
p636
ag117
ag110
ag111
ag110
ag111
ag107
ag115
ag119
asg120
VTake example by this, do not trouble yourselves about your masters or their orders, but rather do what comes into your head and pleases you, and then you will act just as wisely as clever Hans. 
p637
sbasbsS'summary'
p638
g0
(g7
g2
Ntp639
Rp640
(dp641
g11
S'A master sends his servant to look for his cow. Instead the boy chases blackbirds.'
p642
sg13
(lp643
(i__main__
Sentence
p644
(dp645
g17
I0
sg18
(lp646
S'A'
p647
aS'master'
p648
aS'sends'
p649
aS'his'
p650
aS'servant'
p651
aS'to'
p652
aS'look'
p653
aS'for'
p654
aS'his'
p655
aS'cow'
p656
aS'.'
p657
asg59
(lp658
g145
aVmaster
p659
aVsend
p660
aVhis
p661
aVservant
p662
aVto
p663
aVlook
p664
aVfor
p665
aVhis
p666
aVcow
p667
ag97
asg98
(lp668
g100
ag100
ag100
ag100
ag100
ag100
ag100
ag100
ag100
ag100
ag100
asg101
(lp669
g106
ag107
ag105
ag112
ag107
ag116
ag117
ag111
ag112
ag107
ag119
asg120
VA master sends his servant to look for his cow.
p670
sba(i__main__
Sentence
p671
(dp672
g17
I1
sg18
(lp673
S'Instead'
p674
aS'the'
p675
aS'boy'
p676
aS'chases'
p677
aS'blackbirds'
p678
aS'.'
p679
asg59
(lp680
VInstead
p681
aVthe
p682
aVboy
p683
aVchase
p684
aVblackbird
p685
ag97
asg98
(lp686
g100
ag100
ag100
ag100
ag100
ag100
asg101
(lp687
g110
ag106
ag107
ag105
ag115
ag119
asg120
VInstead the boy chases blackbirds.
p688
sbasbsS'name'
p689
S'The Wise Servant'
p690
sS'summaries'
p691
(lp692
g640
asb.