ccopy_reg
_reconstructor
p0
(c__main__
Story
p1
c__builtin__
object
p2
Ntp3
Rp4
(dp5
S'text'
p6
g0
(c__main__
Document
p7
g2
Ntp8
Rp9
(dp10
S'_Document__initialContent'
p11
S'Frank and Sharon Whittier had come from the Cincinnati area and, with an inheritance of hers and a sum borrowed from his father, had opened a small art gallery on the fourth floor of a narrow building on West Fifty-seventh Street. They had known each other as children; their families had been in the same country-club set. They had married in 1971, when Frank was freshly graduated from Oberlin and Vietnam-vulnerable and Sharon was only nineteen, a sophomore at Antioch majoring in dance. By the time, six years later, they arrived in New York, they had two small children; the birth of a third led them to give up their apartment and the city struggle and move to a house in Hastings, a low stucco house with a wide-eaved Wright-style roof and view, through massive beeches at the bottom of the yard, of the leaden, ongliding Hudson. They were happy, surely. They had dry midwestern taste, and by sticking to representational painters and abstract sculptors they managed to survive the uglier Eighties styles  faux graffiti, neo  German expressionism cathode-ray prole play, ecological-protest trash art  and bring their quiet, chaste string of fourth-floor rooms into the calm lagoon of Nineties eclectic revivalism and subdued recession chic. They prospered; their youngest child turned twelve, their oldest was filling out college applications.\n\n\n\nWhen Sharon first heard the rumor that Frank had left her for a young homosexual with whom he was having an affair, she had to laugh, for, far from having left her, there he was, right in the lamplit study with her, ripping pages out of ARTnews.\n\n\n\n"I don\'t think so, Avis," she said to the graphic artist on the other end of the line. "He\'s right here with me. Would you like to say hello?" The easy refutation was made additionally sweet by the fact that, some years before, there had been a brief (Sharon thought) romantic flare-up between her husband and this caller, an overanimated redhead with protuberant cheeks and chin. Avis was a second-wave appropriationist who made color Xeroxes of masterpieces out of art books and then signed them in an ink mixed of her own blood and urine. How could she, who had actually slept with Frank, be imagining this grotesque thing?\n\n\n\nThe voice on the phone gushed as if relieved and pleased. "I know, it\'s wildly absurd, but I heard it from two sources, with absolutely solemn assurances."\n\n\n\n"Who were these sources?"\n\n\n\n"I\'m not sure they\'d like you to know. But it was Ed Jaffrey and then that boy who\'s been living with Walton Forney, what does he call himself, one of those single names like Madonna  Jojo!"\n\n\n\n"Well, then," Sharon began.\n\n\n\n"But I\'ve heard it from still others," Avis insisted. "All over town  it\'s in the air. Couldn\'t you and Frank do something about it, if it\'s not true?"\n\n\n\n"\'If,\'" Sharon protested, and her thrust of impatience carried, when she put down the receiver, into her conversation with Frank. "Avis says you\'re supposed to have run off with your homosexual lover."\n\n\n\n"I don\'t have a homosexual lover," Frank said, too calmly, ripping an auction ad out of the magazine.\n\n\n\n"She says all New York says you do."\n\n\n\n"Well, what are you going to believe, all New York or your own experience? Here I sit, faithful to a fault, straight as a die, whatever that means. We made love just two nights ago."\n\n\n\nIt seemed possibly revealing to her that he so distinctly remembered, as if heterosexual performance were a duty he checked off. He was  had always been, for over twenty years  a slim blond man several inches under six feet tall, with a narrow head he liked to keep trim, even during those years when long hair was in fashion, milky-blue eyes set at a slight tilt, such as you see on certain taut Slavic or Norwegian faces, and a small, precise mouth he kept pursed over teeth a shade too prominent and yellow. He was reluctant to smile, as if giving something away, and was vain of his flat belly and lithe collegiate condition. He weighed himself every morning on the bathroom scale, and if he weighed a pound more than yesterday, he skipped lunch. In this, and in his general attention to his own person, he was as quietly fanatic as  it for the first time occurred to her  a woman.\n\n\n\n"You know I\'ve never liked the queer side of this business," he went on. "I\'ve just gotten used to it. I don\'t even think anymore, who\'s gay and who isn\'t."\n\n\n\n"Avis was jubilant," Sharon said. "How could she think it?"\n\n\n\nIt took him a moment to focus on the question and realize that his answer was important to her. He became nettled. "Ask her how," he said. "Our brief and regrettable relationship, if that\'s what interests you, seemed satisfactory to me at least. What troubles and amazes me, if I may say so, is how you can be taking this ridiculous rumor so seriously."\n\n\n\n"I\'m not, Frank," she insisted, then backtracked. "But why would such a rumor come out of thin air? Doesn\'t there have to be something? Since we moved up here, we\'re not together so much, naturally, some days when I can\'t come into town you\'re gone sixteen hours..."\n\n\n\n"But Sharon," he said, like a teacher restoring discipline, removing his reading glasses from his almond-shaped eyes, with their stubby fair lashes. "Don\'t you know me? Ever since after that dance when you were sixteen, that time by the lake?..."\n\n\n\nShe didn\'t want to reminisce. Their early sex had been difficult for her; she had submitted to his advances out of a larger, more social, rather idealistic attraction. She knew that together they would have the strength to get out of Cincinnati and, singly or married to others, they would stay. "Well," she said, enjoying this sensation, despite the chill the rumor had awakened in her, of descending to a deeper level of intimacy than usual, "how well do you know even your own spouse? People are fooled all the time. Peggy Jacobson, for instance, when Henry ran off with that physical therapist, couldn\'t believe, even when the evidence was right there in front of her "\n\n\n\n"I\'m deeply insulted," Frank interrupted, his mouth tense in that way he had when making a joke but not wanting to show his teeth. "My masculinity is insulted." But he couldn\'t deny himself a downward glance into his magazine; his tidy white hand jerked, as if wanting to tear out yet another item that might be useful to their business. Intimacy had always made him nervous. She kept at it, rather hopelessly. "Avis said two separate people had solemnly assured her."\n\n\n\n"Who, exactly?"\n\n\n\nWhen she told him, he said, exactly as she had done, "Well, then." He added, "You know how gays are. Malicious. Mischievous. They have all that time and money on their hands."\n\n\n\n"You sound jealous." Something about the way he was arguing with her strengthened Sharon\'s suspicion that, outrageous as the rumor was  indeed, because it was outrageous  it was true.\n\n\n\nIn the days that followed, now that she was alert to the rumor\'s vaporous presence, she imagined it everywhere  on the poised faces of their staff, in the delicate negotiatory accents of their artists\' agents, in the heartier tones of their repeat customers, even in the gruff, self-occupied ramblings of the artists themselves. People seemed startled when she and Frank entered a room together: The desk receptionist and the security guard in their gallery halted their daily morning banter, and the waiters in their pet restaurant, over on Fifty-ninth, appeared especially effusive and attentive. Handshakes lasted a second too long, women embraced her with an extra squeeze, she felt herself ensnared in a soft net of unspoken pity.\n\n\n\nFrank sensed her discomfort and took a certain malicious pleasure in it, enacting all the while his perfect innocence. He composed himself to appear, from her angle, aloof above the rumor. Dealing professionally in so much absurdity  the art world\'s frantic attention-getting, studied grotesqueries  he merely intensified the fastidious dryness that had sustained their gallery through wave after wave of changing fashion, and that had, like a rocket\'s heat-resistant skin, insulated their launch, their escape from the comfortable riverine smugness of semisouthern, puritanical Cincinnati to this metropolis of dreadful freedom. The rumor amused him, and it amused him, too, to notice how she helplessly watched to see if in the metropolitan throngs his eyes now followed young men as once they had noticed and followed young women. She observed his gestures  always a bit excessively graceful and precise  distrustfully, and listened for the buttery, reedy tone of voice that might signal an invisible sex change.\n\n\n\nThat even in some small fraction of her she was willing to believe the rumor justified a certain maliciousness on his part. He couldn\'t help teasing her  glancing over at her, say, when an especially magnetic young waiter served them, or at home, in their bedroom, pushing more brusquely than was his style at her increasing sexual unwillingness. More than once, at last away from the countless knowing eyes of their New York milieu, in the privacy of their Hastings upstairs, beneath the wide midwestern eaves, she burst into tears and struck out at him, his infuriating, impervious apparent blamelessness. He was just like one of those photo-realist nudes, merciless in every detail and yet subtly, defiantly not there, not human. "You\'re distant," she accused him. "You\'ve always been."\n\n\n\n"I don\'t mean to be. You didn\'t used to mind my manner. You thought it was quietly masterful."\n\n\n\n"I was a teenage girl. I deferred to you."\n\n\n\n"It worked out," he pointed out, lifting his hands in an effete, disclaiming way from his sides, to take in their room, their expensive house, their joint career. "What is it that bothers you, Sharon? The idea of losing me? Or the insult to your female pride? The people who started this ridiculous rumor don\'t even see women. Women to them are just background noise."\n\n\n\n"It\'s not ridiculous  if it were, why does it keep on and on, even though we\'re seen together all the time?"\n\n\n\nFor, ostensibly to quiet her and to quench the rumor, he had all but ceased to go to the city alone, and took her with him even though it meant some neglect of the house and their sons.\n\n\n\nFrank asked, "Who says it keeps on all the time? I\'ve never heard it, never once, except from you. Who\'s mentioned it lately?"\n\n\n\n"Nobody."\n\n\n\n"Well, then." He smiled, his lips not quite parting on his curved teeth, tawny like a beaver\'s.\n\n\n\n"You bastard!" Sharon burst out. "You have some stinking little secret!"\n\n\n\n"I don\'t," he serenely half-lied.'
p12
sS'sentences'
p13
(lp14
(i__main__
Sentence
p15
(dp16
S'index'
p17
I0
sS'words'
p18
(lp19
S'Frank'
p20
aS'and'
p21
aS'Sharon'
p22
aS'Whittier'
p23
aS'had'
p24
aS'come'
p25
aS'from'
p26
aS'the'
p27
aS'Cincinnati'
p28
aS'area'
p29
aS'and'
p30
aS','
p31
aS'with'
p32
aS'an'
p33
aS'inheritance'
p34
aS'of'
p35
aS'hers'
p36
aS'and'
p37
aS'a'
p38
aS'sum'
p39
aS'borrowed'
p40
aS'from'
p41
aS'his'
p42
aS'father'
p43
aS','
p44
aS'had'
p45
aS'opened'
p46
aS'a'
p47
aS'small'
p48
aS'art'
p49
aS'gallery'
p50
aS'on'
p51
aS'the'
p52
aS'fourth'
p53
aS'floor'
p54
aS'of'
p55
aS'a'
p56
aS'narrow'
p57
aS'building'
p58
aS'on'
p59
aS'West'
p60
aS'Fifty-seventh'
p61
aS'Street'
p62
aS'.'
p63
asS'lemmas'
p64
(lp65
VFrank
p66
aVand
p67
aVSharon
p68
aVWhittier
p69
aVhave
p70
aVcome
p71
aVfrom
p72
aVthe
p73
aVCincinnati
p74
aVarea
p75
aVand
p76
aV,
p77
aVwith
p78
aVan
p79
aVinheritance
p80
aVof
p81
aVhers
p82
aVand
p83
aVa
p84
aVsum
p85
aVborrow
p86
aVfrom
p87
aVhis
p88
aVfather
p89
ag77
ag70
aVopen
p90
ag84
aVsmall
p91
aVart
p92
aVgallery
p93
aVon
p94
aVthe
p95
aVfourth
p96
aVfloor
p97
aVof
p98
ag84
aVnarrow
p99
aVbuilding
p100
aVon
p101
aVWest
p102
aVFifty-seventh
p103
aVStreet
p104
aV.
p105
asS'nerTags'
p106
(lp107
VPERSON
p108
aVO
p109
aVPERSON
p110
aVPERSON
p111
ag109
ag109
ag109
ag109
aVLOCATION
p112
ag109
ag109
ag109
ag109
ag109
ag109
ag109
ag109
ag109
ag109
ag109
ag109
ag109
ag109
ag109
ag109
ag109
ag109
ag109
ag109
ag109
ag109
ag109
ag109
ag109
ag109
ag109
ag109
ag109
ag109
ag109
aVLOCATION
p113
aVLOCATION
p114
aVLOCATION
p115
ag109
asS'posTags'
p116
(lp117
S'NNP'
p118
aS'CC'
p119
ag118
ag118
aS'VBD'
p120
aS'VBN'
p121
aS'IN'
p122
aS'DT'
p123
ag118
aS'NN'
p124
ag119
aS','
p125
ag122
ag123
ag124
ag122
aS'NNS'
p126
ag119
ag123
ag124
ag121
ag122
aS'PRP$'
p127
ag124
ag125
ag120
ag121
ag123
aS'JJ'
p128
ag124
ag124
ag122
ag123
ag128
ag124
ag122
ag123
ag124
ag124
ag122
ag118
ag128
ag118
aS'.'
p129
asS'_Sentence__initialContent'
p130
VFrank and Sharon Whittier had come from the Cincinnati area and, with an inheritance of hers and a sum borrowed from his father, had opened a small art gallery on the fourth floor of a narrow building on West Fifty-seventh Street.
p131
sba(i__main__
Sentence
p132
(dp133
g17
I1
sg18
(lp134
S'They'
p135
aS'had'
p136
aS'known'
p137
aS'each'
p138
aS'other'
p139
aS'as'
p140
aS'children'
p141
aS';'
p142
aS'their'
p143
aS'families'
p144
aS'had'
p145
aS'been'
p146
aS'in'
p147
aS'the'
p148
aS'same'
p149
aS'country-club'
p150
aS'set'
p151
aS'.'
p152
asg64
(lp153
VThey
p154
ag70
aVknow
p155
aVeach
p156
aVother
p157
ag84
aVchild
p158
aV;
p159
aVtheir
p160
aVfamily
p161
ag70
aVbe
p162
aVin
p163
aVthe
p164
aVsame
p165
aVcountry-club
p166
aVset
p167
ag105
asg106
(lp168
g109
ag109
ag109
ag109
ag109
ag109
ag109
ag109
ag109
ag109
ag109
ag109
ag109
ag109
ag109
ag109
ag109
ag109
asg116
(lp169
S'PRP'
p170
ag120
ag121
ag123
ag128
ag122
ag126
aS':'
p171
ag127
ag126
ag120
ag121
ag122
ag123
ag128
ag124
ag124
ag129
asg130
VThey had known each other as children; their families had been in the same country-club set.
p172
sba(i__main__
Sentence
p173
(dp174
g17
I2
sg18
(lp175
S'They'
p176
aS'had'
p177
aS'married'
p178
aS'in'
p179
aS'1971'
p180
aS','
p181
aS'when'
p182
aS'Frank'
p183
aS'was'
p184
aS'freshly'
p185
aS'graduated'
p186
aS'from'
p187
aS'Oberlin'
p188
aS'and'
p189
aS'Vietnam-vulnerable'
p190
aS'and'
p191
aS'Sharon'
p192
aS'was'
p193
aS'only'
p194
aS'nineteen'
p195
aS','
p196
aS'a'
p197
aS'sophomore'
p198
aS'at'
p199
aS'Antioch'
p200
aS'majoring'
p201
aS'in'
p202
aS'dance'
p203
aS'.'
p204
asg64
(lp205
VThey
p206
ag70
aVmarry
p207
aVin
p208
aV1971
p209
ag77
aVwhen
p210
aVFrank
p211
aVbe
p212
aVfreshly
p213
aVgraduate
p214
aVfrom
p215
aVOberlin
p216
aVand
p217
aVVietnam-vulnerable
p218
aVand
p219
aVSharon
p220
ag212
aVonly
p221
aVnineteen
p222
ag77
ag84
aVsophomore
p223
aVat
p224
aVAntioch
p225
aVmajoring
p226
aVin
p227
aVdance
p228
ag105
asg106
(lp229
g109
ag109
ag109
ag109
ag109
ag109
ag109
aVPERSON
p230
ag109
ag109
ag109
ag109
aVLOCATION
p231
ag109
ag109
ag109
aVPERSON
p232
ag109
ag109
ag109
ag109
ag109
ag109
ag109
aVLOCATION
p233
ag109
ag109
ag109
ag109
asg116
(lp234
g170
ag120
ag121
ag122
aS'CD'
p235
ag125
aS'WRB'
p236
ag118
ag120
aS'RB'
p237
ag121
ag122
ag118
ag119
ag128
ag119
ag118
ag120
ag237
ag121
ag125
ag123
ag124
ag122
ag118
ag124
ag122
ag124
ag129
asg130
VThey had married in 1971, when Frank was freshly graduated from Oberlin and Vietnam-vulnerable and Sharon was only nineteen, a sophomore at Antioch majoring in dance.
p238
sba(i__main__
Sentence
p239
(dp240
g17
I3
sg18
(lp241
S'By'
p242
aS'the'
p243
aS'time'
p244
aS','
p245
aS'six'
p246
aS'years'
p247
aS'later'
p248
aS','
p249
aS'they'
p250
aS'arrived'
p251
aS'in'
p252
aS'New'
p253
aS'York'
p254
aS','
p255
aS'they'
p256
aS'had'
p257
aS'two'
p258
aS'small'
p259
aS'children'
p260
aS';'
p261
aS'the'
p262
aS'birth'
p263
aS'of'
p264
aS'a'
p265
aS'third'
p266
aS'led'
p267
aS'them'
p268
aS'to'
p269
aS'give'
p270
aS'up'
p271
aS'their'
p272
aS'apartment'
p273
aS'and'
p274
aS'the'
p275
aS'city'
p276
aS'struggle'
p277
aS'and'
p278
aS'move'
p279
aS'to'
p280
aS'a'
p281
aS'house'
p282
aS'in'
p283
aS'Hastings'
p284
aS','
p285
aS'a'
p286
aS'low'
p287
aS'stucco'
p288
aS'house'
p289
aS'with'
p290
aS'a'
p291
aS'wide-eaved'
p292
aS'Wright-style'
p293
aS'roof'
p294
aS'and'
p295
aS'view'
p296
aS','
p297
aS'through'
p298
aS'massive'
p299
aS'beeches'
p300
aS'at'
p301
aS'the'
p302
aS'bottom'
p303
aS'of'
p304
aS'the'
p305
aS'yard'
p306
aS','
p307
aS'of'
p308
aS'the'
p309
aS'leaden'
p310
aS','
p311
aS'ongliding'
p312
aS'Hudson'
p313
aS'.'
p314
asg64
(lp315
VBy
p316
aVthe
p317
aVtime
p318
ag77
aVsix
p319
aVyear
p320
aVlater
p321
ag77
aVthey
p322
aVarrive
p323
aVin
p324
aVNew
p325
aVYork
p326
ag77
aVthey
p327
ag70
aVtwo
p328
aVsmall
p329
ag158
ag159
aVthe
p330
aVbirth
p331
aVof
p332
ag84
aVthird
p333
aVlead
p334
aVthem
p335
aVto
p336
aVgive
p337
aVup
p338
aVtheir
p339
aVapartment
p340
aVand
p341
aVthe
p342
aVcity
p343
aVstruggle
p344
aVand
p345
aVmove
p346
aVto
p347
ag84
aVhouse
p348
aVin
p349
aVHastings
p350
ag77
ag84
aVlow
p351
aVstucco
p352
aVhouse
p353
aVwith
p354
ag84
aVwide-eaved
p355
aVWright-style
p356
aVroof
p357
aVand
p358
aVview
p359
ag77
aVthrough
p360
aVmassive
p361
aVbeech
p362
aVat
p363
aVthe
p364
aVbottom
p365
aVof
p366
aVthe
p367
aVyard
p368
ag77
aVof
p369
aVthe
p370
aVleaden
p371
ag77
aVongliding
p372
aVHudson
p373
ag105
asg106
(lp374
g109
ag109
ag109
ag109
ag109
ag109
ag109
ag109
ag109
ag109
ag109
aVLOCATION
p375
aVLOCATION
p376
ag109
ag109
ag109
ag109
ag109
ag109
ag109
ag109
ag109
ag109
ag109
ag109
ag109
ag109
ag109
ag109
ag109
ag109
ag109
ag109
ag109
ag109
ag109
ag109
ag109
ag109
ag109
ag109
ag109
aVLOCATION
p377
ag109
ag109
ag109
ag109
ag109
ag109
ag109
ag109
ag109
ag109
ag109
ag109
ag109
ag109
ag109
ag109
ag109
ag109
ag109
ag109
ag109
ag109
ag109
ag109
ag109
ag109
ag109
ag109
aVLOCATION
p378
ag109
asg116
(lp379
g122
ag123
ag124
ag125
ag235
ag126
aS'RBR'
p380
ag125
ag170
ag120
ag122
ag118
ag118
ag125
ag170
ag120
ag235
ag128
ag126
ag171
ag123
ag124
ag122
ag123
ag128
ag121
ag170
aS'TO'
p381
aS'VB'
p382
ag122
ag127
ag124
ag119
ag123
ag124
ag124
ag119
ag382
ag381
ag123
ag124
ag122
ag118
ag125
ag123
ag128
ag124
ag124
ag122
ag123
ag128
ag128
ag124
ag119
ag124
ag125
ag122
ag128
ag126
ag122
ag123
ag124
ag122
ag123
ag124
ag125
ag122
ag123
ag124
ag125
aS'VBG'
p383
ag118
ag129
asg130
VBy the time, six years later, they arrived in New York, they had two small children; the birth of a third led them to give up their apartment and the city struggle and move to a house in Hastings, a low stucco house with a wide-eaved Wright-style roof and view, through massive beeches at the bottom of the yard, of the leaden, ongliding Hudson.
p384
sba(i__main__
Sentence
p385
(dp386
g17
I4
sg18
(lp387
S'They'
p388
aS'were'
p389
aS'happy'
p390
aS','
p391
aS'surely'
p392
aS'.'
p393
asg64
(lp394
VThey
p395
aVbe
p396
aVhappy
p397
ag77
aVsurely
p398
ag105
asg106
(lp399
g109
ag109
ag109
ag109
ag109
ag109
asg116
(lp400
g170
ag120
ag128
ag125
ag237
ag129
asg130
VThey were happy, surely.
p401
sba(i__main__
Sentence
p402
(dp403
g17
I5
sg18
(lp404
S'They'
p405
aS'had'
p406
aS'dry'
p407
aS'midwestern'
p408
aS'taste'
p409
aS','
p410
aS'and'
p411
aS'by'
p412
aS'sticking'
p413
aS'to'
p414
aS'representational'
p415
aS'painters'
p416
aS'and'
p417
aS'abstract'
p418
aS'sculptors'
p419
aS'they'
p420
aS'managed'
p421
aS'to'
p422
aS'survive'
p423
aS'the'
p424
aS'uglier'
p425
aS'Eighties'
p426
aS'styles'
p427
aS'faux'
p428
aS'graffiti'
p429
aS','
p430
aS'neo'
p431
aS'German'
p432
aS'expressionism'
p433
aS'cathode-ray'
p434
aS'prole'
p435
aS'play'
p436
aS','
p437
aS'ecological-protest'
p438
aS'trash'
p439
aS'art'
p440
aS'and'
p441
aS'bring'
p442
aS'their'
p443
aS'quiet'
p444
aS','
p445
aS'chaste'
p446
aS'string'
p447
aS'of'
p448
aS'fourth-floor'
p449
aS'rooms'
p450
aS'into'
p451
aS'the'
p452
aS'calm'
p453
aS'lagoon'
p454
aS'of'
p455
aS'Nineties'
p456
aS'eclectic'
p457
aS'revivalism'
p458
aS'and'
p459
aS'subdued'
p460
aS'recession'
p461
aS'chic'
p462
aS'.'
p463
asg64
(lp464
VThey
p465
ag70
aVdry
p466
aVmidwestern
p467
aVtaste
p468
ag77
aVand
p469
aVby
p470
aVsticking
p471
aVto
p472
aVrepresentational
p473
aVpainter
p474
aVand
p475
aVabstract
p476
aVsculptor
p477
aVthey
p478
aVmanage
p479
aVto
p480
aVsurvive
p481
aVthe
p482
aVuglier
p483
aVEighties
p484
aVstyle
p485
aVfaux
p486
aVgraffiti
p487
ag77
aVneo
p488
aVGerman
p489
aVexpressionism
p490
aVcathode-ray
p491
aVprole
p492
aVplay
p493
ag77
aVecological-protest
p494
aVtrash
p495
aVart
p496
aVand
p497
aVbring
p498
aVtheir
p499
aVquiet
p500
ag77
aVchaste
p501
aVstring
p502
aVof
p503
aVfourth-floor
p504
aVroom
p505
aVinto
p506
aVthe
p507
aVcalm
p508
aVlagoon
p509
aVof
p510
aVNineties
p511
aVeclectic
p512
aVrevivalism
p513
aVand
p514
aVsubdue
p515
aVrecession
p516
aVchic
p517
ag105
asg106
(lp518
g109
ag109
ag109
ag109
ag109
ag109
ag109
ag109
ag109
ag109
ag109
ag109
ag109
ag109
ag109
ag109
ag109
ag109
ag109
ag109
ag109
ag109
ag109
ag109
ag109
ag109
ag109
ag109
ag109
ag109
ag109
ag109
ag109
ag109
ag109
ag109
ag109
ag109
ag109
ag109
ag109
ag109
ag109
ag109
ag109
ag109
ag109
ag109
ag109
ag109
ag109
ag109
ag109
ag109
ag109
ag109
ag109
ag109
ag109
asg116
(lp519
g170
ag120
ag128
ag124
ag124
ag125
ag119
ag122
ag124
ag381
ag128
ag126
ag119
ag124
ag126
ag170
ag120
ag381
ag382
ag123
ag124
aS'NNPS'
p520
ag126
aS'VBP'
p521
ag124
ag125
ag124
ag118
ag124
ag118
ag124
ag124
ag125
ag128
ag124
ag124
ag119
ag383
ag127
ag128
ag125
ag124
ag383
ag122
ag128
ag126
ag122
ag123
ag124
ag124
ag122
ag520
ag128
ag124
ag119
ag120
ag124
ag128
ag129
asg130
VThey had dry midwestern taste, and by sticking to representational painters and abstract sculptors they managed to survive the uglier Eighties styles  faux graffiti, neo  German expressionism cathode-ray prole play, ecological-protest trash art  and bring their quiet, chaste string of fourth-floor rooms into the calm lagoon of Nineties eclectic revivalism and subdued recession chic.
p522
sba(i__main__
Sentence
p523
(dp524
g17
I6
sg18
(lp525
S'They'
p526
aS'prospered'
p527
aS';'
p528
aS'their'
p529
aS'youngest'
p530
aS'child'
p531
aS'turned'
p532
aS'twelve'
p533
aS','
p534
aS'their'
p535
aS'oldest'
p536
aS'was'
p537
aS'filling'
p538
aS'out'
p539
aS'college'
p540
aS'applications'
p541
aS'.'
p542
asg64
(lp543
VThey
p544
aVprosper
p545
ag159
aVtheir
p546
aVyoungest
p547
aVchild
p548
aVturn
p549
aVtwelve
p550
ag77
aVtheir
p551
aVold
p552
ag212
aVfill
p553
aVout
p554
aVcollege
p555
aVapplication
p556
ag105
asg106
(lp557
g109
ag109
ag109
ag109
ag109
ag109
ag109
ag109
ag109
ag109
ag109
ag109
ag109
ag109
ag109
ag109
ag109
asg116
(lp558
g170
ag120
ag171
ag127
ag124
ag124
ag120
ag124
ag125
ag127
aS'JJS'
p559
ag120
ag383
aS'RP'
p560
ag124
ag126
ag129
asg130
VThey prospered; their youngest child turned twelve, their oldest was filling out college applications.
p561
sba(i__main__
Sentence
p562
(dp563
g17
I7
sg18
(lp564
S'When'
p565
aS'Sharon'
p566
aS'first'
p567
aS'heard'
p568
aS'the'
p569
aS'rumor'
p570
aS'that'
p571
aS'Frank'
p572
aS'had'
p573
aS'left'
p574
aS'her'
p575
aS'for'
p576
aS'a'
p577
aS'young'
p578
aS'homosexual'
p579
aS'with'
p580
aS'whom'
p581
aS'he'
p582
aS'was'
p583
aS'having'
p584
aS'an'
p585
aS'affair'
p586
aS','
p587
aS'she'
p588
aS'had'
p589
aS'to'
p590
aS'laugh'
p591
aS','
p592
aS'for'
p593
aS','
p594
aS'far'
p595
aS'from'
p596
aS'having'
p597
aS'left'
p598
aS'her'
p599
aS','
p600
aS'there'
p601
aS'he'
p602
aS'was'
p603
aS','
p604
aS'right'
p605
aS'in'
p606
aS'the'
p607
aS'lamplit'
p608
aS'study'
p609
aS'with'
p610
aS'her'
p611
aS','
p612
aS'ripping'
p613
aS'pages'
p614
aS'out'
p615
aS'of'
p616
aS'ARTnews'
p617
aS'.'
p618
asg64
(lp619
VWhen
p620
aVSharon
p621
aVfirst
p622
aVhear
p623
aVthe
p624
aVrumor
p625
aVthat
p626
aVFrank
p627
ag70
aVleave
p628
aVher
p629
aVfor
p630
ag84
aVyoung
p631
aVhomosexual
p632
aVwith
p633
aVwhom
p634
aVhe
p635
ag212
aVhave
p636
aVan
p637
aVaffair
p638
ag77
aVshe
p639
ag70
aVto
p640
aVlaugh
p641
ag77
aVfor
p642
ag77
aVfar
p643
aVfrom
p644
aVhave
p645
ag628
aVher
p646
ag77
aVthere
p647
aVhe
p648
ag212
ag77
aVright
p649
aVin
p650
aVthe
p651
aVlamplit
p652
aVstudy
p653
aVwith
p654
aVher
p655
ag77
aVrip
p656
aVpage
p657
aVout
p658
aVof
p659
aVARTnews
p660
ag105
asg106
(lp661
g109
aVPERSON
p662
ag109
ag109
ag109
ag109
ag109
aVPERSON
p663
ag109
ag109
ag109
ag109
ag109
ag109
ag109
ag109
ag109
ag109
ag109
ag109
ag109
ag109
ag109
ag109
ag109
ag109
ag109
ag109
ag109
ag109
ag109
ag109
ag109
ag109
ag109
ag109
ag109
ag109
ag109
ag109
ag109
ag109
ag109
ag109
ag109
ag109
ag109
ag109
ag109
ag109
ag109
ag109
ag109
ag109
asg116
(lp664
g236
ag118
ag237
ag120
ag123
ag124
ag122
ag118
ag120
ag121
ag127
ag122
ag123
ag128
ag124
ag122
aS'WP'
p665
ag170
ag120
ag383
ag123
ag124
ag125
ag170
ag120
ag381
ag382
ag125
ag122
ag125
ag237
ag122
ag383
ag121
ag127
ag125
aS'EX'
p666
ag170
ag120
ag125
ag237
ag122
ag123
ag124
ag124
ag122
ag127
ag125
ag383
ag126
ag122
ag122
ag118
ag129
asg130
VWhen Sharon first heard the rumor that Frank had left her for a young homosexual with whom he was having an affair, she had to laugh, for, far from having left her, there he was, right in the lamplit study with her, ripping pages out of ARTnews.
p667
sba(i__main__
Sentence
p668
(dp669
g17
I8
sg18
(lp670
S'``'
p671
aS'I'
p672
aS'do'
p673
aS"n't"
p674
aS'think'
p675
aS'so'
p676
aS','
p677
aS'Avis'
p678
aS','
p679
aS"''"
p680
aS'she'
p681
aS'said'
p682
aS'to'
p683
aS'the'
p684
aS'graphic'
p685
aS'artist'
p686
aS'on'
p687
aS'the'
p688
aS'other'
p689
aS'end'
p690
aS'of'
p691
aS'the'
p692
aS'line'
p693
aS'.'
p694
asg64
(lp695
V``
p696
aVI
p697
aVdo
p698
aVn't
p699
aVthink
p700
aVso
p701
ag77
aVAvis
p702
ag77
aV''
p703
aVshe
p704
aVsay
p705
aVto
p706
aVthe
p707
aVgraphic
p708
aVartist
p709
aVon
p710
aVthe
p711
aVother
p712
aVend
p713
aVof
p714
aVthe
p715
aVline
p716
ag105
asg106
(lp717
g109
ag109
ag109
ag109
ag109
ag109
ag109
aVORGANIZATION
p718
ag109
ag109
ag109
ag109
ag109
ag109
ag109
ag109
ag109
ag109
ag109
ag109
ag109
ag109
ag109
ag109
asg116
(lp719
S'``'
p720
ag170
ag521
ag237
ag382
ag237
ag125
ag118
ag125
aS"''"
p721
ag170
ag120
ag381
ag123
ag128
ag124
ag122
ag123
ag128
ag124
ag122
ag123
ag124
ag129
asg130
V"I don't think so, Avis," she said to the graphic artist on the other end of the line.
p722
sba(i__main__
Sentence
p723
(dp724
g17
I9
sg18
(lp725
S'``'
p726
aS'He'
p727
aS"'s"
p728
aS'right'
p729
aS'here'
p730
aS'with'
p731
aS'me'
p732
aS'.'
p733
asg64
(lp734
V``
p735
aVHe
p736
aV's
p737
aVright
p738
aVhere
p739
aVwith
p740
aVme
p741
ag105
asg106
(lp742
g109
ag109
ag109
ag109
ag109
ag109
ag109
ag109
asg116
(lp743
g720
ag170
aS'VBZ'
p744
ag237
ag237
ag122
ag170
ag129
asg130
V"He's right here with me.
p745
sba(i__main__
Sentence
p746
(dp747
g17
I10
sg18
(lp748
S'Would'
p749
aS'you'
p750
aS'like'
p751
aS'to'
p752
aS'say'
p753
aS'hello'
p754
aS'?'
p755
aS"''"
p756
asg64
(lp757
VWould
p758
aVyou
p759
aVlike
p760
aVto
p761
aVsay
p762
aVhello
p763
aV?
p764
aV''
p765
asg106
(lp766
g109
ag109
ag109
ag109
ag109
ag109
ag109
ag109
asg116
(lp767
S'MD'
p768
ag170
ag382
ag381
ag382
ag124
ag129
ag721
asg130
VWould you like to say hello?"
p769
sba(i__main__
Sentence
p770
(dp771
g17
I11
sg18
(lp772
S'The'
p773
aS'easy'
p774
aS'refutation'
p775
aS'was'
p776
aS'made'
p777
aS'additionally'
p778
aS'sweet'
p779
aS'by'
p780
aS'the'
p781
aS'fact'
p782
aS'that'
p783
aS','
p784
aS'some'
p785
aS'years'
p786
aS'before'
p787
aS','
p788
aS'there'
p789
aS'had'
p790
aS'been'
p791
aS'a'
p792
aS'brief'
p793
aS'('
p794
aS'Sharon'
p795
aS'thought'
p796
aS')'
p797
aS'romantic'
p798
aS'flare-up'
p799
aS'between'
p800
aS'her'
p801
aS'husband'
p802
aS'and'
p803
aS'this'
p804
aS'caller'
p805
aS','
p806
aS'an'
p807
aS'overanimated'
p808
aS'redhead'
p809
aS'with'
p810
aS'protuberant'
p811
aS'cheeks'
p812
aS'and'
p813
aS'chin'
p814
aS'.'
p815
asg64
(lp816
VThe
p817
aVeasy
p818
aVrefutation
p819
ag212
aVmake
p820
aVadditionally
p821
aVsweet
p822
aVby
p823
aVthe
p824
aVfact
p825
aVthat
p826
ag77
aVsome
p827
aVyear
p828
aVbefore
p829
ag77
aVthere
p830
ag70
ag162
ag84
aVbrief
p831
aV(
p832
aVSharon
p833
aVthink
p834
aV)
p835
aVromantic
p836
aVflare-up
p837
aVbetween
p838
aVher
p839
aVhusband
p840
aVand
p841
aVthis
p842
aVcaller
p843
ag77
aVan
p844
aVoveranimated
p845
aVredhead
p846
aVwith
p847
aVprotuberant
p848
aVcheek
p849
aVand
p850
aVchin
p851
ag105
asg106
(lp852
g109
ag109
ag109
ag109
ag109
ag109
ag109
ag109
ag109
ag109
ag109
ag109
ag109
ag109
ag109
ag109
ag109
ag109
ag109
ag109
ag109
ag109
aVPERSON
p853
ag109
ag109
ag109
ag109
ag109
ag109
ag109
ag109
ag109
ag109
ag109
ag109
ag109
ag109
ag109
ag109
ag109
ag109
ag109
ag109
asg116
(lp854
g123
ag128
ag124
ag120
ag121
ag237
ag128
ag122
ag123
ag124
ag122
ag125
ag123
ag126
ag122
ag125
ag666
ag120
ag121
ag123
ag128
ag124
ag118
ag120
ag118
ag128
ag124
ag122
ag127
ag124
ag119
ag123
ag124
ag125
ag123
ag128
ag124
ag122
ag128
ag126
ag119
ag122
ag129
asg130
VThe easy refutation was made additionally sweet by the fact that, some years before, there had been a brief (Sharon thought) romantic flare-up between her husband and this caller, an overanimated redhead with protuberant cheeks and chin.
p855
sba(i__main__
Sentence
p856
(dp857
g17
I12
sg18
(lp858
S'Avis'
p859
aS'was'
p860
aS'a'
p861
aS'second-wave'
p862
aS'appropriationist'
p863
aS'who'
p864
aS'made'
p865
aS'color'
p866
aS'Xeroxes'
p867
aS'of'
p868
aS'masterpieces'
p869
aS'out'
p870
aS'of'
p871
aS'art'
p872
aS'books'
p873
aS'and'
p874
aS'then'
p875
aS'signed'
p876
aS'them'
p877
aS'in'
p878
aS'an'
p879
aS'ink'
p880
aS'mixed'
p881
aS'of'
p882
aS'her'
p883
aS'own'
p884
aS'blood'
p885
aS'and'
p886
aS'urine'
p887
aS'.'
p888
asg64
(lp889
VAvis
p890
ag212
ag84
aVsecond-wave
p891
aVappropriationist
p892
aVwho
p893
ag820
aVcolor
p894
aVXeroxes
p895
aVof
p896
aVmasterpiece
p897
aVout
p898
aVof
p899
aVart
p900
aVbook
p901
aVand
p902
aVthen
p903
aVsign
p904
aVthem
p905
aVin
p906
aVan
p907
aVink
p908
aVmix
p909
aVof
p910
aVher
p911
aVown
p912
aVblood
p913
aVand
p914
aVurine
p915
ag105
asg106
(lp916
VORGANIZATION
p917
ag109
ag109
ag109
ag109
ag109
ag109
ag109
ag109
ag109
ag109
ag109
ag109
ag109
ag109
ag109
ag109
ag109
ag109
ag109
ag109
ag109
ag109
ag109
ag109
ag109
ag109
ag109
ag109
ag109
asg116
(lp918
g118
ag120
ag123
ag128
ag124
ag665
ag121
ag124
ag126
ag122
ag126
ag122
ag122
ag124
ag126
ag119
ag237
ag120
ag170
ag122
ag123
ag124
ag121
ag122
ag127
ag128
ag124
ag119
ag124
ag129
asg130
VAvis was a second-wave appropriationist who made color Xeroxes of masterpieces out of art books and then signed them in an ink mixed of her own blood and urine.
p919
sba(i__main__
Sentence
p920
(dp921
g17
I13
sg18
(lp922
S'How'
p923
aS'could'
p924
aS'she'
p925
aS','
p926
aS'who'
p927
aS'had'
p928
aS'actually'
p929
aS'slept'
p930
aS'with'
p931
aS'Frank'
p932
aS','
p933
aS'be'
p934
aS'imagining'
p935
aS'this'
p936
aS'grotesque'
p937
aS'thing'
p938
aS'?'
p939
asg64
(lp940
VHow
p941
aVcould
p942
aVshe
p943
ag77
aVwho
p944
ag70
aVactually
p945
aVsleep
p946
aVwith
p947
aVFrank
p948
ag77
aVbe
p949
aVimagine
p950
aVthis
p951
aVgrotesque
p952
aVthing
p953
ag764
asg106
(lp954
g109
ag109
ag109
ag109
ag109
ag109
ag109
ag109
ag109
aVPERSON
p955
ag109
ag109
ag109
ag109
ag109
ag109
ag109
asg116
(lp956
g236
ag768
ag170
ag125
ag665
ag120
ag237
ag121
ag122
ag118
ag125
ag382
ag383
ag123
ag124
ag124
ag129
asg130
VHow could she, who had actually slept with Frank, be imagining this grotesque thing?
p957
sba(i__main__
Sentence
p958
(dp959
g17
I14
sg18
(lp960
S'The'
p961
aS'voice'
p962
aS'on'
p963
aS'the'
p964
aS'phone'
p965
aS'gushed'
p966
aS'as'
p967
aS'if'
p968
aS'relieved'
p969
aS'and'
p970
aS'pleased'
p971
aS'.'
p972
asg64
(lp973
VThe
p974
aVvoice
p975
aVon
p976
aVthe
p977
aVphone
p978
aVgush
p979
ag84
aVif
p980
aVrelieved
p981
aVand
p982
aVplease
p983
ag105
asg106
(lp984
g109
ag109
ag109
ag109
ag109
ag109
ag109
ag109
ag109
ag109
ag109
ag109
asg116
(lp985
g123
ag124
ag122
ag123
ag124
ag120
ag122
ag122
ag128
ag119
ag121
ag129
asg130
VThe voice on the phone gushed as if relieved and pleased.
p986
sba(i__main__
Sentence
p987
(dp988
g17
I15
sg18
(lp989
S'``'
p990
aS'I'
p991
aS'know'
p992
aS','
p993
aS'it'
p994
aS"'s"
p995
aS'wildly'
p996
aS'absurd'
p997
aS','
p998
aS'but'
p999
aS'I'
p1000
aS'heard'
p1001
aS'it'
p1002
aS'from'
p1003
aS'two'
p1004
aS'sources'
p1005
aS','
p1006
aS'with'
p1007
aS'absolutely'
p1008
aS'solemn'
p1009
aS'assurances'
p1010
aS'.'
p1011
aS"''"
p1012
asg64
(lp1013
V``
p1014
ag697
aVknow
p1015
ag77
aVit
p1016
aV's
p1017
aVwildly
p1018
aVabsurd
p1019
ag77
aVbut
p1020
ag697
ag623
aVit
p1021
aVfrom
p1022
aVtwo
p1023
aVsource
p1024
ag77
aVwith
p1025
aVabsolutely
p1026
aVsolemn
p1027
aVassurance
p1028
ag105
aV''
p1029
asg106
(lp1030
g109
ag109
ag109
ag109
ag109
ag109
ag109
ag109
ag109
ag109
ag109
ag109
ag109
ag109
ag109
ag109
ag109
ag109
ag109
ag109
ag109
ag109
ag109
asg116
(lp1031
g720
ag170
ag521
ag125
ag170
ag744
ag237
ag128
ag125
ag119
ag170
ag521
ag170
ag122
ag235
ag126
ag125
ag122
ag237
ag128
ag126
ag129
ag721
asg130
V"I know, it's wildly absurd, but I heard it from two sources, with absolutely solemn assurances."
p1032
sba(i__main__
Sentence
p1033
(dp1034
g17
I16
sg18
(lp1035
S'``'
p1036
aS'Who'
p1037
aS'were'
p1038
aS'these'
p1039
aS'sources'
p1040
aS'?'
p1041
aS"''"
p1042
asg64
(lp1043
V``
p1044
aVWho
p1045
ag396
aVthese
p1046
aVsource
p1047
ag764
aV''
p1048
asg106
(lp1049
g109
ag109
ag109
ag109
ag109
ag109
ag109
asg116
(lp1050
g720
ag665
ag120
ag123
ag126
ag129
ag721
asg130
V"Who were these sources?"
p1051
sba(i__main__
Sentence
p1052
(dp1053
g17
I17
sg18
(lp1054
S'``'
p1055
aS'I'
p1056
aS"'m"
p1057
aS'not'
p1058
aS'sure'
p1059
aS'they'
p1060
aS"'d"
p1061
aS'like'
p1062
aS'you'
p1063
aS'to'
p1064
aS'know'
p1065
aS'.'
p1066
asg64
(lp1067
V``
p1068
ag697
aV'm
p1069
aVnot
p1070
aVsure
p1071
aVthey
p1072
aV'd
p1073
aVlike
p1074
aVyou
p1075
aVto
p1076
aVknow
p1077
ag105
asg106
(lp1078
g109
ag109
ag109
ag109
ag109
ag109
ag109
ag109
ag109
ag109
ag109
ag109
asg116
(lp1079
g720
ag170
ag521
ag237
ag128
ag170
ag768
ag382
ag170
ag381
ag382
ag129
asg130
V"I'm not sure they'd like you to know.
p1080
sba(i__main__
Sentence
p1081
(dp1082
g17
I18
sg18
(lp1083
S'But'
p1084
aS'it'
p1085
aS'was'
p1086
aS'Ed'
p1087
aS'Jaffrey'
p1088
aS'and'
p1089
aS'then'
p1090
aS'that'
p1091
aS'boy'
p1092
aS'who'
p1093
aS"'s"
p1094
aS'been'
p1095
aS'living'
p1096
aS'with'
p1097
aS'Walton'
p1098
aS'Forney'
p1099
aS','
p1100
aS'what'
p1101
aS'does'
p1102
aS'he'
p1103
aS'call'
p1104
aS'himself'
p1105
aS','
p1106
aS'one'
p1107
aS'of'
p1108
aS'those'
p1109
aS'single'
p1110
aS'names'
p1111
aS'like'
p1112
aS'Madonna'
p1113
aS'Jojo'
p1114
aS'!'
p1115
aS"''"
p1116
asg64
(lp1117
VBut
p1118
aVit
p1119
ag212
aVEd
p1120
aVJaffrey
p1121
aVand
p1122
aVthen
p1123
aVthat
p1124
aVboy
p1125
aVwho
p1126
aV's
p1127
ag162
aVlive
p1128
aVwith
p1129
aVWalton
p1130
aVForney
p1131
ag77
aVwhat
p1132
aVdo
p1133
aVhe
p1134
aVcall
p1135
aVhimself
p1136
ag77
aVone
p1137
aVof
p1138
aVthose
p1139
aVsingle
p1140
aVname
p1141
aVlike
p1142
aVMadonna
p1143
aVJojo
p1144
aV!
p1145
aV''
p1146
asg106
(lp1147
g109
ag109
ag109
aVPERSON
p1148
aVPERSON
p1149
ag109
ag109
ag109
ag109
ag109
ag109
ag109
ag109
ag109
aVPERSON
p1150
aVPERSON
p1151
ag109
ag109
ag109
ag109
ag109
ag109
ag109
ag109
ag109
ag109
ag109
ag109
ag109
aVPERSON
p1152
aVPERSON
p1153
ag109
ag109
asg116
(lp1154
g119
ag170
ag120
ag118
ag118
ag119
ag237
ag122
ag124
ag665
ag744
ag121
ag383
ag122
ag118
ag118
ag125
ag665
ag744
ag170
ag521
ag170
ag125
ag235
ag122
ag123
ag128
ag126
ag122
ag118
ag118
ag129
ag721
asg130
VBut it was Ed Jaffrey and then that boy who's been living with Walton Forney, what does he call himself, one of those single names like Madonna  Jojo!"
p1155
sba(i__main__
Sentence
p1156
(dp1157
g17
I19
sg18
(lp1158
S'``'
p1159
aS'Well'
p1160
aS','
p1161
aS'then'
p1162
aS','
p1163
aS"''"
p1164
aS'Sharon'
p1165
aS'began'
p1166
aS'.'
p1167
asg64
(lp1168
V``
p1169
aVWell
p1170
ag77
aVthen
p1171
ag77
aV''
p1172
aVSharon
p1173
aVbegin
p1174
ag105
asg106
(lp1175
g109
ag109
ag109
ag109
ag109
ag109
aVPERSON
p1176
ag109
ag109
asg116
(lp1177
g720
ag118
ag125
ag237
ag125
ag721
ag118
ag120
ag129
asg130
V"Well, then," Sharon began.
p1178
sba(i__main__
Sentence
p1179
(dp1180
g17
I20
sg18
(lp1181
S'``'
p1182
aS'But'
p1183
aS'I'
p1184
aS"'ve"
p1185
aS'heard'
p1186
aS'it'
p1187
aS'from'
p1188
aS'still'
p1189
aS'others'
p1190
aS','
p1191
aS"''"
p1192
aS'Avis'
p1193
aS'insisted'
p1194
aS'.'
p1195
asg64
(lp1196
V``
p1197
aVBut
p1198
ag697
aV've
p1199
aVheard
p1200
aVit
p1201
aVfrom
p1202
aVstill
p1203
aVothers
p1204
ag77
aV''
p1205
aVAvis
p1206
aVinsist
p1207
ag105
asg106
(lp1208
g109
ag109
ag109
ag109
ag109
ag109
ag109
ag109
ag109
ag109
ag109
aVORGANIZATION
p1209
ag109
ag109
asg116
(lp1210
g720
ag119
ag170
ag521
ag237
ag170
ag122
ag237
ag126
ag125
ag721
ag118
ag120
ag129
asg130
V"But I've heard it from still others," Avis insisted.
p1211
sba(i__main__
Sentence
p1212
(dp1213
g17
I21
sg18
(lp1214
S'``'
p1215
aS'All'
p1216
aS'over'
p1217
aS'town'
p1218
aS'it'
p1219
aS"'s"
p1220
aS'in'
p1221
aS'the'
p1222
aS'air'
p1223
aS'.'
p1224
asg64
(lp1225
V``
p1226
aVAll
p1227
aVover
p1228
aVtown
p1229
aVit
p1230
aV's
p1231
aVin
p1232
aVthe
p1233
aVair
p1234
ag105
asg106
(lp1235
g109
ag109
ag109
ag109
ag109
ag109
ag109
ag109
ag109
ag109
asg116
(lp1236
g720
ag123
ag122
ag124
ag170
ag744
ag122
ag123
ag124
ag129
asg130
V"All over town  it's in the air.
p1237
sba(i__main__
Sentence
p1238
(dp1239
g17
I22
sg18
(lp1240
S'Could'
p1241
aS"n't"
p1242
aS'you'
p1243
aS'and'
p1244
aS'Frank'
p1245
aS'do'
p1246
aS'something'
p1247
aS'about'
p1248
aS'it'
p1249
aS','
p1250
aS'if'
p1251
aS'it'
p1252
aS"'s"
p1253
aS'not'
p1254
aS'true'
p1255
aS'?'
p1256
aS"''"
p1257
asg64
(lp1258
VCould
p1259
aVn't
p1260
aVyou
p1261
aVand
p1262
aVFrank
p1263
aVdo
p1264
aVsomething
p1265
aVabout
p1266
aVit
p1267
ag77
aVif
p1268
aVit
p1269
aV's
p1270
aVnot
p1271
aVtrue
p1272
ag764
aV''
p1273
asg106
(lp1274
g109
ag109
ag109
ag109
aVPERSON
p1275
ag109
ag109
ag109
ag109
ag109
ag109
ag109
ag109
ag109
ag109
ag109
ag109
asg116
(lp1276
g768
ag237
ag170
ag119
ag118
ag521
ag124
ag122
ag170
ag125
ag122
ag170
ag744
ag237
ag128
ag129
ag721
asg130
VCouldn't you and Frank do something about it, if it's not true?"
p1277
sba(i__main__
Sentence
p1278
(dp1279
g17
I23
sg18
(lp1280
S'``'
p1281
aS"'If"
p1282
aS','
p1283
aS"'"
p1284
aS"''"
p1285
aS'Sharon'
p1286
aS'protested'
p1287
aS','
p1288
aS'and'
p1289
aS'her'
p1290
aS'thrust'
p1291
aS'of'
p1292
aS'impatience'
p1293
aS'carried'
p1294
aS','
p1295
aS'when'
p1296
aS'she'
p1297
aS'put'
p1298
aS'down'
p1299
aS'the'
p1300
aS'receiver'
p1301
aS','
p1302
aS'into'
p1303
aS'her'
p1304
aS'conversation'
p1305
aS'with'
p1306
aS'Frank'
p1307
aS'.'
p1308
asg64
(lp1309
V``
p1310
aV'If
p1311
ag77
aV'
p1312
aV''
p1313
aVSharon
p1314
aVprotest
p1315
ag77
aVand
p1316
aVher
p1317
aVthrust
p1318
aVof
p1319
aVimpatience
p1320
aVcarry
p1321
ag77
aVwhen
p1322
aVshe
p1323
aVput
p1324
aVdown
p1325
aVthe
p1326
aVreceiver
p1327
ag77
aVinto
p1328
aVher
p1329
aVconversation
p1330
aVwith
p1331
aVFrank
p1332
ag105
asg106
(lp1333
g109
ag109
ag109
ag109
ag109
aVPERSON
p1334
ag109
ag109
ag109
ag109
ag109
ag109
ag109
ag109
ag109
ag109
ag109
ag109
ag109
ag109
ag109
ag109
ag109
ag109
ag109
ag109
aVPERSON
p1335
ag109
asg116
(lp1336
g720
ag128
ag125
ag721
ag721
ag118
ag120
ag125
ag119
ag127
ag124
ag122
ag124
ag121
ag125
ag236
ag170
ag120
ag560
ag123
ag124
ag125
ag122
ag127
ag124
ag122
ag118
ag129
asg130
V"'If,'" Sharon protested, and her thrust of impatience carried, when she put down the receiver, into her conversation with Frank.
p1337
sba(i__main__
Sentence
p1338
(dp1339
g17
I24
sg18
(lp1340
S'``'
p1341
aS'Avis'
p1342
aS'says'
p1343
aS'you'
p1344
aS"'re"
p1345
aS'supposed'
p1346
aS'to'
p1347
aS'have'
p1348
aS'run'
p1349
aS'off'
p1350
aS'with'
p1351
aS'your'
p1352
aS'homosexual'
p1353
aS'lover'
p1354
aS'.'
p1355
aS"''"
p1356
asg64
(lp1357
V``
p1358
aVAvis
p1359
aVsay
p1360
aVyou
p1361
aV're
p1362
aVsuppose
p1363
aVto
p1364
aVhave
p1365
aVrun
p1366
aVoff
p1367
aVwith
p1368
aVyour
p1369
aVhomosexual
p1370
aVlover
p1371
ag105
aV''
p1372
asg106
(lp1373
g109
aVORGANIZATION
p1374
ag109
ag109
ag109
ag109
ag109
ag109
ag109
ag109
ag109
ag109
ag109
ag109
ag109
ag109
asg116
(lp1375
g720
ag118
ag744
ag170
ag521
ag121
ag381
ag382
ag121
ag560
ag122
ag127
ag128
ag124
ag129
ag721
asg130
V"Avis says you're supposed to have run off with your homosexual lover."
p1376
sba(i__main__
Sentence
p1377
(dp1378
g17
I25
sg18
(lp1379
S'``'
p1380
aS'I'
p1381
aS'do'
p1382
aS"n't"
p1383
aS'have'
p1384
aS'a'
p1385
aS'homosexual'
p1386
aS'lover'
p1387
aS','
p1388
aS"''"
p1389
aS'Frank'
p1390
aS'said'
p1391
aS','
p1392
aS'too'
p1393
aS'calmly'
p1394
aS','
p1395
aS'ripping'
p1396
aS'an'
p1397
aS'auction'
p1398
aS'ad'
p1399
aS'out'
p1400
aS'of'
p1401
aS'the'
p1402
aS'magazine'
p1403
aS'.'
p1404
asg64
(lp1405
V``
p1406
ag697
aVdo
p1407
aVn't
p1408
aVhave
p1409
ag84
aVhomosexual
p1410
aVlover
p1411
ag77
aV''
p1412
aVFrank
p1413
ag705
ag77
aVtoo
p1414
aVcalmly
p1415
ag77
ag656
aVan
p1416
aVauction
p1417
aVad
p1418
aVout
p1419
aVof
p1420
aVthe
p1421
aVmagazine
p1422
ag105
asg106
(lp1423
g109
ag109
ag109
ag109
ag109
ag109
ag109
ag109
ag109
ag109
aVPERSON
p1424
ag109
ag109
ag109
ag109
ag109
ag109
ag109
ag109
ag109
ag109
ag109
ag109
ag109
ag109
asg116
(lp1425
g720
ag170
ag521
ag237
ag382
ag123
ag128
ag124
ag125
ag721
ag118
ag120
ag125
ag237
ag237
ag125
ag383
ag123
ag124
ag124
ag560
ag122
ag123
ag124
ag129
asg130
V"I don't have a homosexual lover," Frank said, too calmly, ripping an auction ad out of the magazine.
p1426
sba(i__main__
Sentence
p1427
(dp1428
g17
I26
sg18
(lp1429
S'``'
p1430
aS'She'
p1431
aS'says'
p1432
aS'all'
p1433
aS'New'
p1434
aS'York'
p1435
aS'says'
p1436
aS'you'
p1437
aS'do'
p1438
aS'.'
p1439
aS"''"
p1440
asg64
(lp1441
V``
p1442
aVShe
p1443
aVsay
p1444
aVall
p1445
aVNew
p1446
aVYork
p1447
aVsay
p1448
aVyou
p1449
aVdo
p1450
ag105
aV''
p1451
asg106
(lp1452
g109
ag109
ag109
ag109
aVLOCATION
p1453
aVLOCATION
p1454
ag109
ag109
ag109
ag109
ag109
asg116
(lp1455
g720
ag170
ag744
ag123
ag118
ag118
ag744
ag170
ag521
ag129
ag721
asg130
V"She says all New York says you do."
p1456
sba(i__main__
Sentence
p1457
(dp1458
g17
I27
sg18
(lp1459
S'``'
p1460
aS'Well'
p1461
aS','
p1462
aS'what'
p1463
aS'are'
p1464
aS'you'
p1465
aS'going'
p1466
aS'to'
p1467
aS'believe'
p1468
aS','
p1469
aS'all'
p1470
aS'New'
p1471
aS'York'
p1472
aS'or'
p1473
aS'your'
p1474
aS'own'
p1475
aS'experience'
p1476
aS'?'
p1477
asg64
(lp1478
V``
p1479
aVWell
p1480
ag77
aVwhat
p1481
aVbe
p1482
aVyou
p1483
aVgo
p1484
aVto
p1485
aVbelieve
p1486
ag77
aVall
p1487
aVNew
p1488
aVYork
p1489
aVor
p1490
aVyour
p1491
aVown
p1492
aVexperience
p1493
ag764
asg106
(lp1494
g109
ag109
ag109
ag109
ag109
ag109
ag109
ag109
ag109
ag109
ag109
aVLOCATION
p1495
aVLOCATION
p1496
ag109
ag109
ag109
ag109
ag109
asg116
(lp1497
g720
ag118
ag125
ag665
ag521
ag170
ag383
ag381
ag382
ag125
ag123
ag118
ag118
ag119
ag127
ag128
ag124
ag129
asg130
V"Well, what are you going to believe, all New York or your own experience?
p1498
sba(i__main__
Sentence
p1499
(dp1500
g17
I28
sg18
(lp1501
S'Here'
p1502
aS'I'
p1503
aS'sit'
p1504
aS','
p1505
aS'faithful'
p1506
aS'to'
p1507
aS'a'
p1508
aS'fault'
p1509
aS','
p1510
aS'straight'
p1511
aS'as'
p1512
aS'a'
p1513
aS'die'
p1514
aS','
p1515
aS'whatever'
p1516
aS'that'
p1517
aS'means'
p1518
aS'.'
p1519
asg64
(lp1520
VHere
p1521
ag697
aVsit
p1522
ag77
aVfaithful
p1523
aVto
p1524
ag84
aVfault
p1525
ag77
aVstraight
p1526
ag84
ag84
aVdie
p1527
ag77
aVwhatever
p1528
aVthat
p1529
aVmean
p1530
ag105
asg106
(lp1531
g109
ag109
ag109
ag109
ag109
ag109
ag109
ag109
ag109
ag109
ag109
ag109
ag109
ag109
ag109
ag109
ag109
ag109
asg116
(lp1532
g237
ag170
ag521
ag125
ag128
ag381
ag123
ag124
ag125
ag237
ag122
ag123
ag124
ag125
ag237
ag122
ag126
ag129
asg130
VHere I sit, faithful to a fault, straight as a die, whatever that means.
p1533
sba(i__main__
Sentence
p1534
(dp1535
g17
I29
sg18
(lp1536
S'We'
p1537
aS'made'
p1538
aS'love'
p1539
aS'just'
p1540
aS'two'
p1541
aS'nights'
p1542
aS'ago'
p1543
aS'.'
p1544
aS"''"
p1545
asg64
(lp1546
VWe
p1547
ag820
aVlove
p1548
aVjust
p1549
aVtwo
p1550
aVnight
p1551
aVago
p1552
ag105
aV''
p1553
asg106
(lp1554
g109
ag109
ag109
ag109
ag109
ag109
ag109
ag109
ag109
asg116
(lp1555
g170
ag120
ag521
ag237
ag235
ag126
ag237
ag129
ag721
asg130
VWe made love just two nights ago."
p1556
sba(i__main__
Sentence
p1557
(dp1558
g17
I30
sg18
(lp1559
S'It'
p1560
aS'seemed'
p1561
aS'possibly'
p1562
aS'revealing'
p1563
aS'to'
p1564
aS'her'
p1565
aS'that'
p1566
aS'he'
p1567
aS'so'
p1568
aS'distinctly'
p1569
aS'remembered'
p1570
aS','
p1571
aS'as'
p1572
aS'if'
p1573
aS'heterosexual'
p1574
aS'performance'
p1575
aS'were'
p1576
aS'a'
p1577
aS'duty'
p1578
aS'he'
p1579
aS'checked'
p1580
aS'off'
p1581
aS'.'
p1582
asg64
(lp1583
VIt
p1584
aVseem
p1585
aVpossibly
p1586
aVreveal
p1587
aVto
p1588
aVher
p1589
aVthat
p1590
aVhe
p1591
aVso
p1592
aVdistinctly
p1593
aVremember
p1594
ag77
ag84
aVif
p1595
aVheterosexual
p1596
aVperformance
p1597
ag396
ag84
aVduty
p1598
aVhe
p1599
aVcheck
p1600
aVoff
p1601
ag105
asg106
(lp1602
g109
ag109
ag109
ag109
ag109
ag109
ag109
ag109
ag109
ag109
ag109
ag109
ag109
ag109
ag109
ag109
ag109
ag109
ag109
ag109
ag109
ag109
ag109
asg116
(lp1603
g170
ag120
ag237
ag383
ag381
ag127
ag122
ag170
ag237
ag237
ag121
ag125
ag122
ag122
ag128
ag124
ag120
ag123
ag124
ag170
ag120
ag560
ag129
asg130
VIt seemed possibly revealing to her that he so distinctly remembered, as if heterosexual performance were a duty he checked off.
p1604
sba(i__main__
Sentence
p1605
(dp1606
g17
I31
sg18
(lp1607
S'He'
p1608
aS'was'
p1609
aS'had'
p1610
aS'always'
p1611
aS'been'
p1612
aS','
p1613
aS'for'
p1614
aS'over'
p1615
aS'twenty'
p1616
aS'years'
p1617
aS'a'
p1618
aS'slim'
p1619
aS'blond'
p1620
aS'man'
p1621
aS'several'
p1622
aS'inches'
p1623
aS'under'
p1624
aS'six'
p1625
aS'feet'
p1626
aS'tall'
p1627
aS','
p1628
aS'with'
p1629
aS'a'
p1630
aS'narrow'
p1631
aS'head'
p1632
aS'he'
p1633
aS'liked'
p1634
aS'to'
p1635
aS'keep'
p1636
aS'trim'
p1637
aS','
p1638
aS'even'
p1639
aS'during'
p1640
aS'those'
p1641
aS'years'
p1642
aS'when'
p1643
aS'long'
p1644
aS'hair'
p1645
aS'was'
p1646
aS'in'
p1647
aS'fashion'
p1648
aS','
p1649
aS'milky-blue'
p1650
aS'eyes'
p1651
aS'set'
p1652
aS'at'
p1653
aS'a'
p1654
aS'slight'
p1655
aS'tilt'
p1656
aS','
p1657
aS'such'
p1658
aS'as'
p1659
aS'you'
p1660
aS'see'
p1661
aS'on'
p1662
aS'certain'
p1663
aS'taut'
p1664
aS'Slavic'
p1665
aS'or'
p1666
aS'Norwegian'
p1667
aS'faces'
p1668
aS','
p1669
aS'and'
p1670
aS'a'
p1671
aS'small'
p1672
aS','
p1673
aS'precise'
p1674
aS'mouth'
p1675
aS'he'
p1676
aS'kept'
p1677
aS'pursed'
p1678
aS'over'
p1679
aS'teeth'
p1680
aS'a'
p1681
aS'shade'
p1682
aS'too'
p1683
aS'prominent'
p1684
aS'and'
p1685
aS'yellow'
p1686
aS'.'
p1687
asg64
(lp1688
VHe
p1689
ag212
ag70
aValways
p1690
ag162
ag77
aVfor
p1691
aVover
p1692
aVtwenty
p1693
aVyear
p1694
ag84
aVslim
p1695
aVblond
p1696
aVman
p1697
aVseveral
p1698
aVinch
p1699
aVunder
p1700
aVsix
p1701
aVfoot
p1702
aVtall
p1703
ag77
aVwith
p1704
ag84
aVnarrow
p1705
aVhead
p1706
aVhe
p1707
aVlike
p1708
aVto
p1709
aVkeep
p1710
aVtrim
p1711
ag77
aVeven
p1712
aVduring
p1713
aVthose
p1714
aVyear
p1715
aVwhen
p1716
aVlong
p1717
aVhair
p1718
ag212
aVin
p1719
aVfashion
p1720
ag77
aVmilky-blue
p1721
aVeye
p1722
aVset
p1723
aVat
p1724
ag84
aVslight
p1725
aVtilt
p1726
ag77
aVsuch
p1727
ag84
aVyou
p1728
aVsee
p1729
aVon
p1730
aVcertain
p1731
aVtaut
p1732
aVSlavic
p1733
aVor
p1734
aVNorwegian
p1735
aVface
p1736
ag77
aVand
p1737
ag84
aVsmall
p1738
ag77
aVprecise
p1739
aVmouth
p1740
aVhe
p1741
aVkeep
p1742
aVpurse
p1743
aVover
p1744
aVteeth
p1745
ag84
aVshade
p1746
aVtoo
p1747
aVprominent
p1748
aVand
p1749
aVyellow
p1750
ag105
asg106
(lp1751
g109
ag109
ag109
ag109
ag109
ag109
ag109
ag109
ag109
ag109
ag109
ag109
ag109
ag109
ag109
ag109
ag109
ag109
ag109
ag109
ag109
ag109
ag109
ag109
ag109
ag109
ag109
ag109
ag109
ag109
ag109
ag109
ag109
ag109
ag109
ag109
ag109
ag109
ag109
ag109
ag109
ag109
ag109
ag109
ag109
ag109
ag109
ag109
ag109
ag109
ag109
ag109
ag109
ag109
ag109
ag109
ag109
ag109
ag109
ag109
ag109
ag109
ag109
ag109
ag109
ag109
ag109
ag109
ag109
ag109
ag109
ag109
ag109
ag109
ag109
ag109
ag109
ag109
ag109
ag109
asg116
(lp1752
g170
ag120
ag121
ag237
ag121
ag125
ag122
ag122
ag124
ag126
ag123
ag124
ag124
ag124
ag128
ag126
ag122
ag235
ag126
ag128
ag125
ag122
ag123
ag124
ag124
ag170
ag120
ag381
ag382
ag128
ag125
ag237
ag122
ag123
ag126
ag236
ag128
ag124
ag120
ag122
ag124
ag125
ag128
ag126
ag120
ag122
ag123
ag124
ag124
ag125
ag128
ag122
ag170
ag521
ag122
ag128
ag124
ag118
ag119
ag118
ag126
ag125
ag119
ag123
ag128
ag125
ag128
ag124
ag170
ag120
ag121
ag122
ag124
ag123
ag124
ag237
ag128
ag119
ag128
ag129
asg130
VHe was  had always been, for over twenty years  a slim blond man several inches under six feet tall, with a narrow head he liked to keep trim, even during those years when long hair was in fashion, milky-blue eyes set at a slight tilt, such as you see on certain taut Slavic or Norwegian faces, and a small, precise mouth he kept pursed over teeth a shade too prominent and yellow.
p1753
sba(i__main__
Sentence
p1754
(dp1755
g17
I32
sg18
(lp1756
S'He'
p1757
aS'was'
p1758
aS'reluctant'
p1759
aS'to'
p1760
aS'smile'
p1761
aS','
p1762
aS'as'
p1763
aS'if'
p1764
aS'giving'
p1765
aS'something'
p1766
aS'away'
p1767
aS','
p1768
aS'and'
p1769
aS'was'
p1770
aS'vain'
p1771
aS'of'
p1772
aS'his'
p1773
aS'flat'
p1774
aS'belly'
p1775
aS'and'
p1776
aS'lithe'
p1777
aS'collegiate'
p1778
aS'condition'
p1779
aS'.'
p1780
asg64
(lp1781
VHe
p1782
ag212
aVreluctant
p1783
aVto
p1784
aVsmile
p1785
ag77
ag84
aVif
p1786
aVgive
p1787
aVsomething
p1788
aVaway
p1789
ag77
aVand
p1790
ag212
aVvain
p1791
aVof
p1792
aVhis
p1793
aVflat
p1794
aVbelly
p1795
aVand
p1796
aVlithe
p1797
aVcollegiate
p1798
aVcondition
p1799
ag105
asg106
(lp1800
g109
ag109
ag109
ag109
ag109
ag109
ag109
ag109
ag109
ag109
ag109
ag109
ag109
ag109
ag109
ag109
ag109
ag109
ag109
ag109
ag109
ag109
ag109
ag109
asg116
(lp1801
g170
ag120
ag128
ag381
ag382
ag125
ag122
ag122
ag383
ag124
ag237
ag125
ag119
ag120
ag237
ag122
ag127
ag128
ag237
ag119
ag123
ag124
ag124
ag129
asg130
VHe was reluctant to smile, as if giving something away, and was vain of his flat belly and lithe collegiate condition.
p1802
sba(i__main__
Sentence
p1803
(dp1804
g17
I33
sg18
(lp1805
S'He'
p1806
aS'weighed'
p1807
aS'himself'
p1808
aS'every'
p1809
aS'morning'
p1810
aS'on'
p1811
aS'the'
p1812
aS'bathroom'
p1813
aS'scale'
p1814
aS','
p1815
aS'and'
p1816
aS'if'
p1817
aS'he'
p1818
aS'weighed'
p1819
aS'a'
p1820
aS'pound'
p1821
aS'more'
p1822
aS'than'
p1823
aS'yesterday'
p1824
aS','
p1825
aS'he'
p1826
aS'skipped'
p1827
aS'lunch'
p1828
aS'.'
p1829
asg64
(lp1830
VHe
p1831
aVweigh
p1832
aVhimself
p1833
aVevery
p1834
aVmorning
p1835
aVon
p1836
aVthe
p1837
aVbathroom
p1838
aVscale
p1839
ag77
aVand
p1840
aVif
p1841
aVhe
p1842
aVweigh
p1843
ag84
aVpound
p1844
aVmore
p1845
aVthan
p1846
aVyesterday
p1847
ag77
aVhe
p1848
aVskip
p1849
aVlunch
p1850
ag105
asg106
(lp1851
g109
ag109
ag109
ag109
ag109
ag109
ag109
ag109
ag109
ag109
ag109
ag109
ag109
ag109
ag109
ag109
ag109
ag109
ag109
ag109
ag109
ag109
ag109
ag109
asg116
(lp1852
g170
ag120
ag170
ag123
ag124
ag122
ag123
ag124
ag124
ag125
ag119
ag122
ag170
ag120
ag123
ag124
ag380
ag122
ag124
ag125
ag170
ag120
ag124
ag129
asg130
VHe weighed himself every morning on the bathroom scale, and if he weighed a pound more than yesterday, he skipped lunch.
p1853
sba(i__main__
Sentence
p1854
(dp1855
g17
I34
sg18
(lp1856
S'In'
p1857
aS'this'
p1858
aS','
p1859
aS'and'
p1860
aS'in'
p1861
aS'his'
p1862
aS'general'
p1863
aS'attention'
p1864
aS'to'
p1865
aS'his'
p1866
aS'own'
p1867
aS'person'
p1868
aS','
p1869
aS'he'
p1870
aS'was'
p1871
aS'as'
p1872
aS'quietly'
p1873
aS'fanatic'
p1874
aS'as'
p1875
aS'it'
p1876
aS'for'
p1877
aS'the'
p1878
aS'first'
p1879
aS'time'
p1880
aS'occurred'
p1881
aS'to'
p1882
aS'her'
p1883
aS'a'
p1884
aS'woman'
p1885
aS'.'
p1886
asg64
(lp1887
VIn
p1888
aVthis
p1889
ag77
aVand
p1890
aVin
p1891
aVhis
p1892
aVgeneral
p1893
aVattention
p1894
aVto
p1895
aVhis
p1896
aVown
p1897
aVperson
p1898
ag77
aVhe
p1899
ag212
ag84
aVquietly
p1900
aVfanatic
p1901
ag84
aVit
p1902
aVfor
p1903
aVthe
p1904
aVfirst
p1905
aVtime
p1906
aVoccur
p1907
aVto
p1908
aVher
p1909
ag84
aVwoman
p1910
ag105
asg106
(lp1911
g109
ag109
ag109
ag109
ag109
ag109
ag109
ag109
ag109
ag109
ag109
ag109
ag109
ag109
ag109
ag109
ag109
ag109
ag109
ag109
ag109
ag109
ag109
ag109
ag109
ag109
ag109
ag109
ag109
ag109
asg116
(lp1912
g122
ag123
ag125
ag119
ag122
ag127
ag128
ag124
ag381
ag127
ag128
ag124
ag125
ag170
ag120
ag122
ag237
ag128
ag122
ag170
ag122
ag123
ag128
ag124
ag121
ag381
ag127
ag123
ag124
ag129
asg130
VIn this, and in his general attention to his own person, he was as quietly fanatic as  it for the first time occurred to her  a woman.
p1913
sba(i__main__
Sentence
p1914
(dp1915
g17
I35
sg18
(lp1916
S'``'
p1917
aS'You'
p1918
aS'know'
p1919
aS'I'
p1920
aS"'ve"
p1921
aS'never'
p1922
aS'liked'
p1923
aS'the'
p1924
aS'queer'
p1925
aS'side'
p1926
aS'of'
p1927
aS'this'
p1928
aS'business'
p1929
aS','
p1930
aS"''"
p1931
aS'he'
p1932
aS'went'
p1933
aS'on'
p1934
aS'.'
p1935
asg64
(lp1936
V``
p1937
aVYou
p1938
aVknow
p1939
ag697
aV've
p1940
aVnever
p1941
aVlike
p1942
aVthe
p1943
aVqueer
p1944
aVside
p1945
aVof
p1946
aVthis
p1947
aVbusiness
p1948
ag77
aV''
p1949
aVhe
p1950
aVgo
p1951
aVon
p1952
ag105
asg106
(lp1953
g109
ag109
ag109
ag109
ag109
ag109
ag109
ag109
ag109
ag109
ag109
ag109
ag109
ag109
ag109
ag109
ag109
ag109
ag109
asg116
(lp1954
g720
ag170
ag521
ag170
ag521
ag237
ag121
ag123
ag124
ag124
ag122
ag123
ag124
ag125
ag721
ag170
ag120
ag122
ag129
asg130
V"You know I've never liked the queer side of this business," he went on.
p1955
sba(i__main__
Sentence
p1956
(dp1957
g17
I36
sg18
(lp1958
S'``'
p1959
aS'I'
p1960
aS"'ve"
p1961
aS'just'
p1962
aS'gotten'
p1963
aS'used'
p1964
aS'to'
p1965
aS'it'
p1966
aS'.'
p1967
asg64
(lp1968
V``
p1969
ag697
aV've
p1970
aVjust
p1971
aVget
p1972
aVuse
p1973
aVto
p1974
aVit
p1975
ag105
asg106
(lp1976
g109
ag109
ag109
ag109
ag109
ag109
ag109
ag109
ag109
asg116
(lp1977
g720
ag170
ag521
ag237
ag121
ag121
ag381
ag170
ag129
asg130
V"I've just gotten used to it.
p1978
sba(i__main__
Sentence
p1979
(dp1980
g17
I37
sg18
(lp1981
S'I'
p1982
aS'do'
p1983
aS"n't"
p1984
aS'even'
p1985
aS'think'
p1986
aS'anymore'
p1987
aS','
p1988
aS'who'
p1989
aS"'s"
p1990
aS'gay'
p1991
aS'and'
p1992
aS'who'
p1993
aS'is'
p1994
aS"n't"
p1995
aS'.'
p1996
aS"''"
p1997
asg64
(lp1998
g697
aVdo
p1999
aVn't
p2000
aVeven
p2001
aVthink
p2002
aVanymore
p2003
ag77
aVwho
p2004
aV's
p2005
aVgay
p2006
aVand
p2007
aVwho
p2008
aVbe
p2009
aVn't
p2010
ag105
aV''
p2011
asg106
(lp2012
g109
ag109
ag109
ag109
ag109
ag109
ag109
ag109
ag109
ag109
ag109
ag109
ag109
ag109
ag109
ag109
asg116
(lp2013
g170
ag521
ag237
ag237
ag382
ag122
ag125
ag665
ag744
ag521
ag119
ag665
ag744
ag237
ag129
ag721
asg130
VI don't even think anymore, who's gay and who isn't."
p2014
sba(i__main__
Sentence
p2015
(dp2016
g17
I38
sg18
(lp2017
S'``'
p2018
aS'Avis'
p2019
aS'was'
p2020
aS'jubilant'
p2021
aS','
p2022
aS"''"
p2023
aS'Sharon'
p2024
aS'said'
p2025
aS'.'
p2026
asg64
(lp2027
V``
p2028
aVAvis
p2029
ag212
aVjubilant
p2030
ag77
aV''
p2031
aVSharon
p2032
ag705
ag105
asg106
(lp2033
g109
aVORGANIZATION
p2034
ag109
ag109
ag109
ag109
aVPERSON
p2035
ag109
ag109
asg116
(lp2036
g720
ag118
ag120
ag128
ag125
ag721
ag118
ag120
ag129
asg130
V"Avis was jubilant," Sharon said.
p2037
sba(i__main__
Sentence
p2038
(dp2039
g17
I39
sg18
(lp2040
S'``'
p2041
aS'How'
p2042
aS'could'
p2043
aS'she'
p2044
aS'think'
p2045
aS'it'
p2046
aS'?'
p2047
aS"''"
p2048
asg64
(lp2049
V``
p2050
aVHow
p2051
aVcould
p2052
aVshe
p2053
aVthink
p2054
aVit
p2055
ag764
aV''
p2056
asg106
(lp2057
g109
ag109
ag109
ag109
ag109
ag109
ag109
ag109
asg116
(lp2058
g720
ag236
ag768
ag170
ag382
ag170
ag129
ag721
asg130
V"How could she think it?"
p2059
sba(i__main__
Sentence
p2060
(dp2061
g17
I40
sg18
(lp2062
S'It'
p2063
aS'took'
p2064
aS'him'
p2065
aS'a'
p2066
aS'moment'
p2067
aS'to'
p2068
aS'focus'
p2069
aS'on'
p2070
aS'the'
p2071
aS'question'
p2072
aS'and'
p2073
aS'realize'
p2074
aS'that'
p2075
aS'his'
p2076
aS'answer'
p2077
aS'was'
p2078
aS'important'
p2079
aS'to'
p2080
aS'her'
p2081
aS'.'
p2082
asg64
(lp2083
VIt
p2084
aVtake
p2085
aVhim
p2086
ag84
aVmoment
p2087
aVto
p2088
aVfocus
p2089
aVon
p2090
aVthe
p2091
aVquestion
p2092
aVand
p2093
aVrealize
p2094
aVthat
p2095
aVhis
p2096
aVanswer
p2097
ag212
aVimportant
p2098
aVto
p2099
aVher
p2100
ag105
asg106
(lp2101
g109
ag109
ag109
ag109
ag109
ag109
ag109
ag109
ag109
ag109
ag109
ag109
ag109
ag109
ag109
ag109
ag109
ag109
ag109
ag109
asg116
(lp2102
g170
ag120
ag170
ag123
ag124
ag381
ag382
ag122
ag123
ag124
ag119
ag382
ag122
ag127
ag124
ag120
ag128
ag381
ag170
ag129
asg130
VIt took him a moment to focus on the question and realize that his answer was important to her.
p2103
sba(i__main__
Sentence
p2104
(dp2105
g17
I41
sg18
(lp2106
S'He'
p2107
aS'became'
p2108
aS'nettled'
p2109
aS'.'
p2110
asg64
(lp2111
VHe
p2112
aVbecome
p2113
aVnettle
p2114
ag105
asg106
(lp2115
g109
ag109
ag109
ag109
asg116
(lp2116
g170
ag120
ag121
ag129
asg130
VHe became nettled.
p2117
sba(i__main__
Sentence
p2118
(dp2119
g17
I42
sg18
(lp2120
S'``'
p2121
aS'Ask'
p2122
aS'her'
p2123
aS'how'
p2124
aS','
p2125
aS"''"
p2126
aS'he'
p2127
aS'said'
p2128
aS'.'
p2129
asg64
(lp2130
V``
p2131
aVAsk
p2132
aVher
p2133
aVhow
p2134
ag77
aV''
p2135
aVhe
p2136
ag705
ag105
asg106
(lp2137
g109
ag109
ag109
ag109
ag109
ag109
ag109
ag109
ag109
asg116
(lp2138
g720
ag118
ag127
ag236
ag125
ag721
ag170
ag120
ag129
asg130
V"Ask her how," he said.
p2139
sba(i__main__
Sentence
p2140
(dp2141
g17
I43
sg18
(lp2142
S'``'
p2143
aS'Our'
p2144
aS'brief'
p2145
aS'and'
p2146
aS'regrettable'
p2147
aS'relationship'
p2148
aS','
p2149
aS'if'
p2150
aS'that'
p2151
aS"'s"
p2152
aS'what'
p2153
aS'interests'
p2154
aS'you'
p2155
aS','
p2156
aS'seemed'
p2157
aS'satisfactory'
p2158
aS'to'
p2159
aS'me'
p2160
aS'at'
p2161
aS'least'
p2162
aS'.'
p2163
asg64
(lp2164
V``
p2165
aVOur
p2166
aVbrief
p2167
aVand
p2168
aVregrettable
p2169
aVrelationship
p2170
ag77
aVif
p2171
aVthat
p2172
aV's
p2173
aVwhat
p2174
aVinterest
p2175
aVyou
p2176
ag77
aVseem
p2177
aVsatisfactory
p2178
aVto
p2179
aVme
p2180
aVat
p2181
aVleast
p2182
ag105
asg106
(lp2183
g109
ag109
ag109
ag109
ag109
ag109
ag109
ag109
ag109
ag109
ag109
ag109
ag109
ag109
ag109
ag109
ag109
ag109
ag109
ag109
ag109
asg116
(lp2184
g720
ag127
ag128
ag119
ag128
ag124
ag125
ag122
ag123
ag744
ag665
ag126
ag170
ag125
ag120
ag128
ag381
ag170
ag122
ag559
ag129
asg130
V"Our brief and regrettable relationship, if that's what interests you, seemed satisfactory to me at least.
p2185
sba(i__main__
Sentence
p2186
(dp2187
g17
I44
sg18
(lp2188
S'What'
p2189
aS'troubles'
p2190
aS'and'
p2191
aS'amazes'
p2192
aS'me'
p2193
aS','
p2194
aS'if'
p2195
aS'I'
p2196
aS'may'
p2197
aS'say'
p2198
aS'so'
p2199
aS','
p2200
aS'is'
p2201
aS'how'
p2202
aS'you'
p2203
aS'can'
p2204
aS'be'
p2205
aS'taking'
p2206
aS'this'
p2207
aS'ridiculous'
p2208
aS'rumor'
p2209
aS'so'
p2210
aS'seriously'
p2211
aS'.'
p2212
aS"''"
p2213
asg64
(lp2214
VWhat
p2215
aVtrouble
p2216
aVand
p2217
aVamazes
p2218
aVme
p2219
ag77
aVif
p2220
ag697
aVmay
p2221
aVsay
p2222
aVso
p2223
ag77
ag2009
aVhow
p2224
aVyou
p2225
aVcan
p2226
aVbe
p2227
aVtake
p2228
aVthis
p2229
aVridiculous
p2230
aVrumor
p2231
aVso
p2232
aVseriously
p2233
ag105
aV''
p2234
asg106
(lp2235
g109
ag109
ag109
ag109
ag109
ag109
ag109
ag109
ag109
ag109
ag109
ag109
ag109
ag109
ag109
ag109
ag109
ag109
ag109
ag109
ag109
ag109
ag109
ag109
ag109
asg116
(lp2236
g665
ag126
ag119
ag126
ag170
ag125
ag122
ag170
ag768
ag382
ag237
ag125
ag744
ag236
ag170
ag768
ag382
ag383
ag123
ag128
ag124
ag122
ag237
ag129
ag721
asg130
VWhat troubles and amazes me, if I may say so, is how you can be taking this ridiculous rumor so seriously."
p2237
sba(i__main__
Sentence
p2238
(dp2239
g17
I45
sg18
(lp2240
S'``'
p2241
aS'I'
p2242
aS"'m"
p2243
aS'not'
p2244
aS','
p2245
aS'Frank'
p2246
aS','
p2247
aS"''"
p2248
aS'she'
p2249
aS'insisted'
p2250
aS','
p2251
aS'then'
p2252
aS'backtracked'
p2253
aS'.'
p2254
asg64
(lp2255
V``
p2256
ag697
aV'm
p2257
aVnot
p2258
ag77
aVFrank
p2259
ag77
aV''
p2260
aVshe
p2261
aVinsist
p2262
ag77
aVthen
p2263
aVbacktrack
p2264
ag105
asg106
(lp2265
g109
ag109
ag109
ag109
ag109
aVPERSON
p2266
ag109
ag109
ag109
ag109
ag109
ag109
ag109
ag109
asg116
(lp2267
g720
ag170
ag521
ag237
ag125
ag118
ag125
ag721
ag170
ag120
ag125
ag237
ag120
ag129
asg130
V"I'm not, Frank," she insisted, then backtracked.
p2268
sba(i__main__
Sentence
p2269
(dp2270
g17
I46
sg18
(lp2271
S'``'
p2272
aS'But'
p2273
aS'why'
p2274
aS'would'
p2275
aS'such'
p2276
aS'a'
p2277
aS'rumor'
p2278
aS'come'
p2279
aS'out'
p2280
aS'of'
p2281
aS'thin'
p2282
aS'air'
p2283
aS'?'
p2284
asg64
(lp2285
V``
p2286
aVBut
p2287
aVwhy
p2288
aVwould
p2289
aVsuch
p2290
ag84
aVrumor
p2291
aVcome
p2292
aVout
p2293
aVof
p2294
aVthin
p2295
aVair
p2296
ag764
asg106
(lp2297
g109
ag109
ag109
ag109
ag109
ag109
ag109
ag109
ag109
ag109
ag109
ag109
ag109
asg116
(lp2298
g720
ag119
ag236
ag768
ag382
ag123
ag124
ag124
ag122
ag122
ag128
ag124
ag129
asg130
V"But why would such a rumor come out of thin air?
p2299
sba(i__main__
Sentence
p2300
(dp2301
g17
I47
sg18
(lp2302
S'Does'
p2303
aS"n't"
p2304
aS'there'
p2305
aS'have'
p2306
aS'to'
p2307
aS'be'
p2308
aS'something'
p2309
aS'?'
p2310
asg64
(lp2311
VDoes
p2312
aVn't
p2313
aVthere
p2314
aVhave
p2315
aVto
p2316
aVbe
p2317
aVsomething
p2318
ag764
asg106
(lp2319
g109
ag109
ag109
ag109
ag109
ag109
ag109
ag109
asg116
(lp2320
g744
ag237
ag237
ag382
ag381
ag382
ag124
ag129
asg130
VDoesn't there have to be something?
p2321
sba(i__main__
Sentence
p2322
(dp2323
g17
I48
sg18
(lp2324
S'Since'
p2325
aS'we'
p2326
aS'moved'
p2327
aS'up'
p2328
aS'here'
p2329
aS','
p2330
aS'we'
p2331
aS"'re"
p2332
aS'not'
p2333
aS'together'
p2334
aS'so'
p2335
aS'much'
p2336
aS','
p2337
aS'naturally'
p2338
aS','
p2339
aS'some'
p2340
aS'days'
p2341
aS'when'
p2342
aS'I'
p2343
aS'ca'
p2344
aS"n't"
p2345
aS'come'
p2346
aS'into'
p2347
aS'town'
p2348
aS'you'
p2349
aS"'re"
p2350
aS'gone'
p2351
aS'sixteen'
p2352
aS'hours'
p2353
aS'...'
p2354
aS"''"
p2355
aS'``'
p2356
aS'But'
p2357
aS'Sharon'
p2358
aS','
p2359
aS"''"
p2360
aS'he'
p2361
aS'said'
p2362
aS','
p2363
aS'like'
p2364
aS'a'
p2365
aS'teacher'
p2366
aS'restoring'
p2367
aS'discipline'
p2368
aS','
p2369
aS'removing'
p2370
aS'his'
p2371
aS'reading'
p2372
aS'glasses'
p2373
aS'from'
p2374
aS'his'
p2375
aS'almond-shaped'
p2376
aS'eyes'
p2377
aS','
p2378
aS'with'
p2379
aS'their'
p2380
aS'stubby'
p2381
aS'fair'
p2382
aS'lashes'
p2383
aS'.'
p2384
asg64
(lp2385
VSince
p2386
aVwe
p2387
aVmove
p2388
aVup
p2389
aVhere
p2390
ag77
aVwe
p2391
aV're
p2392
aVnot
p2393
aVtogether
p2394
aVso
p2395
aVmuch
p2396
ag77
aVnaturally
p2397
ag77
aVsome
p2398
aVday
p2399
aVwhen
p2400
ag697
aVca
p2401
aVn't
p2402
aVcome
p2403
aVinto
p2404
aVtown
p2405
aVyou
p2406
aV're
p2407
aVgo
p2408
aVsixteen
p2409
aVhour
p2410
aV...
p2411
aV''
p2412
aV``
p2413
aVBut
p2414
aVSharon
p2415
ag77
aV''
p2416
aVhe
p2417
ag705
ag77
aVlike
p2418
ag84
aVteacher
p2419
aVrestore
p2420
aVdiscipline
p2421
ag77
aVremove
p2422
aVhis
p2423
aVreading
p2424
aVglass
p2425
aVfrom
p2426
aVhis
p2427
aValmond-shaped
p2428
aVeye
p2429
ag77
aVwith
p2430
aVtheir
p2431
aVstubby
p2432
aVfair
p2433
aVlash
p2434
ag105
asg106
(lp2435
g109
ag109
ag109
ag109
ag109
ag109
ag109
ag109
ag109
ag109
ag109
ag109
ag109
ag109
ag109
ag109
ag109
ag109
ag109
ag109
ag109
ag109
ag109
ag109
ag109
ag109
ag109
ag109
ag109
ag109
ag109
ag109
ag109
aVPERSON
p2436
ag109
ag109
ag109
ag109
ag109
ag109
ag109
ag109
ag109
ag109
ag109
ag109
ag109
ag109
ag109
ag109
ag109
ag109
ag109
ag109
ag109
ag109
ag109
ag109
ag109
ag109
asg116
(lp2437
g122
ag170
ag120
ag560
ag237
ag125
ag170
ag521
ag237
ag237
ag237
ag237
ag125
ag237
ag125
ag123
ag126
ag236
ag170
ag768
ag237
ag382
ag122
ag124
ag170
ag521
ag121
ag126
ag126
ag171
ag721
ag720
ag119
ag118
ag125
ag721
ag170
ag120
ag125
ag122
ag123
ag124
ag383
ag124
ag125
ag383
ag127
ag124
ag126
ag122
ag127
ag128
ag126
ag125
ag122
ag127
ag124
ag124
ag126
ag129
asg130
VSince we moved up here, we're not together so much, naturally, some days when I can't come into town you're gone sixteen hours..."    "But Sharon," he said, like a teacher restoring discipline, removing his reading glasses from his almond-shaped eyes, with their stubby fair lashes.
p2438
sba(i__main__
Sentence
p2439
(dp2440
g17
I49
sg18
(lp2441
S'``'
p2442
aS'Do'
p2443
aS"n't"
p2444
aS'you'
p2445
aS'know'
p2446
aS'me'
p2447
aS'?'
p2448
asg64
(lp2449
V``
p2450
aVDo
p2451
aVn't
p2452
aVyou
p2453
aVknow
p2454
aVme
p2455
ag764
asg106
(lp2456
g109
ag109
ag109
ag109
ag109
ag109
ag109
asg116
(lp2457
g720
ag521
ag237
ag170
ag382
ag170
ag129
asg130
V"Don't you know me?
p2458
sba(i__main__
Sentence
p2459
(dp2460
g17
I50
sg18
(lp2461
S'Ever'
p2462
aS'since'
p2463
aS'after'
p2464
aS'that'
p2465
aS'dance'
p2466
aS'when'
p2467
aS'you'
p2468
aS'were'
p2469
aS'sixteen'
p2470
aS','
p2471
aS'that'
p2472
aS'time'
p2473
aS'by'
p2474
aS'the'
p2475
aS'lake'
p2476
aS'?'
p2477
aS'...'
p2478
aS"''"
p2479
asg64
(lp2480
VEver
p2481
aVsince
p2482
aVafter
p2483
aVthat
p2484
aVdance
p2485
aVwhen
p2486
aVyou
p2487
ag396
aVsixteen
p2488
ag77
aVthat
p2489
aVtime
p2490
aVby
p2491
aVthe
p2492
aVlake
p2493
ag764
aV...
p2494
aV''
p2495
asg106
(lp2496
g109
ag109
ag109
ag109
ag109
ag109
ag109
ag109
ag109
ag109
ag109
ag109
ag109
ag109
ag109
ag109
ag109
ag109
asg116
(lp2497
g237
ag122
ag122
ag123
ag124
ag236
ag170
ag120
ag121
ag125
ag122
ag124
ag122
ag123
ag124
ag129
ag171
ag721
asg130
VEver since after that dance when you were sixteen, that time by the lake?..."
p2498
sba(i__main__
Sentence
p2499
(dp2500
g17
I51
sg18
(lp2501
S'She'
p2502
aS'did'
p2503
aS"n't"
p2504
aS'want'
p2505
aS'to'
p2506
aS'reminisce'
p2507
aS'.'
p2508
asg64
(lp2509
VShe
p2510
aVdo
p2511
aVn't
p2512
aVwant
p2513
aVto
p2514
aVreminisce
p2515
ag105
asg106
(lp2516
g109
ag109
ag109
ag109
ag109
ag109
ag109
asg116
(lp2517
g170
ag120
ag237
ag382
ag381
ag382
ag129
asg130
VShe didn't want to reminisce.
p2518
sba(i__main__
Sentence
p2519
(dp2520
g17
I52
sg18
(lp2521
S'Their'
p2522
aS'early'
p2523
aS'sex'
p2524
aS'had'
p2525
aS'been'
p2526
aS'difficult'
p2527
aS'for'
p2528
aS'her'
p2529
aS';'
p2530
aS'she'
p2531
aS'had'
p2532
aS'submitted'
p2533
aS'to'
p2534
aS'his'
p2535
aS'advances'
p2536
aS'out'
p2537
aS'of'
p2538
aS'a'
p2539
aS'larger'
p2540
aS','
p2541
aS'more'
p2542
aS'social'
p2543
aS','
p2544
aS'rather'
p2545
aS'idealistic'
p2546
aS'attraction'
p2547
aS'.'
p2548
asg64
(lp2549
VTheir
p2550
aVearly
p2551
aVsex
p2552
ag70
ag162
aVdifficult
p2553
aVfor
p2554
aVher
p2555
ag159
aVshe
p2556
ag70
aVsubmit
p2557
aVto
p2558
aVhis
p2559
aVadvance
p2560
aVout
p2561
aVof
p2562
ag84
aVlarge
p2563
ag77
aVmore
p2564
aVsocial
p2565
ag77
aVrather
p2566
aVidealistic
p2567
aVattraction
p2568
ag105
asg106
(lp2569
g109
ag109
ag109
ag109
ag109
ag109
ag109
ag109
ag109
ag109
ag109
ag109
ag109
ag109
ag109
ag109
ag109
ag109
ag109
ag109
ag109
ag109
ag109
ag109
ag109
ag109
ag109
asg116
(lp2570
g127
ag128
ag124
ag120
ag121
ag128
ag122
ag170
ag171
ag170
ag120
ag121
ag381
ag127
ag126
ag122
ag122
ag123
aS'JJR'
p2571
ag125
ag2571
ag128
ag125
ag237
ag128
ag124
ag129
asg130
VTheir early sex had been difficult for her; she had submitted to his advances out of a larger, more social, rather idealistic attraction.
p2572
sba(i__main__
Sentence
p2573
(dp2574
g17
I53
sg18
(lp2575
S'She'
p2576
aS'knew'
p2577
aS'that'
p2578
aS'together'
p2579
aS'they'
p2580
aS'would'
p2581
aS'have'
p2582
aS'the'
p2583
aS'strength'
p2584
aS'to'
p2585
aS'get'
p2586
aS'out'
p2587
aS'of'
p2588
aS'Cincinnati'
p2589
aS'and'
p2590
aS','
p2591
aS'singly'
p2592
aS'or'
p2593
aS'married'
p2594
aS'to'
p2595
aS'others'
p2596
aS','
p2597
aS'they'
p2598
aS'would'
p2599
aS'stay'
p2600
aS'.'
p2601
asg64
(lp2602
VShe
p2603
aVknow
p2604
aVthat
p2605
aVtogether
p2606
aVthey
p2607
aVwould
p2608
aVhave
p2609
aVthe
p2610
aVstrength
p2611
aVto
p2612
aVget
p2613
aVout
p2614
aVof
p2615
aVCincinnati
p2616
aVand
p2617
ag77
aVsingly
p2618
aVor
p2619
ag207
aVto
p2620
aVothers
p2621
ag77
aVthey
p2622
aVwould
p2623
aVstay
p2624
ag105
asg106
(lp2625
g109
ag109
ag109
ag109
ag109
ag109
ag109
ag109
ag109
ag109
ag109
ag109
ag109
aVLOCATION
p2626
ag109
ag109
ag109
ag109
ag109
ag109
ag109
ag109
ag109
ag109
ag109
ag109
asg116
(lp2627
g170
ag120
ag122
ag237
ag170
ag768
ag382
ag123
ag124
ag381
ag382
ag122
ag122
ag118
ag119
ag125
ag237
ag119
ag121
ag381
ag126
ag125
ag170
ag768
ag382
ag129
asg130
VShe knew that together they would have the strength to get out of Cincinnati and, singly or married to others, they would stay.
p2628
sba(i__main__
Sentence
p2629
(dp2630
g17
I54
sg18
(lp2631
S'``'
p2632
aS'Well'
p2633
aS','
p2634
aS"''"
p2635
aS'she'
p2636
aS'said'
p2637
aS','
p2638
aS'enjoying'
p2639
aS'this'
p2640
aS'sensation'
p2641
aS','
p2642
aS'despite'
p2643
aS'the'
p2644
aS'chill'
p2645
aS'the'
p2646
aS'rumor'
p2647
aS'had'
p2648
aS'awakened'
p2649
aS'in'
p2650
aS'her'
p2651
aS','
p2652
aS'of'
p2653
aS'descending'
p2654
aS'to'
p2655
aS'a'
p2656
aS'deeper'
p2657
aS'level'
p2658
aS'of'
p2659
aS'intimacy'
p2660
aS'than'
p2661
aS'usual'
p2662
aS','
p2663
aS'``'
p2664
aS'how'
p2665
aS'well'
p2666
aS'do'
p2667
aS'you'
p2668
aS'know'
p2669
aS'even'
p2670
aS'your'
p2671
aS'own'
p2672
aS'spouse'
p2673
aS'?'
p2674
asg64
(lp2675
V``
p2676
aVWell
p2677
ag77
aV''
p2678
aVshe
p2679
ag705
ag77
aVenjoying
p2680
aVthis
p2681
aVsensation
p2682
ag77
aVdespite
p2683
aVthe
p2684
aVchill
p2685
aVthe
p2686
aVrumor
p2687
ag70
aVawaken
p2688
aVin
p2689
aVher
p2690
ag77
aVof
p2691
aVdescend
p2692
aVto
p2693
ag84
aVdeeper
p2694
aVlevel
p2695
aVof
p2696
aVintimacy
p2697
aVthan
p2698
aVusual
p2699
ag77
aV``
p2700
aVhow
p2701
aVwell
p2702
aVdo
p2703
aVyou
p2704
aVknow
p2705
aVeven
p2706
aVyour
p2707
aVown
p2708
aVspouse
p2709
ag764
asg106
(lp2710
g109
ag109
ag109
ag109
ag109
ag109
ag109
ag109
ag109
ag109
ag109
ag109
ag109
ag109
ag109
ag109
ag109
ag109
ag109
ag109
ag109
ag109
ag109
ag109
ag109
ag109
ag109
ag109
ag109
ag109
ag109
ag109
ag109
ag109
ag109
ag109
ag109
ag109
ag109
ag109
ag109
ag109
ag109
asg116
(lp2711
g720
ag118
ag125
ag721
ag170
ag120
ag125
ag124
ag123
ag124
ag125
ag122
ag123
ag124
ag123
ag124
ag120
ag121
ag122
ag127
ag125
ag122
ag383
ag381
ag123
ag124
ag124
ag122
ag124
ag122
ag128
ag125
ag720
ag236
ag237
ag521
ag170
ag382
ag237
ag127
ag128
ag124
ag129
asg130
V"Well," she said, enjoying this sensation, despite the chill the rumor had awakened in her, of descending to a deeper level of intimacy than usual, "how well do you know even your own spouse?
p2712
sba(i__main__
Sentence
p2713
(dp2714
g17
I55
sg18
(lp2715
S'People'
p2716
aS'are'
p2717
aS'fooled'
p2718
aS'all'
p2719
aS'the'
p2720
aS'time'
p2721
aS'.'
p2722
asg64
(lp2723
VPeople
p2724
ag1482
aVfool
p2725
aVall
p2726
aVthe
p2727
aVtime
p2728
ag105
asg106
(lp2729
g109
ag109
ag109
ag109
ag109
ag109
ag109
asg116
(lp2730
g126
ag521
ag121
ag123
ag123
ag124
ag129
asg130
VPeople are fooled all the time.
p2731
sba(i__main__
Sentence
p2732
(dp2733
g17
I56
sg18
(lp2734
S'Peggy'
p2735
aS'Jacobson'
p2736
aS','
p2737
aS'for'
p2738
aS'instance'
p2739
aS','
p2740
aS'when'
p2741
aS'Henry'
p2742
aS'ran'
p2743
aS'off'
p2744
aS'with'
p2745
aS'that'
p2746
aS'physical'
p2747
aS'therapist'
p2748
aS','
p2749
aS'could'
p2750
aS"n't"
p2751
aS'believe'
p2752
aS','
p2753
aS'even'
p2754
aS'when'
p2755
aS'the'
p2756
aS'evidence'
p2757
aS'was'
p2758
aS'right'
p2759
aS'there'
p2760
aS'in'
p2761
aS'front'
p2762
aS'of'
p2763
aS'her'
p2764
aS'``'
p2765
aS'``'
p2766
aS'I'
p2767
aS"'m"
p2768
aS'deeply'
p2769
aS'insulted'
p2770
aS','
p2771
aS"''"
p2772
aS'Frank'
p2773
aS'interrupted'
p2774
aS','
p2775
aS'his'
p2776
aS'mouth'
p2777
aS'tense'
p2778
aS'in'
p2779
aS'that'
p2780
aS'way'
p2781
aS'he'
p2782
aS'had'
p2783
aS'when'
p2784
aS'making'
p2785
aS'a'
p2786
aS'joke'
p2787
aS'but'
p2788
aS'not'
p2789
aS'wanting'
p2790
aS'to'
p2791
aS'show'
p2792
aS'his'
p2793
aS'teeth'
p2794
aS'.'
p2795
asg64
(lp2796
VPeggy
p2797
aVJacobson
p2798
ag77
aVfor
p2799
aVinstance
p2800
ag77
aVwhen
p2801
aVHenry
p2802
aVrun
p2803
aVoff
p2804
aVwith
p2805
aVthat
p2806
aVphysical
p2807
aVtherapist
p2808
ag77
aVcould
p2809
aVn't
p2810
aVbelieve
p2811
ag77
aVeven
p2812
aVwhen
p2813
aVthe
p2814
aVevidence
p2815
ag212
aVright
p2816
aVthere
p2817
aVin
p2818
aVfront
p2819
aVof
p2820
aVher
p2821
aV``
p2822
aV``
p2823
ag697
aV'm
p2824
aVdeeply
p2825
aVinsult
p2826
ag77
aV''
p2827
aVFrank
p2828
aVinterrupt
p2829
ag77
aVhis
p2830
aVmouth
p2831
aVtense
p2832
aVin
p2833
aVthat
p2834
aVway
p2835
aVhe
p2836
ag70
aVwhen
p2837
aVmake
p2838
ag84
aVjoke
p2839
aVbut
p2840
aVnot
p2841
aVwant
p2842
aVto
p2843
aVshow
p2844
aVhis
p2845
aVteeth
p2846
ag105
asg106
(lp2847
VPERSON
p2848
aVPERSON
p2849
ag109
ag109
ag109
ag109
ag109
aVPERSON
p2850
ag109
ag109
ag109
ag109
ag109
ag109
ag109
ag109
ag109
ag109
ag109
ag109
ag109
ag109
ag109
ag109
ag109
ag109
ag109
ag109
ag109
ag109
ag109
ag109
ag109
ag109
ag109
ag109
ag109
ag109
aVPERSON
p2851
ag109
ag109
ag109
ag109
ag109
ag109
ag109
ag109
ag109
ag109
ag109
ag109
ag109
ag109
ag109
ag109
ag109
ag109
ag109
ag109
ag109
ag109
asg116
(lp2852
g118
ag118
ag125
ag122
ag124
ag125
ag236
ag118
ag120
ag560
ag122
ag123
ag128
ag124
ag125
ag768
ag237
ag382
ag125
ag237
ag236
ag123
ag124
ag120
ag237
ag237
ag122
ag124
ag122
ag127
ag720
ag720
ag170
ag521
ag237
ag121
ag125
ag721
ag118
ag120
ag125
ag127
ag124
ag124
ag122
ag123
ag124
ag170
ag120
ag236
ag383
ag123
ag124
ag119
ag237
ag383
ag381
ag382
ag127
ag124
ag129
asg130
VPeggy Jacobson, for instance, when Henry ran off with that physical therapist, couldn't believe, even when the evidence was right there in front of her "    "I'm deeply insulted," Frank interrupted, his mouth tense in that way he had when making a joke but not wanting to show his teeth.
p2853
sba(i__main__
Sentence
p2854
(dp2855
g17
I57
sg18
(lp2856
S'``'
p2857
aS'My'
p2858
aS'masculinity'
p2859
aS'is'
p2860
aS'insulted'
p2861
aS'.'
p2862
aS"''"
p2863
asg64
(lp2864
V``
p2865
aVMy
p2866
aVmasculinity
p2867
ag2009
aVinsult
p2868
ag105
aV''
p2869
asg106
(lp2870
g109
ag109
ag109
ag109
ag109
ag109
ag109
asg116
(lp2871
g720
ag127
ag124
ag744
ag121
ag129
ag721
asg130
V"My masculinity is insulted."
p2872
sba(i__main__
Sentence
p2873
(dp2874
g17
I58
sg18
(lp2875
S'But'
p2876
aS'he'
p2877
aS'could'
p2878
aS"n't"
p2879
aS'deny'
p2880
aS'himself'
p2881
aS'a'
p2882
aS'downward'
p2883
aS'glance'
p2884
aS'into'
p2885
aS'his'
p2886
aS'magazine'
p2887
aS';'
p2888
aS'his'
p2889
aS'tidy'
p2890
aS'white'
p2891
aS'hand'
p2892
aS'jerked'
p2893
aS','
p2894
aS'as'
p2895
aS'if'
p2896
aS'wanting'
p2897
aS'to'
p2898
aS'tear'
p2899
aS'out'
p2900
aS'yet'
p2901
aS'another'
p2902
aS'item'
p2903
aS'that'
p2904
aS'might'
p2905
aS'be'
p2906
aS'useful'
p2907
aS'to'
p2908
aS'their'
p2909
aS'business'
p2910
aS'.'
p2911
asg64
(lp2912
VBut
p2913
aVhe
p2914
aVcould
p2915
aVn't
p2916
aVdeny
p2917
aVhimself
p2918
ag84
aVdownward
p2919
aVglance
p2920
aVinto
p2921
aVhis
p2922
aVmagazine
p2923
ag159
aVhis
p2924
aVtidy
p2925
aVwhite
p2926
aVhand
p2927
aVjerk
p2928
ag77
ag84
aVif
p2929
aVwant
p2930
aVto
p2931
aVtear
p2932
aVout
p2933
aVyet
p2934
aVanother
p2935
aVitem
p2936
aVthat
p2937
aVmight
p2938
aVbe
p2939
aVuseful
p2940
aVto
p2941
aVtheir
p2942
aVbusiness
p2943
ag105
asg106
(lp2944
g109
ag109
ag109
ag109
ag109
ag109
ag109
ag109
ag109
ag109
ag109
ag109
ag109
ag109
ag109
ag109
ag109
ag109
ag109
ag109
ag109
ag109
ag109
ag109
ag109
ag109
ag109
ag109
ag109
ag109
ag109
ag109
ag109
ag109
ag109
ag109
asg116
(lp2945
g119
ag170
ag768
ag237
ag382
ag170
ag123
ag124
ag124
ag122
ag127
ag124
ag171
ag127
ag124
ag124
ag124
ag120
ag125
ag122
ag122
ag383
ag381
ag382
ag560
ag237
ag123
ag124
ag122
ag768
ag382
ag128
ag381
ag127
ag124
ag129
asg130
VBut he couldn't deny himself a downward glance into his magazine; his tidy white hand jerked, as if wanting to tear out yet another item that might be useful to their business.
p2946
sba(i__main__
Sentence
p2947
(dp2948
g17
I59
sg18
(lp2949
S'Intimacy'
p2950
aS'had'
p2951
aS'always'
p2952
aS'made'
p2953
aS'him'
p2954
aS'nervous'
p2955
aS'.'
p2956
asg64
(lp2957
VIntimacy
p2958
ag70
aValways
p2959
ag820
aVhim
p2960
aVnervous
p2961
ag105
asg106
(lp2962
g109
ag109
ag109
ag109
ag109
ag109
ag109
asg116
(lp2963
g124
ag120
ag237
ag121
ag170
ag128
ag129
asg130
VIntimacy had always made him nervous.
p2964
sba(i__main__
Sentence
p2965
(dp2966
g17
I60
sg18
(lp2967
S'She'
p2968
aS'kept'
p2969
aS'at'
p2970
aS'it'
p2971
aS','
p2972
aS'rather'
p2973
aS'hopelessly'
p2974
aS'.'
p2975
asg64
(lp2976
VShe
p2977
ag1742
aVat
p2978
aVit
p2979
ag77
aVrather
p2980
aVhopelessly
p2981
ag105
asg106
(lp2982
g109
ag109
ag109
ag109
ag109
ag109
ag109
ag109
asg116
(lp2983
g170
ag120
ag122
ag170
ag125
ag237
ag237
ag129
asg130
VShe kept at it, rather hopelessly.
p2984
sba(i__main__
Sentence
p2985
(dp2986
g17
I61
sg18
(lp2987
S'``'
p2988
aS'Avis'
p2989
aS'said'
p2990
aS'two'
p2991
aS'separate'
p2992
aS'people'
p2993
aS'had'
p2994
aS'solemnly'
p2995
aS'assured'
p2996
aS'her'
p2997
aS'.'
p2998
aS"''"
p2999
asg64
(lp3000
V``
p3001
aVAvis
p3002
ag705
aVtwo
p3003
aVseparate
p3004
aVpeople
p3005
ag70
aVsolemnly
p3006
aVassure
p3007
aVher
p3008
ag105
aV''
p3009
asg106
(lp3010
g109
aVORGANIZATION
p3011
ag109
ag109
ag109
ag109
ag109
ag109
ag109
ag109
ag109
ag109
asg116
(lp3012
g720
ag118
ag120
ag235
ag128
ag126
ag120
ag237
ag121
ag127
ag129
ag721
asg130
V"Avis said two separate people had solemnly assured her."
p3013
sba(i__main__
Sentence
p3014
(dp3015
g17
I62
sg18
(lp3016
S'``'
p3017
aS'Who'
p3018
aS','
p3019
aS'exactly'
p3020
aS'?'
p3021
aS"''"
p3022
asg64
(lp3023
V``
p3024
aVWho
p3025
ag77
aVexactly
p3026
ag764
aV''
p3027
asg106
(lp3028
g109
ag109
ag109
ag109
ag109
ag109
asg116
(lp3029
g720
ag665
ag125
ag237
ag129
ag721
asg130
V"Who, exactly?"
p3030
sba(i__main__
Sentence
p3031
(dp3032
g17
I63
sg18
(lp3033
S'When'
p3034
aS'she'
p3035
aS'told'
p3036
aS'him'
p3037
aS','
p3038
aS'he'
p3039
aS'said'
p3040
aS','
p3041
aS'exactly'
p3042
aS'as'
p3043
aS'she'
p3044
aS'had'
p3045
aS'done'
p3046
aS','
p3047
aS'``'
p3048
aS'Well'
p3049
aS','
p3050
aS'then'
p3051
aS'.'
p3052
aS"''"
p3053
asg64
(lp3054
VWhen
p3055
aVshe
p3056
aVtell
p3057
aVhim
p3058
ag77
aVhe
p3059
ag705
ag77
aVexactly
p3060
ag84
aVshe
p3061
ag70
aVdo
p3062
ag77
aV``
p3063
aVWell
p3064
ag77
aVthen
p3065
ag105
aV''
p3066
asg106
(lp3067
g109
ag109
ag109
ag109
ag109
ag109
ag109
ag109
ag109
ag109
ag109
ag109
ag109
ag109
ag109
ag109
ag109
ag109
ag109
ag109
asg116
(lp3068
g236
ag170
ag120
ag170
ag125
ag170
ag120
ag125
ag237
ag122
ag170
ag120
ag121
ag125
ag720
ag118
ag125
ag237
ag129
ag721
asg130
VWhen she told him, he said, exactly as she had done, "Well, then."
p3069
sba(i__main__
Sentence
p3070
(dp3071
g17
I64
sg18
(lp3072
S'He'
p3073
aS'added'
p3074
aS','
p3075
aS'``'
p3076
aS'You'
p3077
aS'know'
p3078
aS'how'
p3079
aS'gays'
p3080
aS'are'
p3081
aS'.'
p3082
asg64
(lp3083
VHe
p3084
aVadd
p3085
ag77
aV``
p3086
aVYou
p3087
aVknow
p3088
aVhow
p3089
aVgay
p3090
ag1482
ag105
asg106
(lp3091
g109
ag109
ag109
ag109
ag109
ag109
ag109
ag109
ag109
ag109
asg116
(lp3092
g170
ag120
ag125
ag720
ag170
ag521
ag236
ag126
ag521
ag129
asg130
VHe added, "You know how gays are.
p3093
sba(i__main__
Sentence
p3094
(dp3095
g17
I65
sg18
(lp3096
S'Malicious'
p3097
aS'.'
p3098
asg64
(lp3099
VMalicious
p3100
ag105
asg106
(lp3101
g109
ag109
asg116
(lp3102
g128
ag129
asg130
VMalicious.
p3103
sba(i__main__
Sentence
p3104
(dp3105
g17
I66
sg18
(lp3106
S'Mischievous'
p3107
aS'.'
p3108
asg64
(lp3109
VMischievous
p3110
ag105
asg106
(lp3111
g109
ag109
asg116
(lp3112
g128
ag129
asg130
VMischievous.
p3113
sba(i__main__
Sentence
p3114
(dp3115
g17
I67
sg18
(lp3116
S'They'
p3117
aS'have'
p3118
aS'all'
p3119
aS'that'
p3120
aS'time'
p3121
aS'and'
p3122
aS'money'
p3123
aS'on'
p3124
aS'their'
p3125
aS'hands'
p3126
aS'.'
p3127
aS"''"
p3128
asg64
(lp3129
VThey
p3130
aVhave
p3131
aVall
p3132
aVthat
p3133
aVtime
p3134
aVand
p3135
aVmoney
p3136
aVon
p3137
aVtheir
p3138
aVhand
p3139
ag105
aV''
p3140
asg106
(lp3141
g109
ag109
ag109
ag109
ag109
ag109
ag109
ag109
ag109
ag109
ag109
ag109
asg116
(lp3142
g170
ag521
aS'PDT'
p3143
ag123
ag124
ag119
ag124
ag122
ag127
ag126
ag129
ag721
asg130
VThey have all that time and money on their hands."
p3144
sba(i__main__
Sentence
p3145
(dp3146
g17
I68
sg18
(lp3147
S'``'
p3148
aS'You'
p3149
aS'sound'
p3150
aS'jealous'
p3151
aS'.'
p3152
aS"''"
p3153
asg64
(lp3154
V``
p3155
aVYou
p3156
aVsound
p3157
aVjealous
p3158
ag105
aV''
p3159
asg106
(lp3160
g109
ag109
ag109
ag109
ag109
ag109
asg116
(lp3161
g720
ag170
ag521
ag128
ag129
ag721
asg130
V"You sound jealous."
p3162
sba(i__main__
Sentence
p3163
(dp3164
g17
I69
sg18
(lp3165
S'Something'
p3166
aS'about'
p3167
aS'the'
p3168
aS'way'
p3169
aS'he'
p3170
aS'was'
p3171
aS'arguing'
p3172
aS'with'
p3173
aS'her'
p3174
aS'strengthened'
p3175
aS'Sharon'
p3176
aS"'s"
p3177
aS'suspicion'
p3178
aS'that'
p3179
aS','
p3180
aS'outrageous'
p3181
aS'as'
p3182
aS'the'
p3183
aS'rumor'
p3184
aS'was'
p3185
aS'indeed'
p3186
aS','
p3187
aS'because'
p3188
aS'it'
p3189
aS'was'
p3190
aS'outrageous'
p3191
aS'it'
p3192
aS'was'
p3193
aS'true'
p3194
aS'.'
p3195
asg64
(lp3196
VSomething
p3197
aVabout
p3198
aVthe
p3199
aVway
p3200
aVhe
p3201
ag212
aVargue
p3202
aVwith
p3203
aVher
p3204
aVstrengthen
p3205
aVSharon
p3206
aV's
p3207
aVsuspicion
p3208
aVthat
p3209
ag77
aVoutrageous
p3210
ag84
aVthe
p3211
aVrumor
p3212
ag212
aVindeed
p3213
ag77
aVbecause
p3214
aVit
p3215
ag212
aVoutrageous
p3216
aVit
p3217
ag212
aVtrue
p3218
ag105
asg106
(lp3219
g109
ag109
ag109
ag109
ag109
ag109
ag109
ag109
ag109
ag109
aVPERSON
p3220
ag109
ag109
ag109
ag109
ag109
ag109
ag109
ag109
ag109
ag109
ag109
ag109
ag109
ag109
ag109
ag109
ag109
ag109
ag109
asg116
(lp3221
g124
ag122
ag123
ag124
ag170
ag120
ag383
ag122
ag127
ag121
ag118
aS'POS'
p3222
ag124
ag122
ag125
ag128
ag122
ag123
ag124
ag120
ag121
ag125
ag122
ag170
ag120
ag128
ag170
ag120
ag128
ag129
asg130
VSomething about the way he was arguing with her strengthened Sharon's suspicion that, outrageous as the rumor was  indeed, because it was outrageous  it was true.
p3223
sba(i__main__
Sentence
p3224
(dp3225
g17
I70
sg18
(lp3226
S'In'
p3227
aS'the'
p3228
aS'days'
p3229
aS'that'
p3230
aS'followed'
p3231
aS','
p3232
aS'now'
p3233
aS'that'
p3234
aS'she'
p3235
aS'was'
p3236
aS'alert'
p3237
aS'to'
p3238
aS'the'
p3239
aS'rumor'
p3240
aS"'s"
p3241
aS'vaporous'
p3242
aS'presence'
p3243
aS','
p3244
aS'she'
p3245
aS'imagined'
p3246
aS'it'
p3247
aS'everywhere'
p3248
aS'on'
p3249
aS'the'
p3250
aS'poised'
p3251
aS'faces'
p3252
aS'of'
p3253
aS'their'
p3254
aS'staff'
p3255
aS','
p3256
aS'in'
p3257
aS'the'
p3258
aS'delicate'
p3259
aS'negotiatory'
p3260
aS'accents'
p3261
aS'of'
p3262
aS'their'
p3263
aS'artists'
p3264
aS"'"
p3265
aS'agents'
p3266
aS','
p3267
aS'in'
p3268
aS'the'
p3269
aS'heartier'
p3270
aS'tones'
p3271
aS'of'
p3272
aS'their'
p3273
aS'repeat'
p3274
aS'customers'
p3275
aS','
p3276
aS'even'
p3277
aS'in'
p3278
aS'the'
p3279
aS'gruff'
p3280
aS','
p3281
aS'self-occupied'
p3282
aS'ramblings'
p3283
aS'of'
p3284
aS'the'
p3285
aS'artists'
p3286
aS'themselves'
p3287
aS'.'
p3288
asg64
(lp3289
VIn
p3290
aVthe
p3291
aVday
p3292
aVthat
p3293
aVfollow
p3294
ag77
aVnow
p3295
aVthat
p3296
aVshe
p3297
ag212
aValert
p3298
aVto
p3299
aVthe
p3300
aVrumor
p3301
aV's
p3302
aVvaporous
p3303
aVpresence
p3304
ag77
aVshe
p3305
aVimagine
p3306
aVit
p3307
aVeverywhere
p3308
aVon
p3309
aVthe
p3310
aVpoise
p3311
aVface
p3312
aVof
p3313
aVtheir
p3314
aVstaff
p3315
ag77
aVin
p3316
aVthe
p3317
aVdelicate
p3318
aVnegotiatory
p3319
aVaccent
p3320
aVof
p3321
aVtheir
p3322
aVartist
p3323
ag1312
aVagent
p3324
ag77
aVin
p3325
aVthe
p3326
aVheartier
p3327
aVtone
p3328
aVof
p3329
aVtheir
p3330
aVrepeat
p3331
aVcustomer
p3332
ag77
aVeven
p3333
aVin
p3334
aVthe
p3335
aVgruff
p3336
ag77
aVself-occupied
p3337
aVramblings
p3338
aVof
p3339
aVthe
p3340
aVartist
p3341
aVthemselves
p3342
ag105
asg106
(lp3343
g109
ag109
ag109
ag109
ag109
ag109
ag109
ag109
ag109
ag109
ag109
ag109
ag109
ag109
ag109
ag109
ag109
ag109
ag109
ag109
ag109
ag109
ag109
ag109
ag109
ag109
ag109
ag109
ag109
ag109
ag109
ag109
ag109
ag109
ag109
ag109
ag109
ag109
ag109
ag109
ag109
ag109
ag109
ag109
ag109
ag109
ag109
ag109
ag109
ag109
ag109
ag109
ag109
ag109
ag109
ag109
ag109
ag109
ag109
ag109
ag109
ag109
asg116
(lp3344
g122
ag123
ag126
aS'WDT'
p3345
ag120
ag125
ag237
ag122
ag170
ag120
ag124
ag381
ag123
ag124
ag3222
ag128
ag124
ag125
ag170
ag120
ag170
ag237
ag122
ag123
ag121
ag126
ag122
ag127
ag124
ag125
ag122
ag123
ag124
ag124
ag126
ag122
ag127
ag126
ag3222
ag126
ag125
ag122
ag123
ag124
ag126
ag122
ag127
ag124
ag126
ag125
ag237
ag122
ag123
ag124
ag125
ag128
ag126
ag122
ag123
ag126
ag170
ag129
asg130
VIn the days that followed, now that she was alert to the rumor's vaporous presence, she imagined it everywhere  on the poised faces of their staff, in the delicate negotiatory accents of their artists' agents, in the heartier tones of their repeat customers, even in the gruff, self-occupied ramblings of the artists themselves.
p3346
sba(i__main__
Sentence
p3347
(dp3348
g17
I71
sg18
(lp3349
S'People'
p3350
aS'seemed'
p3351
aS'startled'
p3352
aS'when'
p3353
aS'she'
p3354
aS'and'
p3355
aS'Frank'
p3356
aS'entered'
p3357
aS'a'
p3358
aS'room'
p3359
aS'together'
p3360
aS':'
p3361
aS'The'
p3362
aS'desk'
p3363
aS'receptionist'
p3364
aS'and'
p3365
aS'the'
p3366
aS'security'
p3367
aS'guard'
p3368
aS'in'
p3369
aS'their'
p3370
aS'gallery'
p3371
aS'halted'
p3372
aS'their'
p3373
aS'daily'
p3374
aS'morning'
p3375
aS'banter'
p3376
aS','
p3377
aS'and'
p3378
aS'the'
p3379
aS'waiters'
p3380
aS'in'
p3381
aS'their'
p3382
aS'pet'
p3383
aS'restaurant'
p3384
aS','
p3385
aS'over'
p3386
aS'on'
p3387
aS'Fifty-ninth'
p3388
aS','
p3389
aS'appeared'
p3390
aS'especially'
p3391
aS'effusive'
p3392
aS'and'
p3393
aS'attentive'
p3394
aS'.'
p3395
asg64
(lp3396
VPeople
p3397
aVseem
p3398
aVstartle
p3399
aVwhen
p3400
aVshe
p3401
aVand
p3402
aVFrank
p3403
aVenter
p3404
ag84
aVroom
p3405
aVtogether
p3406
aV:
p3407
aVThe
p3408
aVdesk
p3409
aVreceptionist
p3410
aVand
p3411
aVthe
p3412
aVsecurity
p3413
aVguard
p3414
aVin
p3415
aVtheir
p3416
aVgallery
p3417
aVhalt
p3418
aVtheir
p3419
aVdaily
p3420
aVmorning
p3421
aVbanter
p3422
ag77
aVand
p3423
aVthe
p3424
aVwaiter
p3425
aVin
p3426
aVtheir
p3427
aVpet
p3428
aVrestaurant
p3429
ag77
aVover
p3430
aVon
p3431
aVFifty-ninth
p3432
ag77
aVappear
p3433
aVespecially
p3434
aVeffusive
p3435
aVand
p3436
aVattentive
p3437
ag105
asg106
(lp3438
g109
ag109
ag109
ag109
ag109
ag109
aVPERSON
p3439
ag109
ag109
ag109
ag109
ag109
ag109
ag109
ag109
ag109
ag109
ag109
ag109
ag109
ag109
ag109
ag109
ag109
ag109
ag109
ag109
ag109
ag109
ag109
ag109
ag109
ag109
ag109
ag109
ag109
ag109
ag109
ag109
ag109
ag109
ag109
ag109
ag109
ag109
ag109
asg116
(lp3440
g126
ag120
ag121
ag236
ag170
ag119
ag118
ag120
ag123
ag124
ag124
ag171
ag123
ag124
ag124
ag119
ag123
ag124
ag124
ag122
ag127
ag124
ag120
ag127
ag128
ag124
ag124
ag125
ag119
ag123
ag126
ag122
ag127
ag124
ag124
ag125
ag122
ag122
ag128
ag125
ag120
ag237
ag128
ag119
ag128
ag129
asg130
VPeople seemed startled when she and Frank entered a room together: The desk receptionist and the security guard in their gallery halted their daily morning banter, and the waiters in their pet restaurant, over on Fifty-ninth, appeared especially effusive and attentive.
p3441
sba(i__main__
Sentence
p3442
(dp3443
g17
I72
sg18
(lp3444
S'Handshakes'
p3445
aS'lasted'
p3446
aS'a'
p3447
aS'second'
p3448
aS'too'
p3449
aS'long'
p3450
aS','
p3451
aS'women'
p3452
aS'embraced'
p3453
aS'her'
p3454
aS'with'
p3455
aS'an'
p3456
aS'extra'
p3457
aS'squeeze'
p3458
aS','
p3459
aS'she'
p3460
aS'felt'
p3461
aS'herself'
p3462
aS'ensnared'
p3463
aS'in'
p3464
aS'a'
p3465
aS'soft'
p3466
aS'net'
p3467
aS'of'
p3468
aS'unspoken'
p3469
aS'pity'
p3470
aS'.'
p3471
asg64
(lp3472
VHandshakes
p3473
aVlast
p3474
ag84
aVsecond
p3475
aVtoo
p3476
aVlong
p3477
ag77
aVwoman
p3478
aVembrace
p3479
aVher
p3480
aVwith
p3481
aVan
p3482
aVextra
p3483
aVsqueeze
p3484
ag77
aVshe
p3485
aVfelt
p3486
aVherself
p3487
aVensnare
p3488
aVin
p3489
ag84
aVsoft
p3490
aVnet
p3491
aVof
p3492
aVunspoken
p3493
aVpity
p3494
ag105
asg106
(lp3495
g109
ag109
ag109
ag109
ag109
ag109
ag109
ag109
ag109
ag109
ag109
ag109
ag109
ag109
ag109
ag109
ag109
ag109
ag109
ag109
ag109
ag109
ag109
ag109
ag109
ag109
ag109
asg116
(lp3496
g126
ag120
ag123
ag128
ag124
ag237
ag125
ag126
ag120
ag170
ag122
ag123
ag128
ag124
ag125
ag170
ag120
ag170
ag120
ag122
ag123
ag128
ag124
ag122
ag124
ag124
ag129
asg130
VHandshakes lasted a second too long, women embraced her with an extra squeeze, she felt herself ensnared in a soft net of unspoken pity.
p3497
sba(i__main__
Sentence
p3498
(dp3499
g17
I73
sg18
(lp3500
S'Frank'
p3501
aS'sensed'
p3502
aS'her'
p3503
aS'discomfort'
p3504
aS'and'
p3505
aS'took'
p3506
aS'a'
p3507
aS'certain'
p3508
aS'malicious'
p3509
aS'pleasure'
p3510
aS'in'
p3511
aS'it'
p3512
aS','
p3513
aS'enacting'
p3514
aS'all'
p3515
aS'the'
p3516
aS'while'
p3517
aS'his'
p3518
aS'perfect'
p3519
aS'innocence'
p3520
aS'.'
p3521
asg64
(lp3522
VFrank
p3523
aVsense
p3524
aVher
p3525
aVdiscomfort
p3526
aVand
p3527
ag2085
ag84
aVcertain
p3528
aVmalicious
p3529
aVpleasure
p3530
aVin
p3531
aVit
p3532
ag77
aVenact
p3533
aVall
p3534
aVthe
p3535
aVwhile
p3536
aVhis
p3537
aVperfect
p3538
aVinnocence
p3539
ag105
asg106
(lp3540
VPERSON
p3541
ag109
ag109
ag109
ag109
ag109
ag109
ag109
ag109
ag109
ag109
ag109
ag109
ag109
ag109
ag109
ag109
ag109
ag109
ag109
ag109
asg116
(lp3542
g118
ag120
ag170
ag124
ag119
ag120
ag123
ag128
ag128
ag124
ag122
ag170
ag125
ag383
ag123
ag123
ag124
ag127
ag124
ag124
ag129
asg130
VFrank sensed her discomfort and took a certain malicious pleasure in it, enacting all the while his perfect innocence.
p3543
sba(i__main__
Sentence
p3544
(dp3545
g17
I74
sg18
(lp3546
S'He'
p3547
aS'composed'
p3548
aS'himself'
p3549
aS'to'
p3550
aS'appear'
p3551
aS','
p3552
aS'from'
p3553
aS'her'
p3554
aS'angle'
p3555
aS','
p3556
aS'aloof'
p3557
aS'above'
p3558
aS'the'
p3559
aS'rumor'
p3560
aS'.'
p3561
asg64
(lp3562
VHe
p3563
aVcompose
p3564
aVhimself
p3565
aVto
p3566
aVappear
p3567
ag77
aVfrom
p3568
aVher
p3569
aVangle
p3570
ag77
aValoof
p3571
aVabove
p3572
aVthe
p3573
aVrumor
p3574
ag105
asg106
(lp3575
g109
ag109
ag109
ag109
ag109
ag109
ag109
ag109
ag109
ag109
ag109
ag109
ag109
ag109
ag109
asg116
(lp3576
g170
ag120
ag170
ag381
ag382
ag125
ag122
ag127
ag124
ag125
ag122
ag122
ag123
ag124
ag129
asg130
VHe composed himself to appear, from her angle, aloof above the rumor.
p3577
sba(i__main__
Sentence
p3578
(dp3579
g17
I75
sg18
(lp3580
S'Dealing'
p3581
aS'professionally'
p3582
aS'in'
p3583
aS'so'
p3584
aS'much'
p3585
aS'absurdity'
p3586
aS'the'
p3587
aS'art'
p3588
aS'world'
p3589
aS"'s"
p3590
aS'frantic'
p3591
aS'attention-getting'
p3592
aS','
p3593
aS'studied'
p3594
aS'grotesqueries'
p3595
aS'he'
p3596
aS'merely'
p3597
aS'intensified'
p3598
aS'the'
p3599
aS'fastidious'
p3600
aS'dryness'
p3601
aS'that'
p3602
aS'had'
p3603
aS'sustained'
p3604
aS'their'
p3605
aS'gallery'
p3606
aS'through'
p3607
aS'wave'
p3608
aS'after'
p3609
aS'wave'
p3610
aS'of'
p3611
aS'changing'
p3612
aS'fashion'
p3613
aS','
p3614
aS'and'
p3615
aS'that'
p3616
aS'had'
p3617
aS','
p3618
aS'like'
p3619
aS'a'
p3620
aS'rocket'
p3621
aS"'s"
p3622
aS'heat-resistant'
p3623
aS'skin'
p3624
aS','
p3625
aS'insulated'
p3626
aS'their'
p3627
aS'launch'
p3628
aS','
p3629
aS'their'
p3630
aS'escape'
p3631
aS'from'
p3632
aS'the'
p3633
aS'comfortable'
p3634
aS'riverine'
p3635
aS'smugness'
p3636
aS'of'
p3637
aS'semisouthern'
p3638
aS','
p3639
aS'puritanical'
p3640
aS'Cincinnati'
p3641
aS'to'
p3642
aS'this'
p3643
aS'metropolis'
p3644
aS'of'
p3645
aS'dreadful'
p3646
aS'freedom'
p3647
aS'.'
p3648
asg64
(lp3649
VDealing
p3650
aVprofessionally
p3651
aVin
p3652
aVso
p3653
aVmuch
p3654
aVabsurdity
p3655
aVthe
p3656
aVart
p3657
aVworld
p3658
aV's
p3659
aVfrantic
p3660
aVattention-getting
p3661
ag77
aVstudy
p3662
aVgrotesquery
p3663
aVhe
p3664
aVmerely
p3665
aVintensify
p3666
aVthe
p3667
aVfastidious
p3668
aVdryness
p3669
aVthat
p3670
ag70
aVsustain
p3671
aVtheir
p3672
aVgallery
p3673
aVthrough
p3674
aVwave
p3675
aVafter
p3676
aVwave
p3677
aVof
p3678
aVchange
p3679
aVfashion
p3680
ag77
aVand
p3681
aVthat
p3682
ag70
ag77
aVlike
p3683
ag84
aVrocket
p3684
aV's
p3685
aVheat-resistant
p3686
aVskin
p3687
ag77
aVinsulate
p3688
aVtheir
p3689
aVlaunch
p3690
ag77
aVtheir
p3691
aVescape
p3692
aVfrom
p3693
aVthe
p3694
aVcomfortable
p3695
aVriverine
p3696
aVsmugness
p3697
aVof
p3698
aVsemisouthern
p3699
ag77
aVpuritanical
p3700
aVCincinnati
p3701
aVto
p3702
aVthis
p3703
aVmetropolis
p3704
aVof
p3705
aVdreadful
p3706
aVfreedom
p3707
ag105
asg106
(lp3708
g109
ag109
ag109
ag109
ag109
ag109
ag109
ag109
ag109
ag109
ag109
ag109
ag109
ag109
ag109
ag109
ag109
ag109
ag109
ag109
ag109
ag109
ag109
ag109
ag109
ag109
ag109
ag109
ag109
ag109
ag109
ag109
ag109
ag109
ag109
ag109
ag109
ag109
ag109
ag109
ag109
ag109
ag109
ag109
ag109
ag109
ag109
ag109
ag109
ag109
ag109
ag109
ag109
ag109
ag109
ag109
ag109
ag109
ag109
ag109
aVLOCATION
p3709
ag109
ag109
ag109
ag109
ag109
ag109
ag109
asg116
(lp3710
g383
ag237
ag122
ag237
ag237
ag124
ag123
ag124
ag124
ag3222
ag128
ag124
ag125
ag120
ag126
ag170
ag237
ag120
ag123
ag128
ag124
ag3345
ag120
ag121
ag127
ag124
ag122
ag124
ag122
ag124
ag122
ag383
ag124
ag125
ag119
ag122
ag120
ag125
ag122
ag123
ag124
ag3222
ag128
ag124
ag125
ag120
ag127
ag124
ag125
ag127
ag124
ag122
ag123
ag128
ag124
ag124
ag122
ag124
ag125
ag128
ag118
ag381
ag123
ag124
ag122
ag128
ag124
ag129
asg130
VDealing professionally in so much absurdity  the art world's frantic attention-getting, studied grotesqueries  he merely intensified the fastidious dryness that had sustained their gallery through wave after wave of changing fashion, and that had, like a rocket's heat-resistant skin, insulated their launch, their escape from the comfortable riverine smugness of semisouthern, puritanical Cincinnati to this metropolis of dreadful freedom.
p3711
sba(i__main__
Sentence
p3712
(dp3713
g17
I76
sg18
(lp3714
S'The'
p3715
aS'rumor'
p3716
aS'amused'
p3717
aS'him'
p3718
aS','
p3719
aS'and'
p3720
aS'it'
p3721
aS'amused'
p3722
aS'him'
p3723
aS','
p3724
aS'too'
p3725
aS','
p3726
aS'to'
p3727
aS'notice'
p3728
aS'how'
p3729
aS'she'
p3730
aS'helplessly'
p3731
aS'watched'
p3732
aS'to'
p3733
aS'see'
p3734
aS'if'
p3735
aS'in'
p3736
aS'the'
p3737
aS'metropolitan'
p3738
aS'throngs'
p3739
aS'his'
p3740
aS'eyes'
p3741
aS'now'
p3742
aS'followed'
p3743
aS'young'
p3744
aS'men'
p3745
aS'as'
p3746
aS'once'
p3747
aS'they'
p3748
aS'had'
p3749
aS'noticed'
p3750
aS'and'
p3751
aS'followed'
p3752
aS'young'
p3753
aS'women'
p3754
aS'.'
p3755
asg64
(lp3756
VThe
p3757
aVrumor
p3758
aVamuse
p3759
aVhim
p3760
ag77
aVand
p3761
aVit
p3762
aVamuse
p3763
aVhim
p3764
ag77
aVtoo
p3765
ag77
aVto
p3766
aVnotice
p3767
aVhow
p3768
aVshe
p3769
aVhelplessly
p3770
aVwatch
p3771
aVto
p3772
aVsee
p3773
aVif
p3774
aVin
p3775
aVthe
p3776
aVmetropolitan
p3777
aVthrong
p3778
aVhis
p3779
aVeye
p3780
aVnow
p3781
aVfollow
p3782
aVyoung
p3783
aVmen
p3784
ag84
aVonce
p3785
aVthey
p3786
ag70
aVnotice
p3787
aVand
p3788
aVfollow
p3789
aVyoung
p3790
aVwoman
p3791
ag105
asg106
(lp3792
g109
ag109
ag109
ag109
ag109
ag109
ag109
ag109
ag109
ag109
ag109
ag109
ag109
ag109
ag109
ag109
ag109
ag109
ag109
ag109
ag109
ag109
ag109
ag109
ag109
ag109
ag109
ag109
ag109
ag109
ag109
ag109
ag109
ag109
ag109
ag109
ag109
ag109
ag109
ag109
ag109
asg116
(lp3793
g123
ag124
ag120
ag170
ag125
ag119
ag170
ag120
ag170
ag125
ag237
ag125
ag381
ag382
ag236
ag170
ag237
ag120
ag381
ag382
ag122
ag122
ag123
ag124
ag126
ag127
ag126
ag237
ag121
ag128
ag126
ag122
ag237
ag170
ag120
ag121
ag119
ag121
ag128
ag126
ag129
asg130
VThe rumor amused him, and it amused him, too, to notice how she helplessly watched to see if in the metropolitan throngs his eyes now followed young men as once they had noticed and followed young women.
p3794
sba(i__main__
Sentence
p3795
(dp3796
g17
I77
sg18
(lp3797
S'She'
p3798
aS'observed'
p3799
aS'his'
p3800
aS'gestures'
p3801
aS'always'
p3802
aS'a'
p3803
aS'bit'
p3804
aS'excessively'
p3805
aS'graceful'
p3806
aS'and'
p3807
aS'precise'
p3808
aS'distrustfully'
p3809
aS','
p3810
aS'and'
p3811
aS'listened'
p3812
aS'for'
p3813
aS'the'
p3814
aS'buttery'
p3815
aS','
p3816
aS'reedy'
p3817
aS'tone'
p3818
aS'of'
p3819
aS'voice'
p3820
aS'that'
p3821
aS'might'
p3822
aS'signal'
p3823
aS'an'
p3824
aS'invisible'
p3825
aS'sex'
p3826
aS'change'
p3827
aS'.'
p3828
asg64
(lp3829
VShe
p3830
aVobserve
p3831
aVhis
p3832
aVgesture
p3833
aValways
p3834
ag84
aVbit
p3835
aVexcessively
p3836
aVgraceful
p3837
aVand
p3838
aVprecise
p3839
aVdistrustfully
p3840
ag77
aVand
p3841
aVlisten
p3842
aVfor
p3843
aVthe
p3844
aVbuttery
p3845
ag77
aVreedy
p3846
aVtone
p3847
aVof
p3848
aVvoice
p3849
aVthat
p3850
aVmight
p3851
aVsignal
p3852
aVan
p3853
aVinvisible
p3854
aVsex
p3855
aVchange
p3856
ag105
asg106
(lp3857
g109
ag109
ag109
ag109
ag109
ag109
ag109
ag109
ag109
ag109
ag109
ag109
ag109
ag109
ag109
ag109
ag109
ag109
ag109
ag109
ag109
ag109
ag109
ag109
ag109
ag109
ag109
ag109
ag109
ag109
ag109
asg116
(lp3858
g170
ag120
ag127
ag126
ag237
ag123
ag124
ag237
ag128
ag119
ag382
ag237
ag125
ag119
ag120
ag122
ag123
ag124
ag125
ag128
ag124
ag122
ag124
ag122
ag768
ag382
ag123
ag128
ag124
ag124
ag129
asg130
VShe observed his gestures  always a bit excessively graceful and precise  distrustfully, and listened for the buttery, reedy tone of voice that might signal an invisible sex change.
p3859
sba(i__main__
Sentence
p3860
(dp3861
g17
I78
sg18
(lp3862
S'That'
p3863
aS'even'
p3864
aS'in'
p3865
aS'some'
p3866
aS'small'
p3867
aS'fraction'
p3868
aS'of'
p3869
aS'her'
p3870
aS'she'
p3871
aS'was'
p3872
aS'willing'
p3873
aS'to'
p3874
aS'believe'
p3875
aS'the'
p3876
aS'rumor'
p3877
aS'justified'
p3878
aS'a'
p3879
aS'certain'
p3880
aS'maliciousness'
p3881
aS'on'
p3882
aS'his'
p3883
aS'part'
p3884
aS'.'
p3885
asg64
(lp3886
VThat
p3887
aVeven
p3888
aVin
p3889
aVsome
p3890
aVsmall
p3891
aVfraction
p3892
aVof
p3893
aVher
p3894
aVshe
p3895
ag212
aVwilling
p3896
aVto
p3897
aVbelieve
p3898
aVthe
p3899
aVrumor
p3900
aVjustify
p3901
ag84
aVcertain
p3902
aVmaliciousness
p3903
aVon
p3904
aVhis
p3905
aVpart
p3906
ag105
asg106
(lp3907
g109
ag109
ag109
ag109
ag109
ag109
ag109
ag109
ag109
ag109
ag109
ag109
ag109
ag109
ag109
ag109
ag109
ag109
ag109
ag109
ag109
ag109
ag109
asg116
(lp3908
g123
ag237
ag122
ag123
ag128
ag124
ag122
ag127
ag170
ag120
ag128
ag381
ag382
ag123
ag124
ag120
ag123
ag128
ag124
ag122
ag127
ag124
ag129
asg130
VThat even in some small fraction of her she was willing to believe the rumor justified a certain maliciousness on his part.
p3909
sba(i__main__
Sentence
p3910
(dp3911
g17
I79
sg18
(lp3912
S'He'
p3913
aS'could'
p3914
aS"n't"
p3915
aS'help'
p3916
aS'teasing'
p3917
aS'her'
p3918
aS'glancing'
p3919
aS'over'
p3920
aS'at'
p3921
aS'her'
p3922
aS','
p3923
aS'say'
p3924
aS','
p3925
aS'when'
p3926
aS'an'
p3927
aS'especially'
p3928
aS'magnetic'
p3929
aS'young'
p3930
aS'waiter'
p3931
aS'served'
p3932
aS'them'
p3933
aS','
p3934
aS'or'
p3935
aS'at'
p3936
aS'home'
p3937
aS','
p3938
aS'in'
p3939
aS'their'
p3940
aS'bedroom'
p3941
aS','
p3942
aS'pushing'
p3943
aS'more'
p3944
aS'brusquely'
p3945
aS'than'
p3946
aS'was'
p3947
aS'his'
p3948
aS'style'
p3949
aS'at'
p3950
aS'her'
p3951
aS'increasing'
p3952
aS'sexual'
p3953
aS'unwillingness'
p3954
aS'.'
p3955
asg64
(lp3956
VHe
p3957
aVcould
p3958
aVn't
p3959
aVhelp
p3960
aVtease
p3961
aVher
p3962
aVglance
p3963
aVover
p3964
aVat
p3965
aVher
p3966
ag77
aVsay
p3967
ag77
aVwhen
p3968
aVan
p3969
aVespecially
p3970
aVmagnetic
p3971
aVyoung
p3972
aVwaiter
p3973
aVserve
p3974
aVthem
p3975
ag77
aVor
p3976
aVat
p3977
aVhome
p3978
ag77
aVin
p3979
aVtheir
p3980
aVbedroom
p3981
ag77
aVpush
p3982
aVmore
p3983
aVbrusquely
p3984
aVthan
p3985
ag212
aVhis
p3986
aVstyle
p3987
aVat
p3988
aVher
p3989
aVincreasing
p3990
aVsexual
p3991
aVunwillingness
p3992
ag105
asg106
(lp3993
g109
ag109
ag109
ag109
ag109
ag109
ag109
ag109
ag109
ag109
ag109
ag109
ag109
ag109
ag109
ag109
ag109
ag109
ag109
ag109
ag109
ag109
ag109
ag109
ag109
ag109
ag109
ag109
ag109
ag109
ag109
ag109
ag109
ag109
ag109
ag109
ag109
ag109
ag109
ag109
ag109
ag109
ag109
asg116
(lp3994
g170
ag768
ag237
ag382
ag383
ag170
ag383
ag122
ag122
ag127
ag125
ag382
ag125
ag236
ag123
ag237
ag128
ag128
ag124
ag120
ag170
ag125
ag119
ag122
ag124
ag125
ag122
ag127
ag124
ag125
ag383
ag2571
ag237
ag122
ag120
ag127
ag124
ag122
ag127
ag124
ag124
ag124
ag129
asg130
VHe couldn't help teasing her  glancing over at her, say, when an especially magnetic young waiter served them, or at home, in their bedroom, pushing more brusquely than was his style at her increasing sexual unwillingness.
p3995
sba(i__main__
Sentence
p3996
(dp3997
g17
I80
sg18
(lp3998
S'More'
p3999
aS'than'
p4000
aS'once'
p4001
aS','
p4002
aS'at'
p4003
aS'last'
p4004
aS'away'
p4005
aS'from'
p4006
aS'the'
p4007
aS'countless'
p4008
aS'knowing'
p4009
aS'eyes'
p4010
aS'of'
p4011
aS'their'
p4012
aS'New'
p4013
aS'York'
p4014
aS'milieu'
p4015
aS','
p4016
aS'in'
p4017
aS'the'
p4018
aS'privacy'
p4019
aS'of'
p4020
aS'their'
p4021
aS'Hastings'
p4022
aS'upstairs'
p4023
aS','
p4024
aS'beneath'
p4025
aS'the'
p4026
aS'wide'
p4027
aS'midwestern'
p4028
aS'eaves'
p4029
aS','
p4030
aS'she'
p4031
aS'burst'
p4032
aS'into'
p4033
aS'tears'
p4034
aS'and'
p4035
aS'struck'
p4036
aS'out'
p4037
aS'at'
p4038
aS'him'
p4039
aS','
p4040
aS'his'
p4041
aS'infuriating'
p4042
aS','
p4043
aS'impervious'
p4044
aS'apparent'
p4045
aS'blamelessness'
p4046
aS'.'
p4047
asg64
(lp4048
VMore
p4049
aVthan
p4050
aVonce
p4051
ag77
aVat
p4052
aVlast
p4053
aVaway
p4054
aVfrom
p4055
aVthe
p4056
aVcountless
p4057
aVknow
p4058
aVeye
p4059
aVof
p4060
aVtheir
p4061
aVNew
p4062
aVYork
p4063
aVmilieu
p4064
ag77
aVin
p4065
aVthe
p4066
aVprivacy
p4067
aVof
p4068
aVtheir
p4069
aVHastings
p4070
aVupstairs
p4071
ag77
aVbeneath
p4072
aVthe
p4073
aVwide
p4074
aVmidwestern
p4075
aVeaves
p4076
ag77
aVshe
p4077
aVburst
p4078
aVinto
p4079
aVtear
p4080
aVand
p4081
aVstruck
p4082
aVout
p4083
aVat
p4084
aVhim
p4085
ag77
aVhis
p4086
aVinfuriating
p4087
ag77
aVimpervious
p4088
aVapparent
p4089
aVblamelessness
p4090
ag105
asg106
(lp4091
g109
ag109
ag109
ag109
ag109
ag109
ag109
ag109
ag109
ag109
ag109
ag109
ag109
ag109
aVLOCATION
p4092
aVLOCATION
p4093
ag109
ag109
ag109
ag109
ag109
ag109
ag109
aVPERSON
p4094
ag109
ag109
ag109
ag109
ag109
ag109
ag109
ag109
ag109
ag109
ag109
ag109
ag109
ag109
ag109
ag109
ag109
ag109
ag109
ag109
ag109
ag109
ag109
ag109
ag109
asg116
(lp4095
g2571
ag122
ag237
ag125
ag122
ag128
ag124
ag122
ag123
ag124
ag383
ag126
ag122
ag127
ag118
ag118
ag124
ag125
ag122
ag123
ag124
ag122
ag127
ag126
ag126
ag125
ag124
ag123
ag128
ag124
ag126
ag125
ag170
ag120
ag122
ag126
ag119
ag124
ag560
ag122
ag170
ag125
ag127
ag124
ag125
ag128
ag124
ag124
ag129
asg130
VMore than once, at last away from the countless knowing eyes of their New York milieu, in the privacy of their Hastings upstairs, beneath the wide midwestern eaves, she burst into tears and struck out at him, his infuriating, impervious apparent blamelessness.
p4096
sba(i__main__
Sentence
p4097
(dp4098
g17
I81
sg18
(lp4099
S'He'
p4100
aS'was'
p4101
aS'just'
p4102
aS'like'
p4103
aS'one'
p4104
aS'of'
p4105
aS'those'
p4106
aS'photo-realist'
p4107
aS'nudes'
p4108
aS','
p4109
aS'merciless'
p4110
aS'in'
p4111
aS'every'
p4112
aS'detail'
p4113
aS'and'
p4114
aS'yet'
p4115
aS'subtly'
p4116
aS','
p4117
aS'defiantly'
p4118
aS'not'
p4119
aS'there'
p4120
aS','
p4121
aS'not'
p4122
aS'human'
p4123
aS'.'
p4124
asg64
(lp4125
VHe
p4126
ag212
aVjust
p4127
aVlike
p4128
aVone
p4129
aVof
p4130
aVthose
p4131
aVphoto-realist
p4132
aVnude
p4133
ag77
aVmerciless
p4134
aVin
p4135
aVevery
p4136
aVdetail
p4137
aVand
p4138
aVyet
p4139
aVsubtly
p4140
ag77
aVdefiantly
p4141
aVnot
p4142
aVthere
p4143
ag77
aVnot
p4144
aVhuman
p4145
ag105
asg106
(lp4146
g109
ag109
ag109
ag109
ag109
ag109
ag109
ag109
ag109
ag109
ag109
ag109
ag109
ag109
ag109
ag109
ag109
ag109
ag109
ag109
ag109
ag109
ag109
ag109
ag109
asg116
(lp4147
g170
ag120
ag237
ag122
ag235
ag122
ag123
ag128
ag126
ag125
ag124
ag122
ag123
ag124
ag119
ag237
ag237
ag125
ag237
ag237
ag237
ag125
ag237
ag128
ag129
asg130
VHe was just like one of those photo-realist nudes, merciless in every detail and yet subtly, defiantly not there, not human.
p4148
sba(i__main__
Sentence
p4149
(dp4150
g17
I82
sg18
(lp4151
S'``'
p4152
aS'You'
p4153
aS"'re"
p4154
aS'distant'
p4155
aS','
p4156
aS"''"
p4157
aS'she'
p4158
aS'accused'
p4159
aS'him'
p4160
aS'.'
p4161
asg64
(lp4162
V``
p4163
aVYou
p4164
aV're
p4165
aVdistant
p4166
ag77
aV''
p4167
aVshe
p4168
aVaccuse
p4169
aVhim
p4170
ag105
asg106
(lp4171
g109
ag109
ag109
ag109
ag109
ag109
ag109
ag109
ag109
ag109
asg116
(lp4172
g720
ag170
ag521
ag128
ag125
ag721
ag170
ag120
ag170
ag129
asg130
V"You're distant," she accused him.
p4173
sba(i__main__
Sentence
p4174
(dp4175
g17
I83
sg18
(lp4176
S'``'
p4177
aS'You'
p4178
aS"'ve"
p4179
aS'always'
p4180
aS'been'
p4181
aS'.'
p4182
aS"''"
p4183
asg64
(lp4184
V``
p4185
aVYou
p4186
aV've
p4187
aValways
p4188
ag162
ag105
aV''
p4189
asg106
(lp4190
g109
ag109
ag109
ag109
ag109
ag109
ag109
asg116
(lp4191
g720
ag170
ag521
ag237
ag121
ag129
ag721
asg130
V"You've always been."
p4192
sba(i__main__
Sentence
p4193
(dp4194
g17
I84
sg18
(lp4195
S'``'
p4196
aS'I'
p4197
aS'do'
p4198
aS"n't"
p4199
aS'mean'
p4200
aS'to'
p4201
aS'be'
p4202
aS'.'
p4203
asg64
(lp4204
V``
p4205
ag697
aVdo
p4206
aVn't
p4207
aVmean
p4208
aVto
p4209
aVbe
p4210
ag105
asg106
(lp4211
g109
ag109
ag109
ag109
ag109
ag109
ag109
ag109
asg116
(lp4212
g720
ag170
ag521
ag237
ag382
ag381
ag382
ag129
asg130
V"I don't mean to be.
p4213
sba(i__main__
Sentence
p4214
(dp4215
g17
I85
sg18
(lp4216
S'You'
p4217
aS'did'
p4218
aS"n't"
p4219
aS'used'
p4220
aS'to'
p4221
aS'mind'
p4222
aS'my'
p4223
aS'manner'
p4224
aS'.'
p4225
asg64
(lp4226
VYou
p4227
ag2511
aVn't
p4228
aVuse
p4229
aVto
p4230
aVmind
p4231
aVmy
p4232
aVmanner
p4233
ag105
asg106
(lp4234
g109
ag109
ag109
ag109
ag109
ag109
ag109
ag109
ag109
asg116
(lp4235
g170
ag120
ag237
ag121
ag381
ag382
ag127
ag124
ag129
asg130
VYou didn't used to mind my manner.
p4236
sba(i__main__
Sentence
p4237
(dp4238
g17
I86
sg18
(lp4239
S'You'
p4240
aS'thought'
p4241
aS'it'
p4242
aS'was'
p4243
aS'quietly'
p4244
aS'masterful'
p4245
aS'.'
p4246
aS"''"
p4247
asg64
(lp4248
VYou
p4249
ag834
aVit
p4250
ag212
aVquietly
p4251
aVmasterful
p4252
ag105
aV''
p4253
asg106
(lp4254
g109
ag109
ag109
ag109
ag109
ag109
ag109
ag109
asg116
(lp4255
g170
ag120
ag170
ag120
ag237
ag128
ag129
ag721
asg130
VYou thought it was quietly masterful."
p4256
sba(i__main__
Sentence
p4257
(dp4258
g17
I87
sg18
(lp4259
S'``'
p4260
aS'I'
p4261
aS'was'
p4262
aS'a'
p4263
aS'teenage'
p4264
aS'girl'
p4265
aS'.'
p4266
asg64
(lp4267
V``
p4268
ag697
ag212
ag84
aVteenage
p4269
aVgirl
p4270
ag105
asg106
(lp4271
g109
ag109
ag109
ag109
ag109
ag109
ag109
asg116
(lp4272
g720
ag170
ag120
ag123
ag124
ag124
ag129
asg130
V"I was a teenage girl.
p4273
sba(i__main__
Sentence
p4274
(dp4275
g17
I88
sg18
(lp4276
S'I'
p4277
aS'deferred'
p4278
aS'to'
p4279
aS'you'
p4280
aS'.'
p4281
aS"''"
p4282
asg64
(lp4283
g697
aVdefer
p4284
aVto
p4285
aVyou
p4286
ag105
aV''
p4287
asg106
(lp4288
g109
ag109
ag109
ag109
ag109
ag109
asg116
(lp4289
g170
ag120
ag381
ag170
ag129
ag721
asg130
VI deferred to you."
p4290
sba(i__main__
Sentence
p4291
(dp4292
g17
I89
sg18
(lp4293
S'``'
p4294
aS'It'
p4295
aS'worked'
p4296
aS'out'
p4297
aS','
p4298
aS"''"
p4299
aS'he'
p4300
aS'pointed'
p4301
aS'out'
p4302
aS','
p4303
aS'lifting'
p4304
aS'his'
p4305
aS'hands'
p4306
aS'in'
p4307
aS'an'
p4308
aS'effete'
p4309
aS','
p4310
aS'disclaiming'
p4311
aS'way'
p4312
aS'from'
p4313
aS'his'
p4314
aS'sides'
p4315
aS','
p4316
aS'to'
p4317
aS'take'
p4318
aS'in'
p4319
aS'their'
p4320
aS'room'
p4321
aS','
p4322
aS'their'
p4323
aS'expensive'
p4324
aS'house'
p4325
aS','
p4326
aS'their'
p4327
aS'joint'
p4328
aS'career'
p4329
aS'.'
p4330
asg64
(lp4331
V``
p4332
aVIt
p4333
aVwork
p4334
aVout
p4335
ag77
aV''
p4336
aVhe
p4337
aVpoint
p4338
aVout
p4339
ag77
aVlift
p4340
aVhis
p4341
aVhand
p4342
aVin
p4343
aVan
p4344
aVeffete
p4345
ag77
aVdisclaim
p4346
aVway
p4347
aVfrom
p4348
aVhis
p4349
aVside
p4350
ag77
aVto
p4351
aVtake
p4352
aVin
p4353
aVtheir
p4354
aVroom
p4355
ag77
aVtheir
p4356
aVexpensive
p4357
aVhouse
p4358
ag77
aVtheir
p4359
aVjoint
p4360
aVcareer
p4361
ag105
asg106
(lp4362
g109
ag109
ag109
ag109
ag109
ag109
ag109
ag109
ag109
ag109
ag109
ag109
ag109
ag109
ag109
ag109
ag109
ag109
ag109
ag109
ag109
ag109
ag109
ag109
ag109
ag109
ag109
ag109
ag109
ag109
ag109
ag109
ag109
ag109
ag109
ag109
ag109
asg116
(lp4363
g720
ag170
ag120
ag560
ag125
ag721
ag170
ag120
ag560
ag125
ag383
ag127
ag126
ag122
ag123
ag128
ag125
ag383
ag124
ag122
ag127
ag126
ag125
ag381
ag382
ag122
ag127
ag124
ag125
ag127
ag128
ag124
ag125
ag127
ag128
ag124
ag129
asg130
V"It worked out," he pointed out, lifting his hands in an effete, disclaiming way from his sides, to take in their room, their expensive house, their joint career.
p4364
sba(i__main__
Sentence
p4365
(dp4366
g17
I90
sg18
(lp4367
S'``'
p4368
aS'What'
p4369
aS'is'
p4370
aS'it'
p4371
aS'that'
p4372
aS'bothers'
p4373
aS'you'
p4374
aS','
p4375
aS'Sharon'
p4376
aS'?'
p4377
asg64
(lp4378
V``
p4379
aVWhat
p4380
ag2009
aVit
p4381
aVthat
p4382
aVbother
p4383
aVyou
p4384
ag77
aVSharon
p4385
ag764
asg106
(lp4386
g109
ag109
ag109
ag109
ag109
ag109
ag109
ag109
aVPERSON
p4387
ag109
asg116
(lp4388
g720
ag665
ag744
ag170
ag122
ag126
ag170
ag125
ag118
ag129
asg130
V"What is it that bothers you, Sharon?
p4389
sba(i__main__
Sentence
p4390
(dp4391
g17
I91
sg18
(lp4392
S'The'
p4393
aS'idea'
p4394
aS'of'
p4395
aS'losing'
p4396
aS'me'
p4397
aS'?'
p4398
asg64
(lp4399
VThe
p4400
aVidea
p4401
aVof
p4402
aVlose
p4403
aVme
p4404
ag764
asg106
(lp4405
g109
ag109
ag109
ag109
ag109
ag109
asg116
(lp4406
g123
ag124
ag122
ag383
ag170
ag129
asg130
VThe idea of losing me?
p4407
sba(i__main__
Sentence
p4408
(dp4409
g17
I92
sg18
(lp4410
S'Or'
p4411
aS'the'
p4412
aS'insult'
p4413
aS'to'
p4414
aS'your'
p4415
aS'female'
p4416
aS'pride'
p4417
aS'?'
p4418
asg64
(lp4419
VOr
p4420
aVthe
p4421
aVinsult
p4422
aVto
p4423
aVyour
p4424
aVfemale
p4425
aVpride
p4426
ag764
asg106
(lp4427
g109
ag109
ag109
ag109
ag109
ag109
ag109
ag109
asg116
(lp4428
g119
ag123
ag124
ag381
ag127
ag124
ag124
ag129
asg130
VOr the insult to your female pride?
p4429
sba(i__main__
Sentence
p4430
(dp4431
g17
I93
sg18
(lp4432
S'The'
p4433
aS'people'
p4434
aS'who'
p4435
aS'started'
p4436
aS'this'
p4437
aS'ridiculous'
p4438
aS'rumor'
p4439
aS'do'
p4440
aS"n't"
p4441
aS'even'
p4442
aS'see'
p4443
aS'women'
p4444
aS'.'
p4445
asg64
(lp4446
VThe
p4447
aVpeople
p4448
aVwho
p4449
aVstart
p4450
aVthis
p4451
aVridiculous
p4452
aVrumor
p4453
aVdo
p4454
aVn't
p4455
aVeven
p4456
aVsee
p4457
aVwoman
p4458
ag105
asg106
(lp4459
g109
ag109
ag109
ag109
ag109
ag109
ag109
ag109
ag109
ag109
ag109
ag109
ag109
asg116
(lp4460
g123
ag126
ag665
ag121
ag123
ag128
ag124
ag521
ag237
ag237
ag382
ag126
ag129
asg130
VThe people who started this ridiculous rumor don't even see women.
p4461
sba(i__main__
Sentence
p4462
(dp4463
g17
I94
sg18
(lp4464
S'Women'
p4465
aS'to'
p4466
aS'them'
p4467
aS'are'
p4468
aS'just'
p4469
aS'background'
p4470
aS'noise'
p4471
aS'.'
p4472
aS"''"
p4473
asg64
(lp4474
VWomen
p4475
aVto
p4476
aVthem
p4477
ag1482
aVjust
p4478
aVbackground
p4479
aVnoise
p4480
ag105
aV''
p4481
asg106
(lp4482
g109
ag109
ag109
ag109
ag109
ag109
ag109
ag109
ag109
asg116
(lp4483
g126
ag381
ag170
ag521
ag237
ag122
ag124
ag129
ag721
asg130
VWomen to them are just background noise."
p4484
sba(i__main__
Sentence
p4485
(dp4486
g17
I95
sg18
(lp4487
S'``'
p4488
aS'It'
p4489
aS"'s"
p4490
aS'not'
p4491
aS'ridiculous'
p4492
aS'if'
p4493
aS'it'
p4494
aS'were'
p4495
aS','
p4496
aS'why'
p4497
aS'does'
p4498
aS'it'
p4499
aS'keep'
p4500
aS'on'
p4501
aS'and'
p4502
aS'on'
p4503
aS','
p4504
aS'even'
p4505
aS'though'
p4506
aS'we'
p4507
aS"'re"
p4508
aS'seen'
p4509
aS'together'
p4510
aS'all'
p4511
aS'the'
p4512
aS'time'
p4513
aS'?'
p4514
aS"''"
p4515
asg64
(lp4516
V``
p4517
aVIt
p4518
aV's
p4519
aVnot
p4520
aVridiculous
p4521
aVif
p4522
aVit
p4523
ag396
ag77
aVwhy
p4524
aVdo
p4525
aVit
p4526
aVkeep
p4527
aVon
p4528
aVand
p4529
aVon
p4530
ag77
aVeven
p4531
aVthough
p4532
aVwe
p4533
aV're
p4534
aVsee
p4535
aVtogether
p4536
aVall
p4537
aVthe
p4538
aVtime
p4539
ag764
aV''
p4540
asg106
(lp4541
g109
ag109
ag109
ag109
ag109
ag109
ag109
ag109
ag109
ag109
ag109
ag109
ag109
ag109
ag109
ag109
ag109
ag109
ag109
ag109
ag109
ag109
ag109
ag109
ag109
ag109
ag109
ag109
asg116
(lp4542
g720
ag170
ag744
ag237
ag128
ag122
ag170
ag120
ag125
ag236
ag744
ag170
ag382
ag122
ag119
ag122
ag125
ag237
ag122
ag170
ag521
ag121
ag560
ag123
ag123
ag124
ag129
ag721
asg130
V"It's not ridiculous  if it were, why does it keep on and on, even though we're seen together all the time?"
p4543
sba(i__main__
Sentence
p4544
(dp4545
g17
I96
sg18
(lp4546
S'For'
p4547
aS','
p4548
aS'ostensibly'
p4549
aS'to'
p4550
aS'quiet'
p4551
aS'her'
p4552
aS'and'
p4553
aS'to'
p4554
aS'quench'
p4555
aS'the'
p4556
aS'rumor'
p4557
aS','
p4558
aS'he'
p4559
aS'had'
p4560
aS'all'
p4561
aS'but'
p4562
aS'ceased'
p4563
aS'to'
p4564
aS'go'
p4565
aS'to'
p4566
aS'the'
p4567
aS'city'
p4568
aS'alone'
p4569
aS','
p4570
aS'and'
p4571
aS'took'
p4572
aS'her'
p4573
aS'with'
p4574
aS'him'
p4575
aS'even'
p4576
aS'though'
p4577
aS'it'
p4578
aS'meant'
p4579
aS'some'
p4580
aS'neglect'
p4581
aS'of'
p4582
aS'the'
p4583
aS'house'
p4584
aS'and'
p4585
aS'their'
p4586
aS'sons'
p4587
aS'.'
p4588
asg64
(lp4589
VFor
p4590
ag77
aVostensibly
p4591
aVto
p4592
aVquiet
p4593
aVher
p4594
aVand
p4595
aVto
p4596
aVquench
p4597
aVthe
p4598
aVrumor
p4599
ag77
aVhe
p4600
ag70
aVall
p4601
aVbut
p4602
aVcease
p4603
aVto
p4604
aVgo
p4605
aVto
p4606
aVthe
p4607
aVcity
p4608
aValone
p4609
ag77
aVand
p4610
ag2085
aVher
p4611
aVwith
p4612
aVhim
p4613
aVeven
p4614
aVthough
p4615
aVit
p4616
aVmean
p4617
aVsome
p4618
aVneglect
p4619
aVof
p4620
aVthe
p4621
aVhouse
p4622
aVand
p4623
aVtheir
p4624
aVson
p4625
ag105
asg106
(lp4626
g109
ag109
ag109
ag109
ag109
ag109
ag109
ag109
ag109
ag109
ag109
ag109
ag109
ag109
ag109
ag109
ag109
ag109
ag109
ag109
ag109
ag109
ag109
ag109
ag109
ag109
ag109
ag109
ag109
ag109
ag109
ag109
ag109
ag109
ag109
ag109
ag109
ag109
ag109
ag109
ag109
ag109
asg116
(lp4627
g122
ag125
ag237
ag381
ag382
ag127
ag119
ag381
ag382
ag123
ag124
ag125
ag170
ag120
ag3143
ag119
ag121
ag381
ag382
ag381
ag123
ag124
ag124
ag125
ag119
ag120
ag127
ag122
ag170
ag237
ag122
ag170
ag120
ag123
ag124
ag122
ag123
ag124
ag119
ag127
ag126
ag129
asg130
VFor, ostensibly to quiet her and to quench the rumor, he had all but ceased to go to the city alone, and took her with him even though it meant some neglect of the house and their sons.
p4628
sba(i__main__
Sentence
p4629
(dp4630
g17
I97
sg18
(lp4631
S'Frank'
p4632
aS'asked'
p4633
aS','
p4634
aS'``'
p4635
aS'Who'
p4636
aS'says'
p4637
aS'it'
p4638
aS'keeps'
p4639
aS'on'
p4640
aS'all'
p4641
aS'the'
p4642
aS'time'
p4643
aS'?'
p4644
asg64
(lp4645
VFrank
p4646
aVask
p4647
ag77
aV``
p4648
aVWho
p4649
aVsay
p4650
aVit
p4651
aVkeep
p4652
aVon
p4653
aVall
p4654
aVthe
p4655
aVtime
p4656
ag764
asg106
(lp4657
VPERSON
p4658
ag109
ag109
ag109
ag109
ag109
ag109
ag109
ag109
ag109
ag109
ag109
ag109
asg116
(lp4659
g118
ag120
ag125
ag720
ag665
ag744
ag170
ag744
ag122
ag123
ag123
ag124
ag129
asg130
VFrank asked, "Who says it keeps on all the time?
p4660
sba(i__main__
Sentence
p4661
(dp4662
g17
I98
sg18
(lp4663
S'I'
p4664
aS"'ve"
p4665
aS'never'
p4666
aS'heard'
p4667
aS'it'
p4668
aS','
p4669
aS'never'
p4670
aS'once'
p4671
aS','
p4672
aS'except'
p4673
aS'from'
p4674
aS'you'
p4675
aS'.'
p4676
asg64
(lp4677
g697
aV've
p4678
aVnever
p4679
ag623
aVit
p4680
ag77
aVnever
p4681
aVonce
p4682
ag77
aVexcept
p4683
aVfrom
p4684
aVyou
p4685
ag105
asg106
(lp4686
g109
ag109
ag109
ag109
ag109
ag109
ag109
ag109
ag109
ag109
ag109
ag109
ag109
asg116
(lp4687
g170
ag521
ag237
ag121
ag170
ag125
ag237
ag237
ag125
ag122
ag122
ag170
ag129
asg130
VI've never heard it, never once, except from you.
p4688
sba(i__main__
Sentence
p4689
(dp4690
g17
I99
sg18
(lp4691
S'Who'
p4692
aS"'s"
p4693
aS'mentioned'
p4694
aS'it'
p4695
aS'lately'
p4696
aS'?'
p4697
aS"''"
p4698
asg64
(lp4699
VWho
p4700
aV's
p4701
aVmention
p4702
aVit
p4703
aVlately
p4704
ag764
aV''
p4705
asg106
(lp4706
g109
ag109
ag109
ag109
ag109
ag109
ag109
asg116
(lp4707
g665
ag744
ag121
ag170
ag237
ag129
ag721
asg130
VWho's mentioned it lately?"
p4708
sba(i__main__
Sentence
p4709
(dp4710
g17
I100
sg18
(lp4711
S'``'
p4712
aS'Nobody'
p4713
aS'.'
p4714
aS"''"
p4715
asg64
(lp4716
V``
p4717
aVNobody
p4718
ag105
aV''
p4719
asg106
(lp4720
g109
ag109
ag109
ag109
asg116
(lp4721
g720
ag118
ag129
ag721
asg130
V"Nobody."
p4722
sba(i__main__
Sentence
p4723
(dp4724
g17
I101
sg18
(lp4725
S'``'
p4726
aS'Well'
p4727
aS','
p4728
aS'then'
p4729
aS'.'
p4730
aS"''"
p4731
asg64
(lp4732
V``
p4733
aVWell
p4734
ag77
aVthen
p4735
ag105
aV''
p4736
asg106
(lp4737
g109
ag109
ag109
ag109
ag109
ag109
asg116
(lp4738
g720
ag118
ag125
ag237
ag129
ag721
asg130
V"Well, then."
p4739
sba(i__main__
Sentence
p4740
(dp4741
g17
I102
sg18
(lp4742
S'He'
p4743
aS'smiled'
p4744
aS','
p4745
aS'his'
p4746
aS'lips'
p4747
aS'not'
p4748
aS'quite'
p4749
aS'parting'
p4750
aS'on'
p4751
aS'his'
p4752
aS'curved'
p4753
aS'teeth'
p4754
aS','
p4755
aS'tawny'
p4756
aS'like'
p4757
aS'a'
p4758
aS'beaver'
p4759
aS"'s"
p4760
aS'.'
p4761
asg64
(lp4762
VHe
p4763
aVsmile
p4764
ag77
aVhis
p4765
aVlip
p4766
aVnot
p4767
aVquite
p4768
aVpart
p4769
aVon
p4770
aVhis
p4771
aVcurve
p4772
aVteeth
p4773
ag77
aVtawny
p4774
aVlike
p4775
ag84
aVbeaver
p4776
aV's
p4777
ag105
asg106
(lp4778
g109
ag109
ag109
ag109
ag109
ag109
ag109
ag109
ag109
ag109
ag109
ag109
ag109
ag109
ag109
ag109
ag109
ag109
ag109
asg116
(lp4779
g170
ag120
ag125
ag127
ag126
ag237
ag237
ag383
ag122
ag127
ag121
ag124
ag125
ag124
ag122
ag123
ag124
ag3222
ag129
asg130
VHe smiled, his lips not quite parting on his curved teeth, tawny like a beaver's.
p4780
sba(i__main__
Sentence
p4781
(dp4782
g17
I103
sg18
(lp4783
S'``'
p4784
aS'You'
p4785
aS'bastard'
p4786
aS'!'
p4787
aS"''"
p4788
asg64
(lp4789
V``
p4790
aVYou
p4791
aVbastard
p4792
ag1145
aV''
p4793
asg106
(lp4794
g109
ag109
ag109
ag109
ag109
asg116
(lp4795
g720
ag170
ag521
ag129
ag721
asg130
V"You bastard!"
p4796
sba(i__main__
Sentence
p4797
(dp4798
g17
I104
sg18
(lp4799
S'Sharon'
p4800
aS'burst'
p4801
aS'out'
p4802
aS'.'
p4803
asg64
(lp4804
VSharon
p4805
aVburst
p4806
aVout
p4807
ag105
asg106
(lp4808
VPERSON
p4809
ag109
ag109
ag109
asg116
(lp4810
g118
ag120
ag560
ag129
asg130
VSharon burst out.
p4811
sba(i__main__
Sentence
p4812
(dp4813
g17
I105
sg18
(lp4814
S'``'
p4815
aS'You'
p4816
aS'have'
p4817
aS'some'
p4818
aS'stinking'
p4819
aS'little'
p4820
aS'secret'
p4821
aS'!'
p4822
aS"''"
p4823
asg64
(lp4824
V``
p4825
aVYou
p4826
aVhave
p4827
aVsome
p4828
aVstink
p4829
aVlittle
p4830
aVsecret
p4831
ag1145
aV''
p4832
asg106
(lp4833
g109
ag109
ag109
ag109
ag109
ag109
ag109
ag109
ag109
asg116
(lp4834
g720
ag170
ag521
ag123
ag383
ag237
ag124
ag129
ag721
asg130
V"You have some stinking little secret!"
p4835
sba(i__main__
Sentence
p4836
(dp4837
g17
I106
sg18
(lp4838
S'``'
p4839
aS'I'
p4840
aS'do'
p4841
aS"n't"
p4842
aS','
p4843
aS"''"
p4844
aS'he'
p4845
aS'serenely'
p4846
aS'half-lied'
p4847
aS'.'
p4848
asg64
(lp4849
V``
p4850
ag697
aVdo
p4851
aVn't
p4852
ag77
aV''
p4853
aVhe
p4854
aVserenely
p4855
aVhalf-lied
p4856
ag105
asg106
(lp4857
g109
ag109
ag109
ag109
ag109
ag109
ag109
ag109
ag109
ag109
asg116
(lp4858
g720
ag170
ag521
ag237
ag125
ag721
ag170
ag237
ag128
ag129
asg130
V"I don't," he serenely half-lied.
p4859
sbasbsS'summary'
p4860
g0
(g7
g2
Ntp4861
Rp4862
(dp4863
g11
S"Frank and Sharon are married and largely happy with their family and careers.  One day, Sharon hears a rumor that Frank had left her for a man.  Sharon laughs at the rumor since Frank is present while she hears about it on the phone.  The gossiper says she heard it from two sources.  She insists that it's all over town and that they should do something about it.  Sharon gets off the phone and explains the call to Frank who insists he is faithful and straight.  It's this reaction that raises some question in her mind.  Frank chides Sharon for taking the rumor seriously and Sharon explains that she's not but just curious where it came from.  Frank insists that there's nothing to the rumors and that didn't she recall their sexual past.  Sharon does but it was much more challenging and giving into pressure rather than fully embracing those sexual experiences.  His insistence only makes her question things more.  When she tells him who the rumors came from, he dismisses them because they are gay.  Over the ensuing days, Sharon begins to look for evidence and also begins to second-guess her interactions and whether people were taking pity on her.  Over this time, Frank begins to tease her about the idea.  However, it turns particularly ugly when Frank makes increasing sexual advantages and demands to which she is increasingly not interested in and must push him away.  Frank insists that the rumor doesn't exist and that she's the only one who believes it.  But now, Sharon believes something more is going on and he's hiding something.  He says that he isn't but the final line tells the reader that he is only half-lying."
p4864
sg13
(lp4865
(i__main__
Sentence
p4866
(dp4867
g17
I0
sg18
(lp4868
S'Frank'
p4869
aS'and'
p4870
aS'Sharon'
p4871
aS'are'
p4872
aS'married'
p4873
aS'and'
p4874
aS'largely'
p4875
aS'happy'
p4876
aS'with'
p4877
aS'their'
p4878
aS'family'
p4879
aS'and'
p4880
aS'careers'
p4881
aS'.'
p4882
asg64
(lp4883
VFrank
p4884
aVand
p4885
aVSharon
p4886
ag1482
ag207
aVand
p4887
aVlargely
p4888
aVhappy
p4889
aVwith
p4890
aVtheir
p4891
aVfamily
p4892
aVand
p4893
aVcareer
p4894
ag105
asg106
(lp4895
VPERSON
p4896
ag109
aVPERSON
p4897
ag109
ag109
ag109
ag109
ag109
ag109
ag109
ag109
ag109
ag109
ag109
asg116
(lp4898
g118
ag119
ag118
ag521
ag121
ag119
ag237
ag128
ag122
ag127
ag124
ag119
ag126
ag129
asg130
VFrank and Sharon are married and largely happy with their family and careers.
p4899
sba(i__main__
Sentence
p4900
(dp4901
g17
I1
sg18
(lp4902
S'One'
p4903
aS'day'
p4904
aS','
p4905
aS'Sharon'
p4906
aS'hears'
p4907
aS'a'
p4908
aS'rumor'
p4909
aS'that'
p4910
aS'Frank'
p4911
aS'had'
p4912
aS'left'
p4913
aS'her'
p4914
aS'for'
p4915
aS'a'
p4916
aS'man'
p4917
aS'.'
p4918
asg64
(lp4919
VOne
p4920
aVday
p4921
ag77
aVSharon
p4922
aVhears
p4923
ag84
aVrumor
p4924
aVthat
p4925
aVFrank
p4926
ag70
ag628
aVher
p4927
aVfor
p4928
ag84
aVman
p4929
ag105
asg106
(lp4930
g109
ag109
ag109
aVPERSON
p4931
ag109
ag109
ag109
ag109
aVPERSON
p4932
ag109
ag109
ag109
ag109
ag109
ag109
ag109
asg116
(lp4933
g235
ag124
ag125
ag118
ag126
ag123
ag124
ag3345
ag118
ag120
ag121
ag127
ag122
ag123
ag124
ag129
asg130
VOne day, Sharon hears a rumor that Frank had left her for a man.
p4934
sba(i__main__
Sentence
p4935
(dp4936
g17
I2
sg18
(lp4937
S'Sharon'
p4938
aS'laughs'
p4939
aS'at'
p4940
aS'the'
p4941
aS'rumor'
p4942
aS'since'
p4943
aS'Frank'
p4944
aS'is'
p4945
aS'present'
p4946
aS'while'
p4947
aS'she'
p4948
aS'hears'
p4949
aS'about'
p4950
aS'it'
p4951
aS'on'
p4952
aS'the'
p4953
aS'phone'
p4954
aS'.'
p4955
asg64
(lp4956
VSharon
p4957
aVlaugh
p4958
aVat
p4959
aVthe
p4960
aVrumor
p4961
aVsince
p4962
aVFrank
p4963
ag2009
aVpresent
p4964
aVwhile
p4965
aVshe
p4966
aVhear
p4967
aVabout
p4968
aVit
p4969
aVon
p4970
aVthe
p4971
aVphone
p4972
ag105
asg106
(lp4973
VPERSON
p4974
ag109
ag109
ag109
ag109
ag109
aVPERSON
p4975
ag109
ag109
ag109
ag109
ag109
ag109
ag109
ag109
ag109
ag109
ag109
asg116
(lp4976
g118
ag126
ag122
ag123
ag124
ag122
ag118
ag744
ag128
ag122
ag170
ag744
ag122
ag170
ag122
ag123
ag124
ag129
asg130
VSharon laughs at the rumor since Frank is present while she hears about it on the phone.
p4977
sba(i__main__
Sentence
p4978
(dp4979
g17
I3
sg18
(lp4980
S'The'
p4981
aS'gossiper'
p4982
aS'says'
p4983
aS'she'
p4984
aS'heard'
p4985
aS'it'
p4986
aS'from'
p4987
aS'two'
p4988
aS'sources'
p4989
aS'.'
p4990
asg64
(lp4991
VThe
p4992
aVgossiper
p4993
aVsay
p4994
aVshe
p4995
ag623
aVit
p4996
aVfrom
p4997
aVtwo
p4998
aVsource
p4999
ag105
asg106
(lp5000
g109
ag109
ag109
ag109
ag109
ag109
ag109
ag109
ag109
ag109
asg116
(lp5001
g123
ag124
ag744
ag170
ag120
ag170
ag122
ag235
ag126
ag129
asg130
VThe gossiper says she heard it from two sources.
p5002
sba(i__main__
Sentence
p5003
(dp5004
g17
I4
sg18
(lp5005
S'She'
p5006
aS'insists'
p5007
aS'that'
p5008
aS'it'
p5009
aS"'s"
p5010
aS'all'
p5011
aS'over'
p5012
aS'town'
p5013
aS'and'
p5014
aS'that'
p5015
aS'they'
p5016
aS'should'
p5017
aS'do'
p5018
aS'something'
p5019
aS'about'
p5020
aS'it'
p5021
aS'.'
p5022
asg64
(lp5023
VShe
p5024
aVinsist
p5025
aVthat
p5026
aVit
p5027
aV's
p5028
aVall
p5029
aVover
p5030
aVtown
p5031
aVand
p5032
aVthat
p5033
aVthey
p5034
aVshould
p5035
aVdo
p5036
aVsomething
p5037
aVabout
p5038
aVit
p5039
ag105
asg106
(lp5040
g109
ag109
ag109
ag109
ag109
ag109
ag109
ag109
ag109
ag109
ag109
ag109
ag109
ag109
ag109
ag109
ag109
asg116
(lp5041
g170
ag744
ag122
ag170
ag744
ag123
ag122
ag124
ag119
ag122
ag170
ag768
ag382
ag124
ag122
ag170
ag129
asg130
VShe insists that it's all over town and that they should do something about it.
p5042
sba(i__main__
Sentence
p5043
(dp5044
g17
I5
sg18
(lp5045
S'Sharon'
p5046
aS'gets'
p5047
aS'off'
p5048
aS'the'
p5049
aS'phone'
p5050
aS'and'
p5051
aS'explains'
p5052
aS'the'
p5053
aS'call'
p5054
aS'to'
p5055
aS'Frank'
p5056
aS'who'
p5057
aS'insists'
p5058
aS'he'
p5059
aS'is'
p5060
aS'faithful'
p5061
aS'and'
p5062
aS'straight'
p5063
aS'.'
p5064
asg64
(lp5065
VSharon
p5066
aVget
p5067
aVoff
p5068
aVthe
p5069
aVphone
p5070
aVand
p5071
aVexplain
p5072
aVthe
p5073
aVcall
p5074
aVto
p5075
aVFrank
p5076
aVwho
p5077
aVinsist
p5078
aVhe
p5079
ag2009
aVfaithful
p5080
aVand
p5081
aVstraight
p5082
ag105
asg106
(lp5083
VPERSON
p5084
ag109
ag109
ag109
ag109
ag109
ag109
ag109
ag109
ag109
aVPERSON
p5085
ag109
ag109
ag109
ag109
ag109
ag109
ag109
ag109
asg116
(lp5086
g118
ag744
ag560
ag123
ag124
ag119
ag744
ag123
ag124
ag381
ag118
ag665
ag744
ag170
ag744
ag128
ag119
ag128
ag129
asg130
VSharon gets off the phone and explains the call to Frank who insists he is faithful and straight.
p5087
sba(i__main__
Sentence
p5088
(dp5089
g17
I6
sg18
(lp5090
S'It'
p5091
aS"'s"
p5092
aS'this'
p5093
aS'reaction'
p5094
aS'that'
p5095
aS'raises'
p5096
aS'some'
p5097
aS'question'
p5098
aS'in'
p5099
aS'her'
p5100
aS'mind'
p5101
aS'.'
p5102
asg64
(lp5103
VIt
p5104
aV's
p5105
aVthis
p5106
aVreaction
p5107
aVthat
p5108
aVraise
p5109
aVsome
p5110
aVquestion
p5111
aVin
p5112
aVher
p5113
aVmind
p5114
ag105
asg106
(lp5115
g109
ag109
ag109
ag109
ag109
ag109
ag109
ag109
ag109
ag109
ag109
ag109
asg116
(lp5116
g170
ag744
ag123
ag124
ag122
ag744
ag123
ag124
ag122
ag127
ag124
ag129
asg130
VIt's this reaction that raises some question in her mind.
p5117
sba(i__main__
Sentence
p5118
(dp5119
g17
I7
sg18
(lp5120
S'Frank'
p5121
aS'chides'
p5122
aS'Sharon'
p5123
aS'for'
p5124
aS'taking'
p5125
aS'the'
p5126
aS'rumor'
p5127
aS'seriously'
p5128
aS'and'
p5129
aS'Sharon'
p5130
aS'explains'
p5131
aS'that'
p5132
aS'she'
p5133
aS"'s"
p5134
aS'not'
p5135
aS'but'
p5136
aS'just'
p5137
aS'curious'
p5138
aS'where'
p5139
aS'it'
p5140
aS'came'
p5141
aS'from'
p5142
aS'.'
p5143
asg64
(lp5144
VFrank
p5145
aVchide
p5146
aVSharon
p5147
aVfor
p5148
aVtake
p5149
aVthe
p5150
aVrumor
p5151
aVseriously
p5152
aVand
p5153
aVSharon
p5154
aVexplains
p5155
aVthat
p5156
aVshe
p5157
aV's
p5158
aVnot
p5159
aVbut
p5160
aVjust
p5161
aVcurious
p5162
aVwhere
p5163
aVit
p5164
aVcome
p5165
aVfrom
p5166
ag105
asg106
(lp5167
VPERSON
p5168
ag109
aVPERSON
p5169
ag109
ag109
ag109
ag109
ag109
ag109
aVPERSON
p5170
ag109
ag109
ag109
ag109
ag109
ag109
ag109
ag109
ag109
ag109
ag109
ag109
ag109
asg116
(lp5171
g118
ag744
ag118
ag122
ag383
ag123
ag124
ag237
ag119
ag118
ag126
ag3345
ag170
ag744
ag237
ag119
ag237
ag128
ag236
ag170
ag120
ag122
ag129
asg130
VFrank chides Sharon for taking the rumor seriously and Sharon explains that she's not but just curious where it came from.
p5172
sba(i__main__
Sentence
p5173
(dp5174
g17
I8
sg18
(lp5175
S'Frank'
p5176
aS'insists'
p5177
aS'that'
p5178
aS'there'
p5179
aS"'s"
p5180
aS'nothing'
p5181
aS'to'
p5182
aS'the'
p5183
aS'rumors'
p5184
aS'and'
p5185
aS'that'
p5186
aS'did'
p5187
aS"n't"
p5188
aS'she'
p5189
aS'recall'
p5190
aS'their'
p5191
aS'sexual'
p5192
aS'past'
p5193
aS'.'
p5194
asg64
(lp5195
VFrank
p5196
aVinsist
p5197
aVthat
p5198
aVthere
p5199
aV's
p5200
aVnothing
p5201
aVto
p5202
aVthe
p5203
aVrumor
p5204
aVand
p5205
aVthat
p5206
ag2511
aVn't
p5207
aVshe
p5208
aVrecall
p5209
aVtheir
p5210
aVsexual
p5211
aVpast
p5212
ag105
asg106
(lp5213
VPERSON
p5214
ag109
ag109
ag109
ag109
ag109
ag109
ag109
ag109
ag109
ag109
ag109
ag109
ag109
ag109
ag109
ag109
ag109
ag109
asg116
(lp5215
g118
ag744
ag122
ag666
ag744
ag124
ag381
ag123
ag126
ag119
ag122
ag120
ag237
ag170
ag768
ag127
ag128
ag124
ag129
asg130
VFrank insists that there's nothing to the rumors and that didn't she recall their sexual past.
p5216
sba(i__main__
Sentence
p5217
(dp5218
g17
I9
sg18
(lp5219
S'Sharon'
p5220
aS'does'
p5221
aS'but'
p5222
aS'it'
p5223
aS'was'
p5224
aS'much'
p5225
aS'more'
p5226
aS'challenging'
p5227
aS'and'
p5228
aS'giving'
p5229
aS'into'
p5230
aS'pressure'
p5231
aS'rather'
p5232
aS'than'
p5233
aS'fully'
p5234
aS'embracing'
p5235
aS'those'
p5236
aS'sexual'
p5237
aS'experiences'
p5238
aS'.'
p5239
asg64
(lp5240
VSharon
p5241
aVdo
p5242
aVbut
p5243
aVit
p5244
ag212
aVmuch
p5245
aVmore
p5246
aVchallenge
p5247
aVand
p5248
aVgive
p5249
aVinto
p5250
aVpressure
p5251
aVrather
p5252
aVthan
p5253
aVfully
p5254
aVembrace
p5255
aVthose
p5256
aVsexual
p5257
aVexperience
p5258
ag105
asg106
(lp5259
VPERSON
p5260
ag109
ag109
ag109
ag109
ag109
ag109
ag109
ag109
ag109
ag109
ag109
ag109
ag109
ag109
ag109
ag109
ag109
ag109
ag109
asg116
(lp5261
g118
ag744
ag119
ag170
ag120
ag237
ag380
ag383
ag119
ag383
ag122
ag124
ag237
ag122
ag237
ag383
ag123
ag128
ag126
ag129
asg130
VSharon does but it was much more challenging and giving into pressure rather than fully embracing those sexual experiences.
p5262
sba(i__main__
Sentence
p5263
(dp5264
g17
I10
sg18
(lp5265
S'His'
p5266
aS'insistence'
p5267
aS'only'
p5268
aS'makes'
p5269
aS'her'
p5270
aS'question'
p5271
aS'things'
p5272
aS'more'
p5273
aS'.'
p5274
asg64
(lp5275
VHis
p5276
aVinsistence
p5277
aVonly
p5278
aVmake
p5279
aVher
p5280
aVquestion
p5281
aVthing
p5282
aVmore
p5283
ag105
asg106
(lp5284
g109
ag109
ag109
ag109
ag109
ag109
ag109
ag109
ag109
asg116
(lp5285
g127
ag124
ag237
ag744
ag127
ag124
ag126
ag380
ag129
asg130
VHis insistence only makes her question things more.
p5286
sba(i__main__
Sentence
p5287
(dp5288
g17
I11
sg18
(lp5289
S'When'
p5290
aS'she'
p5291
aS'tells'
p5292
aS'him'
p5293
aS'who'
p5294
aS'the'
p5295
aS'rumors'
p5296
aS'came'
p5297
aS'from'
p5298
aS','
p5299
aS'he'
p5300
aS'dismisses'
p5301
aS'them'
p5302
aS'because'
p5303
aS'they'
p5304
aS'are'
p5305
aS'gay'
p5306
aS'.'
p5307
asg64
(lp5308
VWhen
p5309
aVshe
p5310
aVtell
p5311
aVhim
p5312
aVwho
p5313
aVthe
p5314
aVrumor
p5315
ag5165
aVfrom
p5316
ag77
aVhe
p5317
aVdismiss
p5318
aVthem
p5319
aVbecause
p5320
aVthey
p5321
ag1482
aVgay
p5322
ag105
asg106
(lp5323
g109
ag109
ag109
ag109
ag109
ag109
ag109
ag109
ag109
ag109
ag109
ag109
ag109
ag109
ag109
ag109
ag109
ag109
asg116
(lp5324
g236
ag170
ag744
ag170
ag665
ag123
ag126
ag120
ag122
ag125
ag170
ag744
ag170
ag122
ag170
ag521
ag237
ag129
asg130
VWhen she tells him who the rumors came from, he dismisses them because they are gay.
p5325
sba(i__main__
Sentence
p5326
(dp5327
g17
I12
sg18
(lp5328
S'Over'
p5329
aS'the'
p5330
aS'ensuing'
p5331
aS'days'
p5332
aS','
p5333
aS'Sharon'
p5334
aS'begins'
p5335
aS'to'
p5336
aS'look'
p5337
aS'for'
p5338
aS'evidence'
p5339
aS'and'
p5340
aS'also'
p5341
aS'begins'
p5342
aS'to'
p5343
aS'second-guess'
p5344
aS'her'
p5345
aS'interactions'
p5346
aS'and'
p5347
aS'whether'
p5348
aS'people'
p5349
aS'were'
p5350
aS'taking'
p5351
aS'pity'
p5352
aS'on'
p5353
aS'her'
p5354
aS'.'
p5355
asg64
(lp5356
VOver
p5357
aVthe
p5358
aVensuing
p5359
aVday
p5360
ag77
aVSharon
p5361
aVbegin
p5362
aVto
p5363
aVlook
p5364
aVfor
p5365
aVevidence
p5366
aVand
p5367
aValso
p5368
aVbegin
p5369
aVto
p5370
aVsecond-guess
p5371
aVher
p5372
aVinteraction
p5373
aVand
p5374
aVwhether
p5375
aVpeople
p5376
ag396
aVtake
p5377
aVpity
p5378
aVon
p5379
aVher
p5380
ag105
asg106
(lp5381
g109
ag109
ag109
ag109
ag109
aVPERSON
p5382
ag109
ag109
ag109
ag109
ag109
ag109
ag109
ag109
ag109
ag109
ag109
ag109
ag109
ag109
ag109
ag109
ag109
ag109
ag109
ag109
ag109
asg116
(lp5383
g122
ag123
ag124
ag126
ag125
ag118
ag744
ag381
ag382
ag122
ag124
ag119
ag237
ag744
ag381
ag128
ag127
ag126
ag119
ag122
ag126
ag120
ag383
ag124
ag122
ag127
ag129
asg130
VOver the ensuing days, Sharon begins to look for evidence and also begins to second-guess her interactions and whether people were taking pity on her.
p5384
sba(i__main__
Sentence
p5385
(dp5386
g17
I13
sg18
(lp5387
S'Over'
p5388
aS'this'
p5389
aS'time'
p5390
aS','
p5391
aS'Frank'
p5392
aS'begins'
p5393
aS'to'
p5394
aS'tease'
p5395
aS'her'
p5396
aS'about'
p5397
aS'the'
p5398
aS'idea'
p5399
aS'.'
p5400
asg64
(lp5401
VOver
p5402
aVthis
p5403
aVtime
p5404
ag77
aVFrank
p5405
aVbegin
p5406
aVto
p5407
aVtease
p5408
aVher
p5409
aVabout
p5410
aVthe
p5411
aVidea
p5412
ag105
asg106
(lp5413
g109
ag109
ag109
ag109
aVPERSON
p5414
ag109
ag109
ag109
ag109
ag109
ag109
ag109
ag109
asg116
(lp5415
g122
ag123
ag124
ag125
ag118
ag744
ag381
ag382
ag127
ag122
ag123
ag124
ag129
asg130
VOver this time, Frank begins to tease her about the idea.
p5416
sba(i__main__
Sentence
p5417
(dp5418
g17
I14
sg18
(lp5419
S'However'
p5420
aS','
p5421
aS'it'
p5422
aS'turns'
p5423
aS'particularly'
p5424
aS'ugly'
p5425
aS'when'
p5426
aS'Frank'
p5427
aS'makes'
p5428
aS'increasing'
p5429
aS'sexual'
p5430
aS'advantages'
p5431
aS'and'
p5432
aS'demands'
p5433
aS'to'
p5434
aS'which'
p5435
aS'she'
p5436
aS'is'
p5437
aS'increasingly'
p5438
aS'not'
p5439
aS'interested'
p5440
aS'in'
p5441
aS'and'
p5442
aS'must'
p5443
aS'push'
p5444
aS'him'
p5445
aS'away'
p5446
aS'.'
p5447
asg64
(lp5448
VHowever
p5449
ag77
aVit
p5450
aVturn
p5451
aVparticularly
p5452
aVugly
p5453
aVwhen
p5454
aVFrank
p5455
aVmake
p5456
aVincrease
p5457
aVsexual
p5458
aVadvantage
p5459
aVand
p5460
aVdemand
p5461
aVto
p5462
aVwhich
p5463
aVshe
p5464
ag2009
aVincreasingly
p5465
aVnot
p5466
aVinterested
p5467
aVin
p5468
aVand
p5469
aVmust
p5470
aVpush
p5471
aVhim
p5472
aVaway
p5473
ag105
asg106
(lp5474
g109
ag109
ag109
ag109
ag109
ag109
ag109
aVPERSON
p5475
ag109
ag109
ag109
ag109
ag109
ag109
ag109
ag109
ag109
ag109
ag109
ag109
ag109
ag109
ag109
ag109
ag109
ag109
ag109
ag109
asg116
(lp5476
g237
ag125
ag170
ag744
ag237
ag237
ag236
ag118
ag744
ag383
ag128
ag126
ag119
ag126
ag381
ag3345
ag170
ag744
ag237
ag237
ag128
ag122
ag119
ag768
ag382
ag170
ag237
ag129
asg130
VHowever, it turns particularly ugly when Frank makes increasing sexual advantages and demands to which she is increasingly not interested in and must push him away.
p5477
sba(i__main__
Sentence
p5478
(dp5479
g17
I15
sg18
(lp5480
S'Frank'
p5481
aS'insists'
p5482
aS'that'
p5483
aS'the'
p5484
aS'rumor'
p5485
aS'does'
p5486
aS"n't"
p5487
aS'exist'
p5488
aS'and'
p5489
aS'that'
p5490
aS'she'
p5491
aS"'s"
p5492
aS'the'
p5493
aS'only'
p5494
aS'one'
p5495
aS'who'
p5496
aS'believes'
p5497
aS'it'
p5498
aS'.'
p5499
asg64
(lp5500
VFrank
p5501
aVinsist
p5502
aVthat
p5503
aVthe
p5504
aVrumor
p5505
aVdo
p5506
aVn't
p5507
aVexist
p5508
aVand
p5509
aVthat
p5510
aVshe
p5511
aV's
p5512
aVthe
p5513
aVonly
p5514
aVone
p5515
aVwho
p5516
aVbelief
p5517
aVit
p5518
ag105
asg106
(lp5519
VPERSON
p5520
ag109
ag109
ag109
ag109
ag109
ag109
ag109
ag109
ag109
ag109
ag109
ag109
ag109
ag109
ag109
ag109
ag109
ag109
asg116
(lp5521
g118
ag744
ag122
ag123
ag124
ag744
ag237
ag382
ag119
ag122
ag170
ag744
ag123
ag128
ag235
ag665
ag126
ag170
ag129
asg130
VFrank insists that the rumor doesn't exist and that she's the only one who believes it.
p5522
sba(i__main__
Sentence
p5523
(dp5524
g17
I16
sg18
(lp5525
S'But'
p5526
aS'now'
p5527
aS','
p5528
aS'Sharon'
p5529
aS'believes'
p5530
aS'something'
p5531
aS'more'
p5532
aS'is'
p5533
aS'going'
p5534
aS'on'
p5535
aS'and'
p5536
aS'he'
p5537
aS"'s"
p5538
aS'hiding'
p5539
aS'something'
p5540
aS'.'
p5541
asg64
(lp5542
VBut
p5543
aVnow
p5544
ag77
aVSharon
p5545
aVbelieve
p5546
aVsomething
p5547
aVmore
p5548
ag2009
aVgo
p5549
aVon
p5550
aVand
p5551
aVhe
p5552
aV's
p5553
aVhide
p5554
aVsomething
p5555
ag105
asg106
(lp5556
g109
ag109
ag109
aVPERSON
p5557
ag109
ag109
ag109
ag109
ag109
ag109
ag109
ag109
ag109
ag109
ag109
ag109
asg116
(lp5558
g119
ag237
ag125
ag118
ag744
ag124
ag2571
ag744
ag383
ag122
ag119
ag170
ag744
ag383
ag124
ag129
asg130
VBut now, Sharon believes something more is going on and he's hiding something.
p5559
sba(i__main__
Sentence
p5560
(dp5561
g17
I17
sg18
(lp5562
S'He'
p5563
aS'says'
p5564
aS'that'
p5565
aS'he'
p5566
aS'is'
p5567
aS"n't"
p5568
aS'but'
p5569
aS'the'
p5570
aS'final'
p5571
aS'line'
p5572
aS'tells'
p5573
aS'the'
p5574
aS'reader'
p5575
aS'that'
p5576
aS'he'
p5577
aS'is'
p5578
aS'only'
p5579
aS'half-lying'
p5580
aS'.'
p5581
asg64
(lp5582
VHe
p5583
aVsay
p5584
aVthat
p5585
aVhe
p5586
ag2009
aVn't
p5587
aVbut
p5588
aVthe
p5589
aVfinal
p5590
aVline
p5591
aVtell
p5592
aVthe
p5593
aVreader
p5594
aVthat
p5595
aVhe
p5596
ag2009
aVonly
p5597
aVhalf-lying
p5598
ag105
asg106
(lp5599
g109
ag109
ag109
ag109
ag109
ag109
ag109
ag109
ag109
ag109
ag109
ag109
ag109
ag109
ag109
ag109
ag109
ag109
ag109
asg116
(lp5600
g170
ag744
ag122
ag170
ag744
ag237
ag119
ag123
ag128
ag124
ag126
ag123
ag124
ag122
ag170
ag744
ag237
ag128
ag129
asg130
VHe says that he isn't but the final line tells the reader that he is only half-lying.
p5601
sbasbsS'name'
p5602
S'The Rumor'
p5603
sS'summaries'
p5604
(lp5605
g4862
asb.