ccopy_reg
_reconstructor
p0
(c__main__
Story
p1
c__builtin__
object
p2
Ntp3
Rp4
(dp5
S'text'
p6
g0
(c__main__
Document
p7
g2
Ntp8
Rp9
(dp10
S'_Document__initialContent'
p11
S'In olden times there lived an aged queen who was a sorceress, and her\ndaughter was the most beautiful maiden under the sun.  The old woman,\nhowever, had no other thought than how to lure mankind to\ndestruction, and when a wooer appeared, she said that whosoever\nwished to have her daughter, must first perform a task, or die.  Many\nhad been dazzled by the daughter\'s beauty, and had actually risked\nthis, but they never could accomplish what the old woman enjoined\nthem to do, and then no mercy was shown, they had to kneel down, and\ntheir heads were struck off.\n\nA certain king\'s son who had also heard of the maiden\'s beauty, said\nto his father, "Let me go there, I want to demand her in marriage."\n"Never," answered the king, "if you were to go, it would be going to\nyour death." On this the son lay down and was sick unto death, and\nfor seven years he lay there, and no physician could heal him. When\nthe father perceived that all hope was over, with a heavy heart he\nsaid to him, "Go thither, and try your luck, for I know no other\nmeans of curing you." When the son heard that, he rose from his bed\nand was well again, and joyfully set out on his way.\n\nAnd it came to pass that as he was riding across a heath, he saw from\nafar something like a great heap of hay laying on the ground, and\nwhen he drew nearer, he could see that it was the stomach of a man,\nwho had laid himself down there, but the stomach looked like a small\nmountain.  When the fat man saw the traveler, he stood up and said,\n"If you are in need of any one, take me into your service." The\nprince answered, "What can I do with such a clumsy man?" "Oh," said\nthe stout one, "this is nothing, when I really puff myself up, I am\nthree thousand times fatter." "If that\'s the case," said the prince,\n"I can make use of you, come with me."\n\nSo the stout one followed the prince, and after a while they found\nanother man who was lying on the ground with his ear laid to the\nturf.  "What are you doing there?" asked the king\'s son.  "I am\nlistening," replied the man.  "What are you listening to so\nattentively?" "I am listening to what is just going on in the world,\nfor nothing escapes my ears, I even hear the grass growing." "Tell\nme," said the prince, "what you hear at the court of the old queen\nwho has the beautiful daughter." Then he answered, "I hear the\nwhizzing of the sword that is striking off a wooer\'s head." The\nking\'s son said, "I can make use of you, come with me."\n\nThey went onwards, and then saw a pair of feet lying and part of a\npair of legs, but could not see the rest of the body.  When they had\nwalked on for a great distance, they came to the body, and at last to\nthe head also.  "Why," said the prince, "what a tall rascal you are."\n"Oh," replied the tall one, "that is nothing at all yet, when I\nreally stretch out my limbs, I am three thousand times as tall, and\ntaller than the highest mountain on earth.  I will gladly enter your\nservice, if you will take me." "Come with me," said the prince, "I\ncan make use of you."\n\nThey went onwards and found a man sitting by the road who had bound\nup his eyes.  The prince said to him, "Have you weak eyes, that you\ncannot look at the light?" "No," replied the man, "but I must not\nremove the bandage, for whatsoever I look at with my eyes, splits to\npieces, so powerful is my glance.  If you can use that, I shall be\nglad to serve you." "Come with me," replied the king\'s son, "I can\nmake use of you."\n\nThey journeyed onwards and found a man who was lying in the hot\nsunshine, trembling and shivering all over his body, so that not a\nlimb was still.  "How can you shiver when the sun is shining so\nwarm?" said the king\'s son.  "Alas," replied the man, "I am of quite\na different nature.  The hotter it is, the colder I am, and the frost\npierces through all my bones, and the colder it is, the hotter I am.\nIn the midst of ice, I cannot endure the heat, nor in the midst of\nfire, the cold." "You are a strange fellow," said the prince, "but if\nyou will enter my service, follow me."\n\nThey traveled onwards, and saw a man standing who made a long neck\nand looked about him, and could see over all the mountains.  "What\nare you looking at so eagerly?" said the king\'s son.  The man\nreplied, "I have such sharp eyes that I can see into every forest and\nfield, and hill and valley, all over the world." The prince said,\n"Come with me if you will, for I am still in want of such an one."\n\nAnd now the king\'s son and his six servants came to the town where\nthe aged queen dwelt.  He did not tell her who he was, but said, "If\nyou will give me your beautiful daughter, I will perform any task you\nset me." The sorceress was delighted to get such a handsome youth as\nthis into her net, and said, "I will set you three tasks, and if you\nare able to perform them all, you shall be husband and master of my\ndaughter." "What is the first to be?" "You shall fetch me my ring\nwhich I have dropped into the red sea."\n\nSo the king\'s son went home to his servants and said, "The first task\nis not easy.  A ring is to be got out of the red sea.  Come, find\nsome way of doing it." Then the man with the sharp sight said, "I\nwill see where it is lying," and looked down into the water and said,\n"It is hanging there, on a pointed stone." The tall one carried them\nthither, and said, "I would soon get it out, if I could only see it."\n"Oh, is that all," cried the stout one, and lay down and put his\nmouth to the water, on which all the waves fell into it just as if it\nhad been a whirlpool, and he drank up the whole sea till it was as\ndry as a meadow.  The tall one stooped down a little, and brought out\nthe ring with his hand.\n\nThen the king\'s son rejoiced when he had the ring, and took it to the\nold queen.  She was astonished, and said, "Yes, it is the right ring.\nYou have safely performed the first task, but now comes the second.\nDo you see the meadow in front of my palace?  Three hundred fat oxen\nare feeding there, and these must you eat, skin, hair, bones, horns\nand all, and down below in my cellar lie three hundred casks of wine,\nand these you must drink up as well, and if one hair of the oxen, or\none little drop of the wine is left, your life will be forfeited to\nme." "May I invite no guests to this repast?" inquired the prince,\n"No dinner is good without some company." The old woman laughed\nmaliciously, and replied, "You may invite one for the sake of\ncompanionship, but no more."\n\nThe king\'s son went to his servants and said to the stout one, "You\nshall be my guest to-day, and shall eat your fill." Hereupon the\nstout one puffed himself up and ate the three hundred oxen without\nleaving one single hair, and then he asked if he was to have nothing\nbut his breakfast.  Then he drank the wine straight from the casks\nwithout feeling any need of a glass, and drained them down to their\ndregs.\n\nWhen the meal was over, the prince went to the old woman, and told\nher that the second task also was performed.  She wondered at this\nand said, "No one has ever done so much before, but one task still\nremains," and she thought to herself, "You shall not escape me, and\nwill not keep your head on your shoulders." "This night," said she,\n"I will bring my daughter to you in your chamber, and you shall put\nyour arms round her, but when you are sitting there together, beware\nof falling asleep.  When twelve o\'clock is striking, I will come, and\nif she is then no longer in your arms, you are lost."\n\nThe prince thought, "The task is easy, I will most certainly keep my\neyes open." Nevertheless he called his servants, told them what the\nold woman had said, and remarked, "Who knows what treachery lurks\nbehind this?  Foresight is a good thing - keep watch, and take\ncare that the maiden does not go out of my room again." When night\nfell, the old woman came with her daughter, and gave her into the\nprinces\'s arms, and then the tall one wound himself round the two in\na circle, and the stout one placed himself by the door, so that no\nliving creature could enter.  There the two sat, and the maiden spoke\nnever a word, but the moon shone through the window on her face, and\nthe prince could behold her wondrous beauty.  He did nothing but gaze\nat her, and was filled with love and happiness, and his eyes never\nfelt weary.  This lasted until eleven o\'clock, when the old woman\ncast such a spell over all of them that they fell asleep, and at the\nself-same moment the maiden was carried away.\n\nThen they all slept soundly until a quarter to twelve, when the magic\nlost its power, and all awoke again.  "Oh, misery and misfortune,"\ncried the prince, "now I am lost." The faithful servants also began\nto lament, but the listener said, "Be quiet, I want to listen." Then\nhe listened for an instant and said, "She is on a rock, three hundred\nleagues from hence, bewailing her fate.  You alone, tall one, can\nhelp her, if you will stand up, you will be there in a couple of\nsteps."\n\n"Yes," answered the tall one, "but the one with the sharp eyes must\ngo with me, that we may destroy the rock." Then the tall one took the\none with bandaged eyes on his back, and in the twinkling of an eye\nthey were on the enchanted rock.  The tall one immediately took the\nbandage from the other\'s eyes, and he did but look round, and the\nrock shivered into a thousand pieces. Then the tall one took the\nmaiden in his arms, carried her back in a second, then fetched his\ncompanion with the same rapidity, and before it struck twelve they\nwere all sitting as they had sat before, quite merrily and happily.\nWhen twelve struck, the aged sorceress came stealing in with a\nmalicious face, as much as to say, "Now he is mine, for she believed\nthat her daughter was on the rock three hundred leagues off." But\nwhen she saw her in the prince\'s arms, she was alarmed, and said,\n"Here is one who knows more than I do." She dared not make any\nopposition, and was forced to give him her daughter.  But she\nwhispered in her ear, "It is a disgrace to you to have to obey common\npeople, and that you are not allowed to choose a husband to your own\nliking."\n\nOn this the proud heart of the maiden was filled with anger, and she\nmeditated revenge.  Next morning she caused three hundred great\nbundles of wood to be got together, and said to the prince that\nthough the three tasks were performed, she would still not be his\nwife until someone was ready to seat himself in the midst of the\nwood, and bear the fire.  She thought that none of his servants would\nlet themselves be burnt for him, and that out of love for her, he\nhimself would place himself upon it, and then she would be free.  But\nthe servants said, "Every one of us has done something except the\nfrosty one, he must set to work, and they put him in the middle of\nthe pile, and set fire to it." Then the fire began to burn, and burnt\nfor three days until all the wood was consumed, and when the flames\nhad burnt out, the frosty one was standing amid the ashes, trembling\nlike an aspen leaf, and saying, "I never felt such a frost during the\nwhole course of my life, if it had lasted much longer, I should have\nbeen benumbed."\n\nAs no other pretext was to be found, the beautiful maiden was now\nforced to take the unknown youth as a husband.  But when they drove\naway to church, the old woman said, "I cannot endure the disgrace,"\nand sent her warriors after them with orders to cut down all who\nopposed them, and bring back her daughter.  But the listener had\nsharpened his ears, and heard the secret discourse of the old woman.\n"What shall we do?" said he to the stout one.  But he knew what to\ndo, and spat out once or twice behind the carriage some of the\nsea-water which he had drunk, and a great lake arose in which the\nwarriors were caught and drowned.\n\nWhen the sorceress perceived that, she sent her mailed knights, but\nthe listener heard the rattling of their armor, and undid the bandage\nfrom one eye of sharp-eyes, who looked for a while rather fixedly at\nthe enemy\'s troops, on which they all sprang to pieces like glass.\nThen the youth and the maiden went on their way undisturbed, and when\nthe two had been blessed in church, the six servants took leave, and\nsaid to their master, "Your wishes are now satisfied, you need us no\nlonger, we will go our way and seek our fortunes."\n\nHalf a league from the palace of the prince\'s father was a village\nnear which a swineherd tended his herd, and when they came thither\nthe prince said to his wife, "Do you know who I really am?  I am no\nprince, but a herder of swine, and the man who is there with that\nherd, is my father.  We two shall have to set to work also, and help\nhim." Then he alighted with her at the inn, and secretly told the\ninnkeepers to take away her royal apparel during the night.  So when\nshe awoke in the morning, she had nothing to put on, and the\ninnkeeper\'s wife gave her an old gown and a pair of worsted\nstockings, and at the same time seemed to consider it a great\npresent, and said, "If it were not for the sake of your husband I\nshould have given you nothing at all." Then the princess believed\nthat he really was a swineherd, and tended the herd with him, and\nthought to herself, "I have deserved this for my haughtiness and\npride."\n\nThis lasted for a week, and then she could endure it no longer, for\nshe had sores on her feet.  And now came a couple of people who asked\nif she knew who her husband was.  "Yes," she answered, "he is a\nswineherd, and has just gone out with cords and ropes to try to drive\na little bargain." But they said, "Just come with us, and we will\ntake you to him," and they took her up to the palace, and when she\nentered the hall, there stood her husband in kingly raiment.  But she\ndid not recognize him until he took her in his arms, kissed her, and\nsaid, "I suffered so much for you that you, too, had to suffer for\nme." And then the wedding was celebrated, and he who has related\nthis, wishes that he, too, had been present at it.\n'
p12
sS'sentences'
p13
(lp14
(i__main__
Sentence
p15
(dp16
S'index'
p17
I0
sS'words'
p18
(lp19
S'In'
p20
aS'olden'
p21
aS'times'
p22
aS'there'
p23
aS'lived'
p24
aS'an'
p25
aS'aged'
p26
aS'queen'
p27
aS'who'
p28
aS'was'
p29
aS'a'
p30
aS'sorceress'
p31
aS','
p32
aS'and'
p33
aS'her'
p34
aS'daughter'
p35
aS'was'
p36
aS'the'
p37
aS'most'
p38
aS'beautiful'
p39
aS'maiden'
p40
aS'under'
p41
aS'the'
p42
aS'sun'
p43
aS'.'
p44
asS'lemmas'
p45
(lp46
VIn
p47
aVolden
p48
aVtime
p49
aVthere
p50
aVlive
p51
aVan
p52
aVaged
p53
aVqueen
p54
aVwho
p55
aVbe
p56
aVa
p57
aVsorceress
p58
aV,
p59
aVand
p60
aVher
p61
aVdaughter
p62
ag56
aVthe
p63
aVmost
p64
aVbeautiful
p65
aVmaiden
p66
aVunder
p67
aVthe
p68
aVsun
p69
aV.
p70
asS'nerTags'
p71
(lp72
VO
p73
ag73
ag73
ag73
ag73
ag73
ag73
ag73
ag73
ag73
ag73
ag73
ag73
ag73
ag73
ag73
ag73
ag73
ag73
ag73
ag73
ag73
ag73
ag73
ag73
asS'posTags'
p74
(lp75
S'IN'
p76
aS'VBN'
p77
aS'NNS'
p78
aS'RB'
p79
ag77
aS'DT'
p80
aS'JJ'
p81
aS'NN'
p82
aS'WP'
p83
aS'VBD'
p84
ag80
ag82
aS','
p85
aS'CC'
p86
aS'PRP$'
p87
ag82
ag84
ag80
aS'JJS'
p88
ag81
ag82
ag76
ag80
ag82
aS'.'
p89
asS'_Sentence__initialContent'
p90
VIn olden times there lived an aged queen who was a sorceress, and her daughter was the most beautiful maiden under the sun.
p91
sba(i__main__
Sentence
p92
(dp93
g17
I1
sg18
(lp94
S'The'
p95
aS'old'
p96
aS'woman'
p97
aS','
p98
aS'however'
p99
aS','
p100
aS'had'
p101
aS'no'
p102
aS'other'
p103
aS'thought'
p104
aS'than'
p105
aS'how'
p106
aS'to'
p107
aS'lure'
p108
aS'mankind'
p109
aS'to'
p110
aS'destruction'
p111
aS','
p112
aS'and'
p113
aS'when'
p114
aS'a'
p115
aS'wooer'
p116
aS'appeared'
p117
aS','
p118
aS'she'
p119
aS'said'
p120
aS'that'
p121
aS'whosoever'
p122
aS'wished'
p123
aS'to'
p124
aS'have'
p125
aS'her'
p126
aS'daughter'
p127
aS','
p128
aS'must'
p129
aS'first'
p130
aS'perform'
p131
aS'a'
p132
aS'task'
p133
aS','
p134
aS'or'
p135
aS'die'
p136
aS'.'
p137
asg45
(lp138
VThe
p139
aVold
p140
aVwoman
p141
ag59
aVhowever
p142
ag59
aVhave
p143
aVno
p144
aVother
p145
aVthought
p146
aVthan
p147
aVhow
p148
aVto
p149
aVlure
p150
aVmankind
p151
aVto
p152
aVdestruction
p153
ag59
aVand
p154
aVwhen
p155
ag57
aVwooer
p156
aVappear
p157
ag59
aVshe
p158
aVsay
p159
aVthat
p160
aVwhosoever
p161
aVwish
p162
aVto
p163
aVhave
p164
aVher
p165
aVdaughter
p166
ag59
aVmust
p167
aVfirst
p168
aVperform
p169
ag57
aVtask
p170
ag59
aVor
p171
aVdie
p172
ag70
asg71
(lp173
g73
ag73
ag73
ag73
ag73
ag73
ag73
ag73
ag73
ag73
ag73
ag73
ag73
ag73
ag73
ag73
ag73
ag73
ag73
ag73
ag73
ag73
ag73
ag73
ag73
ag73
ag73
ag73
ag73
ag73
ag73
ag73
ag73
ag73
ag73
ag73
ag73
ag73
ag73
ag73
ag73
ag73
ag73
asg74
(lp174
g80
ag81
ag82
ag85
ag79
ag85
ag84
ag80
ag81
ag82
ag76
aS'WRB'
p175
aS'TO'
p176
aS'VB'
p177
ag82
ag176
ag82
ag85
ag86
ag175
ag80
ag82
ag84
ag85
aS'PRP'
p178
ag84
ag76
ag82
ag84
ag176
ag177
ag87
ag82
ag85
aS'MD'
p179
ag79
ag177
ag80
ag82
ag85
ag86
ag177
ag89
asg90
VThe old woman, however, had no other thought than how to lure mankind to destruction, and when a wooer appeared, she said that whosoever wished to have her daughter, must first perform a task, or die.
p180
sba(i__main__
Sentence
p181
(dp182
g17
I2
sg18
(lp183
S'Many'
p184
aS'had'
p185
aS'been'
p186
aS'dazzled'
p187
aS'by'
p188
aS'the'
p189
aS'daughter'
p190
aS"'s"
p191
aS'beauty'
p192
aS','
p193
aS'and'
p194
aS'had'
p195
aS'actually'
p196
aS'risked'
p197
aS'this'
p198
aS','
p199
aS'but'
p200
aS'they'
p201
aS'never'
p202
aS'could'
p203
aS'accomplish'
p204
aS'what'
p205
aS'the'
p206
aS'old'
p207
aS'woman'
p208
aS'enjoined'
p209
aS'them'
p210
aS'to'
p211
aS'do'
p212
aS','
p213
aS'and'
p214
aS'then'
p215
aS'no'
p216
aS'mercy'
p217
aS'was'
p218
aS'shown'
p219
aS','
p220
aS'they'
p221
aS'had'
p222
aS'to'
p223
aS'kneel'
p224
aS'down'
p225
aS','
p226
aS'and'
p227
aS'their'
p228
aS'heads'
p229
aS'were'
p230
aS'struck'
p231
aS'off'
p232
aS'.'
p233
asg45
(lp234
VMany
p235
ag143
aVbe
p236
aVdazzle
p237
aVby
p238
aVthe
p239
aVdaughter
p240
aV's
p241
aVbeauty
p242
ag59
aVand
p243
ag143
aVactually
p244
aVrisk
p245
aVthis
p246
ag59
aVbut
p247
aVthey
p248
aVnever
p249
aVcould
p250
aVaccomplish
p251
aVwhat
p252
aVthe
p253
aVold
p254
aVwoman
p255
aVenjoin
p256
aVthem
p257
aVto
p258
aVdo
p259
ag59
aVand
p260
aVthen
p261
aVno
p262
aVmercy
p263
ag56
aVshow
p264
ag59
aVthey
p265
ag143
aVto
p266
aVkneel
p267
aVdown
p268
ag59
aVand
p269
aVtheir
p270
aVhead
p271
aVbe
p272
aVstruck
p273
aVoff
p274
ag70
asg71
(lp275
g73
ag73
ag73
ag73
ag73
ag73
ag73
ag73
ag73
ag73
ag73
ag73
ag73
ag73
ag73
ag73
ag73
ag73
ag73
ag73
ag73
ag73
ag73
ag73
ag73
ag73
ag73
ag73
ag73
ag73
ag73
ag73
ag73
ag73
ag73
ag73
ag73
ag73
ag73
ag73
ag73
ag73
ag73
ag73
ag73
ag73
ag73
ag73
ag73
ag73
asg74
(lp276
g81
ag84
ag77
ag77
ag76
ag80
ag82
aS'POS'
p277
ag82
ag85
ag86
ag84
ag79
ag77
ag80
ag85
ag86
ag178
ag79
ag179
ag177
ag83
ag80
ag81
ag82
ag84
ag178
ag176
ag177
ag85
ag86
ag79
ag80
ag82
ag84
ag77
ag85
ag178
ag84
ag176
ag177
aS'RP'
p278
ag85
ag86
ag87
ag78
ag84
ag82
ag76
ag89
asg90
VMany had been dazzled by the daughter's beauty, and had actually risked this, but they never could accomplish what the old woman enjoined them to do, and then no mercy was shown, they had to kneel down, and their heads were struck off.
p279
sba(i__main__
Sentence
p280
(dp281
g17
I3
sg18
(lp282
S'A'
p283
aS'certain'
p284
aS'king'
p285
aS"'s"
p286
aS'son'
p287
aS'who'
p288
aS'had'
p289
aS'also'
p290
aS'heard'
p291
aS'of'
p292
aS'the'
p293
aS'maiden'
p294
aS"'s"
p295
aS'beauty'
p296
aS','
p297
aS'said'
p298
aS'to'
p299
aS'his'
p300
aS'father'
p301
aS','
p302
aS'``'
p303
aS'Let'
p304
aS'me'
p305
aS'go'
p306
aS'there'
p307
aS','
p308
aS'I'
p309
aS'want'
p310
aS'to'
p311
aS'demand'
p312
aS'her'
p313
aS'in'
p314
aS'marriage'
p315
aS'.'
p316
aS"''"
p317
asg45
(lp318
VA
p319
aVcertain
p320
aVking
p321
aV's
p322
aVson
p323
aVwho
p324
ag143
aValso
p325
aVhear
p326
aVof
p327
aVthe
p328
aVmaiden
p329
aV's
p330
aVbeauty
p331
ag59
ag159
aVto
p332
aVhis
p333
aVfather
p334
ag59
aV``
p335
aVLet
p336
aVme
p337
aVgo
p338
aVthere
p339
ag59
aVI
p340
aVwant
p341
aVto
p342
aVdemand
p343
aVher
p344
aVin
p345
aVmarriage
p346
ag70
aV''
p347
asg71
(lp348
g73
ag73
ag73
ag73
ag73
ag73
ag73
ag73
ag73
ag73
ag73
ag73
ag73
ag73
ag73
ag73
ag73
ag73
ag73
ag73
ag73
ag73
ag73
ag73
ag73
ag73
ag73
ag73
ag73
ag73
ag73
ag73
ag73
ag73
ag73
asg74
(lp349
g80
ag81
ag82
ag277
ag82
ag83
ag84
ag79
ag77
ag76
ag80
ag82
ag277
ag82
ag85
ag84
ag176
ag87
ag82
ag85
aS'``'
p350
aS'NNP'
p351
ag178
aS'VBP'
p352
ag79
ag85
ag178
ag352
ag176
ag82
ag87
ag76
ag82
ag89
aS"''"
p353
asg90
VA certain king's son who had also heard of the maiden's beauty, said to his father, "Let me go there, I want to demand her in marriage."
p354
sba(i__main__
Sentence
p355
(dp356
g17
I4
sg18
(lp357
S'``'
p358
aS'Never'
p359
aS','
p360
aS"''"
p361
aS'answered'
p362
aS'the'
p363
aS'king'
p364
aS','
p365
aS'``'
p366
aS'if'
p367
aS'you'
p368
aS'were'
p369
aS'to'
p370
aS'go'
p371
aS','
p372
aS'it'
p373
aS'would'
p374
aS'be'
p375
aS'going'
p376
aS'to'
p377
aS'your'
p378
aS'death'
p379
aS'.'
p380
aS"''"
p381
asg45
(lp382
V``
p383
aVNever
p384
ag59
aV''
p385
aVanswer
p386
aVthe
p387
aVking
p388
ag59
aV``
p389
aVif
p390
aVyou
p391
ag272
aVto
p392
aVgo
p393
ag59
aVit
p394
aVwould
p395
aVbe
p396
aVgo
p397
aVto
p398
aVyour
p399
aVdeath
p400
ag70
aV''
p401
asg71
(lp402
g73
ag73
ag73
ag73
ag73
ag73
ag73
ag73
ag73
ag73
ag73
ag73
ag73
ag73
ag73
ag73
ag73
ag73
ag73
ag73
ag73
ag73
ag73
ag73
asg74
(lp403
g350
ag79
ag85
ag353
ag84
ag80
ag82
ag85
ag350
ag76
ag178
ag84
ag176
ag177
ag85
ag178
ag179
ag177
aS'VBG'
p404
ag176
ag87
ag82
ag89
ag353
asg90
V"Never," answered the king, "if you were to go, it would be going to your death."
p405
sba(i__main__
Sentence
p406
(dp407
g17
I5
sg18
(lp408
S'On'
p409
aS'this'
p410
aS'the'
p411
aS'son'
p412
aS'lay'
p413
aS'down'
p414
aS'and'
p415
aS'was'
p416
aS'sick'
p417
aS'unto'
p418
aS'death'
p419
aS','
p420
aS'and'
p421
aS'for'
p422
aS'seven'
p423
aS'years'
p424
aS'he'
p425
aS'lay'
p426
aS'there'
p427
aS','
p428
aS'and'
p429
aS'no'
p430
aS'physician'
p431
aS'could'
p432
aS'heal'
p433
aS'him'
p434
aS'.'
p435
asg45
(lp436
VOn
p437
aVthis
p438
aVthe
p439
aVson
p440
aVlay
p441
aVdown
p442
aVand
p443
ag56
aVsick
p444
aVunto
p445
aVdeath
p446
ag59
aVand
p447
aVfor
p448
aVseven
p449
aVyear
p450
aVhe
p451
aVlay
p452
aVthere
p453
ag59
aVand
p454
aVno
p455
aVphysician
p456
aVcould
p457
aVheal
p458
aVhim
p459
ag70
asg71
(lp460
g73
ag73
ag73
ag73
ag73
ag73
ag73
ag73
ag73
ag73
ag73
ag73
ag73
ag73
ag73
ag73
ag73
ag73
ag73
ag73
ag73
ag73
ag73
ag73
ag73
ag73
ag73
asg74
(lp461
g76
ag80
ag80
ag82
ag82
ag76
ag86
ag84
ag81
ag82
ag82
ag85
ag86
ag76
aS'CD'
p462
ag78
ag178
ag84
ag79
ag85
ag86
ag80
ag82
ag179
ag177
ag178
ag89
asg90
VOn this the son lay down and was sick unto death, and for seven years he lay there, and no physician could heal him.
p463
sba(i__main__
Sentence
p464
(dp465
g17
I6
sg18
(lp466
S'When'
p467
aS'the'
p468
aS'father'
p469
aS'perceived'
p470
aS'that'
p471
aS'all'
p472
aS'hope'
p473
aS'was'
p474
aS'over'
p475
aS','
p476
aS'with'
p477
aS'a'
p478
aS'heavy'
p479
aS'heart'
p480
aS'he'
p481
aS'said'
p482
aS'to'
p483
aS'him'
p484
aS','
p485
aS'``'
p486
aS'Go'
p487
aS'thither'
p488
aS','
p489
aS'and'
p490
aS'try'
p491
aS'your'
p492
aS'luck'
p493
aS','
p494
aS'for'
p495
aS'I'
p496
aS'know'
p497
aS'no'
p498
aS'other'
p499
aS'means'
p500
aS'of'
p501
aS'curing'
p502
aS'you'
p503
aS'.'
p504
aS"''"
p505
asg45
(lp506
VWhen
p507
aVthe
p508
aVfather
p509
aVperceive
p510
aVthat
p511
aVall
p512
aVhope
p513
ag56
aVover
p514
ag59
aVwith
p515
ag57
aVheavy
p516
aVheart
p517
aVhe
p518
ag159
aVto
p519
aVhim
p520
ag59
aV``
p521
aVGo
p522
aVthither
p523
ag59
aVand
p524
aVtry
p525
aVyour
p526
aVluck
p527
ag59
aVfor
p528
ag340
aVknow
p529
aVno
p530
aVother
p531
aVmean
p532
aVof
p533
aVcure
p534
aVyou
p535
ag70
aV''
p536
asg71
(lp537
g73
ag73
ag73
ag73
ag73
ag73
ag73
ag73
ag73
ag73
ag73
ag73
ag73
ag73
ag73
ag73
ag73
ag73
ag73
ag73
ag73
ag73
ag73
ag73
ag73
ag73
ag73
ag73
ag73
ag73
ag73
ag73
ag73
ag73
ag73
ag73
ag73
ag73
ag73
asg74
(lp538
g175
ag80
ag82
ag84
ag76
ag80
ag82
ag84
ag76
ag85
ag76
ag80
ag81
ag82
ag178
ag84
ag176
ag178
ag85
ag350
ag351
ag79
ag85
ag86
ag82
ag87
ag82
ag85
ag76
ag178
ag352
ag80
ag81
ag78
ag76
ag404
ag178
ag89
ag353
asg90
VWhen the father perceived that all hope was over, with a heavy heart he said to him, "Go thither, and try your luck, for I know no other means of curing you."
p539
sba(i__main__
Sentence
p540
(dp541
g17
I7
sg18
(lp542
S'When'
p543
aS'the'
p544
aS'son'
p545
aS'heard'
p546
aS'that'
p547
aS','
p548
aS'he'
p549
aS'rose'
p550
aS'from'
p551
aS'his'
p552
aS'bed'
p553
aS'and'
p554
aS'was'
p555
aS'well'
p556
aS'again'
p557
aS','
p558
aS'and'
p559
aS'joyfully'
p560
aS'set'
p561
aS'out'
p562
aS'on'
p563
aS'his'
p564
aS'way'
p565
aS'.'
p566
asg45
(lp567
VWhen
p568
aVthe
p569
aVson
p570
aVheard
p571
aVthat
p572
ag59
aVhe
p573
aVrise
p574
aVfrom
p575
aVhis
p576
aVbed
p577
aVand
p578
ag56
aVwell
p579
aVagain
p580
ag59
aVand
p581
aVjoyfully
p582
aVset
p583
aVout
p584
aVon
p585
aVhis
p586
aVway
p587
ag70
asg71
(lp588
g73
ag73
ag73
ag73
ag73
ag73
ag73
ag73
ag73
ag73
ag73
ag73
ag73
ag73
ag73
ag73
ag73
ag73
ag73
ag73
ag73
ag73
ag73
ag73
asg74
(lp589
g175
ag80
ag82
ag82
aS'WDT'
p590
ag85
ag178
ag84
ag76
ag87
ag77
ag86
ag84
ag79
ag79
ag85
ag86
ag79
ag77
ag278
ag76
ag87
ag82
ag89
asg90
VWhen the son heard that, he rose from his bed and was well again, and joyfully set out on his way.
p591
sba(i__main__
Sentence
p592
(dp593
g17
I8
sg18
(lp594
S'And'
p595
aS'it'
p596
aS'came'
p597
aS'to'
p598
aS'pass'
p599
aS'that'
p600
aS'as'
p601
aS'he'
p602
aS'was'
p603
aS'riding'
p604
aS'across'
p605
aS'a'
p606
aS'heath'
p607
aS','
p608
aS'he'
p609
aS'saw'
p610
aS'from'
p611
aS'afar'
p612
aS'something'
p613
aS'like'
p614
aS'a'
p615
aS'great'
p616
aS'heap'
p617
aS'of'
p618
aS'hay'
p619
aS'laying'
p620
aS'on'
p621
aS'the'
p622
aS'ground'
p623
aS','
p624
aS'and'
p625
aS'when'
p626
aS'he'
p627
aS'drew'
p628
aS'nearer'
p629
aS','
p630
aS'he'
p631
aS'could'
p632
aS'see'
p633
aS'that'
p634
aS'it'
p635
aS'was'
p636
aS'the'
p637
aS'stomach'
p638
aS'of'
p639
aS'a'
p640
aS'man'
p641
aS','
p642
aS'who'
p643
aS'had'
p644
aS'laid'
p645
aS'himself'
p646
aS'down'
p647
aS'there'
p648
aS','
p649
aS'but'
p650
aS'the'
p651
aS'stomach'
p652
aS'looked'
p653
aS'like'
p654
aS'a'
p655
aS'small'
p656
aS'mountain'
p657
aS'.'
p658
asg45
(lp659
VAnd
p660
aVit
p661
aVcome
p662
aVto
p663
aVpass
p664
aVthat
p665
ag57
aVhe
p666
ag56
aVrid
p667
aVacross
p668
ag57
aVheath
p669
ag59
aVhe
p670
aVsaw
p671
aVfrom
p672
aVafar
p673
aVsomething
p674
aVlike
p675
ag57
aVgreat
p676
aVheap
p677
aVof
p678
aVhay
p679
aVlay
p680
aVon
p681
aVthe
p682
aVground
p683
ag59
aVand
p684
aVwhen
p685
aVhe
p686
aVdraw
p687
aVnearer
p688
ag59
aVhe
p689
aVcould
p690
aVsee
p691
aVthat
p692
aVit
p693
ag56
aVthe
p694
aVstomach
p695
aVof
p696
ag57
aVman
p697
ag59
aVwho
p698
ag143
aVlay
p699
aVhimself
p700
aVdown
p701
aVthere
p702
ag59
aVbut
p703
aVthe
p704
aVstomach
p705
aVlook
p706
aVlike
p707
ag57
aVsmall
p708
aVmountain
p709
ag70
asg71
(lp710
g73
ag73
ag73
ag73
ag73
ag73
ag73
ag73
ag73
ag73
ag73
ag73
ag73
ag73
ag73
ag73
ag73
ag73
ag73
ag73
ag73
ag73
ag73
ag73
ag73
ag73
ag73
ag73
ag73
ag73
ag73
ag73
ag73
ag73
ag73
ag73
ag73
ag73
ag73
ag73
ag73
ag73
ag73
ag73
ag73
ag73
ag73
ag73
ag73
ag73
ag73
ag73
ag73
ag73
ag73
ag73
ag73
ag73
ag73
ag73
ag73
ag73
ag73
ag73
asg74
(lp711
g86
ag178
ag84
ag176
ag177
ag76
ag76
ag178
ag84
ag404
ag76
ag80
ag82
ag85
ag178
ag84
ag76
ag82
ag82
ag76
ag80
ag81
ag82
ag76
ag82
ag404
ag76
ag80
ag82
ag85
ag86
ag175
ag178
ag84
ag82
ag85
ag178
ag179
ag177
ag76
ag178
ag84
ag80
ag82
ag76
ag80
ag82
ag85
ag83
ag84
ag77
ag178
ag76
aS'EX'
p712
ag85
ag86
ag80
ag82
ag84
ag76
ag80
ag81
ag82
ag89
asg90
VAnd it came to pass that as he was riding across a heath, he saw from afar something like a great heap of hay laying on the ground, and when he drew nearer, he could see that it was the stomach of a man, who had laid himself down there, but the stomach looked like a small mountain.
p713
sba(i__main__
Sentence
p714
(dp715
g17
I9
sg18
(lp716
S'When'
p717
aS'the'
p718
aS'fat'
p719
aS'man'
p720
aS'saw'
p721
aS'the'
p722
aS'traveler'
p723
aS','
p724
aS'he'
p725
aS'stood'
p726
aS'up'
p727
aS'and'
p728
aS'said'
p729
aS','
p730
aS'``'
p731
aS'If'
p732
aS'you'
p733
aS'are'
p734
aS'in'
p735
aS'need'
p736
aS'of'
p737
aS'any'
p738
aS'one'
p739
aS','
p740
aS'take'
p741
aS'me'
p742
aS'into'
p743
aS'your'
p744
aS'service'
p745
aS'.'
p746
aS"''"
p747
asg45
(lp748
VWhen
p749
aVthe
p750
aVfat
p751
aVman
p752
aVsaw
p753
aVthe
p754
aVtraveler
p755
ag59
aVhe
p756
aVstand
p757
aVup
p758
aVand
p759
ag159
ag59
aV``
p760
aVIf
p761
aVyou
p762
aVbe
p763
aVin
p764
aVneed
p765
aVof
p766
aVany
p767
aVone
p768
ag59
aVtake
p769
aVme
p770
aVinto
p771
aVyour
p772
aVservice
p773
ag70
aV''
p774
asg71
(lp775
g73
ag73
ag73
ag73
ag73
ag73
ag73
ag73
ag73
ag73
ag73
ag73
ag73
ag73
ag73
ag73
ag73
ag73
ag73
ag73
ag73
ag73
ag73
ag73
ag73
ag73
ag73
ag73
ag73
ag73
ag73
asg74
(lp776
g175
ag80
ag81
ag82
ag84
ag80
ag82
ag85
ag178
ag84
ag278
ag86
ag84
ag85
ag350
ag76
ag178
ag352
ag76
ag82
ag76
ag80
ag462
ag85
ag177
ag178
ag76
ag87
ag82
ag89
ag353
asg90
VWhen the fat man saw the traveler, he stood up and said, "If you are in need of any one, take me into your service."
p777
sba(i__main__
Sentence
p778
(dp779
g17
I10
sg18
(lp780
S'The'
p781
aS'prince'
p782
aS'answered'
p783
aS','
p784
aS'``'
p785
aS'What'
p786
aS'can'
p787
aS'I'
p788
aS'do'
p789
aS'with'
p790
aS'such'
p791
aS'a'
p792
aS'clumsy'
p793
aS'man'
p794
aS'?'
p795
aS"''"
p796
asg45
(lp797
VThe
p798
aVprince
p799
aVanswer
p800
ag59
aV``
p801
aVWhat
p802
aVcan
p803
ag340
aVdo
p804
aVwith
p805
aVsuch
p806
ag57
aVclumsy
p807
aVman
p808
aV?
p809
aV''
p810
asg71
(lp811
g73
ag73
ag73
ag73
ag73
ag73
ag73
ag73
ag73
ag73
ag73
ag73
ag73
ag73
ag73
ag73
asg74
(lp812
g80
ag82
ag84
ag85
ag350
ag83
ag179
ag178
ag352
ag76
ag81
ag80
ag82
ag82
ag89
ag353
asg90
VThe prince answered, "What can I do with such a clumsy man?"
p813
sba(i__main__
Sentence
p814
(dp815
g17
I11
sg18
(lp816
S'``'
p817
aS'Oh'
p818
aS','
p819
aS"''"
p820
aS'said'
p821
aS'the'
p822
aS'stout'
p823
aS'one'
p824
aS','
p825
aS'``'
p826
aS'this'
p827
aS'is'
p828
aS'nothing'
p829
aS','
p830
aS'when'
p831
aS'I'
p832
aS'really'
p833
aS'puff'
p834
aS'myself'
p835
aS'up'
p836
aS','
p837
aS'I'
p838
aS'am'
p839
aS'three'
p840
aS'thousand'
p841
aS'times'
p842
aS'fatter'
p843
aS'.'
p844
aS"''"
p845
asg45
(lp846
V``
p847
aVOh
p848
ag59
aV''
p849
ag159
aVthe
p850
aVstout
p851
aVone
p852
ag59
aV``
p853
aVthis
p854
aVbe
p855
aVnothing
p856
ag59
aVwhen
p857
ag340
aVreally
p858
aVpuff
p859
aVmyself
p860
aVup
p861
ag59
ag340
aVbe
p862
aVthree
p863
aVthousand
p864
aVtime
p865
aVfatter
p866
ag70
aV''
p867
asg71
(lp868
g73
ag73
ag73
ag73
ag73
ag73
ag73
ag73
ag73
ag73
ag73
ag73
ag73
ag73
ag73
ag73
ag73
ag73
ag73
ag73
ag73
ag73
ag73
ag73
ag73
ag73
ag73
ag73
ag73
asg74
(lp869
g350
aS'UH'
p870
ag85
ag353
ag84
ag80
ag82
ag462
ag85
ag350
ag80
aS'VBZ'
p871
ag82
ag85
ag175
ag178
ag79
ag81
ag82
ag76
ag85
ag178
ag352
ag462
ag82
ag78
ag82
ag89
ag353
asg90
V"Oh," said the stout one, "this is nothing, when I really puff myself up, I am three thousand times fatter."
p872
sba(i__main__
Sentence
p873
(dp874
g17
I12
sg18
(lp875
S'``'
p876
aS'If'
p877
aS'that'
p878
aS"'s"
p879
aS'the'
p880
aS'case'
p881
aS','
p882
aS"''"
p883
aS'said'
p884
aS'the'
p885
aS'prince'
p886
aS','
p887
aS'``'
p888
aS'I'
p889
aS'can'
p890
aS'make'
p891
aS'use'
p892
aS'of'
p893
aS'you'
p894
aS','
p895
aS'come'
p896
aS'with'
p897
aS'me'
p898
aS'.'
p899
aS"''"
p900
asg45
(lp901
V``
p902
aVIf
p903
aVthat
p904
aV's
p905
aVthe
p906
aVcase
p907
ag59
aV''
p908
ag159
aVthe
p909
aVprince
p910
ag59
aV``
p911
ag340
aVcan
p912
aVmake
p913
aVuse
p914
aVof
p915
aVyou
p916
ag59
aVcome
p917
aVwith
p918
aVme
p919
ag70
aV''
p920
asg71
(lp921
g73
ag73
ag73
ag73
ag73
ag73
ag73
ag73
ag73
ag73
ag73
ag73
ag73
ag73
ag73
ag73
ag73
ag73
ag73
ag73
ag73
ag73
ag73
ag73
ag73
asg74
(lp922
g350
ag76
ag80
ag871
ag80
ag82
ag85
ag353
ag84
ag80
ag82
ag85
ag350
ag178
ag179
ag177
ag82
ag76
ag178
ag85
ag352
ag76
ag178
ag89
ag353
asg90
V"If that's the case," said the prince, "I can make use of you, come with me."
p923
sba(i__main__
Sentence
p924
(dp925
g17
I13
sg18
(lp926
S'So'
p927
aS'the'
p928
aS'stout'
p929
aS'one'
p930
aS'followed'
p931
aS'the'
p932
aS'prince'
p933
aS','
p934
aS'and'
p935
aS'after'
p936
aS'a'
p937
aS'while'
p938
aS'they'
p939
aS'found'
p940
aS'another'
p941
aS'man'
p942
aS'who'
p943
aS'was'
p944
aS'lying'
p945
aS'on'
p946
aS'the'
p947
aS'ground'
p948
aS'with'
p949
aS'his'
p950
aS'ear'
p951
aS'laid'
p952
aS'to'
p953
aS'the'
p954
aS'turf'
p955
aS'.'
p956
asg45
(lp957
VSo
p958
aVthe
p959
aVstout
p960
aVone
p961
aVfollow
p962
aVthe
p963
aVprince
p964
ag59
aVand
p965
aVafter
p966
ag57
aVwhile
p967
aVthey
p968
aVfind
p969
aVanother
p970
aVman
p971
aVwho
p972
ag56
aVlie
p973
aVon
p974
aVthe
p975
aVground
p976
aVwith
p977
aVhis
p978
aVear
p979
aVlaid
p980
aVto
p981
aVthe
p982
aVturf
p983
ag70
asg71
(lp984
g73
ag73
ag73
ag73
ag73
ag73
ag73
ag73
ag73
ag73
ag73
ag73
ag73
ag73
ag73
ag73
ag73
ag73
ag73
ag73
ag73
ag73
ag73
ag73
ag73
ag73
ag73
ag73
ag73
ag73
asg74
(lp985
g76
ag80
ag82
ag462
ag77
ag80
ag82
ag85
ag86
ag76
ag80
ag82
ag178
ag84
ag80
ag82
ag83
ag84
ag404
ag76
ag80
ag82
ag76
ag87
ag81
ag82
ag176
ag80
ag82
ag89
asg90
VSo the stout one followed the prince, and after a while they found another man who was lying on the ground with his ear laid to the turf.
p986
sba(i__main__
Sentence
p987
(dp988
g17
I14
sg18
(lp989
S'``'
p990
aS'What'
p991
aS'are'
p992
aS'you'
p993
aS'doing'
p994
aS'there'
p995
aS'?'
p996
aS"''"
p997
asg45
(lp998
V``
p999
aVWhat
p1000
ag763
aVyou
p1001
aVdo
p1002
aVthere
p1003
ag809
aV''
p1004
asg71
(lp1005
g73
ag73
ag73
ag73
ag73
ag73
ag73
ag73
asg74
(lp1006
g350
ag83
ag352
ag178
ag404
ag79
ag89
ag353
asg90
V"What are you doing there?"
p1007
sba(i__main__
Sentence
p1008
(dp1009
g17
I15
sg18
(lp1010
S'asked'
p1011
aS'the'
p1012
aS'king'
p1013
aS"'s"
p1014
aS'son'
p1015
aS'.'
p1016
asg45
(lp1017
Vask
p1018
aVthe
p1019
aVking
p1020
aV's
p1021
aVson
p1022
ag70
asg71
(lp1023
g73
ag73
ag73
ag73
ag73
ag73
asg74
(lp1024
g84
ag80
ag82
ag277
ag82
ag89
asg90
Vasked the king's son.
p1025
sba(i__main__
Sentence
p1026
(dp1027
g17
I16
sg18
(lp1028
S'``'
p1029
aS'I'
p1030
aS'am'
p1031
aS'listening'
p1032
aS','
p1033
aS"''"
p1034
aS'replied'
p1035
aS'the'
p1036
aS'man'
p1037
aS'.'
p1038
asg45
(lp1039
V``
p1040
ag340
ag862
aVlisten
p1041
ag59
aV''
p1042
aVreply
p1043
aVthe
p1044
aVman
p1045
ag70
asg71
(lp1046
g73
ag73
ag73
ag73
ag73
ag73
ag73
ag73
ag73
ag73
asg74
(lp1047
g350
ag178
ag352
ag404
ag85
ag353
ag84
ag80
ag82
ag89
asg90
V"I am listening," replied the man.
p1048
sba(i__main__
Sentence
p1049
(dp1050
g17
I17
sg18
(lp1051
S'``'
p1052
aS'What'
p1053
aS'are'
p1054
aS'you'
p1055
aS'listening'
p1056
aS'to'
p1057
aS'so'
p1058
aS'attentively'
p1059
aS'?'
p1060
aS"''"
p1061
asg45
(lp1062
V``
p1063
aVWhat
p1064
ag763
aVyou
p1065
aVlisten
p1066
aVto
p1067
aVso
p1068
aVattentively
p1069
ag809
aV''
p1070
asg71
(lp1071
g73
ag73
ag73
ag73
ag73
ag73
ag73
ag73
ag73
ag73
asg74
(lp1072
g350
ag83
ag352
ag178
ag404
ag176
ag79
ag79
ag89
ag353
asg90
V"What are you listening to so attentively?"
p1073
sba(i__main__
Sentence
p1074
(dp1075
g17
I18
sg18
(lp1076
S'``'
p1077
aS'I'
p1078
aS'am'
p1079
aS'listening'
p1080
aS'to'
p1081
aS'what'
p1082
aS'is'
p1083
aS'just'
p1084
aS'going'
p1085
aS'on'
p1086
aS'in'
p1087
aS'the'
p1088
aS'world'
p1089
aS','
p1090
aS'for'
p1091
aS'nothing'
p1092
aS'escapes'
p1093
aS'my'
p1094
aS'ears'
p1095
aS','
p1096
aS'I'
p1097
aS'even'
p1098
aS'hear'
p1099
aS'the'
p1100
aS'grass'
p1101
aS'growing'
p1102
aS'.'
p1103
aS"''"
p1104
asg45
(lp1105
V``
p1106
ag340
ag862
aVlisten
p1107
aVto
p1108
aVwhat
p1109
ag855
aVjust
p1110
aVgo
p1111
aVon
p1112
aVin
p1113
aVthe
p1114
aVworld
p1115
ag59
aVfor
p1116
aVnothing
p1117
aVescape
p1118
aVmy
p1119
aVear
p1120
ag59
ag340
aVeven
p1121
aVhear
p1122
aVthe
p1123
aVgrass
p1124
aVgrow
p1125
ag70
aV''
p1126
asg71
(lp1127
g73
ag73
ag73
ag73
ag73
ag73
ag73
ag73
ag73
ag73
ag73
ag73
ag73
ag73
ag73
ag73
ag73
ag73
ag73
ag73
ag73
ag73
ag73
ag73
ag73
ag73
ag73
ag73
asg74
(lp1128
g350
ag178
ag352
ag404
ag176
ag83
ag871
ag79
ag404
ag76
ag76
ag80
ag82
ag85
ag76
ag82
ag78
ag87
ag78
ag85
ag178
ag79
ag81
ag80
ag82
ag404
ag89
ag353
asg90
V"I am listening to what is just going on in the world, for nothing escapes my ears, I even hear the grass growing."
p1129
sba(i__main__
Sentence
p1130
(dp1131
g17
I19
sg18
(lp1132
S'``'
p1133
aS'Tell'
p1134
aS'me'
p1135
aS','
p1136
aS"''"
p1137
aS'said'
p1138
aS'the'
p1139
aS'prince'
p1140
aS','
p1141
aS'``'
p1142
aS'what'
p1143
aS'you'
p1144
aS'hear'
p1145
aS'at'
p1146
aS'the'
p1147
aS'court'
p1148
aS'of'
p1149
aS'the'
p1150
aS'old'
p1151
aS'queen'
p1152
aS'who'
p1153
aS'has'
p1154
aS'the'
p1155
aS'beautiful'
p1156
aS'daughter'
p1157
aS'.'
p1158
aS"''"
p1159
asg45
(lp1160
V``
p1161
aVTell
p1162
aVme
p1163
ag59
aV''
p1164
ag159
aVthe
p1165
aVprince
p1166
ag59
aV``
p1167
aVwhat
p1168
aVyou
p1169
aVhear
p1170
aVat
p1171
aVthe
p1172
aVcourt
p1173
aVof
p1174
aVthe
p1175
aVold
p1176
aVqueen
p1177
aVwho
p1178
aVhave
p1179
aVthe
p1180
aVbeautiful
p1181
aVdaughter
p1182
ag70
aV''
p1183
asg71
(lp1184
g73
ag73
ag73
ag73
ag73
ag73
ag73
ag73
ag73
ag73
ag73
ag73
ag73
ag73
ag73
ag73
ag73
ag73
ag73
ag73
ag73
ag73
ag73
ag73
ag73
ag73
ag73
asg74
(lp1185
g350
ag351
ag178
ag85
ag353
ag84
ag80
ag82
ag85
ag350
ag83
ag178
ag352
ag76
ag80
ag82
ag76
ag80
ag81
ag82
ag83
ag871
ag80
ag81
ag82
ag89
ag353
asg90
V"Tell me," said the prince, "what you hear at the court of the old queen who has the beautiful daughter."
p1186
sba(i__main__
Sentence
p1187
(dp1188
g17
I20
sg18
(lp1189
S'Then'
p1190
aS'he'
p1191
aS'answered'
p1192
aS','
p1193
aS'``'
p1194
aS'I'
p1195
aS'hear'
p1196
aS'the'
p1197
aS'whizzing'
p1198
aS'of'
p1199
aS'the'
p1200
aS'sword'
p1201
aS'that'
p1202
aS'is'
p1203
aS'striking'
p1204
aS'off'
p1205
aS'a'
p1206
aS'wooer'
p1207
aS"'s"
p1208
aS'head'
p1209
aS'.'
p1210
aS"''"
p1211
asg45
(lp1212
VThen
p1213
aVhe
p1214
aVanswer
p1215
ag59
aV``
p1216
ag340
aVhear
p1217
aVthe
p1218
aVwhizzing
p1219
aVof
p1220
aVthe
p1221
aVsword
p1222
aVthat
p1223
ag855
aVstrike
p1224
aVoff
p1225
ag57
aVwooer
p1226
aV's
p1227
aVhead
p1228
ag70
aV''
p1229
asg71
(lp1230
g73
ag73
ag73
ag73
ag73
ag73
ag73
ag73
ag73
ag73
ag73
ag73
ag73
ag73
ag73
ag73
ag73
ag73
ag73
ag73
ag73
ag73
asg74
(lp1231
g79
ag178
ag84
ag85
ag350
ag178
ag352
ag80
ag82
ag76
ag80
ag82
ag76
ag871
ag404
ag278
ag80
ag82
ag277
ag82
ag89
ag353
asg90
VThen he answered, "I hear the whizzing of the sword that is striking off a wooer's head."
p1232
sba(i__main__
Sentence
p1233
(dp1234
g17
I21
sg18
(lp1235
S'The'
p1236
aS'king'
p1237
aS"'s"
p1238
aS'son'
p1239
aS'said'
p1240
aS','
p1241
aS'``'
p1242
aS'I'
p1243
aS'can'
p1244
aS'make'
p1245
aS'use'
p1246
aS'of'
p1247
aS'you'
p1248
aS','
p1249
aS'come'
p1250
aS'with'
p1251
aS'me'
p1252
aS'.'
p1253
aS"''"
p1254
asg45
(lp1255
VThe
p1256
aVking
p1257
aV's
p1258
aVson
p1259
ag159
ag59
aV``
p1260
ag340
aVcan
p1261
aVmake
p1262
aVuse
p1263
aVof
p1264
aVyou
p1265
ag59
aVcome
p1266
aVwith
p1267
aVme
p1268
ag70
aV''
p1269
asg71
(lp1270
g73
ag73
ag73
ag73
ag73
ag73
ag73
ag73
ag73
ag73
ag73
ag73
ag73
ag73
ag73
ag73
ag73
ag73
ag73
asg74
(lp1271
g80
ag82
ag277
ag82
ag84
ag85
ag350
ag178
ag179
ag177
ag82
ag76
ag178
ag85
ag352
ag76
ag178
ag89
ag353
asg90
VThe king's son said, "I can make use of you, come with me."
p1272
sba(i__main__
Sentence
p1273
(dp1274
g17
I22
sg18
(lp1275
S'They'
p1276
aS'went'
p1277
aS'onwards'
p1278
aS','
p1279
aS'and'
p1280
aS'then'
p1281
aS'saw'
p1282
aS'a'
p1283
aS'pair'
p1284
aS'of'
p1285
aS'feet'
p1286
aS'lying'
p1287
aS'and'
p1288
aS'part'
p1289
aS'of'
p1290
aS'a'
p1291
aS'pair'
p1292
aS'of'
p1293
aS'legs'
p1294
aS','
p1295
aS'but'
p1296
aS'could'
p1297
aS'not'
p1298
aS'see'
p1299
aS'the'
p1300
aS'rest'
p1301
aS'of'
p1302
aS'the'
p1303
aS'body'
p1304
aS'.'
p1305
asg45
(lp1306
VThey
p1307
aVgo
p1308
aVonwards
p1309
ag59
aVand
p1310
aVthen
p1311
aVsaw
p1312
ag57
aVpair
p1313
aVof
p1314
aVfoot
p1315
ag973
aVand
p1316
aVpart
p1317
aVof
p1318
ag57
aVpair
p1319
aVof
p1320
aVleg
p1321
ag59
aVbut
p1322
aVcould
p1323
aVnot
p1324
aVsee
p1325
aVthe
p1326
aVrest
p1327
aVof
p1328
aVthe
p1329
aVbody
p1330
ag70
asg71
(lp1331
g73
ag73
ag73
ag73
ag73
ag73
ag73
ag73
ag73
ag73
ag73
ag73
ag73
ag73
ag73
ag73
ag73
ag73
ag73
ag73
ag73
ag73
ag73
ag73
ag73
ag73
ag73
ag73
ag73
ag73
asg74
(lp1332
g178
ag84
ag78
ag85
ag86
ag79
ag84
ag80
ag82
ag76
ag82
ag404
ag86
ag82
ag76
ag80
ag82
ag76
ag78
ag85
ag86
ag179
ag79
ag177
ag80
ag82
ag76
ag80
ag82
ag89
asg90
VThey went onwards, and then saw a pair of feet lying and part of a pair of legs, but could not see the rest of the body.
p1333
sba(i__main__
Sentence
p1334
(dp1335
g17
I23
sg18
(lp1336
S'When'
p1337
aS'they'
p1338
aS'had'
p1339
aS'walked'
p1340
aS'on'
p1341
aS'for'
p1342
aS'a'
p1343
aS'great'
p1344
aS'distance'
p1345
aS','
p1346
aS'they'
p1347
aS'came'
p1348
aS'to'
p1349
aS'the'
p1350
aS'body'
p1351
aS','
p1352
aS'and'
p1353
aS'at'
p1354
aS'last'
p1355
aS'to'
p1356
aS'the'
p1357
aS'head'
p1358
aS'also'
p1359
aS'.'
p1360
asg45
(lp1361
VWhen
p1362
aVthey
p1363
ag143
aVwalk
p1364
aVon
p1365
aVfor
p1366
ag57
aVgreat
p1367
aVdistance
p1368
ag59
aVthey
p1369
ag662
aVto
p1370
aVthe
p1371
aVbody
p1372
ag59
aVand
p1373
aVat
p1374
aVlast
p1375
aVto
p1376
aVthe
p1377
aVhead
p1378
aValso
p1379
ag70
asg71
(lp1380
g73
ag73
ag73
ag73
ag73
ag73
ag73
ag73
ag73
ag73
ag73
ag73
ag73
ag73
ag73
ag73
ag73
ag73
ag73
ag73
ag73
ag73
ag73
ag73
asg74
(lp1381
g175
ag178
ag84
ag77
ag76
ag76
ag80
ag81
ag82
ag85
ag178
ag84
ag176
ag80
ag82
ag85
ag86
ag76
ag81
ag176
ag80
ag82
ag79
ag89
asg90
VWhen they had walked on for a great distance, they came to the body, and at last to the head also.
p1382
sba(i__main__
Sentence
p1383
(dp1384
g17
I24
sg18
(lp1385
S'``'
p1386
aS'Why'
p1387
aS','
p1388
aS"''"
p1389
aS'said'
p1390
aS'the'
p1391
aS'prince'
p1392
aS','
p1393
aS'``'
p1394
aS'what'
p1395
aS'a'
p1396
aS'tall'
p1397
aS'rascal'
p1398
aS'you'
p1399
aS'are'
p1400
aS'.'
p1401
aS"''"
p1402
asg45
(lp1403
V``
p1404
aVWhy
p1405
ag59
aV''
p1406
ag159
aVthe
p1407
aVprince
p1408
ag59
aV``
p1409
aVwhat
p1410
ag57
aVtall
p1411
aVrascal
p1412
aVyou
p1413
ag763
ag70
aV''
p1414
asg71
(lp1415
g73
ag73
ag73
ag73
ag73
ag73
ag73
ag73
ag73
ag73
ag73
ag73
ag73
ag73
ag73
ag73
ag73
asg74
(lp1416
g350
ag175
ag85
ag353
ag84
ag80
ag82
ag85
ag350
ag83
ag80
ag81
ag81
ag178
ag352
ag89
ag353
asg90
V"Why," said the prince, "what a tall rascal you are."
p1417
sba(i__main__
Sentence
p1418
(dp1419
g17
I25
sg18
(lp1420
S'``'
p1421
aS'Oh'
p1422
aS','
p1423
aS"''"
p1424
aS'replied'
p1425
aS'the'
p1426
aS'tall'
p1427
aS'one'
p1428
aS','
p1429
aS'``'
p1430
aS'that'
p1431
aS'is'
p1432
aS'nothing'
p1433
aS'at'
p1434
aS'all'
p1435
aS'yet'
p1436
aS','
p1437
aS'when'
p1438
aS'I'
p1439
aS'really'
p1440
aS'stretch'
p1441
aS'out'
p1442
aS'my'
p1443
aS'limbs'
p1444
aS','
p1445
aS'I'
p1446
aS'am'
p1447
aS'three'
p1448
aS'thousand'
p1449
aS'times'
p1450
aS'as'
p1451
aS'tall'
p1452
aS','
p1453
aS'and'
p1454
aS'taller'
p1455
aS'than'
p1456
aS'the'
p1457
aS'highest'
p1458
aS'mountain'
p1459
aS'on'
p1460
aS'earth'
p1461
aS'.'
p1462
asg45
(lp1463
V``
p1464
aVOh
p1465
ag59
aV''
p1466
ag1043
aVthe
p1467
aVtall
p1468
aVone
p1469
ag59
aV``
p1470
aVthat
p1471
ag855
aVnothing
p1472
aVat
p1473
aVall
p1474
aVyet
p1475
ag59
aVwhen
p1476
ag340
aVreally
p1477
aVstretch
p1478
aVout
p1479
aVmy
p1480
aVlimb
p1481
ag59
ag340
ag862
aVthree
p1482
aVthousand
p1483
aVtime
p1484
aVas
p1485
aVtall
p1486
ag59
aVand
p1487
aVtaller
p1488
aVthan
p1489
aVthe
p1490
aVhigh
p1491
aVmountain
p1492
aVon
p1493
aVearth
p1494
ag70
asg71
(lp1495
g73
ag73
ag73
ag73
ag73
ag73
ag73
ag73
ag73
ag73
ag73
ag73
ag73
ag73
ag73
ag73
ag73
ag73
ag73
ag73
ag73
ag73
ag73
ag73
ag73
ag73
ag73
ag73
ag73
ag73
ag73
ag73
ag73
ag73
ag73
ag73
ag73
ag73
ag73
ag73
ag73
ag73
asg74
(lp1496
g350
ag870
ag85
ag353
ag84
ag80
ag81
ag462
ag85
ag350
ag76
ag871
ag82
ag76
ag80
ag79
ag85
ag175
ag178
ag79
ag352
ag278
ag87
ag78
ag85
ag178
ag352
ag462
ag82
ag78
ag79
ag81
ag85
ag86
ag82
ag76
ag80
ag88
ag82
ag76
ag81
ag89
asg90
V"Oh," replied the tall one, "that is nothing at all yet, when I really stretch out my limbs, I am three thousand times as tall, and taller than the highest mountain on earth.
p1497
sba(i__main__
Sentence
p1498
(dp1499
g17
I26
sg18
(lp1500
S'I'
p1501
aS'will'
p1502
aS'gladly'
p1503
aS'enter'
p1504
aS'your'
p1505
aS'service'
p1506
aS','
p1507
aS'if'
p1508
aS'you'
p1509
aS'will'
p1510
aS'take'
p1511
aS'me'
p1512
aS'.'
p1513
aS"''"
p1514
asg45
(lp1515
g340
aVwill
p1516
aVgladly
p1517
aVenter
p1518
aVyour
p1519
aVservice
p1520
ag59
aVif
p1521
aVyou
p1522
aVwill
p1523
aVtake
p1524
aVme
p1525
ag70
aV''
p1526
asg71
(lp1527
g73
ag73
ag73
ag73
ag73
ag73
ag73
ag73
ag73
ag73
ag73
ag73
ag73
ag73
asg74
(lp1528
g178
ag179
ag79
ag177
ag87
ag82
ag85
ag76
ag178
ag179
ag177
ag178
ag89
ag353
asg90
VI will gladly enter your service, if you will take me."
p1529
sba(i__main__
Sentence
p1530
(dp1531
g17
I27
sg18
(lp1532
S'``'
p1533
aS'Come'
p1534
aS'with'
p1535
aS'me'
p1536
aS','
p1537
aS"''"
p1538
aS'said'
p1539
aS'the'
p1540
aS'prince'
p1541
aS','
p1542
aS'``'
p1543
aS'I'
p1544
aS'can'
p1545
aS'make'
p1546
aS'use'
p1547
aS'of'
p1548
aS'you'
p1549
aS'.'
p1550
aS"''"
p1551
asg45
(lp1552
V``
p1553
aVCome
p1554
aVwith
p1555
aVme
p1556
ag59
aV''
p1557
ag159
aVthe
p1558
aVprince
p1559
ag59
aV``
p1560
ag340
aVcan
p1561
aVmake
p1562
aVuse
p1563
aVof
p1564
aVyou
p1565
ag70
aV''
p1566
asg71
(lp1567
g73
ag73
ag73
ag73
ag73
ag73
ag73
ag73
ag73
ag73
ag73
ag73
ag73
ag73
ag73
ag73
ag73
ag73
ag73
asg74
(lp1568
g350
ag351
ag76
ag178
ag85
ag353
ag84
ag80
ag82
ag85
ag350
ag178
ag179
ag177
ag82
ag76
ag178
ag89
ag353
asg90
V"Come with me," said the prince, "I can make use of you."
p1569
sba(i__main__
Sentence
p1570
(dp1571
g17
I28
sg18
(lp1572
S'They'
p1573
aS'went'
p1574
aS'onwards'
p1575
aS'and'
p1576
aS'found'
p1577
aS'a'
p1578
aS'man'
p1579
aS'sitting'
p1580
aS'by'
p1581
aS'the'
p1582
aS'road'
p1583
aS'who'
p1584
aS'had'
p1585
aS'bound'
p1586
aS'up'
p1587
aS'his'
p1588
aS'eyes'
p1589
aS'.'
p1590
asg45
(lp1591
VThey
p1592
ag1308
aVonwards
p1593
aVand
p1594
ag969
ag57
aVman
p1595
aVsit
p1596
aVby
p1597
aVthe
p1598
aVroad
p1599
aVwho
p1600
ag143
aVbind
p1601
aVup
p1602
aVhis
p1603
aVeye
p1604
ag70
asg71
(lp1605
g73
ag73
ag73
ag73
ag73
ag73
ag73
ag73
ag73
ag73
ag73
ag73
ag73
ag73
ag73
ag73
ag73
ag73
asg74
(lp1606
g178
ag84
ag78
ag86
ag77
ag80
ag82
ag404
ag76
ag80
ag82
ag83
ag84
ag77
ag278
ag87
ag78
ag89
asg90
VThey went onwards and found a man sitting by the road who had bound up his eyes.
p1607
sba(i__main__
Sentence
p1608
(dp1609
g17
I29
sg18
(lp1610
S'The'
p1611
aS'prince'
p1612
aS'said'
p1613
aS'to'
p1614
aS'him'
p1615
aS','
p1616
aS'``'
p1617
aS'Have'
p1618
aS'you'
p1619
aS'weak'
p1620
aS'eyes'
p1621
aS','
p1622
aS'that'
p1623
aS'you'
p1624
aS'can'
p1625
aS'not'
p1626
aS'look'
p1627
aS'at'
p1628
aS'the'
p1629
aS'light'
p1630
aS'?'
p1631
aS"''"
p1632
asg45
(lp1633
VThe
p1634
aVprince
p1635
ag159
aVto
p1636
aVhim
p1637
ag59
aV``
p1638
aVHave
p1639
aVyou
p1640
aVweak
p1641
aVeye
p1642
ag59
aVthat
p1643
aVyou
p1644
aVcan
p1645
aVnot
p1646
aVlook
p1647
aVat
p1648
aVthe
p1649
aVlight
p1650
ag809
aV''
p1651
asg71
(lp1652
g73
ag73
ag73
ag73
ag73
ag73
ag73
ag73
ag73
ag73
ag73
ag73
ag73
ag73
ag73
ag73
ag73
ag73
ag73
ag73
ag73
ag73
asg74
(lp1653
g80
ag82
ag84
ag176
ag178
ag85
ag350
ag351
ag178
ag352
ag78
ag85
ag76
ag178
ag179
ag79
ag177
ag76
ag80
ag81
ag89
ag353
asg90
VThe prince said to him, "Have you weak eyes, that you cannot look at the light?"
p1654
sba(i__main__
Sentence
p1655
(dp1656
g17
I30
sg18
(lp1657
S'``'
p1658
aS'No'
p1659
aS','
p1660
aS"''"
p1661
aS'replied'
p1662
aS'the'
p1663
aS'man'
p1664
aS','
p1665
aS'``'
p1666
aS'but'
p1667
aS'I'
p1668
aS'must'
p1669
aS'not'
p1670
aS'remove'
p1671
aS'the'
p1672
aS'bandage'
p1673
aS','
p1674
aS'for'
p1675
aS'whatsoever'
p1676
aS'I'
p1677
aS'look'
p1678
aS'at'
p1679
aS'with'
p1680
aS'my'
p1681
aS'eyes'
p1682
aS','
p1683
aS'splits'
p1684
aS'to'
p1685
aS'pieces'
p1686
aS','
p1687
aS'so'
p1688
aS'powerful'
p1689
aS'is'
p1690
aS'my'
p1691
aS'glance'
p1692
aS'.'
p1693
asg45
(lp1694
V``
p1695
aVNo
p1696
ag59
aV''
p1697
ag1043
aVthe
p1698
aVman
p1699
ag59
aV``
p1700
aVbut
p1701
ag340
aVmust
p1702
aVnot
p1703
aVremove
p1704
aVthe
p1705
aVbandage
p1706
ag59
aVfor
p1707
aVwhatsoever
p1708
ag340
aVlook
p1709
aVat
p1710
aVwith
p1711
aVmy
p1712
aVeye
p1713
ag59
aVsplit
p1714
aVto
p1715
aVpiece
p1716
ag59
aVso
p1717
aVpowerful
p1718
ag855
aVmy
p1719
aVglance
p1720
ag70
asg71
(lp1721
g73
ag73
ag73
ag73
ag73
ag73
ag73
ag73
ag73
ag73
ag73
ag73
ag73
ag73
ag73
ag73
ag73
ag73
ag73
ag73
ag73
ag73
ag73
ag73
ag73
ag73
ag73
ag73
ag73
ag73
ag73
ag73
ag73
ag73
ag73
ag73
asg74
(lp1722
g350
ag80
ag85
ag353
ag84
ag80
ag82
ag85
ag350
ag86
ag178
ag179
ag79
ag177
ag80
ag82
ag85
ag76
ag82
ag178
ag352
ag76
ag76
ag87
ag78
ag85
ag78
ag176
ag78
ag85
ag79
ag81
ag871
ag87
ag82
ag89
asg90
V"No," replied the man, "but I must not remove the bandage, for whatsoever I look at with my eyes, splits to pieces, so powerful is my glance.
p1723
sba(i__main__
Sentence
p1724
(dp1725
g17
I31
sg18
(lp1726
S'If'
p1727
aS'you'
p1728
aS'can'
p1729
aS'use'
p1730
aS'that'
p1731
aS','
p1732
aS'I'
p1733
aS'shall'
p1734
aS'be'
p1735
aS'glad'
p1736
aS'to'
p1737
aS'serve'
p1738
aS'you'
p1739
aS'.'
p1740
aS"''"
p1741
asg45
(lp1742
VIf
p1743
aVyou
p1744
aVcan
p1745
aVuse
p1746
aVthat
p1747
ag59
ag340
aVshall
p1748
aVbe
p1749
aVglad
p1750
aVto
p1751
aVserve
p1752
aVyou
p1753
ag70
aV''
p1754
asg71
(lp1755
g73
ag73
ag73
ag73
ag73
ag73
ag73
ag73
ag73
ag73
ag73
ag73
ag73
ag73
ag73
asg74
(lp1756
g76
ag178
ag179
ag177
ag76
ag85
ag178
ag179
ag177
ag77
ag176
ag177
ag178
ag89
ag353
asg90
VIf you can use that, I shall be glad to serve you."
p1757
sba(i__main__
Sentence
p1758
(dp1759
g17
I32
sg18
(lp1760
S'``'
p1761
aS'Come'
p1762
aS'with'
p1763
aS'me'
p1764
aS','
p1765
aS"''"
p1766
aS'replied'
p1767
aS'the'
p1768
aS'king'
p1769
aS"'s"
p1770
aS'son'
p1771
aS','
p1772
aS'``'
p1773
aS'I'
p1774
aS'can'
p1775
aS'make'
p1776
aS'use'
p1777
aS'of'
p1778
aS'you'
p1779
aS'.'
p1780
aS"''"
p1781
asg45
(lp1782
V``
p1783
aVCome
p1784
aVwith
p1785
aVme
p1786
ag59
aV''
p1787
ag1043
aVthe
p1788
aVking
p1789
aV's
p1790
aVson
p1791
ag59
aV``
p1792
ag340
aVcan
p1793
aVmake
p1794
aVuse
p1795
aVof
p1796
aVyou
p1797
ag70
aV''
p1798
asg71
(lp1799
g73
ag73
ag73
ag73
ag73
ag73
ag73
ag73
ag73
ag73
ag73
ag73
ag73
ag73
ag73
ag73
ag73
ag73
ag73
ag73
ag73
asg74
(lp1800
g350
ag351
ag76
ag178
ag85
ag353
ag84
ag80
ag82
ag277
ag82
ag85
ag350
ag178
ag179
ag177
ag82
ag76
ag178
ag89
ag353
asg90
V"Come with me," replied the king's son, "I can make use of you."
p1801
sba(i__main__
Sentence
p1802
(dp1803
g17
I33
sg18
(lp1804
S'They'
p1805
aS'journeyed'
p1806
aS'onwards'
p1807
aS'and'
p1808
aS'found'
p1809
aS'a'
p1810
aS'man'
p1811
aS'who'
p1812
aS'was'
p1813
aS'lying'
p1814
aS'in'
p1815
aS'the'
p1816
aS'hot'
p1817
aS'sunshine'
p1818
aS','
p1819
aS'trembling'
p1820
aS'and'
p1821
aS'shivering'
p1822
aS'all'
p1823
aS'over'
p1824
aS'his'
p1825
aS'body'
p1826
aS','
p1827
aS'so'
p1828
aS'that'
p1829
aS'not'
p1830
aS'a'
p1831
aS'limb'
p1832
aS'was'
p1833
aS'still'
p1834
aS'.'
p1835
asg45
(lp1836
VThey
p1837
aVjourney
p1838
aVonwards
p1839
aVand
p1840
ag969
ag57
aVman
p1841
aVwho
p1842
ag56
ag973
aVin
p1843
aVthe
p1844
aVhot
p1845
aVsunshine
p1846
ag59
aVtremble
p1847
aVand
p1848
aVshiver
p1849
aVall
p1850
aVover
p1851
aVhis
p1852
aVbody
p1853
ag59
aVso
p1854
aVthat
p1855
aVnot
p1856
ag57
aVlimb
p1857
ag56
aVstill
p1858
ag70
asg71
(lp1859
g73
ag73
ag73
ag73
ag73
ag73
ag73
ag73
ag73
ag73
ag73
ag73
ag73
ag73
ag73
ag73
ag73
ag73
ag73
ag73
ag73
ag73
ag73
ag73
ag73
ag73
ag73
ag73
ag73
ag73
ag73
asg74
(lp1860
g178
ag84
ag78
ag86
ag77
ag80
ag82
ag83
ag84
ag404
ag76
ag80
ag82
ag82
ag85
ag404
ag86
ag404
ag80
ag76
ag87
ag82
ag85
ag79
ag76
ag79
ag80
ag82
ag84
ag79
ag89
asg90
VThey journeyed onwards and found a man who was lying in the hot sunshine, trembling and shivering all over his body, so that not a limb was still.
p1861
sba(i__main__
Sentence
p1862
(dp1863
g17
I34
sg18
(lp1864
S'``'
p1865
aS'How'
p1866
aS'can'
p1867
aS'you'
p1868
aS'shiver'
p1869
aS'when'
p1870
aS'the'
p1871
aS'sun'
p1872
aS'is'
p1873
aS'shining'
p1874
aS'so'
p1875
aS'warm'
p1876
aS'?'
p1877
aS"''"
p1878
asg45
(lp1879
V``
p1880
aVHow
p1881
aVcan
p1882
aVyou
p1883
aVshiver
p1884
aVwhen
p1885
aVthe
p1886
aVsun
p1887
ag855
aVshin
p1888
aVso
p1889
aVwarm
p1890
ag809
aV''
p1891
asg71
(lp1892
g73
ag73
ag73
ag73
ag73
ag73
ag73
ag73
ag73
ag73
ag73
ag73
ag73
ag73
asg74
(lp1893
g350
ag175
ag179
ag178
ag177
ag175
ag80
ag82
ag871
ag404
ag79
ag82
ag89
ag353
asg90
V"How can you shiver when the sun is shining so warm?"
p1894
sba(i__main__
Sentence
p1895
(dp1896
g17
I35
sg18
(lp1897
S'said'
p1898
aS'the'
p1899
aS'king'
p1900
aS"'s"
p1901
aS'son'
p1902
aS'.'
p1903
asg45
(lp1904
g159
aVthe
p1905
aVking
p1906
aV's
p1907
aVson
p1908
ag70
asg71
(lp1909
g73
ag73
ag73
ag73
ag73
ag73
asg74
(lp1910
g84
ag80
ag82
ag277
ag82
ag89
asg90
Vsaid the king's son.
p1911
sba(i__main__
Sentence
p1912
(dp1913
g17
I36
sg18
(lp1914
S'``'
p1915
aS'Alas'
p1916
aS','
p1917
aS"''"
p1918
aS'replied'
p1919
aS'the'
p1920
aS'man'
p1921
aS','
p1922
aS'``'
p1923
aS'I'
p1924
aS'am'
p1925
aS'of'
p1926
aS'quite'
p1927
aS'a'
p1928
aS'different'
p1929
aS'nature'
p1930
aS'.'
p1931
asg45
(lp1932
V``
p1933
aVAlas
p1934
ag59
aV''
p1935
ag1043
aVthe
p1936
aVman
p1937
ag59
aV``
p1938
ag340
ag862
aVof
p1939
aVquite
p1940
ag57
aVdifferent
p1941
aVnature
p1942
ag70
asg71
(lp1943
g73
ag73
ag73
ag73
ag73
ag73
ag73
ag73
ag73
ag73
ag73
ag73
ag73
ag73
ag73
ag73
ag73
asg74
(lp1944
g350
ag351
ag85
ag353
ag84
ag80
ag82
ag85
ag350
ag178
ag352
ag76
ag81
ag80
ag81
ag82
ag89
asg90
V"Alas," replied the man, "I am of quite a different nature.
p1945
sba(i__main__
Sentence
p1946
(dp1947
g17
I37
sg18
(lp1948
S'The'
p1949
aS'hotter'
p1950
aS'it'
p1951
aS'is'
p1952
aS','
p1953
aS'the'
p1954
aS'colder'
p1955
aS'I'
p1956
aS'am'
p1957
aS','
p1958
aS'and'
p1959
aS'the'
p1960
aS'frost'
p1961
aS'pierces'
p1962
aS'through'
p1963
aS'all'
p1964
aS'my'
p1965
aS'bones'
p1966
aS','
p1967
aS'and'
p1968
aS'the'
p1969
aS'colder'
p1970
aS'it'
p1971
aS'is'
p1972
aS','
p1973
aS'the'
p1974
aS'hotter'
p1975
aS'I'
p1976
aS'am'
p1977
aS'.'
p1978
asg45
(lp1979
VThe
p1980
aVhotter
p1981
aVit
p1982
ag855
ag59
aVthe
p1983
aVcolder
p1984
ag340
ag862
ag59
aVand
p1985
aVthe
p1986
aVfrost
p1987
aVpierce
p1988
aVthrough
p1989
aVall
p1990
aVmy
p1991
aVbone
p1992
ag59
aVand
p1993
aVthe
p1994
aVcolder
p1995
aVit
p1996
ag855
ag59
aVthe
p1997
aVhotter
p1998
ag340
ag862
ag70
asg71
(lp1999
g73
ag73
ag73
ag73
ag73
ag73
ag73
ag73
ag73
ag73
ag73
ag73
ag73
ag73
ag73
ag73
ag73
ag73
ag73
ag73
ag73
ag73
ag73
ag73
ag73
ag73
ag73
ag73
ag73
ag73
asg74
(lp2000
g80
ag82
ag178
ag871
ag85
ag80
ag82
ag178
ag352
ag85
ag86
ag80
ag82
ag78
ag76
ag80
ag87
ag78
ag85
ag86
ag80
ag82
ag178
ag871
ag85
ag80
ag82
ag178
ag352
ag89
asg90
VThe hotter it is, the colder I am, and the frost pierces through all my bones, and the colder it is, the hotter I am.
p2001
sba(i__main__
Sentence
p2002
(dp2003
g17
I38
sg18
(lp2004
S'In'
p2005
aS'the'
p2006
aS'midst'
p2007
aS'of'
p2008
aS'ice'
p2009
aS','
p2010
aS'I'
p2011
aS'can'
p2012
aS'not'
p2013
aS'endure'
p2014
aS'the'
p2015
aS'heat'
p2016
aS','
p2017
aS'nor'
p2018
aS'in'
p2019
aS'the'
p2020
aS'midst'
p2021
aS'of'
p2022
aS'fire'
p2023
aS','
p2024
aS'the'
p2025
aS'cold'
p2026
aS'.'
p2027
aS"''"
p2028
asg45
(lp2029
VIn
p2030
aVthe
p2031
aVmidst
p2032
aVof
p2033
aVice
p2034
ag59
ag340
aVcan
p2035
aVnot
p2036
aVendure
p2037
aVthe
p2038
aVheat
p2039
ag59
aVnor
p2040
aVin
p2041
aVthe
p2042
aVmidst
p2043
aVof
p2044
aVfire
p2045
ag59
aVthe
p2046
aVcold
p2047
ag70
aV''
p2048
asg71
(lp2049
g73
ag73
ag73
ag73
ag73
ag73
ag73
ag73
ag73
ag73
ag73
ag73
ag73
ag73
ag73
ag73
ag73
ag73
ag73
ag73
ag73
ag73
ag73
ag73
asg74
(lp2050
g76
ag80
ag82
ag76
ag82
ag85
ag178
ag179
ag79
ag177
ag80
ag82
ag85
ag86
ag76
ag80
ag82
ag76
ag82
ag85
ag80
ag82
ag89
ag353
asg90
VIn the midst of ice, I cannot endure the heat, nor in the midst of fire, the cold."
p2051
sba(i__main__
Sentence
p2052
(dp2053
g17
I39
sg18
(lp2054
S'``'
p2055
aS'You'
p2056
aS'are'
p2057
aS'a'
p2058
aS'strange'
p2059
aS'fellow'
p2060
aS','
p2061
aS"''"
p2062
aS'said'
p2063
aS'the'
p2064
aS'prince'
p2065
aS','
p2066
aS'``'
p2067
aS'but'
p2068
aS'if'
p2069
aS'you'
p2070
aS'will'
p2071
aS'enter'
p2072
aS'my'
p2073
aS'service'
p2074
aS','
p2075
aS'follow'
p2076
aS'me'
p2077
aS'.'
p2078
aS"''"
p2079
asg45
(lp2080
V``
p2081
aVYou
p2082
ag763
ag57
aVstrange
p2083
aVfellow
p2084
ag59
aV''
p2085
ag159
aVthe
p2086
aVprince
p2087
ag59
aV``
p2088
aVbut
p2089
aVif
p2090
aVyou
p2091
aVwill
p2092
aVenter
p2093
aVmy
p2094
aVservice
p2095
ag59
aVfollow
p2096
aVme
p2097
ag70
aV''
p2098
asg71
(lp2099
g73
ag73
ag73
ag73
ag73
ag73
ag73
ag73
ag73
ag73
ag73
ag73
ag73
ag73
ag73
ag73
ag73
ag73
ag73
ag73
ag73
ag73
ag73
ag73
ag73
asg74
(lp2100
g350
ag178
ag352
ag80
ag82
ag82
ag85
ag353
ag84
ag80
ag82
ag85
ag350
ag86
ag76
ag178
ag179
ag177
ag87
ag82
ag85
ag352
ag178
ag89
ag353
asg90
V"You are a strange fellow," said the prince, "but if you will enter my service, follow me."
p2101
sba(i__main__
Sentence
p2102
(dp2103
g17
I40
sg18
(lp2104
S'They'
p2105
aS'traveled'
p2106
aS'onwards'
p2107
aS','
p2108
aS'and'
p2109
aS'saw'
p2110
aS'a'
p2111
aS'man'
p2112
aS'standing'
p2113
aS'who'
p2114
aS'made'
p2115
aS'a'
p2116
aS'long'
p2117
aS'neck'
p2118
aS'and'
p2119
aS'looked'
p2120
aS'about'
p2121
aS'him'
p2122
aS','
p2123
aS'and'
p2124
aS'could'
p2125
aS'see'
p2126
aS'over'
p2127
aS'all'
p2128
aS'the'
p2129
aS'mountains'
p2130
aS'.'
p2131
asg45
(lp2132
VThey
p2133
aVtravel
p2134
aVonwards
p2135
ag59
aVand
p2136
aVsaw
p2137
ag57
aVman
p2138
aVstanding
p2139
aVwho
p2140
aVmake
p2141
ag57
aVlong
p2142
aVneck
p2143
aVand
p2144
aVlook
p2145
aVabout
p2146
aVhim
p2147
ag59
aVand
p2148
aVcould
p2149
aVsee
p2150
aVover
p2151
aVall
p2152
aVthe
p2153
aVmountain
p2154
ag70
asg71
(lp2155
g73
ag73
ag73
ag73
ag73
ag73
ag73
ag73
ag73
ag73
ag73
ag73
ag73
ag73
ag73
ag73
ag73
ag73
ag73
ag73
ag73
ag73
ag73
ag73
ag73
ag73
ag73
asg74
(lp2156
g178
ag84
ag78
ag85
ag86
ag84
ag80
ag82
ag82
ag83
ag77
ag80
ag81
ag82
ag86
ag84
ag76
ag178
ag85
ag86
ag179
ag177
ag76
ag80
ag80
ag78
ag89
asg90
VThey traveled onwards, and saw a man standing who made a long neck and looked about him, and could see over all the mountains.
p2157
sba(i__main__
Sentence
p2158
(dp2159
g17
I41
sg18
(lp2160
S'``'
p2161
aS'What'
p2162
aS'are'
p2163
aS'you'
p2164
aS'looking'
p2165
aS'at'
p2166
aS'so'
p2167
aS'eagerly'
p2168
aS'?'
p2169
aS"''"
p2170
asg45
(lp2171
V``
p2172
aVWhat
p2173
ag763
aVyou
p2174
aVlook
p2175
aVat
p2176
aVso
p2177
aVeagerly
p2178
ag809
aV''
p2179
asg71
(lp2180
g73
ag73
ag73
ag73
ag73
ag73
ag73
ag73
ag73
ag73
asg74
(lp2181
g350
ag83
ag352
ag178
ag404
ag76
ag79
ag79
ag89
ag353
asg90
V"What are you looking at so eagerly?"
p2182
sba(i__main__
Sentence
p2183
(dp2184
g17
I42
sg18
(lp2185
S'said'
p2186
aS'the'
p2187
aS'king'
p2188
aS"'s"
p2189
aS'son'
p2190
aS'.'
p2191
asg45
(lp2192
g159
aVthe
p2193
aVking
p2194
aV's
p2195
aVson
p2196
ag70
asg71
(lp2197
g73
ag73
ag73
ag73
ag73
ag73
asg74
(lp2198
g84
ag80
ag82
ag277
ag82
ag89
asg90
Vsaid the king's son.
p2199
sba(i__main__
Sentence
p2200
(dp2201
g17
I43
sg18
(lp2202
S'The'
p2203
aS'man'
p2204
aS'replied'
p2205
aS','
p2206
aS'``'
p2207
aS'I'
p2208
aS'have'
p2209
aS'such'
p2210
aS'sharp'
p2211
aS'eyes'
p2212
aS'that'
p2213
aS'I'
p2214
aS'can'
p2215
aS'see'
p2216
aS'into'
p2217
aS'every'
p2218
aS'forest'
p2219
aS'and'
p2220
aS'field'
p2221
aS','
p2222
aS'and'
p2223
aS'hill'
p2224
aS'and'
p2225
aS'valley'
p2226
aS','
p2227
aS'all'
p2228
aS'over'
p2229
aS'the'
p2230
aS'world'
p2231
aS'.'
p2232
aS"''"
p2233
asg45
(lp2234
VThe
p2235
aVman
p2236
ag1043
ag59
aV``
p2237
ag340
aVhave
p2238
aVsuch
p2239
aVsharp
p2240
aVeye
p2241
aVthat
p2242
ag340
aVcan
p2243
aVsee
p2244
aVinto
p2245
aVevery
p2246
aVforest
p2247
aVand
p2248
aVfield
p2249
ag59
aVand
p2250
aVhill
p2251
aVand
p2252
aVvalley
p2253
ag59
aVall
p2254
aVover
p2255
aVthe
p2256
aVworld
p2257
ag70
aV''
p2258
asg71
(lp2259
g73
ag73
ag73
ag73
ag73
ag73
ag73
ag73
ag73
ag73
ag73
ag73
ag73
ag73
ag73
ag73
ag73
ag73
ag73
ag73
ag73
ag73
ag73
ag73
ag73
ag73
ag73
ag73
ag73
ag73
ag73
asg74
(lp2260
g80
ag82
ag84
ag85
ag350
ag178
ag352
ag81
ag81
ag78
ag590
ag178
ag179
ag177
ag76
ag80
ag82
ag86
ag82
ag85
ag86
ag82
ag86
ag82
ag85
ag80
ag76
ag80
ag82
ag89
ag353
asg90
VThe man replied, "I have such sharp eyes that I can see into every forest and field, and hill and valley, all over the world."
p2261
sba(i__main__
Sentence
p2262
(dp2263
g17
I44
sg18
(lp2264
S'The'
p2265
aS'prince'
p2266
aS'said'
p2267
aS','
p2268
aS'``'
p2269
aS'Come'
p2270
aS'with'
p2271
aS'me'
p2272
aS'if'
p2273
aS'you'
p2274
aS'will'
p2275
aS','
p2276
aS'for'
p2277
aS'I'
p2278
aS'am'
p2279
aS'still'
p2280
aS'in'
p2281
aS'want'
p2282
aS'of'
p2283
aS'such'
p2284
aS'an'
p2285
aS'one'
p2286
aS'.'
p2287
aS"''"
p2288
asg45
(lp2289
VThe
p2290
aVprince
p2291
ag159
ag59
aV``
p2292
aVCome
p2293
aVwith
p2294
aVme
p2295
aVif
p2296
aVyou
p2297
aVwill
p2298
ag59
aVfor
p2299
ag340
ag862
aVstill
p2300
aVin
p2301
aVwant
p2302
aVof
p2303
aVsuch
p2304
aVan
p2305
aVone
p2306
ag70
aV''
p2307
asg71
(lp2308
g73
ag73
ag73
ag73
ag73
ag73
ag73
ag73
ag73
ag73
ag73
ag73
ag73
ag73
ag73
ag73
ag73
ag73
ag73
ag73
ag73
ag73
ag73
ag73
asg74
(lp2309
g80
ag82
ag84
ag85
ag350
ag351
ag76
ag178
ag76
ag178
ag179
ag85
ag76
ag178
ag352
ag79
ag76
ag81
ag76
ag81
ag80
ag462
ag89
ag353
asg90
VThe prince said, "Come with me if you will, for I am still in want of such an one."
p2310
sba(i__main__
Sentence
p2311
(dp2312
g17
I45
sg18
(lp2313
S'And'
p2314
aS'now'
p2315
aS'the'
p2316
aS'king'
p2317
aS"'s"
p2318
aS'son'
p2319
aS'and'
p2320
aS'his'
p2321
aS'six'
p2322
aS'servants'
p2323
aS'came'
p2324
aS'to'
p2325
aS'the'
p2326
aS'town'
p2327
aS'where'
p2328
aS'the'
p2329
aS'aged'
p2330
aS'queen'
p2331
aS'dwelt'
p2332
aS'.'
p2333
asg45
(lp2334
VAnd
p2335
aVnow
p2336
aVthe
p2337
aVking
p2338
aV's
p2339
aVson
p2340
aVand
p2341
aVhis
p2342
aVsix
p2343
aVservant
p2344
ag662
aVto
p2345
aVthe
p2346
aVtown
p2347
aVwhere
p2348
aVthe
p2349
aVaged
p2350
aVqueen
p2351
aVdwelt
p2352
ag70
asg71
(lp2353
g73
ag73
ag73
ag73
ag73
ag73
ag73
ag73
ag73
ag73
ag73
ag73
ag73
ag73
ag73
ag73
ag73
ag73
ag73
ag73
asg74
(lp2354
g86
ag79
ag80
ag82
ag277
ag82
ag86
ag87
ag462
ag78
ag84
ag176
ag80
ag82
ag175
ag80
ag81
ag82
ag82
ag89
asg90
VAnd now the king's son and his six servants came to the town where the aged queen dwelt.
p2355
sba(i__main__
Sentence
p2356
(dp2357
g17
I46
sg18
(lp2358
S'He'
p2359
aS'did'
p2360
aS'not'
p2361
aS'tell'
p2362
aS'her'
p2363
aS'who'
p2364
aS'he'
p2365
aS'was'
p2366
aS','
p2367
aS'but'
p2368
aS'said'
p2369
aS','
p2370
aS'``'
p2371
aS'If'
p2372
aS'you'
p2373
aS'will'
p2374
aS'give'
p2375
aS'me'
p2376
aS'your'
p2377
aS'beautiful'
p2378
aS'daughter'
p2379
aS','
p2380
aS'I'
p2381
aS'will'
p2382
aS'perform'
p2383
aS'any'
p2384
aS'task'
p2385
aS'you'
p2386
aS'set'
p2387
aS'me'
p2388
aS'.'
p2389
aS"''"
p2390
asg45
(lp2391
VHe
p2392
aVdo
p2393
aVnot
p2394
aVtell
p2395
aVher
p2396
aVwho
p2397
aVhe
p2398
ag56
ag59
aVbut
p2399
ag159
ag59
aV``
p2400
aVIf
p2401
aVyou
p2402
aVwill
p2403
aVgive
p2404
aVme
p2405
aVyour
p2406
aVbeautiful
p2407
aVdaughter
p2408
ag59
ag340
aVwill
p2409
aVperform
p2410
aVany
p2411
aVtask
p2412
aVyou
p2413
aVset
p2414
aVme
p2415
ag70
aV''
p2416
asg71
(lp2417
g73
ag73
ag73
ag73
ag73
ag73
ag73
ag73
ag73
ag73
ag73
ag73
ag73
ag73
ag73
ag73
ag73
ag73
ag73
ag73
ag73
ag73
ag73
ag73
ag73
ag73
ag73
ag73
ag73
ag73
ag73
ag73
asg74
(lp2418
g178
ag84
ag79
ag177
ag87
ag83
ag178
ag84
ag85
ag86
ag84
ag85
ag350
ag76
ag178
ag179
ag177
ag178
ag87
ag81
ag82
ag85
ag178
ag179
ag177
ag80
ag82
ag178
ag84
ag178
ag89
ag353
asg90
VHe did not tell her who he was, but said, "If you will give me your beautiful daughter, I will perform any task you set me."
p2419
sba(i__main__
Sentence
p2420
(dp2421
g17
I47
sg18
(lp2422
S'The'
p2423
aS'sorceress'
p2424
aS'was'
p2425
aS'delighted'
p2426
aS'to'
p2427
aS'get'
p2428
aS'such'
p2429
aS'a'
p2430
aS'handsome'
p2431
aS'youth'
p2432
aS'as'
p2433
aS'this'
p2434
aS'into'
p2435
aS'her'
p2436
aS'net'
p2437
aS','
p2438
aS'and'
p2439
aS'said'
p2440
aS','
p2441
aS'``'
p2442
aS'I'
p2443
aS'will'
p2444
aS'set'
p2445
aS'you'
p2446
aS'three'
p2447
aS'tasks'
p2448
aS','
p2449
aS'and'
p2450
aS'if'
p2451
aS'you'
p2452
aS'are'
p2453
aS'able'
p2454
aS'to'
p2455
aS'perform'
p2456
aS'them'
p2457
aS'all'
p2458
aS','
p2459
aS'you'
p2460
aS'shall'
p2461
aS'be'
p2462
aS'husband'
p2463
aS'and'
p2464
aS'master'
p2465
aS'of'
p2466
aS'my'
p2467
aS'daughter'
p2468
aS'.'
p2469
aS"''"
p2470
asg45
(lp2471
VThe
p2472
aVsorceress
p2473
ag56
aVdelight
p2474
aVto
p2475
aVget
p2476
aVsuch
p2477
ag57
aVhandsome
p2478
aVyouth
p2479
ag57
aVthis
p2480
aVinto
p2481
aVher
p2482
aVnet
p2483
ag59
aVand
p2484
ag159
ag59
aV``
p2485
ag340
aVwill
p2486
aVset
p2487
aVyou
p2488
aVthree
p2489
aVtask
p2490
ag59
aVand
p2491
aVif
p2492
aVyou
p2493
ag763
aVable
p2494
aVto
p2495
aVperform
p2496
aVthem
p2497
aVall
p2498
ag59
aVyou
p2499
aVshall
p2500
aVbe
p2501
aVhusband
p2502
aVand
p2503
aVmaster
p2504
aVof
p2505
aVmy
p2506
aVdaughter
p2507
ag70
aV''
p2508
asg71
(lp2509
g73
ag73
ag73
ag73
ag73
ag73
ag73
ag73
ag73
ag73
ag73
ag73
ag73
ag73
ag73
ag73
ag73
ag73
ag73
ag73
ag73
ag73
ag73
ag73
ag73
ag73
ag73
ag73
ag73
ag73
ag73
ag73
ag73
ag73
ag73
ag73
ag73
ag73
ag73
ag73
ag73
ag73
ag73
ag73
ag73
ag73
ag73
ag73
asg74
(lp2510
g80
ag82
ag84
ag77
ag176
ag177
ag81
ag80
ag82
ag82
ag76
ag80
ag76
ag87
ag81
ag85
ag86
ag84
ag85
ag350
ag178
ag179
ag177
ag178
ag462
ag78
ag85
ag86
ag76
ag178
ag352
ag81
ag176
ag82
ag178
ag80
ag85
ag178
ag179
ag177
ag77
ag86
ag82
ag76
ag87
ag82
ag89
ag353
asg90
VThe sorceress was delighted to get such a handsome youth as this into her net, and said, "I will set you three tasks, and if you are able to perform them all, you shall be husband and master of my daughter."
p2511
sba(i__main__
Sentence
p2512
(dp2513
g17
I48
sg18
(lp2514
S'``'
p2515
aS'What'
p2516
aS'is'
p2517
aS'the'
p2518
aS'first'
p2519
aS'to'
p2520
aS'be'
p2521
aS'?'
p2522
aS"''"
p2523
asg45
(lp2524
V``
p2525
aVWhat
p2526
ag855
aVthe
p2527
aVfirst
p2528
aVto
p2529
aVbe
p2530
ag809
aV''
p2531
asg71
(lp2532
g73
ag73
ag73
ag73
ag73
ag73
ag73
ag73
ag73
asg74
(lp2533
g350
ag83
ag871
ag80
ag81
ag176
ag177
ag89
ag353
asg90
V"What is the first to be?"
p2534
sba(i__main__
Sentence
p2535
(dp2536
g17
I49
sg18
(lp2537
S'``'
p2538
aS'You'
p2539
aS'shall'
p2540
aS'fetch'
p2541
aS'me'
p2542
aS'my'
p2543
aS'ring'
p2544
aS'which'
p2545
aS'I'
p2546
aS'have'
p2547
aS'dropped'
p2548
aS'into'
p2549
aS'the'
p2550
aS'red'
p2551
aS'sea'
p2552
aS'.'
p2553
aS"''"
p2554
asg45
(lp2555
V``
p2556
aVYou
p2557
aVshall
p2558
aVfetch
p2559
aVme
p2560
aVmy
p2561
aVring
p2562
aVwhich
p2563
ag340
aVhave
p2564
aVdrop
p2565
aVinto
p2566
aVthe
p2567
aVred
p2568
aVsea
p2569
ag70
aV''
p2570
asg71
(lp2571
g73
ag73
ag73
ag73
ag73
ag73
ag73
ag73
ag73
ag73
ag73
ag73
ag73
ag73
ag73
ag73
ag73
asg74
(lp2572
g350
ag178
ag179
ag177
ag178
ag87
ag82
ag590
ag178
ag352
ag77
ag76
ag80
ag81
ag82
ag89
ag353
asg90
V"You shall fetch me my ring which I have dropped into the red sea."
p2573
sba(i__main__
Sentence
p2574
(dp2575
g17
I50
sg18
(lp2576
S'So'
p2577
aS'the'
p2578
aS'king'
p2579
aS"'s"
p2580
aS'son'
p2581
aS'went'
p2582
aS'home'
p2583
aS'to'
p2584
aS'his'
p2585
aS'servants'
p2586
aS'and'
p2587
aS'said'
p2588
aS','
p2589
aS'``'
p2590
aS'The'
p2591
aS'first'
p2592
aS'task'
p2593
aS'is'
p2594
aS'not'
p2595
aS'easy'
p2596
aS'.'
p2597
asg45
(lp2598
VSo
p2599
aVthe
p2600
aVking
p2601
aV's
p2602
aVson
p2603
ag1308
aVhome
p2604
aVto
p2605
aVhis
p2606
aVservant
p2607
aVand
p2608
ag159
ag59
aV``
p2609
aVThe
p2610
aVfirst
p2611
aVtask
p2612
ag855
aVnot
p2613
aVeasy
p2614
ag70
asg71
(lp2615
g73
ag73
ag73
ag73
ag73
ag73
ag73
ag73
ag73
ag73
ag73
ag73
ag73
ag73
ag73
ag73
ag73
ag73
ag73
ag73
ag73
asg74
(lp2616
g76
ag80
ag82
ag277
ag82
ag84
ag82
ag176
ag87
ag78
ag86
ag84
ag85
ag350
ag80
ag81
ag82
ag871
ag79
ag81
ag89
asg90
VSo the king's son went home to his servants and said, "The first task is not easy.
p2617
sba(i__main__
Sentence
p2618
(dp2619
g17
I51
sg18
(lp2620
S'A'
p2621
aS'ring'
p2622
aS'is'
p2623
aS'to'
p2624
aS'be'
p2625
aS'got'
p2626
aS'out'
p2627
aS'of'
p2628
aS'the'
p2629
aS'red'
p2630
aS'sea'
p2631
aS'.'
p2632
asg45
(lp2633
g319
aVring
p2634
ag855
aVto
p2635
aVbe
p2636
aVget
p2637
aVout
p2638
aVof
p2639
aVthe
p2640
aVred
p2641
aVsea
p2642
ag70
asg71
(lp2643
g73
ag73
ag73
ag73
ag73
ag73
ag73
ag73
ag73
ag73
ag73
ag73
asg74
(lp2644
g80
ag82
ag871
ag176
ag177
ag77
ag278
ag76
ag80
ag82
ag82
ag89
asg90
VA ring is to be got out of the red sea.
p2645
sba(i__main__
Sentence
p2646
(dp2647
g17
I52
sg18
(lp2648
S'Come'
p2649
aS','
p2650
aS'find'
p2651
aS'some'
p2652
aS'way'
p2653
aS'of'
p2654
aS'doing'
p2655
aS'it'
p2656
aS'.'
p2657
aS"''"
p2658
asg45
(lp2659
VCome
p2660
ag59
aVfind
p2661
aVsome
p2662
aVway
p2663
aVof
p2664
aVdo
p2665
aVit
p2666
ag70
aV''
p2667
asg71
(lp2668
g73
ag73
ag73
ag73
ag73
ag73
ag73
ag73
ag73
ag73
asg74
(lp2669
g351
ag85
ag352
ag80
ag82
ag76
ag404
ag178
ag89
ag353
asg90
VCome, find some way of doing it."
p2670
sba(i__main__
Sentence
p2671
(dp2672
g17
I53
sg18
(lp2673
S'Then'
p2674
aS'the'
p2675
aS'man'
p2676
aS'with'
p2677
aS'the'
p2678
aS'sharp'
p2679
aS'sight'
p2680
aS'said'
p2681
aS','
p2682
aS'``'
p2683
aS'I'
p2684
aS'will'
p2685
aS'see'
p2686
aS'where'
p2687
aS'it'
p2688
aS'is'
p2689
aS'lying'
p2690
aS','
p2691
aS"''"
p2692
aS'and'
p2693
aS'looked'
p2694
aS'down'
p2695
aS'into'
p2696
aS'the'
p2697
aS'water'
p2698
aS'and'
p2699
aS'said'
p2700
aS','
p2701
aS'``'
p2702
aS'It'
p2703
aS'is'
p2704
aS'hanging'
p2705
aS'there'
p2706
aS','
p2707
aS'on'
p2708
aS'a'
p2709
aS'pointed'
p2710
aS'stone'
p2711
aS'.'
p2712
aS"''"
p2713
asg45
(lp2714
VThen
p2715
aVthe
p2716
aVman
p2717
aVwith
p2718
aVthe
p2719
aVsharp
p2720
aVsight
p2721
ag159
ag59
aV``
p2722
ag340
aVwill
p2723
aVsee
p2724
aVwhere
p2725
aVit
p2726
ag855
ag973
ag59
aV''
p2727
aVand
p2728
aVlook
p2729
aVdown
p2730
aVinto
p2731
aVthe
p2732
aVwater
p2733
aVand
p2734
ag159
ag59
aV``
p2735
aVIt
p2736
ag855
aVhang
p2737
aVthere
p2738
ag59
aVon
p2739
ag57
aVpointed
p2740
aVstone
p2741
ag70
aV''
p2742
asg71
(lp2743
g73
ag73
ag73
ag73
ag73
ag73
ag73
ag73
ag73
ag73
ag73
ag73
ag73
ag73
ag73
ag73
ag73
ag73
ag73
ag73
ag73
ag73
ag73
ag73
ag73
ag73
ag73
ag73
ag73
ag73
ag73
ag73
ag73
ag73
ag73
ag73
ag73
ag73
ag73
ag73
asg74
(lp2744
g79
ag80
ag82
ag76
ag80
ag81
ag82
ag84
ag85
ag350
ag178
ag179
ag177
ag175
ag178
ag871
ag404
ag85
ag353
ag86
ag84
ag278
ag76
ag80
ag82
ag86
ag84
ag85
ag350
ag178
ag871
ag404
ag79
ag85
ag76
ag80
ag81
ag82
ag89
ag353
asg90
VThen the man with the sharp sight said, "I will see where it is lying," and looked down into the water and said, "It is hanging there, on a pointed stone."
p2745
sba(i__main__
Sentence
p2746
(dp2747
g17
I54
sg18
(lp2748
S'The'
p2749
aS'tall'
p2750
aS'one'
p2751
aS'carried'
p2752
aS'them'
p2753
aS'thither'
p2754
aS','
p2755
aS'and'
p2756
aS'said'
p2757
aS','
p2758
aS'``'
p2759
aS'I'
p2760
aS'would'
p2761
aS'soon'
p2762
aS'get'
p2763
aS'it'
p2764
aS'out'
p2765
aS','
p2766
aS'if'
p2767
aS'I'
p2768
aS'could'
p2769
aS'only'
p2770
aS'see'
p2771
aS'it'
p2772
aS'.'
p2773
aS"''"
p2774
asg45
(lp2775
VThe
p2776
aVtall
p2777
aVone
p2778
aVcarried
p2779
aVthem
p2780
aVthither
p2781
ag59
aVand
p2782
ag159
ag59
aV``
p2783
ag340
aVwould
p2784
aVsoon
p2785
aVget
p2786
aVit
p2787
aVout
p2788
ag59
aVif
p2789
ag340
aVcould
p2790
aVonly
p2791
aVsee
p2792
aVit
p2793
ag70
aV''
p2794
asg71
(lp2795
g73
ag73
ag73
ag73
ag73
ag73
ag73
ag73
ag73
ag73
ag73
ag73
ag73
ag73
ag73
ag73
ag73
ag73
ag73
ag73
ag73
ag73
ag73
ag73
ag73
ag73
asg74
(lp2796
g80
ag81
ag462
ag81
ag178
ag79
ag85
ag86
ag84
ag85
ag350
ag178
ag179
ag79
ag177
ag178
ag278
ag85
ag76
ag178
ag179
ag79
ag177
ag178
ag89
ag353
asg90
VThe tall one carried them thither, and said, "I would soon get it out, if I could only see it."
p2797
sba(i__main__
Sentence
p2798
(dp2799
g17
I55
sg18
(lp2800
S'``'
p2801
aS'Oh'
p2802
aS','
p2803
aS'is'
p2804
aS'that'
p2805
aS'all'
p2806
aS','
p2807
aS"''"
p2808
aS'cried'
p2809
aS'the'
p2810
aS'stout'
p2811
aS'one'
p2812
aS','
p2813
aS'and'
p2814
aS'lay'
p2815
aS'down'
p2816
aS'and'
p2817
aS'put'
p2818
aS'his'
p2819
aS'mouth'
p2820
aS'to'
p2821
aS'the'
p2822
aS'water'
p2823
aS','
p2824
aS'on'
p2825
aS'which'
p2826
aS'all'
p2827
aS'the'
p2828
aS'waves'
p2829
aS'fell'
p2830
aS'into'
p2831
aS'it'
p2832
aS'just'
p2833
aS'as'
p2834
aS'if'
p2835
aS'it'
p2836
aS'had'
p2837
aS'been'
p2838
aS'a'
p2839
aS'whirlpool'
p2840
aS','
p2841
aS'and'
p2842
aS'he'
p2843
aS'drank'
p2844
aS'up'
p2845
aS'the'
p2846
aS'whole'
p2847
aS'sea'
p2848
aS'till'
p2849
aS'it'
p2850
aS'was'
p2851
aS'as'
p2852
aS'dry'
p2853
aS'as'
p2854
aS'a'
p2855
aS'meadow'
p2856
aS'.'
p2857
asg45
(lp2858
V``
p2859
aVOh
p2860
ag59
ag855
aVthat
p2861
aVall
p2862
ag59
aV''
p2863
aVcry
p2864
aVthe
p2865
aVstout
p2866
aVone
p2867
ag59
aVand
p2868
aVlay
p2869
aVdown
p2870
aVand
p2871
aVput
p2872
aVhis
p2873
aVmouth
p2874
aVto
p2875
aVthe
p2876
aVwater
p2877
ag59
aVon
p2878
aVwhich
p2879
aVall
p2880
aVthe
p2881
aVwave
p2882
aVfell
p2883
aVinto
p2884
aVit
p2885
aVjust
p2886
ag57
aVif
p2887
aVit
p2888
ag143
ag236
ag57
aVwhirlpool
p2889
ag59
aVand
p2890
aVhe
p2891
aVdrink
p2892
aVup
p2893
aVthe
p2894
aVwhole
p2895
aVsea
p2896
aVtill
p2897
aVit
p2898
ag56
ag57
aVdry
p2899
ag57
ag57
aVmeadow
p2900
ag70
asg71
(lp2901
g73
ag73
ag73
ag73
ag73
ag73
ag73
ag73
ag73
ag73
ag73
ag73
ag73
ag73
ag73
ag73
ag73
ag73
ag73
ag73
ag73
ag73
ag73
ag73
ag73
ag73
ag73
ag73
ag73
ag73
ag73
ag73
ag73
ag73
ag73
ag73
ag73
ag73
ag73
ag73
ag73
ag73
ag73
ag73
ag73
ag73
ag73
ag73
ag73
ag73
ag73
ag73
ag73
ag73
ag73
ag73
ag73
asg74
(lp2902
g350
ag870
ag85
ag871
ag76
ag80
ag85
ag353
ag84
ag80
ag82
ag462
ag85
ag86
ag84
ag278
ag86
ag84
ag87
ag82
ag176
ag80
ag82
ag85
ag76
ag590
ag80
ag80
ag78
ag84
ag76
ag178
ag79
ag76
ag76
ag178
ag84
ag77
ag80
ag82
ag85
ag86
ag178
ag84
ag278
ag80
ag81
ag82
ag82
ag178
ag84
ag76
ag81
ag76
ag80
ag82
ag89
asg90
V"Oh, is that all," cried the stout one, and lay down and put his mouth to the water, on which all the waves fell into it just as if it had been a whirlpool, and he drank up the whole sea till it was as dry as a meadow.
p2903
sba(i__main__
Sentence
p2904
(dp2905
g17
I56
sg18
(lp2906
S'The'
p2907
aS'tall'
p2908
aS'one'
p2909
aS'stooped'
p2910
aS'down'
p2911
aS'a'
p2912
aS'little'
p2913
aS','
p2914
aS'and'
p2915
aS'brought'
p2916
aS'out'
p2917
aS'the'
p2918
aS'ring'
p2919
aS'with'
p2920
aS'his'
p2921
aS'hand'
p2922
aS'.'
p2923
asg45
(lp2924
VThe
p2925
aVtall
p2926
aVone
p2927
aVstooped
p2928
aVdown
p2929
ag57
aVlittle
p2930
ag59
aVand
p2931
aVbring
p2932
aVout
p2933
aVthe
p2934
aVring
p2935
aVwith
p2936
aVhis
p2937
aVhand
p2938
ag70
asg71
(lp2939
g73
ag73
ag73
ag73
ag73
ag73
ag73
ag73
ag73
ag73
ag73
ag73
ag73
ag73
ag73
ag73
ag73
asg74
(lp2940
g80
ag81
ag462
ag81
ag76
ag80
ag79
ag85
ag86
ag84
ag278
ag80
ag82
ag76
ag87
ag82
ag89
asg90
VThe tall one stooped down a little, and brought out the ring with his hand.
p2941
sba(i__main__
Sentence
p2942
(dp2943
g17
I57
sg18
(lp2944
S'Then'
p2945
aS'the'
p2946
aS'king'
p2947
aS"'s"
p2948
aS'son'
p2949
aS'rejoiced'
p2950
aS'when'
p2951
aS'he'
p2952
aS'had'
p2953
aS'the'
p2954
aS'ring'
p2955
aS','
p2956
aS'and'
p2957
aS'took'
p2958
aS'it'
p2959
aS'to'
p2960
aS'the'
p2961
aS'old'
p2962
aS'queen'
p2963
aS'.'
p2964
asg45
(lp2965
VThen
p2966
aVthe
p2967
aVking
p2968
aV's
p2969
aVson
p2970
aVrejoice
p2971
aVwhen
p2972
aVhe
p2973
ag143
aVthe
p2974
aVring
p2975
ag59
aVand
p2976
aVtake
p2977
aVit
p2978
aVto
p2979
aVthe
p2980
aVold
p2981
aVqueen
p2982
ag70
asg71
(lp2983
g73
ag73
ag73
ag73
ag73
ag73
ag73
ag73
ag73
ag73
ag73
ag73
ag73
ag73
ag73
ag73
ag73
ag73
ag73
ag73
asg74
(lp2984
g79
ag80
ag82
ag277
ag82
ag84
ag175
ag178
ag84
ag80
ag82
ag85
ag86
ag84
ag178
ag176
ag80
ag81
ag82
ag89
asg90
VThen the king's son rejoiced when he had the ring, and took it to the old queen.
p2985
sba(i__main__
Sentence
p2986
(dp2987
g17
I58
sg18
(lp2988
S'She'
p2989
aS'was'
p2990
aS'astonished'
p2991
aS','
p2992
aS'and'
p2993
aS'said'
p2994
aS','
p2995
aS'``'
p2996
aS'Yes'
p2997
aS','
p2998
aS'it'
p2999
aS'is'
p3000
aS'the'
p3001
aS'right'
p3002
aS'ring'
p3003
aS'.'
p3004
asg45
(lp3005
VShe
p3006
ag56
aVastonish
p3007
ag59
aVand
p3008
ag159
ag59
aV``
p3009
aVYes
p3010
ag59
aVit
p3011
ag855
aVthe
p3012
aVright
p3013
aVring
p3014
ag70
asg71
(lp3015
g73
ag73
ag73
ag73
ag73
ag73
ag73
ag73
ag73
ag73
ag73
ag73
ag73
ag73
ag73
ag73
asg74
(lp3016
g178
ag84
ag77
ag85
ag86
ag84
ag85
ag350
ag871
ag85
ag178
ag871
ag80
ag82
ag404
ag89
asg90
VShe was astonished, and said, "Yes, it is the right ring.
p3017
sba(i__main__
Sentence
p3018
(dp3019
g17
I59
sg18
(lp3020
S'You'
p3021
aS'have'
p3022
aS'safely'
p3023
aS'performed'
p3024
aS'the'
p3025
aS'first'
p3026
aS'task'
p3027
aS','
p3028
aS'but'
p3029
aS'now'
p3030
aS'comes'
p3031
aS'the'
p3032
aS'second'
p3033
aS'.'
p3034
asg45
(lp3035
VYou
p3036
aVhave
p3037
aVsafely
p3038
aVperform
p3039
aVthe
p3040
aVfirst
p3041
aVtask
p3042
ag59
aVbut
p3043
aVnow
p3044
aVcome
p3045
aVthe
p3046
aVsecond
p3047
ag70
asg71
(lp3048
g73
ag73
ag73
ag73
ag73
ag73
ag73
ag73
ag73
ag73
ag73
ag73
ag73
ag73
asg74
(lp3049
g178
ag352
ag79
ag77
ag80
ag81
ag82
ag85
ag86
ag79
ag871
ag80
ag81
ag89
asg90
VYou have safely performed the first task, but now comes the second.
p3050
sba(i__main__
Sentence
p3051
(dp3052
g17
I60
sg18
(lp3053
S'Do'
p3054
aS'you'
p3055
aS'see'
p3056
aS'the'
p3057
aS'meadow'
p3058
aS'in'
p3059
aS'front'
p3060
aS'of'
p3061
aS'my'
p3062
aS'palace'
p3063
aS'?'
p3064
asg45
(lp3065
VDo
p3066
aVyou
p3067
aVsee
p3068
aVthe
p3069
aVmeadow
p3070
aVin
p3071
aVfront
p3072
aVof
p3073
aVmy
p3074
aVpalace
p3075
ag809
asg71
(lp3076
g73
ag73
ag73
ag73
ag73
ag73
ag73
ag73
ag73
ag73
ag73
asg74
(lp3077
g351
ag178
ag177
ag80
ag82
ag76
ag82
ag76
ag87
ag82
ag89
asg90
VDo you see the meadow in front of my palace?
p3078
sba(i__main__
Sentence
p3079
(dp3080
g17
I61
sg18
(lp3081
S'Three'
p3082
aS'hundred'
p3083
aS'fat'
p3084
aS'oxen'
p3085
aS'are'
p3086
aS'feeding'
p3087
aS'there'
p3088
aS','
p3089
aS'and'
p3090
aS'these'
p3091
aS'must'
p3092
aS'you'
p3093
aS'eat'
p3094
aS','
p3095
aS'skin'
p3096
aS','
p3097
aS'hair'
p3098
aS','
p3099
aS'bones'
p3100
aS','
p3101
aS'horns'
p3102
aS'and'
p3103
aS'all'
p3104
aS','
p3105
aS'and'
p3106
aS'down'
p3107
aS'below'
p3108
aS'in'
p3109
aS'my'
p3110
aS'cellar'
p3111
aS'lie'
p3112
aS'three'
p3113
aS'hundred'
p3114
aS'casks'
p3115
aS'of'
p3116
aS'wine'
p3117
aS','
p3118
aS'and'
p3119
aS'these'
p3120
aS'you'
p3121
aS'must'
p3122
aS'drink'
p3123
aS'up'
p3124
aS'as'
p3125
aS'well'
p3126
aS','
p3127
aS'and'
p3128
aS'if'
p3129
aS'one'
p3130
aS'hair'
p3131
aS'of'
p3132
aS'the'
p3133
aS'oxen'
p3134
aS','
p3135
aS'or'
p3136
aS'one'
p3137
aS'little'
p3138
aS'drop'
p3139
aS'of'
p3140
aS'the'
p3141
aS'wine'
p3142
aS'is'
p3143
aS'left'
p3144
aS','
p3145
aS'your'
p3146
aS'life'
p3147
aS'will'
p3148
aS'be'
p3149
aS'forfeited'
p3150
aS'to'
p3151
aS'me'
p3152
aS'.'
p3153
aS"''"
p3154
asg45
(lp3155
VThree
p3156
aVhundred
p3157
aVfat
p3158
aVox
p3159
ag763
aVfeed
p3160
aVthere
p3161
ag59
aVand
p3162
aVthese
p3163
aVmust
p3164
aVyou
p3165
aVeat
p3166
ag59
aVskin
p3167
ag59
aVhair
p3168
ag59
aVbone
p3169
ag59
aVhorn
p3170
aVand
p3171
aVall
p3172
ag59
aVand
p3173
aVdown
p3174
aVbelow
p3175
aVin
p3176
aVmy
p3177
aVcellar
p3178
aVlie
p3179
aVthree
p3180
aVhundred
p3181
aVcask
p3182
aVof
p3183
aVwine
p3184
ag59
aVand
p3185
aVthese
p3186
aVyou
p3187
aVmust
p3188
aVdrink
p3189
aVup
p3190
ag57
aVwell
p3191
ag59
aVand
p3192
aVif
p3193
aVone
p3194
aVhair
p3195
aVof
p3196
aVthe
p3197
ag3159
ag59
aVor
p3198
aVone
p3199
aVlittle
p3200
aVdrop
p3201
aVof
p3202
aVthe
p3203
aVwine
p3204
ag855
aVleave
p3205
ag59
aVyour
p3206
aVlife
p3207
aVwill
p3208
aVbe
p3209
aVforfeit
p3210
aVto
p3211
aVme
p3212
ag70
aV''
p3213
asg71
(lp3214
g73
ag73
ag73
ag73
ag73
ag73
ag73
ag73
ag73
ag73
ag73
ag73
ag73
ag73
ag73
ag73
ag73
ag73
ag73
ag73
ag73
ag73
ag73
ag73
ag73
ag73
ag73
ag73
ag73
ag73
ag73
ag73
ag73
ag73
ag73
ag73
ag73
ag73
ag73
ag73
ag73
ag73
ag73
ag73
ag73
ag73
ag73
ag73
ag73
ag73
ag73
ag73
ag73
ag73
ag73
ag73
ag73
ag73
ag73
ag73
ag73
ag73
ag73
ag73
ag73
ag73
ag73
ag73
ag73
ag73
ag73
ag73
ag73
asg74
(lp3215
g462
ag77
ag81
ag82
ag352
ag404
ag79
ag85
ag86
ag80
ag179
ag178
ag177
ag85
ag82
ag85
ag82
ag85
ag78
ag85
ag78
ag86
ag80
ag85
ag86
ag79
ag76
ag76
ag87
ag82
ag82
ag462
ag462
ag78
ag76
ag82
ag85
ag86
ag80
ag178
ag179
ag177
ag278
ag76
ag79
ag85
ag86
ag76
ag462
ag82
ag76
ag80
ag82
ag85
ag86
ag462
ag81
ag82
ag76
ag80
ag82
ag871
ag77
ag85
ag87
ag82
ag179
ag177
ag77
ag176
ag178
ag89
ag353
asg90
VThree hundred fat oxen are feeding there, and these must you eat, skin, hair, bones, horns and all, and down below in my cellar lie three hundred casks of wine, and these you must drink up as well, and if one hair of the oxen, or one little drop of the wine is left, your life will be forfeited to me."
p3216
sba(i__main__
Sentence
p3217
(dp3218
g17
I62
sg18
(lp3219
S'``'
p3220
aS'May'
p3221
aS'I'
p3222
aS'invite'
p3223
aS'no'
p3224
aS'guests'
p3225
aS'to'
p3226
aS'this'
p3227
aS'repast'
p3228
aS'?'
p3229
aS"''"
p3230
asg45
(lp3231
V``
p3232
aVMay
p3233
ag340
aVinvite
p3234
aVno
p3235
aVguest
p3236
aVto
p3237
aVthis
p3238
aVrepast
p3239
ag809
aV''
p3240
asg71
(lp3241
g73
ag73
ag73
ag73
ag73
ag73
ag73
ag73
ag73
ag73
ag73
asg74
(lp3242
g350
ag351
ag178
ag352
ag80
ag78
ag176
ag80
ag82
ag89
ag353
asg90
V"May I invite no guests to this repast?"
p3243
sba(i__main__
Sentence
p3244
(dp3245
g17
I63
sg18
(lp3246
S'inquired'
p3247
aS'the'
p3248
aS'prince'
p3249
aS','
p3250
aS'``'
p3251
aS'No'
p3252
aS'dinner'
p3253
aS'is'
p3254
aS'good'
p3255
aS'without'
p3256
aS'some'
p3257
aS'company'
p3258
aS'.'
p3259
aS"''"
p3260
asg45
(lp3261
Vinquire
p3262
aVthe
p3263
aVprince
p3264
ag59
aV``
p3265
aVNo
p3266
aVdinner
p3267
ag855
aVgood
p3268
aVwithout
p3269
aVsome
p3270
aVcompany
p3271
ag70
aV''
p3272
asg71
(lp3273
g73
ag73
ag73
ag73
ag73
ag73
ag73
ag73
ag73
ag73
ag73
ag73
ag73
ag73
asg74
(lp3274
g84
ag80
ag82
ag85
ag350
ag80
ag82
ag871
ag81
ag76
ag80
ag82
ag89
ag353
asg90
Vinquired the prince, "No dinner is good without some company."
p3275
sba(i__main__
Sentence
p3276
(dp3277
g17
I64
sg18
(lp3278
S'The'
p3279
aS'old'
p3280
aS'woman'
p3281
aS'laughed'
p3282
aS'maliciously'
p3283
aS','
p3284
aS'and'
p3285
aS'replied'
p3286
aS','
p3287
aS'``'
p3288
aS'You'
p3289
aS'may'
p3290
aS'invite'
p3291
aS'one'
p3292
aS'for'
p3293
aS'the'
p3294
aS'sake'
p3295
aS'of'
p3296
aS'companionship'
p3297
aS','
p3298
aS'but'
p3299
aS'no'
p3300
aS'more'
p3301
aS'.'
p3302
aS"''"
p3303
asg45
(lp3304
VThe
p3305
aVold
p3306
aVwoman
p3307
aVlaugh
p3308
aVmaliciously
p3309
ag59
aVand
p3310
ag1043
ag59
aV``
p3311
aVYou
p3312
aVmay
p3313
aVinvite
p3314
aVone
p3315
aVfor
p3316
aVthe
p3317
aVsake
p3318
aVof
p3319
aVcompanionship
p3320
ag59
aVbut
p3321
aVno
p3322
aVmore
p3323
ag70
aV''
p3324
asg71
(lp3325
g73
ag73
ag73
ag73
ag73
ag73
ag73
ag73
ag73
ag73
ag73
ag73
ag73
ag73
ag73
ag73
ag73
ag73
ag73
ag73
ag73
ag73
ag73
ag73
ag73
asg74
(lp3326
g80
ag81
ag82
ag84
ag79
ag85
ag86
ag84
ag85
ag350
ag178
ag179
ag177
ag462
ag76
ag80
ag82
ag76
ag82
ag85
ag86
ag80
aS'RBR'
p3327
ag89
ag353
asg90
VThe old woman laughed maliciously, and replied, "You may invite one for the sake of companionship, but no more."
p3328
sba(i__main__
Sentence
p3329
(dp3330
g17
I65
sg18
(lp3331
S'The'
p3332
aS'king'
p3333
aS"'s"
p3334
aS'son'
p3335
aS'went'
p3336
aS'to'
p3337
aS'his'
p3338
aS'servants'
p3339
aS'and'
p3340
aS'said'
p3341
aS'to'
p3342
aS'the'
p3343
aS'stout'
p3344
aS'one'
p3345
aS','
p3346
aS'``'
p3347
aS'You'
p3348
aS'shall'
p3349
aS'be'
p3350
aS'my'
p3351
aS'guest'
p3352
aS'to-day'
p3353
aS','
p3354
aS'and'
p3355
aS'shall'
p3356
aS'eat'
p3357
aS'your'
p3358
aS'fill'
p3359
aS'.'
p3360
aS"''"
p3361
asg45
(lp3362
VThe
p3363
aVking
p3364
aV's
p3365
aVson
p3366
ag1308
aVto
p3367
aVhis
p3368
aVservant
p3369
aVand
p3370
ag159
aVto
p3371
aVthe
p3372
aVstout
p3373
aVone
p3374
ag59
aV``
p3375
aVYou
p3376
aVshall
p3377
aVbe
p3378
aVmy
p3379
aVguest
p3380
aVto-day
p3381
ag59
aVand
p3382
aVshall
p3383
aVeat
p3384
aVyour
p3385
aVfill
p3386
ag70
aV''
p3387
asg71
(lp3388
g73
ag73
ag73
ag73
ag73
ag73
ag73
ag73
ag73
ag73
ag73
ag73
ag73
ag73
ag73
ag73
ag73
ag73
ag73
ag73
ag73
ag73
ag73
ag73
ag73
ag73
ag73
ag73
ag73
ag73
asg74
(lp3389
g80
ag82
ag277
ag82
ag84
ag176
ag87
ag78
ag86
ag84
ag176
ag80
ag82
ag462
ag85
ag350
ag178
ag179
ag177
ag87
ag82
ag82
ag85
ag86
ag179
ag177
ag87
ag82
ag89
ag353
asg90
VThe king's son went to his servants and said to the stout one, "You shall be my guest to-day, and shall eat your fill."
p3390
sba(i__main__
Sentence
p3391
(dp3392
g17
I66
sg18
(lp3393
S'Hereupon'
p3394
aS'the'
p3395
aS'stout'
p3396
aS'one'
p3397
aS'puffed'
p3398
aS'himself'
p3399
aS'up'
p3400
aS'and'
p3401
aS'ate'
p3402
aS'the'
p3403
aS'three'
p3404
aS'hundred'
p3405
aS'oxen'
p3406
aS'without'
p3407
aS'leaving'
p3408
aS'one'
p3409
aS'single'
p3410
aS'hair'
p3411
aS','
p3412
aS'and'
p3413
aS'then'
p3414
aS'he'
p3415
aS'asked'
p3416
aS'if'
p3417
aS'he'
p3418
aS'was'
p3419
aS'to'
p3420
aS'have'
p3421
aS'nothing'
p3422
aS'but'
p3423
aS'his'
p3424
aS'breakfast'
p3425
aS'.'
p3426
asg45
(lp3427
VHereupon
p3428
aVthe
p3429
aVstout
p3430
aVone
p3431
aVpuff
p3432
aVhimself
p3433
aVup
p3434
aVand
p3435
aVate
p3436
aVthe
p3437
aVthree
p3438
aVhundred
p3439
ag3159
aVwithout
p3440
aVleaving
p3441
aVone
p3442
aVsingle
p3443
aVhair
p3444
ag59
aVand
p3445
aVthen
p3446
aVhe
p3447
aVask
p3448
aVif
p3449
aVhe
p3450
ag56
aVto
p3451
aVhave
p3452
aVnothing
p3453
aVbut
p3454
aVhis
p3455
aVbreakfast
p3456
ag70
asg71
(lp3457
VPERSON
p3458
ag73
ag73
ag73
ag73
ag73
ag73
ag73
ag73
ag73
ag73
ag73
ag73
ag73
ag73
ag73
ag73
ag73
ag73
ag73
ag73
ag73
ag73
ag73
ag73
ag73
ag73
ag73
ag73
ag73
ag73
ag73
ag73
asg74
(lp3459
g351
ag80
ag82
ag462
ag77
ag178
ag278
ag86
ag81
ag80
ag462
ag462
ag462
ag76
ag82
ag462
ag81
ag82
ag85
ag86
ag79
ag178
ag84
ag76
ag178
ag84
ag176
ag177
ag82
ag86
ag87
ag82
ag89
asg90
VHereupon the stout one puffed himself up and ate the three hundred oxen without leaving one single hair, and then he asked if he was to have nothing but his breakfast.
p3460
sba(i__main__
Sentence
p3461
(dp3462
g17
I67
sg18
(lp3463
S'Then'
p3464
aS'he'
p3465
aS'drank'
p3466
aS'the'
p3467
aS'wine'
p3468
aS'straight'
p3469
aS'from'
p3470
aS'the'
p3471
aS'casks'
p3472
aS'without'
p3473
aS'feeling'
p3474
aS'any'
p3475
aS'need'
p3476
aS'of'
p3477
aS'a'
p3478
aS'glass'
p3479
aS','
p3480
aS'and'
p3481
aS'drained'
p3482
aS'them'
p3483
aS'down'
p3484
aS'to'
p3485
aS'their'
p3486
aS'dregs'
p3487
aS'.'
p3488
asg45
(lp3489
VThen
p3490
aVhe
p3491
ag2892
aVthe
p3492
aVwine
p3493
aVstraight
p3494
aVfrom
p3495
aVthe
p3496
aVcask
p3497
aVwithout
p3498
aVfeel
p3499
aVany
p3500
aVneed
p3501
aVof
p3502
ag57
aVglass
p3503
ag59
aVand
p3504
aVdrain
p3505
aVthem
p3506
aVdown
p3507
aVto
p3508
aVtheir
p3509
aVdreg
p3510
ag70
asg71
(lp3511
g73
ag73
ag73
ag73
ag73
ag73
ag73
ag73
ag73
ag73
ag73
ag73
ag73
ag73
ag73
ag73
ag73
ag73
ag73
ag73
ag73
ag73
ag73
ag73
ag73
asg74
(lp3512
g79
ag178
ag84
ag80
ag82
ag82
ag76
ag80
ag78
ag76
ag404
ag80
ag82
ag76
ag80
ag82
ag85
ag86
ag84
ag178
ag76
ag176
ag87
ag78
ag89
asg90
VThen he drank the wine straight from the casks without feeling any need of a glass, and drained them down to their dregs.
p3513
sba(i__main__
Sentence
p3514
(dp3515
g17
I68
sg18
(lp3516
S'When'
p3517
aS'the'
p3518
aS'meal'
p3519
aS'was'
p3520
aS'over'
p3521
aS','
p3522
aS'the'
p3523
aS'prince'
p3524
aS'went'
p3525
aS'to'
p3526
aS'the'
p3527
aS'old'
p3528
aS'woman'
p3529
aS','
p3530
aS'and'
p3531
aS'told'
p3532
aS'her'
p3533
aS'that'
p3534
aS'the'
p3535
aS'second'
p3536
aS'task'
p3537
aS'also'
p3538
aS'was'
p3539
aS'performed'
p3540
aS'.'
p3541
asg45
(lp3542
VWhen
p3543
aVthe
p3544
aVmeal
p3545
ag56
aVover
p3546
ag59
aVthe
p3547
aVprince
p3548
ag1308
aVto
p3549
aVthe
p3550
aVold
p3551
aVwoman
p3552
ag59
aVand
p3553
aVtell
p3554
aVher
p3555
aVthat
p3556
aVthe
p3557
aVsecond
p3558
aVtask
p3559
aValso
p3560
ag56
aVperform
p3561
ag70
asg71
(lp3562
g73
ag73
ag73
ag73
ag73
ag73
ag73
ag73
ag73
ag73
ag73
ag73
ag73
ag73
ag73
ag73
ag73
ag73
ag73
ag73
ag73
ag73
ag73
ag73
ag73
asg74
(lp3563
g175
ag80
ag82
ag84
ag76
ag85
ag80
ag82
ag84
ag176
ag80
ag81
ag82
ag85
ag86
ag84
ag178
ag76
ag80
ag81
ag82
ag79
ag84
ag77
ag89
asg90
VWhen the meal was over, the prince went to the old woman, and told her that the second task also was performed.
p3564
sba(i__main__
Sentence
p3565
(dp3566
g17
I69
sg18
(lp3567
S'She'
p3568
aS'wondered'
p3569
aS'at'
p3570
aS'this'
p3571
aS'and'
p3572
aS'said'
p3573
aS','
p3574
aS'``'
p3575
aS'No'
p3576
aS'one'
p3577
aS'has'
p3578
aS'ever'
p3579
aS'done'
p3580
aS'so'
p3581
aS'much'
p3582
aS'before'
p3583
aS','
p3584
aS'but'
p3585
aS'one'
p3586
aS'task'
p3587
aS'still'
p3588
aS'remains'
p3589
aS','
p3590
aS"''"
p3591
aS'and'
p3592
aS'she'
p3593
aS'thought'
p3594
aS'to'
p3595
aS'herself'
p3596
aS','
p3597
aS'``'
p3598
aS'You'
p3599
aS'shall'
p3600
aS'not'
p3601
aS'escape'
p3602
aS'me'
p3603
aS','
p3604
aS'and'
p3605
aS'will'
p3606
aS'not'
p3607
aS'keep'
p3608
aS'your'
p3609
aS'head'
p3610
aS'on'
p3611
aS'your'
p3612
aS'shoulders'
p3613
aS'.'
p3614
aS"''"
p3615
asg45
(lp3616
VShe
p3617
aVwonder
p3618
aVat
p3619
aVthis
p3620
aVand
p3621
ag159
ag59
aV``
p3622
aVNo
p3623
aVone
p3624
ag1179
aVever
p3625
aVdo
p3626
aVso
p3627
aVmuch
p3628
aVbefore
p3629
ag59
aVbut
p3630
aVone
p3631
aVtask
p3632
aVstill
p3633
aVremain
p3634
ag59
aV''
p3635
aVand
p3636
aVshe
p3637
aVthink
p3638
aVto
p3639
aVherself
p3640
ag59
aV``
p3641
aVYou
p3642
aVshall
p3643
aVnot
p3644
aVescape
p3645
aVme
p3646
ag59
aVand
p3647
aVwill
p3648
aVnot
p3649
aVkeep
p3650
aVyour
p3651
aVhead
p3652
aVon
p3653
aVyour
p3654
aVshoulder
p3655
ag70
aV''
p3656
asg71
(lp3657
g73
ag73
ag73
ag73
ag73
ag73
ag73
ag73
ag73
ag73
ag73
ag73
ag73
ag73
ag73
ag73
ag73
ag73
ag73
ag73
ag73
ag73
ag73
ag73
ag73
ag73
ag73
ag73
ag73
ag73
ag73
ag73
ag73
ag73
ag73
ag73
ag73
ag73
ag73
ag73
ag73
ag73
ag73
ag73
ag73
ag73
ag73
ag73
asg74
(lp3658
g178
ag84
ag76
ag80
ag86
ag84
ag85
ag350
ag80
ag82
ag871
ag79
ag77
ag79
ag79
ag76
ag85
ag86
ag462
ag82
ag79
ag871
ag85
ag353
ag86
ag178
ag84
ag176
ag178
ag85
ag350
ag178
ag179
ag79
ag177
ag178
ag85
ag86
ag179
ag79
ag177
ag87
ag82
ag76
ag87
ag78
ag89
ag353
asg90
VShe wondered at this and said, "No one has ever done so much before, but one task still remains," and she thought to herself, "You shall not escape me, and will not keep your head on your shoulders."
p3659
sba(i__main__
Sentence
p3660
(dp3661
g17
I70
sg18
(lp3662
S'``'
p3663
aS'This'
p3664
aS'night'
p3665
aS','
p3666
aS"''"
p3667
aS'said'
p3668
aS'she'
p3669
aS','
p3670
aS'``'
p3671
aS'I'
p3672
aS'will'
p3673
aS'bring'
p3674
aS'my'
p3675
aS'daughter'
p3676
aS'to'
p3677
aS'you'
p3678
aS'in'
p3679
aS'your'
p3680
aS'chamber'
p3681
aS','
p3682
aS'and'
p3683
aS'you'
p3684
aS'shall'
p3685
aS'put'
p3686
aS'your'
p3687
aS'arms'
p3688
aS'round'
p3689
aS'her'
p3690
aS','
p3691
aS'but'
p3692
aS'when'
p3693
aS'you'
p3694
aS'are'
p3695
aS'sitting'
p3696
aS'there'
p3697
aS'together'
p3698
aS','
p3699
aS'beware'
p3700
aS'of'
p3701
aS'falling'
p3702
aS'asleep'
p3703
aS'.'
p3704
asg45
(lp3705
V``
p3706
aVThis
p3707
aVnight
p3708
ag59
aV''
p3709
ag159
aVshe
p3710
ag59
aV``
p3711
ag340
aVwill
p3712
aVbring
p3713
aVmy
p3714
aVdaughter
p3715
aVto
p3716
aVyou
p3717
aVin
p3718
aVyour
p3719
aVchamber
p3720
ag59
aVand
p3721
aVyou
p3722
aVshall
p3723
aVput
p3724
aVyour
p3725
aVarm
p3726
aVround
p3727
aVher
p3728
ag59
aVbut
p3729
aVwhen
p3730
aVyou
p3731
ag763
ag1596
aVthere
p3732
aVtogether
p3733
ag59
aVbeware
p3734
aVof
p3735
aVfall
p3736
aVasleep
p3737
ag70
asg71
(lp3738
g73
ag73
ag73
ag73
ag73
ag73
ag73
ag73
ag73
ag73
ag73
ag73
ag73
ag73
ag73
ag73
ag73
ag73
ag73
ag73
ag73
ag73
ag73
ag73
ag73
ag73
ag73
ag73
ag73
ag73
ag73
ag73
ag73
ag73
ag73
ag73
ag73
ag73
ag73
ag73
ag73
ag73
asg74
(lp3739
g350
ag80
ag82
ag85
ag353
ag84
ag178
ag85
ag350
ag178
ag179
ag177
ag87
ag82
ag176
ag178
ag76
ag87
ag82
ag85
ag86
ag178
ag179
ag177
ag87
ag78
ag82
ag178
ag85
ag86
ag175
ag178
ag352
ag404
ag79
ag79
ag85
ag352
ag76
ag404
ag82
ag89
asg90
V"This night," said she, "I will bring my daughter to you in your chamber, and you shall put your arms round her, but when you are sitting there together, beware of falling asleep.
p3740
sba(i__main__
Sentence
p3741
(dp3742
g17
I71
sg18
(lp3743
S'When'
p3744
aS'twelve'
p3745
aS"o'clock"
p3746
aS'is'
p3747
aS'striking'
p3748
aS','
p3749
aS'I'
p3750
aS'will'
p3751
aS'come'
p3752
aS','
p3753
aS'and'
p3754
aS'if'
p3755
aS'she'
p3756
aS'is'
p3757
aS'then'
p3758
aS'no'
p3759
aS'longer'
p3760
aS'in'
p3761
aS'your'
p3762
aS'arms'
p3763
aS','
p3764
aS'you'
p3765
aS'are'
p3766
aS'lost'
p3767
aS'.'
p3768
aS"''"
p3769
asg45
(lp3770
VWhen
p3771
aVtwelve
p3772
aVo'clock
p3773
ag855
aVstrike
p3774
ag59
ag340
aVwill
p3775
aVcome
p3776
ag59
aVand
p3777
aVif
p3778
aVshe
p3779
ag855
aVthen
p3780
aVno
p3781
aVlonger
p3782
aVin
p3783
aVyour
p3784
aVarm
p3785
ag59
aVyou
p3786
ag763
aVlose
p3787
ag70
aV''
p3788
asg71
(lp3789
g73
ag73
ag73
ag73
ag73
ag73
ag73
ag73
ag73
ag73
ag73
ag73
ag73
ag73
ag73
ag73
ag73
ag73
ag73
ag73
ag73
ag73
ag73
ag73
ag73
ag73
asg74
(lp3790
g175
ag352
ag81
ag871
ag404
ag85
ag178
ag179
ag177
ag85
ag86
ag76
ag178
ag871
ag79
ag80
ag82
ag76
ag87
ag78
ag85
ag178
ag352
ag77
ag89
ag353
asg90
VWhen twelve o'clock is striking, I will come, and if she is then no longer in your arms, you are lost."
p3791
sba(i__main__
Sentence
p3792
(dp3793
g17
I72
sg18
(lp3794
S'The'
p3795
aS'prince'
p3796
aS'thought'
p3797
aS','
p3798
aS'``'
p3799
aS'The'
p3800
aS'task'
p3801
aS'is'
p3802
aS'easy'
p3803
aS','
p3804
aS'I'
p3805
aS'will'
p3806
aS'most'
p3807
aS'certainly'
p3808
aS'keep'
p3809
aS'my'
p3810
aS'eyes'
p3811
aS'open'
p3812
aS'.'
p3813
aS"''"
p3814
asg45
(lp3815
VThe
p3816
aVprince
p3817
ag3638
ag59
aV``
p3818
aVThe
p3819
aVtask
p3820
ag855
aVeasy
p3821
ag59
ag340
aVwill
p3822
aVmost
p3823
aVcertainly
p3824
aVkeep
p3825
aVmy
p3826
aVeye
p3827
aVopen
p3828
ag70
aV''
p3829
asg71
(lp3830
g73
ag73
ag73
ag73
ag73
ag73
ag73
ag73
ag73
ag73
ag73
ag73
ag73
ag73
ag73
ag73
ag73
ag73
ag73
ag73
asg74
(lp3831
g80
ag82
ag84
ag85
ag350
ag80
ag82
ag871
ag81
ag85
ag178
ag179
ag177
ag79
ag177
ag87
ag78
ag81
ag89
ag353
asg90
VThe prince thought, "The task is easy, I will most certainly keep my eyes open."
p3832
sba(i__main__
Sentence
p3833
(dp3834
g17
I73
sg18
(lp3835
S'Nevertheless'
p3836
aS'he'
p3837
aS'called'
p3838
aS'his'
p3839
aS'servants'
p3840
aS','
p3841
aS'told'
p3842
aS'them'
p3843
aS'what'
p3844
aS'the'
p3845
aS'old'
p3846
aS'woman'
p3847
aS'had'
p3848
aS'said'
p3849
aS','
p3850
aS'and'
p3851
aS'remarked'
p3852
aS','
p3853
aS'``'
p3854
aS'Who'
p3855
aS'knows'
p3856
aS'what'
p3857
aS'treachery'
p3858
aS'lurks'
p3859
aS'behind'
p3860
aS'this'
p3861
aS'?'
p3862
asg45
(lp3863
VNevertheless
p3864
aVhe
p3865
aVcall
p3866
aVhis
p3867
aVservant
p3868
ag59
ag3554
aVthem
p3869
aVwhat
p3870
aVthe
p3871
aVold
p3872
aVwoman
p3873
ag143
ag159
ag59
aVand
p3874
aVremark
p3875
ag59
aV``
p3876
aVWho
p3877
aVknow
p3878
aVwhat
p3879
aVtreachery
p3880
aVlurk
p3881
aVbehind
p3882
aVthis
p3883
ag809
asg71
(lp3884
g73
ag73
ag73
ag73
ag73
ag73
ag73
ag73
ag73
ag73
ag73
ag73
ag73
ag73
ag73
ag73
ag73
ag73
ag73
ag73
ag73
ag73
ag73
ag73
ag73
ag73
ag73
asg74
(lp3885
g79
ag178
ag84
ag87
ag78
ag85
ag84
ag178
ag83
ag80
ag81
ag82
ag84
ag77
ag85
ag86
ag84
ag85
ag350
ag83
ag871
ag83
ag79
ag871
ag76
ag80
ag89
asg90
VNevertheless he called his servants, told them what the old woman had said, and remarked, "Who knows what treachery lurks behind this?
p3886
sba(i__main__
Sentence
p3887
(dp3888
g17
I74
sg18
(lp3889
S'Foresight'
p3890
aS'is'
p3891
aS'a'
p3892
aS'good'
p3893
aS'thing'
p3894
aS'-'
p3895
aS'keep'
p3896
aS'watch'
p3897
aS','
p3898
aS'and'
p3899
aS'take'
p3900
aS'care'
p3901
aS'that'
p3902
aS'the'
p3903
aS'maiden'
p3904
aS'does'
p3905
aS'not'
p3906
aS'go'
p3907
aS'out'
p3908
aS'of'
p3909
aS'my'
p3910
aS'room'
p3911
aS'again'
p3912
aS'.'
p3913
aS"''"
p3914
asg45
(lp3915
VForesight
p3916
ag855
ag57
aVgood
p3917
aVthing
p3918
aV-
p3919
aVkeep
p3920
aVwatch
p3921
ag59
aVand
p3922
aVtake
p3923
aVcare
p3924
aVthat
p3925
aVthe
p3926
aVmaiden
p3927
aVdo
p3928
aVnot
p3929
aVgo
p3930
aVout
p3931
aVof
p3932
aVmy
p3933
aVroom
p3934
aVagain
p3935
ag70
aV''
p3936
asg71
(lp3937
g73
ag73
ag73
ag73
ag73
ag73
ag73
ag73
ag73
ag73
ag73
ag73
ag73
ag73
ag73
ag73
ag73
ag73
ag73
ag73
ag73
ag73
ag73
ag73
ag73
asg74
(lp3938
g351
ag871
ag80
ag81
ag82
aS':'
p3939
ag177
ag82
ag85
ag86
ag177
ag82
ag590
ag80
ag82
ag871
ag79
ag177
ag278
ag76
ag87
ag82
ag79
ag89
ag353
asg90
VForesight is a good thing - keep watch, and take care that the maiden does not go out of my room again."
p3940
sba(i__main__
Sentence
p3941
(dp3942
g17
I75
sg18
(lp3943
S'When'
p3944
aS'night'
p3945
aS'fell'
p3946
aS','
p3947
aS'the'
p3948
aS'old'
p3949
aS'woman'
p3950
aS'came'
p3951
aS'with'
p3952
aS'her'
p3953
aS'daughter'
p3954
aS','
p3955
aS'and'
p3956
aS'gave'
p3957
aS'her'
p3958
aS'into'
p3959
aS'the'
p3960
aS'princes'
p3961
aS"'s"
p3962
aS'arms'
p3963
aS','
p3964
aS'and'
p3965
aS'then'
p3966
aS'the'
p3967
aS'tall'
p3968
aS'one'
p3969
aS'wound'
p3970
aS'himself'
p3971
aS'round'
p3972
aS'the'
p3973
aS'two'
p3974
aS'in'
p3975
aS'a'
p3976
aS'circle'
p3977
aS','
p3978
aS'and'
p3979
aS'the'
p3980
aS'stout'
p3981
aS'one'
p3982
aS'placed'
p3983
aS'himself'
p3984
aS'by'
p3985
aS'the'
p3986
aS'door'
p3987
aS','
p3988
aS'so'
p3989
aS'that'
p3990
aS'no'
p3991
aS'living'
p3992
aS'creature'
p3993
aS'could'
p3994
aS'enter'
p3995
aS'.'
p3996
asg45
(lp3997
VWhen
p3998
aVnight
p3999
aVfell
p4000
ag59
aVthe
p4001
aVold
p4002
aVwoman
p4003
ag662
aVwith
p4004
aVher
p4005
aVdaughter
p4006
ag59
aVand
p4007
aVgive
p4008
aVher
p4009
aVinto
p4010
aVthe
p4011
aVprince
p4012
aV's
p4013
aVarm
p4014
ag59
aVand
p4015
aVthen
p4016
aVthe
p4017
aVtall
p4018
aVone
p4019
aVwound
p4020
aVhimself
p4021
aVround
p4022
aVthe
p4023
aVtwo
p4024
aVin
p4025
ag57
aVcircle
p4026
ag59
aVand
p4027
aVthe
p4028
aVstout
p4029
aVone
p4030
aVplace
p4031
aVhimself
p4032
aVby
p4033
aVthe
p4034
aVdoor
p4035
ag59
aVso
p4036
aVthat
p4037
aVno
p4038
aVliving
p4039
aVcreature
p4040
aVcould
p4041
aVenter
p4042
ag70
asg71
(lp4043
g73
ag73
ag73
ag73
ag73
ag73
ag73
ag73
ag73
ag73
ag73
ag73
ag73
ag73
ag73
ag73
ag73
ag73
ag73
ag73
ag73
ag73
ag73
ag73
ag73
ag73
ag73
ag73
ag73
ag73
ag73
ag73
ag73
ag73
ag73
ag73
ag73
ag73
ag73
ag73
ag73
ag73
ag73
ag73
ag73
ag73
ag73
ag73
ag73
ag73
ag73
ag73
ag73
asg74
(lp4044
g175
ag82
ag84
ag85
ag80
ag81
ag82
ag84
ag76
ag87
ag82
ag85
ag86
ag84
ag178
ag76
ag80
ag78
ag277
ag78
ag85
ag86
ag79
ag80
ag82
ag462
ag82
ag178
ag84
ag80
ag462
ag76
ag80
ag82
ag85
ag86
ag80
ag82
ag462
ag77
ag178
ag76
ag80
ag82
ag85
ag79
ag76
ag80
ag82
ag82
ag179
ag177
ag89
asg90
VWhen night fell, the old woman came with her daughter, and gave her into the princes's arms, and then the tall one wound himself round the two in a circle, and the stout one placed himself by the door, so that no living creature could enter.
p4045
sba(i__main__
Sentence
p4046
(dp4047
g17
I76
sg18
(lp4048
S'There'
p4049
aS'the'
p4050
aS'two'
p4051
aS'sat'
p4052
aS','
p4053
aS'and'
p4054
aS'the'
p4055
aS'maiden'
p4056
aS'spoke'
p4057
aS'never'
p4058
aS'a'
p4059
aS'word'
p4060
aS','
p4061
aS'but'
p4062
aS'the'
p4063
aS'moon'
p4064
aS'shone'
p4065
aS'through'
p4066
aS'the'
p4067
aS'window'
p4068
aS'on'
p4069
aS'her'
p4070
aS'face'
p4071
aS','
p4072
aS'and'
p4073
aS'the'
p4074
aS'prince'
p4075
aS'could'
p4076
aS'behold'
p4077
aS'her'
p4078
aS'wondrous'
p4079
aS'beauty'
p4080
aS'.'
p4081
asg45
(lp4082
VThere
p4083
aVthe
p4084
aVtwo
p4085
aVsat
p4086
ag59
aVand
p4087
aVthe
p4088
aVmaiden
p4089
aVspoke
p4090
aVnever
p4091
ag57
aVword
p4092
ag59
aVbut
p4093
aVthe
p4094
aVmoon
p4095
aVshone
p4096
aVthrough
p4097
aVthe
p4098
aVwindow
p4099
aVon
p4100
aVher
p4101
aVface
p4102
ag59
aVand
p4103
aVthe
p4104
aVprince
p4105
aVcould
p4106
aVbehold
p4107
aVher
p4108
aVwondrous
p4109
aVbeauty
p4110
ag70
asg71
(lp4111
g73
ag73
ag73
ag73
ag73
ag73
ag73
ag73
ag73
ag73
ag73
ag73
ag73
ag73
ag73
ag73
ag73
ag73
ag73
ag73
ag73
ag73
ag73
ag73
ag73
ag73
ag73
ag73
ag73
ag73
ag73
ag73
ag73
asg74
(lp4112
g712
ag80
ag462
ag81
ag85
ag86
ag80
ag82
ag82
ag79
ag80
ag82
ag85
ag86
ag80
ag82
ag82
ag76
ag80
ag82
ag76
ag87
ag82
ag85
ag86
ag80
ag82
ag179
ag177
ag178
ag81
ag82
ag89
asg90
VThere the two sat, and the maiden spoke never a word, but the moon shone through the window on her face, and the prince could behold her wondrous beauty.
p4113
sba(i__main__
Sentence
p4114
(dp4115
g17
I77
sg18
(lp4116
S'He'
p4117
aS'did'
p4118
aS'nothing'
p4119
aS'but'
p4120
aS'gaze'
p4121
aS'at'
p4122
aS'her'
p4123
aS','
p4124
aS'and'
p4125
aS'was'
p4126
aS'filled'
p4127
aS'with'
p4128
aS'love'
p4129
aS'and'
p4130
aS'happiness'
p4131
aS','
p4132
aS'and'
p4133
aS'his'
p4134
aS'eyes'
p4135
aS'never'
p4136
aS'felt'
p4137
aS'weary'
p4138
aS'.'
p4139
asg45
(lp4140
VHe
p4141
ag2393
aVnothing
p4142
aVbut
p4143
aVgaze
p4144
aVat
p4145
aVher
p4146
ag59
aVand
p4147
ag56
aVfill
p4148
aVwith
p4149
aVlove
p4150
aVand
p4151
aVhappiness
p4152
ag59
aVand
p4153
aVhis
p4154
aVeye
p4155
aVnever
p4156
aVfelt
p4157
aVweary
p4158
ag70
asg71
(lp4159
g73
ag73
ag73
ag73
ag73
ag73
ag73
ag73
ag73
ag73
ag73
ag73
ag73
ag73
ag73
ag73
ag73
ag73
ag73
ag73
ag73
ag73
ag73
asg74
(lp4160
g178
ag84
ag404
ag86
ag82
ag76
ag87
ag85
ag86
ag84
ag77
ag76
ag81
ag86
ag82
ag85
ag86
ag87
ag78
ag79
ag84
ag81
ag89
asg90
VHe did nothing but gaze at her, and was filled with love and happiness, and his eyes never felt weary.
p4161
sba(i__main__
Sentence
p4162
(dp4163
g17
I78
sg18
(lp4164
S'This'
p4165
aS'lasted'
p4166
aS'until'
p4167
aS'eleven'
p4168
aS"o'clock"
p4169
aS','
p4170
aS'when'
p4171
aS'the'
p4172
aS'old'
p4173
aS'woman'
p4174
aS'cast'
p4175
aS'such'
p4176
aS'a'
p4177
aS'spell'
p4178
aS'over'
p4179
aS'all'
p4180
aS'of'
p4181
aS'them'
p4182
aS'that'
p4183
aS'they'
p4184
aS'fell'
p4185
aS'asleep'
p4186
aS','
p4187
aS'and'
p4188
aS'at'
p4189
aS'the'
p4190
aS'self-same'
p4191
aS'moment'
p4192
aS'the'
p4193
aS'maiden'
p4194
aS'was'
p4195
aS'carried'
p4196
aS'away'
p4197
aS'.'
p4198
asg45
(lp4199
VThis
p4200
aVlast
p4201
aVuntil
p4202
aVeleven
p4203
aVo'clock
p4204
ag59
aVwhen
p4205
aVthe
p4206
aVold
p4207
aVwoman
p4208
aVcast
p4209
aVsuch
p4210
ag57
aVspell
p4211
aVover
p4212
aVall
p4213
aVof
p4214
aVthem
p4215
aVthat
p4216
aVthey
p4217
aVfell
p4218
aVasleep
p4219
ag59
aVand
p4220
aVat
p4221
aVthe
p4222
aVself-same
p4223
aVmoment
p4224
aVthe
p4225
aVmaiden
p4226
ag56
aVcarry
p4227
aVaway
p4228
ag70
asg71
(lp4229
g73
ag73
ag73
ag73
ag73
ag73
ag73
ag73
ag73
ag73
ag73
ag73
ag73
ag73
ag73
ag73
ag73
ag73
ag73
ag73
ag73
ag73
ag73
ag73
ag73
ag73
ag73
ag73
ag73
ag73
ag73
ag73
ag73
ag73
asg74
(lp4230
g80
ag77
ag76
ag81
ag82
ag85
ag175
ag80
ag81
ag82
ag82
ag81
ag80
ag82
ag76
ag80
ag76
ag178
ag76
ag178
ag84
ag177
ag85
ag86
ag76
ag80
ag81
ag82
ag80
ag82
ag84
ag77
ag79
ag89
asg90
VThis lasted until eleven o'clock, when the old woman cast such a spell over all of them that they fell asleep, and at the self-same moment the maiden was carried away.
p4231
sba(i__main__
Sentence
p4232
(dp4233
g17
I79
sg18
(lp4234
S'Then'
p4235
aS'they'
p4236
aS'all'
p4237
aS'slept'
p4238
aS'soundly'
p4239
aS'until'
p4240
aS'a'
p4241
aS'quarter'
p4242
aS'to'
p4243
aS'twelve'
p4244
aS','
p4245
aS'when'
p4246
aS'the'
p4247
aS'magic'
p4248
aS'lost'
p4249
aS'its'
p4250
aS'power'
p4251
aS','
p4252
aS'and'
p4253
aS'all'
p4254
aS'awoke'
p4255
aS'again'
p4256
aS'.'
p4257
asg45
(lp4258
VThen
p4259
aVthey
p4260
aVall
p4261
aVslept
p4262
aVsoundly
p4263
aVuntil
p4264
ag57
aVquarter
p4265
aVto
p4266
aVtwelve
p4267
ag59
aVwhen
p4268
aVthe
p4269
aVmagic
p4270
aVlost
p4271
aVit
p4272
aVpower
p4273
ag59
aVand
p4274
aVall
p4275
aVawoke
p4276
aVagain
p4277
ag70
asg71
(lp4278
g73
ag73
ag73
ag73
ag73
ag73
ag73
ag73
ag73
ag73
ag73
ag73
ag73
ag73
ag73
ag73
ag73
ag73
ag73
ag73
ag73
ag73
ag73
asg74
(lp4279
g79
ag178
ag80
ag81
ag79
ag76
ag80
ag82
ag176
ag177
ag85
ag175
ag80
ag81
ag82
ag87
ag82
ag85
ag86
ag80
ag82
ag79
ag89
asg90
VThen they all slept soundly until a quarter to twelve, when the magic lost its power, and all awoke again.
p4280
sba(i__main__
Sentence
p4281
(dp4282
g17
I80
sg18
(lp4283
S'``'
p4284
aS'Oh'
p4285
aS','
p4286
aS'misery'
p4287
aS'and'
p4288
aS'misfortune'
p4289
aS','
p4290
aS"''"
p4291
aS'cried'
p4292
aS'the'
p4293
aS'prince'
p4294
aS','
p4295
aS'``'
p4296
aS'now'
p4297
aS'I'
p4298
aS'am'
p4299
aS'lost'
p4300
aS'.'
p4301
aS"''"
p4302
asg45
(lp4303
V``
p4304
aVOh
p4305
ag59
aVmisery
p4306
aVand
p4307
aVmisfortune
p4308
ag59
aV''
p4309
ag2864
aVthe
p4310
aVprince
p4311
ag59
aV``
p4312
aVnow
p4313
ag340
ag862
ag3787
ag70
aV''
p4314
asg71
(lp4315
g73
ag73
ag73
ag73
ag73
ag73
ag73
ag73
ag73
ag73
ag73
ag73
ag73
ag73
ag73
ag73
ag73
ag73
ag73
asg74
(lp4316
g350
ag870
ag85
ag82
ag86
ag82
ag85
ag353
ag84
ag80
ag82
ag85
ag350
ag79
ag178
ag352
ag77
ag89
ag353
asg90
V"Oh, misery and misfortune," cried the prince, "now I am lost."
p4317
sba(i__main__
Sentence
p4318
(dp4319
g17
I81
sg18
(lp4320
S'The'
p4321
aS'faithful'
p4322
aS'servants'
p4323
aS'also'
p4324
aS'began'
p4325
aS'to'
p4326
aS'lament'
p4327
aS','
p4328
aS'but'
p4329
aS'the'
p4330
aS'listener'
p4331
aS'said'
p4332
aS','
p4333
aS'``'
p4334
aS'Be'
p4335
aS'quiet'
p4336
aS','
p4337
aS'I'
p4338
aS'want'
p4339
aS'to'
p4340
aS'listen'
p4341
aS'.'
p4342
aS"''"
p4343
asg45
(lp4344
VThe
p4345
aVfaithful
p4346
aVservant
p4347
aValso
p4348
aVbegin
p4349
aVto
p4350
aVlament
p4351
ag59
aVbut
p4352
aVthe
p4353
aVlistener
p4354
ag159
ag59
aV``
p4355
aVBe
p4356
aVquiet
p4357
ag59
ag340
aVwant
p4358
aVto
p4359
aVlisten
p4360
ag70
aV''
p4361
asg71
(lp4362
g73
ag73
ag73
ag73
ag73
ag73
ag73
ag73
ag73
ag73
ag73
ag73
ag73
ag73
ag73
ag73
ag73
ag73
ag73
ag73
ag73
ag73
ag73
asg74
(lp4363
g80
ag82
ag78
ag79
ag84
ag176
ag82
ag85
ag86
ag80
ag82
ag84
ag85
ag350
ag177
ag81
ag85
ag178
ag352
ag176
ag177
ag89
ag353
asg90
VThe faithful servants also began to lament, but the listener said, "Be quiet, I want to listen."
p4364
sba(i__main__
Sentence
p4365
(dp4366
g17
I82
sg18
(lp4367
S'Then'
p4368
aS'he'
p4369
aS'listened'
p4370
aS'for'
p4371
aS'an'
p4372
aS'instant'
p4373
aS'and'
p4374
aS'said'
p4375
aS','
p4376
aS'``'
p4377
aS'She'
p4378
aS'is'
p4379
aS'on'
p4380
aS'a'
p4381
aS'rock'
p4382
aS','
p4383
aS'three'
p4384
aS'hundred'
p4385
aS'leagues'
p4386
aS'from'
p4387
aS'hence'
p4388
aS','
p4389
aS'bewailing'
p4390
aS'her'
p4391
aS'fate'
p4392
aS'.'
p4393
asg45
(lp4394
VThen
p4395
aVhe
p4396
aVlisten
p4397
aVfor
p4398
aVan
p4399
aVinstant
p4400
aVand
p4401
ag159
ag59
aV``
p4402
aVShe
p4403
ag855
aVon
p4404
ag57
aVrock
p4405
ag59
aVthree
p4406
aVhundred
p4407
aVleague
p4408
aVfrom
p4409
aVhence
p4410
ag59
aVbewail
p4411
aVher
p4412
aVfate
p4413
ag70
asg71
(lp4414
g73
ag73
ag73
ag73
ag73
ag73
ag73
ag73
ag73
ag73
ag73
ag73
ag73
ag73
ag73
ag73
ag73
ag73
ag73
ag73
ag73
ag73
ag73
ag73
ag73
ag73
asg74
(lp4415
g79
ag178
ag84
ag76
ag80
ag81
ag86
ag84
ag85
ag350
ag178
ag871
ag76
ag80
ag82
ag85
ag462
ag77
ag78
ag76
ag82
ag85
ag404
ag178
ag82
ag89
asg90
VThen he listened for an instant and said, "She is on a rock, three hundred leagues from hence, bewailing her fate.
p4416
sba(i__main__
Sentence
p4417
(dp4418
g17
I83
sg18
(lp4419
S'You'
p4420
aS'alone'
p4421
aS','
p4422
aS'tall'
p4423
aS'one'
p4424
aS','
p4425
aS'can'
p4426
aS'help'
p4427
aS'her'
p4428
aS','
p4429
aS'if'
p4430
aS'you'
p4431
aS'will'
p4432
aS'stand'
p4433
aS'up'
p4434
aS','
p4435
aS'you'
p4436
aS'will'
p4437
aS'be'
p4438
aS'there'
p4439
aS'in'
p4440
aS'a'
p4441
aS'couple'
p4442
aS'of'
p4443
aS'steps'
p4444
aS'.'
p4445
aS"''"
p4446
asg45
(lp4447
VYou
p4448
aValone
p4449
ag59
aVtall
p4450
aVone
p4451
ag59
aVcan
p4452
aVhelp
p4453
aVher
p4454
ag59
aVif
p4455
aVyou
p4456
aVwill
p4457
aVstand
p4458
aVup
p4459
ag59
aVyou
p4460
aVwill
p4461
aVbe
p4462
aVthere
p4463
aVin
p4464
ag57
aVcouple
p4465
aVof
p4466
aVstep
p4467
ag70
aV''
p4468
asg71
(lp4469
g73
ag73
ag73
ag73
ag73
ag73
ag73
ag73
ag73
ag73
ag73
ag73
ag73
ag73
ag73
ag73
ag73
ag73
ag73
ag73
ag73
ag73
ag73
ag73
ag73
ag73
ag73
asg74
(lp4470
g178
ag79
ag85
ag81
ag462
ag85
ag179
ag177
ag178
ag85
ag76
ag178
ag179
ag177
ag278
ag85
ag178
ag179
ag177
ag79
ag76
ag80
ag82
ag76
ag78
ag89
ag353
asg90
VYou alone, tall one, can help her, if you will stand up, you will be there in a couple of steps."
p4471
sba(i__main__
Sentence
p4472
(dp4473
g17
I84
sg18
(lp4474
S'``'
p4475
aS'Yes'
p4476
aS','
p4477
aS"''"
p4478
aS'answered'
p4479
aS'the'
p4480
aS'tall'
p4481
aS'one'
p4482
aS','
p4483
aS'``'
p4484
aS'but'
p4485
aS'the'
p4486
aS'one'
p4487
aS'with'
p4488
aS'the'
p4489
aS'sharp'
p4490
aS'eyes'
p4491
aS'must'
p4492
aS'go'
p4493
aS'with'
p4494
aS'me'
p4495
aS','
p4496
aS'that'
p4497
aS'we'
p4498
aS'may'
p4499
aS'destroy'
p4500
aS'the'
p4501
aS'rock'
p4502
aS'.'
p4503
aS"''"
p4504
asg45
(lp4505
V``
p4506
aVYes
p4507
ag59
aV''
p4508
aVanswer
p4509
aVthe
p4510
aVtall
p4511
aVone
p4512
ag59
aV``
p4513
aVbut
p4514
aVthe
p4515
aVone
p4516
aVwith
p4517
aVthe
p4518
aVsharp
p4519
aVeye
p4520
aVmust
p4521
aVgo
p4522
aVwith
p4523
aVme
p4524
ag59
aVthat
p4525
aVwe
p4526
aVmay
p4527
aVdestroy
p4528
aVthe
p4529
aVrock
p4530
ag70
aV''
p4531
asg71
(lp4532
g73
ag73
ag73
ag73
ag73
ag73
ag73
ag73
ag73
ag73
ag73
ag73
ag73
ag73
ag73
ag73
ag73
ag73
ag73
ag73
ag73
ag73
ag73
ag73
ag73
ag73
ag73
ag73
ag73
ag73
asg74
(lp4533
g350
ag871
ag85
ag353
ag84
ag80
ag81
ag462
ag85
ag350
ag86
ag80
ag462
ag76
ag80
ag81
ag78
ag179
ag177
ag76
ag178
ag85
ag76
ag178
ag179
ag177
ag80
ag82
ag89
ag353
asg90
V"Yes," answered the tall one, "but the one with the sharp eyes must go with me, that we may destroy the rock."
p4534
sba(i__main__
Sentence
p4535
(dp4536
g17
I85
sg18
(lp4537
S'Then'
p4538
aS'the'
p4539
aS'tall'
p4540
aS'one'
p4541
aS'took'
p4542
aS'the'
p4543
aS'one'
p4544
aS'with'
p4545
aS'bandaged'
p4546
aS'eyes'
p4547
aS'on'
p4548
aS'his'
p4549
aS'back'
p4550
aS','
p4551
aS'and'
p4552
aS'in'
p4553
aS'the'
p4554
aS'twinkling'
p4555
aS'of'
p4556
aS'an'
p4557
aS'eye'
p4558
aS'they'
p4559
aS'were'
p4560
aS'on'
p4561
aS'the'
p4562
aS'enchanted'
p4563
aS'rock'
p4564
aS'.'
p4565
asg45
(lp4566
VThen
p4567
aVthe
p4568
aVtall
p4569
aVone
p4570
aVtook
p4571
aVthe
p4572
aVone
p4573
aVwith
p4574
aVbandaged
p4575
aVeye
p4576
aVon
p4577
aVhis
p4578
aVback
p4579
ag59
aVand
p4580
aVin
p4581
aVthe
p4582
aVtwinkling
p4583
aVof
p4584
aVan
p4585
aVeye
p4586
aVthey
p4587
ag272
aVon
p4588
aVthe
p4589
aVenchant
p4590
aVrock
p4591
ag70
asg71
(lp4592
g73
ag73
ag73
ag73
ag73
ag73
ag73
ag73
ag73
ag73
ag73
ag73
ag73
ag73
ag73
ag73
ag73
ag73
ag73
ag73
ag73
ag73
ag73
ag73
ag73
ag73
ag73
ag73
asg74
(lp4593
g79
ag80
ag82
ag462
ag82
ag80
ag462
ag76
ag81
ag78
ag76
ag87
ag82
ag85
ag86
ag76
ag80
ag82
ag76
ag80
ag82
ag178
ag84
ag76
ag80
ag77
ag82
ag89
asg90
VThen the tall one took the one with bandaged eyes on his back, and in the twinkling of an eye they were on the enchanted rock.
p4594
sba(i__main__
Sentence
p4595
(dp4596
g17
I86
sg18
(lp4597
S'The'
p4598
aS'tall'
p4599
aS'one'
p4600
aS'immediately'
p4601
aS'took'
p4602
aS'the'
p4603
aS'bandage'
p4604
aS'from'
p4605
aS'the'
p4606
aS'other'
p4607
aS"'s"
p4608
aS'eyes'
p4609
aS','
p4610
aS'and'
p4611
aS'he'
p4612
aS'did'
p4613
aS'but'
p4614
aS'look'
p4615
aS'round'
p4616
aS','
p4617
aS'and'
p4618
aS'the'
p4619
aS'rock'
p4620
aS'shivered'
p4621
aS'into'
p4622
aS'a'
p4623
aS'thousand'
p4624
aS'pieces'
p4625
aS'.'
p4626
asg45
(lp4627
VThe
p4628
aVtall
p4629
aVone
p4630
aVimmediately
p4631
ag2977
aVthe
p4632
aVbandage
p4633
aVfrom
p4634
aVthe
p4635
aVother
p4636
aV's
p4637
aVeye
p4638
ag59
aVand
p4639
aVhe
p4640
ag2393
aVbut
p4641
aVlook
p4642
aVround
p4643
ag59
aVand
p4644
aVthe
p4645
aVrock
p4646
aVshiver
p4647
aVinto
p4648
ag57
aVthousand
p4649
aVpiece
p4650
ag70
asg71
(lp4651
g73
ag73
ag73
ag73
ag73
ag73
ag73
ag73
ag73
ag73
ag73
ag73
ag73
ag73
ag73
ag73
ag73
ag73
ag73
ag73
ag73
ag73
ag73
ag73
ag73
ag73
ag73
ag73
ag73
asg74
(lp4652
g80
ag81
ag462
ag79
ag84
ag80
ag82
ag76
ag80
ag81
ag277
ag78
ag85
ag86
ag178
ag84
ag86
ag177
ag82
ag85
ag86
ag80
ag82
ag84
ag76
ag80
ag82
ag78
ag89
asg90
VThe tall one immediately took the bandage from the other's eyes, and he did but look round, and the rock shivered into a thousand pieces.
p4653
sba(i__main__
Sentence
p4654
(dp4655
g17
I87
sg18
(lp4656
S'Then'
p4657
aS'the'
p4658
aS'tall'
p4659
aS'one'
p4660
aS'took'
p4661
aS'the'
p4662
aS'maiden'
p4663
aS'in'
p4664
aS'his'
p4665
aS'arms'
p4666
aS','
p4667
aS'carried'
p4668
aS'her'
p4669
aS'back'
p4670
aS'in'
p4671
aS'a'
p4672
aS'second'
p4673
aS','
p4674
aS'then'
p4675
aS'fetched'
p4676
aS'his'
p4677
aS'companion'
p4678
aS'with'
p4679
aS'the'
p4680
aS'same'
p4681
aS'rapidity'
p4682
aS','
p4683
aS'and'
p4684
aS'before'
p4685
aS'it'
p4686
aS'struck'
p4687
aS'twelve'
p4688
aS'they'
p4689
aS'were'
p4690
aS'all'
p4691
aS'sitting'
p4692
aS'as'
p4693
aS'they'
p4694
aS'had'
p4695
aS'sat'
p4696
aS'before'
p4697
aS','
p4698
aS'quite'
p4699
aS'merrily'
p4700
aS'and'
p4701
aS'happily'
p4702
aS'.'
p4703
asg45
(lp4704
VThen
p4705
aVthe
p4706
aVtall
p4707
aVone
p4708
aVtook
p4709
aVthe
p4710
aVmaiden
p4711
aVin
p4712
aVhis
p4713
aVarm
p4714
ag59
ag4227
aVher
p4715
aVback
p4716
aVin
p4717
ag57
aVsecond
p4718
ag59
aVthen
p4719
aVfetch
p4720
aVhis
p4721
aVcompanion
p4722
aVwith
p4723
aVthe
p4724
aVsame
p4725
aVrapidity
p4726
ag59
aVand
p4727
aVbefore
p4728
aVit
p4729
aVstrike
p4730
aVtwelve
p4731
aVthey
p4732
ag272
aVall
p4733
ag1596
ag57
aVthey
p4734
ag143
aVsit
p4735
aVbefore
p4736
ag59
aVquite
p4737
aVmerrily
p4738
aVand
p4739
aVhappily
p4740
ag70
asg71
(lp4741
g73
ag73
ag73
ag73
ag73
ag73
ag73
ag73
ag73
ag73
ag73
ag73
ag73
ag73
ag73
ag73
ag73
ag73
ag73
ag73
ag73
ag73
ag73
ag73
ag73
ag73
ag73
ag73
ag73
ag73
ag73
ag73
ag73
ag73
ag73
ag73
ag73
ag73
ag73
ag73
ag73
ag73
ag73
ag73
ag73
ag73
ag73
asg74
(lp4742
g79
ag80
ag82
ag462
ag82
ag80
ag82
ag76
ag87
ag78
ag85
ag84
ag178
ag79
ag76
ag80
ag81
ag85
ag79
ag84
ag87
ag82
ag76
ag80
ag81
ag82
ag85
ag86
ag76
ag178
ag352
ag81
ag178
ag84
aS'PDT'
p4743
ag404
ag76
ag178
ag84
ag77
ag76
ag85
ag79
ag79
ag86
ag79
ag89
asg90
VThen the tall one took the maiden in his arms, carried her back in a second, then fetched his companion with the same rapidity, and before it struck twelve they were all sitting as they had sat before, quite merrily and happily.
p4744
sba(i__main__
Sentence
p4745
(dp4746
g17
I88
sg18
(lp4747
S'When'
p4748
aS'twelve'
p4749
aS'struck'
p4750
aS','
p4751
aS'the'
p4752
aS'aged'
p4753
aS'sorceress'
p4754
aS'came'
p4755
aS'stealing'
p4756
aS'in'
p4757
aS'with'
p4758
aS'a'
p4759
aS'malicious'
p4760
aS'face'
p4761
aS','
p4762
aS'as'
p4763
aS'much'
p4764
aS'as'
p4765
aS'to'
p4766
aS'say'
p4767
aS','
p4768
aS'``'
p4769
aS'Now'
p4770
aS'he'
p4771
aS'is'
p4772
aS'mine'
p4773
aS','
p4774
aS'for'
p4775
aS'she'
p4776
aS'believed'
p4777
aS'that'
p4778
aS'her'
p4779
aS'daughter'
p4780
aS'was'
p4781
aS'on'
p4782
aS'the'
p4783
aS'rock'
p4784
aS'three'
p4785
aS'hundred'
p4786
aS'leagues'
p4787
aS'off'
p4788
aS'.'
p4789
aS"''"
p4790
asg45
(lp4791
VWhen
p4792
aVtwelve
p4793
aVstruck
p4794
ag59
aVthe
p4795
aVaged
p4796
aVsorceress
p4797
ag662
aVsteal
p4798
aVin
p4799
aVwith
p4800
ag57
aVmalicious
p4801
aVface
p4802
ag59
ag57
aVmuch
p4803
ag57
aVto
p4804
aVsay
p4805
ag59
aV``
p4806
aVNow
p4807
aVhe
p4808
ag855
aVmine
p4809
ag59
aVfor
p4810
aVshe
p4811
aVbelieve
p4812
aVthat
p4813
aVher
p4814
aVdaughter
p4815
ag56
aVon
p4816
aVthe
p4817
aVrock
p4818
aVthree
p4819
aVhundred
p4820
aVleague
p4821
aVoff
p4822
ag70
aV''
p4823
asg71
(lp4824
g73
ag73
ag73
ag73
ag73
ag73
ag73
ag73
ag73
ag73
ag73
ag73
ag73
ag73
ag73
ag73
ag73
ag73
ag73
ag73
ag73
ag73
ag73
ag73
ag73
ag73
ag73
ag73
ag73
ag73
ag73
ag73
ag73
ag73
ag73
ag73
ag73
ag73
ag73
ag73
ag73
ag73
ag73
asg74
(lp4825
g175
ag352
ag82
ag85
ag80
ag81
ag82
ag84
ag404
ag76
ag76
ag80
ag81
ag82
ag85
ag76
ag81
ag76
ag176
ag177
ag85
ag350
ag79
ag178
ag871
ag81
ag85
ag76
ag178
ag84
ag76
ag87
ag82
ag84
ag76
ag80
ag82
ag462
ag462
ag78
ag76
ag89
ag353
asg90
VWhen twelve struck, the aged sorceress came stealing in with a malicious face, as much as to say, "Now he is mine, for she believed that her daughter was on the rock three hundred leagues off."
p4826
sba(i__main__
Sentence
p4827
(dp4828
g17
I89
sg18
(lp4829
S'But'
p4830
aS'when'
p4831
aS'she'
p4832
aS'saw'
p4833
aS'her'
p4834
aS'in'
p4835
aS'the'
p4836
aS'prince'
p4837
aS"'s"
p4838
aS'arms'
p4839
aS','
p4840
aS'she'
p4841
aS'was'
p4842
aS'alarmed'
p4843
aS','
p4844
aS'and'
p4845
aS'said'
p4846
aS','
p4847
aS'``'
p4848
aS'Here'
p4849
aS'is'
p4850
aS'one'
p4851
aS'who'
p4852
aS'knows'
p4853
aS'more'
p4854
aS'than'
p4855
aS'I'
p4856
aS'do'
p4857
aS'.'
p4858
aS"''"
p4859
asg45
(lp4860
VBut
p4861
aVwhen
p4862
aVshe
p4863
aVsaw
p4864
aVher
p4865
aVin
p4866
aVthe
p4867
aVprince
p4868
aV's
p4869
aVarm
p4870
ag59
aVshe
p4871
ag56
aValarm
p4872
ag59
aVand
p4873
ag159
ag59
aV``
p4874
aVHere
p4875
ag855
aVone
p4876
aVwho
p4877
aVknow
p4878
aVmore
p4879
aVthan
p4880
ag340
aVdo
p4881
ag70
aV''
p4882
asg71
(lp4883
g73
ag73
ag73
ag73
ag73
ag73
ag73
ag73
ag73
ag73
ag73
ag73
ag73
ag73
ag73
ag73
ag73
ag73
ag73
ag73
ag73
ag73
ag73
ag73
ag73
ag73
ag73
ag73
ag73
ag73
asg74
(lp4884
g86
ag175
ag178
ag84
ag87
ag76
ag80
ag82
ag277
ag78
ag85
ag178
ag84
ag77
ag85
ag86
ag84
ag85
ag350
ag79
ag871
ag462
ag83
ag871
aS'JJR'
p4885
ag76
ag178
ag352
ag89
ag353
asg90
VBut when she saw her in the prince's arms, she was alarmed, and said, "Here is one who knows more than I do."
p4886
sba(i__main__
Sentence
p4887
(dp4888
g17
I90
sg18
(lp4889
S'She'
p4890
aS'dared'
p4891
aS'not'
p4892
aS'make'
p4893
aS'any'
p4894
aS'opposition'
p4895
aS','
p4896
aS'and'
p4897
aS'was'
p4898
aS'forced'
p4899
aS'to'
p4900
aS'give'
p4901
aS'him'
p4902
aS'her'
p4903
aS'daughter'
p4904
aS'.'
p4905
asg45
(lp4906
VShe
p4907
aVdare
p4908
aVnot
p4909
aVmake
p4910
aVany
p4911
aVopposition
p4912
ag59
aVand
p4913
ag56
aVforce
p4914
aVto
p4915
aVgive
p4916
aVhim
p4917
aVher
p4918
aVdaughter
p4919
ag70
asg71
(lp4920
g73
ag73
ag73
ag73
ag73
ag73
ag73
ag73
ag73
ag73
ag73
ag73
ag73
ag73
ag73
ag73
asg74
(lp4921
g178
ag84
ag79
ag177
ag80
ag82
ag85
ag86
ag84
ag77
ag176
ag177
ag178
ag178
ag352
ag89
asg90
VShe dared not make any opposition, and was forced to give him her daughter.
p4922
sba(i__main__
Sentence
p4923
(dp4924
g17
I91
sg18
(lp4925
S'But'
p4926
aS'she'
p4927
aS'whispered'
p4928
aS'in'
p4929
aS'her'
p4930
aS'ear'
p4931
aS','
p4932
aS'``'
p4933
aS'It'
p4934
aS'is'
p4935
aS'a'
p4936
aS'disgrace'
p4937
aS'to'
p4938
aS'you'
p4939
aS'to'
p4940
aS'have'
p4941
aS'to'
p4942
aS'obey'
p4943
aS'common'
p4944
aS'people'
p4945
aS','
p4946
aS'and'
p4947
aS'that'
p4948
aS'you'
p4949
aS'are'
p4950
aS'not'
p4951
aS'allowed'
p4952
aS'to'
p4953
aS'choose'
p4954
aS'a'
p4955
aS'husband'
p4956
aS'to'
p4957
aS'your'
p4958
aS'own'
p4959
aS'liking'
p4960
aS'.'
p4961
aS"''"
p4962
asg45
(lp4963
VBut
p4964
aVshe
p4965
aVwhisper
p4966
aVin
p4967
aVher
p4968
aVear
p4969
ag59
aV``
p4970
aVIt
p4971
ag855
ag57
aVdisgrace
p4972
aVto
p4973
aVyou
p4974
aVto
p4975
aVhave
p4976
aVto
p4977
aVobey
p4978
aVcommon
p4979
aVpeople
p4980
ag59
aVand
p4981
aVthat
p4982
aVyou
p4983
ag763
aVnot
p4984
aVallow
p4985
aVto
p4986
aVchoose
p4987
ag57
aVhusband
p4988
aVto
p4989
aVyour
p4990
aVown
p4991
aVliking
p4992
ag70
aV''
p4993
asg71
(lp4994
g73
ag73
ag73
ag73
ag73
ag73
ag73
ag73
ag73
ag73
ag73
ag73
ag73
ag73
ag73
ag73
ag73
ag73
ag73
ag73
ag73
ag73
ag73
ag73
ag73
ag73
ag73
ag73
ag73
ag73
ag73
ag73
ag73
ag73
ag73
ag73
ag73
asg74
(lp4995
g86
ag178
ag84
ag76
ag87
ag82
ag85
ag350
ag178
ag871
ag80
ag82
ag176
ag178
ag176
ag177
ag176
ag177
ag81
ag78
ag85
ag86
ag76
ag178
ag352
ag79
ag77
ag176
ag177
ag80
ag82
ag176
ag87
ag81
ag82
ag89
ag353
asg90
VBut she whispered in her ear, "It is a disgrace to you to have to obey common people, and that you are not allowed to choose a husband to your own liking."
p4996
sba(i__main__
Sentence
p4997
(dp4998
g17
I92
sg18
(lp4999
S'On'
p5000
aS'this'
p5001
aS'the'
p5002
aS'proud'
p5003
aS'heart'
p5004
aS'of'
p5005
aS'the'
p5006
aS'maiden'
p5007
aS'was'
p5008
aS'filled'
p5009
aS'with'
p5010
aS'anger'
p5011
aS','
p5012
aS'and'
p5013
aS'she'
p5014
aS'meditated'
p5015
aS'revenge'
p5016
aS'.'
p5017
asg45
(lp5018
VOn
p5019
aVthis
p5020
aVthe
p5021
aVproud
p5022
aVheart
p5023
aVof
p5024
aVthe
p5025
aVmaiden
p5026
ag56
aVfill
p5027
aVwith
p5028
aVanger
p5029
ag59
aVand
p5030
aVshe
p5031
aVmeditate
p5032
aVrevenge
p5033
ag70
asg71
(lp5034
g73
ag73
ag73
ag73
ag73
ag73
ag73
ag73
ag73
ag73
ag73
ag73
ag73
ag73
ag73
ag73
ag73
ag73
asg74
(lp5035
g76
ag80
ag80
ag82
ag82
ag76
ag80
ag82
ag84
ag77
ag76
ag4885
ag85
ag86
ag178
ag84
ag82
ag89
asg90
VOn this the proud heart of the maiden was filled with anger, and she meditated revenge.
p5036
sba(i__main__
Sentence
p5037
(dp5038
g17
I93
sg18
(lp5039
S'Next'
p5040
aS'morning'
p5041
aS'she'
p5042
aS'caused'
p5043
aS'three'
p5044
aS'hundred'
p5045
aS'great'
p5046
aS'bundles'
p5047
aS'of'
p5048
aS'wood'
p5049
aS'to'
p5050
aS'be'
p5051
aS'got'
p5052
aS'together'
p5053
aS','
p5054
aS'and'
p5055
aS'said'
p5056
aS'to'
p5057
aS'the'
p5058
aS'prince'
p5059
aS'that'
p5060
aS'though'
p5061
aS'the'
p5062
aS'three'
p5063
aS'tasks'
p5064
aS'were'
p5065
aS'performed'
p5066
aS','
p5067
aS'she'
p5068
aS'would'
p5069
aS'still'
p5070
aS'not'
p5071
aS'be'
p5072
aS'his'
p5073
aS'wife'
p5074
aS'until'
p5075
aS'someone'
p5076
aS'was'
p5077
aS'ready'
p5078
aS'to'
p5079
aS'seat'
p5080
aS'himself'
p5081
aS'in'
p5082
aS'the'
p5083
aS'midst'
p5084
aS'of'
p5085
aS'the'
p5086
aS'wood'
p5087
aS','
p5088
aS'and'
p5089
aS'bear'
p5090
aS'the'
p5091
aS'fire'
p5092
aS'.'
p5093
asg45
(lp5094
VNext
p5095
aVmorning
p5096
aVshe
p5097
aVcause
p5098
aVthree
p5099
aVhundred
p5100
aVgreat
p5101
aVbundle
p5102
aVof
p5103
aVwood
p5104
aVto
p5105
aVbe
p5106
ag2637
aVtogether
p5107
ag59
aVand
p5108
ag159
aVto
p5109
aVthe
p5110
aVprince
p5111
aVthat
p5112
aVthough
p5113
aVthe
p5114
aVthree
p5115
aVtask
p5116
ag272
aVperform
p5117
ag59
aVshe
p5118
aVwould
p5119
aVstill
p5120
aVnot
p5121
aVbe
p5122
aVhis
p5123
aVwife
p5124
aVuntil
p5125
aVsomeone
p5126
ag56
aVready
p5127
aVto
p5128
aVseat
p5129
aVhimself
p5130
aVin
p5131
aVthe
p5132
aVmidst
p5133
aVof
p5134
aVthe
p5135
aVwood
p5136
ag59
aVand
p5137
aVbear
p5138
aVthe
p5139
aVfire
p5140
ag70
asg71
(lp5141
g73
ag73
ag73
ag73
ag73
ag73
ag73
ag73
ag73
ag73
ag73
ag73
ag73
ag73
ag73
ag73
ag73
ag73
ag73
ag73
ag73
ag73
ag73
ag73
ag73
ag73
ag73
ag73
ag73
ag73
ag73
ag73
ag73
ag73
ag73
ag73
ag73
ag73
ag73
ag73
ag73
ag73
ag73
ag73
ag73
ag73
ag73
ag73
ag73
ag73
ag73
ag73
ag73
ag73
asg74
(lp5142
g81
ag82
ag178
ag84
ag462
ag77
ag81
ag78
ag76
ag82
ag176
ag177
ag77
ag278
ag85
ag86
ag84
ag176
ag80
ag82
ag76
ag76
ag80
ag462
ag78
ag84
ag77
ag85
ag178
ag179
ag79
ag79
ag177
ag87
ag82
ag76
ag82
ag84
ag81
ag176
ag177
ag178
ag76
ag80
ag82
ag76
ag80
ag82
ag85
ag86
ag81
ag80
ag82
ag89
asg90
VNext morning she caused three hundred great bundles of wood to be got together, and said to the prince that though the three tasks were performed, she would still not be his wife until someone was ready to seat himself in the midst of the wood, and bear the fire.
p5143
sba(i__main__
Sentence
p5144
(dp5145
g17
I94
sg18
(lp5146
S'She'
p5147
aS'thought'
p5148
aS'that'
p5149
aS'none'
p5150
aS'of'
p5151
aS'his'
p5152
aS'servants'
p5153
aS'would'
p5154
aS'let'
p5155
aS'themselves'
p5156
aS'be'
p5157
aS'burnt'
p5158
aS'for'
p5159
aS'him'
p5160
aS','
p5161
aS'and'
p5162
aS'that'
p5163
aS'out'
p5164
aS'of'
p5165
aS'love'
p5166
aS'for'
p5167
aS'her'
p5168
aS','
p5169
aS'he'
p5170
aS'himself'
p5171
aS'would'
p5172
aS'place'
p5173
aS'himself'
p5174
aS'upon'
p5175
aS'it'
p5176
aS','
p5177
aS'and'
p5178
aS'then'
p5179
aS'she'
p5180
aS'would'
p5181
aS'be'
p5182
aS'free'
p5183
aS'.'
p5184
asg45
(lp5185
VShe
p5186
ag3638
aVthat
p5187
aVnone
p5188
aVof
p5189
aVhis
p5190
aVservant
p5191
aVwould
p5192
aVlet
p5193
aVthemselves
p5194
aVbe
p5195
aVburnt
p5196
aVfor
p5197
aVhim
p5198
ag59
aVand
p5199
aVthat
p5200
aVout
p5201
aVof
p5202
aVlove
p5203
aVfor
p5204
aVher
p5205
ag59
aVhe
p5206
aVhimself
p5207
aVwould
p5208
aVplace
p5209
aVhimself
p5210
aVupon
p5211
aVit
p5212
ag59
aVand
p5213
aVthen
p5214
aVshe
p5215
aVwould
p5216
aVbe
p5217
aVfree
p5218
ag70
asg71
(lp5219
g73
ag73
ag73
ag73
ag73
ag73
ag73
ag73
ag73
ag73
ag73
ag73
ag73
ag73
ag73
ag73
ag73
ag73
ag73
ag73
ag73
ag73
ag73
ag73
ag73
ag73
ag73
ag73
ag73
ag73
ag73
ag73
ag73
ag73
ag73
ag73
ag73
ag73
asg74
(lp5220
g178
ag84
ag76
ag82
ag76
ag87
ag78
ag179
ag177
ag178
ag177
ag81
ag76
ag178
ag85
ag86
ag76
ag76
ag76
ag82
ag76
ag87
ag85
ag178
ag178
ag179
ag177
ag178
ag76
ag178
ag85
ag86
ag79
ag178
ag179
ag177
ag81
ag89
asg90
VShe thought that none of his servants would let themselves be burnt for him, and that out of love for her, he himself would place himself upon it, and then she would be free.
p5221
sba(i__main__
Sentence
p5222
(dp5223
g17
I95
sg18
(lp5224
S'But'
p5225
aS'the'
p5226
aS'servants'
p5227
aS'said'
p5228
aS','
p5229
aS'``'
p5230
aS'Every'
p5231
aS'one'
p5232
aS'of'
p5233
aS'us'
p5234
aS'has'
p5235
aS'done'
p5236
aS'something'
p5237
aS'except'
p5238
aS'the'
p5239
aS'frosty'
p5240
aS'one'
p5241
aS','
p5242
aS'he'
p5243
aS'must'
p5244
aS'set'
p5245
aS'to'
p5246
aS'work'
p5247
aS','
p5248
aS'and'
p5249
aS'they'
p5250
aS'put'
p5251
aS'him'
p5252
aS'in'
p5253
aS'the'
p5254
aS'middle'
p5255
aS'of'
p5256
aS'the'
p5257
aS'pile'
p5258
aS','
p5259
aS'and'
p5260
aS'set'
p5261
aS'fire'
p5262
aS'to'
p5263
aS'it'
p5264
aS'.'
p5265
aS"''"
p5266
asg45
(lp5267
VBut
p5268
aVthe
p5269
aVservant
p5270
ag159
ag59
aV``
p5271
aVEvery
p5272
aVone
p5273
aVof
p5274
aVu
p5275
ag1179
ag3626
aVsomething
p5276
aVexcept
p5277
aVthe
p5278
aVfrosty
p5279
aVone
p5280
ag59
aVhe
p5281
aVmust
p5282
aVset
p5283
aVto
p5284
aVwork
p5285
ag59
aVand
p5286
aVthey
p5287
aVput
p5288
aVhim
p5289
aVin
p5290
aVthe
p5291
aVmiddle
p5292
aVof
p5293
aVthe
p5294
aVpile
p5295
ag59
aVand
p5296
aVset
p5297
aVfire
p5298
aVto
p5299
aVit
p5300
ag70
aV''
p5301
asg71
(lp5302
g73
ag73
ag73
ag73
ag73
ag73
ag73
ag73
ag73
ag73
ag73
ag73
ag73
ag73
ag73
ag73
ag73
ag73
ag73
ag73
ag73
ag73
ag73
ag73
ag73
ag73
ag73
ag73
ag73
ag73
ag73
ag73
ag73
ag73
ag73
ag73
ag73
ag73
ag73
ag73
ag73
ag73
asg74
(lp5303
g86
ag80
ag78
ag84
ag85
ag350
ag80
ag462
ag76
ag178
ag871
ag77
ag82
ag76
ag80
ag82
ag462
ag85
ag178
ag179
ag177
ag176
ag177
ag85
ag86
ag178
ag84
ag178
ag76
ag80
ag82
ag76
ag80
ag82
ag85
ag86
ag84
ag82
ag176
ag178
ag89
ag353
asg90
VBut the servants said, "Every one of us has done something except the frosty one, he must set to work, and they put him in the middle of the pile, and set fire to it."
p5304
sba(i__main__
Sentence
p5305
(dp5306
g17
I96
sg18
(lp5307
S'Then'
p5308
aS'the'
p5309
aS'fire'
p5310
aS'began'
p5311
aS'to'
p5312
aS'burn'
p5313
aS','
p5314
aS'and'
p5315
aS'burnt'
p5316
aS'for'
p5317
aS'three'
p5318
aS'days'
p5319
aS'until'
p5320
aS'all'
p5321
aS'the'
p5322
aS'wood'
p5323
aS'was'
p5324
aS'consumed'
p5325
aS','
p5326
aS'and'
p5327
aS'when'
p5328
aS'the'
p5329
aS'flames'
p5330
aS'had'
p5331
aS'burnt'
p5332
aS'out'
p5333
aS','
p5334
aS'the'
p5335
aS'frosty'
p5336
aS'one'
p5337
aS'was'
p5338
aS'standing'
p5339
aS'amid'
p5340
aS'the'
p5341
aS'ashes'
p5342
aS','
p5343
aS'trembling'
p5344
aS'like'
p5345
aS'an'
p5346
aS'aspen'
p5347
aS'leaf'
p5348
aS','
p5349
aS'and'
p5350
aS'saying'
p5351
aS','
p5352
aS'``'
p5353
aS'I'
p5354
aS'never'
p5355
aS'felt'
p5356
aS'such'
p5357
aS'a'
p5358
aS'frost'
p5359
aS'during'
p5360
aS'the'
p5361
aS'whole'
p5362
aS'course'
p5363
aS'of'
p5364
aS'my'
p5365
aS'life'
p5366
aS','
p5367
aS'if'
p5368
aS'it'
p5369
aS'had'
p5370
aS'lasted'
p5371
aS'much'
p5372
aS'longer'
p5373
aS','
p5374
aS'I'
p5375
aS'should'
p5376
aS'have'
p5377
aS'been'
p5378
aS'benumbed'
p5379
aS'.'
p5380
aS"''"
p5381
asg45
(lp5382
VThen
p5383
aVthe
p5384
aVfire
p5385
ag4349
aVto
p5386
aVburn
p5387
ag59
aVand
p5388
aVburnt
p5389
aVfor
p5390
aVthree
p5391
aVday
p5392
aVuntil
p5393
aVall
p5394
aVthe
p5395
aVwood
p5396
ag56
aVconsume
p5397
ag59
aVand
p5398
aVwhen
p5399
aVthe
p5400
aVflame
p5401
ag143
aVburn
p5402
aVout
p5403
ag59
aVthe
p5404
aVfrosty
p5405
aVone
p5406
ag56
aVstanding
p5407
aVamid
p5408
aVthe
p5409
aVash
p5410
ag59
aVtremble
p5411
aVlike
p5412
aVan
p5413
aVaspen
p5414
aVleaf
p5415
ag59
aVand
p5416
aVsay
p5417
ag59
aV``
p5418
ag340
aVnever
p5419
aVfelt
p5420
aVsuch
p5421
ag57
aVfrost
p5422
aVduring
p5423
aVthe
p5424
aVwhole
p5425
aVcourse
p5426
aVof
p5427
aVmy
p5428
aVlife
p5429
ag59
aVif
p5430
aVit
p5431
ag143
aVlast
p5432
aVmuch
p5433
aVlonger
p5434
ag59
ag340
aVshould
p5435
aVhave
p5436
ag236
aVbenumb
p5437
ag70
aV''
p5438
asg71
(lp5439
g73
ag73
ag73
ag73
ag73
ag73
ag73
ag73
ag73
ag73
ag73
ag73
ag73
ag73
ag73
ag73
ag73
ag73
ag73
ag73
ag73
ag73
ag73
ag73
ag73
ag73
ag73
ag73
ag73
ag73
ag73
ag73
ag73
ag73
ag73
ag73
ag73
ag73
ag73
ag73
ag73
ag73
ag73
ag73
ag73
ag73
ag73
ag73
ag73
ag73
ag73
ag73
ag73
ag73
ag73
ag73
ag73
ag73
ag73
ag73
ag73
ag73
ag73
ag73
ag73
ag73
ag73
ag73
ag73
ag73
ag73
ag73
ag73
ag73
asg74
(lp5440
g79
ag80
ag82
ag84
ag176
ag177
ag85
ag86
ag82
ag76
ag462
ag78
ag76
ag80
ag80
ag82
ag84
ag77
ag85
ag86
ag175
ag80
ag78
ag84
ag77
ag278
ag85
ag80
ag82
ag462
ag84
ag82
ag76
ag80
ag78
ag85
ag404
ag76
ag80
ag81
ag82
ag85
ag86
ag404
ag85
ag350
ag178
ag79
ag84
ag81
ag80
ag82
ag76
ag80
ag81
ag82
ag76
ag87
ag82
ag85
ag76
ag178
ag84
ag77
ag79
ag3327
ag85
ag178
ag179
ag177
ag77
ag77
ag89
ag353
asg90
VThen the fire began to burn, and burnt for three days until all the wood was consumed, and when the flames had burnt out, the frosty one was standing amid the ashes, trembling like an aspen leaf, and saying, "I never felt such a frost during the whole course of my life, if it had lasted much longer, I should have been benumbed."
p5441
sba(i__main__
Sentence
p5442
(dp5443
g17
I97
sg18
(lp5444
S'As'
p5445
aS'no'
p5446
aS'other'
p5447
aS'pretext'
p5448
aS'was'
p5449
aS'to'
p5450
aS'be'
p5451
aS'found'
p5452
aS','
p5453
aS'the'
p5454
aS'beautiful'
p5455
aS'maiden'
p5456
aS'was'
p5457
aS'now'
p5458
aS'forced'
p5459
aS'to'
p5460
aS'take'
p5461
aS'the'
p5462
aS'unknown'
p5463
aS'youth'
p5464
aS'as'
p5465
aS'a'
p5466
aS'husband'
p5467
aS'.'
p5468
asg45
(lp5469
VAs
p5470
aVno
p5471
aVother
p5472
aVpretext
p5473
ag56
aVto
p5474
aVbe
p5475
ag969
ag59
aVthe
p5476
aVbeautiful
p5477
aVmaiden
p5478
ag56
aVnow
p5479
aVforce
p5480
aVto
p5481
aVtake
p5482
aVthe
p5483
aVunknown
p5484
aVyouth
p5485
ag57
ag57
aVhusband
p5486
ag70
asg71
(lp5487
g73
ag73
ag73
ag73
ag73
ag73
ag73
ag73
ag73
ag73
ag73
ag73
ag73
ag73
ag73
ag73
ag73
ag73
ag73
ag73
ag73
ag73
ag73
ag73
asg74
(lp5488
g76
ag80
ag81
ag82
ag84
ag176
ag177
ag77
ag85
ag80
ag81
ag82
ag84
ag79
ag77
ag176
ag177
ag80
ag82
ag82
ag76
ag80
ag82
ag89
asg90
VAs no other pretext was to be found, the beautiful maiden was now forced to take the unknown youth as a husband.
p5489
sba(i__main__
Sentence
p5490
(dp5491
g17
I98
sg18
(lp5492
S'But'
p5493
aS'when'
p5494
aS'they'
p5495
aS'drove'
p5496
aS'away'
p5497
aS'to'
p5498
aS'church'
p5499
aS','
p5500
aS'the'
p5501
aS'old'
p5502
aS'woman'
p5503
aS'said'
p5504
aS','
p5505
aS'``'
p5506
aS'I'
p5507
aS'can'
p5508
aS'not'
p5509
aS'endure'
p5510
aS'the'
p5511
aS'disgrace'
p5512
aS','
p5513
aS"''"
p5514
aS'and'
p5515
aS'sent'
p5516
aS'her'
p5517
aS'warriors'
p5518
aS'after'
p5519
aS'them'
p5520
aS'with'
p5521
aS'orders'
p5522
aS'to'
p5523
aS'cut'
p5524
aS'down'
p5525
aS'all'
p5526
aS'who'
p5527
aS'opposed'
p5528
aS'them'
p5529
aS','
p5530
aS'and'
p5531
aS'bring'
p5532
aS'back'
p5533
aS'her'
p5534
aS'daughter'
p5535
aS'.'
p5536
asg45
(lp5537
VBut
p5538
aVwhen
p5539
aVthey
p5540
aVdrive
p5541
aVaway
p5542
aVto
p5543
aVchurch
p5544
ag59
aVthe
p5545
aVold
p5546
aVwoman
p5547
ag159
ag59
aV``
p5548
ag340
aVcan
p5549
aVnot
p5550
aVendure
p5551
aVthe
p5552
aVdisgrace
p5553
ag59
aV''
p5554
aVand
p5555
aVsent
p5556
aVher
p5557
aVwarrior
p5558
aVafter
p5559
aVthem
p5560
aVwith
p5561
aVorder
p5562
aVto
p5563
aVcut
p5564
aVdown
p5565
aVall
p5566
aVwho
p5567
aVoppose
p5568
aVthem
p5569
ag59
aVand
p5570
aVbring
p5571
aVback
p5572
aVher
p5573
aVdaughter
p5574
ag70
asg71
(lp5575
g73
ag73
ag73
ag73
ag73
ag73
ag73
ag73
ag73
ag73
ag73
ag73
ag73
ag73
ag73
ag73
ag73
ag73
ag73
ag73
ag73
ag73
ag73
ag73
ag73
ag73
ag73
ag73
ag73
ag73
ag73
ag73
ag73
ag73
ag73
ag73
ag73
ag73
ag73
ag73
ag73
ag73
ag73
ag73
asg74
(lp5576
g86
ag175
ag178
ag352
ag79
ag176
ag82
ag85
ag80
ag81
ag82
ag84
ag85
ag350
ag178
ag179
ag79
ag177
ag80
ag82
ag85
ag353
ag86
ag82
ag87
ag78
ag76
ag178
ag76
ag78
ag176
ag177
ag278
ag80
ag83
ag77
ag178
ag85
ag86
ag404
ag278
ag87
ag82
ag89
asg90
VBut when they drove away to church, the old woman said, "I cannot endure the disgrace," and sent her warriors after them with orders to cut down all who opposed them, and bring back her daughter.
p5577
sba(i__main__
Sentence
p5578
(dp5579
g17
I99
sg18
(lp5580
S'But'
p5581
aS'the'
p5582
aS'listener'
p5583
aS'had'
p5584
aS'sharpened'
p5585
aS'his'
p5586
aS'ears'
p5587
aS','
p5588
aS'and'
p5589
aS'heard'
p5590
aS'the'
p5591
aS'secret'
p5592
aS'discourse'
p5593
aS'of'
p5594
aS'the'
p5595
aS'old'
p5596
aS'woman'
p5597
aS'.'
p5598
asg45
(lp5599
VBut
p5600
aVthe
p5601
aVlistener
p5602
ag143
aVsharpen
p5603
aVhis
p5604
aVear
p5605
ag59
aVand
p5606
aVheard
p5607
aVthe
p5608
aVsecret
p5609
aVdiscourse
p5610
aVof
p5611
aVthe
p5612
aVold
p5613
aVwoman
p5614
ag70
asg71
(lp5615
g73
ag73
ag73
ag73
ag73
ag73
ag73
ag73
ag73
ag73
ag73
ag73
ag73
ag73
ag73
ag73
ag73
ag73
asg74
(lp5616
g86
ag80
ag82
ag84
ag77
ag87
ag78
ag85
ag86
ag82
ag80
ag82
ag82
ag76
ag80
ag81
ag82
ag89
asg90
VBut the listener had sharpened his ears, and heard the secret discourse of the old woman.
p5617
sba(i__main__
Sentence
p5618
(dp5619
g17
I100
sg18
(lp5620
S'``'
p5621
aS'What'
p5622
aS'shall'
p5623
aS'we'
p5624
aS'do'
p5625
aS'?'
p5626
aS"''"
p5627
asg45
(lp5628
V``
p5629
aVWhat
p5630
aVshall
p5631
aVwe
p5632
aVdo
p5633
ag809
aV''
p5634
asg71
(lp5635
g73
ag73
ag73
ag73
ag73
ag73
ag73
asg74
(lp5636
g350
ag83
ag179
ag178
ag352
ag89
ag353
asg90
V"What shall we do?"
p5637
sba(i__main__
Sentence
p5638
(dp5639
g17
I101
sg18
(lp5640
S'said'
p5641
aS'he'
p5642
aS'to'
p5643
aS'the'
p5644
aS'stout'
p5645
aS'one'
p5646
aS'.'
p5647
asg45
(lp5648
g159
aVhe
p5649
aVto
p5650
aVthe
p5651
aVstout
p5652
aVone
p5653
ag70
asg71
(lp5654
g73
ag73
ag73
ag73
ag73
ag73
ag73
asg74
(lp5655
g84
ag178
ag176
ag80
ag82
ag462
ag89
asg90
Vsaid he to the stout one.
p5656
sba(i__main__
Sentence
p5657
(dp5658
g17
I102
sg18
(lp5659
S'But'
p5660
aS'he'
p5661
aS'knew'
p5662
aS'what'
p5663
aS'to'
p5664
aS'do'
p5665
aS','
p5666
aS'and'
p5667
aS'spat'
p5668
aS'out'
p5669
aS'once'
p5670
aS'or'
p5671
aS'twice'
p5672
aS'behind'
p5673
aS'the'
p5674
aS'carriage'
p5675
aS'some'
p5676
aS'of'
p5677
aS'the'
p5678
aS'sea-water'
p5679
aS'which'
p5680
aS'he'
p5681
aS'had'
p5682
aS'drunk'
p5683
aS','
p5684
aS'and'
p5685
aS'a'
p5686
aS'great'
p5687
aS'lake'
p5688
aS'arose'
p5689
aS'in'
p5690
aS'which'
p5691
aS'the'
p5692
aS'warriors'
p5693
aS'were'
p5694
aS'caught'
p5695
aS'and'
p5696
aS'drowned'
p5697
aS'.'
p5698
asg45
(lp5699
VBut
p5700
aVhe
p5701
aVknow
p5702
aVwhat
p5703
aVto
p5704
aVdo
p5705
ag59
aVand
p5706
aVspat
p5707
aVout
p5708
aVonce
p5709
aVor
p5710
aVtwice
p5711
aVbehind
p5712
aVthe
p5713
aVcarriage
p5714
aVsome
p5715
aVof
p5716
aVthe
p5717
aVsea-water
p5718
aVwhich
p5719
aVhe
p5720
ag143
aVdrunk
p5721
ag59
aVand
p5722
ag57
aVgreat
p5723
aVlake
p5724
aVarose
p5725
aVin
p5726
aVwhich
p5727
aVthe
p5728
aVwarrior
p5729
ag272
aVcatch
p5730
aVand
p5731
aVdrown
p5732
ag70
asg71
(lp5733
g73
ag73
ag73
ag73
ag73
ag73
ag73
ag73
ag73
ag73
ag73
ag73
ag73
ag73
ag73
ag73
ag73
ag73
ag73
ag73
ag73
ag73
ag73
ag73
ag73
ag73
ag73
ag73
ag73
ag73
ag73
ag73
ag73
ag73
ag73
ag73
ag73
ag73
ag73
asg74
(lp5734
g86
ag178
ag84
ag83
ag176
ag177
ag85
ag86
ag177
ag278
ag79
ag86
ag82
ag76
ag80
ag82
ag80
ag76
ag80
ag81
ag590
ag178
ag84
ag82
ag85
ag86
ag80
ag81
ag82
ag82
ag76
ag590
ag80
ag78
ag84
ag77
ag86
ag77
ag89
asg90
VBut he knew what to do, and spat out once or twice behind the carriage some of the sea-water which he had drunk, and a great lake arose in which the warriors were caught and drowned.
p5735
sba(i__main__
Sentence
p5736
(dp5737
g17
I103
sg18
(lp5738
S'When'
p5739
aS'the'
p5740
aS'sorceress'
p5741
aS'perceived'
p5742
aS'that'
p5743
aS','
p5744
aS'she'
p5745
aS'sent'
p5746
aS'her'
p5747
aS'mailed'
p5748
aS'knights'
p5749
aS','
p5750
aS'but'
p5751
aS'the'
p5752
aS'listener'
p5753
aS'heard'
p5754
aS'the'
p5755
aS'rattling'
p5756
aS'of'
p5757
aS'their'
p5758
aS'armor'
p5759
aS','
p5760
aS'and'
p5761
aS'undid'
p5762
aS'the'
p5763
aS'bandage'
p5764
aS'from'
p5765
aS'one'
p5766
aS'eye'
p5767
aS'of'
p5768
aS'sharp-eyes'
p5769
aS','
p5770
aS'who'
p5771
aS'looked'
p5772
aS'for'
p5773
aS'a'
p5774
aS'while'
p5775
aS'rather'
p5776
aS'fixedly'
p5777
aS'at'
p5778
aS'the'
p5779
aS'enemy'
p5780
aS"'s"
p5781
aS'troops'
p5782
aS','
p5783
aS'on'
p5784
aS'which'
p5785
aS'they'
p5786
aS'all'
p5787
aS'sprang'
p5788
aS'to'
p5789
aS'pieces'
p5790
aS'like'
p5791
aS'glass'
p5792
aS'.'
p5793
asg45
(lp5794
VWhen
p5795
aVthe
p5796
aVsorceress
p5797
aVperceive
p5798
aVthat
p5799
ag59
aVshe
p5800
aVsend
p5801
aVher
p5802
aVmail
p5803
aVknight
p5804
ag59
aVbut
p5805
aVthe
p5806
aVlistener
p5807
aVheard
p5808
aVthe
p5809
aVrattling
p5810
aVof
p5811
aVtheir
p5812
aVarmor
p5813
ag59
aVand
p5814
aVundo
p5815
aVthe
p5816
aVbandage
p5817
aVfrom
p5818
aVone
p5819
aVeye
p5820
aVof
p5821
aVsharp-eyes
p5822
ag59
aVwho
p5823
aVlook
p5824
aVfor
p5825
ag57
aVwhile
p5826
aVrather
p5827
aVfixedly
p5828
aVat
p5829
aVthe
p5830
aVenemy
p5831
aV's
p5832
aVtroop
p5833
ag59
aVon
p5834
aVwhich
p5835
aVthey
p5836
aVall
p5837
aVsprang
p5838
aVto
p5839
aVpiece
p5840
aVlike
p5841
aVglass
p5842
ag70
asg71
(lp5843
g73
ag73
ag73
ag73
ag73
ag73
ag73
ag73
ag73
ag73
ag73
ag73
ag73
ag73
ag73
ag73
ag73
ag73
ag73
ag73
ag73
ag73
ag73
ag73
ag73
ag73
ag73
ag73
ag73
ag73
ag73
ag73
ag73
ag73
ag73
ag73
ag73
ag73
ag73
ag73
ag73
ag73
ag73
ag73
ag73
ag73
ag73
ag73
ag73
ag73
ag73
ag73
ag73
ag73
ag73
asg74
(lp5844
g175
ag80
ag82
ag84
ag76
ag85
ag178
ag84
ag87
ag77
ag78
ag85
ag86
ag80
ag82
ag82
ag80
ag82
ag76
ag87
ag82
ag85
ag86
ag84
ag80
ag82
ag76
ag462
ag82
ag76
ag78
ag85
ag83
ag77
ag76
ag80
ag82
ag79
ag79
ag76
ag80
ag82
ag277
ag78
ag85
ag76
ag590
ag178
ag352
ag81
ag176
ag78
ag76
ag82
ag89
asg90
VWhen the sorceress perceived that, she sent her mailed knights, but the listener heard the rattling of their armor, and undid the bandage from one eye of sharp-eyes, who looked for a while rather fixedly at the enemy's troops, on which they all sprang to pieces like glass.
p5845
sba(i__main__
Sentence
p5846
(dp5847
g17
I104
sg18
(lp5848
S'Then'
p5849
aS'the'
p5850
aS'youth'
p5851
aS'and'
p5852
aS'the'
p5853
aS'maiden'
p5854
aS'went'
p5855
aS'on'
p5856
aS'their'
p5857
aS'way'
p5858
aS'undisturbed'
p5859
aS','
p5860
aS'and'
p5861
aS'when'
p5862
aS'the'
p5863
aS'two'
p5864
aS'had'
p5865
aS'been'
p5866
aS'blessed'
p5867
aS'in'
p5868
aS'church'
p5869
aS','
p5870
aS'the'
p5871
aS'six'
p5872
aS'servants'
p5873
aS'took'
p5874
aS'leave'
p5875
aS','
p5876
aS'and'
p5877
aS'said'
p5878
aS'to'
p5879
aS'their'
p5880
aS'master'
p5881
aS','
p5882
aS'``'
p5883
aS'Your'
p5884
aS'wishes'
p5885
aS'are'
p5886
aS'now'
p5887
aS'satisfied'
p5888
aS','
p5889
aS'you'
p5890
aS'need'
p5891
aS'us'
p5892
aS'no'
p5893
aS'longer'
p5894
aS','
p5895
aS'we'
p5896
aS'will'
p5897
aS'go'
p5898
aS'our'
p5899
aS'way'
p5900
aS'and'
p5901
aS'seek'
p5902
aS'our'
p5903
aS'fortunes'
p5904
aS'.'
p5905
aS"''"
p5906
asg45
(lp5907
VThen
p5908
aVthe
p5909
aVyouth
p5910
aVand
p5911
aVthe
p5912
aVmaiden
p5913
ag1308
aVon
p5914
aVtheir
p5915
aVway
p5916
aVundisturbed
p5917
ag59
aVand
p5918
aVwhen
p5919
aVthe
p5920
aVtwo
p5921
ag143
ag236
aVbless
p5922
aVin
p5923
aVchurch
p5924
ag59
aVthe
p5925
aVsix
p5926
aVservant
p5927
ag2977
aVleave
p5928
ag59
aVand
p5929
ag159
aVto
p5930
aVtheir
p5931
aVmaster
p5932
ag59
aV``
p5933
aVYour
p5934
aVwish
p5935
ag763
aVnow
p5936
aVsatisfy
p5937
ag59
aVyou
p5938
aVneed
p5939
ag5275
aVno
p5940
aVlonger
p5941
ag59
aVwe
p5942
aVwill
p5943
aVgo
p5944
aVour
p5945
aVway
p5946
aVand
p5947
aVseek
p5948
aVour
p5949
aVfortune
p5950
ag70
aV''
p5951
asg71
(lp5952
g73
ag73
ag73
ag73
ag73
ag73
ag73
ag73
ag73
ag73
ag73
ag73
ag73
ag73
ag73
ag73
ag73
ag73
ag73
ag73
ag73
ag73
ag73
ag73
ag73
ag73
ag73
ag73
ag73
ag73
ag73
ag73
ag73
ag73
ag73
ag73
ag73
ag73
ag73
ag73
ag73
ag73
ag73
ag73
ag73
ag73
ag73
ag73
ag73
ag73
ag73
ag73
ag73
ag73
ag73
ag73
ag73
ag73
asg74
(lp5953
g79
ag80
ag82
ag86
ag80
ag82
ag84
ag76
ag87
ag82
ag84
ag85
ag86
ag175
ag80
ag462
ag84
ag77
ag77
ag76
ag82
ag85
ag80
ag462
ag78
ag84
ag352
ag85
ag86
ag84
ag176
ag87
ag82
ag85
ag350
ag87
ag78
ag352
ag79
ag77
ag85
ag178
ag352
ag178
ag80
ag82
ag85
ag178
ag179
ag177
ag87
ag82
ag86
ag82
ag87
ag78
ag89
ag353
asg90
VThen the youth and the maiden went on their way undisturbed, and when the two had been blessed in church, the six servants took leave, and said to their master, "Your wishes are now satisfied, you need us no longer, we will go our way and seek our fortunes."
p5954
sba(i__main__
Sentence
p5955
(dp5956
g17
I105
sg18
(lp5957
S'Half'
p5958
aS'a'
p5959
aS'league'
p5960
aS'from'
p5961
aS'the'
p5962
aS'palace'
p5963
aS'of'
p5964
aS'the'
p5965
aS'prince'
p5966
aS"'s"
p5967
aS'father'
p5968
aS'was'
p5969
aS'a'
p5970
aS'village'
p5971
aS'near'
p5972
aS'which'
p5973
aS'a'
p5974
aS'swineherd'
p5975
aS'tended'
p5976
aS'his'
p5977
aS'herd'
p5978
aS','
p5979
aS'and'
p5980
aS'when'
p5981
aS'they'
p5982
aS'came'
p5983
aS'thither'
p5984
aS'the'
p5985
aS'prince'
p5986
aS'said'
p5987
aS'to'
p5988
aS'his'
p5989
aS'wife'
p5990
aS','
p5991
aS'``'
p5992
aS'Do'
p5993
aS'you'
p5994
aS'know'
p5995
aS'who'
p5996
aS'I'
p5997
aS'really'
p5998
aS'am'
p5999
aS'?'
p6000
asg45
(lp6001
VHalf
p6002
ag57
aVleague
p6003
aVfrom
p6004
aVthe
p6005
aVpalace
p6006
aVof
p6007
aVthe
p6008
aVprince
p6009
aV's
p6010
aVfather
p6011
ag56
ag57
aVvillage
p6012
aVnear
p6013
aVwhich
p6014
ag57
aVswineherd
p6015
aVtend
p6016
aVhis
p6017
aVherd
p6018
ag59
aVand
p6019
aVwhen
p6020
aVthey
p6021
ag662
aVthither
p6022
aVthe
p6023
aVprince
p6024
ag159
aVto
p6025
aVhis
p6026
aVwife
p6027
ag59
aV``
p6028
aVDo
p6029
aVyou
p6030
aVknow
p6031
aVwho
p6032
ag340
aVreally
p6033
ag862
ag809
asg71
(lp6034
g73
ag73
ag73
ag73
ag73
ag73
ag73
ag73
ag73
ag73
ag73
ag73
ag73
ag73
ag73
ag73
ag73
ag73
ag73
ag73
ag73
ag73
ag73
ag73
ag73
ag73
ag73
ag73
ag73
ag73
ag73
ag73
ag73
ag73
ag73
ag73
ag73
ag73
ag73
ag73
ag73
ag73
ag73
asg74
(lp6035
g351
ag80
ag81
ag76
ag80
ag82
ag76
ag80
ag82
ag277
ag82
ag84
ag80
ag82
ag76
ag590
ag80
ag82
ag77
ag87
ag82
ag85
ag86
ag175
ag178
ag84
ag79
ag80
ag82
ag84
ag176
ag87
ag82
ag85
ag350
ag352
ag178
ag177
ag83
ag178
ag79
ag352
ag89
asg90
VHalf a league from the palace of the prince's father was a village near which a swineherd tended his herd, and when they came thither the prince said to his wife, "Do you know who I really am?
p6036
sba(i__main__
Sentence
p6037
(dp6038
g17
I106
sg18
(lp6039
S'I'
p6040
aS'am'
p6041
aS'no'
p6042
aS'prince'
p6043
aS','
p6044
aS'but'
p6045
aS'a'
p6046
aS'herder'
p6047
aS'of'
p6048
aS'swine'
p6049
aS','
p6050
aS'and'
p6051
aS'the'
p6052
aS'man'
p6053
aS'who'
p6054
aS'is'
p6055
aS'there'
p6056
aS'with'
p6057
aS'that'
p6058
aS'herd'
p6059
aS','
p6060
aS'is'
p6061
aS'my'
p6062
aS'father'
p6063
aS'.'
p6064
asg45
(lp6065
g340
ag862
aVno
p6066
aVprince
p6067
ag59
aVbut
p6068
ag57
aVherder
p6069
aVof
p6070
aVswine
p6071
ag59
aVand
p6072
aVthe
p6073
aVman
p6074
aVwho
p6075
ag855
aVthere
p6076
aVwith
p6077
aVthat
p6078
aVherd
p6079
ag59
ag855
aVmy
p6080
aVfather
p6081
ag70
asg71
(lp6082
g73
ag73
ag73
ag73
ag73
ag73
ag73
ag73
ag73
ag73
ag73
ag73
ag73
ag73
ag73
ag73
ag73
ag73
ag73
ag73
ag73
ag73
ag73
ag73
ag73
asg74
(lp6083
g178
ag352
ag80
ag82
ag85
ag86
ag80
ag82
ag76
ag82
ag85
ag86
ag80
ag82
ag83
ag871
ag79
ag76
ag80
ag82
ag85
ag871
ag87
ag82
ag89
asg90
VI am no prince, but a herder of swine, and the man who is there with that herd, is my father.
p6084
sba(i__main__
Sentence
p6085
(dp6086
g17
I107
sg18
(lp6087
S'We'
p6088
aS'two'
p6089
aS'shall'
p6090
aS'have'
p6091
aS'to'
p6092
aS'set'
p6093
aS'to'
p6094
aS'work'
p6095
aS'also'
p6096
aS','
p6097
aS'and'
p6098
aS'help'
p6099
aS'him'
p6100
aS'.'
p6101
aS"''"
p6102
asg45
(lp6103
VWe
p6104
aVtwo
p6105
aVshall
p6106
aVhave
p6107
aVto
p6108
aVset
p6109
aVto
p6110
aVwork
p6111
aValso
p6112
ag59
aVand
p6113
aVhelp
p6114
aVhim
p6115
ag70
aV''
p6116
asg71
(lp6117
g73
ag73
ag73
ag73
ag73
ag73
ag73
ag73
ag73
ag73
ag73
ag73
ag73
ag73
ag73
asg74
(lp6118
g178
ag462
ag179
ag177
ag176
ag177
ag176
ag177
ag79
ag85
ag86
ag177
ag178
ag89
ag353
asg90
VWe two shall have to set to work also, and help him."
p6119
sba(i__main__
Sentence
p6120
(dp6121
g17
I108
sg18
(lp6122
S'Then'
p6123
aS'he'
p6124
aS'alighted'
p6125
aS'with'
p6126
aS'her'
p6127
aS'at'
p6128
aS'the'
p6129
aS'inn'
p6130
aS','
p6131
aS'and'
p6132
aS'secretly'
p6133
aS'told'
p6134
aS'the'
p6135
aS'innkeepers'
p6136
aS'to'
p6137
aS'take'
p6138
aS'away'
p6139
aS'her'
p6140
aS'royal'
p6141
aS'apparel'
p6142
aS'during'
p6143
aS'the'
p6144
aS'night'
p6145
aS'.'
p6146
asg45
(lp6147
VThen
p6148
aVhe
p6149
aValight
p6150
aVwith
p6151
aVher
p6152
aVat
p6153
aVthe
p6154
aVinn
p6155
ag59
aVand
p6156
aVsecretly
p6157
ag3554
aVthe
p6158
aVinnkeeper
p6159
aVto
p6160
aVtake
p6161
aVaway
p6162
aVher
p6163
aVroyal
p6164
aVapparel
p6165
aVduring
p6166
aVthe
p6167
aVnight
p6168
ag70
asg71
(lp6169
g73
ag73
ag73
ag73
ag73
ag73
ag73
ag73
ag73
ag73
ag73
ag73
ag73
ag73
ag73
ag73
ag73
ag73
ag73
ag73
ag73
ag73
ag73
ag73
asg74
(lp6170
g79
ag178
ag84
ag76
ag87
ag76
ag80
ag82
ag85
ag86
ag79
ag84
ag80
ag78
ag176
ag177
ag278
ag87
ag82
ag82
ag76
ag80
ag82
ag89
asg90
VThen he alighted with her at the inn, and secretly told the innkeepers to take away her royal apparel during the night.
p6171
sba(i__main__
Sentence
p6172
(dp6173
g17
I109
sg18
(lp6174
S'So'
p6175
aS'when'
p6176
aS'she'
p6177
aS'awoke'
p6178
aS'in'
p6179
aS'the'
p6180
aS'morning'
p6181
aS','
p6182
aS'she'
p6183
aS'had'
p6184
aS'nothing'
p6185
aS'to'
p6186
aS'put'
p6187
aS'on'
p6188
aS','
p6189
aS'and'
p6190
aS'the'
p6191
aS'innkeeper'
p6192
aS"'s"
p6193
aS'wife'
p6194
aS'gave'
p6195
aS'her'
p6196
aS'an'
p6197
aS'old'
p6198
aS'gown'
p6199
aS'and'
p6200
aS'a'
p6201
aS'pair'
p6202
aS'of'
p6203
aS'worsted'
p6204
aS'stockings'
p6205
aS','
p6206
aS'and'
p6207
aS'at'
p6208
aS'the'
p6209
aS'same'
p6210
aS'time'
p6211
aS'seemed'
p6212
aS'to'
p6213
aS'consider'
p6214
aS'it'
p6215
aS'a'
p6216
aS'great'
p6217
aS'present'
p6218
aS','
p6219
aS'and'
p6220
aS'said'
p6221
aS','
p6222
aS'``'
p6223
aS'If'
p6224
aS'it'
p6225
aS'were'
p6226
aS'not'
p6227
aS'for'
p6228
aS'the'
p6229
aS'sake'
p6230
aS'of'
p6231
aS'your'
p6232
aS'husband'
p6233
aS'I'
p6234
aS'should'
p6235
aS'have'
p6236
aS'given'
p6237
aS'you'
p6238
aS'nothing'
p6239
aS'at'
p6240
aS'all'
p6241
aS'.'
p6242
aS"''"
p6243
asg45
(lp6244
VSo
p6245
aVwhen
p6246
aVshe
p6247
aVawake
p6248
aVin
p6249
aVthe
p6250
aVmorning
p6251
ag59
aVshe
p6252
ag143
aVnothing
p6253
aVto
p6254
aVput
p6255
aVon
p6256
ag59
aVand
p6257
aVthe
p6258
aVinnkeeper
p6259
aV's
p6260
aVwife
p6261
ag4008
aVher
p6262
aVan
p6263
aVold
p6264
aVgown
p6265
aVand
p6266
ag57
aVpair
p6267
aVof
p6268
aVworst
p6269
aVstocking
p6270
ag59
aVand
p6271
aVat
p6272
aVthe
p6273
aVsame
p6274
aVtime
p6275
aVseem
p6276
aVto
p6277
aVconsider
p6278
aVit
p6279
ag57
aVgreat
p6280
aVpresent
p6281
ag59
aVand
p6282
ag159
ag59
aV``
p6283
aVIf
p6284
aVit
p6285
ag272
aVnot
p6286
aVfor
p6287
aVthe
p6288
aVsake
p6289
aVof
p6290
aVyour
p6291
aVhusband
p6292
ag340
aVshould
p6293
aVhave
p6294
aVgive
p6295
aVyou
p6296
aVnothing
p6297
aVat
p6298
aVall
p6299
ag70
aV''
p6300
asg71
(lp6301
g73
ag73
ag73
ag73
ag73
ag73
ag73
ag73
ag73
ag73
ag73
ag73
ag73
ag73
ag73
ag73
ag73
ag73
ag73
ag73
ag73
ag73
ag73
ag73
ag73
ag73
ag73
ag73
ag73
ag73
ag73
ag73
ag73
ag73
ag73
ag73
ag73
ag73
ag73
ag73
ag73
ag73
ag73
ag73
ag73
ag73
ag73
ag73
ag73
ag73
ag73
ag73
ag73
ag73
ag73
ag73
ag73
ag73
ag73
ag73
ag73
ag73
ag73
ag73
ag73
ag73
ag73
ag73
ag73
asg74
(lp6302
g76
ag175
ag178
ag352
ag76
ag80
ag82
ag85
ag178
ag84
ag82
ag176
ag177
ag76
ag85
ag86
ag80
ag82
ag277
ag82
ag84
ag178
ag80
ag81
ag82
ag86
ag80
ag82
ag76
ag77
ag78
ag85
ag86
ag76
ag80
ag81
ag82
ag84
ag176
ag177
ag178
ag80
ag81
ag82
ag85
ag86
ag84
ag85
ag350
ag76
ag178
ag84
ag79
ag76
ag80
ag82
ag76
ag87
ag82
ag178
ag179
ag177
ag77
ag178
ag82
ag76
ag80
ag89
ag353
asg90
VSo when she awoke in the morning, she had nothing to put on, and the innkeeper's wife gave her an old gown and a pair of worsted stockings, and at the same time seemed to consider it a great present, and said, "If it were not for the sake of your husband I should have given you nothing at all."
p6303
sba(i__main__
Sentence
p6304
(dp6305
g17
I110
sg18
(lp6306
S'Then'
p6307
aS'the'
p6308
aS'princess'
p6309
aS'believed'
p6310
aS'that'
p6311
aS'he'
p6312
aS'really'
p6313
aS'was'
p6314
aS'a'
p6315
aS'swineherd'
p6316
aS','
p6317
aS'and'
p6318
aS'tended'
p6319
aS'the'
p6320
aS'herd'
p6321
aS'with'
p6322
aS'him'
p6323
aS','
p6324
aS'and'
p6325
aS'thought'
p6326
aS'to'
p6327
aS'herself'
p6328
aS','
p6329
aS'``'
p6330
aS'I'
p6331
aS'have'
p6332
aS'deserved'
p6333
aS'this'
p6334
aS'for'
p6335
aS'my'
p6336
aS'haughtiness'
p6337
aS'and'
p6338
aS'pride'
p6339
aS'.'
p6340
aS"''"
p6341
asg45
(lp6342
VThen
p6343
aVthe
p6344
aVprincess
p6345
aVbelieve
p6346
aVthat
p6347
aVhe
p6348
aVreally
p6349
ag56
ag57
aVswineherd
p6350
ag59
aVand
p6351
aVtend
p6352
aVthe
p6353
aVherd
p6354
aVwith
p6355
aVhim
p6356
ag59
aVand
p6357
ag3638
aVto
p6358
aVherself
p6359
ag59
aV``
p6360
ag340
aVhave
p6361
aVdeserve
p6362
aVthis
p6363
aVfor
p6364
aVmy
p6365
aVhaughtiness
p6366
aVand
p6367
aVpride
p6368
ag70
aV''
p6369
asg71
(lp6370
g73
ag73
ag73
ag73
ag73
ag73
ag73
ag73
ag73
ag73
ag73
ag73
ag73
ag73
ag73
ag73
ag73
ag73
ag73
ag73
ag73
ag73
ag73
ag73
ag73
ag73
ag73
ag73
ag73
ag73
ag73
ag73
ag73
ag73
ag73
asg74
(lp6371
g79
ag80
ag82
ag84
ag76
ag178
ag79
ag84
ag80
ag82
ag85
ag86
ag84
ag80
ag82
ag76
ag178
ag85
ag86
ag84
ag176
ag178
ag85
ag350
ag178
ag352
ag77
ag80
ag76
ag87
ag82
ag86
ag177
ag89
ag353
asg90
VThen the princess believed that he really was a swineherd, and tended the herd with him, and thought to herself, "I have deserved this for my haughtiness and pride."
p6372
sba(i__main__
Sentence
p6373
(dp6374
g17
I111
sg18
(lp6375
S'This'
p6376
aS'lasted'
p6377
aS'for'
p6378
aS'a'
p6379
aS'week'
p6380
aS','
p6381
aS'and'
p6382
aS'then'
p6383
aS'she'
p6384
aS'could'
p6385
aS'endure'
p6386
aS'it'
p6387
aS'no'
p6388
aS'longer'
p6389
aS','
p6390
aS'for'
p6391
aS'she'
p6392
aS'had'
p6393
aS'sores'
p6394
aS'on'
p6395
aS'her'
p6396
aS'feet'
p6397
aS'.'
p6398
asg45
(lp6399
VThis
p6400
aVlast
p6401
aVfor
p6402
ag57
aVweek
p6403
ag59
aVand
p6404
aVthen
p6405
aVshe
p6406
aVcould
p6407
aVendure
p6408
aVit
p6409
aVno
p6410
aVlonger
p6411
ag59
aVfor
p6412
aVshe
p6413
ag143
aVsore
p6414
aVon
p6415
aVher
p6416
ag1315
ag70
asg71
(lp6417
g73
ag73
ag73
ag73
ag73
ag73
ag73
ag73
ag73
ag73
ag73
ag73
ag73
ag73
ag73
ag73
ag73
ag73
ag73
ag73
ag73
ag73
ag73
asg74
(lp6418
g80
ag77
ag76
ag80
ag82
ag85
ag86
ag79
ag178
ag179
ag177
ag178
ag80
ag82
ag85
ag76
ag178
ag84
ag78
ag76
ag87
ag82
ag89
asg90
VThis lasted for a week, and then she could endure it no longer, for she had sores on her feet.
p6419
sba(i__main__
Sentence
p6420
(dp6421
g17
I112
sg18
(lp6422
S'And'
p6423
aS'now'
p6424
aS'came'
p6425
aS'a'
p6426
aS'couple'
p6427
aS'of'
p6428
aS'people'
p6429
aS'who'
p6430
aS'asked'
p6431
aS'if'
p6432
aS'she'
p6433
aS'knew'
p6434
aS'who'
p6435
aS'her'
p6436
aS'husband'
p6437
aS'was'
p6438
aS'.'
p6439
asg45
(lp6440
VAnd
p6441
aVnow
p6442
ag662
ag57
aVcouple
p6443
aVof
p6444
aVpeople
p6445
aVwho
p6446
aVask
p6447
aVif
p6448
aVshe
p6449
ag5702
aVwho
p6450
aVher
p6451
aVhusband
p6452
ag56
ag70
asg71
(lp6453
g73
ag73
ag73
ag73
ag73
ag73
ag73
ag73
ag73
ag73
ag73
ag73
ag73
ag73
ag73
ag73
ag73
asg74
(lp6454
g86
ag79
ag84
ag80
ag82
ag76
ag78
ag83
ag84
ag76
ag178
ag84
ag83
ag87
ag82
ag84
ag89
asg90
VAnd now came a couple of people who asked if she knew who her husband was.
p6455
sba(i__main__
Sentence
p6456
(dp6457
g17
I113
sg18
(lp6458
S'``'
p6459
aS'Yes'
p6460
aS','
p6461
aS"''"
p6462
aS'she'
p6463
aS'answered'
p6464
aS','
p6465
aS'``'
p6466
aS'he'
p6467
aS'is'
p6468
aS'a'
p6469
aS'swineherd'
p6470
aS','
p6471
aS'and'
p6472
aS'has'
p6473
aS'just'
p6474
aS'gone'
p6475
aS'out'
p6476
aS'with'
p6477
aS'cords'
p6478
aS'and'
p6479
aS'ropes'
p6480
aS'to'
p6481
aS'try'
p6482
aS'to'
p6483
aS'drive'
p6484
aS'a'
p6485
aS'little'
p6486
aS'bargain'
p6487
aS'.'
p6488
aS"''"
p6489
asg45
(lp6490
V``
p6491
aVYes
p6492
ag59
aV''
p6493
aVshe
p6494
aVanswer
p6495
ag59
aV``
p6496
aVhe
p6497
ag855
ag57
aVswineherd
p6498
ag59
aVand
p6499
ag1179
aVjust
p6500
aVgo
p6501
aVout
p6502
aVwith
p6503
aVcord
p6504
aVand
p6505
aVrope
p6506
aVto
p6507
aVtry
p6508
aVto
p6509
aVdrive
p6510
ag57
aVlittle
p6511
aVbargain
p6512
ag70
aV''
p6513
asg71
(lp6514
g73
ag73
ag73
ag73
ag73
ag73
ag73
ag73
ag73
ag73
ag73
ag73
ag73
ag73
ag73
ag73
ag73
ag73
ag73
ag73
ag73
ag73
ag73
ag73
ag73
ag73
ag73
ag73
ag73
ag73
ag73
asg74
(lp6515
g350
ag871
ag85
ag353
ag178
ag84
ag85
ag350
ag178
ag871
ag80
ag82
ag85
ag86
ag871
ag79
ag77
ag278
ag76
ag78
ag86
ag78
ag176
ag177
ag176
ag177
ag80
ag79
ag82
ag89
ag353
asg90
V"Yes," she answered, "he is a swineherd, and has just gone out with cords and ropes to try to drive a little bargain."
p6516
sba(i__main__
Sentence
p6517
(dp6518
g17
I114
sg18
(lp6519
S'But'
p6520
aS'they'
p6521
aS'said'
p6522
aS','
p6523
aS'``'
p6524
aS'Just'
p6525
aS'come'
p6526
aS'with'
p6527
aS'us'
p6528
aS','
p6529
aS'and'
p6530
aS'we'
p6531
aS'will'
p6532
aS'take'
p6533
aS'you'
p6534
aS'to'
p6535
aS'him'
p6536
aS','
p6537
aS"''"
p6538
aS'and'
p6539
aS'they'
p6540
aS'took'
p6541
aS'her'
p6542
aS'up'
p6543
aS'to'
p6544
aS'the'
p6545
aS'palace'
p6546
aS','
p6547
aS'and'
p6548
aS'when'
p6549
aS'she'
p6550
aS'entered'
p6551
aS'the'
p6552
aS'hall'
p6553
aS','
p6554
aS'there'
p6555
aS'stood'
p6556
aS'her'
p6557
aS'husband'
p6558
aS'in'
p6559
aS'kingly'
p6560
aS'raiment'
p6561
aS'.'
p6562
asg45
(lp6563
VBut
p6564
aVthey
p6565
ag159
ag59
aV``
p6566
aVJust
p6567
aVcome
p6568
aVwith
p6569
ag5275
ag59
aVand
p6570
aVwe
p6571
aVwill
p6572
aVtake
p6573
aVyou
p6574
aVto
p6575
aVhim
p6576
ag59
aV''
p6577
aVand
p6578
aVthey
p6579
ag2977
aVher
p6580
aVup
p6581
aVto
p6582
aVthe
p6583
aVpalace
p6584
ag59
aVand
p6585
aVwhen
p6586
aVshe
p6587
aVenter
p6588
aVthe
p6589
aVhall
p6590
ag59
aVthere
p6591
aVstood
p6592
aVher
p6593
aVhusband
p6594
aVin
p6595
aVkingly
p6596
aVraiment
p6597
ag70
asg71
(lp6598
g73
ag73
ag73
ag73
ag73
ag73
ag73
ag73
ag73
ag73
ag73
ag73
ag73
ag73
ag73
ag73
ag73
ag73
ag73
ag73
ag73
ag73
ag73
ag73
ag73
ag73
ag73
ag73
ag73
ag73
ag73
ag73
ag73
ag73
ag73
ag73
ag73
ag73
ag73
ag73
ag73
ag73
ag73
asg74
(lp6599
g86
ag178
ag84
ag85
ag350
ag79
ag352
ag76
ag178
ag85
ag86
ag178
ag179
ag177
ag178
ag176
ag178
ag85
ag353
ag86
ag178
ag84
ag87
ag278
ag176
ag80
ag82
ag85
ag86
ag175
ag178
ag84
ag80
ag82
ag85
ag712
ag82
ag87
ag82
ag76
ag79
ag81
ag89
asg90
VBut they said, "Just come with us, and we will take you to him," and they took her up to the palace, and when she entered the hall, there stood her husband in kingly raiment.
p6600
sba(i__main__
Sentence
p6601
(dp6602
g17
I115
sg18
(lp6603
S'But'
p6604
aS'she'
p6605
aS'did'
p6606
aS'not'
p6607
aS'recognize'
p6608
aS'him'
p6609
aS'until'
p6610
aS'he'
p6611
aS'took'
p6612
aS'her'
p6613
aS'in'
p6614
aS'his'
p6615
aS'arms'
p6616
aS','
p6617
aS'kissed'
p6618
aS'her'
p6619
aS','
p6620
aS'and'
p6621
aS'said'
p6622
aS','
p6623
aS'``'
p6624
aS'I'
p6625
aS'suffered'
p6626
aS'so'
p6627
aS'much'
p6628
aS'for'
p6629
aS'you'
p6630
aS'that'
p6631
aS'you'
p6632
aS','
p6633
aS'too'
p6634
aS','
p6635
aS'had'
p6636
aS'to'
p6637
aS'suffer'
p6638
aS'for'
p6639
aS'me'
p6640
aS'.'
p6641
aS"''"
p6642
asg45
(lp6643
VBut
p6644
aVshe
p6645
ag2393
aVnot
p6646
aVrecognize
p6647
aVhim
p6648
aVuntil
p6649
aVhe
p6650
ag2977
aVher
p6651
aVin
p6652
aVhis
p6653
aVarm
p6654
ag59
aVkiss
p6655
aVher
p6656
ag59
aVand
p6657
ag159
ag59
aV``
p6658
ag340
aVsuffer
p6659
aVso
p6660
aVmuch
p6661
aVfor
p6662
aVyou
p6663
aVthat
p6664
aVyou
p6665
ag59
aVtoo
p6666
ag59
ag143
aVto
p6667
aVsuffer
p6668
aVfor
p6669
aVme
p6670
ag70
aV''
p6671
asg71
(lp6672
g73
ag73
ag73
ag73
ag73
ag73
ag73
ag73
ag73
ag73
ag73
ag73
ag73
ag73
ag73
ag73
ag73
ag73
ag73
ag73
ag73
ag73
ag73
ag73
ag73
ag73
ag73
ag73
ag73
ag73
ag73
ag73
ag73
ag73
ag73
ag73
ag73
ag73
ag73
asg74
(lp6673
g86
ag178
ag84
ag79
ag177
ag178
ag76
ag178
ag84
ag178
ag76
ag87
ag78
ag85
ag84
ag178
ag85
ag86
ag84
ag85
ag350
ag178
ag84
ag79
ag79
ag76
ag178
ag76
ag178
ag85
ag79
ag85
ag84
ag176
ag177
ag76
ag178
ag89
ag353
asg90
VBut she did not recognize him until he took her in his arms, kissed her, and said, "I suffered so much for you that you, too, had to suffer for me."
p6674
sba(i__main__
Sentence
p6675
(dp6676
g17
I116
sg18
(lp6677
S'And'
p6678
aS'then'
p6679
aS'the'
p6680
aS'wedding'
p6681
aS'was'
p6682
aS'celebrated'
p6683
aS','
p6684
aS'and'
p6685
aS'he'
p6686
aS'who'
p6687
aS'has'
p6688
aS'related'
p6689
aS'this'
p6690
aS','
p6691
aS'wishes'
p6692
aS'that'
p6693
aS'he'
p6694
aS','
p6695
aS'too'
p6696
aS','
p6697
aS'had'
p6698
aS'been'
p6699
aS'present'
p6700
aS'at'
p6701
aS'it'
p6702
aS'.'
p6703
asg45
(lp6704
VAnd
p6705
aVthen
p6706
aVthe
p6707
aVwedding
p6708
ag56
aVcelebrate
p6709
ag59
aVand
p6710
aVhe
p6711
aVwho
p6712
ag1179
aVrelate
p6713
aVthis
p6714
ag59
aVwish
p6715
aVthat
p6716
aVhe
p6717
ag59
aVtoo
p6718
ag59
ag143
ag236
aVpresent
p6719
aVat
p6720
aVit
p6721
ag70
asg71
(lp6722
g73
ag73
ag73
ag73
ag73
ag73
ag73
ag73
ag73
ag73
ag73
ag73
ag73
ag73
ag73
ag73
ag73
ag73
ag73
ag73
ag73
ag73
ag73
ag73
ag73
ag73
asg74
(lp6723
g86
ag79
ag80
ag82
ag84
ag77
ag85
ag86
ag178
ag83
ag871
ag77
ag80
ag85
ag871
ag76
ag178
ag85
ag79
ag85
ag84
ag77
ag81
ag76
ag178
ag89
asg90
VAnd then the wedding was celebrated, and he who has related this, wishes that he, too, had been present at it. 
p6724
sbasbsS'summary'
p6725
g0
(g7
g2
Ntp6726
Rp6727
(dp6728
g11
S'In an attempt to do away with mankind, a sorceress presents all of her daughter\'s suitors with a task they must perform. With the help of a group of six servants with special abilities, one man is able to complete all the tasks. The sorceress causes her daughter to be angry with her new husband because she must now take orders from a common man. The daughter sets forth a test for her husband. He or one of his servants is to stand in the midst of burning wood. One servant agrees to this task and survives his time in the fire. The man reveals his "real" identity. He tells her he is a swineherd. She helps with the swine one week. She meets people who ask her if she knows who her husband is. They take her to him in his palace...'
p6729
sg13
(lp6730
(i__main__
Sentence
p6731
(dp6732
g17
I0
sg18
(lp6733
S'In'
p6734
aS'an'
p6735
aS'attempt'
p6736
aS'to'
p6737
aS'do'
p6738
aS'away'
p6739
aS'with'
p6740
aS'mankind'
p6741
aS','
p6742
aS'a'
p6743
aS'sorceress'
p6744
aS'presents'
p6745
aS'all'
p6746
aS'of'
p6747
aS'her'
p6748
aS'daughter'
p6749
aS"'s"
p6750
aS'suitors'
p6751
aS'with'
p6752
aS'a'
p6753
aS'task'
p6754
aS'they'
p6755
aS'must'
p6756
aS'perform'
p6757
aS'.'
p6758
asg45
(lp6759
VIn
p6760
aVan
p6761
aVattempt
p6762
aVto
p6763
aVdo
p6764
aVaway
p6765
aVwith
p6766
aVmankind
p6767
ag59
ag57
aVsorceress
p6768
aVpresent
p6769
aVall
p6770
aVof
p6771
aVher
p6772
aVdaughter
p6773
aV's
p6774
aVsuitor
p6775
aVwith
p6776
ag57
aVtask
p6777
aVthey
p6778
aVmust
p6779
aVperform
p6780
ag70
asg71
(lp6781
g73
ag73
ag73
ag73
ag73
ag73
ag73
ag73
ag73
ag73
ag73
ag73
ag73
ag73
ag73
ag73
ag73
ag73
ag73
ag73
ag73
ag73
ag73
ag73
ag73
asg74
(lp6782
g76
ag80
ag82
ag176
ag177
ag79
ag76
ag81
ag85
ag80
ag82
ag78
ag80
ag76
ag87
ag82
ag277
ag78
ag76
ag80
ag82
ag178
ag179
ag177
ag89
asg90
VIn an attempt to do away with mankind, a sorceress presents all of her daughter's suitors with a task they must perform.
p6783
sba(i__main__
Sentence
p6784
(dp6785
g17
I1
sg18
(lp6786
S'With'
p6787
aS'the'
p6788
aS'help'
p6789
aS'of'
p6790
aS'a'
p6791
aS'group'
p6792
aS'of'
p6793
aS'six'
p6794
aS'servants'
p6795
aS'with'
p6796
aS'special'
p6797
aS'abilities'
p6798
aS','
p6799
aS'one'
p6800
aS'man'
p6801
aS'is'
p6802
aS'able'
p6803
aS'to'
p6804
aS'complete'
p6805
aS'all'
p6806
aS'the'
p6807
aS'tasks'
p6808
aS'.'
p6809
asg45
(lp6810
VWith
p6811
aVthe
p6812
aVhelp
p6813
aVof
p6814
ag57
aVgroup
p6815
aVof
p6816
aVsix
p6817
aVservant
p6818
aVwith
p6819
aVspecial
p6820
aVability
p6821
ag59
aVone
p6822
aVman
p6823
ag855
aVable
p6824
aVto
p6825
aVcomplete
p6826
aVall
p6827
aVthe
p6828
aVtask
p6829
ag70
asg71
(lp6830
g73
ag73
ag73
ag73
ag73
ag73
ag73
ag73
ag73
ag73
ag73
ag73
ag73
ag73
ag73
ag73
ag73
ag73
ag73
ag73
ag73
ag73
ag73
asg74
(lp6831
g76
ag80
ag82
ag76
ag80
ag82
ag76
ag462
ag78
ag76
ag81
ag78
ag85
ag462
ag82
ag871
ag81
ag176
ag81
ag80
ag80
ag78
ag89
asg90
VWith the help of a group of six servants with special abilities, one man is able to complete all the tasks.
p6832
sba(i__main__
Sentence
p6833
(dp6834
g17
I2
sg18
(lp6835
S'The'
p6836
aS'sorceress'
p6837
aS'causes'
p6838
aS'her'
p6839
aS'daughter'
p6840
aS'to'
p6841
aS'be'
p6842
aS'angry'
p6843
aS'with'
p6844
aS'her'
p6845
aS'new'
p6846
aS'husband'
p6847
aS'because'
p6848
aS'she'
p6849
aS'must'
p6850
aS'now'
p6851
aS'take'
p6852
aS'orders'
p6853
aS'from'
p6854
aS'a'
p6855
aS'common'
p6856
aS'man'
p6857
aS'.'
p6858
asg45
(lp6859
VThe
p6860
aVsorceress
p6861
aVcause
p6862
aVher
p6863
aVdaughter
p6864
aVto
p6865
aVbe
p6866
aVangry
p6867
aVwith
p6868
aVher
p6869
aVnew
p6870
aVhusband
p6871
aVbecause
p6872
aVshe
p6873
aVmust
p6874
aVnow
p6875
aVtake
p6876
aVorder
p6877
aVfrom
p6878
ag57
aVcommon
p6879
aVman
p6880
ag70
asg71
(lp6881
g73
ag73
ag73
ag73
ag73
ag73
ag73
ag73
ag73
ag73
ag73
ag73
ag73
ag73
ag73
ag73
ag73
ag73
ag73
ag73
ag73
ag73
ag73
asg74
(lp6882
g80
ag82
ag78
ag87
ag82
ag176
ag177
ag81
ag76
ag87
ag81
ag82
ag76
ag178
ag179
ag79
ag177
ag78
ag76
ag80
ag81
ag82
ag89
asg90
VThe sorceress causes her daughter to be angry with her new husband because she must now take orders from a common man.
p6883
sba(i__main__
Sentence
p6884
(dp6885
g17
I3
sg18
(lp6886
S'The'
p6887
aS'daughter'
p6888
aS'sets'
p6889
aS'forth'
p6890
aS'a'
p6891
aS'test'
p6892
aS'for'
p6893
aS'her'
p6894
aS'husband'
p6895
aS'.'
p6896
asg45
(lp6897
VThe
p6898
aVdaughter
p6899
aVset
p6900
aVforth
p6901
ag57
aVtest
p6902
aVfor
p6903
aVher
p6904
aVhusband
p6905
ag70
asg71
(lp6906
g73
ag73
ag73
ag73
ag73
ag73
ag73
ag73
ag73
ag73
asg74
(lp6907
g80
ag82
ag871
ag81
ag80
ag82
ag76
ag87
ag82
ag89
asg90
VThe daughter sets forth a test for her husband.
p6908
sba(i__main__
Sentence
p6909
(dp6910
g17
I4
sg18
(lp6911
S'He'
p6912
aS'or'
p6913
aS'one'
p6914
aS'of'
p6915
aS'his'
p6916
aS'servants'
p6917
aS'is'
p6918
aS'to'
p6919
aS'stand'
p6920
aS'in'
p6921
aS'the'
p6922
aS'midst'
p6923
aS'of'
p6924
aS'burning'
p6925
aS'wood'
p6926
aS'.'
p6927
asg45
(lp6928
VHe
p6929
aVor
p6930
aVone
p6931
aVof
p6932
aVhis
p6933
aVservant
p6934
ag855
aVto
p6935
aVstand
p6936
aVin
p6937
aVthe
p6938
aVmidst
p6939
aVof
p6940
aVburn
p6941
aVwood
p6942
ag70
asg71
(lp6943
g73
ag73
ag73
ag73
ag73
ag73
ag73
ag73
ag73
ag73
ag73
ag73
ag73
ag73
ag73
ag73
asg74
(lp6944
g178
ag86
ag462
ag76
ag87
ag78
ag871
ag176
ag177
ag76
ag80
ag82
ag76
ag404
ag82
ag89
asg90
VHe or one of his servants is to stand in the midst of burning wood.
p6945
sba(i__main__
Sentence
p6946
(dp6947
g17
I5
sg18
(lp6948
S'One'
p6949
aS'servant'
p6950
aS'agrees'
p6951
aS'to'
p6952
aS'this'
p6953
aS'task'
p6954
aS'and'
p6955
aS'survives'
p6956
aS'his'
p6957
aS'time'
p6958
aS'in'
p6959
aS'the'
p6960
aS'fire'
p6961
aS'.'
p6962
asg45
(lp6963
VOne
p6964
aVservant
p6965
aVagrees
p6966
aVto
p6967
aVthis
p6968
aVtask
p6969
aVand
p6970
aVsurvives
p6971
aVhis
p6972
aVtime
p6973
aVin
p6974
aVthe
p6975
aVfire
p6976
ag70
asg71
(lp6977
g73
ag73
ag73
ag73
ag73
ag73
ag73
ag73
ag73
ag73
ag73
ag73
ag73
ag73
asg74
(lp6978
g462
ag81
ag78
ag176
ag80
ag82
ag86
ag78
ag87
ag82
ag76
ag80
ag82
ag89
asg90
VOne servant agrees to this task and survives his time in the fire.
p6979
sba(i__main__
Sentence
p6980
(dp6981
g17
I6
sg18
(lp6982
S'The'
p6983
aS'man'
p6984
aS'reveals'
p6985
aS'his'
p6986
aS'``'
p6987
aS'real'
p6988
aS"''"
p6989
aS'identity'
p6990
aS'.'
p6991
asg45
(lp6992
VThe
p6993
aVman
p6994
aVreveals
p6995
aVhis
p6996
aV``
p6997
aVreal
p6998
aV''
p6999
aVidentity
p7000
ag70
asg71
(lp7001
g73
ag73
ag73
ag73
ag73
ag73
ag73
ag73
ag73
asg74
(lp7002
g80
ag82
ag78
ag87
ag350
ag81
ag353
ag82
ag89
asg90
VThe man reveals his "real" identity.
p7003
sba(i__main__
Sentence
p7004
(dp7005
g17
I7
sg18
(lp7006
S'He'
p7007
aS'tells'
p7008
aS'her'
p7009
aS'he'
p7010
aS'is'
p7011
aS'a'
p7012
aS'swineherd'
p7013
aS'.'
p7014
asg45
(lp7015
VHe
p7016
aVtell
p7017
aVher
p7018
aVhe
p7019
ag855
ag57
aVswineherd
p7020
ag70
asg71
(lp7021
g73
ag73
ag73
ag73
ag73
ag73
ag73
ag73
asg74
(lp7022
g178
ag871
ag87
ag178
ag871
ag80
ag82
ag89
asg90
VHe tells her he is a swineherd.
p7023
sba(i__main__
Sentence
p7024
(dp7025
g17
I8
sg18
(lp7026
S'She'
p7027
aS'helps'
p7028
aS'with'
p7029
aS'the'
p7030
aS'swine'
p7031
aS'one'
p7032
aS'week'
p7033
aS'.'
p7034
asg45
(lp7035
VShe
p7036
aVhelp
p7037
aVwith
p7038
aVthe
p7039
aVswine
p7040
aVone
p7041
aVweek
p7042
ag70
asg71
(lp7043
g73
ag73
ag73
ag73
ag73
ag73
ag73
ag73
asg74
(lp7044
g178
ag871
ag76
ag80
ag82
ag462
ag82
ag89
asg90
VShe helps with the swine one week.
p7045
sba(i__main__
Sentence
p7046
(dp7047
g17
I9
sg18
(lp7048
S'She'
p7049
aS'meets'
p7050
aS'people'
p7051
aS'who'
p7052
aS'ask'
p7053
aS'her'
p7054
aS'if'
p7055
aS'she'
p7056
aS'knows'
p7057
aS'who'
p7058
aS'her'
p7059
aS'husband'
p7060
aS'is'
p7061
aS'.'
p7062
asg45
(lp7063
VShe
p7064
aVmeet
p7065
aVpeople
p7066
aVwho
p7067
aVask
p7068
aVher
p7069
aVif
p7070
aVshe
p7071
aVknow
p7072
aVwho
p7073
aVher
p7074
aVhusband
p7075
ag855
ag70
asg71
(lp7076
g73
ag73
ag73
ag73
ag73
ag73
ag73
ag73
ag73
ag73
ag73
ag73
ag73
ag73
asg74
(lp7077
g178
ag871
ag78
ag83
ag82
ag87
ag76
ag178
ag871
ag83
ag87
ag82
ag871
ag89
asg90
VShe meets people who ask her if she knows who her husband is.
p7078
sba(i__main__
Sentence
p7079
(dp7080
g17
I10
sg18
(lp7081
S'They'
p7082
aS'take'
p7083
aS'her'
p7084
aS'to'
p7085
aS'him'
p7086
aS'in'
p7087
aS'his'
p7088
aS'palace'
p7089
aS'...'
p7090
asg45
(lp7091
VThey
p7092
aVtake
p7093
aVher
p7094
aVto
p7095
aVhim
p7096
aVin
p7097
aVhis
p7098
aVpalace
p7099
aV...
p7100
asg71
(lp7101
g73
ag73
ag73
ag73
ag73
ag73
ag73
ag73
ag73
asg74
(lp7102
g178
ag352
ag178
ag176
ag178
ag76
ag87
ag82
ag3939
asg90
VThey take her to him in his palace...
p7103
sbasbsS'name'
p7104
S'The Six Servants'
p7105
sS'summaries'
p7106
(lp7107
g6727
asb.