ccopy_reg
_reconstructor
p0
(c__main__
Story
p1
c__builtin__
object
p2
Ntp3
Rp4
(dp5
S'text'
p6
g0
(c__main__
Document
p7
g2
Ntp8
Rp9
(dp10
S'_Document__initialContent'
p11
S'There was once upon a time a princess who was extremely proud. If a\nwooer came she gave him some riddle to guess, and if he could not\nguess it, he was sent contemptuously away.  She let it be made known\nalso that whosoever solved her riddle should marry her, let him be\nwho he might.  At length, three tailors fell in with each other, the\ntwo eldest of whom thought they had done so many dexterous jobs of\nwork successfully that they could not fail to succeed in this also,\nthe third was a little, useless harum-scarum, who did not even know\nhis trade, but thought he must have some luck in this venture, for\nwhere else was it to come from.  Then the two others said to him,\njust stay at home, you cannot do much with your little understanding.\nThe little tailor, however, did not let himself be discouraged, and\nsaid he had set his mind to work on this for once, and he would\nmanage well enough, and he went forth as if the whole world were his.\n\nThey all three announced themselves to the princess, and said she was\nto propound her riddle to them, and that the right persons were now\ncome, who had understandings so fine that they could be threaded in a\nneedle.  Then said the princess, "I have two kinds of hair on my\nhead, of what color is it." "If that be all," said the first, "it\nmust be black and white, like the cloth which is called pepper and\nsalt." The princess said, "Wrongly guessed, let the second answer."\nThen said the second, "If it be not black and white, then it is brown\nand red, like my father\'s sunday coat." "Wrongly guessed," said the\nprincess, "let the third give the answer for I see very well he knows\nit for certain." Then the little tailor stepped boldly forth and\nsaid, "The princess has a silver and a golden hair on her head, and\nthose are the two different colors."\n\nWhen the princess heard that, she turned pale and nearly fell down\nwith terror, for the little tailor had guessed her riddle, and she\nhad firmly believed that no man on earth could discover it.  When her\ncourage returned she said, "You have not won me yet by that.  There\nis still something else that you must do.  Below, in the stable is a\nbear with which you shall pass the night, and when I get up in the\nmorning if you are still alive, you shall marry me." She expected,\nhowever, she would thus get rid of the tailor, for the bear had never\nyet left anyone alive who had fallen into his clutches.  The little\ntailor did not let himself be frightened away, but was quite\ndelighted, and said, "Boldly ventured is half won."\n\nSo when the evening came, our little tailor was taken down to the\nbear.  The bear was about to set on the little fellow at once, and\ngive him a hearty welcome with his paws.  "Softly, softly," said the\nlittle tailor, "I will soon make you quiet." Then quite composedly,\nand as if he had no anxiety in the world, he took some nuts out of\nhis pocket, cracked them, and ate the kernels.  When the bear saw\nthat, he was seized with a desire to have some nuts too.  The tailor\nfelt in his pockets, and reached him a handful, they were, however,\nnot nuts, but pebbles.  The bear put them in his mouth, but could get\nnothing out of them, let him bite as he would.  "Eh," thought he,\n"what a stupid blockhead am I, I cannot even crack a nut." And then\nhe said to the tailor, "Here, crack me the nuts." "There, see what a\nstupid fellow you are," said the little tailor, "to have such a great\nmouth, and not be able to crack a small nut." Then he took the pebble\nand nimbly put a nut in his mouth in the place of it, and crack, it\nwas in two.  "I must try the thing again," said the bear, "when I\nwatch you, I then think I ought to be able to do it too." So the\ntailor once more gave him a pebble, and the bear tried and tried to\nbite into it with all the strength of his body.  But even you do not\nbelieve that he managed it.\n\nWhen that was over, the tailor took out a violin from beneath his\ncoat, and played something to himself.  When the bear heard the\nmusic, he could not help beginning to dance, and when he had danced a\nwhile, the thing pleased him so well that he said to the little\ntailor, "Listen, is it difficult to fiddle?" "Easy enough for a\nchild.  Look, with the left hand I lay my fingers on it, and with the\nright I stroke it with the bow, and then it goes merrily, hop sa sa\nvivallalera." "So," said the bear, "fiddling is a thing I should like\nto learn too, that I might dance whenever I felt like it.  What do\nyou think of that?  Will you give me lessons?" "With all my heart,"\nsaid the tailor, "if you have a talent for it.  But just let me see\nyour claws, they are terribly long, I must cut your nails a little."\nThen a vise was brought, and the bear put his claws in it, and the\nlittle tailor screwed it tight, and said, "Now wait until I come with\nthe scissors." And he let the bear growl as he liked, and lay down in\nthe corner on a bundle of straw, and fell asleep.\n\nWhen the princess heard the bear growling so fiercely during the\nnight, she believed nothing else but that he was growling for joy,\nand had made an end of the tailor.  In the morning she arose careless\nand happy, but when she peeped into the stable, the tailor stood\ngaily before her, and was as healthy as a fish in water.  Now she\ncould not say another word against the wedding because she had given\na promise before everyone, and the king ordered a carriage to be\nbrought in which she was to drive to church with the tailor, and\nthere she was to be married.\n\nWhen they had climbed into the carriage, the two other tailors, who\nhad false hearts and envied him his good fortune, went into the\nstable and unscrewed the bear again.  The bear in great fury ran\nafter the carriage.  The princess heard snorting and growling.  She\nwas terrified, and she cried, "Ah, the bear is behind us and wants to\nget you." The tailor was quick and stood on his head, stuck his legs\nout of the window, and cried, "Do you see the vise?  If you do not be\noff you shall be put into it again." When the bear saw that, he\nturned round and ran away.  The tailor drove quietly to church, and\nthe princess was married to him at once, and he lived with her as\nhappy as a woodlark.  Whosoever does not believe this, must pay a\ntaler.\n'
p12
sS'sentences'
p13
(lp14
(i__main__
Sentence
p15
(dp16
S'index'
p17
I0
sS'words'
p18
(lp19
S'There'
p20
aS'was'
p21
aS'once'
p22
aS'upon'
p23
aS'a'
p24
aS'time'
p25
aS'a'
p26
aS'princess'
p27
aS'who'
p28
aS'was'
p29
aS'extremely'
p30
aS'proud'
p31
aS'.'
p32
asS'lemmas'
p33
(lp34
VThere
p35
aVbe
p36
aVonce
p37
aVupon
p38
aVa
p39
aVtime
p40
ag39
aVprincess
p41
aVwho
p42
ag36
aVextremely
p43
aVproud
p44
aV.
p45
asS'nerTags'
p46
(lp47
VO
p48
ag48
ag48
ag48
ag48
ag48
ag48
ag48
ag48
ag48
ag48
ag48
ag48
asS'posTags'
p49
(lp50
S'EX'
p51
aS'VBD'
p52
aS'RB'
p53
aS'IN'
p54
aS'DT'
p55
aS'NN'
p56
ag55
ag56
aS'WP'
p57
ag52
ag53
aS'VBN'
p58
aS'.'
p59
asS'_Sentence__initialContent'
p60
VThere was once upon a time a princess who was extremely proud.
p61
sba(i__main__
Sentence
p62
(dp63
g17
I1
sg18
(lp64
S'If'
p65
aS'a'
p66
aS'wooer'
p67
aS'came'
p68
aS'she'
p69
aS'gave'
p70
aS'him'
p71
aS'some'
p72
aS'riddle'
p73
aS'to'
p74
aS'guess'
p75
aS','
p76
aS'and'
p77
aS'if'
p78
aS'he'
p79
aS'could'
p80
aS'not'
p81
aS'guess'
p82
aS'it'
p83
aS','
p84
aS'he'
p85
aS'was'
p86
aS'sent'
p87
aS'contemptuously'
p88
aS'away'
p89
aS'.'
p90
asg33
(lp91
VIf
p92
ag39
aVwooer
p93
aVcome
p94
aVshe
p95
aVgive
p96
aVhim
p97
aVsome
p98
aVriddle
p99
aVto
p100
aVguess
p101
aV,
p102
aVand
p103
aVif
p104
aVhe
p105
aVcould
p106
aVnot
p107
aVguess
p108
aVit
p109
ag102
aVhe
p110
ag36
aVsend
p111
aVcontemptuously
p112
aVaway
p113
ag45
asg46
(lp114
g48
ag48
ag48
ag48
ag48
ag48
ag48
ag48
ag48
ag48
ag48
ag48
ag48
ag48
ag48
ag48
ag48
ag48
ag48
ag48
ag48
ag48
ag48
ag48
ag48
ag48
asg49
(lp115
g54
ag55
ag56
ag52
aS'PRP'
p116
ag52
ag116
ag55
ag56
aS'TO'
p117
ag56
aS','
p118
aS'CC'
p119
ag54
ag116
aS'MD'
p120
ag53
aS'VB'
p121
ag116
ag118
ag116
ag52
ag58
ag53
ag53
ag59
asg60
VIf a wooer came she gave him some riddle to guess, and if he could not guess it, he was sent contemptuously away.
p122
sba(i__main__
Sentence
p123
(dp124
g17
I2
sg18
(lp125
S'She'
p126
aS'let'
p127
aS'it'
p128
aS'be'
p129
aS'made'
p130
aS'known'
p131
aS'also'
p132
aS'that'
p133
aS'whosoever'
p134
aS'solved'
p135
aS'her'
p136
aS'riddle'
p137
aS'should'
p138
aS'marry'
p139
aS'her'
p140
aS','
p141
aS'let'
p142
aS'him'
p143
aS'be'
p144
aS'who'
p145
aS'he'
p146
aS'might'
p147
aS'.'
p148
asg33
(lp149
VShe
p150
aVlet
p151
aVit
p152
aVbe
p153
aVmake
p154
aVknow
p155
aValso
p156
aVthat
p157
aVwhosoever
p158
aVsolve
p159
aVher
p160
aVriddle
p161
aVshould
p162
aVmarry
p163
aVher
p164
ag102
aVlet
p165
aVhim
p166
aVbe
p167
aVwho
p168
aVhe
p169
aVmight
p170
ag45
asg46
(lp171
g48
ag48
ag48
ag48
ag48
ag48
ag48
ag48
ag48
ag48
ag48
ag48
ag48
ag48
ag48
ag48
ag48
ag48
ag48
ag48
ag48
ag48
ag48
asg49
(lp172
g116
ag52
ag116
ag121
ag58
ag58
ag53
ag54
aS'JJR'
p173
ag58
aS'PRP$'
p174
ag56
ag120
ag121
ag116
ag118
ag121
ag116
ag121
ag57
ag116
ag120
ag59
asg60
VShe let it be made known also that whosoever solved her riddle should marry her, let him be who he might.
p175
sba(i__main__
Sentence
p176
(dp177
g17
I3
sg18
(lp178
S'At'
p179
aS'length'
p180
aS','
p181
aS'three'
p182
aS'tailors'
p183
aS'fell'
p184
aS'in'
p185
aS'with'
p186
aS'each'
p187
aS'other'
p188
aS','
p189
aS'the'
p190
aS'two'
p191
aS'eldest'
p192
aS'of'
p193
aS'whom'
p194
aS'thought'
p195
aS'they'
p196
aS'had'
p197
aS'done'
p198
aS'so'
p199
aS'many'
p200
aS'dexterous'
p201
aS'jobs'
p202
aS'of'
p203
aS'work'
p204
aS'successfully'
p205
aS'that'
p206
aS'they'
p207
aS'could'
p208
aS'not'
p209
aS'fail'
p210
aS'to'
p211
aS'succeed'
p212
aS'in'
p213
aS'this'
p214
aS'also'
p215
aS','
p216
aS'the'
p217
aS'third'
p218
aS'was'
p219
aS'a'
p220
aS'little'
p221
aS','
p222
aS'useless'
p223
aS'harum-scarum'
p224
aS','
p225
aS'who'
p226
aS'did'
p227
aS'not'
p228
aS'even'
p229
aS'know'
p230
aS'his'
p231
aS'trade'
p232
aS','
p233
aS'but'
p234
aS'thought'
p235
aS'he'
p236
aS'must'
p237
aS'have'
p238
aS'some'
p239
aS'luck'
p240
aS'in'
p241
aS'this'
p242
aS'venture'
p243
aS','
p244
aS'for'
p245
aS'where'
p246
aS'else'
p247
aS'was'
p248
aS'it'
p249
aS'to'
p250
aS'come'
p251
aS'from'
p252
aS'.'
p253
asg33
(lp254
VAt
p255
aVlength
p256
ag102
aVthree
p257
aVtailor
p258
aVfell
p259
aVin
p260
aVwith
p261
aVeach
p262
aVother
p263
ag102
aVthe
p264
aVtwo
p265
aVeldest
p266
aVof
p267
aVwhom
p268
aVthought
p269
aVthey
p270
aVhave
p271
aVdo
p272
aVso
p273
aVmany
p274
aVdexterous
p275
aVjob
p276
aVof
p277
aVwork
p278
aVsuccessfully
p279
aVthat
p280
aVthey
p281
aVcould
p282
aVnot
p283
aVfail
p284
aVto
p285
aVsucceed
p286
aVin
p287
aVthis
p288
aValso
p289
ag102
aVthe
p290
aVthird
p291
ag36
ag39
aVlittle
p292
ag102
aVuseless
p293
aVharum-scarum
p294
ag102
aVwho
p295
aVdo
p296
aVnot
p297
aVeven
p298
aVknow
p299
aVhis
p300
aVtrade
p301
ag102
aVbut
p302
aVthink
p303
aVhe
p304
aVmust
p305
aVhave
p306
aVsome
p307
aVluck
p308
aVin
p309
aVthis
p310
aVventure
p311
ag102
aVfor
p312
aVwhere
p313
aVelse
p314
ag36
aVit
p315
aVto
p316
aVcome
p317
aVfrom
p318
ag45
asg46
(lp319
g48
ag48
ag48
ag48
ag48
ag48
ag48
ag48
ag48
ag48
ag48
ag48
ag48
ag48
ag48
ag48
ag48
ag48
ag48
ag48
ag48
ag48
ag48
ag48
ag48
ag48
ag48
ag48
ag48
ag48
ag48
ag48
ag48
ag48
ag48
ag48
ag48
ag48
ag48
ag48
ag48
ag48
ag48
ag48
ag48
ag48
ag48
ag48
ag48
ag48
ag48
ag48
ag48
ag48
ag48
ag48
ag48
ag48
ag48
ag48
ag48
ag48
ag48
ag48
ag48
ag48
ag48
ag48
ag48
ag48
ag48
ag48
ag48
ag48
ag48
asg49
(lp320
g54
ag56
ag118
aS'CD'
p321
aS'NNS'
p322
ag52
ag54
ag54
ag55
aS'JJ'
p323
ag118
ag55
ag321
aS'JJS'
p324
ag54
ag57
ag53
ag116
ag52
ag58
ag53
ag323
ag323
ag322
ag54
ag56
ag53
ag54
ag116
ag120
ag53
ag121
ag117
ag121
ag54
ag55
ag53
ag118
ag55
ag323
ag52
ag55
ag53
ag118
ag56
ag56
ag118
ag57
ag52
ag53
ag53
ag121
ag174
ag56
ag118
ag119
ag52
ag116
ag120
ag121
ag55
ag56
ag54
ag55
ag56
ag118
ag54
aS'WRB'
p325
ag56
ag52
ag116
ag117
ag121
ag54
ag59
asg60
VAt length, three tailors fell in with each other, the two eldest of whom thought they had done so many dexterous jobs of work successfully that they could not fail to succeed in this also, the third was a little, useless harum-scarum, who did not even know his trade, but thought he must have some luck in this venture, for where else was it to come from.
p326
sba(i__main__
Sentence
p327
(dp328
g17
I4
sg18
(lp329
S'Then'
p330
aS'the'
p331
aS'two'
p332
aS'others'
p333
aS'said'
p334
aS'to'
p335
aS'him'
p336
aS','
p337
aS'just'
p338
aS'stay'
p339
aS'at'
p340
aS'home'
p341
aS','
p342
aS'you'
p343
aS'can'
p344
aS'not'
p345
aS'do'
p346
aS'much'
p347
aS'with'
p348
aS'your'
p349
aS'little'
p350
aS'understanding'
p351
aS'.'
p352
asg33
(lp353
VThen
p354
aVthe
p355
aVtwo
p356
aVothers
p357
aVsay
p358
aVto
p359
aVhim
p360
ag102
aVjust
p361
aVstay
p362
aVat
p363
aVhome
p364
ag102
aVyou
p365
aVcan
p366
aVnot
p367
aVdo
p368
aVmuch
p369
aVwith
p370
aVyour
p371
aVlittle
p372
aVunderstanding
p373
ag45
asg46
(lp374
g48
ag48
ag48
ag48
ag48
ag48
ag48
ag48
ag48
ag48
ag48
ag48
ag48
ag48
ag48
ag48
ag48
ag48
ag48
ag48
ag48
ag48
ag48
asg49
(lp375
g53
ag55
ag321
ag322
ag52
ag117
ag116
ag118
ag53
aS'VBP'
p376
ag54
ag56
ag118
ag116
ag120
ag53
ag121
ag53
ag54
ag174
ag323
ag56
ag59
asg60
VThen the two others said to him, just stay at home, you cannot do much with your little understanding.
p377
sba(i__main__
Sentence
p378
(dp379
g17
I5
sg18
(lp380
S'The'
p381
aS'little'
p382
aS'tailor'
p383
aS','
p384
aS'however'
p385
aS','
p386
aS'did'
p387
aS'not'
p388
aS'let'
p389
aS'himself'
p390
aS'be'
p391
aS'discouraged'
p392
aS','
p393
aS'and'
p394
aS'said'
p395
aS'he'
p396
aS'had'
p397
aS'set'
p398
aS'his'
p399
aS'mind'
p400
aS'to'
p401
aS'work'
p402
aS'on'
p403
aS'this'
p404
aS'for'
p405
aS'once'
p406
aS','
p407
aS'and'
p408
aS'he'
p409
aS'would'
p410
aS'manage'
p411
aS'well'
p412
aS'enough'
p413
aS','
p414
aS'and'
p415
aS'he'
p416
aS'went'
p417
aS'forth'
p418
aS'as'
p419
aS'if'
p420
aS'the'
p421
aS'whole'
p422
aS'world'
p423
aS'were'
p424
aS'his'
p425
aS'.'
p426
asg33
(lp427
VThe
p428
aVlittle
p429
aVtailor
p430
ag102
aVhowever
p431
ag102
ag296
aVnot
p432
aVlet
p433
aVhimself
p434
aVbe
p435
aVdiscourage
p436
ag102
aVand
p437
ag358
aVhe
p438
ag271
aVset
p439
aVhis
p440
aVmind
p441
aVto
p442
aVwork
p443
aVon
p444
aVthis
p445
aVfor
p446
aVonce
p447
ag102
aVand
p448
aVhe
p449
aVwould
p450
aVmanage
p451
aVwell
p452
aVenough
p453
ag102
aVand
p454
aVhe
p455
aVgo
p456
aVforth
p457
ag39
aVif
p458
aVthe
p459
aVwhole
p460
aVworld
p461
aVbe
p462
aVhis
p463
ag45
asg46
(lp464
g48
ag48
ag48
ag48
ag48
ag48
ag48
ag48
ag48
ag48
ag48
ag48
ag48
ag48
ag48
ag48
ag48
ag48
ag48
ag48
ag48
ag48
ag48
ag48
ag48
ag48
ag48
ag48
ag48
ag48
ag48
ag48
ag48
ag48
ag48
ag48
ag48
ag48
ag48
ag48
ag48
ag48
ag48
ag48
ag48
ag48
asg49
(lp465
g55
ag323
ag56
ag118
ag53
ag118
ag52
ag53
ag121
ag116
ag121
ag58
ag118
ag119
ag52
ag116
ag52
ag58
ag174
ag56
ag117
ag121
ag54
ag55
ag54
ag53
ag118
ag119
ag116
ag120
ag121
ag53
ag53
ag118
ag119
ag116
ag52
ag323
ag54
ag54
ag55
ag323
ag56
ag52
ag174
ag59
asg60
VThe little tailor, however, did not let himself be discouraged, and said he had set his mind to work on this for once, and he would manage well enough, and he went forth as if the whole world were his.
p466
sba(i__main__
Sentence
p467
(dp468
g17
I6
sg18
(lp469
S'They'
p470
aS'all'
p471
aS'three'
p472
aS'announced'
p473
aS'themselves'
p474
aS'to'
p475
aS'the'
p476
aS'princess'
p477
aS','
p478
aS'and'
p479
aS'said'
p480
aS'she'
p481
aS'was'
p482
aS'to'
p483
aS'propound'
p484
aS'her'
p485
aS'riddle'
p486
aS'to'
p487
aS'them'
p488
aS','
p489
aS'and'
p490
aS'that'
p491
aS'the'
p492
aS'right'
p493
aS'persons'
p494
aS'were'
p495
aS'now'
p496
aS'come'
p497
aS','
p498
aS'who'
p499
aS'had'
p500
aS'understandings'
p501
aS'so'
p502
aS'fine'
p503
aS'that'
p504
aS'they'
p505
aS'could'
p506
aS'be'
p507
aS'threaded'
p508
aS'in'
p509
aS'a'
p510
aS'needle'
p511
aS'.'
p512
asg33
(lp513
VThey
p514
aVall
p515
aVthree
p516
aVannounce
p517
aVthemselves
p518
aVto
p519
aVthe
p520
aVprincess
p521
ag102
aVand
p522
ag358
aVshe
p523
ag36
aVto
p524
aVpropound
p525
aVher
p526
aVriddle
p527
aVto
p528
aVthem
p529
ag102
aVand
p530
aVthat
p531
aVthe
p532
aVright
p533
aVperson
p534
ag462
aVnow
p535
aVcome
p536
ag102
aVwho
p537
ag271
aVunderstanding
p538
aVso
p539
aVfine
p540
aVthat
p541
aVthey
p542
aVcould
p543
aVbe
p544
aVthread
p545
aVin
p546
ag39
aVneedle
p547
ag45
asg46
(lp548
g48
ag48
ag48
ag48
ag48
ag48
ag48
ag48
ag48
ag48
ag48
ag48
ag48
ag48
ag48
ag48
ag48
ag48
ag48
ag48
ag48
ag48
ag48
ag48
ag48
ag48
ag48
ag48
ag48
ag48
ag48
ag48
ag48
ag48
ag48
ag48
ag48
ag48
ag48
ag48
ag48
ag48
ag48
asg49
(lp549
g116
ag376
ag321
ag58
ag322
ag117
ag55
ag56
ag118
ag119
ag52
ag116
ag52
ag117
ag121
ag174
ag56
ag117
ag116
ag118
ag119
ag54
ag55
ag56
ag322
ag52
ag53
ag58
ag118
ag57
ag52
ag322
ag53
ag56
ag54
ag116
ag120
ag121
ag58
ag54
ag55
ag56
ag59
asg60
VThey all three announced themselves to the princess, and said she was to propound her riddle to them, and that the right persons were now come, who had understandings so fine that they could be threaded in a needle.
p550
sba(i__main__
Sentence
p551
(dp552
g17
I7
sg18
(lp553
S'Then'
p554
aS'said'
p555
aS'the'
p556
aS'princess'
p557
aS','
p558
aS'``'
p559
aS'I'
p560
aS'have'
p561
aS'two'
p562
aS'kinds'
p563
aS'of'
p564
aS'hair'
p565
aS'on'
p566
aS'my'
p567
aS'head'
p568
aS','
p569
aS'of'
p570
aS'what'
p571
aS'color'
p572
aS'is'
p573
aS'it'
p574
aS'.'
p575
aS"''"
p576
asg33
(lp577
VThen
p578
ag358
aVthe
p579
aVprincess
p580
ag102
aV``
p581
aVI
p582
aVhave
p583
aVtwo
p584
aVkind
p585
aVof
p586
aVhair
p587
aVon
p588
aVmy
p589
aVhead
p590
ag102
aVof
p591
aVwhat
p592
aVcolor
p593
aVbe
p594
aVit
p595
ag45
aV''
p596
asg46
(lp597
g48
ag48
ag48
ag48
ag48
ag48
ag48
ag48
ag48
ag48
ag48
ag48
ag48
ag48
ag48
ag48
ag48
ag48
ag48
ag48
ag48
ag48
ag48
asg49
(lp598
g53
ag52
ag55
ag56
ag118
aS'``'
p599
ag116
ag376
ag321
ag322
ag54
ag56
ag54
ag174
ag56
ag118
ag54
ag57
ag56
aS'VBZ'
p600
ag116
ag59
aS"''"
p601
asg60
VThen said the princess, "I have two kinds of hair on my head, of what color is it."
p602
sba(i__main__
Sentence
p603
(dp604
g17
I8
sg18
(lp605
S'``'
p606
aS'If'
p607
aS'that'
p608
aS'be'
p609
aS'all'
p610
aS','
p611
aS"''"
p612
aS'said'
p613
aS'the'
p614
aS'first'
p615
aS','
p616
aS'``'
p617
aS'it'
p618
aS'must'
p619
aS'be'
p620
aS'black'
p621
aS'and'
p622
aS'white'
p623
aS','
p624
aS'like'
p625
aS'the'
p626
aS'cloth'
p627
aS'which'
p628
aS'is'
p629
aS'called'
p630
aS'pepper'
p631
aS'and'
p632
aS'salt'
p633
aS'.'
p634
aS"''"
p635
asg33
(lp636
V``
p637
aVIf
p638
aVthat
p639
aVbe
p640
aVall
p641
ag102
aV''
p642
ag358
aVthe
p643
aVfirst
p644
ag102
aV``
p645
aVit
p646
aVmust
p647
aVbe
p648
aVblack
p649
aVand
p650
aVwhite
p651
ag102
aVlike
p652
aVthe
p653
aVcloth
p654
aVwhich
p655
ag594
aVcall
p656
aVpepper
p657
aVand
p658
aVsalt
p659
ag45
aV''
p660
asg46
(lp661
g48
ag48
ag48
ag48
ag48
ag48
ag48
ag48
ag48
ag48
ag48
ag48
ag48
ag48
ag48
ag48
ag48
ag48
ag48
ag48
ag48
ag48
ag48
ag48
ag48
ag48
ag48
ag48
ag48
ag48
asg49
(lp662
g599
ag54
ag55
ag121
ag55
ag118
ag601
ag52
ag55
ag323
ag118
ag599
ag116
ag120
ag121
ag323
ag119
ag56
ag118
ag54
ag55
ag56
aS'WDT'
p663
ag600
ag58
ag56
ag119
ag56
ag59
ag601
asg60
V"If that be all," said the first, "it must be black and white, like the cloth which is called pepper and salt."
p664
sba(i__main__
Sentence
p665
(dp666
g17
I9
sg18
(lp667
S'The'
p668
aS'princess'
p669
aS'said'
p670
aS','
p671
aS'``'
p672
aS'Wrongly'
p673
aS'guessed'
p674
aS','
p675
aS'let'
p676
aS'the'
p677
aS'second'
p678
aS'answer'
p679
aS'.'
p680
aS"''"
p681
asg33
(lp682
VThe
p683
aVprincess
p684
ag358
ag102
aV``
p685
aVWrongly
p686
aVguess
p687
ag102
aVlet
p688
aVthe
p689
aVsecond
p690
aVanswer
p691
ag45
aV''
p692
asg46
(lp693
g48
ag48
ag48
ag48
ag48
ag48
ag48
ag48
ag48
ag48
ag48
ag48
ag48
ag48
asg49
(lp694
g55
ag56
ag52
ag118
ag599
ag53
ag58
ag118
ag121
ag55
ag323
ag56
ag59
ag601
asg60
VThe princess said, "Wrongly guessed, let the second answer."
p695
sba(i__main__
Sentence
p696
(dp697
g17
I10
sg18
(lp698
S'Then'
p699
aS'said'
p700
aS'the'
p701
aS'second'
p702
aS','
p703
aS'``'
p704
aS'If'
p705
aS'it'
p706
aS'be'
p707
aS'not'
p708
aS'black'
p709
aS'and'
p710
aS'white'
p711
aS','
p712
aS'then'
p713
aS'it'
p714
aS'is'
p715
aS'brown'
p716
aS'and'
p717
aS'red'
p718
aS','
p719
aS'like'
p720
aS'my'
p721
aS'father'
p722
aS"'s"
p723
aS'sunday'
p724
aS'coat'
p725
aS'.'
p726
aS"''"
p727
asg33
(lp728
VThen
p729
ag358
aVthe
p730
aVsecond
p731
ag102
aV``
p732
aVIf
p733
aVit
p734
aVbe
p735
aVnot
p736
aVblack
p737
aVand
p738
aVwhite
p739
ag102
aVthen
p740
aVit
p741
ag594
aVbrown
p742
aVand
p743
aVred
p744
ag102
aVlike
p745
aVmy
p746
aVfather
p747
aV's
p748
aVsunday
p749
aVcoat
p750
ag45
aV''
p751
asg46
(lp752
g48
ag48
ag48
ag48
ag48
ag48
ag48
ag48
ag48
ag48
ag48
ag48
ag48
ag48
ag48
ag48
ag48
ag48
ag48
ag48
ag48
ag48
ag48
ag48
ag48
ag48
ag48
ag48
ag48
asg49
(lp753
g53
ag52
ag55
ag323
ag118
ag599
ag54
ag116
ag121
ag53
ag121
ag119
ag56
ag118
ag53
ag116
ag600
ag58
ag119
ag58
ag118
ag54
ag174
ag56
aS'POS'
p754
ag56
ag56
ag59
ag601
asg60
VThen said the second, "If it be not black and white, then it is brown and red, like my father's sunday coat."
p755
sba(i__main__
Sentence
p756
(dp757
g17
I11
sg18
(lp758
S'``'
p759
aS'Wrongly'
p760
aS'guessed'
p761
aS','
p762
aS"''"
p763
aS'said'
p764
aS'the'
p765
aS'princess'
p766
aS','
p767
aS'``'
p768
aS'let'
p769
aS'the'
p770
aS'third'
p771
aS'give'
p772
aS'the'
p773
aS'answer'
p774
aS'for'
p775
aS'I'
p776
aS'see'
p777
aS'very'
p778
aS'well'
p779
aS'he'
p780
aS'knows'
p781
aS'it'
p782
aS'for'
p783
aS'certain'
p784
aS'.'
p785
aS"''"
p786
asg33
(lp787
V``
p788
aVWrongly
p789
aVguess
p790
ag102
aV''
p791
ag358
aVthe
p792
aVprincess
p793
ag102
aV``
p794
aVlet
p795
aVthe
p796
aVthird
p797
aVgive
p798
aVthe
p799
aVanswer
p800
aVfor
p801
ag582
aVsee
p802
aVvery
p803
aVwell
p804
aVhe
p805
aVknow
p806
aVit
p807
aVfor
p808
aVcertain
p809
ag45
aV''
p810
asg46
(lp811
g48
ag48
ag48
ag48
ag48
ag48
ag48
ag48
ag48
ag48
ag48
ag48
ag48
ag48
ag48
ag48
ag48
ag48
ag48
ag48
ag48
ag48
ag48
ag48
ag48
ag48
ag48
ag48
asg49
(lp812
g599
ag53
ag58
ag118
ag601
ag52
ag55
ag56
ag118
ag599
ag121
ag55
ag323
ag323
ag55
ag56
ag54
ag116
ag376
ag53
ag53
ag116
ag600
ag116
ag54
ag323
ag59
ag601
asg60
V"Wrongly guessed," said the princess, "let the third give the answer for I see very well he knows it for certain."
p813
sba(i__main__
Sentence
p814
(dp815
g17
I12
sg18
(lp816
S'Then'
p817
aS'the'
p818
aS'little'
p819
aS'tailor'
p820
aS'stepped'
p821
aS'boldly'
p822
aS'forth'
p823
aS'and'
p824
aS'said'
p825
aS','
p826
aS'``'
p827
aS'The'
p828
aS'princess'
p829
aS'has'
p830
aS'a'
p831
aS'silver'
p832
aS'and'
p833
aS'a'
p834
aS'golden'
p835
aS'hair'
p836
aS'on'
p837
aS'her'
p838
aS'head'
p839
aS','
p840
aS'and'
p841
aS'those'
p842
aS'are'
p843
aS'the'
p844
aS'two'
p845
aS'different'
p846
aS'colors'
p847
aS'.'
p848
aS"''"
p849
asg33
(lp850
VThen
p851
aVthe
p852
aVlittle
p853
aVtailor
p854
aVstep
p855
aVboldly
p856
aVforth
p857
aVand
p858
ag358
ag102
aV``
p859
aVThe
p860
aVprincess
p861
aVhave
p862
ag39
aVsilver
p863
aVand
p864
ag39
aVgolden
p865
aVhair
p866
aVon
p867
aVher
p868
aVhead
p869
ag102
aVand
p870
aVthose
p871
aVbe
p872
aVthe
p873
aVtwo
p874
aVdifferent
p875
aVcolor
p876
ag45
aV''
p877
asg46
(lp878
g48
ag48
ag48
ag48
ag48
ag48
ag48
ag48
ag48
ag48
ag48
ag48
ag48
ag48
ag48
ag48
ag48
ag48
ag48
ag48
ag48
ag48
ag48
ag48
ag48
ag48
ag48
ag48
ag48
ag48
ag48
ag48
ag48
asg49
(lp879
g53
ag55
ag323
ag56
ag52
ag53
ag323
ag119
ag52
ag118
ag599
ag55
ag56
ag600
ag55
ag56
ag119
ag55
ag323
ag56
ag54
ag174
ag56
ag118
ag119
ag55
ag376
ag55
ag321
ag323
ag322
ag59
ag601
asg60
VThen the little tailor stepped boldly forth and said, "The princess has a silver and a golden hair on her head, and those are the two different colors."
p880
sba(i__main__
Sentence
p881
(dp882
g17
I13
sg18
(lp883
S'When'
p884
aS'the'
p885
aS'princess'
p886
aS'heard'
p887
aS'that'
p888
aS','
p889
aS'she'
p890
aS'turned'
p891
aS'pale'
p892
aS'and'
p893
aS'nearly'
p894
aS'fell'
p895
aS'down'
p896
aS'with'
p897
aS'terror'
p898
aS','
p899
aS'for'
p900
aS'the'
p901
aS'little'
p902
aS'tailor'
p903
aS'had'
p904
aS'guessed'
p905
aS'her'
p906
aS'riddle'
p907
aS','
p908
aS'and'
p909
aS'she'
p910
aS'had'
p911
aS'firmly'
p912
aS'believed'
p913
aS'that'
p914
aS'no'
p915
aS'man'
p916
aS'on'
p917
aS'earth'
p918
aS'could'
p919
aS'discover'
p920
aS'it'
p921
aS'.'
p922
asg33
(lp923
VWhen
p924
aVthe
p925
aVprincess
p926
aVheard
p927
aVthat
p928
ag102
aVshe
p929
aVturn
p930
aVpale
p931
aVand
p932
aVnearly
p933
aVfell
p934
aVdown
p935
aVwith
p936
aVterror
p937
ag102
aVfor
p938
aVthe
p939
aVlittle
p940
aVtailor
p941
ag271
aVguess
p942
aVher
p943
aVriddle
p944
ag102
aVand
p945
aVshe
p946
ag271
aVfirmly
p947
aVbelieve
p948
aVthat
p949
aVno
p950
aVman
p951
aVon
p952
aVearth
p953
aVcould
p954
aVdiscover
p955
aVit
p956
ag45
asg46
(lp957
g48
ag48
ag48
ag48
ag48
ag48
ag48
ag48
ag48
ag48
ag48
ag48
ag48
ag48
ag48
ag48
ag48
ag48
ag48
ag48
ag48
ag48
ag48
ag48
ag48
ag48
ag48
ag48
ag48
ag48
ag48
ag48
ag48
ag48
ag48
ag48
ag48
ag48
ag48
asg49
(lp958
g325
ag55
ag56
ag56
ag663
ag118
ag116
ag52
ag323
ag119
ag53
ag52
ag54
ag54
ag56
ag118
ag54
ag55
ag323
ag56
ag52
ag58
ag174
ag56
ag118
ag119
ag116
ag52
ag53
ag58
ag54
ag55
ag56
ag54
ag323
ag120
ag121
ag116
ag59
asg60
VWhen the princess heard that, she turned pale and nearly fell down with terror, for the little tailor had guessed her riddle, and she had firmly believed that no man on earth could discover it.
p959
sba(i__main__
Sentence
p960
(dp961
g17
I14
sg18
(lp962
S'When'
p963
aS'her'
p964
aS'courage'
p965
aS'returned'
p966
aS'she'
p967
aS'said'
p968
aS','
p969
aS'``'
p970
aS'You'
p971
aS'have'
p972
aS'not'
p973
aS'won'
p974
aS'me'
p975
aS'yet'
p976
aS'by'
p977
aS'that'
p978
aS'.'
p979
asg33
(lp980
VWhen
p981
aVher
p982
aVcourage
p983
aVreturn
p984
aVshe
p985
ag358
ag102
aV``
p986
aVYou
p987
aVhave
p988
aVnot
p989
aVwin
p990
aVme
p991
aVyet
p992
aVby
p993
aVthat
p994
ag45
asg46
(lp995
g48
ag48
ag48
ag48
ag48
ag48
ag48
ag48
ag48
ag48
ag48
ag48
ag48
ag48
ag48
ag48
ag48
asg49
(lp996
g325
ag174
ag56
ag52
ag116
ag52
ag118
ag599
ag116
ag376
ag53
ag58
ag116
ag53
ag54
ag55
ag59
asg60
VWhen her courage returned she said, "You have not won me yet by that.
p997
sba(i__main__
Sentence
p998
(dp999
g17
I15
sg18
(lp1000
S'There'
p1001
aS'is'
p1002
aS'still'
p1003
aS'something'
p1004
aS'else'
p1005
aS'that'
p1006
aS'you'
p1007
aS'must'
p1008
aS'do'
p1009
aS'.'
p1010
asg33
(lp1011
VThere
p1012
ag594
aVstill
p1013
aVsomething
p1014
aVelse
p1015
aVthat
p1016
aVyou
p1017
aVmust
p1018
aVdo
p1019
ag45
asg46
(lp1020
g48
ag48
ag48
ag48
ag48
ag48
ag48
ag48
ag48
ag48
asg49
(lp1021
g51
ag600
ag53
ag56
ag53
ag54
ag116
ag120
ag121
ag59
asg60
VThere is still something else that you must do.
p1022
sba(i__main__
Sentence
p1023
(dp1024
g17
I16
sg18
(lp1025
S'Below'
p1026
aS','
p1027
aS'in'
p1028
aS'the'
p1029
aS'stable'
p1030
aS'is'
p1031
aS'a'
p1032
aS'bear'
p1033
aS'with'
p1034
aS'which'
p1035
aS'you'
p1036
aS'shall'
p1037
aS'pass'
p1038
aS'the'
p1039
aS'night'
p1040
aS','
p1041
aS'and'
p1042
aS'when'
p1043
aS'I'
p1044
aS'get'
p1045
aS'up'
p1046
aS'in'
p1047
aS'the'
p1048
aS'morning'
p1049
aS'if'
p1050
aS'you'
p1051
aS'are'
p1052
aS'still'
p1053
aS'alive'
p1054
aS','
p1055
aS'you'
p1056
aS'shall'
p1057
aS'marry'
p1058
aS'me'
p1059
aS'.'
p1060
aS"''"
p1061
asg33
(lp1062
VBelow
p1063
ag102
aVin
p1064
aVthe
p1065
aVstable
p1066
ag594
ag39
aVbear
p1067
aVwith
p1068
aVwhich
p1069
aVyou
p1070
aVshall
p1071
aVpass
p1072
aVthe
p1073
aVnight
p1074
ag102
aVand
p1075
aVwhen
p1076
ag582
aVget
p1077
aVup
p1078
aVin
p1079
aVthe
p1080
aVmorning
p1081
aVif
p1082
aVyou
p1083
ag872
aVstill
p1084
aValive
p1085
ag102
aVyou
p1086
aVshall
p1087
aVmarry
p1088
aVme
p1089
ag45
aV''
p1090
asg46
(lp1091
g48
ag48
ag48
ag48
ag48
ag48
ag48
ag48
ag48
ag48
ag48
ag48
ag48
ag48
ag48
ag48
ag48
ag48
ag48
ag48
ag48
ag48
ag48
ag48
ag48
ag48
ag48
ag48
ag48
ag48
ag48
ag48
ag48
ag48
ag48
ag48
asg49
(lp1092
g54
ag118
ag54
ag55
ag56
ag600
ag55
ag323
ag54
ag663
ag116
ag120
ag121
ag55
ag56
ag118
ag119
ag325
ag116
ag376
aS'RP'
p1093
ag54
ag55
ag56
ag54
ag116
ag376
ag53
ag323
ag118
ag116
ag120
ag121
ag116
ag59
ag601
asg60
VBelow, in the stable is a bear with which you shall pass the night, and when I get up in the morning if you are still alive, you shall marry me."
p1094
sba(i__main__
Sentence
p1095
(dp1096
g17
I17
sg18
(lp1097
S'She'
p1098
aS'expected'
p1099
aS','
p1100
aS'however'
p1101
aS','
p1102
aS'she'
p1103
aS'would'
p1104
aS'thus'
p1105
aS'get'
p1106
aS'rid'
p1107
aS'of'
p1108
aS'the'
p1109
aS'tailor'
p1110
aS','
p1111
aS'for'
p1112
aS'the'
p1113
aS'bear'
p1114
aS'had'
p1115
aS'never'
p1116
aS'yet'
p1117
aS'left'
p1118
aS'anyone'
p1119
aS'alive'
p1120
aS'who'
p1121
aS'had'
p1122
aS'fallen'
p1123
aS'into'
p1124
aS'his'
p1125
aS'clutches'
p1126
aS'.'
p1127
asg33
(lp1128
VShe
p1129
aVexpect
p1130
ag102
aVhowever
p1131
ag102
aVshe
p1132
aVwould
p1133
aVthus
p1134
aVget
p1135
aVrid
p1136
aVof
p1137
aVthe
p1138
aVtailor
p1139
ag102
aVfor
p1140
aVthe
p1141
aVbear
p1142
ag271
aVnever
p1143
aVyet
p1144
aVleave
p1145
aVanyone
p1146
aValive
p1147
aVwho
p1148
ag271
aVfall
p1149
aVinto
p1150
aVhis
p1151
aVclutch
p1152
ag45
asg46
(lp1153
g48
ag48
ag48
ag48
ag48
ag48
ag48
ag48
ag48
ag48
ag48
ag48
ag48
ag48
ag48
ag48
ag48
ag48
ag48
ag48
ag48
ag48
ag48
ag48
ag48
ag48
ag48
ag48
ag48
ag48
asg49
(lp1154
g116
ag52
ag118
ag53
ag118
ag116
ag120
ag53
ag121
ag323
ag54
ag55
ag56
ag118
ag54
ag55
ag56
ag52
ag53
ag53
ag58
ag56
ag323
ag57
ag52
ag58
ag54
ag174
ag322
ag59
asg60
VShe expected, however, she would thus get rid of the tailor, for the bear had never yet left anyone alive who had fallen into his clutches.
p1155
sba(i__main__
Sentence
p1156
(dp1157
g17
I18
sg18
(lp1158
S'The'
p1159
aS'little'
p1160
aS'tailor'
p1161
aS'did'
p1162
aS'not'
p1163
aS'let'
p1164
aS'himself'
p1165
aS'be'
p1166
aS'frightened'
p1167
aS'away'
p1168
aS','
p1169
aS'but'
p1170
aS'was'
p1171
aS'quite'
p1172
aS'delighted'
p1173
aS','
p1174
aS'and'
p1175
aS'said'
p1176
aS','
p1177
aS'``'
p1178
aS'Boldly'
p1179
aS'ventured'
p1180
aS'is'
p1181
aS'half'
p1182
aS'won'
p1183
aS'.'
p1184
aS"''"
p1185
asg33
(lp1186
VThe
p1187
aVlittle
p1188
aVtailor
p1189
ag296
aVnot
p1190
aVlet
p1191
aVhimself
p1192
aVbe
p1193
aVfrighten
p1194
aVaway
p1195
ag102
aVbut
p1196
ag36
aVquite
p1197
aVdelight
p1198
ag102
aVand
p1199
ag358
ag102
aV``
p1200
aVBoldly
p1201
aVventure
p1202
ag594
aVhalf
p1203
aVwon
p1204
ag45
aV''
p1205
asg46
(lp1206
g48
ag48
ag48
ag48
ag48
ag48
ag48
ag48
ag48
ag48
ag48
ag48
ag48
ag48
ag48
ag48
ag48
ag48
ag48
ag48
ag48
ag48
ag48
ag48
ag48
ag48
ag48
asg49
(lp1207
g55
ag323
ag56
ag52
ag53
ag121
ag116
ag121
ag58
ag53
ag118
ag119
ag52
ag53
ag58
ag118
ag119
ag52
ag118
ag599
ag53
ag58
ag600
ag55
ag56
ag59
ag601
asg60
VThe little tailor did not let himself be frightened away, but was quite delighted, and said, "Boldly ventured is half won."
p1208
sba(i__main__
Sentence
p1209
(dp1210
g17
I19
sg18
(lp1211
S'So'
p1212
aS'when'
p1213
aS'the'
p1214
aS'evening'
p1215
aS'came'
p1216
aS','
p1217
aS'our'
p1218
aS'little'
p1219
aS'tailor'
p1220
aS'was'
p1221
aS'taken'
p1222
aS'down'
p1223
aS'to'
p1224
aS'the'
p1225
aS'bear'
p1226
aS'.'
p1227
asg33
(lp1228
VSo
p1229
aVwhen
p1230
aVthe
p1231
aVevening
p1232
ag94
ag102
aVour
p1233
aVlittle
p1234
aVtailor
p1235
ag36
aVtake
p1236
aVdown
p1237
aVto
p1238
aVthe
p1239
aVbear
p1240
ag45
asg46
(lp1241
g48
ag48
ag48
ag48
ag48
ag48
ag48
ag48
ag48
ag48
ag48
ag48
ag48
ag48
ag48
ag48
asg49
(lp1242
g54
ag325
ag55
ag56
ag52
ag118
ag174
ag323
ag56
ag52
ag58
ag1093
ag117
ag55
ag56
ag59
asg60
VSo when the evening came, our little tailor was taken down to the bear.
p1243
sba(i__main__
Sentence
p1244
(dp1245
g17
I20
sg18
(lp1246
S'The'
p1247
aS'bear'
p1248
aS'was'
p1249
aS'about'
p1250
aS'to'
p1251
aS'set'
p1252
aS'on'
p1253
aS'the'
p1254
aS'little'
p1255
aS'fellow'
p1256
aS'at'
p1257
aS'once'
p1258
aS','
p1259
aS'and'
p1260
aS'give'
p1261
aS'him'
p1262
aS'a'
p1263
aS'hearty'
p1264
aS'welcome'
p1265
aS'with'
p1266
aS'his'
p1267
aS'paws'
p1268
aS'.'
p1269
asg33
(lp1270
VThe
p1271
aVbear
p1272
ag36
aVabout
p1273
aVto
p1274
aVset
p1275
aVon
p1276
aVthe
p1277
aVlittle
p1278
aVfellow
p1279
aVat
p1280
aVonce
p1281
ag102
aVand
p1282
aVgive
p1283
aVhim
p1284
ag39
aVhearty
p1285
aVwelcome
p1286
aVwith
p1287
aVhis
p1288
aVpaw
p1289
ag45
asg46
(lp1290
g48
ag48
ag48
ag48
ag48
ag48
ag48
ag48
ag48
ag48
ag48
ag48
ag48
ag48
ag48
ag48
ag48
ag48
ag48
ag48
ag48
ag48
ag48
asg49
(lp1291
g55
ag56
ag52
ag54
ag117
ag121
ag54
ag55
ag323
ag56
ag54
ag53
ag118
ag119
ag121
ag116
ag55
ag56
ag56
ag54
ag174
ag322
ag59
asg60
VThe bear was about to set on the little fellow at once, and give him a hearty welcome with his paws.
p1292
sba(i__main__
Sentence
p1293
(dp1294
g17
I21
sg18
(lp1295
S'``'
p1296
aS'Softly'
p1297
aS','
p1298
aS'softly'
p1299
aS','
p1300
aS"''"
p1301
aS'said'
p1302
aS'the'
p1303
aS'little'
p1304
aS'tailor'
p1305
aS','
p1306
aS'``'
p1307
aS'I'
p1308
aS'will'
p1309
aS'soon'
p1310
aS'make'
p1311
aS'you'
p1312
aS'quiet'
p1313
aS'.'
p1314
aS"''"
p1315
asg33
(lp1316
V``
p1317
aVSoftly
p1318
ag102
aVsoftly
p1319
ag102
aV''
p1320
ag358
aVthe
p1321
aVlittle
p1322
aVtailor
p1323
ag102
aV``
p1324
ag582
aVwill
p1325
aVsoon
p1326
aVmake
p1327
aVyou
p1328
aVquiet
p1329
ag45
aV''
p1330
asg46
(lp1331
g48
ag48
ag48
ag48
ag48
ag48
ag48
ag48
ag48
ag48
ag48
ag48
ag48
ag48
ag48
ag48
ag48
ag48
ag48
ag48
asg49
(lp1332
g599
ag53
ag118
ag53
ag118
ag601
ag52
ag55
ag323
ag56
ag118
ag599
ag116
ag120
ag53
ag121
ag116
ag121
ag59
ag601
asg60
V"Softly, softly," said the little tailor, "I will soon make you quiet."
p1333
sba(i__main__
Sentence
p1334
(dp1335
g17
I22
sg18
(lp1336
S'Then'
p1337
aS'quite'
p1338
aS'composedly'
p1339
aS','
p1340
aS'and'
p1341
aS'as'
p1342
aS'if'
p1343
aS'he'
p1344
aS'had'
p1345
aS'no'
p1346
aS'anxiety'
p1347
aS'in'
p1348
aS'the'
p1349
aS'world'
p1350
aS','
p1351
aS'he'
p1352
aS'took'
p1353
aS'some'
p1354
aS'nuts'
p1355
aS'out'
p1356
aS'of'
p1357
aS'his'
p1358
aS'pocket'
p1359
aS','
p1360
aS'cracked'
p1361
aS'them'
p1362
aS','
p1363
aS'and'
p1364
aS'ate'
p1365
aS'the'
p1366
aS'kernels'
p1367
aS'.'
p1368
asg33
(lp1369
VThen
p1370
aVquite
p1371
aVcomposedly
p1372
ag102
aVand
p1373
ag39
aVif
p1374
aVhe
p1375
ag271
aVno
p1376
aVanxiety
p1377
aVin
p1378
aVthe
p1379
aVworld
p1380
ag102
aVhe
p1381
aVtake
p1382
aVsome
p1383
aVnut
p1384
aVout
p1385
aVof
p1386
aVhis
p1387
aVpocket
p1388
ag102
aVcrack
p1389
aVthem
p1390
ag102
aVand
p1391
aVeat
p1392
aVthe
p1393
aVkernel
p1394
ag45
asg46
(lp1395
g48
ag48
ag48
ag48
ag48
ag48
ag48
ag48
ag48
ag48
ag48
ag48
ag48
ag48
ag48
ag48
ag48
ag48
ag48
ag48
ag48
ag48
ag48
ag48
ag48
ag48
ag48
ag48
ag48
ag48
ag48
ag48
asg49
(lp1396
g53
ag53
ag53
ag118
ag119
ag54
ag54
ag116
ag52
ag55
ag56
ag54
ag55
ag56
ag118
ag116
ag52
ag55
ag322
ag54
ag54
ag174
ag56
ag118
ag52
ag116
ag118
ag119
ag121
ag55
ag322
ag59
asg60
VThen quite composedly, and as if he had no anxiety in the world, he took some nuts out of his pocket, cracked them, and ate the kernels.
p1397
sba(i__main__
Sentence
p1398
(dp1399
g17
I23
sg18
(lp1400
S'When'
p1401
aS'the'
p1402
aS'bear'
p1403
aS'saw'
p1404
aS'that'
p1405
aS','
p1406
aS'he'
p1407
aS'was'
p1408
aS'seized'
p1409
aS'with'
p1410
aS'a'
p1411
aS'desire'
p1412
aS'to'
p1413
aS'have'
p1414
aS'some'
p1415
aS'nuts'
p1416
aS'too'
p1417
aS'.'
p1418
asg33
(lp1419
VWhen
p1420
aVthe
p1421
aVbear
p1422
aVsaw
p1423
aVthat
p1424
ag102
aVhe
p1425
ag36
aVseize
p1426
aVwith
p1427
ag39
aVdesire
p1428
aVto
p1429
aVhave
p1430
aVsome
p1431
aVnut
p1432
aVtoo
p1433
ag45
asg46
(lp1434
g48
ag48
ag48
ag48
ag48
ag48
ag48
ag48
ag48
ag48
ag48
ag48
ag48
ag48
ag48
ag48
ag48
ag48
asg49
(lp1435
g325
ag55
ag56
ag52
ag54
ag118
ag116
ag52
ag58
ag54
ag55
ag56
ag117
ag121
ag55
ag322
ag53
ag59
asg60
VWhen the bear saw that, he was seized with a desire to have some nuts too.
p1436
sba(i__main__
Sentence
p1437
(dp1438
g17
I24
sg18
(lp1439
S'The'
p1440
aS'tailor'
p1441
aS'felt'
p1442
aS'in'
p1443
aS'his'
p1444
aS'pockets'
p1445
aS','
p1446
aS'and'
p1447
aS'reached'
p1448
aS'him'
p1449
aS'a'
p1450
aS'handful'
p1451
aS','
p1452
aS'they'
p1453
aS'were'
p1454
aS','
p1455
aS'however'
p1456
aS','
p1457
aS'not'
p1458
aS'nuts'
p1459
aS','
p1460
aS'but'
p1461
aS'pebbles'
p1462
aS'.'
p1463
asg33
(lp1464
VThe
p1465
aVtailor
p1466
aVfelt
p1467
aVin
p1468
aVhis
p1469
aVpocket
p1470
ag102
aVand
p1471
aVreach
p1472
aVhim
p1473
ag39
aVhandful
p1474
ag102
aVthey
p1475
ag462
ag102
aVhowever
p1476
ag102
aVnot
p1477
aVnut
p1478
ag102
aVbut
p1479
aVpebble
p1480
ag45
asg46
(lp1481
g48
ag48
ag48
ag48
ag48
ag48
ag48
ag48
ag48
ag48
ag48
ag48
ag48
ag48
ag48
ag48
ag48
ag48
ag48
ag48
ag48
ag48
ag48
ag48
asg49
(lp1482
g55
ag56
ag52
ag54
ag174
ag322
ag118
ag119
ag52
ag116
ag55
ag56
ag118
ag116
ag52
ag118
ag53
ag118
ag53
ag600
ag118
ag119
ag322
ag59
asg60
VThe tailor felt in his pockets, and reached him a handful, they were, however, not nuts, but pebbles.
p1483
sba(i__main__
Sentence
p1484
(dp1485
g17
I25
sg18
(lp1486
S'The'
p1487
aS'bear'
p1488
aS'put'
p1489
aS'them'
p1490
aS'in'
p1491
aS'his'
p1492
aS'mouth'
p1493
aS','
p1494
aS'but'
p1495
aS'could'
p1496
aS'get'
p1497
aS'nothing'
p1498
aS'out'
p1499
aS'of'
p1500
aS'them'
p1501
aS','
p1502
aS'let'
p1503
aS'him'
p1504
aS'bite'
p1505
aS'as'
p1506
aS'he'
p1507
aS'would'
p1508
aS'.'
p1509
asg33
(lp1510
VThe
p1511
aVbear
p1512
aVput
p1513
aVthem
p1514
aVin
p1515
aVhis
p1516
aVmouth
p1517
ag102
aVbut
p1518
aVcould
p1519
aVget
p1520
aVnothing
p1521
aVout
p1522
aVof
p1523
aVthem
p1524
ag102
aVlet
p1525
aVhim
p1526
aVbite
p1527
ag39
aVhe
p1528
aVwould
p1529
ag45
asg46
(lp1530
g48
ag48
ag48
ag48
ag48
ag48
ag48
ag48
ag48
ag48
ag48
ag48
ag48
ag48
ag48
ag48
ag48
ag48
ag48
ag48
ag48
ag48
ag48
asg49
(lp1531
g55
ag56
ag52
ag116
ag54
ag174
ag56
ag118
ag119
ag120
ag121
ag56
ag54
ag54
ag116
ag118
ag121
ag116
ag121
ag54
ag116
ag120
ag59
asg60
VThe bear put them in his mouth, but could get nothing out of them, let him bite as he would.
p1532
sba(i__main__
Sentence
p1533
(dp1534
g17
I26
sg18
(lp1535
S'``'
p1536
aS'Eh'
p1537
aS','
p1538
aS"''"
p1539
aS'thought'
p1540
aS'he'
p1541
aS','
p1542
aS'``'
p1543
aS'what'
p1544
aS'a'
p1545
aS'stupid'
p1546
aS'blockhead'
p1547
aS'am'
p1548
aS'I'
p1549
aS','
p1550
aS'I'
p1551
aS'can'
p1552
aS'not'
p1553
aS'even'
p1554
aS'crack'
p1555
aS'a'
p1556
aS'nut'
p1557
aS'.'
p1558
aS"''"
p1559
asg33
(lp1560
V``
p1561
aVEh
p1562
ag102
aV''
p1563
ag303
aVhe
p1564
ag102
aV``
p1565
aVwhat
p1566
ag39
aVstupid
p1567
aVblockhead
p1568
aVam
p1569
ag582
ag102
ag582
aVcan
p1570
aVnot
p1571
aVeven
p1572
aVcrack
p1573
ag39
aVnut
p1574
ag45
aV''
p1575
asg46
(lp1576
g48
ag48
ag48
ag48
ag48
ag48
ag48
ag48
ag48
ag48
ag48
ag48
ag48
ag48
ag48
ag48
ag48
ag48
ag48
ag48
ag48
ag48
ag48
ag48
asg49
(lp1577
g599
aS'NNP'
p1578
ag118
ag601
ag52
ag116
ag118
ag599
ag57
ag55
ag323
ag56
ag56
ag116
ag118
ag116
ag120
ag53
ag53
ag121
ag55
ag56
ag59
ag601
asg60
V"Eh," thought he, "what a stupid blockhead am I, I cannot even crack a nut."
p1579
sba(i__main__
Sentence
p1580
(dp1581
g17
I27
sg18
(lp1582
S'And'
p1583
aS'then'
p1584
aS'he'
p1585
aS'said'
p1586
aS'to'
p1587
aS'the'
p1588
aS'tailor'
p1589
aS','
p1590
aS'``'
p1591
aS'Here'
p1592
aS','
p1593
aS'crack'
p1594
aS'me'
p1595
aS'the'
p1596
aS'nuts'
p1597
aS'.'
p1598
aS"''"
p1599
asg33
(lp1600
VAnd
p1601
aVthen
p1602
aVhe
p1603
ag358
aVto
p1604
aVthe
p1605
aVtailor
p1606
ag102
aV``
p1607
aVHere
p1608
ag102
aVcrack
p1609
aVme
p1610
aVthe
p1611
aVnut
p1612
ag45
aV''
p1613
asg46
(lp1614
g48
ag48
ag48
ag48
ag48
ag48
ag48
ag48
ag48
ag48
ag48
ag48
ag48
ag48
ag48
ag48
ag48
asg49
(lp1615
g119
ag53
ag116
ag52
ag117
ag55
ag56
ag118
ag599
ag53
ag118
ag376
ag116
ag55
ag322
ag59
ag601
asg60
VAnd then he said to the tailor, "Here, crack me the nuts."
p1616
sba(i__main__
Sentence
p1617
(dp1618
g17
I28
sg18
(lp1619
S'``'
p1620
aS'There'
p1621
aS','
p1622
aS'see'
p1623
aS'what'
p1624
aS'a'
p1625
aS'stupid'
p1626
aS'fellow'
p1627
aS'you'
p1628
aS'are'
p1629
aS','
p1630
aS"''"
p1631
aS'said'
p1632
aS'the'
p1633
aS'little'
p1634
aS'tailor'
p1635
aS','
p1636
aS'``'
p1637
aS'to'
p1638
aS'have'
p1639
aS'such'
p1640
aS'a'
p1641
aS'great'
p1642
aS'mouth'
p1643
aS','
p1644
aS'and'
p1645
aS'not'
p1646
aS'be'
p1647
aS'able'
p1648
aS'to'
p1649
aS'crack'
p1650
aS'a'
p1651
aS'small'
p1652
aS'nut'
p1653
aS'.'
p1654
aS"''"
p1655
asg33
(lp1656
V``
p1657
aVThere
p1658
ag102
aVsee
p1659
aVwhat
p1660
ag39
aVstupid
p1661
aVfellow
p1662
aVyou
p1663
ag872
ag102
aV''
p1664
ag358
aVthe
p1665
aVlittle
p1666
aVtailor
p1667
ag102
aV``
p1668
aVto
p1669
aVhave
p1670
aVsuch
p1671
ag39
aVgreat
p1672
aVmouth
p1673
ag102
aVand
p1674
aVnot
p1675
aVbe
p1676
aVable
p1677
aVto
p1678
aVcrack
p1679
ag39
aVsmall
p1680
aVnut
p1681
ag45
aV''
p1682
asg46
(lp1683
g48
ag48
ag48
ag48
ag48
ag48
ag48
ag48
ag48
ag48
ag48
ag48
ag48
ag48
ag48
ag48
ag48
ag48
ag48
ag48
ag48
ag48
ag48
ag48
ag48
ag48
ag48
ag48
ag48
ag48
ag48
ag48
ag48
ag48
ag48
ag48
asg49
(lp1684
g599
ag51
ag118
ag56
ag57
ag55
ag323
ag56
ag116
ag376
ag118
ag601
ag52
ag55
ag323
ag56
ag118
ag599
ag117
ag121
ag323
ag55
ag323
ag56
ag118
ag119
ag53
ag121
ag323
ag117
ag121
ag55
ag323
ag56
ag59
ag601
asg60
V"There, see what a stupid fellow you are," said the little tailor, "to have such a great mouth, and not be able to crack a small nut."
p1685
sba(i__main__
Sentence
p1686
(dp1687
g17
I29
sg18
(lp1688
S'Then'
p1689
aS'he'
p1690
aS'took'
p1691
aS'the'
p1692
aS'pebble'
p1693
aS'and'
p1694
aS'nimbly'
p1695
aS'put'
p1696
aS'a'
p1697
aS'nut'
p1698
aS'in'
p1699
aS'his'
p1700
aS'mouth'
p1701
aS'in'
p1702
aS'the'
p1703
aS'place'
p1704
aS'of'
p1705
aS'it'
p1706
aS','
p1707
aS'and'
p1708
aS'crack'
p1709
aS','
p1710
aS'it'
p1711
aS'was'
p1712
aS'in'
p1713
aS'two'
p1714
aS'.'
p1715
asg33
(lp1716
VThen
p1717
aVhe
p1718
ag1382
aVthe
p1719
aVpebble
p1720
aVand
p1721
aVnimbly
p1722
aVput
p1723
ag39
aVnut
p1724
aVin
p1725
aVhis
p1726
aVmouth
p1727
aVin
p1728
aVthe
p1729
aVplace
p1730
aVof
p1731
aVit
p1732
ag102
aVand
p1733
aVcrack
p1734
ag102
aVit
p1735
ag36
aVin
p1736
aVtwo
p1737
ag45
asg46
(lp1738
g48
ag48
ag48
ag48
ag48
ag48
ag48
ag48
ag48
ag48
ag48
ag48
ag48
ag48
ag48
ag48
ag48
ag48
ag48
ag48
ag48
ag48
ag48
ag48
ag48
ag48
ag48
asg49
(lp1739
g53
ag116
ag52
ag55
ag323
ag119
ag53
ag52
ag55
ag56
ag54
ag174
ag56
ag54
ag55
ag56
ag54
ag116
ag118
ag119
ag56
ag118
ag116
ag52
ag54
ag321
ag59
asg60
VThen he took the pebble and nimbly put a nut in his mouth in the place of it, and crack, it was in two.
p1740
sba(i__main__
Sentence
p1741
(dp1742
g17
I30
sg18
(lp1743
S'``'
p1744
aS'I'
p1745
aS'must'
p1746
aS'try'
p1747
aS'the'
p1748
aS'thing'
p1749
aS'again'
p1750
aS','
p1751
aS"''"
p1752
aS'said'
p1753
aS'the'
p1754
aS'bear'
p1755
aS','
p1756
aS'``'
p1757
aS'when'
p1758
aS'I'
p1759
aS'watch'
p1760
aS'you'
p1761
aS','
p1762
aS'I'
p1763
aS'then'
p1764
aS'think'
p1765
aS'I'
p1766
aS'ought'
p1767
aS'to'
p1768
aS'be'
p1769
aS'able'
p1770
aS'to'
p1771
aS'do'
p1772
aS'it'
p1773
aS'too'
p1774
aS'.'
p1775
aS"''"
p1776
asg33
(lp1777
V``
p1778
ag582
aVmust
p1779
aVtry
p1780
aVthe
p1781
aVthing
p1782
aVagain
p1783
ag102
aV''
p1784
ag358
aVthe
p1785
aVbear
p1786
ag102
aV``
p1787
aVwhen
p1788
ag582
aVwatch
p1789
aVyou
p1790
ag102
ag582
aVthen
p1791
aVthink
p1792
ag582
aVought
p1793
aVto
p1794
aVbe
p1795
aVable
p1796
aVto
p1797
aVdo
p1798
aVit
p1799
aVtoo
p1800
ag45
aV''
p1801
asg46
(lp1802
g48
ag48
ag48
ag48
ag48
ag48
ag48
ag48
ag48
ag48
ag48
ag48
ag48
ag48
ag48
ag48
ag48
ag48
ag48
ag48
ag48
ag48
ag48
ag48
ag48
ag48
ag48
ag48
ag48
ag48
ag48
ag48
ag48
asg49
(lp1803
g599
ag116
ag120
ag121
ag55
ag56
ag53
ag118
ag601
ag52
ag55
ag56
ag118
ag599
ag325
ag116
ag376
ag116
ag118
ag116
ag53
ag376
ag116
ag120
ag117
ag121
ag323
ag117
ag121
ag116
ag53
ag59
ag601
asg60
V"I must try the thing again," said the bear, "when I watch you, I then think I ought to be able to do it too."
p1804
sba(i__main__
Sentence
p1805
(dp1806
g17
I31
sg18
(lp1807
S'So'
p1808
aS'the'
p1809
aS'tailor'
p1810
aS'once'
p1811
aS'more'
p1812
aS'gave'
p1813
aS'him'
p1814
aS'a'
p1815
aS'pebble'
p1816
aS','
p1817
aS'and'
p1818
aS'the'
p1819
aS'bear'
p1820
aS'tried'
p1821
aS'and'
p1822
aS'tried'
p1823
aS'to'
p1824
aS'bite'
p1825
aS'into'
p1826
aS'it'
p1827
aS'with'
p1828
aS'all'
p1829
aS'the'
p1830
aS'strength'
p1831
aS'of'
p1832
aS'his'
p1833
aS'body'
p1834
aS'.'
p1835
asg33
(lp1836
VSo
p1837
aVthe
p1838
aVtailor
p1839
aVonce
p1840
aVmore
p1841
aVgave
p1842
aVhim
p1843
ag39
aVpebble
p1844
ag102
aVand
p1845
aVthe
p1846
aVbear
p1847
aVtry
p1848
aVand
p1849
ag1848
aVto
p1850
aVbite
p1851
aVinto
p1852
aVit
p1853
aVwith
p1854
aVall
p1855
aVthe
p1856
aVstrength
p1857
aVof
p1858
aVhis
p1859
aVbody
p1860
ag45
asg46
(lp1861
g48
ag48
ag48
ag48
ag48
ag48
ag48
ag48
ag48
ag48
ag48
ag48
ag48
ag48
ag48
ag48
ag48
ag48
ag48
ag48
ag48
ag48
ag48
ag48
ag48
ag48
ag48
ag48
asg49
(lp1862
g54
ag55
ag56
ag53
aS'RBR'
p1863
ag323
ag116
ag55
ag323
ag118
ag119
ag55
ag56
ag52
ag119
ag52
ag117
ag121
ag54
ag116
ag54
ag55
ag55
ag56
ag54
ag174
ag56
ag59
asg60
VSo the tailor once more gave him a pebble, and the bear tried and tried to bite into it with all the strength of his body.
p1864
sba(i__main__
Sentence
p1865
(dp1866
g17
I32
sg18
(lp1867
S'But'
p1868
aS'even'
p1869
aS'you'
p1870
aS'do'
p1871
aS'not'
p1872
aS'believe'
p1873
aS'that'
p1874
aS'he'
p1875
aS'managed'
p1876
aS'it'
p1877
aS'.'
p1878
asg33
(lp1879
VBut
p1880
aVeven
p1881
aVyou
p1882
aVdo
p1883
aVnot
p1884
aVbelieve
p1885
aVthat
p1886
aVhe
p1887
aVmanage
p1888
aVit
p1889
ag45
asg46
(lp1890
g48
ag48
ag48
ag48
ag48
ag48
ag48
ag48
ag48
ag48
ag48
asg49
(lp1891
g119
ag53
ag116
ag376
ag53
ag121
ag54
ag116
ag52
ag116
ag59
asg60
VBut even you do not believe that he managed it.
p1892
sba(i__main__
Sentence
p1893
(dp1894
g17
I33
sg18
(lp1895
S'When'
p1896
aS'that'
p1897
aS'was'
p1898
aS'over'
p1899
aS','
p1900
aS'the'
p1901
aS'tailor'
p1902
aS'took'
p1903
aS'out'
p1904
aS'a'
p1905
aS'violin'
p1906
aS'from'
p1907
aS'beneath'
p1908
aS'his'
p1909
aS'coat'
p1910
aS','
p1911
aS'and'
p1912
aS'played'
p1913
aS'something'
p1914
aS'to'
p1915
aS'himself'
p1916
aS'.'
p1917
asg33
(lp1918
VWhen
p1919
aVthat
p1920
ag36
aVover
p1921
ag102
aVthe
p1922
aVtailor
p1923
ag1382
aVout
p1924
ag39
aVviolin
p1925
aVfrom
p1926
aVbeneath
p1927
aVhis
p1928
aVcoat
p1929
ag102
aVand
p1930
aVplay
p1931
aVsomething
p1932
aVto
p1933
aVhimself
p1934
ag45
asg46
(lp1935
g48
ag48
ag48
ag48
ag48
ag48
ag48
ag48
ag48
ag48
ag48
ag48
ag48
ag48
ag48
ag48
ag48
ag48
ag48
ag48
ag48
ag48
asg49
(lp1936
g325
ag55
ag52
ag54
ag118
ag55
ag56
ag52
ag1093
ag55
ag56
ag54
ag56
ag174
ag56
ag118
ag119
ag58
ag56
ag117
ag116
ag59
asg60
VWhen that was over, the tailor took out a violin from beneath his coat, and played something to himself.
p1937
sba(i__main__
Sentence
p1938
(dp1939
g17
I34
sg18
(lp1940
S'When'
p1941
aS'the'
p1942
aS'bear'
p1943
aS'heard'
p1944
aS'the'
p1945
aS'music'
p1946
aS','
p1947
aS'he'
p1948
aS'could'
p1949
aS'not'
p1950
aS'help'
p1951
aS'beginning'
p1952
aS'to'
p1953
aS'dance'
p1954
aS','
p1955
aS'and'
p1956
aS'when'
p1957
aS'he'
p1958
aS'had'
p1959
aS'danced'
p1960
aS'a'
p1961
aS'while'
p1962
aS','
p1963
aS'the'
p1964
aS'thing'
p1965
aS'pleased'
p1966
aS'him'
p1967
aS'so'
p1968
aS'well'
p1969
aS'that'
p1970
aS'he'
p1971
aS'said'
p1972
aS'to'
p1973
aS'the'
p1974
aS'little'
p1975
aS'tailor'
p1976
aS','
p1977
aS'``'
p1978
aS'Listen'
p1979
aS','
p1980
aS'is'
p1981
aS'it'
p1982
aS'difficult'
p1983
aS'to'
p1984
aS'fiddle'
p1985
aS'?'
p1986
aS"''"
p1987
asg33
(lp1988
VWhen
p1989
aVthe
p1990
aVbear
p1991
aVheard
p1992
aVthe
p1993
aVmusic
p1994
ag102
aVhe
p1995
aVcould
p1996
aVnot
p1997
aVhelp
p1998
aVbeginning
p1999
aVto
p2000
aVdance
p2001
ag102
aVand
p2002
aVwhen
p2003
aVhe
p2004
ag271
aVdance
p2005
ag39
aVwhile
p2006
ag102
aVthe
p2007
aVthing
p2008
aVplease
p2009
aVhim
p2010
aVso
p2011
aVwell
p2012
aVthat
p2013
aVhe
p2014
ag358
aVto
p2015
aVthe
p2016
aVlittle
p2017
aVtailor
p2018
ag102
aV``
p2019
aVListen
p2020
ag102
ag594
aVit
p2021
aVdifficult
p2022
aVto
p2023
aVfiddle
p2024
aV?
p2025
aV''
p2026
asg46
(lp2027
g48
ag48
ag48
ag48
ag48
ag48
ag48
ag48
ag48
ag48
ag48
ag48
ag48
ag48
ag48
ag48
ag48
ag48
ag48
ag48
ag48
ag48
ag48
ag48
ag48
ag48
ag48
ag48
ag48
ag48
ag48
ag48
ag48
ag48
ag48
ag48
ag48
ag48
ag48
ag48
ag48
ag48
ag48
ag48
ag48
ag48
ag48
asg49
(lp2028
g325
ag55
ag56
ag56
ag55
ag56
ag118
ag116
ag120
ag53
ag121
ag56
ag117
ag56
ag118
ag119
ag325
ag116
ag52
ag58
ag55
ag56
ag118
ag55
ag56
ag52
ag116
ag53
ag53
ag54
ag116
ag52
ag117
ag55
ag323
ag56
ag118
ag599
ag1578
ag118
ag600
ag116
ag323
ag117
ag121
ag59
ag601
asg60
VWhen the bear heard the music, he could not help beginning to dance, and when he had danced a while, the thing pleased him so well that he said to the little tailor, "Listen, is it difficult to fiddle?"
p2029
sba(i__main__
Sentence
p2030
(dp2031
g17
I35
sg18
(lp2032
S'``'
p2033
aS'Easy'
p2034
aS'enough'
p2035
aS'for'
p2036
aS'a'
p2037
aS'child'
p2038
aS'.'
p2039
asg33
(lp2040
V``
p2041
aVEasy
p2042
aVenough
p2043
aVfor
p2044
ag39
aVchild
p2045
ag45
asg46
(lp2046
g48
ag48
ag48
ag48
ag48
ag48
ag48
asg49
(lp2047
g599
ag323
ag53
ag54
ag55
ag56
ag59
asg60
V"Easy enough for a child.
p2048
sba(i__main__
Sentence
p2049
(dp2050
g17
I36
sg18
(lp2051
S'Look'
p2052
aS','
p2053
aS'with'
p2054
aS'the'
p2055
aS'left'
p2056
aS'hand'
p2057
aS'I'
p2058
aS'lay'
p2059
aS'my'
p2060
aS'fingers'
p2061
aS'on'
p2062
aS'it'
p2063
aS','
p2064
aS'and'
p2065
aS'with'
p2066
aS'the'
p2067
aS'right'
p2068
aS'I'
p2069
aS'stroke'
p2070
aS'it'
p2071
aS'with'
p2072
aS'the'
p2073
aS'bow'
p2074
aS','
p2075
aS'and'
p2076
aS'then'
p2077
aS'it'
p2078
aS'goes'
p2079
aS'merrily'
p2080
aS','
p2081
aS'hop'
p2082
aS'sa'
p2083
aS'sa'
p2084
aS'vivallalera'
p2085
aS'.'
p2086
aS"''"
p2087
asg33
(lp2088
VLook
p2089
ag102
aVwith
p2090
aVthe
p2091
aVleft
p2092
aVhand
p2093
ag582
aVlay
p2094
aVmy
p2095
aVfinger
p2096
aVon
p2097
aVit
p2098
ag102
aVand
p2099
aVwith
p2100
aVthe
p2101
aVright
p2102
ag582
aVstroke
p2103
aVit
p2104
aVwith
p2105
aVthe
p2106
aVbow
p2107
ag102
aVand
p2108
aVthen
p2109
aVit
p2110
aVgo
p2111
aVmerrily
p2112
ag102
aVhop
p2113
aVsa
p2114
aVsa
p2115
aVvivallalera
p2116
ag45
aV''
p2117
asg46
(lp2118
g48
ag48
ag48
ag48
ag48
ag48
ag48
ag48
ag48
ag48
ag48
ag48
ag48
ag48
ag48
ag48
ag48
ag48
ag48
ag48
ag48
ag48
ag48
ag48
ag48
ag48
ag48
ag48
ag48
ag48
ag48
ag48
ag48
ag48
ag48
ag48
asg49
(lp2119
g1578
ag118
ag54
ag55
ag56
ag56
ag116
ag376
ag174
ag322
ag54
ag116
ag118
ag119
ag54
ag55
ag56
ag116
ag376
ag116
ag54
ag55
ag56
ag118
ag119
ag53
ag116
ag600
ag53
ag118
ag121
ag56
ag56
ag56
ag59
ag601
asg60
VLook, with the left hand I lay my fingers on it, and with the right I stroke it with the bow, and then it goes merrily, hop sa sa vivallalera."
p2120
sba(i__main__
Sentence
p2121
(dp2122
g17
I37
sg18
(lp2123
S'``'
p2124
aS'So'
p2125
aS','
p2126
aS"''"
p2127
aS'said'
p2128
aS'the'
p2129
aS'bear'
p2130
aS','
p2131
aS'``'
p2132
aS'fiddling'
p2133
aS'is'
p2134
aS'a'
p2135
aS'thing'
p2136
aS'I'
p2137
aS'should'
p2138
aS'like'
p2139
aS'to'
p2140
aS'learn'
p2141
aS'too'
p2142
aS','
p2143
aS'that'
p2144
aS'I'
p2145
aS'might'
p2146
aS'dance'
p2147
aS'whenever'
p2148
aS'I'
p2149
aS'felt'
p2150
aS'like'
p2151
aS'it'
p2152
aS'.'
p2153
asg33
(lp2154
V``
p2155
aVSo
p2156
ag102
aV''
p2157
ag358
aVthe
p2158
aVbear
p2159
ag102
aV``
p2160
aVfiddling
p2161
ag594
ag39
aVthing
p2162
ag582
aVshould
p2163
aVlike
p2164
aVto
p2165
aVlearn
p2166
aVtoo
p2167
ag102
aVthat
p2168
ag582
aVmight
p2169
aVdance
p2170
aVwhenever
p2171
ag582
aVfelt
p2172
aVlike
p2173
aVit
p2174
ag45
asg46
(lp2175
g48
ag48
ag48
ag48
ag48
ag48
ag48
ag48
ag48
ag48
ag48
ag48
ag48
ag48
ag48
ag48
ag48
ag48
ag48
ag48
ag48
ag48
ag48
ag48
ag48
ag48
ag48
ag48
ag48
ag48
asg49
(lp2176
g599
ag53
ag118
ag601
ag52
ag55
ag56
ag118
ag599
ag56
ag600
ag55
ag56
ag116
ag120
ag121
ag117
ag121
ag53
ag118
ag54
ag116
ag120
ag121
ag53
ag116
ag52
ag54
ag116
ag59
asg60
V"So," said the bear, "fiddling is a thing I should like to learn too, that I might dance whenever I felt like it.
p2177
sba(i__main__
Sentence
p2178
(dp2179
g17
I38
sg18
(lp2180
S'What'
p2181
aS'do'
p2182
aS'you'
p2183
aS'think'
p2184
aS'of'
p2185
aS'that'
p2186
aS'?'
p2187
asg33
(lp2188
VWhat
p2189
aVdo
p2190
aVyou
p2191
aVthink
p2192
aVof
p2193
aVthat
p2194
ag2025
asg46
(lp2195
g48
ag48
ag48
ag48
ag48
ag48
ag48
asg49
(lp2196
g57
ag376
ag116
ag121
ag54
ag55
ag59
asg60
VWhat do you think of that?
p2197
sba(i__main__
Sentence
p2198
(dp2199
g17
I39
sg18
(lp2200
S'Will'
p2201
aS'you'
p2202
aS'give'
p2203
aS'me'
p2204
aS'lessons'
p2205
aS'?'
p2206
aS"''"
p2207
asg33
(lp2208
VWill
p2209
aVyou
p2210
aVgive
p2211
aVme
p2212
aVlesson
p2213
ag2025
aV''
p2214
asg46
(lp2215
g48
ag48
ag48
ag48
ag48
ag48
ag48
asg49
(lp2216
g1578
ag116
ag376
ag116
ag322
ag59
ag601
asg60
VWill you give me lessons?"
p2217
sba(i__main__
Sentence
p2218
(dp2219
g17
I40
sg18
(lp2220
S'``'
p2221
aS'With'
p2222
aS'all'
p2223
aS'my'
p2224
aS'heart'
p2225
aS','
p2226
aS"''"
p2227
aS'said'
p2228
aS'the'
p2229
aS'tailor'
p2230
aS','
p2231
aS'``'
p2232
aS'if'
p2233
aS'you'
p2234
aS'have'
p2235
aS'a'
p2236
aS'talent'
p2237
aS'for'
p2238
aS'it'
p2239
aS'.'
p2240
asg33
(lp2241
V``
p2242
aVWith
p2243
aVall
p2244
aVmy
p2245
aVheart
p2246
ag102
aV''
p2247
ag358
aVthe
p2248
aVtailor
p2249
ag102
aV``
p2250
aVif
p2251
aVyou
p2252
aVhave
p2253
ag39
aVtalent
p2254
aVfor
p2255
aVit
p2256
ag45
asg46
(lp2257
g48
ag48
ag48
ag48
ag48
ag48
ag48
ag48
ag48
ag48
ag48
ag48
ag48
ag48
ag48
ag48
ag48
ag48
ag48
ag48
asg49
(lp2258
g599
ag54
ag55
ag174
ag56
ag118
ag601
ag52
ag55
ag56
ag118
ag599
ag54
ag116
ag376
ag55
ag56
ag54
ag116
ag59
asg60
V"With all my heart," said the tailor, "if you have a talent for it.
p2259
sba(i__main__
Sentence
p2260
(dp2261
g17
I41
sg18
(lp2262
S'But'
p2263
aS'just'
p2264
aS'let'
p2265
aS'me'
p2266
aS'see'
p2267
aS'your'
p2268
aS'claws'
p2269
aS','
p2270
aS'they'
p2271
aS'are'
p2272
aS'terribly'
p2273
aS'long'
p2274
aS','
p2275
aS'I'
p2276
aS'must'
p2277
aS'cut'
p2278
aS'your'
p2279
aS'nails'
p2280
aS'a'
p2281
aS'little'
p2282
aS'.'
p2283
aS"''"
p2284
asg33
(lp2285
VBut
p2286
aVjust
p2287
aVlet
p2288
aVme
p2289
aVsee
p2290
aVyour
p2291
aVclaw
p2292
ag102
aVthey
p2293
ag872
aVterribly
p2294
aVlong
p2295
ag102
ag582
aVmust
p2296
aVcut
p2297
aVyour
p2298
aVnail
p2299
ag39
aVlittle
p2300
ag45
aV''
p2301
asg46
(lp2302
g48
ag48
ag48
ag48
ag48
ag48
ag48
ag48
ag48
ag48
ag48
ag48
ag48
ag48
ag48
ag48
ag48
ag48
ag48
ag48
ag48
ag48
asg49
(lp2303
g119
ag53
ag376
ag116
ag121
ag174
ag322
ag118
ag116
ag376
ag53
ag323
ag118
ag116
ag120
ag121
ag174
ag322
ag55
ag53
ag59
ag601
asg60
VBut just let me see your claws, they are terribly long, I must cut your nails a little."
p2304
sba(i__main__
Sentence
p2305
(dp2306
g17
I42
sg18
(lp2307
S'Then'
p2308
aS'a'
p2309
aS'vise'
p2310
aS'was'
p2311
aS'brought'
p2312
aS','
p2313
aS'and'
p2314
aS'the'
p2315
aS'bear'
p2316
aS'put'
p2317
aS'his'
p2318
aS'claws'
p2319
aS'in'
p2320
aS'it'
p2321
aS','
p2322
aS'and'
p2323
aS'the'
p2324
aS'little'
p2325
aS'tailor'
p2326
aS'screwed'
p2327
aS'it'
p2328
aS'tight'
p2329
aS','
p2330
aS'and'
p2331
aS'said'
p2332
aS','
p2333
aS'``'
p2334
aS'Now'
p2335
aS'wait'
p2336
aS'until'
p2337
aS'I'
p2338
aS'come'
p2339
aS'with'
p2340
aS'the'
p2341
aS'scissors'
p2342
aS'.'
p2343
aS"''"
p2344
asg33
(lp2345
VThen
p2346
ag39
aVvise
p2347
ag36
aVbring
p2348
ag102
aVand
p2349
aVthe
p2350
aVbear
p2351
aVput
p2352
aVhis
p2353
aVclaw
p2354
aVin
p2355
aVit
p2356
ag102
aVand
p2357
aVthe
p2358
aVlittle
p2359
aVtailor
p2360
aVscrew
p2361
aVit
p2362
aVtight
p2363
ag102
aVand
p2364
ag358
ag102
aV``
p2365
aVNow
p2366
aVwait
p2367
aVuntil
p2368
ag582
aVcome
p2369
aVwith
p2370
aVthe
p2371
aVscissors
p2372
ag45
aV''
p2373
asg46
(lp2374
g48
ag48
ag48
ag48
ag48
ag48
ag48
ag48
ag48
ag48
ag48
ag48
ag48
ag48
ag48
ag48
ag48
ag48
ag48
ag48
ag48
ag48
ag48
ag48
ag48
ag48
ag48
ag48
ag48
ag48
ag48
ag48
ag48
ag48
ag48
ag48
ag48
asg49
(lp2375
g53
ag55
ag56
ag52
ag58
ag118
ag119
ag55
ag56
ag52
ag174
ag322
ag54
ag116
ag118
ag119
ag55
ag323
ag56
ag52
ag116
ag52
ag118
ag119
ag52
ag118
ag599
ag53
ag121
ag54
ag116
ag376
ag54
ag55
ag322
ag59
ag601
asg60
VThen a vise was brought, and the bear put his claws in it, and the little tailor screwed it tight, and said, "Now wait until I come with the scissors."
p2376
sba(i__main__
Sentence
p2377
(dp2378
g17
I43
sg18
(lp2379
S'And'
p2380
aS'he'
p2381
aS'let'
p2382
aS'the'
p2383
aS'bear'
p2384
aS'growl'
p2385
aS'as'
p2386
aS'he'
p2387
aS'liked'
p2388
aS','
p2389
aS'and'
p2390
aS'lay'
p2391
aS'down'
p2392
aS'in'
p2393
aS'the'
p2394
aS'corner'
p2395
aS'on'
p2396
aS'a'
p2397
aS'bundle'
p2398
aS'of'
p2399
aS'straw'
p2400
aS','
p2401
aS'and'
p2402
aS'fell'
p2403
aS'asleep'
p2404
aS'.'
p2405
asg33
(lp2406
VAnd
p2407
aVhe
p2408
aVlet
p2409
aVthe
p2410
aVbear
p2411
aVgrowl
p2412
ag39
aVhe
p2413
aVlike
p2414
ag102
aVand
p2415
aVlay
p2416
aVdown
p2417
aVin
p2418
aVthe
p2419
aVcorner
p2420
aVon
p2421
ag39
aVbundle
p2422
aVof
p2423
aVstraw
p2424
ag102
aVand
p2425
aVfell
p2426
aVasleep
p2427
ag45
asg46
(lp2428
g48
ag48
ag48
ag48
ag48
ag48
ag48
ag48
ag48
ag48
ag48
ag48
ag48
ag48
ag48
ag48
ag48
ag48
ag48
ag48
ag48
ag48
ag48
ag48
ag48
ag48
asg49
(lp2429
g119
ag116
ag52
ag55
ag323
ag56
ag54
ag116
ag52
ag118
ag119
ag52
ag1093
ag54
ag55
ag56
ag54
ag55
ag56
ag54
ag56
ag118
ag119
ag52
ag121
ag59
asg60
VAnd he let the bear growl as he liked, and lay down in the corner on a bundle of straw, and fell asleep.
p2430
sba(i__main__
Sentence
p2431
(dp2432
g17
I44
sg18
(lp2433
S'When'
p2434
aS'the'
p2435
aS'princess'
p2436
aS'heard'
p2437
aS'the'
p2438
aS'bear'
p2439
aS'growling'
p2440
aS'so'
p2441
aS'fiercely'
p2442
aS'during'
p2443
aS'the'
p2444
aS'night'
p2445
aS','
p2446
aS'she'
p2447
aS'believed'
p2448
aS'nothing'
p2449
aS'else'
p2450
aS'but'
p2451
aS'that'
p2452
aS'he'
p2453
aS'was'
p2454
aS'growling'
p2455
aS'for'
p2456
aS'joy'
p2457
aS','
p2458
aS'and'
p2459
aS'had'
p2460
aS'made'
p2461
aS'an'
p2462
aS'end'
p2463
aS'of'
p2464
aS'the'
p2465
aS'tailor'
p2466
aS'.'
p2467
asg33
(lp2468
VWhen
p2469
aVthe
p2470
aVprincess
p2471
aVheard
p2472
aVthe
p2473
aVbear
p2474
aVgrowl
p2475
aVso
p2476
aVfiercely
p2477
aVduring
p2478
aVthe
p2479
aVnight
p2480
ag102
aVshe
p2481
aVbelieve
p2482
aVnothing
p2483
aVelse
p2484
aVbut
p2485
aVthat
p2486
aVhe
p2487
ag36
aVgrowl
p2488
aVfor
p2489
aVjoy
p2490
ag102
aVand
p2491
ag271
ag154
aVan
p2492
aVend
p2493
aVof
p2494
aVthe
p2495
aVtailor
p2496
ag45
asg46
(lp2497
g48
ag48
ag48
ag48
ag48
ag48
ag48
ag48
ag48
ag48
ag48
ag48
ag48
ag48
ag48
ag48
ag48
ag48
ag48
ag48
ag48
ag48
ag48
ag48
ag48
ag48
ag48
ag48
ag48
ag48
ag48
ag48
ag48
ag48
asg49
(lp2498
g325
ag55
ag56
ag56
ag55
ag56
aS'VBG'
p2499
ag53
ag53
ag54
ag55
ag56
ag118
ag116
ag52
ag56
ag53
ag119
ag54
ag116
ag52
ag2499
ag54
ag56
ag118
ag119
ag52
ag58
ag55
ag56
ag54
ag55
ag56
ag59
asg60
VWhen the princess heard the bear growling so fiercely during the night, she believed nothing else but that he was growling for joy, and had made an end of the tailor.
p2500
sba(i__main__
Sentence
p2501
(dp2502
g17
I45
sg18
(lp2503
S'In'
p2504
aS'the'
p2505
aS'morning'
p2506
aS'she'
p2507
aS'arose'
p2508
aS'careless'
p2509
aS'and'
p2510
aS'happy'
p2511
aS','
p2512
aS'but'
p2513
aS'when'
p2514
aS'she'
p2515
aS'peeped'
p2516
aS'into'
p2517
aS'the'
p2518
aS'stable'
p2519
aS','
p2520
aS'the'
p2521
aS'tailor'
p2522
aS'stood'
p2523
aS'gaily'
p2524
aS'before'
p2525
aS'her'
p2526
aS','
p2527
aS'and'
p2528
aS'was'
p2529
aS'as'
p2530
aS'healthy'
p2531
aS'as'
p2532
aS'a'
p2533
aS'fish'
p2534
aS'in'
p2535
aS'water'
p2536
aS'.'
p2537
asg33
(lp2538
VIn
p2539
aVthe
p2540
aVmorning
p2541
aVshe
p2542
aVarise
p2543
aVcareless
p2544
aVand
p2545
aVhappy
p2546
ag102
aVbut
p2547
aVwhen
p2548
aVshe
p2549
aVpeep
p2550
aVinto
p2551
aVthe
p2552
aVstable
p2553
ag102
aVthe
p2554
aVtailor
p2555
aVstand
p2556
aVgaily
p2557
aVbefore
p2558
aVher
p2559
ag102
aVand
p2560
ag36
aVas
p2561
aVhealthy
p2562
ag39
ag39
aVfish
p2563
aVin
p2564
aVwater
p2565
ag45
asg46
(lp2566
g48
ag48
ag48
ag48
ag48
ag48
ag48
ag48
ag48
ag48
ag48
ag48
ag48
ag48
ag48
ag48
ag48
ag48
ag48
ag48
ag48
ag48
ag48
ag48
ag48
ag48
ag48
ag48
ag48
ag48
ag48
ag48
ag48
ag48
asg49
(lp2567
g54
ag55
ag56
ag116
ag52
ag56
ag119
ag56
ag118
ag119
ag325
ag116
ag52
ag54
ag55
ag323
ag118
ag55
ag56
ag52
ag53
ag54
ag174
ag118
ag119
ag52
ag53
ag323
ag54
ag55
ag323
ag54
ag56
ag59
asg60
VIn the morning she arose careless and happy, but when she peeped into the stable, the tailor stood gaily before her, and was as healthy as a fish in water.
p2568
sba(i__main__
Sentence
p2569
(dp2570
g17
I46
sg18
(lp2571
S'Now'
p2572
aS'she'
p2573
aS'could'
p2574
aS'not'
p2575
aS'say'
p2576
aS'another'
p2577
aS'word'
p2578
aS'against'
p2579
aS'the'
p2580
aS'wedding'
p2581
aS'because'
p2582
aS'she'
p2583
aS'had'
p2584
aS'given'
p2585
aS'a'
p2586
aS'promise'
p2587
aS'before'
p2588
aS'everyone'
p2589
aS','
p2590
aS'and'
p2591
aS'the'
p2592
aS'king'
p2593
aS'ordered'
p2594
aS'a'
p2595
aS'carriage'
p2596
aS'to'
p2597
aS'be'
p2598
aS'brought'
p2599
aS'in'
p2600
aS'which'
p2601
aS'she'
p2602
aS'was'
p2603
aS'to'
p2604
aS'drive'
p2605
aS'to'
p2606
aS'church'
p2607
aS'with'
p2608
aS'the'
p2609
aS'tailor'
p2610
aS','
p2611
aS'and'
p2612
aS'there'
p2613
aS'she'
p2614
aS'was'
p2615
aS'to'
p2616
aS'be'
p2617
aS'married'
p2618
aS'.'
p2619
asg33
(lp2620
VNow
p2621
aVshe
p2622
aVcould
p2623
aVnot
p2624
aVsay
p2625
aVanother
p2626
aVword
p2627
aVagainst
p2628
aVthe
p2629
aVwedding
p2630
aVbecause
p2631
aVshe
p2632
ag271
aVgive
p2633
ag39
aVpromise
p2634
aVbefore
p2635
aVeveryone
p2636
ag102
aVand
p2637
aVthe
p2638
aVking
p2639
aVorder
p2640
ag39
aVcarriage
p2641
aVto
p2642
aVbe
p2643
ag2348
aVin
p2644
aVwhich
p2645
aVshe
p2646
ag36
aVto
p2647
aVdrive
p2648
aVto
p2649
aVchurch
p2650
aVwith
p2651
aVthe
p2652
aVtailor
p2653
ag102
aVand
p2654
aVthere
p2655
aVshe
p2656
ag36
aVto
p2657
aVbe
p2658
aVmarry
p2659
ag45
asg46
(lp2660
g48
ag48
ag48
ag48
ag48
ag48
ag48
ag48
ag48
ag48
ag48
ag48
ag48
ag48
ag48
ag48
ag48
ag48
ag48
ag48
ag48
ag48
ag48
ag48
ag48
ag48
ag48
ag48
ag48
ag48
ag48
ag48
ag48
ag48
ag48
ag48
ag48
ag48
ag48
ag48
ag48
ag48
ag48
ag48
ag48
ag48
ag48
ag48
asg49
(lp2661
g53
ag116
ag120
ag53
ag121
ag55
ag56
ag54
ag55
ag56
ag54
ag116
ag52
ag58
ag55
ag56
ag54
ag56
ag118
ag119
ag55
ag56
ag52
ag55
ag56
ag117
ag121
ag58
ag54
ag663
ag116
ag52
ag117
ag121
ag117
ag56
ag54
ag55
ag56
ag118
ag119
ag51
ag116
ag52
ag117
ag121
ag58
ag59
asg60
VNow she could not say another word against the wedding because she had given a promise before everyone, and the king ordered a carriage to be brought in which she was to drive to church with the tailor, and there she was to be married.
p2662
sba(i__main__
Sentence
p2663
(dp2664
g17
I47
sg18
(lp2665
S'When'
p2666
aS'they'
p2667
aS'had'
p2668
aS'climbed'
p2669
aS'into'
p2670
aS'the'
p2671
aS'carriage'
p2672
aS','
p2673
aS'the'
p2674
aS'two'
p2675
aS'other'
p2676
aS'tailors'
p2677
aS','
p2678
aS'who'
p2679
aS'had'
p2680
aS'false'
p2681
aS'hearts'
p2682
aS'and'
p2683
aS'envied'
p2684
aS'him'
p2685
aS'his'
p2686
aS'good'
p2687
aS'fortune'
p2688
aS','
p2689
aS'went'
p2690
aS'into'
p2691
aS'the'
p2692
aS'stable'
p2693
aS'and'
p2694
aS'unscrewed'
p2695
aS'the'
p2696
aS'bear'
p2697
aS'again'
p2698
aS'.'
p2699
asg33
(lp2700
VWhen
p2701
aVthey
p2702
ag271
aVclimb
p2703
aVinto
p2704
aVthe
p2705
aVcarriage
p2706
ag102
aVthe
p2707
aVtwo
p2708
aVother
p2709
aVtailor
p2710
ag102
aVwho
p2711
ag271
aVfalse
p2712
aVheart
p2713
aVand
p2714
aVenvy
p2715
aVhim
p2716
aVhis
p2717
aVgood
p2718
aVfortune
p2719
ag102
ag456
aVinto
p2720
aVthe
p2721
aVstable
p2722
aVand
p2723
aVunscrew
p2724
aVthe
p2725
aVbear
p2726
aVagain
p2727
ag45
asg46
(lp2728
g48
ag48
ag48
ag48
ag48
ag48
ag48
ag48
ag48
ag48
ag48
ag48
ag48
ag48
ag48
ag48
ag48
ag48
ag48
ag48
ag48
ag48
ag48
ag48
ag48
ag48
ag48
ag48
ag48
ag48
ag48
ag48
ag48
ag48
asg49
(lp2729
g325
ag116
ag52
ag58
ag54
ag55
ag56
ag118
ag55
ag321
ag323
ag322
ag118
ag57
ag52
ag376
ag322
ag119
ag52
ag116
ag174
ag323
ag56
ag118
ag52
ag54
ag55
ag323
ag119
ag52
ag55
ag56
ag53
ag59
asg60
VWhen they had climbed into the carriage, the two other tailors, who had false hearts and envied him his good fortune, went into the stable and unscrewed the bear again.
p2730
sba(i__main__
Sentence
p2731
(dp2732
g17
I48
sg18
(lp2733
S'The'
p2734
aS'bear'
p2735
aS'in'
p2736
aS'great'
p2737
aS'fury'
p2738
aS'ran'
p2739
aS'after'
p2740
aS'the'
p2741
aS'carriage'
p2742
aS'.'
p2743
asg33
(lp2744
VThe
p2745
aVbear
p2746
aVin
p2747
aVgreat
p2748
aVfury
p2749
aVrun
p2750
aVafter
p2751
aVthe
p2752
aVcarriage
p2753
ag45
asg46
(lp2754
g48
ag48
ag48
ag48
ag48
ag48
ag48
ag48
ag48
ag48
asg49
(lp2755
g55
ag56
ag54
ag323
ag56
ag52
ag54
ag55
ag56
ag59
asg60
VThe bear in great fury ran after the carriage.
p2756
sba(i__main__
Sentence
p2757
(dp2758
g17
I49
sg18
(lp2759
S'The'
p2760
aS'princess'
p2761
aS'heard'
p2762
aS'snorting'
p2763
aS'and'
p2764
aS'growling'
p2765
aS'.'
p2766
asg33
(lp2767
VThe
p2768
aVprincess
p2769
aVheard
p2770
aVsnort
p2771
aVand
p2772
aVgrowl
p2773
ag45
asg46
(lp2774
g48
ag48
ag48
ag48
ag48
ag48
ag48
asg49
(lp2775
g55
ag56
ag56
ag2499
ag119
ag2499
ag59
asg60
VThe princess heard snorting and growling.
p2776
sba(i__main__
Sentence
p2777
(dp2778
g17
I50
sg18
(lp2779
S'She'
p2780
aS'was'
p2781
aS'terrified'
p2782
aS','
p2783
aS'and'
p2784
aS'she'
p2785
aS'cried'
p2786
aS','
p2787
aS'``'
p2788
aS'Ah'
p2789
aS','
p2790
aS'the'
p2791
aS'bear'
p2792
aS'is'
p2793
aS'behind'
p2794
aS'us'
p2795
aS'and'
p2796
aS'wants'
p2797
aS'to'
p2798
aS'get'
p2799
aS'you'
p2800
aS'.'
p2801
aS"''"
p2802
asg33
(lp2803
VShe
p2804
ag36
aVterrify
p2805
ag102
aVand
p2806
aVshe
p2807
aVcry
p2808
ag102
aV``
p2809
aVAh
p2810
ag102
aVthe
p2811
aVbear
p2812
ag594
aVbehind
p2813
aVu
p2814
aVand
p2815
aVwant
p2816
aVto
p2817
aVget
p2818
aVyou
p2819
ag45
aV''
p2820
asg46
(lp2821
g48
ag48
ag48
ag48
ag48
ag48
ag48
ag48
ag48
ag48
ag48
ag48
ag48
ag48
ag48
ag48
ag48
ag48
ag48
ag48
ag48
ag48
ag48
asg49
(lp2822
g116
ag52
ag58
ag118
ag119
ag116
ag52
ag118
ag599
ag1578
ag118
ag55
ag56
ag600
ag54
ag116
ag119
ag600
ag117
ag121
ag116
ag59
ag601
asg60
VShe was terrified, and she cried, "Ah, the bear is behind us and wants to get you."
p2823
sba(i__main__
Sentence
p2824
(dp2825
g17
I51
sg18
(lp2826
S'The'
p2827
aS'tailor'
p2828
aS'was'
p2829
aS'quick'
p2830
aS'and'
p2831
aS'stood'
p2832
aS'on'
p2833
aS'his'
p2834
aS'head'
p2835
aS','
p2836
aS'stuck'
p2837
aS'his'
p2838
aS'legs'
p2839
aS'out'
p2840
aS'of'
p2841
aS'the'
p2842
aS'window'
p2843
aS','
p2844
aS'and'
p2845
aS'cried'
p2846
aS','
p2847
aS'``'
p2848
aS'Do'
p2849
aS'you'
p2850
aS'see'
p2851
aS'the'
p2852
aS'vise'
p2853
aS'?'
p2854
asg33
(lp2855
VThe
p2856
aVtailor
p2857
ag36
aVquick
p2858
aVand
p2859
aVstood
p2860
aVon
p2861
aVhis
p2862
aVhead
p2863
ag102
aVstuck
p2864
aVhis
p2865
aVleg
p2866
aVout
p2867
aVof
p2868
aVthe
p2869
aVwindow
p2870
ag102
aVand
p2871
ag2808
ag102
aV``
p2872
aVDo
p2873
aVyou
p2874
aVsee
p2875
aVthe
p2876
aVvise
p2877
ag2025
asg46
(lp2878
g48
ag48
ag48
ag48
ag48
ag48
ag48
ag48
ag48
ag48
ag48
ag48
ag48
ag48
ag48
ag48
ag48
ag48
ag48
ag48
ag48
ag48
ag48
ag48
ag48
ag48
ag48
ag48
asg49
(lp2879
g55
ag56
ag52
ag323
ag119
ag56
ag54
ag174
ag56
ag118
ag56
ag174
ag322
ag54
ag54
ag55
ag56
ag118
ag119
ag52
ag118
ag599
ag376
ag116
ag121
ag55
ag56
ag59
asg60
VThe tailor was quick and stood on his head, stuck his legs out of the window, and cried, "Do you see the vise?
p2880
sba(i__main__
Sentence
p2881
(dp2882
g17
I52
sg18
(lp2883
S'If'
p2884
aS'you'
p2885
aS'do'
p2886
aS'not'
p2887
aS'be'
p2888
aS'off'
p2889
aS'you'
p2890
aS'shall'
p2891
aS'be'
p2892
aS'put'
p2893
aS'into'
p2894
aS'it'
p2895
aS'again'
p2896
aS'.'
p2897
aS"''"
p2898
asg33
(lp2899
VIf
p2900
aVyou
p2901
aVdo
p2902
aVnot
p2903
aVbe
p2904
aVoff
p2905
aVyou
p2906
aVshall
p2907
aVbe
p2908
aVput
p2909
aVinto
p2910
aVit
p2911
aVagain
p2912
ag45
aV''
p2913
asg46
(lp2914
g48
ag48
ag48
ag48
ag48
ag48
ag48
ag48
ag48
ag48
ag48
ag48
ag48
ag48
ag48
asg49
(lp2915
g54
ag116
ag376
ag53
ag121
ag1093
ag116
ag120
ag121
ag58
ag54
ag116
ag53
ag59
ag601
asg60
VIf you do not be off you shall be put into it again."
p2916
sba(i__main__
Sentence
p2917
(dp2918
g17
I53
sg18
(lp2919
S'When'
p2920
aS'the'
p2921
aS'bear'
p2922
aS'saw'
p2923
aS'that'
p2924
aS','
p2925
aS'he'
p2926
aS'turned'
p2927
aS'round'
p2928
aS'and'
p2929
aS'ran'
p2930
aS'away'
p2931
aS'.'
p2932
asg33
(lp2933
VWhen
p2934
aVthe
p2935
aVbear
p2936
aVsaw
p2937
aVthat
p2938
ag102
aVhe
p2939
aVturn
p2940
aVround
p2941
aVand
p2942
ag2750
aVaway
p2943
ag45
asg46
(lp2944
g48
ag48
ag48
ag48
ag48
ag48
ag48
ag48
ag48
ag48
ag48
ag48
ag48
asg49
(lp2945
g325
ag55
ag56
ag52
ag54
ag118
ag116
ag52
ag56
ag119
ag52
ag53
ag59
asg60
VWhen the bear saw that, he turned round and ran away.
p2946
sba(i__main__
Sentence
p2947
(dp2948
g17
I54
sg18
(lp2949
S'The'
p2950
aS'tailor'
p2951
aS'drove'
p2952
aS'quietly'
p2953
aS'to'
p2954
aS'church'
p2955
aS','
p2956
aS'and'
p2957
aS'the'
p2958
aS'princess'
p2959
aS'was'
p2960
aS'married'
p2961
aS'to'
p2962
aS'him'
p2963
aS'at'
p2964
aS'once'
p2965
aS','
p2966
aS'and'
p2967
aS'he'
p2968
aS'lived'
p2969
aS'with'
p2970
aS'her'
p2971
aS'as'
p2972
aS'happy'
p2973
aS'as'
p2974
aS'a'
p2975
aS'woodlark'
p2976
aS'.'
p2977
asg33
(lp2978
VThe
p2979
aVtailor
p2980
aVdrive
p2981
aVquietly
p2982
aVto
p2983
aVchurch
p2984
ag102
aVand
p2985
aVthe
p2986
aVprincess
p2987
ag36
ag2659
aVto
p2988
aVhim
p2989
aVat
p2990
aVonce
p2991
ag102
aVand
p2992
aVhe
p2993
aVlive
p2994
aVwith
p2995
aVher
p2996
ag39
aVhappy
p2997
ag39
ag39
aVwoodlark
p2998
ag45
asg46
(lp2999
g48
ag48
ag48
ag48
ag48
ag48
ag48
ag48
ag48
ag48
ag48
ag48
ag48
ag48
ag48
ag48
ag48
ag48
ag48
ag48
ag48
ag48
ag48
ag48
ag48
ag48
ag48
ag48
asg49
(lp3000
g55
ag56
ag52
ag53
ag117
ag56
ag118
ag119
ag55
ag56
ag52
ag58
ag117
ag116
ag54
ag53
ag118
ag119
ag116
ag52
ag54
ag174
ag54
ag56
ag54
ag55
ag56
ag59
asg60
VThe tailor drove quietly to church, and the princess was married to him at once, and he lived with her as happy as a woodlark.
p3001
sba(i__main__
Sentence
p3002
(dp3003
g17
I55
sg18
(lp3004
S'Whosoever'
p3005
aS'does'
p3006
aS'not'
p3007
aS'believe'
p3008
aS'this'
p3009
aS','
p3010
aS'must'
p3011
aS'pay'
p3012
aS'a'
p3013
aS'taler'
p3014
aS'.'
p3015
asg33
(lp3016
VWhosoever
p3017
aVdo
p3018
aVnot
p3019
aVbelieve
p3020
aVthis
p3021
ag102
aVmust
p3022
aVpay
p3023
ag39
aVtaler
p3024
ag45
asg46
(lp3025
g48
ag48
ag48
ag48
ag48
ag48
ag48
ag48
ag48
ag48
ag48
asg49
(lp3026
g53
ag600
ag53
ag121
ag55
ag118
ag120
ag121
ag55
ag56
ag59
asg60
VWhosoever does not believe this, must pay a taler. 
p3027
sbasbsS'summary'
p3028
g0
(g7
g2
Ntp3029
Rp3030
(dp3031
g11
S"Three tailors set about to win the heart of a haughty princess. When they arrive, the youngest tailor is the only one able to guess the answer to the princess's riddle. After correctly guessing the riddle, the young tailor learns he must also survive the night with a bear. The tailor tricks the bear into thinking he will give the bear violin lessons. The tailor tells the bear his nail must be cut, and locks the bear's paws in a vice. The tailor and his bride ride to the church in a carriage. The other two tailors unlock the bear so he is free to run after the carriage and get his revenge on the tailor. The tailor stands on his hands so that his legs appear to be a vise and threatens to re-apprehend the bear. The bear runs away..."
p3032
sg13
(lp3033
(i__main__
Sentence
p3034
(dp3035
g17
I0
sg18
(lp3036
S'Three'
p3037
aS'tailors'
p3038
aS'set'
p3039
aS'about'
p3040
aS'to'
p3041
aS'win'
p3042
aS'the'
p3043
aS'heart'
p3044
aS'of'
p3045
aS'a'
p3046
aS'haughty'
p3047
aS'princess'
p3048
aS'.'
p3049
asg33
(lp3050
VThree
p3051
aVtailor
p3052
aVset
p3053
aVabout
p3054
aVto
p3055
aVwin
p3056
aVthe
p3057
aVheart
p3058
aVof
p3059
ag39
aVhaughty
p3060
aVprincess
p3061
ag45
asg46
(lp3062
g48
ag48
ag48
ag48
ag48
ag48
ag48
ag48
ag48
ag48
ag48
ag48
ag48
asg49
(lp3063
g321
ag322
ag52
ag54
ag117
ag121
ag55
ag56
ag54
ag55
ag56
ag56
ag59
asg60
VThree tailors set about to win the heart of a haughty princess.
p3064
sba(i__main__
Sentence
p3065
(dp3066
g17
I1
sg18
(lp3067
S'When'
p3068
aS'they'
p3069
aS'arrive'
p3070
aS','
p3071
aS'the'
p3072
aS'youngest'
p3073
aS'tailor'
p3074
aS'is'
p3075
aS'the'
p3076
aS'only'
p3077
aS'one'
p3078
aS'able'
p3079
aS'to'
p3080
aS'guess'
p3081
aS'the'
p3082
aS'answer'
p3083
aS'to'
p3084
aS'the'
p3085
aS'princess'
p3086
aS"'s"
p3087
aS'riddle'
p3088
aS'.'
p3089
asg33
(lp3090
VWhen
p3091
aVthey
p3092
aVarrive
p3093
ag102
aVthe
p3094
aVyoung
p3095
aVtailor
p3096
ag594
aVthe
p3097
aVonly
p3098
aVone
p3099
aVable
p3100
aVto
p3101
aVguess
p3102
aVthe
p3103
aVanswer
p3104
aVto
p3105
aVthe
p3106
aVprincess
p3107
aV's
p3108
aVriddle
p3109
ag45
asg46
(lp3110
g48
ag48
ag48
ag48
ag48
ag48
ag48
ag48
ag48
ag48
ag48
ag48
ag48
ag48
ag48
ag48
ag48
ag48
ag48
ag48
ag48
ag48
asg49
(lp3111
g325
ag116
ag376
ag118
ag55
ag324
ag56
ag600
ag55
ag323
ag321
ag323
ag117
ag56
ag55
ag56
ag117
ag55
ag56
ag754
ag56
ag59
asg60
VWhen they arrive, the youngest tailor is the only one able to guess the answer to the princess's riddle.
p3112
sba(i__main__
Sentence
p3113
(dp3114
g17
I2
sg18
(lp3115
S'After'
p3116
aS'correctly'
p3117
aS'guessing'
p3118
aS'the'
p3119
aS'riddle'
p3120
aS','
p3121
aS'the'
p3122
aS'young'
p3123
aS'tailor'
p3124
aS'learns'
p3125
aS'he'
p3126
aS'must'
p3127
aS'also'
p3128
aS'survive'
p3129
aS'the'
p3130
aS'night'
p3131
aS'with'
p3132
aS'a'
p3133
aS'bear'
p3134
aS'.'
p3135
asg33
(lp3136
VAfter
p3137
aVcorrectly
p3138
aVguess
p3139
aVthe
p3140
aVriddle
p3141
ag102
aVthe
p3142
aVyoung
p3143
aVtailor
p3144
aVlearns
p3145
aVhe
p3146
aVmust
p3147
aValso
p3148
aVsurvive
p3149
aVthe
p3150
aVnight
p3151
aVwith
p3152
ag39
aVbear
p3153
ag45
asg46
(lp3154
g48
ag48
ag48
ag48
ag48
ag48
ag48
ag48
ag48
ag48
ag48
ag48
ag48
ag48
ag48
ag48
ag48
ag48
ag48
ag48
asg49
(lp3155
g54
ag53
ag2499
ag55
ag56
ag118
ag55
ag323
ag56
ag322
ag116
ag120
ag53
ag121
ag55
ag56
ag54
ag55
ag323
ag59
asg60
VAfter correctly guessing the riddle, the young tailor learns he must also survive the night with a bear.
p3156
sba(i__main__
Sentence
p3157
(dp3158
g17
I3
sg18
(lp3159
S'The'
p3160
aS'tailor'
p3161
aS'tricks'
p3162
aS'the'
p3163
aS'bear'
p3164
aS'into'
p3165
aS'thinking'
p3166
aS'he'
p3167
aS'will'
p3168
aS'give'
p3169
aS'the'
p3170
aS'bear'
p3171
aS'violin'
p3172
aS'lessons'
p3173
aS'.'
p3174
asg33
(lp3175
VThe
p3176
aVtailor
p3177
aVtrick
p3178
aVthe
p3179
aVbear
p3180
aVinto
p3181
aVthink
p3182
aVhe
p3183
aVwill
p3184
aVgive
p3185
aVthe
p3186
aVbear
p3187
aVviolin
p3188
aVlesson
p3189
ag45
asg46
(lp3190
g48
ag48
ag48
ag48
ag48
ag48
ag48
ag48
ag48
ag48
ag48
ag48
ag48
ag48
ag48
asg49
(lp3191
g55
ag56
ag322
ag55
ag56
ag54
ag2499
ag116
ag120
ag121
ag55
ag323
ag56
ag322
ag59
asg60
VThe tailor tricks the bear into thinking he will give the bear violin lessons.
p3192
sba(i__main__
Sentence
p3193
(dp3194
g17
I4
sg18
(lp3195
S'The'
p3196
aS'tailor'
p3197
aS'tells'
p3198
aS'the'
p3199
aS'bear'
p3200
aS'his'
p3201
aS'nail'
p3202
aS'must'
p3203
aS'be'
p3204
aS'cut'
p3205
aS','
p3206
aS'and'
p3207
aS'locks'
p3208
aS'the'
p3209
aS'bear'
p3210
aS"'s"
p3211
aS'paws'
p3212
aS'in'
p3213
aS'a'
p3214
aS'vice'
p3215
aS'.'
p3216
asg33
(lp3217
VThe
p3218
aVtailor
p3219
aVtell
p3220
aVthe
p3221
aVbear
p3222
aVhis
p3223
aVnail
p3224
aVmust
p3225
aVbe
p3226
aVcut
p3227
ag102
aVand
p3228
aVlock
p3229
aVthe
p3230
aVbear
p3231
aV's
p3232
aVpaw
p3233
aVin
p3234
ag39
aVvice
p3235
ag45
asg46
(lp3236
g48
ag48
ag48
ag48
ag48
ag48
ag48
ag48
ag48
ag48
ag48
ag48
ag48
ag48
ag48
ag48
ag48
ag48
ag48
ag48
ag48
asg49
(lp3237
g55
ag56
ag600
ag55
ag56
ag174
ag56
ag120
ag121
ag58
ag118
ag119
ag322
ag55
ag56
ag754
ag322
ag54
ag55
ag56
ag59
asg60
VThe tailor tells the bear his nail must be cut, and locks the bear's paws in a vice.
p3238
sba(i__main__
Sentence
p3239
(dp3240
g17
I5
sg18
(lp3241
S'The'
p3242
aS'tailor'
p3243
aS'and'
p3244
aS'his'
p3245
aS'bride'
p3246
aS'ride'
p3247
aS'to'
p3248
aS'the'
p3249
aS'church'
p3250
aS'in'
p3251
aS'a'
p3252
aS'carriage'
p3253
aS'.'
p3254
asg33
(lp3255
VThe
p3256
aVtailor
p3257
aVand
p3258
aVhis
p3259
aVbride
p3260
aVride
p3261
aVto
p3262
aVthe
p3263
aVchurch
p3264
aVin
p3265
ag39
aVcarriage
p3266
ag45
asg46
(lp3267
g48
ag48
ag48
ag48
ag48
ag48
ag48
ag48
ag48
ag48
ag48
ag48
ag48
asg49
(lp3268
g55
ag56
ag119
ag174
ag56
ag56
ag117
ag55
ag56
ag54
ag55
ag56
ag59
asg60
VThe tailor and his bride ride to the church in a carriage.
p3269
sba(i__main__
Sentence
p3270
(dp3271
g17
I6
sg18
(lp3272
S'The'
p3273
aS'other'
p3274
aS'two'
p3275
aS'tailors'
p3276
aS'unlock'
p3277
aS'the'
p3278
aS'bear'
p3279
aS'so'
p3280
aS'he'
p3281
aS'is'
p3282
aS'free'
p3283
aS'to'
p3284
aS'run'
p3285
aS'after'
p3286
aS'the'
p3287
aS'carriage'
p3288
aS'and'
p3289
aS'get'
p3290
aS'his'
p3291
aS'revenge'
p3292
aS'on'
p3293
aS'the'
p3294
aS'tailor'
p3295
aS'.'
p3296
asg33
(lp3297
VThe
p3298
aVother
p3299
aVtwo
p3300
aVtailor
p3301
aVunlock
p3302
aVthe
p3303
aVbear
p3304
aVso
p3305
aVhe
p3306
ag594
aVfree
p3307
aVto
p3308
aVrun
p3309
aVafter
p3310
aVthe
p3311
aVcarriage
p3312
aVand
p3313
aVget
p3314
aVhis
p3315
aVrevenge
p3316
aVon
p3317
aVthe
p3318
aVtailor
p3319
ag45
asg46
(lp3320
g48
ag48
ag48
ag48
ag48
ag48
ag48
ag48
ag48
ag48
ag48
ag48
ag48
ag48
ag48
ag48
ag48
ag48
ag48
ag48
ag48
ag48
ag48
ag48
asg49
(lp3321
g55
ag323
ag321
ag322
ag56
ag55
ag56
ag53
ag116
ag600
ag323
ag117
ag121
ag54
ag55
ag56
ag119
ag121
ag174
ag56
ag54
ag55
ag56
ag59
asg60
VThe other two tailors unlock the bear so he is free to run after the carriage and get his revenge on the tailor.
p3322
sba(i__main__
Sentence
p3323
(dp3324
g17
I7
sg18
(lp3325
S'The'
p3326
aS'tailor'
p3327
aS'stands'
p3328
aS'on'
p3329
aS'his'
p3330
aS'hands'
p3331
aS'so'
p3332
aS'that'
p3333
aS'his'
p3334
aS'legs'
p3335
aS'appear'
p3336
aS'to'
p3337
aS'be'
p3338
aS'a'
p3339
aS'vise'
p3340
aS'and'
p3341
aS'threatens'
p3342
aS'to'
p3343
aS're-apprehend'
p3344
aS'the'
p3345
aS'bear'
p3346
aS'.'
p3347
asg33
(lp3348
VThe
p3349
aVtailor
p3350
aVstand
p3351
aVon
p3352
aVhis
p3353
aVhand
p3354
aVso
p3355
aVthat
p3356
aVhis
p3357
aVleg
p3358
aVappear
p3359
aVto
p3360
aVbe
p3361
ag39
aVvise
p3362
aVand
p3363
aVthreaten
p3364
aVto
p3365
aVre-apprehend
p3366
aVthe
p3367
aVbear
p3368
ag45
asg46
(lp3369
g48
ag48
ag48
ag48
ag48
ag48
ag48
ag48
ag48
ag48
ag48
ag48
ag48
ag48
ag48
ag48
ag48
ag48
ag48
ag48
ag48
ag48
asg49
(lp3370
g55
ag56
ag600
ag54
ag174
ag322
ag53
ag54
ag174
ag322
ag376
ag117
ag121
ag55
ag56
ag119
ag600
ag117
ag323
ag55
ag56
ag59
asg60
VThe tailor stands on his hands so that his legs appear to be a vise and threatens to re-apprehend the bear.
p3371
sba(i__main__
Sentence
p3372
(dp3373
g17
I8
sg18
(lp3374
S'The'
p3375
aS'bear'
p3376
aS'runs'
p3377
aS'away'
p3378
aS'...'
p3379
asg33
(lp3380
VThe
p3381
aVbear
p3382
aVrun
p3383
aVaway
p3384
aV...
p3385
asg46
(lp3386
g48
ag48
ag48
ag48
ag48
asg49
(lp3387
g55
ag56
ag600
ag53
aS':'
p3388
asg60
VThe bear runs away...
p3389
sbasbsS'name'
p3390
S'The Cunning Little Tailor'
p3391
sS'summaries'
p3392
(lp3393
g3030
asb.