ccopy_reg
_reconstructor
p0
(c__main__
Story
p1
c__builtin__
object
p2
Ntp3
Rp4
(dp5
S'text'
p6
g0
(c__main__
Document
p7
g2
Ntp8
Rp9
(dp10
S'_Document__initialContent'
p11
S'The other one, the one called Borges, is the one things happen to. I walk through the streets of Buenos Aires and stop for a moment, perhaps mechanically now, to look at the arch of an entrance hall and the grillwork on the gate; I know of Borges from the mail and see his name on a list of professors or in a biographical dictionary. I like hourglasses, maps, eighteenth-century typography, the taste of coffee and the prose of Stevenson; he shares these preferences, but in a vain way that turns them into the attributes of an actor. It would be an exaggeration to say that ours is a hostile relationship; I live, let myself go on living, so that Borges may contrive his literature, and this literature justifies me. It is no effort for me to confess that he has achieved some valid pages, but those pages cannot save me, perhaps because what is good belongs to no one, not even to him, but rather to the language and to tradition. Besides, I am destined to perish, definitively, and only some instant of myself can survive in him. Little by little, I am giving over everything to him, though I am quite aware of his perverse custom of falsifying and magnifying things.\n\n\n\nSpinoza knew that all things long to persist in their being; the stone eternally wants to be a stone and the tiger a tiger. I shall remain in Borges, not in myself (if it is true that I am someone), but I recognize myself less in his books than in many others or in the laborious strumming of a guitar. Years ago I tried to free myself from him and went from the mythologies of the suburbs to the games with time and infinity, but those games belong to Borges now and I shall have to imagine other things. Thus my life is a flight and I lose everything and everything belongs to oblivion, or to him.\n\n\n\nI do not know which of us has written this page.'
p12
sS'sentences'
p13
(lp14
(i__main__
Sentence
p15
(dp16
S'index'
p17
I0
sS'words'
p18
(lp19
S'The'
p20
aS'other'
p21
aS'one'
p22
aS','
p23
aS'the'
p24
aS'one'
p25
aS'called'
p26
aS'Borges'
p27
aS','
p28
aS'is'
p29
aS'the'
p30
aS'one'
p31
aS'things'
p32
aS'happen'
p33
aS'to'
p34
aS'.'
p35
asS'lemmas'
p36
(lp37
VThe
p38
aVother
p39
aVone
p40
aV,
p41
aVthe
p42
aVone
p43
aVcall
p44
aVBorges
p45
ag41
aVbe
p46
aVthe
p47
aVone
p48
aVthing
p49
aVhappen
p50
aVto
p51
aV.
p52
asS'nerTags'
p53
(lp54
VO
p55
ag55
ag55
ag55
ag55
ag55
ag55
aVPERSON
p56
ag55
ag55
ag55
ag55
ag55
ag55
ag55
ag55
asS'posTags'
p57
(lp58
S'DT'
p59
aS'JJ'
p60
aS'CD'
p61
aS','
p62
ag59
ag61
aS'VBN'
p63
aS'NNS'
p64
ag62
aS'VBZ'
p65
ag59
ag61
ag64
ag63
aS'TO'
p66
aS'.'
p67
asS'_Sentence__initialContent'
p68
VThe other one, the one called Borges, is the one things happen to.
p69
sba(i__main__
Sentence
p70
(dp71
g17
I1
sg18
(lp72
S'I'
p73
aS'walk'
p74
aS'through'
p75
aS'the'
p76
aS'streets'
p77
aS'of'
p78
aS'Buenos'
p79
aS'Aires'
p80
aS'and'
p81
aS'stop'
p82
aS'for'
p83
aS'a'
p84
aS'moment'
p85
aS','
p86
aS'perhaps'
p87
aS'mechanically'
p88
aS'now'
p89
aS','
p90
aS'to'
p91
aS'look'
p92
aS'at'
p93
aS'the'
p94
aS'arch'
p95
aS'of'
p96
aS'an'
p97
aS'entrance'
p98
aS'hall'
p99
aS'and'
p100
aS'the'
p101
aS'grillwork'
p102
aS'on'
p103
aS'the'
p104
aS'gate'
p105
aS';'
p106
aS'I'
p107
aS'know'
p108
aS'of'
p109
aS'Borges'
p110
aS'from'
p111
aS'the'
p112
aS'mail'
p113
aS'and'
p114
aS'see'
p115
aS'his'
p116
aS'name'
p117
aS'on'
p118
aS'a'
p119
aS'list'
p120
aS'of'
p121
aS'professors'
p122
aS'or'
p123
aS'in'
p124
aS'a'
p125
aS'biographical'
p126
aS'dictionary'
p127
aS'.'
p128
asg36
(lp129
VI
p130
aVwalk
p131
aVthrough
p132
aVthe
p133
aVstreet
p134
aVof
p135
aVBuenos
p136
aVAires
p137
aVand
p138
aVstop
p139
aVfor
p140
aVa
p141
aVmoment
p142
ag41
aVperhaps
p143
aVmechanically
p144
aVnow
p145
ag41
aVto
p146
aVlook
p147
aVat
p148
aVthe
p149
aVarch
p150
aVof
p151
aVan
p152
aVentrance
p153
aVhall
p154
aVand
p155
aVthe
p156
aVgrillwork
p157
aVon
p158
aVthe
p159
aVgate
p160
aV;
p161
ag130
aVknow
p162
aVof
p163
aVBorges
p164
aVfrom
p165
aVthe
p166
aVmail
p167
aVand
p168
aVsee
p169
aVhis
p170
aVname
p171
aVon
p172
ag141
aVlist
p173
aVof
p174
aVprofessor
p175
aVor
p176
aVin
p177
ag141
aVbiographical
p178
aVdictionary
p179
ag52
asg53
(lp180
g55
ag55
ag55
ag55
ag55
ag55
aVLOCATION
p181
aVLOCATION
p182
ag55
ag55
ag55
ag55
ag55
ag55
ag55
ag55
ag55
ag55
ag55
ag55
ag55
ag55
ag55
ag55
ag55
ag55
ag55
ag55
ag55
ag55
ag55
ag55
ag55
ag55
ag55
ag55
ag55
aVPERSON
p183
ag55
ag55
ag55
ag55
ag55
ag55
ag55
ag55
ag55
ag55
ag55
ag55
ag55
ag55
ag55
ag55
ag55
ag55
asg57
(lp184
S'PRP'
p185
aS'VBP'
p186
aS'IN'
p187
ag59
ag64
ag187
aS'NNP'
p188
ag188
aS'CC'
p189
aS'VB'
p190
ag187
ag59
aS'NN'
p191
ag62
aS'RB'
p192
ag192
ag192
ag62
ag66
ag190
ag187
ag59
ag191
ag187
ag59
ag191
ag191
ag189
ag59
ag191
ag187
ag59
ag191
aS':'
p193
ag185
ag186
ag187
ag64
ag187
ag59
ag191
ag189
ag190
aS'PRP$'
p194
ag191
ag187
ag59
ag191
ag187
ag64
ag189
ag187
ag59
ag60
ag191
ag67
asg68
VI walk through the streets of Buenos Aires and stop for a moment, perhaps mechanically now, to look at the arch of an entrance hall and the grillwork on the gate; I know of Borges from the mail and see his name on a list of professors or in a biographical dictionary.
p195
sba(i__main__
Sentence
p196
(dp197
g17
I2
sg18
(lp198
S'I'
p199
aS'like'
p200
aS'hourglasses'
p201
aS','
p202
aS'maps'
p203
aS','
p204
aS'eighteenth-century'
p205
aS'typography'
p206
aS','
p207
aS'the'
p208
aS'taste'
p209
aS'of'
p210
aS'coffee'
p211
aS'and'
p212
aS'the'
p213
aS'prose'
p214
aS'of'
p215
aS'Stevenson'
p216
aS';'
p217
aS'he'
p218
aS'shares'
p219
aS'these'
p220
aS'preferences'
p221
aS','
p222
aS'but'
p223
aS'in'
p224
aS'a'
p225
aS'vain'
p226
aS'way'
p227
aS'that'
p228
aS'turns'
p229
aS'them'
p230
aS'into'
p231
aS'the'
p232
aS'attributes'
p233
aS'of'
p234
aS'an'
p235
aS'actor'
p236
aS'.'
p237
asg36
(lp238
g130
aVlike
p239
aVhourglass
p240
ag41
aVmaps
p241
ag41
aVeighteenth-century
p242
aVtypography
p243
ag41
aVthe
p244
aVtaste
p245
aVof
p246
aVcoffee
p247
aVand
p248
aVthe
p249
aVprose
p250
aVof
p251
aVStevenson
p252
ag161
aVhe
p253
aVshare
p254
aVthese
p255
aVpreference
p256
ag41
aVbut
p257
aVin
p258
ag141
aVvain
p259
aVway
p260
aVthat
p261
aVturn
p262
aVthem
p263
aVinto
p264
aVthe
p265
aVattribute
p266
aVof
p267
aVan
p268
aVactor
p269
ag52
asg53
(lp270
g55
ag55
ag55
ag55
ag55
ag55
ag55
ag55
ag55
ag55
ag55
ag55
ag55
ag55
ag55
ag55
ag55
aVPERSON
p271
ag55
ag55
ag55
ag55
ag55
ag55
ag55
ag55
ag55
ag55
ag55
ag55
ag55
ag55
ag55
ag55
ag55
ag55
ag55
ag55
ag55
asg57
(lp272
g185
ag186
ag64
ag62
ag192
ag62
ag60
ag191
ag62
ag59
ag191
ag187
ag191
ag189
ag59
ag191
ag187
ag188
ag193
ag185
ag65
ag59
ag64
ag62
ag189
ag187
ag59
ag191
ag191
ag187
ag64
ag185
ag187
ag59
ag64
ag187
ag59
ag191
ag67
asg68
VI like hourglasses, maps, eighteenth-century typography, the taste of coffee and the prose of Stevenson; he shares these preferences, but in a vain way that turns them into the attributes of an actor.
p273
sba(i__main__
Sentence
p274
(dp275
g17
I3
sg18
(lp276
S'It'
p277
aS'would'
p278
aS'be'
p279
aS'an'
p280
aS'exaggeration'
p281
aS'to'
p282
aS'say'
p283
aS'that'
p284
aS'ours'
p285
aS'is'
p286
aS'a'
p287
aS'hostile'
p288
aS'relationship'
p289
aS';'
p290
aS'I'
p291
aS'live'
p292
aS','
p293
aS'let'
p294
aS'myself'
p295
aS'go'
p296
aS'on'
p297
aS'living'
p298
aS','
p299
aS'so'
p300
aS'that'
p301
aS'Borges'
p302
aS'may'
p303
aS'contrive'
p304
aS'his'
p305
aS'literature'
p306
aS','
p307
aS'and'
p308
aS'this'
p309
aS'literature'
p310
aS'justifies'
p311
aS'me'
p312
aS'.'
p313
asg36
(lp314
VIt
p315
aVwould
p316
aVbe
p317
aVan
p318
aVexaggeration
p319
aVto
p320
aVsay
p321
aVthat
p322
aVours
p323
ag46
ag141
aVhostile
p324
aVrelationship
p325
ag161
ag130
aVlive
p326
ag41
aVlet
p327
aVmyself
p328
aVgo
p329
aVon
p330
aVliving
p331
ag41
aVso
p332
aVthat
p333
aVBorges
p334
aVmay
p335
aVcontrive
p336
aVhis
p337
aVliterature
p338
ag41
aVand
p339
aVthis
p340
aVliterature
p341
aVjustifies
p342
aVme
p343
ag52
asg53
(lp344
g55
ag55
ag55
ag55
ag55
ag55
ag55
ag55
ag55
ag55
ag55
ag55
ag55
ag55
ag55
ag55
ag55
ag55
ag55
ag55
ag55
ag55
ag55
ag55
ag55
aVPERSON
p345
ag55
ag55
ag55
ag55
ag55
ag55
ag55
ag55
ag55
ag55
ag55
asg57
(lp346
g185
aS'MD'
p347
ag190
ag59
ag191
ag66
ag190
ag187
ag64
ag65
ag59
ag191
ag191
ag193
ag185
ag186
ag62
ag190
ag185
ag190
ag187
ag191
ag62
ag192
ag187
aS'NNPS'
p348
ag347
ag190
ag194
ag191
ag62
ag189
ag59
ag191
ag64
ag185
ag67
asg68
VIt would be an exaggeration to say that ours is a hostile relationship; I live, let myself go on living, so that Borges may contrive his literature, and this literature justifies me.
p349
sba(i__main__
Sentence
p350
(dp351
g17
I4
sg18
(lp352
S'It'
p353
aS'is'
p354
aS'no'
p355
aS'effort'
p356
aS'for'
p357
aS'me'
p358
aS'to'
p359
aS'confess'
p360
aS'that'
p361
aS'he'
p362
aS'has'
p363
aS'achieved'
p364
aS'some'
p365
aS'valid'
p366
aS'pages'
p367
aS','
p368
aS'but'
p369
aS'those'
p370
aS'pages'
p371
aS'can'
p372
aS'not'
p373
aS'save'
p374
aS'me'
p375
aS','
p376
aS'perhaps'
p377
aS'because'
p378
aS'what'
p379
aS'is'
p380
aS'good'
p381
aS'belongs'
p382
aS'to'
p383
aS'no'
p384
aS'one'
p385
aS','
p386
aS'not'
p387
aS'even'
p388
aS'to'
p389
aS'him'
p390
aS','
p391
aS'but'
p392
aS'rather'
p393
aS'to'
p394
aS'the'
p395
aS'language'
p396
aS'and'
p397
aS'to'
p398
aS'tradition'
p399
aS'.'
p400
asg36
(lp401
VIt
p402
ag46
aVno
p403
aVeffort
p404
aVfor
p405
aVme
p406
aVto
p407
aVconfess
p408
aVthat
p409
aVhe
p410
aVhave
p411
aVachieve
p412
aVsome
p413
aVvalid
p414
aVpage
p415
ag41
aVbut
p416
aVthose
p417
aVpage
p418
aVcan
p419
aVnot
p420
aVsave
p421
aVme
p422
ag41
aVperhaps
p423
aVbecause
p424
aVwhat
p425
ag46
aVgood
p426
aVbelongs
p427
aVto
p428
aVno
p429
aVone
p430
ag41
aVnot
p431
aVeven
p432
aVto
p433
aVhim
p434
ag41
aVbut
p435
aVrather
p436
aVto
p437
aVthe
p438
aVlanguage
p439
aVand
p440
aVto
p441
aVtradition
p442
ag52
asg53
(lp443
g55
ag55
ag55
ag55
ag55
ag55
ag55
ag55
ag55
ag55
ag55
ag55
ag55
ag55
ag55
ag55
ag55
ag55
ag55
ag55
ag55
ag55
ag55
ag55
ag55
ag55
ag55
ag55
ag55
ag55
ag55
ag55
ag55
ag55
ag55
ag55
ag55
ag55
ag55
ag55
ag55
ag55
ag55
ag55
ag55
ag55
ag55
ag55
asg57
(lp444
g185
ag65
ag59
ag191
ag187
ag185
ag66
ag190
ag187
ag185
ag65
ag63
ag59
ag60
ag64
ag62
ag189
ag59
ag64
ag347
ag192
ag190
ag185
ag62
ag192
ag187
aS'WP'
p445
ag65
ag60
ag64
ag66
ag59
ag191
ag62
ag192
ag192
ag66
ag185
ag62
ag189
ag192
ag66
ag59
ag191
ag189
ag66
ag191
ag67
asg68
VIt is no effort for me to confess that he has achieved some valid pages, but those pages cannot save me, perhaps because what is good belongs to no one, not even to him, but rather to the language and to tradition.
p446
sba(i__main__
Sentence
p447
(dp448
g17
I5
sg18
(lp449
S'Besides'
p450
aS','
p451
aS'I'
p452
aS'am'
p453
aS'destined'
p454
aS'to'
p455
aS'perish'
p456
aS','
p457
aS'definitively'
p458
aS','
p459
aS'and'
p460
aS'only'
p461
aS'some'
p462
aS'instant'
p463
aS'of'
p464
aS'myself'
p465
aS'can'
p466
aS'survive'
p467
aS'in'
p468
aS'him'
p469
aS'.'
p470
asg36
(lp471
VBesides
p472
ag41
ag130
aVbe
p473
aVdestine
p474
aVto
p475
aVperish
p476
ag41
aVdefinitively
p477
ag41
aVand
p478
aVonly
p479
aVsome
p480
aVinstant
p481
aVof
p482
aVmyself
p483
aVcan
p484
aVsurvive
p485
aVin
p486
aVhim
p487
ag52
asg53
(lp488
g55
ag55
ag55
ag55
ag55
ag55
ag55
ag55
ag55
ag55
ag55
ag55
ag55
ag55
ag55
ag55
ag55
ag55
ag55
ag55
ag55
asg57
(lp489
g187
ag62
ag185
ag186
ag63
ag66
ag190
ag62
ag192
ag62
ag189
ag192
ag59
ag60
ag187
ag185
ag347
ag190
ag187
ag185
ag67
asg68
VBesides, I am destined to perish, definitively, and only some instant of myself can survive in him.
p490
sba(i__main__
Sentence
p491
(dp492
g17
I6
sg18
(lp493
S'Little'
p494
aS'by'
p495
aS'little'
p496
aS','
p497
aS'I'
p498
aS'am'
p499
aS'giving'
p500
aS'over'
p501
aS'everything'
p502
aS'to'
p503
aS'him'
p504
aS','
p505
aS'though'
p506
aS'I'
p507
aS'am'
p508
aS'quite'
p509
aS'aware'
p510
aS'of'
p511
aS'his'
p512
aS'perverse'
p513
aS'custom'
p514
aS'of'
p515
aS'falsifying'
p516
aS'and'
p517
aS'magnifying'
p518
aS'things'
p519
aS'.'
p520
asg36
(lp521
VLittle
p522
aVby
p523
aVlittle
p524
ag41
ag130
ag473
aVgive
p525
aVover
p526
aVeverything
p527
aVto
p528
aVhim
p529
ag41
aVthough
p530
ag130
ag473
aVquite
p531
aVaware
p532
aVof
p533
aVhis
p534
aVperverse
p535
aVcustom
p536
aVof
p537
aVfalsify
p538
aVand
p539
aVmagnify
p540
aVthing
p541
ag52
asg53
(lp542
g55
ag55
ag55
ag55
ag55
ag55
ag55
ag55
ag55
ag55
ag55
ag55
ag55
ag55
ag55
ag55
ag55
ag55
ag55
ag55
ag55
ag55
ag55
ag55
ag55
ag55
ag55
asg57
(lp543
g192
ag187
ag192
ag62
ag185
ag186
aS'VBG'
p544
ag187
ag191
ag66
ag185
ag62
ag187
ag185
ag186
ag192
ag60
ag187
ag194
ag191
ag191
ag187
ag544
ag189
ag544
ag64
ag67
asg68
VLittle by little, I am giving over everything to him, though I am quite aware of his perverse custom of falsifying and magnifying things.
p545
sba(i__main__
Sentence
p546
(dp547
g17
I7
sg18
(lp548
S'Spinoza'
p549
aS'knew'
p550
aS'that'
p551
aS'all'
p552
aS'things'
p553
aS'long'
p554
aS'to'
p555
aS'persist'
p556
aS'in'
p557
aS'their'
p558
aS'being'
p559
aS';'
p560
aS'the'
p561
aS'stone'
p562
aS'eternally'
p563
aS'wants'
p564
aS'to'
p565
aS'be'
p566
aS'a'
p567
aS'stone'
p568
aS'and'
p569
aS'the'
p570
aS'tiger'
p571
aS'a'
p572
aS'tiger'
p573
aS'.'
p574
asg36
(lp575
VSpinoza
p576
aVknow
p577
aVthat
p578
aVall
p579
aVthing
p580
aVlong
p581
aVto
p582
aVpersist
p583
aVin
p584
aVtheir
p585
aVbeing
p586
ag161
aVthe
p587
aVstone
p588
aVeternally
p589
aVwant
p590
aVto
p591
aVbe
p592
ag141
aVstone
p593
aVand
p594
aVthe
p595
aVtiger
p596
ag141
aVtiger
p597
ag52
asg53
(lp598
VPERSON
p599
ag55
ag55
ag55
ag55
ag55
ag55
ag55
ag55
ag55
ag55
ag55
ag55
ag55
ag55
ag55
ag55
ag55
ag55
ag55
ag55
ag55
ag55
ag55
ag55
ag55
asg57
(lp600
g188
aS'VBD'
p601
ag187
ag59
ag64
ag192
ag66
ag190
ag187
ag194
ag191
ag193
ag59
ag191
ag192
ag65
ag66
ag190
ag59
ag191
ag189
ag59
ag191
ag59
ag191
ag67
asg68
VSpinoza knew that all things long to persist in their being; the stone eternally wants to be a stone and the tiger a tiger.
p602
sba(i__main__
Sentence
p603
(dp604
g17
I8
sg18
(lp605
S'I'
p606
aS'shall'
p607
aS'remain'
p608
aS'in'
p609
aS'Borges'
p610
aS','
p611
aS'not'
p612
aS'in'
p613
aS'myself'
p614
aS'('
p615
aS'if'
p616
aS'it'
p617
aS'is'
p618
aS'true'
p619
aS'that'
p620
aS'I'
p621
aS'am'
p622
aS'someone'
p623
aS')'
p624
aS','
p625
aS'but'
p626
aS'I'
p627
aS'recognize'
p628
aS'myself'
p629
aS'less'
p630
aS'in'
p631
aS'his'
p632
aS'books'
p633
aS'than'
p634
aS'in'
p635
aS'many'
p636
aS'others'
p637
aS'or'
p638
aS'in'
p639
aS'the'
p640
aS'laborious'
p641
aS'strumming'
p642
aS'of'
p643
aS'a'
p644
aS'guitar'
p645
aS'.'
p646
asg36
(lp647
g130
aVshall
p648
aVremain
p649
aVin
p650
aVBorges
p651
ag41
aVnot
p652
aVin
p653
aVmyself
p654
aV(
p655
aVif
p656
aVit
p657
ag46
aVtrue
p658
aVthat
p659
ag130
ag473
aVsomeone
p660
aV)
p661
ag41
aVbut
p662
ag130
aVrecognize
p663
aVmyself
p664
aVless
p665
aVin
p666
aVhis
p667
aVbook
p668
aVthan
p669
aVin
p670
aVmany
p671
aVothers
p672
aVor
p673
aVin
p674
aVthe
p675
aVlaborious
p676
aVstrumming
p677
aVof
p678
ag141
aVguitar
p679
ag52
asg53
(lp680
g55
ag55
ag55
ag55
aVPERSON
p681
ag55
ag55
ag55
ag55
ag55
ag55
ag55
ag55
ag55
ag55
ag55
ag55
ag55
ag55
ag55
ag55
ag55
ag55
ag55
ag55
ag55
ag55
ag55
ag55
ag55
ag55
ag55
ag55
ag55
ag55
ag55
ag55
ag55
ag55
ag55
ag55
asg57
(lp682
g185
ag186
ag192
ag187
ag188
ag62
ag192
ag187
ag185
ag193
ag187
ag185
ag65
ag60
ag187
ag185
ag186
ag191
ag193
ag62
ag189
ag185
ag186
ag185
aS'JJR'
p683
ag187
ag194
ag64
ag187
ag187
ag60
ag64
ag189
ag187
ag59
ag60
ag191
ag187
ag59
ag191
ag67
asg68
VI shall remain in Borges, not in myself (if it is true that I am someone), but I recognize myself less in his books than in many others or in the laborious strumming of a guitar.
p684
sba(i__main__
Sentence
p685
(dp686
g17
I9
sg18
(lp687
S'Years'
p688
aS'ago'
p689
aS'I'
p690
aS'tried'
p691
aS'to'
p692
aS'free'
p693
aS'myself'
p694
aS'from'
p695
aS'him'
p696
aS'and'
p697
aS'went'
p698
aS'from'
p699
aS'the'
p700
aS'mythologies'
p701
aS'of'
p702
aS'the'
p703
aS'suburbs'
p704
aS'to'
p705
aS'the'
p706
aS'games'
p707
aS'with'
p708
aS'time'
p709
aS'and'
p710
aS'infinity'
p711
aS','
p712
aS'but'
p713
aS'those'
p714
aS'games'
p715
aS'belong'
p716
aS'to'
p717
aS'Borges'
p718
aS'now'
p719
aS'and'
p720
aS'I'
p721
aS'shall'
p722
aS'have'
p723
aS'to'
p724
aS'imagine'
p725
aS'other'
p726
aS'things'
p727
aS'.'
p728
asg36
(lp729
VYears
p730
aVago
p731
ag130
aVtry
p732
aVto
p733
aVfree
p734
aVmyself
p735
aVfrom
p736
aVhim
p737
aVand
p738
aVgo
p739
aVfrom
p740
aVthe
p741
aVmythology
p742
aVof
p743
aVthe
p744
aVsuburb
p745
aVto
p746
aVthe
p747
aVgame
p748
aVwith
p749
aVtime
p750
aVand
p751
aVinfinity
p752
ag41
aVbut
p753
aVthose
p754
aVgame
p755
aVbelong
p756
aVto
p757
aVBorges
p758
aVnow
p759
aVand
p760
ag130
aVshall
p761
aVhave
p762
aVto
p763
aVimagine
p764
aVother
p765
aVthing
p766
ag52
asg53
(lp767
g55
ag55
ag55
ag55
ag55
ag55
ag55
ag55
ag55
ag55
ag55
ag55
ag55
ag55
ag55
ag55
ag55
ag55
ag55
ag55
ag55
ag55
ag55
ag55
ag55
ag55
ag55
ag55
ag55
ag55
aVPERSON
p768
ag55
ag55
ag55
ag55
ag55
ag55
ag55
ag55
ag55
ag55
asg57
(lp769
g64
ag187
ag185
ag601
ag66
ag60
ag191
ag187
ag185
ag189
ag601
ag187
ag59
ag64
ag187
ag59
ag64
ag66
ag59
ag64
ag187
ag191
ag189
ag191
ag62
ag189
ag59
ag64
ag186
ag66
ag188
ag192
ag189
ag185
ag347
ag190
ag66
ag190
ag60
ag64
ag67
asg68
VYears ago I tried to free myself from him and went from the mythologies of the suburbs to the games with time and infinity, but those games belong to Borges now and I shall have to imagine other things.
p770
sba(i__main__
Sentence
p771
(dp772
g17
I10
sg18
(lp773
S'Thus'
p774
aS'my'
p775
aS'life'
p776
aS'is'
p777
aS'a'
p778
aS'flight'
p779
aS'and'
p780
aS'I'
p781
aS'lose'
p782
aS'everything'
p783
aS'and'
p784
aS'everything'
p785
aS'belongs'
p786
aS'to'
p787
aS'oblivion'
p788
aS','
p789
aS'or'
p790
aS'to'
p791
aS'him'
p792
aS'.'
p793
asg36
(lp794
VThus
p795
aVmy
p796
aVlife
p797
ag46
ag141
aVflight
p798
aVand
p799
ag130
aVlose
p800
aVeverything
p801
aVand
p802
aVeverything
p803
aVbelongs
p804
aVto
p805
aVoblivion
p806
ag41
aVor
p807
aVto
p808
aVhim
p809
ag52
asg53
(lp810
g55
ag55
ag55
ag55
ag55
ag55
ag55
ag55
ag55
ag55
ag55
ag55
ag55
ag55
ag55
ag55
ag55
ag55
ag55
ag55
asg57
(lp811
g192
ag194
ag191
ag65
ag59
ag191
ag189
ag185
ag186
ag544
ag189
ag191
ag64
ag66
ag191
ag62
ag189
ag66
ag185
ag67
asg68
VThus my life is a flight and I lose everything and everything belongs to oblivion, or to him.
p812
sba(i__main__
Sentence
p813
(dp814
g17
I11
sg18
(lp815
S'I'
p816
aS'do'
p817
aS'not'
p818
aS'know'
p819
aS'which'
p820
aS'of'
p821
aS'us'
p822
aS'has'
p823
aS'written'
p824
aS'this'
p825
aS'page'
p826
aS'.'
p827
asg36
(lp828
g130
aVdo
p829
aVnot
p830
aVknow
p831
aVwhich
p832
aVof
p833
aVu
p834
ag411
aVwrite
p835
aVthis
p836
aVpage
p837
ag52
asg53
(lp838
g55
ag55
ag55
ag55
ag55
ag55
ag55
ag55
ag55
ag55
ag55
ag55
asg57
(lp839
g185
ag186
ag192
ag190
aS'WDT'
p840
ag187
ag185
ag65
ag63
ag59
ag191
ag67
asg68
VI do not know which of us has written this page.
p841
sbasbsS'summary'
p842
g0
(g7
g2
Ntp843
Rp844
(dp845
g11
S'There is a short story in this though it can be hard to fully explain.  The story is a lament by the first-person narrator about how he and Borges are bound together.  They are different but still inextricably tied together; so much so, that while the narrator tries to state who he is and who Borges is, he wonders if in fact it is even he who is writing the work being read.  '
p846
sg13
(lp847
(i__main__
Sentence
p848
(dp849
g17
I0
sg18
(lp850
S'There'
p851
aS'is'
p852
aS'a'
p853
aS'short'
p854
aS'story'
p855
aS'in'
p856
aS'this'
p857
aS'though'
p858
aS'it'
p859
aS'can'
p860
aS'be'
p861
aS'hard'
p862
aS'to'
p863
aS'fully'
p864
aS'explain'
p865
aS'.'
p866
asg36
(lp867
VThere
p868
ag46
ag141
aVshort
p869
aVstory
p870
aVin
p871
aVthis
p872
aVthough
p873
aVit
p874
aVcan
p875
aVbe
p876
aVhard
p877
aVto
p878
aVfully
p879
aVexplain
p880
ag52
asg53
(lp881
g55
ag55
ag55
ag55
ag55
ag55
ag55
ag55
ag55
ag55
ag55
ag55
ag55
ag55
ag55
ag55
asg57
(lp882
S'EX'
p883
ag65
ag59
ag60
ag191
ag187
ag59
ag187
ag185
ag347
ag190
ag192
ag66
ag192
ag190
ag67
asg68
VThere is a short story in this though it can be hard to fully explain.
p884
sba(i__main__
Sentence
p885
(dp886
g17
I1
sg18
(lp887
S'The'
p888
aS'story'
p889
aS'is'
p890
aS'a'
p891
aS'lament'
p892
aS'by'
p893
aS'the'
p894
aS'first-person'
p895
aS'narrator'
p896
aS'about'
p897
aS'how'
p898
aS'he'
p899
aS'and'
p900
aS'Borges'
p901
aS'are'
p902
aS'bound'
p903
aS'together'
p904
aS'.'
p905
asg36
(lp906
VThe
p907
aVstory
p908
ag46
ag141
aVlament
p909
aVby
p910
aVthe
p911
aVfirst-person
p912
aVnarrator
p913
aVabout
p914
aVhow
p915
aVhe
p916
aVand
p917
aVBorges
p918
aVbe
p919
aVbind
p920
aVtogether
p921
ag52
asg53
(lp922
g55
ag55
ag55
ag55
ag55
ag55
ag55
ag55
ag55
ag55
ag55
ag55
ag55
aVPERSON
p923
ag55
ag55
ag55
ag55
asg57
(lp924
g59
ag191
ag65
ag59
ag191
ag187
ag59
ag188
ag191
ag187
aS'WRB'
p925
ag185
ag189
ag188
ag186
ag63
ag192
ag67
asg68
VThe story is a lament by the first-person narrator about how he and Borges are bound together.
p926
sba(i__main__
Sentence
p927
(dp928
g17
I2
sg18
(lp929
S'They'
p930
aS'are'
p931
aS'different'
p932
aS'but'
p933
aS'still'
p934
aS'inextricably'
p935
aS'tied'
p936
aS'together'
p937
aS';'
p938
aS'so'
p939
aS'much'
p940
aS'so'
p941
aS','
p942
aS'that'
p943
aS'while'
p944
aS'the'
p945
aS'narrator'
p946
aS'tries'
p947
aS'to'
p948
aS'state'
p949
aS'who'
p950
aS'he'
p951
aS'is'
p952
aS'and'
p953
aS'who'
p954
aS'Borges'
p955
aS'is'
p956
aS','
p957
aS'he'
p958
aS'wonders'
p959
aS'if'
p960
aS'in'
p961
aS'fact'
p962
aS'it'
p963
aS'is'
p964
aS'even'
p965
aS'he'
p966
aS'who'
p967
aS'is'
p968
aS'writing'
p969
aS'the'
p970
aS'work'
p971
aS'being'
p972
aS'read'
p973
aS'.'
p974
asg36
(lp975
VThey
p976
ag919
aVdifferent
p977
aVbut
p978
aVstill
p979
aVinextricably
p980
aVtie
p981
aVtogether
p982
ag161
aVso
p983
aVmuch
p984
aVso
p985
ag41
aVthat
p986
aVwhile
p987
aVthe
p988
aVnarrator
p989
aVtry
p990
aVto
p991
aVstate
p992
aVwho
p993
aVhe
p994
ag46
aVand
p995
aVwho
p996
aVBorges
p997
ag46
ag41
aVhe
p998
aVwonder
p999
aVif
p1000
aVin
p1001
aVfact
p1002
aVit
p1003
ag46
aVeven
p1004
aVhe
p1005
aVwho
p1006
ag46
aVwrite
p1007
aVthe
p1008
aVwork
p1009
aVbe
p1010
aVread
p1011
ag52
asg53
(lp1012
g55
ag55
ag55
ag55
ag55
ag55
ag55
ag55
ag55
ag55
ag55
ag55
ag55
ag55
ag55
ag55
ag55
ag55
ag55
ag55
ag55
ag55
ag55
ag55
ag55
aVPERSON
p1013
ag55
ag55
ag55
ag55
ag55
ag55
ag55
ag55
ag55
ag55
ag55
ag55
ag55
ag55
ag55
ag55
ag55
ag55
ag55
asg57
(lp1014
g185
ag186
ag60
ag189
ag192
ag192
ag63
aS'RP'
p1015
ag193
ag192
ag192
ag187
ag62
ag187
ag187
ag59
ag191
ag64
ag66
ag190
ag445
ag185
ag65
ag189
ag445
ag348
ag65
ag62
ag185
ag65
ag187
ag187
ag191
ag185
ag65
ag192
ag185
ag445
ag65
ag544
ag59
ag191
ag544
ag191
ag67
asg68
VThey are different but still inextricably tied together; so much so, that while the narrator tries to state who he is and who Borges is, he wonders if in fact it is even he who is writing the work being read.  
p1016
sbasbsS'name'
p1017
S'Borges and I'
p1018
sS'summaries'
p1019
(lp1020
g844
asb.