ccopy_reg
_reconstructor
p0
(c__main__
Story
p1
c__builtin__
object
p2
Ntp3
Rp4
(dp5
S'text'
p6
g0
(c__main__
Document
p7
g2
Ntp8
Rp9
(dp10
S'_Document__initialContent'
p11
S'There was once upon a time a little girl whose father and mother\nwere dead, and she was so poor that she no longer had a room to\nlive in, or bed to sleep in, and at last she had nothing else but\nthe clothes she was wearing and a little bit of bread in her\nhand which some charitable soul had given her.  She was good and\npious, however.  And as she was thus forsaken by all the world,\nshe went forth into the open country, trusting in the good God.\nThen a poor man met her, who said, ah, give me something to eat,\nI am so hungry.  She handed him the whole of her piece of bread,\nand said, may God bless you, and went onwards.  Then came a child\nwho moaned and said, my head is so cold, give me something to\ncover it with.  So she took off her hood and gave it to him.  And\nwhen she had walked a little farther, she met another child who\nhad no jacket and was frozen with cold.  Then she gave it her\nown, and a little farther on one begged for a frock,\nand she gave away that also.  At length she got into a forest\nand it had already become dark, and there came yet another child,\nand asked for a shirt, and the good little girl thought\nto herself, it is a dark night and no one sees you, you can very\nwell give your shirt away, and took it off, and gave away that\nalso.  And as she so stood, and had not one single thing left,\nsuddenly some stars from heaven fell down, and they were nothing\nelse but hard smooth pieces of money, and although she had just\ngiven her shirt away, she had a new one which was of the very\nfinest linen.  Then she put the money into it, and was rich all\nthe days of her life.\n'
p12
sS'sentences'
p13
(lp14
(i__main__
Sentence
p15
(dp16
S'index'
p17
I0
sS'words'
p18
(lp19
S'There'
p20
aS'was'
p21
aS'once'
p22
aS'upon'
p23
aS'a'
p24
aS'time'
p25
aS'a'
p26
aS'little'
p27
aS'girl'
p28
aS'whose'
p29
aS'father'
p30
aS'and'
p31
aS'mother'
p32
aS'were'
p33
aS'dead'
p34
aS','
p35
aS'and'
p36
aS'she'
p37
aS'was'
p38
aS'so'
p39
aS'poor'
p40
aS'that'
p41
aS'she'
p42
aS'no'
p43
aS'longer'
p44
aS'had'
p45
aS'a'
p46
aS'room'
p47
aS'to'
p48
aS'live'
p49
aS'in'
p50
aS','
p51
aS'or'
p52
aS'bed'
p53
aS'to'
p54
aS'sleep'
p55
aS'in'
p56
aS','
p57
aS'and'
p58
aS'at'
p59
aS'last'
p60
aS'she'
p61
aS'had'
p62
aS'nothing'
p63
aS'else'
p64
aS'but'
p65
aS'the'
p66
aS'clothes'
p67
aS'she'
p68
aS'was'
p69
aS'wearing'
p70
aS'and'
p71
aS'a'
p72
aS'little'
p73
aS'bit'
p74
aS'of'
p75
aS'bread'
p76
aS'in'
p77
aS'her'
p78
aS'hand'
p79
aS'which'
p80
aS'some'
p81
aS'charitable'
p82
aS'soul'
p83
aS'had'
p84
aS'given'
p85
aS'her'
p86
aS'.'
p87
asS'lemmas'
p88
(lp89
VThere
p90
aVbe
p91
aVonce
p92
aVupon
p93
aVa
p94
aVtime
p95
ag94
aVlittle
p96
aVgirl
p97
aVwhose
p98
aVfather
p99
aVand
p100
aVmother
p101
aVbe
p102
aVdead
p103
aV,
p104
aVand
p105
aVshe
p106
ag91
aVso
p107
aVpoor
p108
aVthat
p109
aVshe
p110
aVno
p111
aVlonger
p112
aVhave
p113
ag94
aVroom
p114
aVto
p115
aVlive
p116
aVin
p117
ag104
aVor
p118
aVbed
p119
aVto
p120
aVsleep
p121
aVin
p122
ag104
aVand
p123
aVat
p124
aVlast
p125
aVshe
p126
ag113
aVnothing
p127
aVelse
p128
aVbut
p129
aVthe
p130
aVclothes
p131
aVshe
p132
ag91
aVwear
p133
aVand
p134
ag94
aVlittle
p135
aVbit
p136
aVof
p137
aVbread
p138
aVin
p139
aVher
p140
aVhand
p141
aVwhich
p142
aVsome
p143
aVcharitable
p144
aVsoul
p145
ag113
aVgive
p146
aVher
p147
aV.
p148
asS'nerTags'
p149
(lp150
VO
p151
ag151
ag151
ag151
ag151
ag151
ag151
ag151
ag151
ag151
ag151
ag151
ag151
ag151
ag151
ag151
ag151
ag151
ag151
ag151
ag151
ag151
ag151
ag151
ag151
ag151
ag151
ag151
ag151
ag151
ag151
ag151
ag151
ag151
ag151
ag151
ag151
ag151
ag151
ag151
ag151
ag151
ag151
ag151
ag151
ag151
ag151
ag151
ag151
ag151
ag151
ag151
ag151
ag151
ag151
ag151
ag151
ag151
ag151
ag151
ag151
ag151
ag151
ag151
ag151
ag151
ag151
ag151
asS'posTags'
p152
(lp153
S'EX'
p154
aS'VBD'
p155
aS'RB'
p156
aS'IN'
p157
aS'DT'
p158
aS'NN'
p159
ag158
ag156
ag159
aS'WP$'
p160
ag159
aS'CC'
p161
ag159
ag155
aS'JJ'
p162
aS','
p163
ag161
aS'PRP'
p164
ag155
ag156
ag162
ag157
ag164
ag158
ag159
ag155
ag158
ag159
aS'TO'
p165
aS'VB'
p166
ag157
ag163
ag161
aS'VBN'
p167
ag165
ag166
ag157
ag163
ag161
ag157
ag162
ag164
ag155
ag159
ag156
ag161
ag158
aS'NNS'
p168
ag164
ag155
aS'VBG'
p169
ag161
ag158
ag156
ag159
ag157
ag159
ag157
aS'PRP$'
p170
ag159
aS'WDT'
p171
ag158
ag162
ag159
ag155
ag167
ag170
aS'.'
p172
asS'_Sentence__initialContent'
p173
VThere was once upon a time a little girl whose father and mother were dead, and she was so poor that she no longer had a room to live in, or bed to sleep in, and at last she had nothing else but the clothes she was wearing and a little bit of bread in her hand which some charitable soul had given her.
p174
sba(i__main__
Sentence
p175
(dp176
g17
I1
sg18
(lp177
S'She'
p178
aS'was'
p179
aS'good'
p180
aS'and'
p181
aS'pious'
p182
aS','
p183
aS'however'
p184
aS'.'
p185
asg88
(lp186
VShe
p187
ag91
aVgood
p188
aVand
p189
aVpious
p190
ag104
aVhowever
p191
ag148
asg149
(lp192
g151
ag151
ag151
ag151
ag151
ag151
ag151
ag151
asg152
(lp193
g164
ag155
ag162
ag161
ag162
ag163
ag156
ag172
asg173
VShe was good and pious, however.
p194
sba(i__main__
Sentence
p195
(dp196
g17
I2
sg18
(lp197
S'And'
p198
aS'as'
p199
aS'she'
p200
aS'was'
p201
aS'thus'
p202
aS'forsaken'
p203
aS'by'
p204
aS'all'
p205
aS'the'
p206
aS'world'
p207
aS','
p208
aS'she'
p209
aS'went'
p210
aS'forth'
p211
aS'into'
p212
aS'the'
p213
aS'open'
p214
aS'country'
p215
aS','
p216
aS'trusting'
p217
aS'in'
p218
aS'the'
p219
aS'good'
p220
aS'God'
p221
aS'.'
p222
asg88
(lp223
VAnd
p224
ag94
aVshe
p225
ag91
aVthus
p226
aVforsake
p227
aVby
p228
aVall
p229
aVthe
p230
aVworld
p231
ag104
aVshe
p232
aVgo
p233
aVforth
p234
aVinto
p235
aVthe
p236
aVopen
p237
aVcountry
p238
ag104
aVtrust
p239
aVin
p240
aVthe
p241
aVgood
p242
aVGod
p243
ag148
asg149
(lp244
g151
ag151
ag151
ag151
ag151
ag151
ag151
ag151
ag151
ag151
ag151
ag151
ag151
ag151
ag151
ag151
ag151
ag151
ag151
ag151
ag151
ag151
ag151
ag151
ag151
asg152
(lp245
g161
ag157
ag164
ag155
ag156
ag167
ag157
ag158
ag158
ag159
ag163
ag164
ag155
ag162
ag157
ag158
ag162
ag159
ag163
ag169
ag157
ag158
ag159
aS'NNP'
p246
ag172
asg173
VAnd as she was thus forsaken by all the world, she went forth into the open country, trusting in the good God.
p247
sba(i__main__
Sentence
p248
(dp249
g17
I3
sg18
(lp250
S'Then'
p251
aS'a'
p252
aS'poor'
p253
aS'man'
p254
aS'met'
p255
aS'her'
p256
aS','
p257
aS'who'
p258
aS'said'
p259
aS','
p260
aS'ah'
p261
aS','
p262
aS'give'
p263
aS'me'
p264
aS'something'
p265
aS'to'
p266
aS'eat'
p267
aS','
p268
aS'I'
p269
aS'am'
p270
aS'so'
p271
aS'hungry'
p272
aS'.'
p273
asg88
(lp274
VThen
p275
ag94
aVpoor
p276
aVman
p277
aVmet
p278
aVher
p279
ag104
aVwho
p280
aVsay
p281
ag104
aVah
p282
ag104
aVgive
p283
aVme
p284
aVsomething
p285
aVto
p286
aVeat
p287
ag104
aVI
p288
aVbe
p289
aVso
p290
aVhungry
p291
ag148
asg149
(lp292
g151
ag151
ag151
ag151
ag151
ag151
ag151
ag151
ag151
ag151
ag151
ag151
ag151
ag151
ag151
ag151
ag151
ag151
ag151
ag151
ag151
ag151
ag151
asg152
(lp293
g156
ag158
ag159
ag159
ag159
ag170
ag163
aS'WP'
p294
ag155
ag163
ag159
ag163
ag162
ag164
ag159
ag165
ag166
ag163
ag164
aS'VBP'
p295
ag156
ag162
ag172
asg173
VThen a poor man met her, who said, ah, give me something to eat, I am so hungry.
p296
sba(i__main__
Sentence
p297
(dp298
g17
I4
sg18
(lp299
S'She'
p300
aS'handed'
p301
aS'him'
p302
aS'the'
p303
aS'whole'
p304
aS'of'
p305
aS'her'
p306
aS'piece'
p307
aS'of'
p308
aS'bread'
p309
aS','
p310
aS'and'
p311
aS'said'
p312
aS','
p313
aS'may'
p314
aS'God'
p315
aS'bless'
p316
aS'you'
p317
aS','
p318
aS'and'
p319
aS'went'
p320
aS'onwards'
p321
aS'.'
p322
asg88
(lp323
VShe
p324
aVhand
p325
aVhim
p326
aVthe
p327
aVwhole
p328
aVof
p329
aVher
p330
aVpiece
p331
aVof
p332
aVbread
p333
ag104
aVand
p334
ag281
ag104
aVmay
p335
aVGod
p336
aVbless
p337
aVyou
p338
ag104
aVand
p339
ag233
aVonwards
p340
ag148
asg149
(lp341
g151
ag151
ag151
ag151
ag151
ag151
ag151
ag151
ag151
ag151
ag151
ag151
ag151
ag151
ag151
ag151
ag151
ag151
ag151
ag151
ag151
ag151
ag151
asg152
(lp342
g164
ag155
ag164
ag158
ag162
ag157
ag170
ag159
ag157
ag159
ag163
ag161
ag155
ag163
aS'MD'
p343
ag246
ag159
ag164
ag163
ag161
ag155
ag168
ag172
asg173
VShe handed him the whole of her piece of bread, and said, may God bless you, and went onwards.
p344
sba(i__main__
Sentence
p345
(dp346
g17
I5
sg18
(lp347
S'Then'
p348
aS'came'
p349
aS'a'
p350
aS'child'
p351
aS'who'
p352
aS'moaned'
p353
aS'and'
p354
aS'said'
p355
aS','
p356
aS'my'
p357
aS'head'
p358
aS'is'
p359
aS'so'
p360
aS'cold'
p361
aS','
p362
aS'give'
p363
aS'me'
p364
aS'something'
p365
aS'to'
p366
aS'cover'
p367
aS'it'
p368
aS'with'
p369
aS'.'
p370
asg88
(lp371
VThen
p372
aVcome
p373
ag94
aVchild
p374
aVwho
p375
aVmoan
p376
aVand
p377
ag281
ag104
aVmy
p378
aVhead
p379
aVbe
p380
aVso
p381
aVcold
p382
ag104
aVgive
p383
aVme
p384
aVsomething
p385
aVto
p386
aVcover
p387
aVit
p388
aVwith
p389
ag148
asg149
(lp390
g151
ag151
ag151
ag151
ag151
ag151
ag151
ag151
ag151
ag151
ag151
ag151
ag151
ag151
ag151
ag151
ag151
ag151
ag151
ag151
ag151
ag151
ag151
asg152
(lp391
g156
ag155
ag158
ag159
ag294
ag167
ag161
ag155
ag163
ag170
ag159
aS'VBZ'
p392
ag156
ag162
ag163
ag162
ag164
ag159
ag165
ag166
ag164
ag157
ag172
asg173
VThen came a child who moaned and said, my head is so cold, give me something to cover it with.
p393
sba(i__main__
Sentence
p394
(dp395
g17
I6
sg18
(lp396
S'So'
p397
aS'she'
p398
aS'took'
p399
aS'off'
p400
aS'her'
p401
aS'hood'
p402
aS'and'
p403
aS'gave'
p404
aS'it'
p405
aS'to'
p406
aS'him'
p407
aS'.'
p408
asg88
(lp409
VSo
p410
aVshe
p411
aVtake
p412
aVoff
p413
aVher
p414
aVhood
p415
aVand
p416
aVgive
p417
aVit
p418
aVto
p419
aVhim
p420
ag148
asg149
(lp421
g151
ag151
ag151
ag151
ag151
ag151
ag151
ag151
ag151
ag151
ag151
ag151
asg152
(lp422
g157
ag164
ag155
aS'RP'
p423
ag170
ag159
ag161
ag155
ag164
ag165
ag164
ag172
asg173
VSo she took off her hood and gave it to him.
p424
sba(i__main__
Sentence
p425
(dp426
g17
I7
sg18
(lp427
S'And'
p428
aS'when'
p429
aS'she'
p430
aS'had'
p431
aS'walked'
p432
aS'a'
p433
aS'little'
p434
aS'farther'
p435
aS','
p436
aS'she'
p437
aS'met'
p438
aS'another'
p439
aS'child'
p440
aS'who'
p441
aS'had'
p442
aS'no'
p443
aS'jacket'
p444
aS'and'
p445
aS'was'
p446
aS'frozen'
p447
aS'with'
p448
aS'cold'
p449
aS'.'
p450
asg88
(lp451
VAnd
p452
aVwhen
p453
aVshe
p454
ag113
aVwalk
p455
ag94
aVlittle
p456
aVfar
p457
ag104
aVshe
p458
aVmeet
p459
aVanother
p460
aVchild
p461
aVwho
p462
ag113
aVno
p463
aVjacket
p464
aVand
p465
ag91
aVfreeze
p466
aVwith
p467
aVcold
p468
ag148
asg149
(lp469
g151
ag151
ag151
ag151
ag151
ag151
ag151
ag151
ag151
ag151
ag151
ag151
ag151
ag151
ag151
ag151
ag151
ag151
ag151
ag151
ag151
ag151
ag151
asg152
(lp470
g161
aS'WRB'
p471
ag164
ag155
ag167
ag158
ag156
aS'RBR'
p472
ag163
ag164
ag155
ag158
ag159
ag294
ag155
ag158
ag159
ag161
ag155
ag167
ag157
ag162
ag172
asg173
VAnd when she had walked a little farther, she met another child who had no jacket and was frozen with cold.
p473
sba(i__main__
Sentence
p474
(dp475
g17
I8
sg18
(lp476
S'Then'
p477
aS'she'
p478
aS'gave'
p479
aS'it'
p480
aS'her'
p481
aS'own'
p482
aS','
p483
aS'and'
p484
aS'a'
p485
aS'little'
p486
aS'farther'
p487
aS'on'
p488
aS'one'
p489
aS'begged'
p490
aS'for'
p491
aS'a'
p492
aS'frock'
p493
aS','
p494
aS'and'
p495
aS'she'
p496
aS'gave'
p497
aS'away'
p498
aS'that'
p499
aS'also'
p500
aS'.'
p501
asg88
(lp502
VThen
p503
aVshe
p504
ag417
aVit
p505
aVher
p506
aVown
p507
ag104
aVand
p508
ag94
aVlittle
p509
ag457
aVon
p510
aVone
p511
aVbegged
p512
aVfor
p513
ag94
aVfrock
p514
ag104
aVand
p515
aVshe
p516
ag417
aVaway
p517
aVthat
p518
aValso
p519
ag148
asg149
(lp520
g151
ag151
ag151
ag151
ag151
ag151
ag151
ag151
ag151
ag151
ag151
ag151
ag151
ag151
ag151
ag151
ag151
ag151
ag151
ag151
ag151
ag151
ag151
ag151
ag151
asg152
(lp521
g156
ag164
ag155
ag164
ag170
ag162
ag163
ag161
ag158
ag156
ag472
ag157
aS'CD'
p522
ag162
ag157
ag158
ag159
ag163
ag161
ag164
ag155
ag156
ag157
ag156
ag172
asg173
VThen she gave it her own, and a little farther on one begged for a frock, and she gave away that also.
p523
sba(i__main__
Sentence
p524
(dp525
g17
I9
sg18
(lp526
S'At'
p527
aS'length'
p528
aS'she'
p529
aS'got'
p530
aS'into'
p531
aS'a'
p532
aS'forest'
p533
aS'and'
p534
aS'it'
p535
aS'had'
p536
aS'already'
p537
aS'become'
p538
aS'dark'
p539
aS','
p540
aS'and'
p541
aS'there'
p542
aS'came'
p543
aS'yet'
p544
aS'another'
p545
aS'child'
p546
aS','
p547
aS'and'
p548
aS'asked'
p549
aS'for'
p550
aS'a'
p551
aS'shirt'
p552
aS','
p553
aS'and'
p554
aS'the'
p555
aS'good'
p556
aS'little'
p557
aS'girl'
p558
aS'thought'
p559
aS'to'
p560
aS'herself'
p561
aS','
p562
aS'it'
p563
aS'is'
p564
aS'a'
p565
aS'dark'
p566
aS'night'
p567
aS'and'
p568
aS'no'
p569
aS'one'
p570
aS'sees'
p571
aS'you'
p572
aS','
p573
aS'you'
p574
aS'can'
p575
aS'very'
p576
aS'well'
p577
aS'give'
p578
aS'your'
p579
aS'shirt'
p580
aS'away'
p581
aS','
p582
aS'and'
p583
aS'took'
p584
aS'it'
p585
aS'off'
p586
aS','
p587
aS'and'
p588
aS'gave'
p589
aS'away'
p590
aS'that'
p591
aS'also'
p592
aS'.'
p593
asg88
(lp594
VAt
p595
aVlength
p596
aVshe
p597
aVget
p598
aVinto
p599
ag94
aVforest
p600
aVand
p601
aVit
p602
ag113
aValready
p603
aVbecome
p604
aVdark
p605
ag104
aVand
p606
aVthere
p607
ag373
aVyet
p608
aVanother
p609
aVchild
p610
ag104
aVand
p611
aVask
p612
aVfor
p613
ag94
aVshirt
p614
ag104
aVand
p615
aVthe
p616
aVgood
p617
aVlittle
p618
aVgirl
p619
aVthink
p620
aVto
p621
aVherself
p622
ag104
aVit
p623
ag380
ag94
aVdark
p624
aVnight
p625
aVand
p626
aVno
p627
aVone
p628
aVsee
p629
aVyou
p630
ag104
aVyou
p631
aVcan
p632
aVvery
p633
aVwell
p634
aVgive
p635
aVyour
p636
aVshirt
p637
aVaway
p638
ag104
aVand
p639
ag412
aVit
p640
aVoff
p641
ag104
aVand
p642
ag417
aVaway
p643
aVthat
p644
aValso
p645
ag148
asg149
(lp646
g151
ag151
ag151
ag151
ag151
ag151
ag151
ag151
ag151
ag151
ag151
ag151
ag151
ag151
ag151
ag151
ag151
ag151
ag151
ag151
ag151
ag151
ag151
ag151
ag151
ag151
ag151
ag151
ag151
ag151
ag151
ag151
ag151
ag151
ag151
ag151
ag151
ag151
ag151
ag151
ag151
ag151
ag151
ag151
ag151
ag151
ag151
ag151
ag151
ag151
ag151
ag151
ag151
ag151
ag151
ag151
ag151
ag151
ag151
ag151
ag151
ag151
ag151
ag151
ag151
ag151
ag151
asg152
(lp647
g157
ag159
ag164
ag155
ag157
ag158
ag162
ag161
ag164
ag155
ag156
ag167
ag159
ag163
ag161
ag154
ag155
ag156
ag158
ag159
ag163
ag161
ag155
ag157
ag158
ag159
ag163
ag161
ag158
ag162
ag159
ag159
ag155
ag165
ag164
ag163
ag164
ag392
ag158
ag162
ag159
ag161
ag158
ag159
ag392
ag164
ag163
ag164
ag343
ag156
ag156
ag166
ag170
ag159
ag156
ag163
ag161
ag155
ag164
ag157
ag163
ag161
ag155
ag156
ag157
ag156
ag172
asg173
VAt length she got into a forest and it had already become dark, and there came yet another child, and asked for a shirt, and the good little girl thought to herself, it is a dark night and no one sees you, you can very well give your shirt away, and took it off, and gave away that also.
p648
sba(i__main__
Sentence
p649
(dp650
g17
I10
sg18
(lp651
S'And'
p652
aS'as'
p653
aS'she'
p654
aS'so'
p655
aS'stood'
p656
aS','
p657
aS'and'
p658
aS'had'
p659
aS'not'
p660
aS'one'
p661
aS'single'
p662
aS'thing'
p663
aS'left'
p664
aS','
p665
aS'suddenly'
p666
aS'some'
p667
aS'stars'
p668
aS'from'
p669
aS'heaven'
p670
aS'fell'
p671
aS'down'
p672
aS','
p673
aS'and'
p674
aS'they'
p675
aS'were'
p676
aS'nothing'
p677
aS'else'
p678
aS'but'
p679
aS'hard'
p680
aS'smooth'
p681
aS'pieces'
p682
aS'of'
p683
aS'money'
p684
aS','
p685
aS'and'
p686
aS'although'
p687
aS'she'
p688
aS'had'
p689
aS'just'
p690
aS'given'
p691
aS'her'
p692
aS'shirt'
p693
aS'away'
p694
aS','
p695
aS'she'
p696
aS'had'
p697
aS'a'
p698
aS'new'
p699
aS'one'
p700
aS'which'
p701
aS'was'
p702
aS'of'
p703
aS'the'
p704
aS'very'
p705
aS'finest'
p706
aS'linen'
p707
aS'.'
p708
asg88
(lp709
VAnd
p710
ag94
aVshe
p711
aVso
p712
aVstand
p713
ag104
aVand
p714
ag113
aVnot
p715
aVone
p716
aVsingle
p717
aVthing
p718
aVleft
p719
ag104
aVsuddenly
p720
aVsome
p721
aVstar
p722
aVfrom
p723
aVheaven
p724
aVfell
p725
aVdown
p726
ag104
aVand
p727
aVthey
p728
ag102
aVnothing
p729
aVelse
p730
aVbut
p731
aVhard
p732
aVsmooth
p733
aVpiece
p734
aVof
p735
aVmoney
p736
ag104
aVand
p737
aValthough
p738
aVshe
p739
ag113
aVjust
p740
ag146
aVher
p741
aVshirt
p742
aVaway
p743
ag104
aVshe
p744
ag113
ag94
aVnew
p745
aVone
p746
aVwhich
p747
ag91
aVof
p748
aVthe
p749
aVvery
p750
aVfinest
p751
aVlinen
p752
ag148
asg149
(lp753
g151
ag151
ag151
ag151
ag151
ag151
ag151
ag151
ag151
ag151
ag151
ag151
ag151
ag151
ag151
ag151
ag151
ag151
ag151
ag151
ag151
ag151
ag151
ag151
ag151
ag151
ag151
ag151
ag151
ag151
ag151
ag151
ag151
ag151
ag151
ag151
ag151
ag151
ag151
ag151
ag151
ag151
ag151
ag151
ag151
ag151
ag151
ag151
ag151
ag151
ag151
ag151
ag151
ag151
ag151
ag151
ag151
asg152
(lp754
g161
ag157
ag164
ag156
ag155
ag163
ag161
ag155
ag156
ag522
ag162
ag159
ag159
ag163
ag156
ag158
ag168
ag157
ag162
ag159
ag157
ag163
ag161
ag164
ag155
ag169
ag156
ag161
ag156
ag162
ag168
ag157
ag159
ag163
ag161
ag157
ag164
ag155
ag156
ag167
ag170
ag159
ag156
ag163
ag164
ag155
ag158
ag162
ag522
ag171
ag155
ag157
ag158
ag162
ag159
ag159
ag172
asg173
VAnd as she so stood, and had not one single thing left, suddenly some stars from heaven fell down, and they were nothing else but hard smooth pieces of money, and although she had just given her shirt away, she had a new one which was of the very finest linen.
p755
sba(i__main__
Sentence
p756
(dp757
g17
I11
sg18
(lp758
S'Then'
p759
aS'she'
p760
aS'put'
p761
aS'the'
p762
aS'money'
p763
aS'into'
p764
aS'it'
p765
aS','
p766
aS'and'
p767
aS'was'
p768
aS'rich'
p769
aS'all'
p770
aS'the'
p771
aS'days'
p772
aS'of'
p773
aS'her'
p774
aS'life'
p775
aS'.'
p776
asg88
(lp777
VThen
p778
aVshe
p779
aVput
p780
aVthe
p781
aVmoney
p782
aVinto
p783
aVit
p784
ag104
aVand
p785
ag91
aVrich
p786
aVall
p787
aVthe
p788
aVday
p789
aVof
p790
aVher
p791
aVlife
p792
ag148
asg149
(lp793
g151
ag151
ag151
ag151
ag151
ag151
ag151
ag151
ag151
ag151
ag151
ag151
ag151
ag151
ag151
ag151
ag151
ag151
asg152
(lp794
g156
ag164
ag155
ag158
ag159
ag157
ag164
ag163
ag161
ag155
ag162
ag158
ag158
ag168
ag157
ag170
ag159
ag172
asg173
VThen she put the money into it, and was rich all the days of her life. 
p795
sbasbsS'summary'
p796
g0
(g7
g2
Ntp797
Rp798
(dp799
g11
S"A girl's parents die and she is left alone. Various beggars ask her for the few possessions she has. As she stands there without anything, money falls from the sky. She gathers the money and is rich for the rest of her life."
p800
sg13
(lp801
(i__main__
Sentence
p802
(dp803
g17
I0
sg18
(lp804
S'A'
p805
aS'girl'
p806
aS"'s"
p807
aS'parents'
p808
aS'die'
p809
aS'and'
p810
aS'she'
p811
aS'is'
p812
aS'left'
p813
aS'alone'
p814
aS'.'
p815
asg88
(lp816
VA
p817
aVgirl
p818
aV's
p819
aVparent
p820
aVdie
p821
aVand
p822
aVshe
p823
ag380
aVleave
p824
aValone
p825
ag148
asg149
(lp826
g151
ag151
ag151
ag151
ag151
ag151
ag151
ag151
ag151
ag151
ag151
asg152
(lp827
g158
ag159
aS'POS'
p828
ag168
ag166
ag161
ag164
ag392
ag167
ag156
ag172
asg173
VA girl's parents die and she is left alone.
p829
sba(i__main__
Sentence
p830
(dp831
g17
I1
sg18
(lp832
S'Various'
p833
aS'beggars'
p834
aS'ask'
p835
aS'her'
p836
aS'for'
p837
aS'the'
p838
aS'few'
p839
aS'possessions'
p840
aS'she'
p841
aS'has'
p842
aS'.'
p843
asg88
(lp844
VVarious
p845
aVbeggar
p846
aVask
p847
aVher
p848
aVfor
p849
aVthe
p850
aVfew
p851
aVpossession
p852
aVshe
p853
aVhave
p854
ag148
asg149
(lp855
g151
ag151
ag151
ag151
ag151
ag151
ag151
ag151
ag151
ag151
ag151
asg152
(lp856
g162
ag168
ag295
ag164
ag157
ag158
ag162
ag168
ag164
ag392
ag172
asg173
VVarious beggars ask her for the few possessions she has.
p857
sba(i__main__
Sentence
p858
(dp859
g17
I2
sg18
(lp860
S'As'
p861
aS'she'
p862
aS'stands'
p863
aS'there'
p864
aS'without'
p865
aS'anything'
p866
aS','
p867
aS'money'
p868
aS'falls'
p869
aS'from'
p870
aS'the'
p871
aS'sky'
p872
aS'.'
p873
asg88
(lp874
VAs
p875
aVshe
p876
aVstand
p877
aVthere
p878
aVwithout
p879
aVanything
p880
ag104
aVmoney
p881
aVfall
p882
aVfrom
p883
aVthe
p884
aVsky
p885
ag148
asg149
(lp886
g151
ag151
ag151
ag151
ag151
ag151
ag151
ag151
ag151
ag151
ag151
ag151
ag151
asg152
(lp887
g157
ag164
ag392
ag156
ag157
ag159
ag163
ag159
ag168
ag157
ag158
ag159
ag172
asg173
VAs she stands there without anything, money falls from the sky.
p888
sba(i__main__
Sentence
p889
(dp890
g17
I3
sg18
(lp891
S'She'
p892
aS'gathers'
p893
aS'the'
p894
aS'money'
p895
aS'and'
p896
aS'is'
p897
aS'rich'
p898
aS'for'
p899
aS'the'
p900
aS'rest'
p901
aS'of'
p902
aS'her'
p903
aS'life'
p904
aS'.'
p905
asg88
(lp906
VShe
p907
aVgather
p908
aVthe
p909
aVmoney
p910
aVand
p911
ag380
aVrich
p912
aVfor
p913
aVthe
p914
aVrest
p915
aVof
p916
aVher
p917
aVlife
p918
ag148
asg149
(lp919
g151
ag151
ag151
ag151
ag151
ag151
ag151
ag151
ag151
ag151
ag151
ag151
ag151
ag151
asg152
(lp920
g164
ag392
ag158
ag159
ag161
ag392
ag162
ag157
ag158
ag159
ag157
ag170
ag159
ag172
asg173
VShe gathers the money and is rich for the rest of her life.
p921
sbasbsS'name'
p922
S'The Star-Money'
p923
sS'summaries'
p924
(lp925
g798
asb.