ccopy_reg
_reconstructor
p0
(c__main__
Story
p1
c__builtin__
object
p2
Ntp3
Rp4
(dp5
S'text'
p6
g0
(c__main__
Document
p7
g2
Ntp8
Rp9
(dp10
S'_Document__initialContent'
p11
S"There was once upon a time a fisherman who lived with his wife\nin a pig-stye close by the sea, and every day he went out fishing.\nAnd he fished, and he fished.  And once he was sitting with his\nrod, looking at the clear water, and he sat and he sat.  Then\nhis line suddenly went down, far down below, and when\nhe drew it up again, he brought out a large flounder.  Then the\nflounder said to him, hark, you fisherman, I pray you, let me\nlive, I am no flounder really, but an enchanted prince.  What\ngood will it do you to kill me.  I should not be good to eat, put\nme in the water again, and let me go.  Come, said the fisherman,\nthere is no need for so many words about it - a fish that can\ntalk I should certainly let go, anyhow.  And with that he put\nhim back again into the clear water, and the flounder went to the\nbottom, leaving a long streak of blood behind him.  Then the\nfisherman got up and went home to his wife in the pig-stye.\nHusband, said the woman, have you caught nothing to-day.  No, said\nthe man, I did catch a flounder, who said he was an enchanted\nprince, so I let him go again.  Did you not wish for anything\nfirst, said the woman.  No, said the man, what should I wish\nfor.  Ah, said the woman, it is surely hard to have to live\nalways in this pig-stye which stinks and is so disgusting.  You\nmight have wished for a little hut for us.  Go back and call\nhim.  Tell him we want to have a little hut, he will certainly\ngive us that.  Ah, said the man, why should I go there again.\nWhy, said the woman, you did catch him, and you let him go again.\nHe is sure to do it.  Go at once.  The man still did not quite\nlike to go, but did not like to oppose his wife either, and\nwent to the sea.\nWhen he got there the sea was all green and yellow, and no\nlonger so smooth, so he stood still and said,\n          flounder, flounder in the sea,\n          come, I pray thee, here to me.\n          For my wife, good ilsabil,\n          wills not as I'd have her will.\nThen the flounder came swimming to him and said, well what does\nshe want, then.  Ah, said the man, I did catch you, and\nmy wife says I really ought to have wished for something.\nShe does not like to live in a pig-stye any longer.  She would\nlike to have a hut.  Go, then, said the flounder, she has it\nalready.\nWhen the man went home, his wife was no longer in the stye,\nbut instead of it there stood a hut, and she was sitting on a\nbench before the door.  Then she took him by the hand and said\nto him, just come inside.  Look, now isn't this a great deal\nbetter.  So they went in, and there was a small porch, and a\npretty little parlor and bedroom, and a kitchen and pantry,\nwith the best of furniture, and fitted up with the most\nbeautiful things made of tin and brass, whatsoever was wanted.\nAnd behind the hut there was a  small yard, with hens and ducks,\nand a little garden with flowers and fruit.  Look, said the\nwife, is not that nice.  Yes, said the husband, and so it shall\nremain - now we will live quite contented.  We will think about\nthat said the wife.  With that they ate something and went to\nbed.\nEverything went well for a week or a fortnight, and then the\nwoman said, hark you, husband, this hut is far too small for us,\nand the garden and yard are little.  The flounder might just as\nwell have given us a larger house.  I should like to live in a\ngreat stone castle.  Go to the flounder, and tell him to give\nus a castle.  Ah, wife, said the man, the hut is quite good\nenough.  Why whould we live in a castle.  What. Said the\nwoman.  Just go there, the flounder can always do that.  No,\nwife, said the man, the flounder has just given us the hut,\nI do not like to go back so soon, it might make him angry.\nGo, said the woman, he can do it quite easily, and will be glad\nto do it.  Just you go to him.\nThe man's heart grew heavy, and he would not go.  He said to\nhimself, it is not right, and yet he went.  And when he came\nto the sea the water was quite purple and dark-blue, and grey\nand thick, and no longer so green and yellow, but it was still\nquiet.  And he stood there and said,\n          flounder, flounder in the sea,\n          come, I pray thee, here to me.\n          For my wife, good ilsabil,\n          wills not as I'd have her will.\nWell, what does she want, now, said the flounder.  Alas, said\nthe man, half scared, she wants to live in a great stone castle.\nGo to it, then, she is standing before the door, said the\nflounder.\nThen the man went away, intending to go home, but when he\ngot there, he found a great stone palace, and his wife was\njust standing on the steps going in, and she took him by the\nhand and said, come in.  So he went in with her, and in the\ncastle was a great hall paved with marble, and many servants,\nwho flung wide the doors.  And the walls were all bright with\nbeautiful hangings, and in the rooms were chairs and tables\nof pure gold, and crystal chandeliers hung from the ceiling,\nand all the rooms and bedrooms had carpets, and food and wine\nof the very best were standing on all the tables, so that they\nnearly broke down beneath it.  Behind the house, too, there\nwas a great court-yard, with stables for horses and cows, and\nthe very best of carriages.  There was a magnificent large\ngarden, too, with the most beautiful flowers and fruit-trees,\nand a park quite half a mile long, in which were stags, deer,\nand hares, and everything that could be desired.  Come, said\nthe woman, isn't that beautiful.  Yes, indeed, said the man,\nnow let it be, and we will live in this beautiful castle\nand be content.  We will consider about that, said the woman,\nand sleep upon it.  Thereupon they went to bed.\nNext morning the wife awoke first, and it was just daybreak,\nand from her bed she saw the beautiful country lying before\nher.  Her husband was still stretching himself, so she poked\nhim in the side with her elbow, and said, get up, husband,\nand just peep out of the window.  Look you, couldn't we be the\nking over all that land.  Go to the flounder, we will be the\nking.  Ah, wife, said the man, why should we be king.  I\ndo not want to be king.  Well, said the wife, if you won't be\nking, I will.  Go to the flounder, for I will be king.  Ah,\nwife, said the man, why do you want to be king.  I do not like\nto say that to him.  Why not, said the woman.  Go to him this\ninstant.  I must be king.  So the man went, and was quite\nunhappy because his wife wished to be king.  It is not right,\nit is not right, thought he.  He did not wish to go, but yet\nhe went.\nAnd when he came to the sea, it was quite dark-grey, and the\nwater heaved up from below, and smelt putrid.  Then he went\nand stood by it, and said,\n\n          flounder, flounder in the sea,\n          come, I pray thee, here to me.\n          For my wife, good ilsabil,\n          wills not as I'd have her will.\nWell, what does she want, now. Said the flounder.  Alas, said\nthe man, she wants to be king.  Go to her.  She is king\nalready.\nSo the man went, and when he came to the palace, the castle\nhad become much larger, and had a great tower and magnificent\nornaments, and the sentinel was standing before the door, and\nthere were numbers of soldiers with kettle-drums and trumpets.\nAnd\nwhen he went inside the house, everything was of real marble\nand gold, with velvet covers and great golden tassels.  Then\nthe doors of the hall were opened, and there was the court in\nall its splendor, and his wife was sitting on a high throne\nof gold and diamonds, with a great crown of gold on her head,\nand a sceptre of pure gold and jewels in her hand, and on\nboth sides of her stood her maids-in-waiting in a row, each\nof them always one head shorter than the last.\nThen he went and stood before her, and said, ah, wife, and\nnow you are king.  Yes, said the woman, now I am king.  So\nhe stood and looked at her, and when he had looked at her thus\nfor some time, he said, and now that you are king, let all else\nbe, now we will wish for nothing more.  No, husband, said the\nwoman, quite anxiously, I find time passes very heavily, I can\nbear it no longer.  Go to the flounder - I am king, but I must\nbe emperor, too.  Oh, wife, why do you wish to be emperor.\nHusband, said she, go to the flounder.  I will be emperor.\nAlas, wife, said the man, he cannot make you emperor.  I may not\nsay that to the fish.  There is only one emperor in the land.  An\nemperor the flounder cannot make you.  I assure you he cannot.\nWhat. Said the woman, I am the king, and you are nothing but\nmy husband.  Will you go this moment.  Go at once.  If he can\nmake a king he can make an emperor.  I will be emperor.  Go\ninstantly.  So he was forced to go.  As the man went, however, he\nwas troubled in mind, and thought to himself, it will not end\nwell.  It will not end well.  Emperor is too shameless.  The\nflounder will at last be tired out.\nWith that he reached the sea, and the sea was quite black and\nthick, and began to boil up from below, so that it threw up\nbubbles, and such a sharp wind blew over it that it curdled, and\nthe man was afraid.  Then he went and stood by it, and said,\n          flounder, flounder in the sea,\n          come, I pray thee, here to me.\n          For my wife, good ilsabil,\n          wills not as I'd have her will.\nWell, what does she want, now, said the flounder.  Alas, flounder,\nsaid he, my wife wants to be emperor.  Go to her, said the\nflounder.  She is emperor already.\nSo the man went, and when he got there the whole palace was made\nof polished marble with alabaster figures and golden ornaments,\nand soldiers were marching before the door blowing trumpets,\nand beating cymbals and drums.  And in the house, barons, and\ncounts, and dukes were going about as servants.  Then they opened\nthe doors to him, which were of pure gold.  And when he\nentered, there sat his wife on a throne, which was made of one\npiece of gold, and was quite two miles high.  And she wore a great\ngolden crown that was three yards high, and set with diamonds and\ncarbuncles, and in one hand she had the sceptre, and in the\nother the imperial orb.  And on both sides of her stood the\nyeomen of the guard in two rows, each being smaller than the one\nbefore him, from the biggest giant, who was two miles high, to the\nvery smallest dwarf, just as big as my little finger.  And\nbefore it stood a number of princes and dukes.\nThen the man went and stood among them, and said, wife, are you\nemperor now.  Yes, said she, now I am emperor.  Then he stood\nand looked at her well, and when he had looked at her thus for\nsome time, he said, ah, wife, be content, now that you are\nemperor.  Husband, said she, why are you standing there.  Now, I\nam emperor, but I will be pope too.  Go to the flounder.  Oh,\nwife, said the man, what will you not wish for.  You cannot be\npope.  There is but one in christendom.  He cannot make you pope.\nHusband, said she, I will be pope.  Go immediately, I must be\npope this very day.  No, wife, said the man, I do not like to\nsay that to him.  That would not do, it is too much.  The flounder\ncan't make you pope.  Husband, said she, what nonsense.  If he\ncan make an emperor he can make a pope.  Go to him directly.\nI am emperor, and you are nothing but my husband.  Will you go\nat once.\nThen he was afraid and went, but he was quite faint, and\nshivered and shook, and his knees and legs trembled.  And a high\nwind blew over the land, and the clouds flew, and towards evening\nall grew dark, and the leaves fell from the trees, and the water\nrose and roared as if it were boiling, and splashed upon the\nshore.  And in the distance he saw ships which were firing guns\nin their sore need, pitching and tossing on the waves.  And yet\nin the midst of the sky there was still a small patch of blue,\nthough on every side it was as red as in a heavy storm.  So,\nfull of despair, he went and stood in much fear and said,\n          flounder, flounder in the sea,\n          come, I pray thee, here to me.\n          For my wife, good ilsabil,\n          wills not as I'd have her will.\nWell, what does she want, now, said the flounder.  Alas, said the\nman, she wants to be pope.  Go to her then, said the flounder,\nshe is pope already.\nSo he went, and when he got there, he saw what seemed to be a\nlarge church surrounded by palaces.  He pushed his way through\nthe crowd.  Inside, however, everything was lighted up with\nthousands and thousands of candles, and his wife was clad in\ngold, and she was sitting on a much higher throne, and had three\ngreat golden crowns on, and round about her there was much\necclesiastical splendor.  And on both sides of her was a row of\ncandles the largest of which was as tall as the very tallest tower,\ndown to the very smallest kitchen candle, and all the emperors\nand kings were on their knees before her, kissing her shoe.\nWife, said the man, and looked attentively at her, are you now\npope.  Yes, said she, I am pope.  So he stood and looked at her,\nand it was just as if he was looking at the bright sun.  When he\nhad stood looking at her thus for a short time, he said, ah,\nwife, if you are pope, do let well alone.  But she looked as\nstiff as a post, and did not move or show any signs of life.\nThen said he, wife, now that you are pope, be satisfied, you\ncannot become anything greater now.  I will consider about that,\nsaid the woman.  Thereupon they both went to bed, but she was\nnot satisfied, and greediness let her have no sleep, for she\nwas continually thinking what there was left for her to be.\nThe man slept well and soundly, for he had run about a great\ndeal during the day.  But the woman could not fall asleep at\nall, and flung herself from one side to the other the whole\nnight through, thinking always what more was left for her to\nbe, but unable to call to mind anything else.  At length the\nsun began to rise, and when the woman saw the red of dawn,\nshe sat up in bed and looked at it.  And when, through the\nwindow, she saw the sun thus rising, she said, cannot I, too,\norder the sun and moon to rise.  Husband, she said, poking him\nin the ribs with her elbows, wake up.  Go to the flounder, for\nI wish to be even as God is.  The man was still half asleep,\nbut he was so horrified that he fell out of bed.  He thought\nhe must have heard amiss, and rubbed his eyes, and said, wife,\nwhat are you saying.  Husband, said she, if I can't order the\nsun and moon to rise, and have to look on and see the sun\nand moon rising, I can't bear it.  I shall not know what it is\nto have another happy hour, unless I can make them rise myself.\nThen she looked at him so terribly that a shudder ran over\nhim, and said, go at once.  I wish to be like unto God.  Alas,\nwife, said the man, falling on his knees before her, the flounder\ncannot do that.  He can make an emperor and a pope.  I beseech\nyou, go on as you are, and be pope.  Then she fell into a\nrage, and her hair flew wildly about her head, she tore open her\nbodice, kicked him with her foot, and screamed, I can't stand\nit, I can't stand it any longer.  Will you go this instant.\nThen he put on his trousers and ran away like a madman.  But\noutside a great storm was raging, and blowing so hard that he\ncould scarcely keep his feet.  Houses and trees toppled over,\nthe mountains trembled, rocks rolled into the sea, the sky was\npitch black, and it thundered and lightened, and the sea came\nin with black waves as high as church-towers and mountains, and\nall with crests of white foam at the top.  Then he cried, but\ncould not hear his own words,\n          flounder, flounder in the sea,\n          come, I pray thee, here to me.\n          For my wife, good ilsabil,\n          wills not as I'd have her will.\nWell, what does she want, now, said the flounder.  Alas, said\nhe, she wants to be like unto God.  Go to her, and you will\nfind her back again in the pig-stye.  And there they are still\nliving to this day.\n"
p12
sS'sentences'
p13
(lp14
(i__main__
Sentence
p15
(dp16
S'index'
p17
I0
sS'words'
p18
(lp19
S'There'
p20
aS'was'
p21
aS'once'
p22
aS'upon'
p23
aS'a'
p24
aS'time'
p25
aS'a'
p26
aS'fisherman'
p27
aS'who'
p28
aS'lived'
p29
aS'with'
p30
aS'his'
p31
aS'wife'
p32
aS'in'
p33
aS'a'
p34
aS'pig-stye'
p35
aS'close'
p36
aS'by'
p37
aS'the'
p38
aS'sea'
p39
aS','
p40
aS'and'
p41
aS'every'
p42
aS'day'
p43
aS'he'
p44
aS'went'
p45
aS'out'
p46
aS'fishing'
p47
aS'.'
p48
asS'lemmas'
p49
(lp50
VThere
p51
aVbe
p52
aVonce
p53
aVupon
p54
aVa
p55
aVtime
p56
ag55
aVfisherman
p57
aVwho
p58
aVlive
p59
aVwith
p60
aVhis
p61
aVwife
p62
aVin
p63
ag55
aVpig-stye
p64
aVclose
p65
aVby
p66
aVthe
p67
aVsea
p68
aV,
p69
aVand
p70
aVevery
p71
aVday
p72
aVhe
p73
aVgo
p74
aVout
p75
aVfishing
p76
aV.
p77
asS'nerTags'
p78
(lp79
VO
p80
ag80
ag80
ag80
ag80
ag80
ag80
ag80
ag80
ag80
ag80
ag80
ag80
ag80
ag80
ag80
ag80
ag80
ag80
ag80
ag80
ag80
ag80
ag80
ag80
ag80
ag80
ag80
ag80
asS'posTags'
p81
(lp82
S'EX'
p83
aS'VBD'
p84
aS'RB'
p85
aS'IN'
p86
aS'DT'
p87
aS'NN'
p88
ag87
ag88
aS'WP'
p89
aS'VBN'
p90
ag86
aS'PRP$'
p91
ag88
ag86
ag87
aS'JJ'
p92
ag88
ag86
ag87
ag88
aS','
p93
aS'CC'
p94
ag87
ag88
aS'PRP'
p95
ag84
ag86
ag88
aS'.'
p96
asS'_Sentence__initialContent'
p97
VThere was once upon a time a fisherman who lived with his wife in a pig-stye close by the sea, and every day he went out fishing.
p98
sba(i__main__
Sentence
p99
(dp100
g17
I1
sg18
(lp101
S'And'
p102
aS'he'
p103
aS'fished'
p104
aS','
p105
aS'and'
p106
aS'he'
p107
aS'fished'
p108
aS'.'
p109
asg49
(lp110
VAnd
p111
aVhe
p112
aVfish
p113
ag69
aVand
p114
aVhe
p115
aVfish
p116
ag77
asg78
(lp117
g80
ag80
ag80
ag80
ag80
ag80
ag80
ag80
asg81
(lp118
g94
ag95
ag84
ag93
ag94
ag95
ag84
ag96
asg97
VAnd he fished, and he fished.
p119
sba(i__main__
Sentence
p120
(dp121
g17
I2
sg18
(lp122
S'And'
p123
aS'once'
p124
aS'he'
p125
aS'was'
p126
aS'sitting'
p127
aS'with'
p128
aS'his'
p129
aS'rod'
p130
aS','
p131
aS'looking'
p132
aS'at'
p133
aS'the'
p134
aS'clear'
p135
aS'water'
p136
aS','
p137
aS'and'
p138
aS'he'
p139
aS'sat'
p140
aS'and'
p141
aS'he'
p142
aS'sat'
p143
aS'.'
p144
asg49
(lp145
VAnd
p146
aVonce
p147
aVhe
p148
ag52
aVsit
p149
aVwith
p150
aVhis
p151
aVrod
p152
ag69
aVlook
p153
aVat
p154
aVthe
p155
aVclear
p156
aVwater
p157
ag69
aVand
p158
aVhe
p159
aVsit
p160
aVand
p161
aVhe
p162
ag160
ag77
asg78
(lp163
g80
ag80
ag80
ag80
ag80
ag80
ag80
ag80
ag80
ag80
ag80
ag80
ag80
ag80
ag80
ag80
ag80
ag80
ag80
ag80
ag80
ag80
asg81
(lp164
g94
ag85
ag95
ag84
aS'VBG'
p165
ag86
ag91
ag88
ag93
ag165
ag86
ag87
ag92
ag88
ag93
ag94
ag95
ag84
ag94
ag95
ag84
ag96
asg97
VAnd once he was sitting with his rod, looking at the clear water, and he sat and he sat.
p166
sba(i__main__
Sentence
p167
(dp168
g17
I3
sg18
(lp169
S'Then'
p170
aS'his'
p171
aS'line'
p172
aS'suddenly'
p173
aS'went'
p174
aS'down'
p175
aS','
p176
aS'far'
p177
aS'down'
p178
aS'below'
p179
aS','
p180
aS'and'
p181
aS'when'
p182
aS'he'
p183
aS'drew'
p184
aS'it'
p185
aS'up'
p186
aS'again'
p187
aS','
p188
aS'he'
p189
aS'brought'
p190
aS'out'
p191
aS'a'
p192
aS'large'
p193
aS'flounder'
p194
aS'.'
p195
asg49
(lp196
VThen
p197
aVhis
p198
aVline
p199
aVsuddenly
p200
ag74
aVdown
p201
ag69
aVfar
p202
aVdown
p203
aVbelow
p204
ag69
aVand
p205
aVwhen
p206
aVhe
p207
aVdraw
p208
aVit
p209
aVup
p210
aVagain
p211
ag69
aVhe
p212
aVbring
p213
aVout
p214
ag55
aVlarge
p215
aVflounder
p216
ag77
asg78
(lp217
g80
ag80
ag80
ag80
ag80
ag80
ag80
ag80
ag80
ag80
ag80
ag80
ag80
ag80
ag80
ag80
ag80
ag80
ag80
ag80
ag80
ag80
ag80
ag80
ag80
ag80
asg81
(lp218
g85
ag91
ag88
ag85
ag84
ag86
ag93
ag85
ag85
ag86
ag93
ag94
aS'WRB'
p219
ag95
ag84
ag95
aS'RP'
p220
ag85
ag93
ag95
ag84
ag220
ag87
ag92
ag88
ag96
asg97
VThen his line suddenly went down, far down below, and when he drew it up again, he brought out a large flounder.
p221
sba(i__main__
Sentence
p222
(dp223
g17
I4
sg18
(lp224
S'Then'
p225
aS'the'
p226
aS'flounder'
p227
aS'said'
p228
aS'to'
p229
aS'him'
p230
aS','
p231
aS'hark'
p232
aS','
p233
aS'you'
p234
aS'fisherman'
p235
aS','
p236
aS'I'
p237
aS'pray'
p238
aS'you'
p239
aS','
p240
aS'let'
p241
aS'me'
p242
aS'live'
p243
aS','
p244
aS'I'
p245
aS'am'
p246
aS'no'
p247
aS'flounder'
p248
aS'really'
p249
aS','
p250
aS'but'
p251
aS'an'
p252
aS'enchanted'
p253
aS'prince'
p254
aS'.'
p255
asg49
(lp256
VThen
p257
aVthe
p258
aVflounder
p259
aVsay
p260
aVto
p261
aVhim
p262
ag69
aVhark
p263
ag69
aVyou
p264
aVfisherman
p265
ag69
aVI
p266
aVpray
p267
aVyou
p268
ag69
aVlet
p269
aVme
p270
aVlive
p271
ag69
ag266
aVbe
p272
aVno
p273
aVflounder
p274
aVreally
p275
ag69
aVbut
p276
aVan
p277
aVenchant
p278
aVprince
p279
ag77
asg78
(lp280
g80
ag80
ag80
ag80
ag80
ag80
ag80
ag80
ag80
ag80
ag80
ag80
ag80
ag80
ag80
ag80
ag80
ag80
ag80
ag80
ag80
ag80
ag80
ag80
ag80
ag80
ag80
ag80
ag80
ag80
ag80
asg81
(lp281
g85
ag87
ag88
ag84
aS'TO'
p282
ag95
ag93
aS'VBP'
p283
ag93
ag95
ag283
ag93
ag95
ag283
ag95
ag93
aS'VB'
p284
ag95
ag284
ag93
ag95
ag283
ag87
ag88
ag85
ag93
ag94
ag87
ag90
ag88
ag96
asg97
VThen the flounder said to him, hark, you fisherman, I pray you, let me live, I am no flounder really, but an enchanted prince.
p285
sba(i__main__
Sentence
p286
(dp287
g17
I5
sg18
(lp288
S'What'
p289
aS'good'
p290
aS'will'
p291
aS'it'
p292
aS'do'
p293
aS'you'
p294
aS'to'
p295
aS'kill'
p296
aS'me'
p297
aS'.'
p298
asg49
(lp299
VWhat
p300
aVgood
p301
aVwill
p302
aVit
p303
aVdo
p304
aVyou
p305
aVto
p306
aVkill
p307
aVme
p308
ag77
asg78
(lp309
g80
ag80
ag80
ag80
ag80
ag80
ag80
ag80
ag80
ag80
asg81
(lp310
g89
ag92
aS'MD'
p311
ag95
ag284
ag95
ag282
ag284
ag95
ag96
asg97
VWhat good will it do you to kill me.
p312
sba(i__main__
Sentence
p313
(dp314
g17
I6
sg18
(lp315
S'I'
p316
aS'should'
p317
aS'not'
p318
aS'be'
p319
aS'good'
p320
aS'to'
p321
aS'eat'
p322
aS','
p323
aS'put'
p324
aS'me'
p325
aS'in'
p326
aS'the'
p327
aS'water'
p328
aS'again'
p329
aS','
p330
aS'and'
p331
aS'let'
p332
aS'me'
p333
aS'go'
p334
aS'.'
p335
asg49
(lp336
g266
aVshould
p337
aVnot
p338
aVbe
p339
aVgood
p340
aVto
p341
aVeat
p342
ag69
aVput
p343
aVme
p344
aVin
p345
aVthe
p346
aVwater
p347
aVagain
p348
ag69
aVand
p349
aVlet
p350
aVme
p351
aVgo
p352
ag77
asg78
(lp353
g80
ag80
ag80
ag80
ag80
ag80
ag80
ag80
ag80
ag80
ag80
ag80
ag80
ag80
ag80
ag80
ag80
ag80
ag80
ag80
asg81
(lp354
g95
ag311
ag85
ag284
ag92
ag282
ag284
ag93
ag90
ag95
ag86
ag87
ag88
ag85
ag93
ag94
ag284
ag95
ag284
ag96
asg97
VI should not be good to eat, put me in the water again, and let me go.
p355
sba(i__main__
Sentence
p356
(dp357
g17
I7
sg18
(lp358
S'Come'
p359
aS','
p360
aS'said'
p361
aS'the'
p362
aS'fisherman'
p363
aS','
p364
aS'there'
p365
aS'is'
p366
aS'no'
p367
aS'need'
p368
aS'for'
p369
aS'so'
p370
aS'many'
p371
aS'words'
p372
aS'about'
p373
aS'it'
p374
aS'-'
p375
aS'a'
p376
aS'fish'
p377
aS'that'
p378
aS'can'
p379
aS'talk'
p380
aS'I'
p381
aS'should'
p382
aS'certainly'
p383
aS'let'
p384
aS'go'
p385
aS','
p386
aS'anyhow'
p387
aS'.'
p388
asg49
(lp389
VCome
p390
ag69
ag260
aVthe
p391
aVfisherman
p392
ag69
aVthere
p393
aVbe
p394
aVno
p395
aVneed
p396
aVfor
p397
aVso
p398
aVmany
p399
aVword
p400
aVabout
p401
aVit
p402
aV-
p403
ag55
aVfish
p404
aVthat
p405
aVcan
p406
aVtalk
p407
ag266
aVshould
p408
aVcertainly
p409
aVlet
p410
aVgo
p411
ag69
aVanyhow
p412
ag77
asg78
(lp413
g80
ag80
ag80
ag80
ag80
ag80
ag80
ag80
ag80
ag80
ag80
ag80
ag80
ag80
ag80
ag80
ag80
ag80
ag80
ag80
ag80
ag80
ag80
ag80
ag80
ag80
ag80
ag80
ag80
ag80
asg81
(lp414
S'NNP'
p415
ag93
ag84
ag87
ag88
ag93
ag83
aS'VBZ'
p416
ag87
ag88
ag86
ag85
ag92
aS'NNS'
p417
ag86
ag95
aS':'
p418
ag87
ag92
ag86
ag311
ag284
ag95
ag311
ag85
ag284
ag85
ag93
ag219
ag96
asg97
VCome, said the fisherman, there is no need for so many words about it - a fish that can talk I should certainly let go, anyhow.
p419
sba(i__main__
Sentence
p420
(dp421
g17
I8
sg18
(lp422
S'And'
p423
aS'with'
p424
aS'that'
p425
aS'he'
p426
aS'put'
p427
aS'him'
p428
aS'back'
p429
aS'again'
p430
aS'into'
p431
aS'the'
p432
aS'clear'
p433
aS'water'
p434
aS','
p435
aS'and'
p436
aS'the'
p437
aS'flounder'
p438
aS'went'
p439
aS'to'
p440
aS'the'
p441
aS'bottom'
p442
aS','
p443
aS'leaving'
p444
aS'a'
p445
aS'long'
p446
aS'streak'
p447
aS'of'
p448
aS'blood'
p449
aS'behind'
p450
aS'him'
p451
aS'.'
p452
asg49
(lp453
VAnd
p454
aVwith
p455
aVthat
p456
aVhe
p457
aVput
p458
aVhim
p459
aVback
p460
aVagain
p461
aVinto
p462
aVthe
p463
aVclear
p464
aVwater
p465
ag69
aVand
p466
aVthe
p467
aVflounder
p468
ag74
aVto
p469
aVthe
p470
aVbottom
p471
ag69
aVleave
p472
ag55
aVlong
p473
aVstreak
p474
aVof
p475
aVblood
p476
aVbehind
p477
aVhim
p478
ag77
asg78
(lp479
g80
ag80
ag80
ag80
ag80
ag80
ag80
ag80
ag80
ag80
ag80
ag80
ag80
ag80
ag80
ag80
ag80
ag80
ag80
ag80
ag80
ag80
ag80
ag80
ag80
ag80
ag80
ag80
ag80
ag80
asg81
(lp480
g94
ag86
ag87
ag95
ag84
ag95
ag85
ag85
ag86
ag87
ag92
ag88
ag93
ag94
ag87
ag88
ag84
ag282
ag87
ag88
ag93
ag165
ag87
ag92
ag88
ag86
ag88
ag86
ag95
ag96
asg97
VAnd with that he put him back again into the clear water, and the flounder went to the bottom, leaving a long streak of blood behind him.
p481
sba(i__main__
Sentence
p482
(dp483
g17
I9
sg18
(lp484
S'Then'
p485
aS'the'
p486
aS'fisherman'
p487
aS'got'
p488
aS'up'
p489
aS'and'
p490
aS'went'
p491
aS'home'
p492
aS'to'
p493
aS'his'
p494
aS'wife'
p495
aS'in'
p496
aS'the'
p497
aS'pig-stye'
p498
aS'.'
p499
asg49
(lp500
VThen
p501
aVthe
p502
aVfisherman
p503
aVget
p504
aVup
p505
aVand
p506
ag74
aVhome
p507
aVto
p508
aVhis
p509
aVwife
p510
aVin
p511
aVthe
p512
aVpig-stye
p513
ag77
asg78
(lp514
g80
ag80
ag80
ag80
ag80
ag80
ag80
ag80
ag80
ag80
ag80
ag80
ag80
ag80
ag80
asg81
(lp515
g85
ag87
ag88
ag84
ag220
ag94
ag84
ag88
ag282
ag91
ag88
ag86
ag87
ag92
ag96
asg97
VThen the fisherman got up and went home to his wife in the pig-stye.
p516
sba(i__main__
Sentence
p517
(dp518
g17
I10
sg18
(lp519
S'Husband'
p520
aS','
p521
aS'said'
p522
aS'the'
p523
aS'woman'
p524
aS','
p525
aS'have'
p526
aS'you'
p527
aS'caught'
p528
aS'nothing'
p529
aS'to-day'
p530
aS'.'
p531
asg49
(lp532
VHusband
p533
ag69
ag260
aVthe
p534
aVwoman
p535
ag69
aVhave
p536
aVyou
p537
aVcatch
p538
aVnothing
p539
aVto-day
p540
ag77
asg78
(lp541
g80
ag80
ag80
ag80
ag80
ag80
ag80
ag80
ag80
ag80
ag80
ag80
asg81
(lp542
g415
ag93
ag84
ag87
ag88
ag93
ag283
ag95
ag90
ag88
ag88
ag96
asg97
VHusband, said the woman, have you caught nothing to-day.
p543
sba(i__main__
Sentence
p544
(dp545
g17
I11
sg18
(lp546
S'No'
p547
aS','
p548
aS'said'
p549
aS'the'
p550
aS'man'
p551
aS','
p552
aS'I'
p553
aS'did'
p554
aS'catch'
p555
aS'a'
p556
aS'flounder'
p557
aS','
p558
aS'who'
p559
aS'said'
p560
aS'he'
p561
aS'was'
p562
aS'an'
p563
aS'enchanted'
p564
aS'prince'
p565
aS','
p566
aS'so'
p567
aS'I'
p568
aS'let'
p569
aS'him'
p570
aS'go'
p571
aS'again'
p572
aS'.'
p573
asg49
(lp574
VNo
p575
ag69
ag260
aVthe
p576
aVman
p577
ag69
ag266
aVdo
p578
aVcatch
p579
ag55
aVflounder
p580
ag69
aVwho
p581
ag260
aVhe
p582
ag52
aVan
p583
aVenchant
p584
aVprince
p585
ag69
aVso
p586
ag266
aVlet
p587
aVhim
p588
aVgo
p589
aVagain
p590
ag77
asg78
(lp591
g80
ag80
ag80
ag80
ag80
ag80
ag80
ag80
ag80
ag80
ag80
ag80
ag80
ag80
ag80
ag80
ag80
ag80
ag80
ag80
ag80
ag80
ag80
ag80
ag80
ag80
ag80
asg81
(lp592
g87
ag93
ag84
ag87
ag88
ag93
ag95
ag84
ag92
ag87
ag88
ag93
ag89
ag84
ag95
ag84
ag87
ag90
ag88
ag93
ag85
ag95
ag283
ag95
ag283
ag85
ag96
asg97
VNo, said the man, I did catch a flounder, who said he was an enchanted prince, so I let him go again.
p593
sba(i__main__
Sentence
p594
(dp595
g17
I12
sg18
(lp596
S'Did'
p597
aS'you'
p598
aS'not'
p599
aS'wish'
p600
aS'for'
p601
aS'anything'
p602
aS'first'
p603
aS','
p604
aS'said'
p605
aS'the'
p606
aS'woman'
p607
aS'.'
p608
asg49
(lp609
VDid
p610
aVyou
p611
aVnot
p612
aVwish
p613
aVfor
p614
aVanything
p615
aVfirst
p616
ag69
ag260
aVthe
p617
aVwoman
p618
ag77
asg78
(lp619
g80
ag80
ag80
ag80
ag80
ag80
ag80
ag80
ag80
ag80
ag80
ag80
asg81
(lp620
g415
ag95
ag85
ag284
ag86
ag88
ag85
ag93
ag84
ag87
ag88
ag96
asg97
VDid you not wish for anything first, said the woman.
p621
sba(i__main__
Sentence
p622
(dp623
g17
I13
sg18
(lp624
S'No'
p625
aS','
p626
aS'said'
p627
aS'the'
p628
aS'man'
p629
aS','
p630
aS'what'
p631
aS'should'
p632
aS'I'
p633
aS'wish'
p634
aS'for'
p635
aS'.'
p636
asg49
(lp637
VNo
p638
ag69
ag260
aVthe
p639
aVman
p640
ag69
aVwhat
p641
aVshould
p642
ag266
aVwish
p643
aVfor
p644
ag77
asg78
(lp645
g80
ag80
ag80
ag80
ag80
ag80
ag80
ag80
ag80
ag80
ag80
ag80
asg81
(lp646
g87
ag93
ag84
ag87
ag88
ag93
ag89
ag311
ag95
ag284
ag86
ag96
asg97
VNo, said the man, what should I wish for.
p647
sba(i__main__
Sentence
p648
(dp649
g17
I14
sg18
(lp650
S'Ah'
p651
aS','
p652
aS'said'
p653
aS'the'
p654
aS'woman'
p655
aS','
p656
aS'it'
p657
aS'is'
p658
aS'surely'
p659
aS'hard'
p660
aS'to'
p661
aS'have'
p662
aS'to'
p663
aS'live'
p664
aS'always'
p665
aS'in'
p666
aS'this'
p667
aS'pig-stye'
p668
aS'which'
p669
aS'stinks'
p670
aS'and'
p671
aS'is'
p672
aS'so'
p673
aS'disgusting'
p674
aS'.'
p675
asg49
(lp676
VAh
p677
ag69
ag260
aVthe
p678
aVwoman
p679
ag69
aVit
p680
ag394
aVsurely
p681
aVhard
p682
aVto
p683
aVhave
p684
aVto
p685
aVlive
p686
aValways
p687
aVin
p688
aVthis
p689
aVpig-stye
p690
aVwhich
p691
aVstink
p692
aVand
p693
ag394
aVso
p694
aVdisgust
p695
ag77
asg78
(lp696
g80
ag80
ag80
ag80
ag80
ag80
ag80
ag80
ag80
ag80
ag80
ag80
ag80
ag80
ag80
ag80
ag80
ag80
ag80
ag80
ag80
ag80
ag80
ag80
ag80
asg81
(lp697
g415
ag93
ag84
ag87
ag88
ag93
ag95
ag416
ag85
ag85
ag282
ag284
ag282
ag284
ag85
ag86
ag87
ag92
aS'WDT'
p698
ag417
ag94
ag416
ag85
ag165
ag96
asg97
VAh, said the woman, it is surely hard to have to live always in this pig-stye which stinks and is so disgusting.
p699
sba(i__main__
Sentence
p700
(dp701
g17
I15
sg18
(lp702
S'You'
p703
aS'might'
p704
aS'have'
p705
aS'wished'
p706
aS'for'
p707
aS'a'
p708
aS'little'
p709
aS'hut'
p710
aS'for'
p711
aS'us'
p712
aS'.'
p713
asg49
(lp714
VYou
p715
aVmight
p716
aVhave
p717
aVwish
p718
aVfor
p719
ag55
aVlittle
p720
aVhut
p721
aVfor
p722
aVu
p723
ag77
asg78
(lp724
g80
ag80
ag80
ag80
ag80
ag80
ag80
ag80
ag80
ag80
ag80
asg81
(lp725
g95
ag311
ag284
ag90
ag86
ag87
ag85
ag90
ag86
ag95
ag96
asg97
VYou might have wished for a little hut for us.
p726
sba(i__main__
Sentence
p727
(dp728
g17
I16
sg18
(lp729
S'Go'
p730
aS'back'
p731
aS'and'
p732
aS'call'
p733
aS'him'
p734
aS'.'
p735
asg49
(lp736
VGo
p737
aVback
p738
aVand
p739
aVcall
p740
aVhim
p741
ag77
asg78
(lp742
g80
ag80
ag80
ag80
ag80
ag80
asg81
(lp743
g415
ag85
ag94
ag88
ag95
ag96
asg97
VGo back and call him.
p744
sba(i__main__
Sentence
p745
(dp746
g17
I17
sg18
(lp747
S'Tell'
p748
aS'him'
p749
aS'we'
p750
aS'want'
p751
aS'to'
p752
aS'have'
p753
aS'a'
p754
aS'little'
p755
aS'hut'
p756
aS','
p757
aS'he'
p758
aS'will'
p759
aS'certainly'
p760
aS'give'
p761
aS'us'
p762
aS'that'
p763
aS'.'
p764
asg49
(lp765
VTell
p766
aVhim
p767
aVwe
p768
aVwant
p769
aVto
p770
aVhave
p771
ag55
aVlittle
p772
aVhut
p773
ag69
aVhe
p774
aVwill
p775
aVcertainly
p776
aVgive
p777
ag723
aVthat
p778
ag77
asg78
(lp779
g80
ag80
ag80
ag80
ag80
ag80
ag80
ag80
ag80
ag80
ag80
ag80
ag80
ag80
ag80
ag80
ag80
asg81
(lp780
g415
ag95
ag95
ag283
ag282
ag284
ag87
ag85
ag90
ag93
ag95
ag311
ag85
ag284
ag95
ag86
ag96
asg97
VTell him we want to have a little hut, he will certainly give us that.
p781
sba(i__main__
Sentence
p782
(dp783
g17
I18
sg18
(lp784
S'Ah'
p785
aS','
p786
aS'said'
p787
aS'the'
p788
aS'man'
p789
aS','
p790
aS'why'
p791
aS'should'
p792
aS'I'
p793
aS'go'
p794
aS'there'
p795
aS'again'
p796
aS'.'
p797
asg49
(lp798
VAh
p799
ag69
ag260
aVthe
p800
aVman
p801
ag69
aVwhy
p802
aVshould
p803
ag266
aVgo
p804
aVthere
p805
aVagain
p806
ag77
asg78
(lp807
g80
ag80
ag80
ag80
ag80
ag80
ag80
ag80
ag80
ag80
ag80
ag80
ag80
asg81
(lp808
g415
ag93
ag84
ag87
ag88
ag93
ag219
ag311
ag95
ag284
ag85
ag85
ag96
asg97
VAh, said the man, why should I go there again.
p809
sba(i__main__
Sentence
p810
(dp811
g17
I19
sg18
(lp812
S'Why'
p813
aS','
p814
aS'said'
p815
aS'the'
p816
aS'woman'
p817
aS','
p818
aS'you'
p819
aS'did'
p820
aS'catch'
p821
aS'him'
p822
aS','
p823
aS'and'
p824
aS'you'
p825
aS'let'
p826
aS'him'
p827
aS'go'
p828
aS'again'
p829
aS'.'
p830
asg49
(lp831
VWhy
p832
ag69
ag260
aVthe
p833
aVwoman
p834
ag69
aVyou
p835
ag578
aVcatch
p836
aVhim
p837
ag69
aVand
p838
aVyou
p839
aVlet
p840
aVhim
p841
aVgo
p842
aVagain
p843
ag77
asg78
(lp844
g80
ag80
ag80
ag80
ag80
ag80
ag80
ag80
ag80
ag80
ag80
ag80
ag80
ag80
ag80
ag80
ag80
ag80
asg81
(lp845
g219
ag93
ag84
ag87
ag88
ag93
ag95
ag84
ag284
ag95
ag93
ag94
ag95
ag284
ag95
ag284
ag85
ag96
asg97
VWhy, said the woman, you did catch him, and you let him go again.
p846
sba(i__main__
Sentence
p847
(dp848
g17
I20
sg18
(lp849
S'He'
p850
aS'is'
p851
aS'sure'
p852
aS'to'
p853
aS'do'
p854
aS'it'
p855
aS'.'
p856
asg49
(lp857
VHe
p858
ag394
aVsure
p859
aVto
p860
aVdo
p861
aVit
p862
ag77
asg78
(lp863
g80
ag80
ag80
ag80
ag80
ag80
ag80
asg81
(lp864
g95
ag416
ag92
ag282
ag284
ag95
ag96
asg97
VHe is sure to do it.
p865
sba(i__main__
Sentence
p866
(dp867
g17
I21
sg18
(lp868
S'Go'
p869
aS'at'
p870
aS'once'
p871
aS'.'
p872
asg49
(lp873
VGo
p874
aVat
p875
aVonce
p876
ag77
asg78
(lp877
g80
ag80
ag80
ag80
asg81
(lp878
g415
ag86
ag85
ag96
asg97
VGo at once.
p879
sba(i__main__
Sentence
p880
(dp881
g17
I22
sg18
(lp882
S'The'
p883
aS'man'
p884
aS'still'
p885
aS'did'
p886
aS'not'
p887
aS'quite'
p888
aS'like'
p889
aS'to'
p890
aS'go'
p891
aS','
p892
aS'but'
p893
aS'did'
p894
aS'not'
p895
aS'like'
p896
aS'to'
p897
aS'oppose'
p898
aS'his'
p899
aS'wife'
p900
aS'either'
p901
aS','
p902
aS'and'
p903
aS'went'
p904
aS'to'
p905
aS'the'
p906
aS'sea'
p907
aS'.'
p908
asg49
(lp909
VThe
p910
aVman
p911
aVstill
p912
ag578
aVnot
p913
aVquite
p914
aVlike
p915
aVto
p916
aVgo
p917
ag69
aVbut
p918
ag578
aVnot
p919
aVlike
p920
aVto
p921
aVoppose
p922
aVhis
p923
aVwife
p924
aVeither
p925
ag69
aVand
p926
ag74
aVto
p927
aVthe
p928
aVsea
p929
ag77
asg78
(lp930
g80
ag80
ag80
ag80
ag80
ag80
ag80
ag80
ag80
ag80
ag80
ag80
ag80
ag80
ag80
ag80
ag80
ag80
ag80
ag80
ag80
ag80
ag80
ag80
ag80
ag80
asg81
(lp931
g87
ag88
ag85
ag84
ag85
ag85
ag86
ag282
ag284
ag93
ag94
ag84
ag85
ag86
ag282
ag284
ag91
ag88
ag88
ag93
ag94
ag84
ag282
ag87
ag88
ag96
asg97
VThe man still did not quite like to go, but did not like to oppose his wife either, and went to the sea.
p932
sba(i__main__
Sentence
p933
(dp934
g17
I23
sg18
(lp935
S'When'
p936
aS'he'
p937
aS'got'
p938
aS'there'
p939
aS'the'
p940
aS'sea'
p941
aS'was'
p942
aS'all'
p943
aS'green'
p944
aS'and'
p945
aS'yellow'
p946
aS','
p947
aS'and'
p948
aS'no'
p949
aS'longer'
p950
aS'so'
p951
aS'smooth'
p952
aS','
p953
aS'so'
p954
aS'he'
p955
aS'stood'
p956
aS'still'
p957
aS'and'
p958
aS'said'
p959
aS','
p960
aS'flounder'
p961
aS','
p962
aS'flounder'
p963
aS'in'
p964
aS'the'
p965
aS'sea'
p966
aS','
p967
aS'come'
p968
aS','
p969
aS'I'
p970
aS'pray'
p971
aS'thee'
p972
aS','
p973
aS'here'
p974
aS'to'
p975
aS'me'
p976
aS'.'
p977
asg49
(lp978
VWhen
p979
aVhe
p980
ag504
aVthere
p981
aVthe
p982
aVsea
p983
ag52
aVall
p984
aVgreen
p985
aVand
p986
aVyellow
p987
ag69
aVand
p988
aVno
p989
aVlonger
p990
aVso
p991
aVsmooth
p992
ag69
aVso
p993
aVhe
p994
aVstand
p995
aVstill
p996
aVand
p997
ag260
ag69
aVflounder
p998
ag69
aVflounder
p999
aVin
p1000
aVthe
p1001
aVsea
p1002
ag69
aVcome
p1003
ag69
ag266
aVpray
p1004
aVthee
p1005
ag69
aVhere
p1006
aVto
p1007
aVme
p1008
ag77
asg78
(lp1009
g80
ag80
ag80
ag80
ag80
ag80
ag80
ag80
ag80
ag80
ag80
ag80
ag80
ag80
ag80
ag80
ag80
ag80
ag80
ag80
ag80
ag80
ag80
ag80
ag80
ag80
ag80
ag80
ag80
ag80
ag80
ag80
ag80
ag80
ag80
ag80
ag80
ag80
ag80
ag80
ag80
ag80
asg81
(lp1010
g219
ag95
ag84
ag85
ag87
ag88
ag84
ag87
ag92
ag94
ag92
ag93
ag94
ag87
ag88
ag86
ag88
ag93
ag85
ag95
ag84
ag85
ag94
ag84
ag93
ag88
ag93
ag88
ag86
ag87
ag88
ag93
ag283
ag93
ag95
ag283
ag92
ag93
ag85
ag282
ag95
ag96
asg97
VWhen he got there the sea was all green and yellow, and no longer so smooth, so he stood still and said,           flounder, flounder in the sea,           come, I pray thee, here to me.
p1011
sba(i__main__
Sentence
p1012
(dp1013
g17
I24
sg18
(lp1014
S'For'
p1015
aS'my'
p1016
aS'wife'
p1017
aS','
p1018
aS'good'
p1019
aS'ilsabil'
p1020
aS','
p1021
aS'wills'
p1022
aS'not'
p1023
aS'as'
p1024
aS'I'
p1025
aS"'d"
p1026
aS'have'
p1027
aS'her'
p1028
aS'will'
p1029
aS'.'
p1030
asg49
(lp1031
VFor
p1032
aVmy
p1033
aVwife
p1034
ag69
aVgood
p1035
aVilsabil
p1036
ag69
aVwill
p1037
aVnot
p1038
ag55
ag266
aV'd
p1039
aVhave
p1040
aVher
p1041
aVwill
p1042
ag77
asg78
(lp1043
g80
ag80
ag80
ag80
ag80
ag80
ag80
ag80
ag80
ag80
ag80
ag80
ag80
ag80
ag80
ag80
asg81
(lp1044
g86
ag91
ag88
ag93
ag92
ag88
ag93
ag417
ag85
ag86
ag95
ag311
ag284
ag91
ag311
ag96
asg97
VFor my wife, good ilsabil,           wills not as I'd have her will.
p1045
sba(i__main__
Sentence
p1046
(dp1047
g17
I25
sg18
(lp1048
S'Then'
p1049
aS'the'
p1050
aS'flounder'
p1051
aS'came'
p1052
aS'swimming'
p1053
aS'to'
p1054
aS'him'
p1055
aS'and'
p1056
aS'said'
p1057
aS','
p1058
aS'well'
p1059
aS'what'
p1060
aS'does'
p1061
aS'she'
p1062
aS'want'
p1063
aS','
p1064
aS'then'
p1065
aS'.'
p1066
asg49
(lp1067
VThen
p1068
aVthe
p1069
aVflounder
p1070
aVcome
p1071
aVswim
p1072
aVto
p1073
aVhim
p1074
aVand
p1075
ag260
ag69
aVwell
p1076
aVwhat
p1077
aVdo
p1078
aVshe
p1079
aVwant
p1080
ag69
aVthen
p1081
ag77
asg78
(lp1082
g80
ag80
ag80
ag80
ag80
ag80
ag80
ag80
ag80
ag80
ag80
ag80
ag80
ag80
ag80
ag80
ag80
ag80
asg81
(lp1083
g85
ag87
ag88
ag84
ag165
ag282
ag95
ag94
ag84
ag93
ag85
ag89
ag416
ag95
ag283
ag93
ag85
ag96
asg97
VThen the flounder came swimming to him and said, well what does she want, then.
p1084
sba(i__main__
Sentence
p1085
(dp1086
g17
I26
sg18
(lp1087
S'Ah'
p1088
aS','
p1089
aS'said'
p1090
aS'the'
p1091
aS'man'
p1092
aS','
p1093
aS'I'
p1094
aS'did'
p1095
aS'catch'
p1096
aS'you'
p1097
aS','
p1098
aS'and'
p1099
aS'my'
p1100
aS'wife'
p1101
aS'says'
p1102
aS'I'
p1103
aS'really'
p1104
aS'ought'
p1105
aS'to'
p1106
aS'have'
p1107
aS'wished'
p1108
aS'for'
p1109
aS'something'
p1110
aS'.'
p1111
asg49
(lp1112
VAh
p1113
ag69
ag260
aVthe
p1114
aVman
p1115
ag69
ag266
ag578
aVcatch
p1116
aVyou
p1117
ag69
aVand
p1118
aVmy
p1119
aVwife
p1120
aVsay
p1121
ag266
aVreally
p1122
aVought
p1123
aVto
p1124
aVhave
p1125
aVwish
p1126
aVfor
p1127
aVsomething
p1128
ag77
asg78
(lp1129
g80
ag80
ag80
ag80
ag80
ag80
ag80
ag80
ag80
ag80
ag80
ag80
ag80
ag80
ag80
ag80
ag80
ag80
ag80
ag80
ag80
ag80
ag80
ag80
asg81
(lp1130
g415
ag93
ag84
ag87
ag88
ag93
ag95
ag84
ag92
ag95
ag93
ag94
ag91
ag88
ag416
ag95
ag85
ag311
ag282
ag284
ag90
ag86
ag88
ag96
asg97
VAh, said the man, I did catch you, and my wife says I really ought to have wished for something.
p1131
sba(i__main__
Sentence
p1132
(dp1133
g17
I27
sg18
(lp1134
S'She'
p1135
aS'does'
p1136
aS'not'
p1137
aS'like'
p1138
aS'to'
p1139
aS'live'
p1140
aS'in'
p1141
aS'a'
p1142
aS'pig-stye'
p1143
aS'any'
p1144
aS'longer'
p1145
aS'.'
p1146
asg49
(lp1147
VShe
p1148
aVdo
p1149
aVnot
p1150
aVlike
p1151
aVto
p1152
aVlive
p1153
aVin
p1154
ag55
aVpig-stye
p1155
aVany
p1156
aVlonger
p1157
ag77
asg78
(lp1158
g80
ag80
ag80
ag80
ag80
ag80
ag80
ag80
ag80
ag80
ag80
ag80
asg81
(lp1159
g95
ag416
ag85
ag86
ag282
ag284
ag86
ag87
ag92
ag88
ag88
ag96
asg97
VShe does not like to live in a pig-stye any longer.
p1160
sba(i__main__
Sentence
p1161
(dp1162
g17
I28
sg18
(lp1163
S'She'
p1164
aS'would'
p1165
aS'like'
p1166
aS'to'
p1167
aS'have'
p1168
aS'a'
p1169
aS'hut'
p1170
aS'.'
p1171
asg49
(lp1172
VShe
p1173
aVwould
p1174
aVlike
p1175
aVto
p1176
aVhave
p1177
ag55
aVhut
p1178
ag77
asg78
(lp1179
g80
ag80
ag80
ag80
ag80
ag80
ag80
ag80
asg81
(lp1180
g95
ag311
ag284
ag282
ag284
ag87
ag88
ag96
asg97
VShe would like to have a hut.
p1181
sba(i__main__
Sentence
p1182
(dp1183
g17
I29
sg18
(lp1184
S'Go'
p1185
aS','
p1186
aS'then'
p1187
aS','
p1188
aS'said'
p1189
aS'the'
p1190
aS'flounder'
p1191
aS','
p1192
aS'she'
p1193
aS'has'
p1194
aS'it'
p1195
aS'already'
p1196
aS'.'
p1197
asg49
(lp1198
VGo
p1199
ag69
aVthen
p1200
ag69
ag260
aVthe
p1201
aVflounder
p1202
ag69
aVshe
p1203
aVhave
p1204
aVit
p1205
aValready
p1206
ag77
asg78
(lp1207
g80
ag80
ag80
ag80
ag80
ag80
ag80
ag80
ag80
ag80
ag80
ag80
ag80
asg81
(lp1208
g415
ag93
ag85
ag93
ag84
ag87
ag88
ag93
ag95
ag416
ag95
ag85
ag96
asg97
VGo, then, said the flounder, she has it already.
p1209
sba(i__main__
Sentence
p1210
(dp1211
g17
I30
sg18
(lp1212
S'When'
p1213
aS'the'
p1214
aS'man'
p1215
aS'went'
p1216
aS'home'
p1217
aS','
p1218
aS'his'
p1219
aS'wife'
p1220
aS'was'
p1221
aS'no'
p1222
aS'longer'
p1223
aS'in'
p1224
aS'the'
p1225
aS'stye'
p1226
aS','
p1227
aS'but'
p1228
aS'instead'
p1229
aS'of'
p1230
aS'it'
p1231
aS'there'
p1232
aS'stood'
p1233
aS'a'
p1234
aS'hut'
p1235
aS','
p1236
aS'and'
p1237
aS'she'
p1238
aS'was'
p1239
aS'sitting'
p1240
aS'on'
p1241
aS'a'
p1242
aS'bench'
p1243
aS'before'
p1244
aS'the'
p1245
aS'door'
p1246
aS'.'
p1247
asg49
(lp1248
VWhen
p1249
aVthe
p1250
aVman
p1251
ag74
aVhome
p1252
ag69
aVhis
p1253
aVwife
p1254
ag52
aVno
p1255
aVlonger
p1256
aVin
p1257
aVthe
p1258
aVstye
p1259
ag69
aVbut
p1260
aVinstead
p1261
aVof
p1262
aVit
p1263
aVthere
p1264
ag995
ag55
aVhut
p1265
ag69
aVand
p1266
aVshe
p1267
ag52
ag149
aVon
p1268
ag55
aVbench
p1269
aVbefore
p1270
aVthe
p1271
aVdoor
p1272
ag77
asg78
(lp1273
g80
ag80
ag80
ag80
ag80
ag80
ag80
ag80
ag80
ag80
ag80
ag80
ag80
ag80
ag80
ag80
ag80
ag80
ag80
ag80
ag80
ag80
ag80
ag80
ag80
ag80
ag80
ag80
ag80
ag80
ag80
ag80
ag80
ag80
ag80
asg81
(lp1274
g219
ag87
ag88
ag84
ag88
ag93
ag91
ag88
ag84
ag87
ag88
ag86
ag87
ag88
ag93
ag94
ag85
ag86
ag95
ag83
ag84
ag87
ag88
ag93
ag94
ag95
ag84
ag165
ag86
ag87
ag88
ag86
ag87
ag88
ag96
asg97
VWhen the man went home, his wife was no longer in the stye, but instead of it there stood a hut, and she was sitting on a bench before the door.
p1275
sba(i__main__
Sentence
p1276
(dp1277
g17
I31
sg18
(lp1278
S'Then'
p1279
aS'she'
p1280
aS'took'
p1281
aS'him'
p1282
aS'by'
p1283
aS'the'
p1284
aS'hand'
p1285
aS'and'
p1286
aS'said'
p1287
aS'to'
p1288
aS'him'
p1289
aS','
p1290
aS'just'
p1291
aS'come'
p1292
aS'inside'
p1293
aS'.'
p1294
asg49
(lp1295
VThen
p1296
aVshe
p1297
aVtake
p1298
aVhim
p1299
aVby
p1300
aVthe
p1301
aVhand
p1302
aVand
p1303
ag260
aVto
p1304
aVhim
p1305
ag69
aVjust
p1306
aVcome
p1307
aVinside
p1308
ag77
asg78
(lp1309
g80
ag80
ag80
ag80
ag80
ag80
ag80
ag80
ag80
ag80
ag80
ag80
ag80
ag80
ag80
ag80
asg81
(lp1310
g85
ag95
ag84
ag95
ag86
ag87
ag88
ag94
ag84
ag282
ag95
ag93
ag85
ag90
ag88
ag96
asg97
VThen she took him by the hand and said to him, just come inside.
p1311
sba(i__main__
Sentence
p1312
(dp1313
g17
I32
sg18
(lp1314
S'Look'
p1315
aS','
p1316
aS'now'
p1317
aS'is'
p1318
aS"n't"
p1319
aS'this'
p1320
aS'a'
p1321
aS'great'
p1322
aS'deal'
p1323
aS'better'
p1324
aS'.'
p1325
asg49
(lp1326
VLook
p1327
ag69
aVnow
p1328
ag394
aVn't
p1329
aVthis
p1330
ag55
aVgreat
p1331
aVdeal
p1332
aVwell
p1333
ag77
asg78
(lp1334
g80
ag80
ag80
ag80
ag80
ag80
ag80
ag80
ag80
ag80
ag80
asg81
(lp1335
g415
ag93
ag85
ag416
ag85
ag87
ag87
ag92
ag88
aS'RBR'
p1336
ag96
asg97
VLook, now isn't this a great deal better.
p1337
sba(i__main__
Sentence
p1338
(dp1339
g17
I33
sg18
(lp1340
S'So'
p1341
aS'they'
p1342
aS'went'
p1343
aS'in'
p1344
aS','
p1345
aS'and'
p1346
aS'there'
p1347
aS'was'
p1348
aS'a'
p1349
aS'small'
p1350
aS'porch'
p1351
aS','
p1352
aS'and'
p1353
aS'a'
p1354
aS'pretty'
p1355
aS'little'
p1356
aS'parlor'
p1357
aS'and'
p1358
aS'bedroom'
p1359
aS','
p1360
aS'and'
p1361
aS'a'
p1362
aS'kitchen'
p1363
aS'and'
p1364
aS'pantry'
p1365
aS','
p1366
aS'with'
p1367
aS'the'
p1368
aS'best'
p1369
aS'of'
p1370
aS'furniture'
p1371
aS','
p1372
aS'and'
p1373
aS'fitted'
p1374
aS'up'
p1375
aS'with'
p1376
aS'the'
p1377
aS'most'
p1378
aS'beautiful'
p1379
aS'things'
p1380
aS'made'
p1381
aS'of'
p1382
aS'tin'
p1383
aS'and'
p1384
aS'brass'
p1385
aS','
p1386
aS'whatsoever'
p1387
aS'was'
p1388
aS'wanted'
p1389
aS'.'
p1390
asg49
(lp1391
VSo
p1392
aVthey
p1393
ag74
aVin
p1394
ag69
aVand
p1395
aVthere
p1396
ag52
ag55
aVsmall
p1397
aVporch
p1398
ag69
aVand
p1399
ag55
aVpretty
p1400
aVlittle
p1401
aVparlor
p1402
aVand
p1403
aVbedroom
p1404
ag69
aVand
p1405
ag55
aVkitchen
p1406
aVand
p1407
aVpantry
p1408
ag69
aVwith
p1409
aVthe
p1410
aVbest
p1411
aVof
p1412
aVfurniture
p1413
ag69
aVand
p1414
aVfit
p1415
aVup
p1416
aVwith
p1417
aVthe
p1418
aVmost
p1419
aVbeautiful
p1420
aVthing
p1421
aVmake
p1422
aVof
p1423
aVtin
p1424
aVand
p1425
aVbrass
p1426
ag69
aVwhatsoever
p1427
ag52
aVwant
p1428
ag77
asg78
(lp1429
g80
ag80
ag80
ag80
ag80
ag80
ag80
ag80
ag80
ag80
ag80
ag80
ag80
ag80
ag80
ag80
ag80
ag80
ag80
ag80
ag80
ag80
ag80
ag80
ag80
ag80
ag80
ag80
ag80
ag80
ag80
ag80
ag80
ag80
ag80
ag80
ag80
ag80
ag80
ag80
ag80
ag80
ag80
ag80
ag80
ag80
ag80
ag80
ag80
ag80
asg81
(lp1430
g86
ag95
ag84
ag86
ag93
ag94
ag83
ag84
ag87
ag92
ag88
ag93
ag94
ag87
ag85
ag92
ag88
ag94
ag88
ag93
ag94
ag87
ag88
ag94
ag88
ag93
ag86
ag87
aS'JJS'
p1431
ag86
ag88
ag93
ag94
ag84
ag220
ag86
ag87
aS'RBS'
p1432
ag92
ag417
ag90
ag86
ag88
ag94
ag88
ag93
ag85
ag84
ag90
ag96
asg97
VSo they went in, and there was a small porch, and a pretty little parlor and bedroom, and a kitchen and pantry, with the best of furniture, and fitted up with the most beautiful things made of tin and brass, whatsoever was wanted.
p1433
sba(i__main__
Sentence
p1434
(dp1435
g17
I34
sg18
(lp1436
S'And'
p1437
aS'behind'
p1438
aS'the'
p1439
aS'hut'
p1440
aS'there'
p1441
aS'was'
p1442
aS'a'
p1443
aS'small'
p1444
aS'yard'
p1445
aS','
p1446
aS'with'
p1447
aS'hens'
p1448
aS'and'
p1449
aS'ducks'
p1450
aS','
p1451
aS'and'
p1452
aS'a'
p1453
aS'little'
p1454
aS'garden'
p1455
aS'with'
p1456
aS'flowers'
p1457
aS'and'
p1458
aS'fruit'
p1459
aS'.'
p1460
asg49
(lp1461
VAnd
p1462
aVbehind
p1463
aVthe
p1464
aVhut
p1465
aVthere
p1466
ag52
ag55
aVsmall
p1467
aVyard
p1468
ag69
aVwith
p1469
aVhen
p1470
aVand
p1471
aVduck
p1472
ag69
aVand
p1473
ag55
aVlittle
p1474
aVgarden
p1475
aVwith
p1476
aVflower
p1477
aVand
p1478
aVfruit
p1479
ag77
asg78
(lp1480
g80
ag80
ag80
ag80
ag80
ag80
ag80
ag80
ag80
ag80
ag80
ag80
ag80
ag80
ag80
ag80
ag80
ag80
ag80
ag80
ag80
ag80
ag80
ag80
asg81
(lp1481
g94
ag86
ag87
ag88
ag85
ag84
ag87
ag92
ag88
ag93
ag86
ag417
ag94
ag417
ag93
ag94
ag87
ag85
ag90
ag86
ag417
ag94
ag88
ag96
asg97
VAnd behind the hut there was a  small yard, with hens and ducks, and a little garden with flowers and fruit.
p1482
sba(i__main__
Sentence
p1483
(dp1484
g17
I35
sg18
(lp1485
S'Look'
p1486
aS','
p1487
aS'said'
p1488
aS'the'
p1489
aS'wife'
p1490
aS','
p1491
aS'is'
p1492
aS'not'
p1493
aS'that'
p1494
aS'nice'
p1495
aS'.'
p1496
asg49
(lp1497
VLook
p1498
ag69
ag260
aVthe
p1499
aVwife
p1500
ag69
ag394
aVnot
p1501
aVthat
p1502
aVnice
p1503
ag77
asg78
(lp1504
g80
ag80
ag80
ag80
ag80
ag80
ag80
ag80
ag80
ag80
ag80
asg81
(lp1505
g415
ag93
ag84
ag87
ag88
ag93
ag416
ag85
ag86
ag92
ag96
asg97
VLook, said the wife, is not that nice.
p1506
sba(i__main__
Sentence
p1507
(dp1508
g17
I36
sg18
(lp1509
S'Yes'
p1510
aS','
p1511
aS'said'
p1512
aS'the'
p1513
aS'husband'
p1514
aS','
p1515
aS'and'
p1516
aS'so'
p1517
aS'it'
p1518
aS'shall'
p1519
aS'remain'
p1520
aS'-'
p1521
aS'now'
p1522
aS'we'
p1523
aS'will'
p1524
aS'live'
p1525
aS'quite'
p1526
aS'contented'
p1527
aS'.'
p1528
asg49
(lp1529
VYes
p1530
ag69
ag260
aVthe
p1531
aVhusband
p1532
ag69
aVand
p1533
aVso
p1534
aVit
p1535
aVshall
p1536
aVremain
p1537
ag403
aVnow
p1538
aVwe
p1539
aVwill
p1540
aVlive
p1541
aVquite
p1542
aVcontent
p1543
ag77
asg78
(lp1544
g80
ag80
ag80
ag80
ag80
ag80
ag80
ag80
ag80
ag80
ag80
ag80
ag80
ag80
ag80
ag80
ag80
ag80
ag80
asg81
(lp1545
g417
ag93
ag84
ag87
ag88
ag93
ag94
ag85
ag95
ag311
ag284
ag418
ag85
ag95
ag311
ag284
ag85
ag90
ag96
asg97
VYes, said the husband, and so it shall remain - now we will live quite contented.
p1546
sba(i__main__
Sentence
p1547
(dp1548
g17
I37
sg18
(lp1549
S'We'
p1550
aS'will'
p1551
aS'think'
p1552
aS'about'
p1553
aS'that'
p1554
aS'said'
p1555
aS'the'
p1556
aS'wife'
p1557
aS'.'
p1558
asg49
(lp1559
VWe
p1560
aVwill
p1561
aVthink
p1562
aVabout
p1563
aVthat
p1564
ag260
aVthe
p1565
aVwife
p1566
ag77
asg78
(lp1567
g80
ag80
ag80
ag80
ag80
ag80
ag80
ag80
ag80
asg81
(lp1568
g95
ag311
ag284
ag86
ag87
ag84
ag87
ag88
ag96
asg97
VWe will think about that said the wife.
p1569
sba(i__main__
Sentence
p1570
(dp1571
g17
I38
sg18
(lp1572
S'With'
p1573
aS'that'
p1574
aS'they'
p1575
aS'ate'
p1576
aS'something'
p1577
aS'and'
p1578
aS'went'
p1579
aS'to'
p1580
aS'bed'
p1581
aS'.'
p1582
asg49
(lp1583
VWith
p1584
aVthat
p1585
aVthey
p1586
aVeat
p1587
aVsomething
p1588
aVand
p1589
ag74
aVto
p1590
aVbed
p1591
ag77
asg78
(lp1592
g80
ag80
ag80
ag80
ag80
ag80
ag80
ag80
ag80
ag80
asg81
(lp1593
g86
ag87
ag95
ag283
ag88
ag94
ag84
ag282
ag90
ag96
asg97
VWith that they ate something and went to bed.
p1594
sba(i__main__
Sentence
p1595
(dp1596
g17
I39
sg18
(lp1597
S'Everything'
p1598
aS'went'
p1599
aS'well'
p1600
aS'for'
p1601
aS'a'
p1602
aS'week'
p1603
aS'or'
p1604
aS'a'
p1605
aS'fortnight'
p1606
aS','
p1607
aS'and'
p1608
aS'then'
p1609
aS'the'
p1610
aS'woman'
p1611
aS'said'
p1612
aS','
p1613
aS'hark'
p1614
aS'you'
p1615
aS','
p1616
aS'husband'
p1617
aS','
p1618
aS'this'
p1619
aS'hut'
p1620
aS'is'
p1621
aS'far'
p1622
aS'too'
p1623
aS'small'
p1624
aS'for'
p1625
aS'us'
p1626
aS','
p1627
aS'and'
p1628
aS'the'
p1629
aS'garden'
p1630
aS'and'
p1631
aS'yard'
p1632
aS'are'
p1633
aS'little'
p1634
aS'.'
p1635
asg49
(lp1636
VEverything
p1637
ag74
aVwell
p1638
aVfor
p1639
ag55
aVweek
p1640
aVor
p1641
ag55
aVfortnight
p1642
ag69
aVand
p1643
aVthen
p1644
aVthe
p1645
aVwoman
p1646
ag260
ag69
aVhark
p1647
aVyou
p1648
ag69
aVhusband
p1649
ag69
aVthis
p1650
aVhut
p1651
ag394
aVfar
p1652
aVtoo
p1653
aVsmall
p1654
aVfor
p1655
ag723
ag69
aVand
p1656
aVthe
p1657
aVgarden
p1658
aVand
p1659
aVyard
p1660
aVbe
p1661
aVlittle
p1662
ag77
asg78
(lp1663
g80
ag80
ag80
ag80
ag80
ag80
ag80
ag80
ag80
ag80
ag80
ag80
ag80
ag80
ag80
ag80
ag80
ag80
ag80
ag80
ag80
ag80
ag80
ag80
ag80
ag80
ag80
ag80
ag80
ag80
ag80
ag80
ag80
ag80
ag80
ag80
ag80
ag80
asg81
(lp1664
g88
ag84
ag85
ag86
ag87
ag88
ag94
ag87
ag88
ag93
ag94
ag85
ag87
ag88
ag84
ag93
ag88
ag95
ag93
ag283
ag93
ag87
ag88
ag416
ag85
ag85
ag92
ag86
ag95
ag93
ag94
ag87
ag88
ag94
ag88
ag283
ag92
ag96
asg97
VEverything went well for a week or a fortnight, and then the woman said, hark you, husband, this hut is far too small for us, and the garden and yard are little.
p1665
sba(i__main__
Sentence
p1666
(dp1667
g17
I40
sg18
(lp1668
S'The'
p1669
aS'flounder'
p1670
aS'might'
p1671
aS'just'
p1672
aS'as'
p1673
aS'well'
p1674
aS'have'
p1675
aS'given'
p1676
aS'us'
p1677
aS'a'
p1678
aS'larger'
p1679
aS'house'
p1680
aS'.'
p1681
asg49
(lp1682
VThe
p1683
aVflounder
p1684
aVmight
p1685
aVjust
p1686
aVas
p1687
aVwell
p1688
aVhave
p1689
aVgive
p1690
ag723
ag55
aVlarge
p1691
aVhouse
p1692
ag77
asg78
(lp1693
g80
ag80
ag80
ag80
ag80
ag80
ag80
ag80
ag80
ag80
ag80
ag80
ag80
asg81
(lp1694
g87
ag88
ag311
ag85
ag85
ag85
ag283
ag90
ag95
ag87
aS'JJR'
p1695
ag88
ag96
asg97
VThe flounder might just as well have given us a larger house.
p1696
sba(i__main__
Sentence
p1697
(dp1698
g17
I41
sg18
(lp1699
S'I'
p1700
aS'should'
p1701
aS'like'
p1702
aS'to'
p1703
aS'live'
p1704
aS'in'
p1705
aS'a'
p1706
aS'great'
p1707
aS'stone'
p1708
aS'castle'
p1709
aS'.'
p1710
asg49
(lp1711
g266
aVshould
p1712
aVlike
p1713
aVto
p1714
aVlive
p1715
aVin
p1716
ag55
aVgreat
p1717
aVstone
p1718
aVcastle
p1719
ag77
asg78
(lp1720
g80
ag80
ag80
ag80
ag80
ag80
ag80
ag80
ag80
ag80
ag80
asg81
(lp1721
g95
ag311
ag284
ag282
ag284
ag86
ag87
ag92
ag88
ag88
ag96
asg97
VI should like to live in a great stone castle.
p1722
sba(i__main__
Sentence
p1723
(dp1724
g17
I42
sg18
(lp1725
S'Go'
p1726
aS'to'
p1727
aS'the'
p1728
aS'flounder'
p1729
aS','
p1730
aS'and'
p1731
aS'tell'
p1732
aS'him'
p1733
aS'to'
p1734
aS'give'
p1735
aS'us'
p1736
aS'a'
p1737
aS'castle'
p1738
aS'.'
p1739
asg49
(lp1740
VGo
p1741
aVto
p1742
aVthe
p1743
aVflounder
p1744
ag69
aVand
p1745
aVtell
p1746
aVhim
p1747
aVto
p1748
aVgive
p1749
ag723
ag55
aVcastle
p1750
ag77
asg78
(lp1751
g80
ag80
ag80
ag80
ag80
ag80
ag80
ag80
ag80
ag80
ag80
ag80
ag80
ag80
asg81
(lp1752
g415
ag282
ag87
ag88
ag93
ag94
ag88
ag95
ag282
ag284
ag95
ag87
ag88
ag96
asg97
VGo to the flounder, and tell him to give us a castle.
p1753
sba(i__main__
Sentence
p1754
(dp1755
g17
I43
sg18
(lp1756
S'Ah'
p1757
aS','
p1758
aS'wife'
p1759
aS','
p1760
aS'said'
p1761
aS'the'
p1762
aS'man'
p1763
aS','
p1764
aS'the'
p1765
aS'hut'
p1766
aS'is'
p1767
aS'quite'
p1768
aS'good'
p1769
aS'enough'
p1770
aS'.'
p1771
asg49
(lp1772
VAh
p1773
ag69
aVwife
p1774
ag69
ag260
aVthe
p1775
aVman
p1776
ag69
aVthe
p1777
aVhut
p1778
ag394
aVquite
p1779
aVgood
p1780
aVenough
p1781
ag77
asg78
(lp1782
g80
ag80
ag80
ag80
ag80
ag80
ag80
ag80
ag80
ag80
ag80
ag80
ag80
ag80
ag80
asg81
(lp1783
g415
ag93
ag88
ag93
ag84
ag87
ag88
ag93
ag87
ag88
ag416
ag85
ag92
ag85
ag96
asg97
VAh, wife, said the man, the hut is quite good enough.
p1784
sba(i__main__
Sentence
p1785
(dp1786
g17
I44
sg18
(lp1787
S'Why'
p1788
aS'whould'
p1789
aS'we'
p1790
aS'live'
p1791
aS'in'
p1792
aS'a'
p1793
aS'castle'
p1794
aS'.'
p1795
asg49
(lp1796
VWhy
p1797
aVwhould
p1798
aVwe
p1799
aVlive
p1800
aVin
p1801
ag55
aVcastle
p1802
ag77
asg78
(lp1803
g80
ag80
ag80
ag80
ag80
ag80
ag80
ag80
asg81
(lp1804
g219
ag311
ag95
ag284
ag86
ag87
ag88
ag96
asg97
VWhy whould we live in a castle.
p1805
sba(i__main__
Sentence
p1806
(dp1807
g17
I45
sg18
(lp1808
S'What'
p1809
aS'.'
p1810
asg49
(lp1811
VWhat
p1812
ag77
asg78
(lp1813
g80
ag80
asg81
(lp1814
g89
ag96
asg97
VWhat.
p1815
sba(i__main__
Sentence
p1816
(dp1817
g17
I46
sg18
(lp1818
S'Said'
p1819
aS'the'
p1820
aS'woman'
p1821
aS'.'
p1822
asg49
(lp1823
VSaid
p1824
aVthe
p1825
aVwoman
p1826
ag77
asg78
(lp1827
g80
ag80
ag80
ag80
asg81
(lp1828
g415
ag87
ag88
ag96
asg97
VSaid the woman.
p1829
sba(i__main__
Sentence
p1830
(dp1831
g17
I47
sg18
(lp1832
S'Just'
p1833
aS'go'
p1834
aS'there'
p1835
aS','
p1836
aS'the'
p1837
aS'flounder'
p1838
aS'can'
p1839
aS'always'
p1840
aS'do'
p1841
aS'that'
p1842
aS'.'
p1843
asg49
(lp1844
VJust
p1845
aVgo
p1846
aVthere
p1847
ag69
aVthe
p1848
aVflounder
p1849
aVcan
p1850
aValways
p1851
aVdo
p1852
aVthat
p1853
ag77
asg78
(lp1854
g80
ag80
ag80
ag80
ag80
ag80
ag80
ag80
ag80
ag80
ag80
asg81
(lp1855
g85
ag283
ag85
ag93
ag87
ag88
ag311
ag85
ag284
ag86
ag96
asg97
VJust go there, the flounder can always do that.
p1856
sba(i__main__
Sentence
p1857
(dp1858
g17
I48
sg18
(lp1859
S'No'
p1860
aS','
p1861
aS'wife'
p1862
aS','
p1863
aS'said'
p1864
aS'the'
p1865
aS'man'
p1866
aS','
p1867
aS'the'
p1868
aS'flounder'
p1869
aS'has'
p1870
aS'just'
p1871
aS'given'
p1872
aS'us'
p1873
aS'the'
p1874
aS'hut'
p1875
aS','
p1876
aS'I'
p1877
aS'do'
p1878
aS'not'
p1879
aS'like'
p1880
aS'to'
p1881
aS'go'
p1882
aS'back'
p1883
aS'so'
p1884
aS'soon'
p1885
aS','
p1886
aS'it'
p1887
aS'might'
p1888
aS'make'
p1889
aS'him'
p1890
aS'angry'
p1891
aS'.'
p1892
asg49
(lp1893
VNo
p1894
ag69
aVwife
p1895
ag69
ag260
aVthe
p1896
aVman
p1897
ag69
aVthe
p1898
aVflounder
p1899
ag1204
aVjust
p1900
ag1690
ag723
aVthe
p1901
aVhut
p1902
ag69
ag266
aVdo
p1903
aVnot
p1904
aVlike
p1905
aVto
p1906
aVgo
p1907
aVback
p1908
aVso
p1909
aVsoon
p1910
ag69
aVit
p1911
aVmight
p1912
aVmake
p1913
aVhim
p1914
aVangry
p1915
ag77
asg78
(lp1916
g80
ag80
ag80
ag80
ag80
ag80
ag80
ag80
ag80
ag80
ag80
ag80
ag80
ag80
ag80
ag80
ag80
ag80
ag80
ag80
ag80
ag80
ag80
ag80
ag80
ag80
ag80
ag80
ag80
ag80
ag80
ag80
ag80
asg81
(lp1917
g87
ag93
ag88
ag93
ag84
ag87
ag88
ag93
ag87
ag88
ag416
ag85
ag90
ag95
ag87
ag88
ag93
ag95
ag283
ag85
ag284
ag282
ag284
ag85
ag85
ag85
ag93
ag95
ag311
ag284
ag95
ag92
ag96
asg97
VNo, wife, said the man, the flounder has just given us the hut, I do not like to go back so soon, it might make him angry.
p1918
sba(i__main__
Sentence
p1919
(dp1920
g17
I49
sg18
(lp1921
S'Go'
p1922
aS','
p1923
aS'said'
p1924
aS'the'
p1925
aS'woman'
p1926
aS','
p1927
aS'he'
p1928
aS'can'
p1929
aS'do'
p1930
aS'it'
p1931
aS'quite'
p1932
aS'easily'
p1933
aS','
p1934
aS'and'
p1935
aS'will'
p1936
aS'be'
p1937
aS'glad'
p1938
aS'to'
p1939
aS'do'
p1940
aS'it'
p1941
aS'.'
p1942
asg49
(lp1943
VGo
p1944
ag69
ag260
aVthe
p1945
aVwoman
p1946
ag69
aVhe
p1947
aVcan
p1948
aVdo
p1949
aVit
p1950
aVquite
p1951
aVeasily
p1952
ag69
aVand
p1953
aVwill
p1954
aVbe
p1955
aVglad
p1956
aVto
p1957
aVdo
p1958
aVit
p1959
ag77
asg78
(lp1960
g80
ag80
ag80
ag80
ag80
ag80
ag80
ag80
ag80
ag80
ag80
ag80
ag80
ag80
ag80
ag80
ag80
ag80
ag80
ag80
ag80
asg81
(lp1961
g415
ag93
ag84
ag87
ag88
ag93
ag95
ag311
ag284
ag95
ag284
ag85
ag93
ag94
ag311
ag284
ag90
ag282
ag284
ag95
ag96
asg97
VGo, said the woman, he can do it quite easily, and will be glad to do it.
p1962
sba(i__main__
Sentence
p1963
(dp1964
g17
I50
sg18
(lp1965
S'Just'
p1966
aS'you'
p1967
aS'go'
p1968
aS'to'
p1969
aS'him'
p1970
aS'.'
p1971
asg49
(lp1972
VJust
p1973
aVyou
p1974
aVgo
p1975
aVto
p1976
aVhim
p1977
ag77
asg78
(lp1978
g80
ag80
ag80
ag80
ag80
ag80
asg81
(lp1979
g85
ag95
ag283
ag282
ag95
ag96
asg97
VJust you go to him.
p1980
sba(i__main__
Sentence
p1981
(dp1982
g17
I51
sg18
(lp1983
S'The'
p1984
aS'man'
p1985
aS"'s"
p1986
aS'heart'
p1987
aS'grew'
p1988
aS'heavy'
p1989
aS','
p1990
aS'and'
p1991
aS'he'
p1992
aS'would'
p1993
aS'not'
p1994
aS'go'
p1995
aS'.'
p1996
asg49
(lp1997
VThe
p1998
aVman
p1999
aV's
p2000
aVheart
p2001
aVgrow
p2002
aVheavy
p2003
ag69
aVand
p2004
aVhe
p2005
aVwould
p2006
aVnot
p2007
aVgo
p2008
ag77
asg78
(lp2009
g80
ag80
ag80
ag80
ag80
ag80
ag80
ag80
ag80
ag80
ag80
ag80
ag80
asg81
(lp2010
g87
ag88
aS'POS'
p2011
ag88
ag84
ag92
ag93
ag94
ag95
ag311
ag85
ag284
ag96
asg97
VThe man's heart grew heavy, and he would not go.
p2012
sba(i__main__
Sentence
p2013
(dp2014
g17
I52
sg18
(lp2015
S'He'
p2016
aS'said'
p2017
aS'to'
p2018
aS'himself'
p2019
aS','
p2020
aS'it'
p2021
aS'is'
p2022
aS'not'
p2023
aS'right'
p2024
aS','
p2025
aS'and'
p2026
aS'yet'
p2027
aS'he'
p2028
aS'went'
p2029
aS'.'
p2030
asg49
(lp2031
VHe
p2032
ag260
aVto
p2033
aVhimself
p2034
ag69
aVit
p2035
ag394
aVnot
p2036
aVright
p2037
ag69
aVand
p2038
aVyet
p2039
aVhe
p2040
ag74
ag77
asg78
(lp2041
g80
ag80
ag80
ag80
ag80
ag80
ag80
ag80
ag80
ag80
ag80
ag80
ag80
ag80
ag80
asg81
(lp2042
g95
ag84
ag282
ag95
ag93
ag95
ag416
ag85
ag85
ag93
ag94
ag85
ag95
ag84
ag96
asg97
VHe said to himself, it is not right, and yet he went.
p2043
sba(i__main__
Sentence
p2044
(dp2045
g17
I53
sg18
(lp2046
S'And'
p2047
aS'when'
p2048
aS'he'
p2049
aS'came'
p2050
aS'to'
p2051
aS'the'
p2052
aS'sea'
p2053
aS'the'
p2054
aS'water'
p2055
aS'was'
p2056
aS'quite'
p2057
aS'purple'
p2058
aS'and'
p2059
aS'dark-blue'
p2060
aS','
p2061
aS'and'
p2062
aS'grey'
p2063
aS'and'
p2064
aS'thick'
p2065
aS','
p2066
aS'and'
p2067
aS'no'
p2068
aS'longer'
p2069
aS'so'
p2070
aS'green'
p2071
aS'and'
p2072
aS'yellow'
p2073
aS','
p2074
aS'but'
p2075
aS'it'
p2076
aS'was'
p2077
aS'still'
p2078
aS'quiet'
p2079
aS'.'
p2080
asg49
(lp2081
VAnd
p2082
aVwhen
p2083
aVhe
p2084
ag1071
aVto
p2085
aVthe
p2086
aVsea
p2087
aVthe
p2088
aVwater
p2089
ag52
aVquite
p2090
aVpurple
p2091
aVand
p2092
aVdark-blue
p2093
ag69
aVand
p2094
aVgrey
p2095
aVand
p2096
aVthick
p2097
ag69
aVand
p2098
aVno
p2099
aVlonger
p2100
aVso
p2101
aVgreen
p2102
aVand
p2103
aVyellow
p2104
ag69
aVbut
p2105
aVit
p2106
ag52
aVstill
p2107
aVquiet
p2108
ag77
asg78
(lp2109
g80
ag80
ag80
ag80
ag80
ag80
ag80
ag80
ag80
ag80
ag80
ag80
ag80
ag80
ag80
ag80
ag80
ag80
ag80
ag80
ag80
ag80
ag80
ag80
ag80
ag80
ag80
ag80
ag80
ag80
ag80
ag80
ag80
ag80
asg81
(lp2110
g94
ag219
ag95
ag84
ag282
ag87
ag88
ag87
ag88
ag84
ag85
ag92
ag94
ag92
ag93
ag94
ag88
ag94
ag88
ag93
ag94
ag87
ag88
ag86
ag92
ag94
ag92
ag93
ag94
ag95
ag84
ag85
ag92
ag96
asg97
VAnd when he came to the sea the water was quite purple and dark-blue, and grey and thick, and no longer so green and yellow, but it was still quiet.
p2111
sba(i__main__
Sentence
p2112
(dp2113
g17
I54
sg18
(lp2114
S'And'
p2115
aS'he'
p2116
aS'stood'
p2117
aS'there'
p2118
aS'and'
p2119
aS'said'
p2120
aS','
p2121
aS'flounder'
p2122
aS','
p2123
aS'flounder'
p2124
aS'in'
p2125
aS'the'
p2126
aS'sea'
p2127
aS','
p2128
aS'come'
p2129
aS','
p2130
aS'I'
p2131
aS'pray'
p2132
aS'thee'
p2133
aS','
p2134
aS'here'
p2135
aS'to'
p2136
aS'me'
p2137
aS'.'
p2138
asg49
(lp2139
VAnd
p2140
aVhe
p2141
ag995
aVthere
p2142
aVand
p2143
ag260
ag69
aVflounder
p2144
ag69
aVflounder
p2145
aVin
p2146
aVthe
p2147
aVsea
p2148
ag69
aVcome
p2149
ag69
ag266
aVpray
p2150
aVthee
p2151
ag69
aVhere
p2152
aVto
p2153
aVme
p2154
ag77
asg78
(lp2155
g80
ag80
ag80
ag80
ag80
ag80
ag80
ag80
ag80
ag80
ag80
ag80
ag80
ag80
ag80
ag80
ag80
ag80
ag80
ag80
ag80
ag80
ag80
ag80
asg81
(lp2156
g94
ag95
ag84
ag85
ag94
ag84
ag93
ag88
ag93
ag88
ag86
ag87
ag88
ag93
ag283
ag93
ag95
ag283
ag92
ag93
ag85
ag282
ag95
ag96
asg97
VAnd he stood there and said,           flounder, flounder in the sea,           come, I pray thee, here to me.
p2157
sba(i__main__
Sentence
p2158
(dp2159
g17
I55
sg18
(lp2160
S'For'
p2161
aS'my'
p2162
aS'wife'
p2163
aS','
p2164
aS'good'
p2165
aS'ilsabil'
p2166
aS','
p2167
aS'wills'
p2168
aS'not'
p2169
aS'as'
p2170
aS'I'
p2171
aS"'d"
p2172
aS'have'
p2173
aS'her'
p2174
aS'will'
p2175
aS'.'
p2176
asg49
(lp2177
VFor
p2178
aVmy
p2179
aVwife
p2180
ag69
aVgood
p2181
aVilsabil
p2182
ag69
aVwill
p2183
aVnot
p2184
ag55
ag266
aV'd
p2185
aVhave
p2186
aVher
p2187
aVwill
p2188
ag77
asg78
(lp2189
g80
ag80
ag80
ag80
ag80
ag80
ag80
ag80
ag80
ag80
ag80
ag80
ag80
ag80
ag80
ag80
asg81
(lp2190
g86
ag91
ag88
ag93
ag92
ag88
ag93
ag417
ag85
ag86
ag95
ag311
ag284
ag91
ag311
ag96
asg97
VFor my wife, good ilsabil,           wills not as I'd have her will.
p2191
sba(i__main__
Sentence
p2192
(dp2193
g17
I56
sg18
(lp2194
S'Well'
p2195
aS','
p2196
aS'what'
p2197
aS'does'
p2198
aS'she'
p2199
aS'want'
p2200
aS','
p2201
aS'now'
p2202
aS','
p2203
aS'said'
p2204
aS'the'
p2205
aS'flounder'
p2206
aS'.'
p2207
asg49
(lp2208
VWell
p2209
ag69
aVwhat
p2210
aVdo
p2211
aVshe
p2212
aVwant
p2213
ag69
aVnow
p2214
ag69
ag260
aVthe
p2215
aVflounder
p2216
ag77
asg78
(lp2217
g80
ag80
ag80
ag80
ag80
ag80
ag80
ag80
ag80
ag80
ag80
ag80
ag80
asg81
(lp2218
g415
ag93
ag89
ag416
ag95
ag283
ag93
ag85
ag93
ag84
ag87
ag88
ag96
asg97
VWell, what does she want, now, said the flounder.
p2219
sba(i__main__
Sentence
p2220
(dp2221
g17
I57
sg18
(lp2222
S'Alas'
p2223
aS','
p2224
aS'said'
p2225
aS'the'
p2226
aS'man'
p2227
aS','
p2228
aS'half'
p2229
aS'scared'
p2230
aS','
p2231
aS'she'
p2232
aS'wants'
p2233
aS'to'
p2234
aS'live'
p2235
aS'in'
p2236
aS'a'
p2237
aS'great'
p2238
aS'stone'
p2239
aS'castle'
p2240
aS'.'
p2241
asg49
(lp2242
VAlas
p2243
ag69
ag260
aVthe
p2244
aVman
p2245
ag69
aVhalf
p2246
aVscared
p2247
ag69
aVshe
p2248
aVwant
p2249
aVto
p2250
aVlive
p2251
aVin
p2252
ag55
aVgreat
p2253
aVstone
p2254
aVcastle
p2255
ag77
asg78
(lp2256
g80
ag80
ag80
ag80
ag80
ag80
ag80
ag80
ag80
ag80
ag80
ag80
ag80
ag80
ag80
ag80
ag80
ag80
ag80
asg81
(lp2257
g415
ag93
ag84
ag87
ag88
ag93
ag87
ag92
ag93
ag95
ag416
ag282
ag284
ag86
ag87
ag92
ag88
ag88
ag96
asg97
VAlas, said the man, half scared, she wants to live in a great stone castle.
p2258
sba(i__main__
Sentence
p2259
(dp2260
g17
I58
sg18
(lp2261
S'Go'
p2262
aS'to'
p2263
aS'it'
p2264
aS','
p2265
aS'then'
p2266
aS','
p2267
aS'she'
p2268
aS'is'
p2269
aS'standing'
p2270
aS'before'
p2271
aS'the'
p2272
aS'door'
p2273
aS','
p2274
aS'said'
p2275
aS'the'
p2276
aS'flounder'
p2277
aS'.'
p2278
asg49
(lp2279
VGo
p2280
aVto
p2281
aVit
p2282
ag69
aVthen
p2283
ag69
aVshe
p2284
ag394
aVstand
p2285
aVbefore
p2286
aVthe
p2287
aVdoor
p2288
ag69
ag260
aVthe
p2289
aVflounder
p2290
ag77
asg78
(lp2291
g80
ag80
ag80
ag80
ag80
ag80
ag80
ag80
ag80
ag80
ag80
ag80
ag80
ag80
ag80
ag80
ag80
asg81
(lp2292
g415
ag282
ag95
ag93
ag85
ag93
ag95
ag416
ag165
ag86
ag87
ag88
ag93
ag84
ag87
ag88
ag96
asg97
VGo to it, then, she is standing before the door, said the flounder.
p2293
sba(i__main__
Sentence
p2294
(dp2295
g17
I59
sg18
(lp2296
S'Then'
p2297
aS'the'
p2298
aS'man'
p2299
aS'went'
p2300
aS'away'
p2301
aS','
p2302
aS'intending'
p2303
aS'to'
p2304
aS'go'
p2305
aS'home'
p2306
aS','
p2307
aS'but'
p2308
aS'when'
p2309
aS'he'
p2310
aS'got'
p2311
aS'there'
p2312
aS','
p2313
aS'he'
p2314
aS'found'
p2315
aS'a'
p2316
aS'great'
p2317
aS'stone'
p2318
aS'palace'
p2319
aS','
p2320
aS'and'
p2321
aS'his'
p2322
aS'wife'
p2323
aS'was'
p2324
aS'just'
p2325
aS'standing'
p2326
aS'on'
p2327
aS'the'
p2328
aS'steps'
p2329
aS'going'
p2330
aS'in'
p2331
aS','
p2332
aS'and'
p2333
aS'she'
p2334
aS'took'
p2335
aS'him'
p2336
aS'by'
p2337
aS'the'
p2338
aS'hand'
p2339
aS'and'
p2340
aS'said'
p2341
aS','
p2342
aS'come'
p2343
aS'in'
p2344
aS'.'
p2345
asg49
(lp2346
VThen
p2347
aVthe
p2348
aVman
p2349
ag74
aVaway
p2350
ag69
aVintend
p2351
aVto
p2352
aVgo
p2353
aVhome
p2354
ag69
aVbut
p2355
aVwhen
p2356
aVhe
p2357
ag504
aVthere
p2358
ag69
aVhe
p2359
aVfind
p2360
ag55
aVgreat
p2361
aVstone
p2362
aVpalace
p2363
ag69
aVand
p2364
aVhis
p2365
aVwife
p2366
ag52
aVjust
p2367
aVstand
p2368
aVon
p2369
aVthe
p2370
aVstep
p2371
aVgo
p2372
aVin
p2373
ag69
aVand
p2374
aVshe
p2375
ag1298
aVhim
p2376
aVby
p2377
aVthe
p2378
aVhand
p2379
aVand
p2380
ag260
ag69
aVcome
p2381
aVin
p2382
ag77
asg78
(lp2383
g80
ag80
ag80
ag80
ag80
ag80
ag80
ag80
ag80
ag80
ag80
ag80
ag80
ag80
ag80
ag80
ag80
ag80
ag80
ag80
ag80
ag80
ag80
ag80
ag80
ag80
ag80
ag80
ag80
ag80
ag80
ag80
ag80
ag80
ag80
ag80
ag80
ag80
ag80
ag80
ag80
ag80
ag80
ag80
ag80
ag80
ag80
ag80
ag80
asg81
(lp2384
g85
ag87
ag88
ag84
ag85
ag93
ag165
ag282
ag284
ag85
ag93
ag94
ag219
ag95
ag84
ag85
ag93
ag95
ag84
ag87
ag92
ag88
ag88
ag93
ag94
ag91
ag88
ag84
ag85
ag165
ag86
ag87
ag417
ag165
ag86
ag93
ag94
ag95
ag84
ag95
ag86
ag87
ag88
ag94
ag84
ag93
ag90
ag86
ag96
asg97
VThen the man went away, intending to go home, but when he got there, he found a great stone palace, and his wife was just standing on the steps going in, and she took him by the hand and said, come in.
p2385
sba(i__main__
Sentence
p2386
(dp2387
g17
I60
sg18
(lp2388
S'So'
p2389
aS'he'
p2390
aS'went'
p2391
aS'in'
p2392
aS'with'
p2393
aS'her'
p2394
aS','
p2395
aS'and'
p2396
aS'in'
p2397
aS'the'
p2398
aS'castle'
p2399
aS'was'
p2400
aS'a'
p2401
aS'great'
p2402
aS'hall'
p2403
aS'paved'
p2404
aS'with'
p2405
aS'marble'
p2406
aS','
p2407
aS'and'
p2408
aS'many'
p2409
aS'servants'
p2410
aS','
p2411
aS'who'
p2412
aS'flung'
p2413
aS'wide'
p2414
aS'the'
p2415
aS'doors'
p2416
aS'.'
p2417
asg49
(lp2418
VSo
p2419
aVhe
p2420
ag74
aVin
p2421
aVwith
p2422
aVher
p2423
ag69
aVand
p2424
aVin
p2425
aVthe
p2426
aVcastle
p2427
ag52
ag55
aVgreat
p2428
aVhall
p2429
aVpave
p2430
aVwith
p2431
aVmarble
p2432
ag69
aVand
p2433
aVmany
p2434
aVservant
p2435
ag69
aVwho
p2436
aVflung
p2437
aVwide
p2438
aVthe
p2439
aVdoor
p2440
ag77
asg78
(lp2441
g80
ag80
ag80
ag80
ag80
ag80
ag80
ag80
ag80
ag80
ag80
ag80
ag80
ag80
ag80
ag80
ag80
ag80
ag80
ag80
ag80
ag80
ag80
ag80
ag80
ag80
ag80
ag80
ag80
asg81
(lp2442
g86
ag95
ag84
ag86
ag86
ag91
ag93
ag94
ag86
ag87
ag88
ag84
ag87
ag92
ag88
ag84
ag86
ag92
ag93
ag94
ag92
ag417
ag93
ag89
ag88
ag283
ag87
ag417
ag96
asg97
VSo he went in with her, and in the castle was a great hall paved with marble, and many servants, who flung wide the doors.
p2443
sba(i__main__
Sentence
p2444
(dp2445
g17
I61
sg18
(lp2446
S'And'
p2447
aS'the'
p2448
aS'walls'
p2449
aS'were'
p2450
aS'all'
p2451
aS'bright'
p2452
aS'with'
p2453
aS'beautiful'
p2454
aS'hangings'
p2455
aS','
p2456
aS'and'
p2457
aS'in'
p2458
aS'the'
p2459
aS'rooms'
p2460
aS'were'
p2461
aS'chairs'
p2462
aS'and'
p2463
aS'tables'
p2464
aS'of'
p2465
aS'pure'
p2466
aS'gold'
p2467
aS','
p2468
aS'and'
p2469
aS'crystal'
p2470
aS'chandeliers'
p2471
aS'hung'
p2472
aS'from'
p2473
aS'the'
p2474
aS'ceiling'
p2475
aS','
p2476
aS'and'
p2477
aS'all'
p2478
aS'the'
p2479
aS'rooms'
p2480
aS'and'
p2481
aS'bedrooms'
p2482
aS'had'
p2483
aS'carpets'
p2484
aS','
p2485
aS'and'
p2486
aS'food'
p2487
aS'and'
p2488
aS'wine'
p2489
aS'of'
p2490
aS'the'
p2491
aS'very'
p2492
aS'best'
p2493
aS'were'
p2494
aS'standing'
p2495
aS'on'
p2496
aS'all'
p2497
aS'the'
p2498
aS'tables'
p2499
aS','
p2500
aS'so'
p2501
aS'that'
p2502
aS'they'
p2503
aS'nearly'
p2504
aS'broke'
p2505
aS'down'
p2506
aS'beneath'
p2507
aS'it'
p2508
aS'.'
p2509
asg49
(lp2510
VAnd
p2511
aVthe
p2512
aVwall
p2513
aVbe
p2514
aVall
p2515
aVbright
p2516
aVwith
p2517
aVbeautiful
p2518
aVhanging
p2519
ag69
aVand
p2520
aVin
p2521
aVthe
p2522
aVroom
p2523
ag2514
aVchair
p2524
aVand
p2525
aVtable
p2526
aVof
p2527
aVpure
p2528
aVgold
p2529
ag69
aVand
p2530
aVcrystal
p2531
aVchandelier
p2532
aVhang
p2533
aVfrom
p2534
aVthe
p2535
aVceiling
p2536
ag69
aVand
p2537
aVall
p2538
aVthe
p2539
aVroom
p2540
aVand
p2541
aVbedroom
p2542
aVhave
p2543
aVcarpet
p2544
ag69
aVand
p2545
aVfood
p2546
aVand
p2547
aVwine
p2548
aVof
p2549
aVthe
p2550
aVvery
p2551
aVbest
p2552
ag2514
aVstand
p2553
aVon
p2554
aVall
p2555
aVthe
p2556
aVtable
p2557
ag69
aVso
p2558
aVthat
p2559
aVthey
p2560
aVnearly
p2561
aVbreak
p2562
aVdown
p2563
aVbeneath
p2564
aVit
p2565
ag77
asg78
(lp2566
g80
ag80
ag80
ag80
ag80
ag80
ag80
ag80
ag80
ag80
ag80
ag80
ag80
ag80
ag80
ag80
ag80
ag80
ag80
ag80
ag80
ag80
ag80
ag80
ag80
ag80
ag80
ag80
ag80
ag80
ag80
ag80
ag80
ag80
ag80
ag80
ag80
ag80
ag80
ag80
ag80
ag80
ag80
ag80
ag80
ag80
ag80
ag80
ag80
ag80
ag80
ag80
ag80
ag80
ag80
ag80
ag80
ag80
ag80
ag80
ag80
ag80
ag80
asg81
(lp2567
g94
ag87
ag417
ag84
ag87
ag92
ag86
ag92
ag417
ag93
ag94
ag86
ag87
ag417
ag84
ag417
ag94
ag417
ag86
ag88
ag88
ag93
ag94
ag88
ag417
ag283
ag86
ag87
ag88
ag93
ag94
ag87
ag87
ag417
ag94
ag417
ag84
ag417
ag93
ag94
ag88
ag94
ag88
ag86
ag87
ag92
ag1431
ag84
ag165
ag86
ag87
ag87
ag417
ag93
ag85
ag86
ag95
ag85
ag283
ag86
ag88
ag95
ag96
asg97
VAnd the walls were all bright with beautiful hangings, and in the rooms were chairs and tables of pure gold, and crystal chandeliers hung from the ceiling, and all the rooms and bedrooms had carpets, and food and wine of the very best were standing on all the tables, so that they nearly broke down beneath it.
p2568
sba(i__main__
Sentence
p2569
(dp2570
g17
I62
sg18
(lp2571
S'Behind'
p2572
aS'the'
p2573
aS'house'
p2574
aS','
p2575
aS'too'
p2576
aS','
p2577
aS'there'
p2578
aS'was'
p2579
aS'a'
p2580
aS'great'
p2581
aS'court-yard'
p2582
aS','
p2583
aS'with'
p2584
aS'stables'
p2585
aS'for'
p2586
aS'horses'
p2587
aS'and'
p2588
aS'cows'
p2589
aS','
p2590
aS'and'
p2591
aS'the'
p2592
aS'very'
p2593
aS'best'
p2594
aS'of'
p2595
aS'carriages'
p2596
aS'.'
p2597
asg49
(lp2598
VBehind
p2599
aVthe
p2600
aVhouse
p2601
ag69
aVtoo
p2602
ag69
aVthere
p2603
ag52
ag55
aVgreat
p2604
aVcourt-yard
p2605
ag69
aVwith
p2606
aVstable
p2607
aVfor
p2608
aVhorse
p2609
aVand
p2610
aVcow
p2611
ag69
aVand
p2612
aVthe
p2613
aVvery
p2614
aVbest
p2615
aVof
p2616
aVcarriage
p2617
ag77
asg78
(lp2618
g80
ag80
ag80
ag80
ag80
ag80
ag80
ag80
ag80
ag80
ag80
ag80
ag80
ag80
ag80
ag80
ag80
ag80
ag80
ag80
ag80
ag80
ag80
ag80
ag80
ag80
asg81
(lp2619
g86
ag87
ag88
ag93
ag85
ag93
ag83
ag84
ag87
ag92
ag92
ag93
ag86
ag417
ag86
ag417
ag94
ag416
ag93
ag94
ag87
ag92
ag1431
ag86
ag417
ag96
asg97
VBehind the house, too, there was a great court-yard, with stables for horses and cows, and the very best of carriages.
p2620
sba(i__main__
Sentence
p2621
(dp2622
g17
I63
sg18
(lp2623
S'There'
p2624
aS'was'
p2625
aS'a'
p2626
aS'magnificent'
p2627
aS'large'
p2628
aS'garden'
p2629
aS','
p2630
aS'too'
p2631
aS','
p2632
aS'with'
p2633
aS'the'
p2634
aS'most'
p2635
aS'beautiful'
p2636
aS'flowers'
p2637
aS'and'
p2638
aS'fruit-trees'
p2639
aS','
p2640
aS'and'
p2641
aS'a'
p2642
aS'park'
p2643
aS'quite'
p2644
aS'half'
p2645
aS'a'
p2646
aS'mile'
p2647
aS'long'
p2648
aS','
p2649
aS'in'
p2650
aS'which'
p2651
aS'were'
p2652
aS'stags'
p2653
aS','
p2654
aS'deer'
p2655
aS','
p2656
aS'and'
p2657
aS'hares'
p2658
aS','
p2659
aS'and'
p2660
aS'everything'
p2661
aS'that'
p2662
aS'could'
p2663
aS'be'
p2664
aS'desired'
p2665
aS'.'
p2666
asg49
(lp2667
VThere
p2668
ag52
ag55
aVmagnificent
p2669
aVlarge
p2670
aVgarden
p2671
ag69
aVtoo
p2672
ag69
aVwith
p2673
aVthe
p2674
aVmost
p2675
aVbeautiful
p2676
aVflower
p2677
aVand
p2678
aVfruit-trees
p2679
ag69
aVand
p2680
ag55
aVpark
p2681
aVquite
p2682
aVhalf
p2683
ag55
aVmile
p2684
aVlong
p2685
ag69
aVin
p2686
aVwhich
p2687
ag2514
aVstag
p2688
ag69
aVdeer
p2689
ag69
aVand
p2690
aVhare
p2691
ag69
aVand
p2692
aVeverything
p2693
aVthat
p2694
aVcould
p2695
aVbe
p2696
aVdesire
p2697
ag77
asg78
(lp2698
g80
ag80
ag80
ag80
ag80
ag80
ag80
ag80
ag80
ag80
ag80
ag80
ag80
ag80
ag80
ag80
ag80
ag80
ag80
ag80
ag80
ag80
ag80
ag80
ag80
ag80
ag80
ag80
ag80
ag80
ag80
ag80
ag80
ag80
ag80
ag80
ag80
ag80
ag80
ag80
ag80
ag80
ag80
asg81
(lp2699
g83
ag84
ag87
ag88
ag92
ag88
ag93
ag85
ag93
ag86
ag87
ag1432
ag92
ag417
ag94
ag417
ag93
ag94
ag87
ag88
ag85
ag87
ag87
ag92
ag92
ag93
ag86
ag698
ag84
ag417
ag93
ag88
ag93
ag94
ag417
ag93
ag94
ag88
ag86
ag311
ag284
ag90
ag96
asg97
VThere was a magnificent large garden, too, with the most beautiful flowers and fruit-trees, and a park quite half a mile long, in which were stags, deer, and hares, and everything that could be desired.
p2700
sba(i__main__
Sentence
p2701
(dp2702
g17
I64
sg18
(lp2703
S'Come'
p2704
aS','
p2705
aS'said'
p2706
aS'the'
p2707
aS'woman'
p2708
aS','
p2709
aS'is'
p2710
aS"n't"
p2711
aS'that'
p2712
aS'beautiful'
p2713
aS'.'
p2714
asg49
(lp2715
VCome
p2716
ag69
ag260
aVthe
p2717
aVwoman
p2718
ag69
ag394
aVn't
p2719
aVthat
p2720
aVbeautiful
p2721
ag77
asg78
(lp2722
g80
ag80
ag80
ag80
ag80
ag80
ag80
ag80
ag80
ag80
ag80
asg81
(lp2723
g415
ag93
ag84
ag87
ag88
ag93
ag416
ag85
ag86
ag92
ag96
asg97
VCome, said the woman, isn't that beautiful.
p2724
sba(i__main__
Sentence
p2725
(dp2726
g17
I65
sg18
(lp2727
S'Yes'
p2728
aS','
p2729
aS'indeed'
p2730
aS','
p2731
aS'said'
p2732
aS'the'
p2733
aS'man'
p2734
aS','
p2735
aS'now'
p2736
aS'let'
p2737
aS'it'
p2738
aS'be'
p2739
aS','
p2740
aS'and'
p2741
aS'we'
p2742
aS'will'
p2743
aS'live'
p2744
aS'in'
p2745
aS'this'
p2746
aS'beautiful'
p2747
aS'castle'
p2748
aS'and'
p2749
aS'be'
p2750
aS'content'
p2751
aS'.'
p2752
asg49
(lp2753
VYes
p2754
ag69
aVindeed
p2755
ag69
ag260
aVthe
p2756
aVman
p2757
ag69
aVnow
p2758
aVlet
p2759
aVit
p2760
aVbe
p2761
ag69
aVand
p2762
aVwe
p2763
aVwill
p2764
aVlive
p2765
aVin
p2766
aVthis
p2767
aVbeautiful
p2768
aVcastle
p2769
aVand
p2770
aVbe
p2771
aVcontent
p2772
ag77
asg78
(lp2773
g80
ag80
ag80
ag80
ag80
ag80
ag80
ag80
ag80
ag80
ag80
ag80
ag80
ag80
ag80
ag80
ag80
ag80
ag80
ag80
ag80
ag80
ag80
ag80
ag80
asg81
(lp2774
g417
ag93
ag85
ag93
ag84
ag87
ag88
ag93
ag85
ag284
ag95
ag284
ag93
ag94
ag95
ag311
ag284
ag86
ag87
ag92
ag88
ag94
ag284
ag92
ag96
asg97
VYes, indeed, said the man, now let it be, and we will live in this beautiful castle and be content.
p2775
sba(i__main__
Sentence
p2776
(dp2777
g17
I66
sg18
(lp2778
S'We'
p2779
aS'will'
p2780
aS'consider'
p2781
aS'about'
p2782
aS'that'
p2783
aS','
p2784
aS'said'
p2785
aS'the'
p2786
aS'woman'
p2787
aS','
p2788
aS'and'
p2789
aS'sleep'
p2790
aS'upon'
p2791
aS'it'
p2792
aS'.'
p2793
asg49
(lp2794
VWe
p2795
aVwill
p2796
aVconsider
p2797
aVabout
p2798
aVthat
p2799
ag69
ag260
aVthe
p2800
aVwoman
p2801
ag69
aVand
p2802
aVsleep
p2803
aVupon
p2804
aVit
p2805
ag77
asg78
(lp2806
g80
ag80
ag80
ag80
ag80
ag80
ag80
ag80
ag80
ag80
ag80
ag80
ag80
ag80
ag80
asg81
(lp2807
g95
ag311
ag284
ag86
ag87
ag93
ag84
ag87
ag88
ag93
ag94
ag284
ag86
ag95
ag96
asg97
VWe will consider about that, said the woman, and sleep upon it.
p2808
sba(i__main__
Sentence
p2809
(dp2810
g17
I67
sg18
(lp2811
S'Thereupon'
p2812
aS'they'
p2813
aS'went'
p2814
aS'to'
p2815
aS'bed'
p2816
aS'.'
p2817
asg49
(lp2818
VThereupon
p2819
aVthey
p2820
ag74
aVto
p2821
aVbed
p2822
ag77
asg78
(lp2823
g80
ag80
ag80
ag80
ag80
ag80
asg81
(lp2824
g415
ag95
ag84
ag282
ag90
ag96
asg97
VThereupon they went to bed.
p2825
sba(i__main__
Sentence
p2826
(dp2827
g17
I68
sg18
(lp2828
S'Next'
p2829
aS'morning'
p2830
aS'the'
p2831
aS'wife'
p2832
aS'awoke'
p2833
aS'first'
p2834
aS','
p2835
aS'and'
p2836
aS'it'
p2837
aS'was'
p2838
aS'just'
p2839
aS'daybreak'
p2840
aS','
p2841
aS'and'
p2842
aS'from'
p2843
aS'her'
p2844
aS'bed'
p2845
aS'she'
p2846
aS'saw'
p2847
aS'the'
p2848
aS'beautiful'
p2849
aS'country'
p2850
aS'lying'
p2851
aS'before'
p2852
aS'her'
p2853
aS'.'
p2854
asg49
(lp2855
VNext
p2856
aVmorning
p2857
aVthe
p2858
aVwife
p2859
aVawoke
p2860
aVfirst
p2861
ag69
aVand
p2862
aVit
p2863
ag52
aVjust
p2864
aVdaybreak
p2865
ag69
aVand
p2866
aVfrom
p2867
aVher
p2868
aVbed
p2869
aVshe
p2870
aVsaw
p2871
aVthe
p2872
aVbeautiful
p2873
aVcountry
p2874
aVlie
p2875
aVbefore
p2876
aVher
p2877
ag77
asg78
(lp2878
g80
ag80
ag80
ag80
ag80
ag80
ag80
ag80
ag80
ag80
ag80
ag80
ag80
ag80
ag80
ag80
ag80
ag80
ag80
ag80
ag80
ag80
ag80
ag80
ag80
ag80
asg81
(lp2879
g92
ag88
ag87
ag88
ag88
ag85
ag93
ag94
ag95
ag84
ag85
ag92
ag93
ag94
ag86
ag91
ag90
ag95
ag84
ag87
ag92
ag88
ag165
ag86
ag91
ag96
asg97
VNext morning the wife awoke first, and it was just daybreak, and from her bed she saw the beautiful country lying before her.
p2880
sba(i__main__
Sentence
p2881
(dp2882
g17
I69
sg18
(lp2883
S'Her'
p2884
aS'husband'
p2885
aS'was'
p2886
aS'still'
p2887
aS'stretching'
p2888
aS'himself'
p2889
aS','
p2890
aS'so'
p2891
aS'she'
p2892
aS'poked'
p2893
aS'him'
p2894
aS'in'
p2895
aS'the'
p2896
aS'side'
p2897
aS'with'
p2898
aS'her'
p2899
aS'elbow'
p2900
aS','
p2901
aS'and'
p2902
aS'said'
p2903
aS','
p2904
aS'get'
p2905
aS'up'
p2906
aS','
p2907
aS'husband'
p2908
aS','
p2909
aS'and'
p2910
aS'just'
p2911
aS'peep'
p2912
aS'out'
p2913
aS'of'
p2914
aS'the'
p2915
aS'window'
p2916
aS'.'
p2917
asg49
(lp2918
VHer
p2919
aVhusband
p2920
ag52
aVstill
p2921
aVstretch
p2922
aVhimself
p2923
ag69
aVso
p2924
aVshe
p2925
aVpoke
p2926
aVhim
p2927
aVin
p2928
aVthe
p2929
aVside
p2930
aVwith
p2931
aVher
p2932
aVelbow
p2933
ag69
aVand
p2934
ag260
ag69
aVget
p2935
aVup
p2936
ag69
aVhusband
p2937
ag69
aVand
p2938
aVjust
p2939
aVpeep
p2940
aVout
p2941
aVof
p2942
aVthe
p2943
aVwindow
p2944
ag77
asg78
(lp2945
g80
ag80
ag80
ag80
ag80
ag80
ag80
ag80
ag80
ag80
ag80
ag80
ag80
ag80
ag80
ag80
ag80
ag80
ag80
ag80
ag80
ag80
ag80
ag80
ag80
ag80
ag80
ag80
ag80
ag80
ag80
ag80
ag80
ag80
asg81
(lp2946
g91
ag88
ag84
ag85
ag165
ag95
ag93
ag85
ag95
ag84
ag95
ag86
ag87
ag88
ag86
ag91
ag88
ag93
ag94
ag84
ag93
ag88
ag85
ag93
ag88
ag93
ag94
ag85
ag284
ag220
ag86
ag87
ag88
ag96
asg97
VHer husband was still stretching himself, so she poked him in the side with her elbow, and said, get up, husband, and just peep out of the window.
p2947
sba(i__main__
Sentence
p2948
(dp2949
g17
I70
sg18
(lp2950
S'Look'
p2951
aS'you'
p2952
aS','
p2953
aS'could'
p2954
aS"n't"
p2955
aS'we'
p2956
aS'be'
p2957
aS'the'
p2958
aS'king'
p2959
aS'over'
p2960
aS'all'
p2961
aS'that'
p2962
aS'land'
p2963
aS'.'
p2964
asg49
(lp2965
VLook
p2966
aVyou
p2967
ag69
aVcould
p2968
aVn't
p2969
aVwe
p2970
aVbe
p2971
aVthe
p2972
aVking
p2973
aVover
p2974
aVall
p2975
aVthat
p2976
aVland
p2977
ag77
asg78
(lp2978
g80
ag80
ag80
ag80
ag80
ag80
ag80
ag80
ag80
ag80
ag80
ag80
ag80
ag80
asg81
(lp2979
g415
ag95
ag93
ag311
ag85
ag284
ag284
ag87
ag88
ag86
ag87
ag87
ag88
ag96
asg97
VLook you, couldn't we be the king over all that land.
p2980
sba(i__main__
Sentence
p2981
(dp2982
g17
I71
sg18
(lp2983
S'Go'
p2984
aS'to'
p2985
aS'the'
p2986
aS'flounder'
p2987
aS','
p2988
aS'we'
p2989
aS'will'
p2990
aS'be'
p2991
aS'the'
p2992
aS'king'
p2993
aS'.'
p2994
asg49
(lp2995
VGo
p2996
aVto
p2997
aVthe
p2998
aVflounder
p2999
ag69
aVwe
p3000
aVwill
p3001
aVbe
p3002
aVthe
p3003
aVking
p3004
ag77
asg78
(lp3005
g80
ag80
ag80
ag80
ag80
ag80
ag80
ag80
ag80
ag80
ag80
asg81
(lp3006
g415
ag282
ag87
ag88
ag93
ag95
ag311
ag284
ag87
ag88
ag96
asg97
VGo to the flounder, we will be the king.
p3007
sba(i__main__
Sentence
p3008
(dp3009
g17
I72
sg18
(lp3010
S'Ah'
p3011
aS','
p3012
aS'wife'
p3013
aS','
p3014
aS'said'
p3015
aS'the'
p3016
aS'man'
p3017
aS','
p3018
aS'why'
p3019
aS'should'
p3020
aS'we'
p3021
aS'be'
p3022
aS'king'
p3023
aS'.'
p3024
asg49
(lp3025
VAh
p3026
ag69
aVwife
p3027
ag69
ag260
aVthe
p3028
aVman
p3029
ag69
aVwhy
p3030
aVshould
p3031
aVwe
p3032
aVbe
p3033
aVking
p3034
ag77
asg78
(lp3035
g80
ag80
ag80
ag80
ag80
ag80
ag80
ag80
ag80
ag80
ag80
ag80
ag80
ag80
asg81
(lp3036
g415
ag93
ag88
ag93
ag84
ag87
ag88
ag93
ag219
ag311
ag95
ag284
ag165
ag96
asg97
VAh, wife, said the man, why should we be king.
p3037
sba(i__main__
Sentence
p3038
(dp3039
g17
I73
sg18
(lp3040
S'I'
p3041
aS'do'
p3042
aS'not'
p3043
aS'want'
p3044
aS'to'
p3045
aS'be'
p3046
aS'king'
p3047
aS'.'
p3048
asg49
(lp3049
g266
aVdo
p3050
aVnot
p3051
aVwant
p3052
aVto
p3053
aVbe
p3054
aVking
p3055
ag77
asg78
(lp3056
g80
ag80
ag80
ag80
ag80
ag80
ag80
ag80
asg81
(lp3057
g95
ag283
ag85
ag284
ag282
ag284
ag165
ag96
asg97
VI do not want to be king.
p3058
sba(i__main__
Sentence
p3059
(dp3060
g17
I74
sg18
(lp3061
S'Well'
p3062
aS','
p3063
aS'said'
p3064
aS'the'
p3065
aS'wife'
p3066
aS','
p3067
aS'if'
p3068
aS'you'
p3069
aS'wo'
p3070
aS"n't"
p3071
aS'be'
p3072
aS'king'
p3073
aS','
p3074
aS'I'
p3075
aS'will'
p3076
aS'.'
p3077
asg49
(lp3078
VWell
p3079
ag69
ag260
aVthe
p3080
aVwife
p3081
ag69
aVif
p3082
aVyou
p3083
aVwo
p3084
aVn't
p3085
aVbe
p3086
aVking
p3087
ag69
ag266
aVwill
p3088
ag77
asg78
(lp3089
g80
ag80
ag80
ag80
ag80
ag80
ag80
ag80
ag80
ag80
ag80
ag80
ag80
ag80
ag80
ag80
asg81
(lp3090
g415
ag93
ag84
ag87
ag88
ag93
ag86
ag95
ag311
ag85
ag284
ag165
ag93
ag95
ag311
ag96
asg97
VWell, said the wife, if you won't be king, I will.
p3091
sba(i__main__
Sentence
p3092
(dp3093
g17
I75
sg18
(lp3094
S'Go'
p3095
aS'to'
p3096
aS'the'
p3097
aS'flounder'
p3098
aS','
p3099
aS'for'
p3100
aS'I'
p3101
aS'will'
p3102
aS'be'
p3103
aS'king'
p3104
aS'.'
p3105
asg49
(lp3106
VGo
p3107
aVto
p3108
aVthe
p3109
aVflounder
p3110
ag69
aVfor
p3111
ag266
aVwill
p3112
aVbe
p3113
aVking
p3114
ag77
asg78
(lp3115
g80
ag80
ag80
ag80
ag80
ag80
ag80
ag80
ag80
ag80
ag80
asg81
(lp3116
g415
ag282
ag87
ag88
ag93
ag86
ag95
ag311
ag284
ag165
ag96
asg97
VGo to the flounder, for I will be king.
p3117
sba(i__main__
Sentence
p3118
(dp3119
g17
I76
sg18
(lp3120
S'Ah'
p3121
aS','
p3122
aS'wife'
p3123
aS','
p3124
aS'said'
p3125
aS'the'
p3126
aS'man'
p3127
aS','
p3128
aS'why'
p3129
aS'do'
p3130
aS'you'
p3131
aS'want'
p3132
aS'to'
p3133
aS'be'
p3134
aS'king'
p3135
aS'.'
p3136
asg49
(lp3137
VAh
p3138
ag69
aVwife
p3139
ag69
ag260
aVthe
p3140
aVman
p3141
ag69
aVwhy
p3142
aVdo
p3143
aVyou
p3144
aVwant
p3145
aVto
p3146
aVbe
p3147
aVking
p3148
ag77
asg78
(lp3149
g80
ag80
ag80
ag80
ag80
ag80
ag80
ag80
ag80
ag80
ag80
ag80
ag80
ag80
ag80
ag80
asg81
(lp3150
g415
ag93
ag88
ag93
ag84
ag87
ag88
ag93
ag219
ag283
ag95
ag284
ag282
ag284
ag165
ag96
asg97
VAh, wife, said the man, why do you want to be king.
p3151
sba(i__main__
Sentence
p3152
(dp3153
g17
I77
sg18
(lp3154
S'I'
p3155
aS'do'
p3156
aS'not'
p3157
aS'like'
p3158
aS'to'
p3159
aS'say'
p3160
aS'that'
p3161
aS'to'
p3162
aS'him'
p3163
aS'.'
p3164
asg49
(lp3165
g266
aVdo
p3166
aVnot
p3167
aVlike
p3168
aVto
p3169
aVsay
p3170
aVthat
p3171
aVto
p3172
aVhim
p3173
ag77
asg78
(lp3174
g80
ag80
ag80
ag80
ag80
ag80
ag80
ag80
ag80
ag80
asg81
(lp3175
g95
ag283
ag85
ag284
ag282
ag284
ag86
ag282
ag95
ag96
asg97
VI do not like to say that to him.
p3176
sba(i__main__
Sentence
p3177
(dp3178
g17
I78
sg18
(lp3179
S'Why'
p3180
aS'not'
p3181
aS','
p3182
aS'said'
p3183
aS'the'
p3184
aS'woman'
p3185
aS'.'
p3186
asg49
(lp3187
VWhy
p3188
aVnot
p3189
ag69
ag260
aVthe
p3190
aVwoman
p3191
ag77
asg78
(lp3192
g80
ag80
ag80
ag80
ag80
ag80
ag80
asg81
(lp3193
g219
ag85
ag93
ag84
ag87
ag88
ag96
asg97
VWhy not, said the woman.
p3194
sba(i__main__
Sentence
p3195
(dp3196
g17
I79
sg18
(lp3197
S'Go'
p3198
aS'to'
p3199
aS'him'
p3200
aS'this'
p3201
aS'instant'
p3202
aS'.'
p3203
asg49
(lp3204
VGo
p3205
aVto
p3206
aVhim
p3207
aVthis
p3208
aVinstant
p3209
ag77
asg78
(lp3210
g80
ag80
ag80
ag80
ag80
ag80
asg81
(lp3211
g415
ag282
ag95
ag87
ag88
ag96
asg97
VGo to him this instant.
p3212
sba(i__main__
Sentence
p3213
(dp3214
g17
I80
sg18
(lp3215
S'I'
p3216
aS'must'
p3217
aS'be'
p3218
aS'king'
p3219
aS'.'
p3220
asg49
(lp3221
g266
aVmust
p3222
aVbe
p3223
aVking
p3224
ag77
asg78
(lp3225
g80
ag80
ag80
ag80
ag80
asg81
(lp3226
g95
ag311
ag284
ag165
ag96
asg97
VI must be king.
p3227
sba(i__main__
Sentence
p3228
(dp3229
g17
I81
sg18
(lp3230
S'So'
p3231
aS'the'
p3232
aS'man'
p3233
aS'went'
p3234
aS','
p3235
aS'and'
p3236
aS'was'
p3237
aS'quite'
p3238
aS'unhappy'
p3239
aS'because'
p3240
aS'his'
p3241
aS'wife'
p3242
aS'wished'
p3243
aS'to'
p3244
aS'be'
p3245
aS'king'
p3246
aS'.'
p3247
asg49
(lp3248
VSo
p3249
aVthe
p3250
aVman
p3251
ag74
ag69
aVand
p3252
ag52
aVquite
p3253
aVunhappy
p3254
aVbecause
p3255
aVhis
p3256
aVwife
p3257
aVwish
p3258
aVto
p3259
aVbe
p3260
aVking
p3261
ag77
asg78
(lp3262
g80
ag80
ag80
ag80
ag80
ag80
ag80
ag80
ag80
ag80
ag80
ag80
ag80
ag80
ag80
ag80
ag80
asg81
(lp3263
g86
ag87
ag88
ag84
ag93
ag94
ag84
ag85
ag92
ag86
ag91
ag88
ag84
ag282
ag284
ag165
ag96
asg97
VSo the man went, and was quite unhappy because his wife wished to be king.
p3264
sba(i__main__
Sentence
p3265
(dp3266
g17
I82
sg18
(lp3267
S'It'
p3268
aS'is'
p3269
aS'not'
p3270
aS'right'
p3271
aS','
p3272
aS'it'
p3273
aS'is'
p3274
aS'not'
p3275
aS'right'
p3276
aS','
p3277
aS'thought'
p3278
aS'he'
p3279
aS'.'
p3280
asg49
(lp3281
VIt
p3282
ag394
aVnot
p3283
aVright
p3284
ag69
aVit
p3285
ag394
aVnot
p3286
aVright
p3287
ag69
aVthink
p3288
aVhe
p3289
ag77
asg78
(lp3290
g80
ag80
ag80
ag80
ag80
ag80
ag80
ag80
ag80
ag80
ag80
ag80
ag80
asg81
(lp3291
g95
ag416
ag85
ag85
ag93
ag95
ag416
ag85
ag85
ag93
ag84
ag95
ag96
asg97
VIt is not right, it is not right, thought he.
p3292
sba(i__main__
Sentence
p3293
(dp3294
g17
I83
sg18
(lp3295
S'He'
p3296
aS'did'
p3297
aS'not'
p3298
aS'wish'
p3299
aS'to'
p3300
aS'go'
p3301
aS','
p3302
aS'but'
p3303
aS'yet'
p3304
aS'he'
p3305
aS'went'
p3306
aS'.'
p3307
asg49
(lp3308
VHe
p3309
ag578
aVnot
p3310
aVwish
p3311
aVto
p3312
aVgo
p3313
ag69
aVbut
p3314
aVyet
p3315
aVhe
p3316
ag74
ag77
asg78
(lp3317
g80
ag80
ag80
ag80
ag80
ag80
ag80
ag80
ag80
ag80
ag80
ag80
asg81
(lp3318
g95
ag84
ag85
ag88
ag282
ag284
ag93
ag94
ag85
ag95
ag84
ag96
asg97
VHe did not wish to go, but yet he went.
p3319
sba(i__main__
Sentence
p3320
(dp3321
g17
I84
sg18
(lp3322
S'And'
p3323
aS'when'
p3324
aS'he'
p3325
aS'came'
p3326
aS'to'
p3327
aS'the'
p3328
aS'sea'
p3329
aS','
p3330
aS'it'
p3331
aS'was'
p3332
aS'quite'
p3333
aS'dark-grey'
p3334
aS','
p3335
aS'and'
p3336
aS'the'
p3337
aS'water'
p3338
aS'heaved'
p3339
aS'up'
p3340
aS'from'
p3341
aS'below'
p3342
aS','
p3343
aS'and'
p3344
aS'smelt'
p3345
aS'putrid'
p3346
aS'.'
p3347
asg49
(lp3348
VAnd
p3349
aVwhen
p3350
aVhe
p3351
ag1071
aVto
p3352
aVthe
p3353
aVsea
p3354
ag69
aVit
p3355
ag52
aVquite
p3356
aVdark-grey
p3357
ag69
aVand
p3358
aVthe
p3359
aVwater
p3360
aVheave
p3361
aVup
p3362
aVfrom
p3363
aVbelow
p3364
ag69
aVand
p3365
aVsmelt
p3366
aVputrid
p3367
ag77
asg78
(lp3368
g80
ag80
ag80
ag80
ag80
ag80
ag80
ag80
ag80
ag80
ag80
ag80
ag80
ag80
ag80
ag80
ag80
ag80
ag80
ag80
ag80
ag80
ag80
ag80
ag80
asg81
(lp3369
g94
ag219
ag95
ag84
ag282
ag87
ag88
ag93
ag95
ag84
ag85
ag92
ag93
ag94
ag87
ag88
ag84
ag220
ag86
ag86
ag93
ag94
ag84
ag92
ag96
asg97
VAnd when he came to the sea, it was quite dark-grey, and the water heaved up from below, and smelt putrid.
p3370
sba(i__main__
Sentence
p3371
(dp3372
g17
I85
sg18
(lp3373
S'Then'
p3374
aS'he'
p3375
aS'went'
p3376
aS'and'
p3377
aS'stood'
p3378
aS'by'
p3379
aS'it'
p3380
aS','
p3381
aS'and'
p3382
aS'said'
p3383
aS','
p3384
aS'flounder'
p3385
aS','
p3386
aS'flounder'
p3387
aS'in'
p3388
aS'the'
p3389
aS'sea'
p3390
aS','
p3391
aS'come'
p3392
aS','
p3393
aS'I'
p3394
aS'pray'
p3395
aS'thee'
p3396
aS','
p3397
aS'here'
p3398
aS'to'
p3399
aS'me'
p3400
aS'.'
p3401
asg49
(lp3402
VThen
p3403
aVhe
p3404
ag74
aVand
p3405
aVstood
p3406
aVby
p3407
aVit
p3408
ag69
aVand
p3409
ag260
ag69
aVflounder
p3410
ag69
aVflounder
p3411
aVin
p3412
aVthe
p3413
aVsea
p3414
ag69
aVcome
p3415
ag69
ag266
aVpray
p3416
aVthee
p3417
ag69
aVhere
p3418
aVto
p3419
aVme
p3420
ag77
asg78
(lp3421
g80
ag80
ag80
ag80
ag80
ag80
ag80
ag80
ag80
ag80
ag80
ag80
ag80
ag80
ag80
ag80
ag80
ag80
ag80
ag80
ag80
ag80
ag80
ag80
ag80
ag80
ag80
ag80
asg81
(lp3422
g85
ag95
ag84
ag94
ag88
ag86
ag95
ag93
ag94
ag84
ag93
ag88
ag93
ag88
ag86
ag87
ag88
ag93
ag283
ag93
ag95
ag283
ag92
ag93
ag85
ag282
ag95
ag96
asg97
VThen he went and stood by it, and said,            flounder, flounder in the sea,           come, I pray thee, here to me.
p3423
sba(i__main__
Sentence
p3424
(dp3425
g17
I86
sg18
(lp3426
S'For'
p3427
aS'my'
p3428
aS'wife'
p3429
aS','
p3430
aS'good'
p3431
aS'ilsabil'
p3432
aS','
p3433
aS'wills'
p3434
aS'not'
p3435
aS'as'
p3436
aS'I'
p3437
aS"'d"
p3438
aS'have'
p3439
aS'her'
p3440
aS'will'
p3441
aS'.'
p3442
asg49
(lp3443
VFor
p3444
aVmy
p3445
aVwife
p3446
ag69
aVgood
p3447
aVilsabil
p3448
ag69
aVwill
p3449
aVnot
p3450
ag55
ag266
aV'd
p3451
aVhave
p3452
aVher
p3453
aVwill
p3454
ag77
asg78
(lp3455
g80
ag80
ag80
ag80
ag80
ag80
ag80
ag80
ag80
ag80
ag80
ag80
ag80
ag80
ag80
ag80
asg81
(lp3456
g86
ag91
ag88
ag93
ag92
ag88
ag93
ag417
ag85
ag86
ag95
ag311
ag284
ag91
ag311
ag96
asg97
VFor my wife, good ilsabil,           wills not as I'd have her will.
p3457
sba(i__main__
Sentence
p3458
(dp3459
g17
I87
sg18
(lp3460
S'Well'
p3461
aS','
p3462
aS'what'
p3463
aS'does'
p3464
aS'she'
p3465
aS'want'
p3466
aS','
p3467
aS'now'
p3468
aS'.'
p3469
asg49
(lp3470
VWell
p3471
ag69
aVwhat
p3472
aVdo
p3473
aVshe
p3474
aVwant
p3475
ag69
aVnow
p3476
ag77
asg78
(lp3477
g80
ag80
ag80
ag80
ag80
ag80
ag80
ag80
ag80
asg81
(lp3478
g415
ag93
ag89
ag416
ag95
ag283
ag93
ag85
ag96
asg97
VWell, what does she want, now.
p3479
sba(i__main__
Sentence
p3480
(dp3481
g17
I88
sg18
(lp3482
S'Said'
p3483
aS'the'
p3484
aS'flounder'
p3485
aS'.'
p3486
asg49
(lp3487
VSaid
p3488
aVthe
p3489
aVflounder
p3490
ag77
asg78
(lp3491
g80
ag80
ag80
ag80
asg81
(lp3492
g415
ag87
ag88
ag96
asg97
VSaid the flounder.
p3493
sba(i__main__
Sentence
p3494
(dp3495
g17
I89
sg18
(lp3496
S'Alas'
p3497
aS','
p3498
aS'said'
p3499
aS'the'
p3500
aS'man'
p3501
aS','
p3502
aS'she'
p3503
aS'wants'
p3504
aS'to'
p3505
aS'be'
p3506
aS'king'
p3507
aS'.'
p3508
asg49
(lp3509
VAlas
p3510
ag69
ag260
aVthe
p3511
aVman
p3512
ag69
aVshe
p3513
aVwant
p3514
aVto
p3515
aVbe
p3516
aVking
p3517
ag77
asg78
(lp3518
g80
ag80
ag80
ag80
ag80
ag80
ag80
ag80
ag80
ag80
ag80
ag80
asg81
(lp3519
g415
ag93
ag84
ag87
ag88
ag93
ag95
ag416
ag282
ag284
ag165
ag96
asg97
VAlas, said the man, she wants to be king.
p3520
sba(i__main__
Sentence
p3521
(dp3522
g17
I90
sg18
(lp3523
S'Go'
p3524
aS'to'
p3525
aS'her'
p3526
aS'.'
p3527
asg49
(lp3528
VGo
p3529
aVto
p3530
aVher
p3531
ag77
asg78
(lp3532
g80
ag80
ag80
ag80
asg81
(lp3533
g415
ag282
ag91
ag96
asg97
VGo to her.
p3534
sba(i__main__
Sentence
p3535
(dp3536
g17
I91
sg18
(lp3537
S'She'
p3538
aS'is'
p3539
aS'king'
p3540
aS'already'
p3541
aS'.'
p3542
asg49
(lp3543
VShe
p3544
ag394
aVking
p3545
aValready
p3546
ag77
asg78
(lp3547
g80
ag80
ag80
ag80
ag80
asg81
(lp3548
g95
ag416
ag165
ag85
ag96
asg97
VShe is king already.
p3549
sba(i__main__
Sentence
p3550
(dp3551
g17
I92
sg18
(lp3552
S'So'
p3553
aS'the'
p3554
aS'man'
p3555
aS'went'
p3556
aS','
p3557
aS'and'
p3558
aS'when'
p3559
aS'he'
p3560
aS'came'
p3561
aS'to'
p3562
aS'the'
p3563
aS'palace'
p3564
aS','
p3565
aS'the'
p3566
aS'castle'
p3567
aS'had'
p3568
aS'become'
p3569
aS'much'
p3570
aS'larger'
p3571
aS','
p3572
aS'and'
p3573
aS'had'
p3574
aS'a'
p3575
aS'great'
p3576
aS'tower'
p3577
aS'and'
p3578
aS'magnificent'
p3579
aS'ornaments'
p3580
aS','
p3581
aS'and'
p3582
aS'the'
p3583
aS'sentinel'
p3584
aS'was'
p3585
aS'standing'
p3586
aS'before'
p3587
aS'the'
p3588
aS'door'
p3589
aS','
p3590
aS'and'
p3591
aS'there'
p3592
aS'were'
p3593
aS'numbers'
p3594
aS'of'
p3595
aS'soldiers'
p3596
aS'with'
p3597
aS'kettle-drums'
p3598
aS'and'
p3599
aS'trumpets'
p3600
aS'.'
p3601
asg49
(lp3602
VSo
p3603
aVthe
p3604
aVman
p3605
ag74
ag69
aVand
p3606
aVwhen
p3607
aVhe
p3608
ag1071
aVto
p3609
aVthe
p3610
aVpalace
p3611
ag69
aVthe
p3612
aVcastle
p3613
ag2543
aVbecome
p3614
aVmuch
p3615
aVlarge
p3616
ag69
aVand
p3617
ag2543
ag55
aVgreat
p3618
aVtower
p3619
aVand
p3620
aVmagnificent
p3621
aVornament
p3622
ag69
aVand
p3623
aVthe
p3624
aVsentinel
p3625
ag52
aVstand
p3626
aVbefore
p3627
aVthe
p3628
aVdoor
p3629
ag69
aVand
p3630
aVthere
p3631
ag2514
aVnumber
p3632
aVof
p3633
aVsoldier
p3634
aVwith
p3635
aVkettle-drums
p3636
aVand
p3637
aVtrumpet
p3638
ag77
asg78
(lp3639
g80
ag80
ag80
ag80
ag80
ag80
ag80
ag80
ag80
ag80
ag80
ag80
ag80
ag80
ag80
ag80
ag80
ag80
ag80
ag80
ag80
ag80
ag80
ag80
ag80
ag80
ag80
ag80
ag80
ag80
ag80
ag80
ag80
ag80
ag80
ag80
ag80
ag80
ag80
ag80
ag80
ag80
ag80
ag80
ag80
ag80
ag80
ag80
ag80
asg81
(lp3640
g86
ag87
ag88
ag84
ag93
ag94
ag219
ag95
ag84
ag282
ag87
ag88
ag93
ag87
ag88
ag84
ag90
ag85
ag1695
ag93
ag94
ag84
ag87
ag92
ag88
ag94
ag88
ag417
ag93
ag94
ag87
ag88
ag84
ag165
ag85
ag87
ag88
ag93
ag94
ag83
ag84
ag417
ag86
ag417
ag86
ag417
ag94
ag417
ag96
asg97
VSo the man went, and when he came to the palace, the castle had become much larger, and had a great tower and magnificent ornaments, and the sentinel was standing before the door, and there were numbers of soldiers with kettle-drums and trumpets.
p3641
sba(i__main__
Sentence
p3642
(dp3643
g17
I93
sg18
(lp3644
S'And'
p3645
aS'when'
p3646
aS'he'
p3647
aS'went'
p3648
aS'inside'
p3649
aS'the'
p3650
aS'house'
p3651
aS','
p3652
aS'everything'
p3653
aS'was'
p3654
aS'of'
p3655
aS'real'
p3656
aS'marble'
p3657
aS'and'
p3658
aS'gold'
p3659
aS','
p3660
aS'with'
p3661
aS'velvet'
p3662
aS'covers'
p3663
aS'and'
p3664
aS'great'
p3665
aS'golden'
p3666
aS'tassels'
p3667
aS'.'
p3668
asg49
(lp3669
VAnd
p3670
aVwhen
p3671
aVhe
p3672
ag74
aVinside
p3673
aVthe
p3674
aVhouse
p3675
ag69
aVeverything
p3676
ag52
aVof
p3677
aVreal
p3678
aVmarble
p3679
aVand
p3680
aVgold
p3681
ag69
aVwith
p3682
aVvelvet
p3683
aVcover
p3684
aVand
p3685
aVgreat
p3686
aVgolden
p3687
aVtassel
p3688
ag77
asg78
(lp3689
g80
ag80
ag80
ag80
ag80
ag80
ag80
ag80
ag80
ag80
ag80
ag80
ag80
ag80
ag80
ag80
ag80
ag80
ag80
ag80
ag80
ag80
ag80
ag80
asg81
(lp3690
g94
ag219
ag95
ag84
ag85
ag87
ag88
ag93
ag88
ag84
ag86
ag92
ag92
ag94
ag88
ag93
ag86
ag88
ag417
ag94
ag92
ag88
ag417
ag96
asg97
VAnd when he went inside the house, everything was of real marble and gold, with velvet covers and great golden tassels.
p3691
sba(i__main__
Sentence
p3692
(dp3693
g17
I94
sg18
(lp3694
S'Then'
p3695
aS'the'
p3696
aS'doors'
p3697
aS'of'
p3698
aS'the'
p3699
aS'hall'
p3700
aS'were'
p3701
aS'opened'
p3702
aS','
p3703
aS'and'
p3704
aS'there'
p3705
aS'was'
p3706
aS'the'
p3707
aS'court'
p3708
aS'in'
p3709
aS'all'
p3710
aS'its'
p3711
aS'splendor'
p3712
aS','
p3713
aS'and'
p3714
aS'his'
p3715
aS'wife'
p3716
aS'was'
p3717
aS'sitting'
p3718
aS'on'
p3719
aS'a'
p3720
aS'high'
p3721
aS'throne'
p3722
aS'of'
p3723
aS'gold'
p3724
aS'and'
p3725
aS'diamonds'
p3726
aS','
p3727
aS'with'
p3728
aS'a'
p3729
aS'great'
p3730
aS'crown'
p3731
aS'of'
p3732
aS'gold'
p3733
aS'on'
p3734
aS'her'
p3735
aS'head'
p3736
aS','
p3737
aS'and'
p3738
aS'a'
p3739
aS'sceptre'
p3740
aS'of'
p3741
aS'pure'
p3742
aS'gold'
p3743
aS'and'
p3744
aS'jewels'
p3745
aS'in'
p3746
aS'her'
p3747
aS'hand'
p3748
aS','
p3749
aS'and'
p3750
aS'on'
p3751
aS'both'
p3752
aS'sides'
p3753
aS'of'
p3754
aS'her'
p3755
aS'stood'
p3756
aS'her'
p3757
aS'maids-in-waiting'
p3758
aS'in'
p3759
aS'a'
p3760
aS'row'
p3761
aS','
p3762
aS'each'
p3763
aS'of'
p3764
aS'them'
p3765
aS'always'
p3766
aS'one'
p3767
aS'head'
p3768
aS'shorter'
p3769
aS'than'
p3770
aS'the'
p3771
aS'last'
p3772
aS'.'
p3773
asg49
(lp3774
VThen
p3775
aVthe
p3776
aVdoor
p3777
aVof
p3778
aVthe
p3779
aVhall
p3780
ag2514
aVopen
p3781
ag69
aVand
p3782
aVthere
p3783
ag52
aVthe
p3784
aVcourt
p3785
aVin
p3786
aVall
p3787
aVit
p3788
aVsplendor
p3789
ag69
aVand
p3790
aVhis
p3791
aVwife
p3792
ag52
ag149
aVon
p3793
ag55
aVhigh
p3794
aVthrone
p3795
aVof
p3796
aVgold
p3797
aVand
p3798
aVdiamond
p3799
ag69
aVwith
p3800
ag55
aVgreat
p3801
aVcrown
p3802
aVof
p3803
aVgold
p3804
aVon
p3805
aVher
p3806
aVhead
p3807
ag69
aVand
p3808
ag55
aVsceptre
p3809
aVof
p3810
aVpure
p3811
aVgold
p3812
aVand
p3813
aVjewel
p3814
aVin
p3815
aVher
p3816
aVhand
p3817
ag69
aVand
p3818
aVon
p3819
aVboth
p3820
aVside
p3821
aVof
p3822
aVher
p3823
aVstood
p3824
aVher
p3825
aVmaids-in-waiting
p3826
aVin
p3827
ag55
aVrow
p3828
ag69
aVeach
p3829
aVof
p3830
aVthem
p3831
aValways
p3832
aVone
p3833
aVhead
p3834
aVshorter
p3835
aVthan
p3836
aVthe
p3837
aVlast
p3838
ag77
asg78
(lp3839
g80
ag80
ag80
ag80
ag80
ag80
ag80
ag80
ag80
ag80
ag80
ag80
ag80
ag80
ag80
ag80
ag80
ag80
ag80
ag80
ag80
ag80
ag80
ag80
ag80
ag80
ag80
ag80
ag80
ag80
ag80
ag80
ag80
ag80
ag80
ag80
ag80
ag80
ag80
ag80
ag80
ag80
ag80
ag80
ag80
ag80
ag80
ag80
ag80
ag80
ag80
ag80
ag80
ag80
ag80
ag80
ag80
ag80
ag80
ag80
ag80
ag80
ag80
ag80
ag80
ag80
ag80
ag80
ag80
ag80
ag80
ag80
ag80
ag80
ag80
ag80
ag80
ag80
ag80
asg81
(lp3840
g85
ag87
ag417
ag86
ag87
ag88
ag84
ag90
ag93
ag94
ag83
ag84
ag87
ag88
ag86
ag87
ag91
ag88
ag93
ag94
ag91
ag88
ag84
ag165
ag86
ag87
ag92
ag88
ag86
ag88
ag94
ag417
ag93
ag86
ag87
ag92
ag88
ag86
ag88
ag86
ag91
ag88
ag93
ag94
ag87
ag88
ag86
ag88
ag88
ag94
ag417
ag86
ag91
ag88
ag93
ag94
ag86
ag87
ag417
ag86
ag91
ag88
ag91
ag92
ag86
ag87
ag88
ag93
ag87
ag86
ag95
ag85
aS'CD'
p3841
ag88
ag88
ag86
ag87
ag92
ag96
asg97
VThen the doors of the hall were opened, and there was the court in all its splendor, and his wife was sitting on a high throne of gold and diamonds, with a great crown of gold on her head, and a sceptre of pure gold and jewels in her hand, and on both sides of her stood her maids-in-waiting in a row, each of them always one head shorter than the last.
p3842
sba(i__main__
Sentence
p3843
(dp3844
g17
I95
sg18
(lp3845
S'Then'
p3846
aS'he'
p3847
aS'went'
p3848
aS'and'
p3849
aS'stood'
p3850
aS'before'
p3851
aS'her'
p3852
aS','
p3853
aS'and'
p3854
aS'said'
p3855
aS','
p3856
aS'ah'
p3857
aS','
p3858
aS'wife'
p3859
aS','
p3860
aS'and'
p3861
aS'now'
p3862
aS'you'
p3863
aS'are'
p3864
aS'king'
p3865
aS'.'
p3866
asg49
(lp3867
VThen
p3868
aVhe
p3869
ag74
aVand
p3870
aVstood
p3871
aVbefore
p3872
aVher
p3873
ag69
aVand
p3874
ag260
ag69
aVah
p3875
ag69
aVwife
p3876
ag69
aVand
p3877
aVnow
p3878
aVyou
p3879
ag1661
aVking
p3880
ag77
asg78
(lp3881
g80
ag80
ag80
ag80
ag80
ag80
ag80
ag80
ag80
ag80
ag80
ag80
ag80
ag80
ag80
ag80
ag80
ag80
ag80
ag80
ag80
asg81
(lp3882
g85
ag95
ag84
ag94
ag88
ag86
ag91
ag93
ag94
ag84
ag93
ag88
ag93
ag88
ag93
ag94
ag85
ag95
ag283
ag165
ag96
asg97
VThen he went and stood before her, and said, ah, wife, and now you are king.
p3883
sba(i__main__
Sentence
p3884
(dp3885
g17
I96
sg18
(lp3886
S'Yes'
p3887
aS','
p3888
aS'said'
p3889
aS'the'
p3890
aS'woman'
p3891
aS','
p3892
aS'now'
p3893
aS'I'
p3894
aS'am'
p3895
aS'king'
p3896
aS'.'
p3897
asg49
(lp3898
VYes
p3899
ag69
ag260
aVthe
p3900
aVwoman
p3901
ag69
aVnow
p3902
ag266
ag272
aVking
p3903
ag77
asg78
(lp3904
g80
ag80
ag80
ag80
ag80
ag80
ag80
ag80
ag80
ag80
ag80
asg81
(lp3905
g417
ag93
ag84
ag87
ag88
ag93
ag85
ag95
ag283
ag165
ag96
asg97
VYes, said the woman, now I am king.
p3906
sba(i__main__
Sentence
p3907
(dp3908
g17
I97
sg18
(lp3909
S'So'
p3910
aS'he'
p3911
aS'stood'
p3912
aS'and'
p3913
aS'looked'
p3914
aS'at'
p3915
aS'her'
p3916
aS','
p3917
aS'and'
p3918
aS'when'
p3919
aS'he'
p3920
aS'had'
p3921
aS'looked'
p3922
aS'at'
p3923
aS'her'
p3924
aS'thus'
p3925
aS'for'
p3926
aS'some'
p3927
aS'time'
p3928
aS','
p3929
aS'he'
p3930
aS'said'
p3931
aS','
p3932
aS'and'
p3933
aS'now'
p3934
aS'that'
p3935
aS'you'
p3936
aS'are'
p3937
aS'king'
p3938
aS','
p3939
aS'let'
p3940
aS'all'
p3941
aS'else'
p3942
aS'be'
p3943
aS','
p3944
aS'now'
p3945
aS'we'
p3946
aS'will'
p3947
aS'wish'
p3948
aS'for'
p3949
aS'nothing'
p3950
aS'more'
p3951
aS'.'
p3952
asg49
(lp3953
VSo
p3954
aVhe
p3955
ag995
aVand
p3956
aVlook
p3957
aVat
p3958
aVher
p3959
ag69
aVand
p3960
aVwhen
p3961
aVhe
p3962
ag2543
aVlook
p3963
aVat
p3964
aVher
p3965
aVthus
p3966
aVfor
p3967
aVsome
p3968
aVtime
p3969
ag69
aVhe
p3970
ag260
ag69
aVand
p3971
aVnow
p3972
aVthat
p3973
aVyou
p3974
ag1661
aVking
p3975
ag69
aVlet
p3976
aVall
p3977
aVelse
p3978
aVbe
p3979
ag69
aVnow
p3980
aVwe
p3981
aVwill
p3982
aVwish
p3983
aVfor
p3984
aVnothing
p3985
aVmore
p3986
ag77
asg78
(lp3987
g80
ag80
ag80
ag80
ag80
ag80
ag80
ag80
ag80
ag80
ag80
ag80
ag80
ag80
ag80
ag80
ag80
ag80
ag80
ag80
ag80
ag80
ag80
ag80
ag80
ag80
ag80
ag80
ag80
ag80
ag80
ag80
ag80
ag80
ag80
ag80
ag80
ag80
ag80
ag80
ag80
ag80
ag80
asg81
(lp3988
g86
ag95
ag84
ag94
ag90
ag86
ag91
ag93
ag94
ag219
ag95
ag84
ag90
ag86
ag91
ag88
ag86
ag87
ag88
ag93
ag95
ag84
ag93
ag94
ag85
ag86
ag95
ag283
ag165
ag93
ag284
aS'PDT'
p3989
ag85
ag284
ag93
ag85
ag95
ag311
ag284
ag86
ag88
ag1695
ag96
asg97
VSo he stood and looked at her, and when he had looked at her thus for some time, he said, and now that you are king, let all else be, now we will wish for nothing more.
p3990
sba(i__main__
Sentence
p3991
(dp3992
g17
I98
sg18
(lp3993
S'No'
p3994
aS','
p3995
aS'husband'
p3996
aS','
p3997
aS'said'
p3998
aS'the'
p3999
aS'woman'
p4000
aS','
p4001
aS'quite'
p4002
aS'anxiously'
p4003
aS','
p4004
aS'I'
p4005
aS'find'
p4006
aS'time'
p4007
aS'passes'
p4008
aS'very'
p4009
aS'heavily'
p4010
aS','
p4011
aS'I'
p4012
aS'can'
p4013
aS'bear'
p4014
aS'it'
p4015
aS'no'
p4016
aS'longer'
p4017
aS'.'
p4018
asg49
(lp4019
VNo
p4020
ag69
aVhusband
p4021
ag69
ag260
aVthe
p4022
aVwoman
p4023
ag69
aVquite
p4024
aVanxiously
p4025
ag69
ag266
aVfind
p4026
aVtime
p4027
aVpass
p4028
aVvery
p4029
aVheavily
p4030
ag69
ag266
aVcan
p4031
aVbear
p4032
aVit
p4033
aVno
p4034
aVlonger
p4035
ag77
asg78
(lp4036
g80
ag80
ag80
ag80
ag80
ag80
ag80
ag80
ag80
ag80
ag80
ag80
ag80
ag80
ag80
ag80
ag80
ag80
ag80
ag80
ag80
ag80
ag80
ag80
ag80
asg81
(lp4037
g87
ag93
ag94
ag93
ag84
ag87
ag88
ag93
ag85
ag85
ag93
ag95
ag283
ag88
ag417
ag85
ag85
ag93
ag95
ag311
ag284
ag95
ag87
ag88
ag96
asg97
VNo, husband, said the woman, quite anxiously, I find time passes very heavily, I can bear it no longer.
p4038
sba(i__main__
Sentence
p4039
(dp4040
g17
I99
sg18
(lp4041
S'Go'
p4042
aS'to'
p4043
aS'the'
p4044
aS'flounder'
p4045
aS'-'
p4046
aS'I'
p4047
aS'am'
p4048
aS'king'
p4049
aS','
p4050
aS'but'
p4051
aS'I'
p4052
aS'must'
p4053
aS'be'
p4054
aS'emperor'
p4055
aS','
p4056
aS'too'
p4057
aS'.'
p4058
asg49
(lp4059
VGo
p4060
aVto
p4061
aVthe
p4062
aVflounder
p4063
ag403
ag266
ag272
aVking
p4064
ag69
aVbut
p4065
ag266
aVmust
p4066
aVbe
p4067
aVemperor
p4068
ag69
aVtoo
p4069
ag77
asg78
(lp4070
g80
ag80
ag80
ag80
ag80
ag80
ag80
ag80
ag80
ag80
ag80
ag80
ag80
ag80
ag80
ag80
ag80
asg81
(lp4071
g415
ag282
ag87
ag88
ag418
ag95
ag283
ag165
ag93
ag94
ag95
ag311
ag284
ag88
ag93
ag85
ag96
asg97
VGo to the flounder - I am king, but I must be emperor, too.
p4072
sba(i__main__
Sentence
p4073
(dp4074
g17
I100
sg18
(lp4075
S'Oh'
p4076
aS','
p4077
aS'wife'
p4078
aS','
p4079
aS'why'
p4080
aS'do'
p4081
aS'you'
p4082
aS'wish'
p4083
aS'to'
p4084
aS'be'
p4085
aS'emperor'
p4086
aS'.'
p4087
asg49
(lp4088
VOh
p4089
ag69
aVwife
p4090
ag69
aVwhy
p4091
aVdo
p4092
aVyou
p4093
aVwish
p4094
aVto
p4095
aVbe
p4096
aVemperor
p4097
ag77
asg78
(lp4098
g80
ag80
ag80
ag80
ag80
ag80
ag80
ag80
ag80
ag80
ag80
ag80
asg81
(lp4099
S'UH'
p4100
ag93
ag88
ag93
ag219
ag283
ag95
ag284
ag282
ag284
ag88
ag96
asg97
VOh, wife, why do you wish to be emperor.
p4101
sba(i__main__
Sentence
p4102
(dp4103
g17
I101
sg18
(lp4104
S'Husband'
p4105
aS','
p4106
aS'said'
p4107
aS'she'
p4108
aS','
p4109
aS'go'
p4110
aS'to'
p4111
aS'the'
p4112
aS'flounder'
p4113
aS'.'
p4114
asg49
(lp4115
VHusband
p4116
ag69
ag260
aVshe
p4117
ag69
aVgo
p4118
aVto
p4119
aVthe
p4120
aVflounder
p4121
ag77
asg78
(lp4122
VPERSON
p4123
ag80
ag80
ag80
ag80
ag80
ag80
ag80
ag80
ag80
asg81
(lp4124
g415
ag93
ag84
ag95
ag93
ag283
ag282
ag87
ag88
ag96
asg97
VHusband, said she, go to the flounder.
p4125
sba(i__main__
Sentence
p4126
(dp4127
g17
I102
sg18
(lp4128
S'I'
p4129
aS'will'
p4130
aS'be'
p4131
aS'emperor'
p4132
aS'.'
p4133
asg49
(lp4134
g266
aVwill
p4135
aVbe
p4136
aVemperor
p4137
ag77
asg78
(lp4138
g80
ag80
ag80
ag80
ag80
asg81
(lp4139
g95
ag311
ag284
ag88
ag96
asg97
VI will be emperor.
p4140
sba(i__main__
Sentence
p4141
(dp4142
g17
I103
sg18
(lp4143
S'Alas'
p4144
aS','
p4145
aS'wife'
p4146
aS','
p4147
aS'said'
p4148
aS'the'
p4149
aS'man'
p4150
aS','
p4151
aS'he'
p4152
aS'can'
p4153
aS'not'
p4154
aS'make'
p4155
aS'you'
p4156
aS'emperor'
p4157
aS'.'
p4158
asg49
(lp4159
VAlas
p4160
ag69
aVwife
p4161
ag69
ag260
aVthe
p4162
aVman
p4163
ag69
aVhe
p4164
aVcan
p4165
aVnot
p4166
aVmake
p4167
aVyou
p4168
aVemperor
p4169
ag77
asg78
(lp4170
g80
ag80
ag80
ag80
ag80
ag80
ag80
ag80
ag80
ag80
ag80
ag80
ag80
ag80
ag80
asg81
(lp4171
g415
ag93
ag88
ag93
ag84
ag87
ag88
ag93
ag95
ag311
ag85
ag284
ag95
ag284
ag96
asg97
VAlas, wife, said the man, he cannot make you emperor.
p4172
sba(i__main__
Sentence
p4173
(dp4174
g17
I104
sg18
(lp4175
S'I'
p4176
aS'may'
p4177
aS'not'
p4178
aS'say'
p4179
aS'that'
p4180
aS'to'
p4181
aS'the'
p4182
aS'fish'
p4183
aS'.'
p4184
asg49
(lp4185
g266
aVmay
p4186
aVnot
p4187
aVsay
p4188
aVthat
p4189
aVto
p4190
aVthe
p4191
aVfish
p4192
ag77
asg78
(lp4193
g80
ag80
ag80
ag80
ag80
ag80
ag80
ag80
ag80
asg81
(lp4194
g95
ag311
ag85
ag284
ag86
ag282
ag87
ag92
ag96
asg97
VI may not say that to the fish.
p4195
sba(i__main__
Sentence
p4196
(dp4197
g17
I105
sg18
(lp4198
S'There'
p4199
aS'is'
p4200
aS'only'
p4201
aS'one'
p4202
aS'emperor'
p4203
aS'in'
p4204
aS'the'
p4205
aS'land'
p4206
aS'.'
p4207
asg49
(lp4208
VThere
p4209
ag394
aVonly
p4210
aVone
p4211
aVemperor
p4212
aVin
p4213
aVthe
p4214
aVland
p4215
ag77
asg78
(lp4216
g80
ag80
ag80
ag80
ag80
ag80
ag80
ag80
ag80
asg81
(lp4217
g83
ag416
ag85
ag3841
ag88
ag86
ag87
ag88
ag96
asg97
VThere is only one emperor in the land.
p4218
sba(i__main__
Sentence
p4219
(dp4220
g17
I106
sg18
(lp4221
S'An'
p4222
aS'emperor'
p4223
aS'the'
p4224
aS'flounder'
p4225
aS'can'
p4226
aS'not'
p4227
aS'make'
p4228
aS'you'
p4229
aS'.'
p4230
asg49
(lp4231
VAn
p4232
aVemperor
p4233
aVthe
p4234
aVflounder
p4235
aVcan
p4236
aVnot
p4237
aVmake
p4238
aVyou
p4239
ag77
asg78
(lp4240
g80
ag80
ag80
ag80
ag80
ag80
ag80
ag80
ag80
asg81
(lp4241
g87
ag88
ag87
ag88
ag311
ag85
ag284
ag95
ag96
asg97
VAn emperor the flounder cannot make you.
p4242
sba(i__main__
Sentence
p4243
(dp4244
g17
I107
sg18
(lp4245
S'I'
p4246
aS'assure'
p4247
aS'you'
p4248
aS'he'
p4249
aS'can'
p4250
aS'not'
p4251
aS'.'
p4252
asg49
(lp4253
g266
aVassure
p4254
aVyou
p4255
aVhe
p4256
aVcan
p4257
aVnot
p4258
ag77
asg78
(lp4259
g80
ag80
ag80
ag80
ag80
ag80
ag80
asg81
(lp4260
g95
ag283
ag95
ag95
ag311
ag85
ag96
asg97
VI assure you he cannot.
p4261
sba(i__main__
Sentence
p4262
(dp4263
g17
I108
sg18
(lp4264
S'What'
p4265
aS'.'
p4266
asg49
(lp4267
VWhat
p4268
ag77
asg78
(lp4269
g80
ag80
asg81
(lp4270
g89
ag96
asg97
VWhat.
p4271
sba(i__main__
Sentence
p4272
(dp4273
g17
I109
sg18
(lp4274
S'Said'
p4275
aS'the'
p4276
aS'woman'
p4277
aS','
p4278
aS'I'
p4279
aS'am'
p4280
aS'the'
p4281
aS'king'
p4282
aS','
p4283
aS'and'
p4284
aS'you'
p4285
aS'are'
p4286
aS'nothing'
p4287
aS'but'
p4288
aS'my'
p4289
aS'husband'
p4290
aS'.'
p4291
asg49
(lp4292
VSaid
p4293
aVthe
p4294
aVwoman
p4295
ag69
ag266
ag272
aVthe
p4296
aVking
p4297
ag69
aVand
p4298
aVyou
p4299
ag1661
aVnothing
p4300
aVbut
p4301
aVmy
p4302
aVhusband
p4303
ag77
asg78
(lp4304
g80
ag80
ag80
ag80
ag80
ag80
ag80
ag80
ag80
ag80
ag80
ag80
ag80
ag80
ag80
ag80
ag80
asg81
(lp4305
g415
ag87
ag88
ag93
ag95
ag283
ag87
ag165
ag93
ag94
ag95
ag283
ag165
ag94
ag91
ag88
ag96
asg97
VSaid the woman, I am the king, and you are nothing but my husband.
p4306
sba(i__main__
Sentence
p4307
(dp4308
g17
I110
sg18
(lp4309
S'Will'
p4310
aS'you'
p4311
aS'go'
p4312
aS'this'
p4313
aS'moment'
p4314
aS'.'
p4315
asg49
(lp4316
VWill
p4317
aVyou
p4318
aVgo
p4319
aVthis
p4320
aVmoment
p4321
ag77
asg78
(lp4322
g80
ag80
ag80
ag80
ag80
ag80
asg81
(lp4323
g415
ag95
ag283
ag87
ag88
ag96
asg97
VWill you go this moment.
p4324
sba(i__main__
Sentence
p4325
(dp4326
g17
I111
sg18
(lp4327
S'Go'
p4328
aS'at'
p4329
aS'once'
p4330
aS'.'
p4331
asg49
(lp4332
VGo
p4333
aVat
p4334
aVonce
p4335
ag77
asg78
(lp4336
g80
ag80
ag80
ag80
asg81
(lp4337
g415
ag86
ag85
ag96
asg97
VGo at once.
p4338
sba(i__main__
Sentence
p4339
(dp4340
g17
I112
sg18
(lp4341
S'If'
p4342
aS'he'
p4343
aS'can'
p4344
aS'make'
p4345
aS'a'
p4346
aS'king'
p4347
aS'he'
p4348
aS'can'
p4349
aS'make'
p4350
aS'an'
p4351
aS'emperor'
p4352
aS'.'
p4353
asg49
(lp4354
VIf
p4355
aVhe
p4356
aVcan
p4357
aVmake
p4358
ag55
aVking
p4359
aVhe
p4360
aVcan
p4361
aVmake
p4362
aVan
p4363
aVemperor
p4364
ag77
asg78
(lp4365
g80
ag80
ag80
ag80
ag80
ag80
ag80
ag80
ag80
ag80
ag80
ag80
asg81
(lp4366
g86
ag95
ag311
ag284
ag87
ag88
ag95
ag311
ag284
ag87
ag88
ag96
asg97
VIf he can make a king he can make an emperor.
p4367
sba(i__main__
Sentence
p4368
(dp4369
g17
I113
sg18
(lp4370
S'I'
p4371
aS'will'
p4372
aS'be'
p4373
aS'emperor'
p4374
aS'.'
p4375
asg49
(lp4376
g266
aVwill
p4377
aVbe
p4378
aVemperor
p4379
ag77
asg78
(lp4380
g80
ag80
ag80
ag80
ag80
asg81
(lp4381
g95
ag311
ag284
ag88
ag96
asg97
VI will be emperor.
p4382
sba(i__main__
Sentence
p4383
(dp4384
g17
I114
sg18
(lp4385
S'Go'
p4386
aS'instantly'
p4387
aS'.'
p4388
asg49
(lp4389
VGo
p4390
aVinstantly
p4391
ag77
asg78
(lp4392
g80
ag80
ag80
asg81
(lp4393
g415
ag85
ag96
asg97
VGo instantly.
p4394
sba(i__main__
Sentence
p4395
(dp4396
g17
I115
sg18
(lp4397
S'So'
p4398
aS'he'
p4399
aS'was'
p4400
aS'forced'
p4401
aS'to'
p4402
aS'go'
p4403
aS'.'
p4404
asg49
(lp4405
VSo
p4406
aVhe
p4407
ag52
aVforce
p4408
aVto
p4409
aVgo
p4410
ag77
asg78
(lp4411
g80
ag80
ag80
ag80
ag80
ag80
ag80
asg81
(lp4412
g86
ag95
ag84
ag90
ag282
ag284
ag96
asg97
VSo he was forced to go.
p4413
sba(i__main__
Sentence
p4414
(dp4415
g17
I116
sg18
(lp4416
S'As'
p4417
aS'the'
p4418
aS'man'
p4419
aS'went'
p4420
aS','
p4421
aS'however'
p4422
aS','
p4423
aS'he'
p4424
aS'was'
p4425
aS'troubled'
p4426
aS'in'
p4427
aS'mind'
p4428
aS','
p4429
aS'and'
p4430
aS'thought'
p4431
aS'to'
p4432
aS'himself'
p4433
aS','
p4434
aS'it'
p4435
aS'will'
p4436
aS'not'
p4437
aS'end'
p4438
aS'well'
p4439
aS'.'
p4440
asg49
(lp4441
VAs
p4442
aVthe
p4443
aVman
p4444
ag74
ag69
aVhowever
p4445
ag69
aVhe
p4446
ag52
aVtrouble
p4447
aVin
p4448
aVmind
p4449
ag69
aVand
p4450
ag3288
aVto
p4451
aVhimself
p4452
ag69
aVit
p4453
aVwill
p4454
aVnot
p4455
aVend
p4456
aVwell
p4457
ag77
asg78
(lp4458
g80
ag80
ag80
ag80
ag80
ag80
ag80
ag80
ag80
ag80
ag80
ag80
ag80
ag80
ag80
ag80
ag80
ag80
ag80
ag80
ag80
ag80
ag80
ag80
asg81
(lp4459
g86
ag87
ag88
ag84
ag93
ag85
ag93
ag95
ag84
ag90
ag86
ag88
ag93
ag94
ag84
ag282
ag95
ag93
ag95
ag311
ag85
ag284
ag85
ag96
asg97
VAs the man went, however, he was troubled in mind, and thought to himself, it will not end well.
p4460
sba(i__main__
Sentence
p4461
(dp4462
g17
I117
sg18
(lp4463
S'It'
p4464
aS'will'
p4465
aS'not'
p4466
aS'end'
p4467
aS'well'
p4468
aS'.'
p4469
asg49
(lp4470
VIt
p4471
aVwill
p4472
aVnot
p4473
aVend
p4474
aVwell
p4475
ag77
asg78
(lp4476
g80
ag80
ag80
ag80
ag80
ag80
asg81
(lp4477
g95
ag311
ag85
ag284
ag85
ag96
asg97
VIt will not end well.
p4478
sba(i__main__
Sentence
p4479
(dp4480
g17
I118
sg18
(lp4481
S'Emperor'
p4482
aS'is'
p4483
aS'too'
p4484
aS'shameless'
p4485
aS'.'
p4486
asg49
(lp4487
VEmperor
p4488
ag394
aVtoo
p4489
aVshameless
p4490
ag77
asg78
(lp4491
g80
ag80
ag80
ag80
ag80
asg81
(lp4492
g415
ag416
ag85
ag85
ag96
asg97
VEmperor is too shameless.
p4493
sba(i__main__
Sentence
p4494
(dp4495
g17
I119
sg18
(lp4496
S'The'
p4497
aS'flounder'
p4498
aS'will'
p4499
aS'at'
p4500
aS'last'
p4501
aS'be'
p4502
aS'tired'
p4503
aS'out'
p4504
aS'.'
p4505
asg49
(lp4506
VThe
p4507
aVflounder
p4508
aVwill
p4509
aVat
p4510
aVlast
p4511
aVbe
p4512
aVtire
p4513
aVout
p4514
ag77
asg78
(lp4515
g80
ag80
ag80
ag80
ag80
ag80
ag80
ag80
ag80
asg81
(lp4516
g87
ag88
ag311
ag86
ag92
ag284
ag90
ag220
ag96
asg97
VThe flounder will at last be tired out.
p4517
sba(i__main__
Sentence
p4518
(dp4519
g17
I120
sg18
(lp4520
S'With'
p4521
aS'that'
p4522
aS'he'
p4523
aS'reached'
p4524
aS'the'
p4525
aS'sea'
p4526
aS','
p4527
aS'and'
p4528
aS'the'
p4529
aS'sea'
p4530
aS'was'
p4531
aS'quite'
p4532
aS'black'
p4533
aS'and'
p4534
aS'thick'
p4535
aS','
p4536
aS'and'
p4537
aS'began'
p4538
aS'to'
p4539
aS'boil'
p4540
aS'up'
p4541
aS'from'
p4542
aS'below'
p4543
aS','
p4544
aS'so'
p4545
aS'that'
p4546
aS'it'
p4547
aS'threw'
p4548
aS'up'
p4549
aS'bubbles'
p4550
aS','
p4551
aS'and'
p4552
aS'such'
p4553
aS'a'
p4554
aS'sharp'
p4555
aS'wind'
p4556
aS'blew'
p4557
aS'over'
p4558
aS'it'
p4559
aS'that'
p4560
aS'it'
p4561
aS'curdled'
p4562
aS','
p4563
aS'and'
p4564
aS'the'
p4565
aS'man'
p4566
aS'was'
p4567
aS'afraid'
p4568
aS'.'
p4569
asg49
(lp4570
VWith
p4571
aVthat
p4572
aVhe
p4573
aVreach
p4574
aVthe
p4575
aVsea
p4576
ag69
aVand
p4577
aVthe
p4578
aVsea
p4579
ag52
aVquite
p4580
aVblack
p4581
aVand
p4582
aVthick
p4583
ag69
aVand
p4584
aVbegin
p4585
aVto
p4586
aVboil
p4587
aVup
p4588
aVfrom
p4589
aVbelow
p4590
ag69
aVso
p4591
aVthat
p4592
aVit
p4593
aVthrow
p4594
aVup
p4595
aVbubble
p4596
ag69
aVand
p4597
aVsuch
p4598
ag55
aVsharp
p4599
aVwind
p4600
aVblew
p4601
aVover
p4602
aVit
p4603
aVthat
p4604
aVit
p4605
aVcurdle
p4606
ag69
aVand
p4607
aVthe
p4608
aVman
p4609
ag52
aVafraid
p4610
ag77
asg78
(lp4611
g80
ag80
ag80
ag80
ag80
ag80
ag80
ag80
ag80
ag80
ag80
ag80
ag80
ag80
ag80
ag80
ag80
ag80
ag80
ag80
ag80
ag80
ag80
ag80
ag80
ag80
ag80
ag80
ag80
ag80
ag80
ag80
ag80
ag80
ag80
ag80
ag80
ag80
ag80
ag80
ag80
ag80
ag80
ag80
ag80
ag80
ag80
ag80
ag80
asg81
(lp4612
g86
ag87
ag95
ag84
ag87
ag88
ag93
ag94
ag87
ag88
ag84
ag85
ag92
ag94
ag88
ag93
ag94
ag84
ag282
ag88
ag86
ag86
ag86
ag93
ag85
ag86
ag95
ag84
ag220
ag417
ag93
ag94
ag92
ag87
ag92
ag88
ag88
ag86
ag95
ag86
ag95
ag84
ag93
ag94
ag87
ag88
ag84
ag92
ag96
asg97
VWith that he reached the sea, and the sea was quite black and thick, and began to boil up from below, so that it threw up bubbles, and such a sharp wind blew over it that it curdled, and the man was afraid.
p4613
sba(i__main__
Sentence
p4614
(dp4615
g17
I121
sg18
(lp4616
S'Then'
p4617
aS'he'
p4618
aS'went'
p4619
aS'and'
p4620
aS'stood'
p4621
aS'by'
p4622
aS'it'
p4623
aS','
p4624
aS'and'
p4625
aS'said'
p4626
aS','
p4627
aS'flounder'
p4628
aS','
p4629
aS'flounder'
p4630
aS'in'
p4631
aS'the'
p4632
aS'sea'
p4633
aS','
p4634
aS'come'
p4635
aS','
p4636
aS'I'
p4637
aS'pray'
p4638
aS'thee'
p4639
aS','
p4640
aS'here'
p4641
aS'to'
p4642
aS'me'
p4643
aS'.'
p4644
asg49
(lp4645
VThen
p4646
aVhe
p4647
ag74
aVand
p4648
aVstood
p4649
aVby
p4650
aVit
p4651
ag69
aVand
p4652
ag260
ag69
aVflounder
p4653
ag69
aVflounder
p4654
aVin
p4655
aVthe
p4656
aVsea
p4657
ag69
aVcome
p4658
ag69
ag266
aVpray
p4659
aVthee
p4660
ag69
aVhere
p4661
aVto
p4662
aVme
p4663
ag77
asg78
(lp4664
g80
ag80
ag80
ag80
ag80
ag80
ag80
ag80
ag80
ag80
ag80
ag80
ag80
ag80
ag80
ag80
ag80
ag80
ag80
ag80
ag80
ag80
ag80
ag80
ag80
ag80
ag80
ag80
asg81
(lp4665
g85
ag95
ag84
ag94
ag88
ag86
ag95
ag93
ag94
ag84
ag93
ag88
ag93
ag88
ag86
ag87
ag88
ag93
ag283
ag93
ag95
ag283
ag92
ag93
ag85
ag282
ag95
ag96
asg97
VThen he went and stood by it, and said,           flounder, flounder in the sea,           come, I pray thee, here to me.
p4666
sba(i__main__
Sentence
p4667
(dp4668
g17
I122
sg18
(lp4669
S'For'
p4670
aS'my'
p4671
aS'wife'
p4672
aS','
p4673
aS'good'
p4674
aS'ilsabil'
p4675
aS','
p4676
aS'wills'
p4677
aS'not'
p4678
aS'as'
p4679
aS'I'
p4680
aS"'d"
p4681
aS'have'
p4682
aS'her'
p4683
aS'will'
p4684
aS'.'
p4685
asg49
(lp4686
VFor
p4687
aVmy
p4688
aVwife
p4689
ag69
aVgood
p4690
aVilsabil
p4691
ag69
aVwill
p4692
aVnot
p4693
ag55
ag266
aV'd
p4694
aVhave
p4695
aVher
p4696
aVwill
p4697
ag77
asg78
(lp4698
g80
ag80
ag80
ag80
ag80
ag80
ag80
ag80
ag80
ag80
ag80
ag80
ag80
ag80
ag80
ag80
asg81
(lp4699
g86
ag91
ag88
ag93
ag92
ag88
ag93
ag417
ag85
ag86
ag95
ag311
ag284
ag91
ag311
ag96
asg97
VFor my wife, good ilsabil,           wills not as I'd have her will.
p4700
sba(i__main__
Sentence
p4701
(dp4702
g17
I123
sg18
(lp4703
S'Well'
p4704
aS','
p4705
aS'what'
p4706
aS'does'
p4707
aS'she'
p4708
aS'want'
p4709
aS','
p4710
aS'now'
p4711
aS','
p4712
aS'said'
p4713
aS'the'
p4714
aS'flounder'
p4715
aS'.'
p4716
asg49
(lp4717
VWell
p4718
ag69
aVwhat
p4719
aVdo
p4720
aVshe
p4721
aVwant
p4722
ag69
aVnow
p4723
ag69
ag260
aVthe
p4724
aVflounder
p4725
ag77
asg78
(lp4726
g80
ag80
ag80
ag80
ag80
ag80
ag80
ag80
ag80
ag80
ag80
ag80
ag80
asg81
(lp4727
g415
ag93
ag89
ag416
ag95
ag283
ag93
ag85
ag93
ag84
ag87
ag88
ag96
asg97
VWell, what does she want, now, said the flounder.
p4728
sba(i__main__
Sentence
p4729
(dp4730
g17
I124
sg18
(lp4731
S'Alas'
p4732
aS','
p4733
aS'flounder'
p4734
aS','
p4735
aS'said'
p4736
aS'he'
p4737
aS','
p4738
aS'my'
p4739
aS'wife'
p4740
aS'wants'
p4741
aS'to'
p4742
aS'be'
p4743
aS'emperor'
p4744
aS'.'
p4745
asg49
(lp4746
VAlas
p4747
ag69
aVflounder
p4748
ag69
ag260
aVhe
p4749
ag69
aVmy
p4750
aVwife
p4751
aVwant
p4752
aVto
p4753
aVbe
p4754
aVemperor
p4755
ag77
asg78
(lp4756
g80
ag80
ag80
ag80
ag80
ag80
ag80
ag80
ag80
ag80
ag80
ag80
ag80
ag80
asg81
(lp4757
g415
ag93
ag88
ag93
ag84
ag95
ag93
ag91
ag88
ag417
ag282
ag284
ag88
ag96
asg97
VAlas, flounder, said he, my wife wants to be emperor.
p4758
sba(i__main__
Sentence
p4759
(dp4760
g17
I125
sg18
(lp4761
S'Go'
p4762
aS'to'
p4763
aS'her'
p4764
aS','
p4765
aS'said'
p4766
aS'the'
p4767
aS'flounder'
p4768
aS'.'
p4769
asg49
(lp4770
VGo
p4771
aVto
p4772
aVher
p4773
ag69
ag260
aVthe
p4774
aVflounder
p4775
ag77
asg78
(lp4776
g80
ag80
ag80
ag80
ag80
ag80
ag80
ag80
asg81
(lp4777
g415
ag282
ag91
ag93
ag84
ag87
ag88
ag96
asg97
VGo to her, said the flounder.
p4778
sba(i__main__
Sentence
p4779
(dp4780
g17
I126
sg18
(lp4781
S'She'
p4782
aS'is'
p4783
aS'emperor'
p4784
aS'already'
p4785
aS'.'
p4786
asg49
(lp4787
VShe
p4788
ag394
aVemperor
p4789
aValready
p4790
ag77
asg78
(lp4791
g80
ag80
ag80
ag80
ag80
asg81
(lp4792
g95
ag416
ag92
ag85
ag96
asg97
VShe is emperor already.
p4793
sba(i__main__
Sentence
p4794
(dp4795
g17
I127
sg18
(lp4796
S'So'
p4797
aS'the'
p4798
aS'man'
p4799
aS'went'
p4800
aS','
p4801
aS'and'
p4802
aS'when'
p4803
aS'he'
p4804
aS'got'
p4805
aS'there'
p4806
aS'the'
p4807
aS'whole'
p4808
aS'palace'
p4809
aS'was'
p4810
aS'made'
p4811
aS'of'
p4812
aS'polished'
p4813
aS'marble'
p4814
aS'with'
p4815
aS'alabaster'
p4816
aS'figures'
p4817
aS'and'
p4818
aS'golden'
p4819
aS'ornaments'
p4820
aS','
p4821
aS'and'
p4822
aS'soldiers'
p4823
aS'were'
p4824
aS'marching'
p4825
aS'before'
p4826
aS'the'
p4827
aS'door'
p4828
aS'blowing'
p4829
aS'trumpets'
p4830
aS','
p4831
aS'and'
p4832
aS'beating'
p4833
aS'cymbals'
p4834
aS'and'
p4835
aS'drums'
p4836
aS'.'
p4837
asg49
(lp4838
VSo
p4839
aVthe
p4840
aVman
p4841
ag74
ag69
aVand
p4842
aVwhen
p4843
aVhe
p4844
ag504
aVthere
p4845
aVthe
p4846
aVwhole
p4847
aVpalace
p4848
ag52
ag1422
aVof
p4849
aVpolished
p4850
aVmarble
p4851
aVwith
p4852
aValabaster
p4853
aVfigure
p4854
aVand
p4855
aVgolden
p4856
aVornament
p4857
ag69
aVand
p4858
aVsoldier
p4859
ag2514
aVmarch
p4860
aVbefore
p4861
aVthe
p4862
aVdoor
p4863
aVblow
p4864
aVtrumpet
p4865
ag69
aVand
p4866
aVbeat
p4867
aVcymbal
p4868
aVand
p4869
aVdrum
p4870
ag77
asg78
(lp4871
g80
ag80
ag80
ag80
ag80
ag80
ag80
ag80
ag80
ag80
ag80
ag80
ag80
ag80
ag80
ag80
ag80
ag80
ag80
ag80
ag80
ag80
ag80
ag80
ag80
ag80
ag80
ag80
ag80
ag80
ag80
ag80
ag80
ag80
ag80
ag80
ag80
ag80
ag80
ag80
ag80
asg81
(lp4872
g86
ag87
ag88
ag84
ag93
ag94
ag219
ag95
ag84
ag85
ag87
ag92
ag88
ag84
ag90
ag86
ag92
ag92
ag86
ag88
ag417
ag94
ag92
ag417
ag93
ag94
ag417
ag84
ag165
ag86
ag87
ag88
ag165
ag417
ag93
ag94
ag165
ag417
ag94
ag417
ag96
asg97
VSo the man went, and when he got there the whole palace was made of polished marble with alabaster figures and golden ornaments, and soldiers were marching before the door blowing trumpets, and beating cymbals and drums.
p4873
sba(i__main__
Sentence
p4874
(dp4875
g17
I128
sg18
(lp4876
S'And'
p4877
aS'in'
p4878
aS'the'
p4879
aS'house'
p4880
aS','
p4881
aS'barons'
p4882
aS','
p4883
aS'and'
p4884
aS'counts'
p4885
aS','
p4886
aS'and'
p4887
aS'dukes'
p4888
aS'were'
p4889
aS'going'
p4890
aS'about'
p4891
aS'as'
p4892
aS'servants'
p4893
aS'.'
p4894
asg49
(lp4895
VAnd
p4896
aVin
p4897
aVthe
p4898
aVhouse
p4899
ag69
aVbaron
p4900
ag69
aVand
p4901
aVcount
p4902
ag69
aVand
p4903
aVdukes
p4904
ag2514
aVgo
p4905
aVabout
p4906
ag55
aVservant
p4907
ag77
asg78
(lp4908
g80
ag80
ag80
ag80
ag80
ag80
ag80
ag80
ag80
ag80
ag80
ag80
ag80
ag80
ag80
ag80
ag80
ag80
asg81
(lp4909
g94
ag86
ag87
ag88
ag93
ag417
ag93
ag94
ag417
ag93
ag94
ag416
ag84
ag165
ag86
ag86
ag417
ag96
asg97
VAnd in the house, barons, and counts, and dukes were going about as servants.
p4910
sba(i__main__
Sentence
p4911
(dp4912
g17
I129
sg18
(lp4913
S'Then'
p4914
aS'they'
p4915
aS'opened'
p4916
aS'the'
p4917
aS'doors'
p4918
aS'to'
p4919
aS'him'
p4920
aS','
p4921
aS'which'
p4922
aS'were'
p4923
aS'of'
p4924
aS'pure'
p4925
aS'gold'
p4926
aS'.'
p4927
asg49
(lp4928
VThen
p4929
aVthey
p4930
aVopen
p4931
aVthe
p4932
aVdoor
p4933
aVto
p4934
aVhim
p4935
ag69
aVwhich
p4936
ag2514
aVof
p4937
aVpure
p4938
aVgold
p4939
ag77
asg78
(lp4940
g80
ag80
ag80
ag80
ag80
ag80
ag80
ag80
ag80
ag80
ag80
ag80
ag80
ag80
asg81
(lp4941
g85
ag95
ag84
ag87
ag417
ag282
ag95
ag93
ag698
ag84
ag86
ag88
ag88
ag96
asg97
VThen they opened the doors to him, which were of pure gold.
p4942
sba(i__main__
Sentence
p4943
(dp4944
g17
I130
sg18
(lp4945
S'And'
p4946
aS'when'
p4947
aS'he'
p4948
aS'entered'
p4949
aS','
p4950
aS'there'
p4951
aS'sat'
p4952
aS'his'
p4953
aS'wife'
p4954
aS'on'
p4955
aS'a'
p4956
aS'throne'
p4957
aS','
p4958
aS'which'
p4959
aS'was'
p4960
aS'made'
p4961
aS'of'
p4962
aS'one'
p4963
aS'piece'
p4964
aS'of'
p4965
aS'gold'
p4966
aS','
p4967
aS'and'
p4968
aS'was'
p4969
aS'quite'
p4970
aS'two'
p4971
aS'miles'
p4972
aS'high'
p4973
aS'.'
p4974
asg49
(lp4975
VAnd
p4976
aVwhen
p4977
aVhe
p4978
aVenter
p4979
ag69
aVthere
p4980
aVsat
p4981
aVhis
p4982
aVwife
p4983
aVon
p4984
ag55
aVthrone
p4985
ag69
aVwhich
p4986
ag52
ag1422
aVof
p4987
aVone
p4988
aVpiece
p4989
aVof
p4990
aVgold
p4991
ag69
aVand
p4992
ag52
aVquite
p4993
aVtwo
p4994
aVmile
p4995
aVhigh
p4996
ag77
asg78
(lp4997
g80
ag80
ag80
ag80
ag80
ag80
ag80
ag80
ag80
ag80
ag80
ag80
ag80
ag80
ag80
ag80
ag80
ag80
ag80
ag80
ag80
ag80
ag80
ag80
ag80
ag80
ag80
ag80
ag80
asg81
(lp4998
g94
ag219
ag95
ag84
ag93
ag83
ag88
ag91
ag88
ag86
ag87
ag88
ag93
ag698
ag84
ag90
ag86
ag3841
ag88
ag86
ag88
ag93
ag94
ag84
ag85
ag3841
ag417
ag92
ag96
asg97
VAnd when he entered, there sat his wife on a throne, which was made of one piece of gold, and was quite two miles high.
p4999
sba(i__main__
Sentence
p5000
(dp5001
g17
I131
sg18
(lp5002
S'And'
p5003
aS'she'
p5004
aS'wore'
p5005
aS'a'
p5006
aS'great'
p5007
aS'golden'
p5008
aS'crown'
p5009
aS'that'
p5010
aS'was'
p5011
aS'three'
p5012
aS'yards'
p5013
aS'high'
p5014
aS','
p5015
aS'and'
p5016
aS'set'
p5017
aS'with'
p5018
aS'diamonds'
p5019
aS'and'
p5020
aS'carbuncles'
p5021
aS','
p5022
aS'and'
p5023
aS'in'
p5024
aS'one'
p5025
aS'hand'
p5026
aS'she'
p5027
aS'had'
p5028
aS'the'
p5029
aS'sceptre'
p5030
aS','
p5031
aS'and'
p5032
aS'in'
p5033
aS'the'
p5034
aS'other'
p5035
aS'the'
p5036
aS'imperial'
p5037
aS'orb'
p5038
aS'.'
p5039
asg49
(lp5040
VAnd
p5041
aVshe
p5042
aVwear
p5043
ag55
aVgreat
p5044
aVgolden
p5045
aVcrown
p5046
aVthat
p5047
ag52
aVthree
p5048
aVyard
p5049
aVhigh
p5050
ag69
aVand
p5051
aVset
p5052
aVwith
p5053
aVdiamond
p5054
aVand
p5055
aVcarbuncle
p5056
ag69
aVand
p5057
aVin
p5058
aVone
p5059
aVhand
p5060
aVshe
p5061
ag2543
aVthe
p5062
aVsceptre
p5063
ag69
aVand
p5064
aVin
p5065
aVthe
p5066
aVother
p5067
aVthe
p5068
aVimperial
p5069
aVorb
p5070
ag77
asg78
(lp5071
g80
ag80
ag80
ag80
ag80
ag80
ag80
ag80
ag80
ag80
ag80
ag80
ag80
ag80
ag80
ag80
ag80
ag80
ag80
ag80
ag80
ag80
ag80
ag80
ag80
ag80
ag80
ag80
ag80
ag80
ag80
ag80
ag80
ag80
ag80
ag80
ag80
asg81
(lp5072
g94
ag95
ag283
ag87
ag92
ag88
ag88
ag698
ag84
ag3841
ag417
ag92
ag93
ag94
ag84
ag86
ag417
ag94
ag417
ag93
ag94
ag86
ag3841
ag88
ag95
ag84
ag87
ag88
ag93
ag94
ag86
ag87
ag92
ag87
ag92
ag88
ag96
asg97
VAnd she wore a great golden crown that was three yards high, and set with diamonds and carbuncles, and in one hand she had the sceptre, and in the other the imperial orb.
p5073
sba(i__main__
Sentence
p5074
(dp5075
g17
I132
sg18
(lp5076
S'And'
p5077
aS'on'
p5078
aS'both'
p5079
aS'sides'
p5080
aS'of'
p5081
aS'her'
p5082
aS'stood'
p5083
aS'the'
p5084
aS'yeomen'
p5085
aS'of'
p5086
aS'the'
p5087
aS'guard'
p5088
aS'in'
p5089
aS'two'
p5090
aS'rows'
p5091
aS','
p5092
aS'each'
p5093
aS'being'
p5094
aS'smaller'
p5095
aS'than'
p5096
aS'the'
p5097
aS'one'
p5098
aS'before'
p5099
aS'him'
p5100
aS','
p5101
aS'from'
p5102
aS'the'
p5103
aS'biggest'
p5104
aS'giant'
p5105
aS','
p5106
aS'who'
p5107
aS'was'
p5108
aS'two'
p5109
aS'miles'
p5110
aS'high'
p5111
aS','
p5112
aS'to'
p5113
aS'the'
p5114
aS'very'
p5115
aS'smallest'
p5116
aS'dwarf'
p5117
aS','
p5118
aS'just'
p5119
aS'as'
p5120
aS'big'
p5121
aS'as'
p5122
aS'my'
p5123
aS'little'
p5124
aS'finger'
p5125
aS'.'
p5126
asg49
(lp5127
VAnd
p5128
aVon
p5129
aVboth
p5130
aVside
p5131
aVof
p5132
aVher
p5133
aVstood
p5134
aVthe
p5135
aVyeoman
p5136
aVof
p5137
aVthe
p5138
aVguard
p5139
aVin
p5140
aVtwo
p5141
aVrow
p5142
ag69
aVeach
p5143
aVbe
p5144
aVsmall
p5145
aVthan
p5146
aVthe
p5147
aVone
p5148
aVbefore
p5149
aVhim
p5150
ag69
aVfrom
p5151
aVthe
p5152
aVbig
p5153
aVgiant
p5154
ag69
aVwho
p5155
ag52
aVtwo
p5156
aVmile
p5157
aVhigh
p5158
ag69
aVto
p5159
aVthe
p5160
aVvery
p5161
aVsmallest
p5162
aVdwarf
p5163
ag69
aVjust
p5164
ag55
aVbig
p5165
ag55
aVmy
p5166
aVlittle
p5167
aVfinger
p5168
ag77
asg78
(lp5169
g80
ag80
ag80
ag80
ag80
ag80
ag80
ag80
ag80
ag80
ag80
ag80
ag80
ag80
ag80
ag80
ag80
ag80
ag80
ag80
ag80
ag80
ag80
ag80
ag80
ag80
ag80
ag80
ag80
ag80
ag80
ag80
ag80
ag80
ag80
ag80
ag80
ag80
ag80
ag80
ag80
ag80
ag80
ag80
ag80
ag80
ag80
ag80
ag80
ag80
asg81
(lp5170
g94
ag86
ag87
ag417
ag86
ag91
ag88
ag87
ag417
ag86
ag87
ag88
ag86
ag3841
ag417
ag93
ag87
ag165
ag1695
ag86
ag87
ag3841
ag86
ag95
ag93
ag86
ag87
ag1431
ag92
ag93
ag89
ag84
ag3841
ag417
ag92
ag93
ag282
ag87
ag92
ag88
ag88
ag93
ag85
ag86
ag92
ag86
ag91
ag92
ag88
ag96
asg97
VAnd on both sides of her stood the yeomen of the guard in two rows, each being smaller than the one before him, from the biggest giant, who was two miles high, to the very smallest dwarf, just as big as my little finger.
p5171
sba(i__main__
Sentence
p5172
(dp5173
g17
I133
sg18
(lp5174
S'And'
p5175
aS'before'
p5176
aS'it'
p5177
aS'stood'
p5178
aS'a'
p5179
aS'number'
p5180
aS'of'
p5181
aS'princes'
p5182
aS'and'
p5183
aS'dukes'
p5184
aS'.'
p5185
asg49
(lp5186
VAnd
p5187
aVbefore
p5188
aVit
p5189
ag995
ag55
aVnumber
p5190
aVof
p5191
aVprince
p5192
aVand
p5193
aVdukes
p5194
ag77
asg78
(lp5195
g80
ag80
ag80
ag80
ag80
ag80
ag80
ag80
ag80
ag80
ag80
asg81
(lp5196
g94
ag86
ag95
ag84
ag87
ag88
ag86
ag417
ag94
ag416
ag96
asg97
VAnd before it stood a number of princes and dukes.
p5197
sba(i__main__
Sentence
p5198
(dp5199
g17
I134
sg18
(lp5200
S'Then'
p5201
aS'the'
p5202
aS'man'
p5203
aS'went'
p5204
aS'and'
p5205
aS'stood'
p5206
aS'among'
p5207
aS'them'
p5208
aS','
p5209
aS'and'
p5210
aS'said'
p5211
aS','
p5212
aS'wife'
p5213
aS','
p5214
aS'are'
p5215
aS'you'
p5216
aS'emperor'
p5217
aS'now'
p5218
aS'.'
p5219
asg49
(lp5220
VThen
p5221
aVthe
p5222
aVman
p5223
ag74
aVand
p5224
aVstood
p5225
aVamong
p5226
aVthem
p5227
ag69
aVand
p5228
ag260
ag69
aVwife
p5229
ag69
ag1661
aVyou
p5230
aVemperor
p5231
aVnow
p5232
ag77
asg78
(lp5233
g80
ag80
ag80
ag80
ag80
ag80
ag80
ag80
ag80
ag80
ag80
ag80
ag80
ag80
ag80
ag80
ag80
ag80
ag80
asg81
(lp5234
g85
ag87
ag88
ag84
ag94
ag88
ag86
ag95
ag93
ag94
ag84
ag93
ag88
ag93
ag283
ag95
ag85
ag85
ag96
asg97
VThen the man went and stood among them, and said, wife, are you emperor now.
p5235
sba(i__main__
Sentence
p5236
(dp5237
g17
I135
sg18
(lp5238
S'Yes'
p5239
aS','
p5240
aS'said'
p5241
aS'she'
p5242
aS','
p5243
aS'now'
p5244
aS'I'
p5245
aS'am'
p5246
aS'emperor'
p5247
aS'.'
p5248
asg49
(lp5249
VYes
p5250
ag69
ag260
aVshe
p5251
ag69
aVnow
p5252
ag266
ag272
aVemperor
p5253
ag77
asg78
(lp5254
g80
ag80
ag80
ag80
ag80
ag80
ag80
ag80
ag80
ag80
asg81
(lp5255
g417
ag93
ag84
ag95
ag93
ag85
ag95
ag283
ag88
ag96
asg97
VYes, said she, now I am emperor.
p5256
sba(i__main__
Sentence
p5257
(dp5258
g17
I136
sg18
(lp5259
S'Then'
p5260
aS'he'
p5261
aS'stood'
p5262
aS'and'
p5263
aS'looked'
p5264
aS'at'
p5265
aS'her'
p5266
aS'well'
p5267
aS','
p5268
aS'and'
p5269
aS'when'
p5270
aS'he'
p5271
aS'had'
p5272
aS'looked'
p5273
aS'at'
p5274
aS'her'
p5275
aS'thus'
p5276
aS'for'
p5277
aS'some'
p5278
aS'time'
p5279
aS','
p5280
aS'he'
p5281
aS'said'
p5282
aS','
p5283
aS'ah'
p5284
aS','
p5285
aS'wife'
p5286
aS','
p5287
aS'be'
p5288
aS'content'
p5289
aS','
p5290
aS'now'
p5291
aS'that'
p5292
aS'you'
p5293
aS'are'
p5294
aS'emperor'
p5295
aS'.'
p5296
asg49
(lp5297
VThen
p5298
aVhe
p5299
ag995
aVand
p5300
aVlook
p5301
aVat
p5302
aVher
p5303
aVwell
p5304
ag69
aVand
p5305
aVwhen
p5306
aVhe
p5307
ag2543
aVlook
p5308
aVat
p5309
aVher
p5310
aVthus
p5311
aVfor
p5312
aVsome
p5313
aVtime
p5314
ag69
aVhe
p5315
ag260
ag69
aVah
p5316
ag69
aVwife
p5317
ag69
aVbe
p5318
aVcontent
p5319
ag69
aVnow
p5320
aVthat
p5321
aVyou
p5322
ag1661
aVemperor
p5323
ag77
asg78
(lp5324
g80
ag80
ag80
ag80
ag80
ag80
ag80
ag80
ag80
ag80
ag80
ag80
ag80
ag80
ag80
ag80
ag80
ag80
ag80
ag80
ag80
ag80
ag80
ag80
ag80
ag80
ag80
ag80
ag80
ag80
ag80
ag80
ag80
ag80
ag80
ag80
ag80
asg81
(lp5325
g85
ag95
ag84
ag94
ag90
ag86
ag91
ag85
ag93
ag94
ag219
ag95
ag84
ag90
ag86
ag91
ag88
ag86
ag87
ag88
ag93
ag95
ag84
ag93
ag88
ag93
ag88
ag93
ag284
ag92
ag93
ag85
ag86
ag95
ag283
ag85
ag96
asg97
VThen he stood and looked at her well, and when he had looked at her thus for some time, he said, ah, wife, be content, now that you are emperor.
p5326
sba(i__main__
Sentence
p5327
(dp5328
g17
I137
sg18
(lp5329
S'Husband'
p5330
aS','
p5331
aS'said'
p5332
aS'she'
p5333
aS','
p5334
aS'why'
p5335
aS'are'
p5336
aS'you'
p5337
aS'standing'
p5338
aS'there'
p5339
aS'.'
p5340
asg49
(lp5341
VHusband
p5342
ag69
ag260
aVshe
p5343
ag69
aVwhy
p5344
ag1661
aVyou
p5345
aVstand
p5346
aVthere
p5347
ag77
asg78
(lp5348
VPERSON
p5349
ag80
ag80
ag80
ag80
ag80
ag80
ag80
ag80
ag80
ag80
asg81
(lp5350
g415
ag93
ag84
ag95
ag93
ag219
ag283
ag95
ag165
ag85
ag96
asg97
VHusband, said she, why are you standing there.
p5351
sba(i__main__
Sentence
p5352
(dp5353
g17
I138
sg18
(lp5354
S'Now'
p5355
aS','
p5356
aS'I'
p5357
aS'am'
p5358
aS'emperor'
p5359
aS','
p5360
aS'but'
p5361
aS'I'
p5362
aS'will'
p5363
aS'be'
p5364
aS'pope'
p5365
aS'too'
p5366
aS'.'
p5367
asg49
(lp5368
VNow
p5369
ag69
ag266
ag272
aVemperor
p5370
ag69
aVbut
p5371
ag266
aVwill
p5372
aVbe
p5373
aVpope
p5374
aVtoo
p5375
ag77
asg78
(lp5376
g80
ag80
ag80
ag80
ag80
ag80
ag80
ag80
ag80
ag80
ag80
ag80
ag80
asg81
(lp5377
g85
ag93
ag95
ag283
ag88
ag93
ag94
ag95
ag311
ag284
ag88
ag85
ag96
asg97
VNow, I am emperor, but I will be pope too.
p5378
sba(i__main__
Sentence
p5379
(dp5380
g17
I139
sg18
(lp5381
S'Go'
p5382
aS'to'
p5383
aS'the'
p5384
aS'flounder'
p5385
aS'.'
p5386
asg49
(lp5387
VGo
p5388
aVto
p5389
aVthe
p5390
aVflounder
p5391
ag77
asg78
(lp5392
g80
ag80
ag80
ag80
ag80
asg81
(lp5393
g415
ag282
ag87
ag88
ag96
asg97
VGo to the flounder.
p5394
sba(i__main__
Sentence
p5395
(dp5396
g17
I140
sg18
(lp5397
S'Oh'
p5398
aS','
p5399
aS'wife'
p5400
aS','
p5401
aS'said'
p5402
aS'the'
p5403
aS'man'
p5404
aS','
p5405
aS'what'
p5406
aS'will'
p5407
aS'you'
p5408
aS'not'
p5409
aS'wish'
p5410
aS'for'
p5411
aS'.'
p5412
asg49
(lp5413
VOh
p5414
ag69
aVwife
p5415
ag69
ag260
aVthe
p5416
aVman
p5417
ag69
aVwhat
p5418
aVwill
p5419
aVyou
p5420
aVnot
p5421
aVwish
p5422
aVfor
p5423
ag77
asg78
(lp5424
g80
ag80
ag80
ag80
ag80
ag80
ag80
ag80
ag80
ag80
ag80
ag80
ag80
ag80
ag80
asg81
(lp5425
g4100
ag93
ag88
ag93
ag84
ag87
ag88
ag93
ag89
ag311
ag95
ag85
ag284
ag86
ag96
asg97
VOh, wife, said the man, what will you not wish for.
p5426
sba(i__main__
Sentence
p5427
(dp5428
g17
I141
sg18
(lp5429
S'You'
p5430
aS'can'
p5431
aS'not'
p5432
aS'be'
p5433
aS'pope'
p5434
aS'.'
p5435
asg49
(lp5436
VYou
p5437
aVcan
p5438
aVnot
p5439
aVbe
p5440
aVpope
p5441
ag77
asg78
(lp5442
g80
ag80
ag80
ag80
ag80
ag80
asg81
(lp5443
g95
ag311
ag85
ag284
ag85
ag96
asg97
VYou cannot be pope.
p5444
sba(i__main__
Sentence
p5445
(dp5446
g17
I142
sg18
(lp5447
S'There'
p5448
aS'is'
p5449
aS'but'
p5450
aS'one'
p5451
aS'in'
p5452
aS'christendom'
p5453
aS'.'
p5454
asg49
(lp5455
VThere
p5456
ag394
aVbut
p5457
aVone
p5458
aVin
p5459
aVchristendom
p5460
ag77
asg78
(lp5461
g80
ag80
ag80
ag80
ag80
ag80
ag80
asg81
(lp5462
g83
ag416
ag94
ag3841
ag86
ag88
ag96
asg97
VThere is but one in christendom.
p5463
sba(i__main__
Sentence
p5464
(dp5465
g17
I143
sg18
(lp5466
S'He'
p5467
aS'can'
p5468
aS'not'
p5469
aS'make'
p5470
aS'you'
p5471
aS'pope'
p5472
aS'.'
p5473
asg49
(lp5474
VHe
p5475
aVcan
p5476
aVnot
p5477
aVmake
p5478
aVyou
p5479
aVpope
p5480
ag77
asg78
(lp5481
g80
ag80
ag80
ag80
ag80
ag80
ag80
asg81
(lp5482
g95
ag311
ag85
ag284
ag95
ag284
ag96
asg97
VHe cannot make you pope.
p5483
sba(i__main__
Sentence
p5484
(dp5485
g17
I144
sg18
(lp5486
S'Husband'
p5487
aS','
p5488
aS'said'
p5489
aS'she'
p5490
aS','
p5491
aS'I'
p5492
aS'will'
p5493
aS'be'
p5494
aS'pope'
p5495
aS'.'
p5496
asg49
(lp5497
VHusband
p5498
ag69
ag260
aVshe
p5499
ag69
ag266
aVwill
p5500
aVbe
p5501
aVpope
p5502
ag77
asg78
(lp5503
VPERSON
p5504
ag80
ag80
ag80
ag80
ag80
ag80
ag80
ag80
ag80
asg81
(lp5505
g415
ag93
ag84
ag95
ag93
ag95
ag311
ag284
ag88
ag96
asg97
VHusband, said she, I will be pope.
p5506
sba(i__main__
Sentence
p5507
(dp5508
g17
I145
sg18
(lp5509
S'Go'
p5510
aS'immediately'
p5511
aS','
p5512
aS'I'
p5513
aS'must'
p5514
aS'be'
p5515
aS'pope'
p5516
aS'this'
p5517
aS'very'
p5518
aS'day'
p5519
aS'.'
p5520
asg49
(lp5521
VGo
p5522
aVimmediately
p5523
ag69
ag266
aVmust
p5524
aVbe
p5525
aVpope
p5526
aVthis
p5527
aVvery
p5528
aVday
p5529
ag77
asg78
(lp5530
g80
ag80
ag80
ag80
ag80
ag80
ag80
ag80
ag80
ag80
ag80
asg81
(lp5531
g415
ag85
ag93
ag95
ag311
ag284
ag88
ag87
ag85
ag88
ag96
asg97
VGo immediately, I must be pope this very day.
p5532
sba(i__main__
Sentence
p5533
(dp5534
g17
I146
sg18
(lp5535
S'No'
p5536
aS','
p5537
aS'wife'
p5538
aS','
p5539
aS'said'
p5540
aS'the'
p5541
aS'man'
p5542
aS','
p5543
aS'I'
p5544
aS'do'
p5545
aS'not'
p5546
aS'like'
p5547
aS'to'
p5548
aS'say'
p5549
aS'that'
p5550
aS'to'
p5551
aS'him'
p5552
aS'.'
p5553
asg49
(lp5554
VNo
p5555
ag69
aVwife
p5556
ag69
ag260
aVthe
p5557
aVman
p5558
ag69
ag266
aVdo
p5559
aVnot
p5560
aVlike
p5561
aVto
p5562
aVsay
p5563
aVthat
p5564
aVto
p5565
aVhim
p5566
ag77
asg78
(lp5567
g80
ag80
ag80
ag80
ag80
ag80
ag80
ag80
ag80
ag80
ag80
ag80
ag80
ag80
ag80
ag80
ag80
ag80
asg81
(lp5568
g87
ag93
ag88
ag93
ag84
ag87
ag88
ag93
ag95
ag283
ag85
ag284
ag282
ag284
ag86
ag282
ag95
ag96
asg97
VNo, wife, said the man, I do not like to say that to him.
p5569
sba(i__main__
Sentence
p5570
(dp5571
g17
I147
sg18
(lp5572
S'That'
p5573
aS'would'
p5574
aS'not'
p5575
aS'do'
p5576
aS','
p5577
aS'it'
p5578
aS'is'
p5579
aS'too'
p5580
aS'much'
p5581
aS'.'
p5582
asg49
(lp5583
VThat
p5584
aVwould
p5585
aVnot
p5586
aVdo
p5587
ag69
aVit
p5588
ag394
aVtoo
p5589
aVmuch
p5590
ag77
asg78
(lp5591
g80
ag80
ag80
ag80
ag80
ag80
ag80
ag80
ag80
ag80
asg81
(lp5592
g87
ag311
ag85
ag284
ag93
ag95
ag416
ag85
ag92
ag96
asg97
VThat would not do, it is too much.
p5593
sba(i__main__
Sentence
p5594
(dp5595
g17
I148
sg18
(lp5596
S'The'
p5597
aS'flounder'
p5598
aS'ca'
p5599
aS"n't"
p5600
aS'make'
p5601
aS'you'
p5602
aS'pope'
p5603
aS'.'
p5604
asg49
(lp5605
VThe
p5606
aVflounder
p5607
aVca
p5608
aVn't
p5609
aVmake
p5610
aVyou
p5611
aVpope
p5612
ag77
asg78
(lp5613
g80
ag80
ag80
ag80
ag80
ag80
ag80
ag80
asg81
(lp5614
g87
ag88
ag311
ag85
ag284
ag95
ag284
ag96
asg97
VThe flounder can't make you pope.
p5615
sba(i__main__
Sentence
p5616
(dp5617
g17
I149
sg18
(lp5618
S'Husband'
p5619
aS','
p5620
aS'said'
p5621
aS'she'
p5622
aS','
p5623
aS'what'
p5624
aS'nonsense'
p5625
aS'.'
p5626
asg49
(lp5627
VHusband
p5628
ag69
ag260
aVshe
p5629
ag69
aVwhat
p5630
aVnonsense
p5631
ag77
asg78
(lp5632
VPERSON
p5633
ag80
ag80
ag80
ag80
ag80
ag80
ag80
asg81
(lp5634
g415
ag93
ag84
ag95
ag93
ag89
ag88
ag96
asg97
VHusband, said she, what nonsense.
p5635
sba(i__main__
Sentence
p5636
(dp5637
g17
I150
sg18
(lp5638
S'If'
p5639
aS'he'
p5640
aS'can'
p5641
aS'make'
p5642
aS'an'
p5643
aS'emperor'
p5644
aS'he'
p5645
aS'can'
p5646
aS'make'
p5647
aS'a'
p5648
aS'pope'
p5649
aS'.'
p5650
asg49
(lp5651
VIf
p5652
aVhe
p5653
aVcan
p5654
aVmake
p5655
aVan
p5656
aVemperor
p5657
aVhe
p5658
aVcan
p5659
aVmake
p5660
ag55
aVpope
p5661
ag77
asg78
(lp5662
g80
ag80
ag80
ag80
ag80
ag80
ag80
ag80
ag80
ag80
ag80
ag80
asg81
(lp5663
g86
ag95
ag311
ag284
ag87
ag88
ag95
ag311
ag284
ag87
ag88
ag96
asg97
VIf he can make an emperor he can make a pope.
p5664
sba(i__main__
Sentence
p5665
(dp5666
g17
I151
sg18
(lp5667
S'Go'
p5668
aS'to'
p5669
aS'him'
p5670
aS'directly'
p5671
aS'.'
p5672
asg49
(lp5673
VGo
p5674
aVto
p5675
aVhim
p5676
aVdirectly
p5677
ag77
asg78
(lp5678
g80
ag80
ag80
ag80
ag80
asg81
(lp5679
g415
ag282
ag95
ag85
ag96
asg97
VGo to him directly.
p5680
sba(i__main__
Sentence
p5681
(dp5682
g17
I152
sg18
(lp5683
S'I'
p5684
aS'am'
p5685
aS'emperor'
p5686
aS','
p5687
aS'and'
p5688
aS'you'
p5689
aS'are'
p5690
aS'nothing'
p5691
aS'but'
p5692
aS'my'
p5693
aS'husband'
p5694
aS'.'
p5695
asg49
(lp5696
g266
ag272
aVemperor
p5697
ag69
aVand
p5698
aVyou
p5699
ag1661
aVnothing
p5700
aVbut
p5701
aVmy
p5702
aVhusband
p5703
ag77
asg78
(lp5704
g80
ag80
ag80
ag80
ag80
ag80
ag80
ag80
ag80
ag80
ag80
ag80
asg81
(lp5705
g95
ag283
ag88
ag93
ag94
ag95
ag283
ag165
ag94
ag91
ag88
ag96
asg97
VI am emperor, and you are nothing but my husband.
p5706
sba(i__main__
Sentence
p5707
(dp5708
g17
I153
sg18
(lp5709
S'Will'
p5710
aS'you'
p5711
aS'go'
p5712
aS'at'
p5713
aS'once'
p5714
aS'.'
p5715
asg49
(lp5716
VWill
p5717
aVyou
p5718
aVgo
p5719
aVat
p5720
aVonce
p5721
ag77
asg78
(lp5722
g80
ag80
ag80
ag80
ag80
ag80
asg81
(lp5723
g415
ag95
ag283
ag86
ag85
ag96
asg97
VWill you go at once.
p5724
sba(i__main__
Sentence
p5725
(dp5726
g17
I154
sg18
(lp5727
S'Then'
p5728
aS'he'
p5729
aS'was'
p5730
aS'afraid'
p5731
aS'and'
p5732
aS'went'
p5733
aS','
p5734
aS'but'
p5735
aS'he'
p5736
aS'was'
p5737
aS'quite'
p5738
aS'faint'
p5739
aS','
p5740
aS'and'
p5741
aS'shivered'
p5742
aS'and'
p5743
aS'shook'
p5744
aS','
p5745
aS'and'
p5746
aS'his'
p5747
aS'knees'
p5748
aS'and'
p5749
aS'legs'
p5750
aS'trembled'
p5751
aS'.'
p5752
asg49
(lp5753
VThen
p5754
aVhe
p5755
ag52
aVafraid
p5756
aVand
p5757
ag74
ag69
aVbut
p5758
aVhe
p5759
ag52
aVquite
p5760
aVfaint
p5761
ag69
aVand
p5762
aVshiver
p5763
aVand
p5764
aVshook
p5765
ag69
aVand
p5766
aVhis
p5767
aVknee
p5768
aVand
p5769
aVleg
p5770
aVtremble
p5771
ag77
asg78
(lp5772
g80
ag80
ag80
ag80
ag80
ag80
ag80
ag80
ag80
ag80
ag80
ag80
ag80
ag80
ag80
ag80
ag80
ag80
ag80
ag80
ag80
ag80
ag80
ag80
ag80
asg81
(lp5773
g85
ag95
ag84
ag92
ag94
ag84
ag93
ag94
ag95
ag84
ag85
ag92
ag93
ag94
ag84
ag94
ag88
ag93
ag94
ag91
ag417
ag94
ag417
ag84
ag96
asg97
VThen he was afraid and went, but he was quite faint, and shivered and shook, and his knees and legs trembled.
p5774
sba(i__main__
Sentence
p5775
(dp5776
g17
I155
sg18
(lp5777
S'And'
p5778
aS'a'
p5779
aS'high'
p5780
aS'wind'
p5781
aS'blew'
p5782
aS'over'
p5783
aS'the'
p5784
aS'land'
p5785
aS','
p5786
aS'and'
p5787
aS'the'
p5788
aS'clouds'
p5789
aS'flew'
p5790
aS','
p5791
aS'and'
p5792
aS'towards'
p5793
aS'evening'
p5794
aS'all'
p5795
aS'grew'
p5796
aS'dark'
p5797
aS','
p5798
aS'and'
p5799
aS'the'
p5800
aS'leaves'
p5801
aS'fell'
p5802
aS'from'
p5803
aS'the'
p5804
aS'trees'
p5805
aS','
p5806
aS'and'
p5807
aS'the'
p5808
aS'water'
p5809
aS'rose'
p5810
aS'and'
p5811
aS'roared'
p5812
aS'as'
p5813
aS'if'
p5814
aS'it'
p5815
aS'were'
p5816
aS'boiling'
p5817
aS','
p5818
aS'and'
p5819
aS'splashed'
p5820
aS'upon'
p5821
aS'the'
p5822
aS'shore'
p5823
aS'.'
p5824
asg49
(lp5825
VAnd
p5826
ag55
aVhigh
p5827
aVwind
p5828
aVblew
p5829
aVover
p5830
aVthe
p5831
aVland
p5832
ag69
aVand
p5833
aVthe
p5834
aVcloud
p5835
aVfly
p5836
ag69
aVand
p5837
aVtowards
p5838
aVeven
p5839
aVall
p5840
aVgrew
p5841
aVdark
p5842
ag69
aVand
p5843
aVthe
p5844
aVleaf
p5845
aVfell
p5846
aVfrom
p5847
aVthe
p5848
aVtree
p5849
ag69
aVand
p5850
aVthe
p5851
aVwater
p5852
aVrise
p5853
aVand
p5854
aVroar
p5855
ag55
aVif
p5856
aVit
p5857
ag2514
aVboil
p5858
ag69
aVand
p5859
aVsplash
p5860
aVupon
p5861
aVthe
p5862
aVshore
p5863
ag77
asg78
(lp5864
g80
ag80
ag80
ag80
ag80
ag80
ag80
ag80
ag80
ag80
ag80
ag80
ag80
ag80
ag80
ag80
ag80
ag80
ag80
ag80
ag80
ag80
ag80
ag80
ag80
ag80
ag80
ag80
ag80
ag80
ag80
ag80
ag80
ag80
ag80
ag80
ag80
ag80
ag80
ag80
ag80
ag80
ag80
ag80
ag80
ag80
ag80
asg81
(lp5865
g94
ag87
ag92
ag88
ag88
ag86
ag87
ag88
ag93
ag94
ag87
ag417
ag283
ag93
ag94
ag417
ag165
ag87
ag88
ag88
ag93
ag94
ag87
ag417
ag84
ag86
ag87
ag417
ag93
ag94
ag87
ag88
ag84
ag94
ag90
ag86
ag86
ag95
ag84
ag165
ag93
ag94
ag84
ag86
ag87
ag88
ag96
asg97
VAnd a high wind blew over the land, and the clouds flew, and towards evening all grew dark, and the leaves fell from the trees, and the water rose and roared as if it were boiling, and splashed upon the shore.
p5866
sba(i__main__
Sentence
p5867
(dp5868
g17
I156
sg18
(lp5869
S'And'
p5870
aS'in'
p5871
aS'the'
p5872
aS'distance'
p5873
aS'he'
p5874
aS'saw'
p5875
aS'ships'
p5876
aS'which'
p5877
aS'were'
p5878
aS'firing'
p5879
aS'guns'
p5880
aS'in'
p5881
aS'their'
p5882
aS'sore'
p5883
aS'need'
p5884
aS','
p5885
aS'pitching'
p5886
aS'and'
p5887
aS'tossing'
p5888
aS'on'
p5889
aS'the'
p5890
aS'waves'
p5891
aS'.'
p5892
asg49
(lp5893
VAnd
p5894
aVin
p5895
aVthe
p5896
aVdistance
p5897
aVhe
p5898
aVsaw
p5899
aVship
p5900
aVwhich
p5901
ag2514
aVfire
p5902
aVgun
p5903
aVin
p5904
aVtheir
p5905
aVsore
p5906
aVneed
p5907
ag69
aVpitch
p5908
aVand
p5909
aVtoss
p5910
aVon
p5911
aVthe
p5912
aVwave
p5913
ag77
asg78
(lp5914
g80
ag80
ag80
ag80
ag80
ag80
ag80
ag80
ag80
ag80
ag80
ag80
ag80
ag80
ag80
ag80
ag80
ag80
ag80
ag80
ag80
ag80
ag80
asg81
(lp5915
g94
ag86
ag87
ag88
ag95
ag84
ag417
ag698
ag84
ag165
ag417
ag86
ag91
ag88
ag283
ag93
ag165
ag94
ag165
ag86
ag87
ag417
ag96
asg97
VAnd in the distance he saw ships which were firing guns in their sore need, pitching and tossing on the waves.
p5916
sba(i__main__
Sentence
p5917
(dp5918
g17
I157
sg18
(lp5919
S'And'
p5920
aS'yet'
p5921
aS'in'
p5922
aS'the'
p5923
aS'midst'
p5924
aS'of'
p5925
aS'the'
p5926
aS'sky'
p5927
aS'there'
p5928
aS'was'
p5929
aS'still'
p5930
aS'a'
p5931
aS'small'
p5932
aS'patch'
p5933
aS'of'
p5934
aS'blue'
p5935
aS','
p5936
aS'though'
p5937
aS'on'
p5938
aS'every'
p5939
aS'side'
p5940
aS'it'
p5941
aS'was'
p5942
aS'as'
p5943
aS'red'
p5944
aS'as'
p5945
aS'in'
p5946
aS'a'
p5947
aS'heavy'
p5948
aS'storm'
p5949
aS'.'
p5950
asg49
(lp5951
VAnd
p5952
aVyet
p5953
aVin
p5954
aVthe
p5955
aVmidst
p5956
aVof
p5957
aVthe
p5958
aVsky
p5959
aVthere
p5960
ag52
aVstill
p5961
ag55
aVsmall
p5962
aVpatch
p5963
aVof
p5964
aVblue
p5965
ag69
aVthough
p5966
aVon
p5967
aVevery
p5968
aVside
p5969
aVit
p5970
ag52
ag55
aVred
p5971
ag55
aVin
p5972
ag55
aVheavy
p5973
aVstorm
p5974
ag77
asg78
(lp5975
g80
ag80
ag80
ag80
ag80
ag80
ag80
ag80
ag80
ag80
ag80
ag80
ag80
ag80
ag80
ag80
ag80
ag80
ag80
ag80
ag80
ag80
ag80
ag80
ag80
ag80
ag80
ag80
ag80
ag80
ag80
asg81
(lp5976
g94
ag85
ag86
ag87
ag88
ag86
ag87
ag88
ag85
ag84
ag85
ag87
ag92
ag88
ag86
ag92
ag93
ag86
ag86
ag87
ag88
ag95
ag84
ag86
ag90
ag86
ag86
ag87
ag92
ag88
ag96
asg97
VAnd yet in the midst of the sky there was still a small patch of blue, though on every side it was as red as in a heavy storm.
p5977
sba(i__main__
Sentence
p5978
(dp5979
g17
I158
sg18
(lp5980
S'So'
p5981
aS','
p5982
aS'full'
p5983
aS'of'
p5984
aS'despair'
p5985
aS','
p5986
aS'he'
p5987
aS'went'
p5988
aS'and'
p5989
aS'stood'
p5990
aS'in'
p5991
aS'much'
p5992
aS'fear'
p5993
aS'and'
p5994
aS'said'
p5995
aS','
p5996
aS'flounder'
p5997
aS','
p5998
aS'flounder'
p5999
aS'in'
p6000
aS'the'
p6001
aS'sea'
p6002
aS','
p6003
aS'come'
p6004
aS','
p6005
aS'I'
p6006
aS'pray'
p6007
aS'thee'
p6008
aS','
p6009
aS'here'
p6010
aS'to'
p6011
aS'me'
p6012
aS'.'
p6013
asg49
(lp6014
VSo
p6015
ag69
aVfull
p6016
aVof
p6017
aVdespair
p6018
ag69
aVhe
p6019
ag74
aVand
p6020
aVstood
p6021
aVin
p6022
aVmuch
p6023
aVfear
p6024
aVand
p6025
ag260
ag69
aVflounder
p6026
ag69
aVflounder
p6027
aVin
p6028
aVthe
p6029
aVsea
p6030
ag69
aVcome
p6031
ag69
ag266
aVpray
p6032
aVthee
p6033
ag69
aVhere
p6034
aVto
p6035
aVme
p6036
ag77
asg78
(lp6037
g80
ag80
ag80
ag80
ag80
ag80
ag80
ag80
ag80
ag80
ag80
ag80
ag80
ag80
ag80
ag80
ag80
ag80
ag80
ag80
ag80
ag80
ag80
ag80
ag80
ag80
ag80
ag80
ag80
ag80
ag80
ag80
ag80
asg81
(lp6038
g86
ag93
ag92
ag86
ag88
ag93
ag95
ag84
ag94
ag88
ag86
ag92
ag88
ag94
ag84
ag93
ag88
ag93
ag88
ag86
ag87
ag88
ag93
ag283
ag93
ag95
ag283
ag92
ag93
ag85
ag282
ag95
ag96
asg97
VSo, full of despair, he went and stood in much fear and said,           flounder, flounder in the sea,           come, I pray thee, here to me.
p6039
sba(i__main__
Sentence
p6040
(dp6041
g17
I159
sg18
(lp6042
S'For'
p6043
aS'my'
p6044
aS'wife'
p6045
aS','
p6046
aS'good'
p6047
aS'ilsabil'
p6048
aS','
p6049
aS'wills'
p6050
aS'not'
p6051
aS'as'
p6052
aS'I'
p6053
aS"'d"
p6054
aS'have'
p6055
aS'her'
p6056
aS'will'
p6057
aS'.'
p6058
asg49
(lp6059
VFor
p6060
aVmy
p6061
aVwife
p6062
ag69
aVgood
p6063
aVilsabil
p6064
ag69
aVwill
p6065
aVnot
p6066
ag55
ag266
aV'd
p6067
aVhave
p6068
aVher
p6069
aVwill
p6070
ag77
asg78
(lp6071
g80
ag80
ag80
ag80
ag80
ag80
ag80
ag80
ag80
ag80
ag80
ag80
ag80
ag80
ag80
ag80
asg81
(lp6072
g86
ag91
ag88
ag93
ag92
ag88
ag93
ag417
ag85
ag86
ag95
ag311
ag284
ag91
ag311
ag96
asg97
VFor my wife, good ilsabil,           wills not as I'd have her will.
p6073
sba(i__main__
Sentence
p6074
(dp6075
g17
I160
sg18
(lp6076
S'Well'
p6077
aS','
p6078
aS'what'
p6079
aS'does'
p6080
aS'she'
p6081
aS'want'
p6082
aS','
p6083
aS'now'
p6084
aS','
p6085
aS'said'
p6086
aS'the'
p6087
aS'flounder'
p6088
aS'.'
p6089
asg49
(lp6090
VWell
p6091
ag69
aVwhat
p6092
aVdo
p6093
aVshe
p6094
aVwant
p6095
ag69
aVnow
p6096
ag69
ag260
aVthe
p6097
aVflounder
p6098
ag77
asg78
(lp6099
g80
ag80
ag80
ag80
ag80
ag80
ag80
ag80
ag80
ag80
ag80
ag80
ag80
asg81
(lp6100
g415
ag93
ag89
ag416
ag95
ag283
ag93
ag85
ag93
ag84
ag87
ag88
ag96
asg97
VWell, what does she want, now, said the flounder.
p6101
sba(i__main__
Sentence
p6102
(dp6103
g17
I161
sg18
(lp6104
S'Alas'
p6105
aS','
p6106
aS'said'
p6107
aS'the'
p6108
aS'man'
p6109
aS','
p6110
aS'she'
p6111
aS'wants'
p6112
aS'to'
p6113
aS'be'
p6114
aS'pope'
p6115
aS'.'
p6116
asg49
(lp6117
VAlas
p6118
ag69
ag260
aVthe
p6119
aVman
p6120
ag69
aVshe
p6121
aVwant
p6122
aVto
p6123
aVbe
p6124
aVpope
p6125
ag77
asg78
(lp6126
g80
ag80
ag80
ag80
ag80
ag80
ag80
ag80
ag80
ag80
ag80
ag80
asg81
(lp6127
g415
ag93
ag84
ag87
ag88
ag93
ag95
ag416
ag282
ag284
ag88
ag96
asg97
VAlas, said the man, she wants to be pope.
p6128
sba(i__main__
Sentence
p6129
(dp6130
g17
I162
sg18
(lp6131
S'Go'
p6132
aS'to'
p6133
aS'her'
p6134
aS'then'
p6135
aS','
p6136
aS'said'
p6137
aS'the'
p6138
aS'flounder'
p6139
aS','
p6140
aS'she'
p6141
aS'is'
p6142
aS'pope'
p6143
aS'already'
p6144
aS'.'
p6145
asg49
(lp6146
VGo
p6147
aVto
p6148
aVher
p6149
aVthen
p6150
ag69
ag260
aVthe
p6151
aVflounder
p6152
ag69
aVshe
p6153
ag394
aVpope
p6154
aValready
p6155
ag77
asg78
(lp6156
g80
ag80
ag80
ag80
ag80
ag80
ag80
ag80
ag80
ag80
ag80
ag80
ag80
ag80
asg81
(lp6157
g415
ag282
ag91
ag85
ag93
ag84
ag87
ag88
ag93
ag95
ag416
ag88
ag85
ag96
asg97
VGo to her then, said the flounder, she is pope already.
p6158
sba(i__main__
Sentence
p6159
(dp6160
g17
I163
sg18
(lp6161
S'So'
p6162
aS'he'
p6163
aS'went'
p6164
aS','
p6165
aS'and'
p6166
aS'when'
p6167
aS'he'
p6168
aS'got'
p6169
aS'there'
p6170
aS','
p6171
aS'he'
p6172
aS'saw'
p6173
aS'what'
p6174
aS'seemed'
p6175
aS'to'
p6176
aS'be'
p6177
aS'a'
p6178
aS'large'
p6179
aS'church'
p6180
aS'surrounded'
p6181
aS'by'
p6182
aS'palaces'
p6183
aS'.'
p6184
asg49
(lp6185
VSo
p6186
aVhe
p6187
ag74
ag69
aVand
p6188
aVwhen
p6189
aVhe
p6190
ag504
aVthere
p6191
ag69
aVhe
p6192
aVsaw
p6193
aVwhat
p6194
aVseem
p6195
aVto
p6196
aVbe
p6197
ag55
aVlarge
p6198
aVchurch
p6199
aVsurround
p6200
aVby
p6201
aVpalace
p6202
ag77
asg78
(lp6203
g80
ag80
ag80
ag80
ag80
ag80
ag80
ag80
ag80
ag80
ag80
ag80
ag80
ag80
ag80
ag80
ag80
ag80
ag80
ag80
ag80
ag80
ag80
asg81
(lp6204
g86
ag95
ag84
ag93
ag94
ag219
ag95
ag84
ag85
ag93
ag95
ag84
ag89
ag90
ag282
ag284
ag87
ag92
ag88
ag84
ag86
ag417
ag96
asg97
VSo he went, and when he got there, he saw what seemed to be a large church surrounded by palaces.
p6205
sba(i__main__
Sentence
p6206
(dp6207
g17
I164
sg18
(lp6208
S'He'
p6209
aS'pushed'
p6210
aS'his'
p6211
aS'way'
p6212
aS'through'
p6213
aS'the'
p6214
aS'crowd'
p6215
aS'.'
p6216
asg49
(lp6217
VHe
p6218
aVpush
p6219
aVhis
p6220
aVway
p6221
aVthrough
p6222
aVthe
p6223
aVcrowd
p6224
ag77
asg78
(lp6225
g80
ag80
ag80
ag80
ag80
ag80
ag80
ag80
asg81
(lp6226
g95
ag84
ag91
ag88
ag86
ag87
ag88
ag96
asg97
VHe pushed his way through the crowd.
p6227
sba(i__main__
Sentence
p6228
(dp6229
g17
I165
sg18
(lp6230
S'Inside'
p6231
aS','
p6232
aS'however'
p6233
aS','
p6234
aS'everything'
p6235
aS'was'
p6236
aS'lighted'
p6237
aS'up'
p6238
aS'with'
p6239
aS'thousands'
p6240
aS'and'
p6241
aS'thousands'
p6242
aS'of'
p6243
aS'candles'
p6244
aS','
p6245
aS'and'
p6246
aS'his'
p6247
aS'wife'
p6248
aS'was'
p6249
aS'clad'
p6250
aS'in'
p6251
aS'gold'
p6252
aS','
p6253
aS'and'
p6254
aS'she'
p6255
aS'was'
p6256
aS'sitting'
p6257
aS'on'
p6258
aS'a'
p6259
aS'much'
p6260
aS'higher'
p6261
aS'throne'
p6262
aS','
p6263
aS'and'
p6264
aS'had'
p6265
aS'three'
p6266
aS'great'
p6267
aS'golden'
p6268
aS'crowns'
p6269
aS'on'
p6270
aS','
p6271
aS'and'
p6272
aS'round'
p6273
aS'about'
p6274
aS'her'
p6275
aS'there'
p6276
aS'was'
p6277
aS'much'
p6278
aS'ecclesiastical'
p6279
aS'splendor'
p6280
aS'.'
p6281
asg49
(lp6282
VInside
p6283
ag69
aVhowever
p6284
ag69
aVeverything
p6285
ag52
aVlight
p6286
aVup
p6287
aVwith
p6288
aVthousand
p6289
aVand
p6290
aVthousand
p6291
aVof
p6292
aVcandle
p6293
ag69
aVand
p6294
aVhis
p6295
aVwife
p6296
ag52
aVclothe
p6297
aVin
p6298
aVgold
p6299
ag69
aVand
p6300
aVshe
p6301
ag52
ag149
aVon
p6302
ag55
aVmuch
p6303
aVhigh
p6304
aVthrone
p6305
ag69
aVand
p6306
ag2543
aVthree
p6307
aVgreat
p6308
aVgolden
p6309
aVcrown
p6310
aVon
p6311
ag69
aVand
p6312
aVround
p6313
aVabout
p6314
aVher
p6315
aVthere
p6316
ag52
aVmuch
p6317
aVecclesiastical
p6318
aVsplendor
p6319
ag77
asg78
(lp6320
g80
ag80
ag80
ag80
ag80
ag80
ag80
ag80
ag80
ag80
ag80
ag80
ag80
ag80
ag80
ag80
ag80
ag80
ag80
ag80
ag80
ag80
ag80
ag80
ag80
ag80
ag80
ag80
ag80
ag80
ag80
ag80
ag80
ag80
ag80
ag80
ag80
ag80
ag80
ag80
ag80
ag80
ag80
ag80
ag80
ag80
ag80
ag80
ag80
ag80
ag80
asg81
(lp6321
g415
ag93
ag85
ag93
ag88
ag84
ag90
ag220
ag86
ag417
ag94
ag417
ag86
ag417
ag93
ag94
ag91
ag88
ag84
ag90
ag86
ag88
ag93
ag94
ag95
ag84
ag165
ag86
ag87
ag92
ag1695
ag88
ag93
ag94
ag84
ag3841
ag92
ag88
ag417
ag86
ag93
ag94
ag88
ag86
ag91
ag83
ag84
ag92
ag92
ag88
ag96
asg97
VInside, however, everything was lighted up with thousands and thousands of candles, and his wife was clad in gold, and she was sitting on a much higher throne, and had three great golden crowns on, and round about her there was much ecclesiastical splendor.
p6322
sba(i__main__
Sentence
p6323
(dp6324
g17
I166
sg18
(lp6325
S'And'
p6326
aS'on'
p6327
aS'both'
p6328
aS'sides'
p6329
aS'of'
p6330
aS'her'
p6331
aS'was'
p6332
aS'a'
p6333
aS'row'
p6334
aS'of'
p6335
aS'candles'
p6336
aS'the'
p6337
aS'largest'
p6338
aS'of'
p6339
aS'which'
p6340
aS'was'
p6341
aS'as'
p6342
aS'tall'
p6343
aS'as'
p6344
aS'the'
p6345
aS'very'
p6346
aS'tallest'
p6347
aS'tower'
p6348
aS','
p6349
aS'down'
p6350
aS'to'
p6351
aS'the'
p6352
aS'very'
p6353
aS'smallest'
p6354
aS'kitchen'
p6355
aS'candle'
p6356
aS','
p6357
aS'and'
p6358
aS'all'
p6359
aS'the'
p6360
aS'emperors'
p6361
aS'and'
p6362
aS'kings'
p6363
aS'were'
p6364
aS'on'
p6365
aS'their'
p6366
aS'knees'
p6367
aS'before'
p6368
aS'her'
p6369
aS','
p6370
aS'kissing'
p6371
aS'her'
p6372
aS'shoe'
p6373
aS'.'
p6374
asg49
(lp6375
VAnd
p6376
aVon
p6377
aVboth
p6378
aVside
p6379
aVof
p6380
aVher
p6381
ag52
ag55
aVrow
p6382
aVof
p6383
aVcandle
p6384
aVthe
p6385
aVlarge
p6386
aVof
p6387
aVwhich
p6388
ag52
aVas
p6389
aVtall
p6390
ag55
aVthe
p6391
aVvery
p6392
aVtallest
p6393
aVtower
p6394
ag69
aVdown
p6395
aVto
p6396
aVthe
p6397
aVvery
p6398
aVsmallest
p6399
aVkitchen
p6400
aVcandle
p6401
ag69
aVand
p6402
aVall
p6403
aVthe
p6404
aVemperor
p6405
aVand
p6406
aVking
p6407
ag2514
aVon
p6408
aVtheir
p6409
aVknee
p6410
aVbefore
p6411
aVher
p6412
ag69
aVkiss
p6413
aVher
p6414
aVshoe
p6415
ag77
asg78
(lp6416
g80
ag80
ag80
ag80
ag80
ag80
ag80
ag80
ag80
ag80
ag80
ag80
ag80
ag80
ag80
ag80
ag80
ag80
ag80
ag80
ag80
ag80
ag80
ag80
ag80
ag80
ag80
ag80
ag80
ag80
ag80
ag80
ag80
ag80
ag80
ag80
ag80
ag80
ag80
ag80
ag80
ag80
ag80
ag80
ag80
ag80
ag80
ag80
ag80
asg81
(lp6417
g94
ag86
ag87
ag417
ag86
ag91
ag84
ag87
ag88
ag86
ag417
ag87
ag1431
ag86
ag698
ag84
ag85
ag92
ag86
ag87
ag92
ag88
ag88
ag93
ag86
ag282
ag87
ag92
ag88
ag219
ag88
ag93
ag94
ag87
ag87
ag417
ag94
ag417
ag84
ag86
ag91
ag417
ag86
ag91
ag93
ag165
ag95
ag88
ag96
asg97
VAnd on both sides of her was a row of candles the largest of which was as tall as the very tallest tower, down to the very smallest kitchen candle, and all the emperors and kings were on their knees before her, kissing her shoe.
p6418
sba(i__main__
Sentence
p6419
(dp6420
g17
I167
sg18
(lp6421
S'Wife'
p6422
aS','
p6423
aS'said'
p6424
aS'the'
p6425
aS'man'
p6426
aS','
p6427
aS'and'
p6428
aS'looked'
p6429
aS'attentively'
p6430
aS'at'
p6431
aS'her'
p6432
aS','
p6433
aS'are'
p6434
aS'you'
p6435
aS'now'
p6436
aS'pope'
p6437
aS'.'
p6438
asg49
(lp6439
VWife
p6440
ag69
ag260
aVthe
p6441
aVman
p6442
ag69
aVand
p6443
aVlook
p6444
aVattentively
p6445
aVat
p6446
aVher
p6447
ag69
ag1661
aVyou
p6448
aVnow
p6449
aVpope
p6450
ag77
asg78
(lp6451
g80
ag80
ag80
ag80
ag80
ag80
ag80
ag80
ag80
ag80
ag80
ag80
ag80
ag80
ag80
ag80
ag80
asg81
(lp6452
g415
ag93
ag84
ag87
ag88
ag93
ag94
ag84
ag85
ag86
ag91
ag93
ag283
ag95
ag85
ag283
ag96
asg97
VWife, said the man, and looked attentively at her, are you now pope.
p6453
sba(i__main__
Sentence
p6454
(dp6455
g17
I168
sg18
(lp6456
S'Yes'
p6457
aS','
p6458
aS'said'
p6459
aS'she'
p6460
aS','
p6461
aS'I'
p6462
aS'am'
p6463
aS'pope'
p6464
aS'.'
p6465
asg49
(lp6466
VYes
p6467
ag69
ag260
aVshe
p6468
ag69
ag266
ag272
aVpope
p6469
ag77
asg78
(lp6470
g80
ag80
ag80
ag80
ag80
ag80
ag80
ag80
ag80
asg81
(lp6471
g417
ag93
ag84
ag95
ag93
ag95
ag283
ag88
ag96
asg97
VYes, said she, I am pope.
p6472
sba(i__main__
Sentence
p6473
(dp6474
g17
I169
sg18
(lp6475
S'So'
p6476
aS'he'
p6477
aS'stood'
p6478
aS'and'
p6479
aS'looked'
p6480
aS'at'
p6481
aS'her'
p6482
aS','
p6483
aS'and'
p6484
aS'it'
p6485
aS'was'
p6486
aS'just'
p6487
aS'as'
p6488
aS'if'
p6489
aS'he'
p6490
aS'was'
p6491
aS'looking'
p6492
aS'at'
p6493
aS'the'
p6494
aS'bright'
p6495
aS'sun'
p6496
aS'.'
p6497
asg49
(lp6498
VSo
p6499
aVhe
p6500
ag995
aVand
p6501
aVlook
p6502
aVat
p6503
aVher
p6504
ag69
aVand
p6505
aVit
p6506
ag52
aVjust
p6507
ag55
aVif
p6508
aVhe
p6509
ag52
aVlook
p6510
aVat
p6511
aVthe
p6512
aVbright
p6513
aVsun
p6514
ag77
asg78
(lp6515
g80
ag80
ag80
ag80
ag80
ag80
ag80
ag80
ag80
ag80
ag80
ag80
ag80
ag80
ag80
ag80
ag80
ag80
ag80
ag80
ag80
ag80
asg81
(lp6516
g86
ag95
ag84
ag94
ag90
ag86
ag91
ag93
ag94
ag95
ag84
ag85
ag86
ag86
ag95
ag84
ag165
ag86
ag87
ag92
ag88
ag96
asg97
VSo he stood and looked at her, and it was just as if he was looking at the bright sun.
p6517
sba(i__main__
Sentence
p6518
(dp6519
g17
I170
sg18
(lp6520
S'When'
p6521
aS'he'
p6522
aS'had'
p6523
aS'stood'
p6524
aS'looking'
p6525
aS'at'
p6526
aS'her'
p6527
aS'thus'
p6528
aS'for'
p6529
aS'a'
p6530
aS'short'
p6531
aS'time'
p6532
aS','
p6533
aS'he'
p6534
aS'said'
p6535
aS','
p6536
aS'ah'
p6537
aS','
p6538
aS'wife'
p6539
aS','
p6540
aS'if'
p6541
aS'you'
p6542
aS'are'
p6543
aS'pope'
p6544
aS','
p6545
aS'do'
p6546
aS'let'
p6547
aS'well'
p6548
aS'alone'
p6549
aS'.'
p6550
asg49
(lp6551
VWhen
p6552
aVhe
p6553
ag2543
ag995
aVlook
p6554
aVat
p6555
aVher
p6556
aVthus
p6557
aVfor
p6558
ag55
aVshort
p6559
aVtime
p6560
ag69
aVhe
p6561
ag260
ag69
aVah
p6562
ag69
aVwife
p6563
ag69
aVif
p6564
aVyou
p6565
ag1661
aVpope
p6566
ag69
aVdo
p6567
aVlet
p6568
aVwell
p6569
aValone
p6570
ag77
asg78
(lp6571
g80
ag80
ag80
ag80
ag80
ag80
ag80
ag80
ag80
ag80
ag80
ag80
ag80
ag80
ag80
ag80
ag80
ag80
ag80
ag80
ag80
ag80
ag80
ag80
ag80
ag80
ag80
ag80
ag80
ag80
asg81
(lp6572
g219
ag95
ag84
ag90
ag165
ag86
ag91
ag88
ag86
ag87
ag92
ag88
ag93
ag95
ag84
ag93
ag88
ag93
ag88
ag93
ag86
ag95
ag283
ag85
ag93
ag283
ag284
ag85
ag85
ag96
asg97
VWhen he had stood looking at her thus for a short time, he said, ah, wife, if you are pope, do let well alone.
p6573
sba(i__main__
Sentence
p6574
(dp6575
g17
I171
sg18
(lp6576
S'But'
p6577
aS'she'
p6578
aS'looked'
p6579
aS'as'
p6580
aS'stiff'
p6581
aS'as'
p6582
aS'a'
p6583
aS'post'
p6584
aS','
p6585
aS'and'
p6586
aS'did'
p6587
aS'not'
p6588
aS'move'
p6589
aS'or'
p6590
aS'show'
p6591
aS'any'
p6592
aS'signs'
p6593
aS'of'
p6594
aS'life'
p6595
aS'.'
p6596
asg49
(lp6597
VBut
p6598
aVshe
p6599
aVlook
p6600
ag55
aVstiff
p6601
ag55
ag55
aVpost
p6602
ag69
aVand
p6603
ag578
aVnot
p6604
aVmove
p6605
aVor
p6606
aVshow
p6607
aVany
p6608
aVsign
p6609
aVof
p6610
aVlife
p6611
ag77
asg78
(lp6612
g80
ag80
ag80
ag80
ag80
ag80
ag80
ag80
ag80
ag80
ag80
ag80
ag80
ag80
ag80
ag80
ag80
ag80
ag80
ag80
asg81
(lp6613
g94
ag95
ag84
ag86
ag92
ag86
ag87
ag88
ag93
ag94
ag84
ag85
ag284
ag94
ag88
ag87
ag417
ag86
ag88
ag96
asg97
VBut she looked as stiff as a post, and did not move or show any signs of life.
p6614
sba(i__main__
Sentence
p6615
(dp6616
g17
I172
sg18
(lp6617
S'Then'
p6618
aS'said'
p6619
aS'he'
p6620
aS','
p6621
aS'wife'
p6622
aS','
p6623
aS'now'
p6624
aS'that'
p6625
aS'you'
p6626
aS'are'
p6627
aS'pope'
p6628
aS','
p6629
aS'be'
p6630
aS'satisfied'
p6631
aS','
p6632
aS'you'
p6633
aS'can'
p6634
aS'not'
p6635
aS'become'
p6636
aS'anything'
p6637
aS'greater'
p6638
aS'now'
p6639
aS'.'
p6640
asg49
(lp6641
VThen
p6642
ag260
aVhe
p6643
ag69
aVwife
p6644
ag69
aVnow
p6645
aVthat
p6646
aVyou
p6647
ag1661
aVpope
p6648
ag69
aVbe
p6649
aVsatisfy
p6650
ag69
aVyou
p6651
aVcan
p6652
aVnot
p6653
aVbecome
p6654
aVanything
p6655
aVgreat
p6656
aVnow
p6657
ag77
asg78
(lp6658
g80
ag80
ag80
ag80
ag80
ag80
ag80
ag80
ag80
ag80
ag80
ag80
ag80
ag80
ag80
ag80
ag80
ag80
ag80
ag80
ag80
ag80
ag80
asg81
(lp6659
g85
ag84
ag95
ag93
ag283
ag93
ag85
ag86
ag95
ag283
ag85
ag93
ag284
ag90
ag93
ag95
ag311
ag85
ag284
ag88
ag1695
ag85
ag96
asg97
VThen said he, wife, now that you are pope, be satisfied, you cannot become anything greater now.
p6660
sba(i__main__
Sentence
p6661
(dp6662
g17
I173
sg18
(lp6663
S'I'
p6664
aS'will'
p6665
aS'consider'
p6666
aS'about'
p6667
aS'that'
p6668
aS','
p6669
aS'said'
p6670
aS'the'
p6671
aS'woman'
p6672
aS'.'
p6673
asg49
(lp6674
g266
aVwill
p6675
aVconsider
p6676
aVabout
p6677
aVthat
p6678
ag69
ag260
aVthe
p6679
aVwoman
p6680
ag77
asg78
(lp6681
g80
ag80
ag80
ag80
ag80
ag80
ag80
ag80
ag80
ag80
asg81
(lp6682
g95
ag311
ag284
ag86
ag87
ag93
ag84
ag87
ag88
ag96
asg97
VI will consider about that, said the woman.
p6683
sba(i__main__
Sentence
p6684
(dp6685
g17
I174
sg18
(lp6686
S'Thereupon'
p6687
aS'they'
p6688
aS'both'
p6689
aS'went'
p6690
aS'to'
p6691
aS'bed'
p6692
aS','
p6693
aS'but'
p6694
aS'she'
p6695
aS'was'
p6696
aS'not'
p6697
aS'satisfied'
p6698
aS','
p6699
aS'and'
p6700
aS'greediness'
p6701
aS'let'
p6702
aS'her'
p6703
aS'have'
p6704
aS'no'
p6705
aS'sleep'
p6706
aS','
p6707
aS'for'
p6708
aS'she'
p6709
aS'was'
p6710
aS'continually'
p6711
aS'thinking'
p6712
aS'what'
p6713
aS'there'
p6714
aS'was'
p6715
aS'left'
p6716
aS'for'
p6717
aS'her'
p6718
aS'to'
p6719
aS'be'
p6720
aS'.'
p6721
asg49
(lp6722
VThereupon
p6723
aVthey
p6724
aVboth
p6725
aVwent
p6726
aVto
p6727
aVbed
p6728
ag69
aVbut
p6729
aVshe
p6730
ag52
aVnot
p6731
ag6650
ag69
aVand
p6732
aVgreediness
p6733
aVlet
p6734
aVher
p6735
aVhave
p6736
aVno
p6737
aVsleep
p6738
ag69
aVfor
p6739
aVshe
p6740
ag52
aVcontinually
p6741
aVthink
p6742
aVwhat
p6743
aVthere
p6744
ag52
aVleave
p6745
aVfor
p6746
aVher
p6747
aVto
p6748
aVbe
p6749
ag77
asg78
(lp6750
g80
ag80
ag80
ag80
ag80
ag80
ag80
ag80
ag80
ag80
ag80
ag80
ag80
ag80
ag80
ag80
ag80
ag80
ag80
ag80
ag80
ag80
ag80
ag80
ag80
ag80
ag80
ag80
ag80
ag80
ag80
ag80
ag80
ag80
ag80
asg81
(lp6751
g415
ag95
ag87
ag88
ag282
ag90
ag93
ag94
ag95
ag84
ag85
ag90
ag93
ag94
ag88
ag284
ag91
ag284
ag87
ag88
ag93
ag86
ag95
ag84
ag85
ag165
ag89
ag85
ag84
ag90
ag86
ag91
ag282
ag284
ag96
asg97
VThereupon they both went to bed, but she was not satisfied, and greediness let her have no sleep, for she was continually thinking what there was left for her to be.
p6752
sba(i__main__
Sentence
p6753
(dp6754
g17
I175
sg18
(lp6755
S'The'
p6756
aS'man'
p6757
aS'slept'
p6758
aS'well'
p6759
aS'and'
p6760
aS'soundly'
p6761
aS','
p6762
aS'for'
p6763
aS'he'
p6764
aS'had'
p6765
aS'run'
p6766
aS'about'
p6767
aS'a'
p6768
aS'great'
p6769
aS'deal'
p6770
aS'during'
p6771
aS'the'
p6772
aS'day'
p6773
aS'.'
p6774
asg49
(lp6775
VThe
p6776
aVman
p6777
aVsleep
p6778
aVwell
p6779
aVand
p6780
aVsoundly
p6781
ag69
aVfor
p6782
aVhe
p6783
ag2543
aVrun
p6784
aVabout
p6785
ag55
aVgreat
p6786
aVdeal
p6787
aVduring
p6788
aVthe
p6789
aVday
p6790
ag77
asg78
(lp6791
g80
ag80
ag80
ag80
ag80
ag80
ag80
ag80
ag80
ag80
ag80
ag80
ag80
ag80
ag80
ag80
ag80
ag80
ag80
asg81
(lp6792
g87
ag88
ag84
ag85
ag94
ag85
ag93
ag86
ag95
ag84
ag90
ag86
ag87
ag92
ag88
ag86
ag87
ag88
ag96
asg97
VThe man slept well and soundly, for he had run about a great deal during the day.
p6793
sba(i__main__
Sentence
p6794
(dp6795
g17
I176
sg18
(lp6796
S'But'
p6797
aS'the'
p6798
aS'woman'
p6799
aS'could'
p6800
aS'not'
p6801
aS'fall'
p6802
aS'asleep'
p6803
aS'at'
p6804
aS'all'
p6805
aS','
p6806
aS'and'
p6807
aS'flung'
p6808
aS'herself'
p6809
aS'from'
p6810
aS'one'
p6811
aS'side'
p6812
aS'to'
p6813
aS'the'
p6814
aS'other'
p6815
aS'the'
p6816
aS'whole'
p6817
aS'night'
p6818
aS'through'
p6819
aS','
p6820
aS'thinking'
p6821
aS'always'
p6822
aS'what'
p6823
aS'more'
p6824
aS'was'
p6825
aS'left'
p6826
aS'for'
p6827
aS'her'
p6828
aS'to'
p6829
aS'be'
p6830
aS','
p6831
aS'but'
p6832
aS'unable'
p6833
aS'to'
p6834
aS'call'
p6835
aS'to'
p6836
aS'mind'
p6837
aS'anything'
p6838
aS'else'
p6839
aS'.'
p6840
asg49
(lp6841
VBut
p6842
aVthe
p6843
aVwoman
p6844
aVcould
p6845
aVnot
p6846
aVfall
p6847
aVasleep
p6848
aVat
p6849
aVall
p6850
ag69
aVand
p6851
aVflung
p6852
aVherself
p6853
aVfrom
p6854
aVone
p6855
aVside
p6856
aVto
p6857
aVthe
p6858
aVother
p6859
aVthe
p6860
aVwhole
p6861
aVnight
p6862
aVthrough
p6863
ag69
aVthink
p6864
aValways
p6865
aVwhat
p6866
aVmore
p6867
ag52
ag6745
aVfor
p6868
aVher
p6869
aVto
p6870
aVbe
p6871
ag69
aVbut
p6872
aVunable
p6873
aVto
p6874
aVcall
p6875
aVto
p6876
aVmind
p6877
aVanything
p6878
aVelse
p6879
ag77
asg78
(lp6880
g80
ag80
ag80
ag80
ag80
ag80
ag80
ag80
ag80
ag80
ag80
ag80
ag80
ag80
ag80
ag80
ag80
ag80
ag80
ag80
ag80
ag80
ag80
ag80
ag80
ag80
ag80
ag80
ag80
ag80
ag80
ag80
ag80
ag80
ag80
ag80
ag80
ag80
ag80
ag80
ag80
ag80
ag80
ag80
asg81
(lp6881
g94
ag87
ag88
ag311
ag85
ag284
ag92
ag86
ag87
ag93
ag94
ag92
ag88
ag86
ag3841
ag88
ag282
ag87
ag92
ag87
ag92
ag88
ag86
ag93
ag165
ag85
ag89
ag1695
ag84
ag90
ag86
ag91
ag282
ag284
ag93
ag94
ag92
ag282
ag284
ag282
ag284
ag88
ag85
ag96
asg97
VBut the woman could not fall asleep at all, and flung herself from one side to the other the whole night through, thinking always what more was left for her to be, but unable to call to mind anything else.
p6882
sba(i__main__
Sentence
p6883
(dp6884
g17
I177
sg18
(lp6885
S'At'
p6886
aS'length'
p6887
aS'the'
p6888
aS'sun'
p6889
aS'began'
p6890
aS'to'
p6891
aS'rise'
p6892
aS','
p6893
aS'and'
p6894
aS'when'
p6895
aS'the'
p6896
aS'woman'
p6897
aS'saw'
p6898
aS'the'
p6899
aS'red'
p6900
aS'of'
p6901
aS'dawn'
p6902
aS','
p6903
aS'she'
p6904
aS'sat'
p6905
aS'up'
p6906
aS'in'
p6907
aS'bed'
p6908
aS'and'
p6909
aS'looked'
p6910
aS'at'
p6911
aS'it'
p6912
aS'.'
p6913
asg49
(lp6914
VAt
p6915
aVlength
p6916
aVthe
p6917
aVsun
p6918
ag4585
aVto
p6919
aVrise
p6920
ag69
aVand
p6921
aVwhen
p6922
aVthe
p6923
aVwoman
p6924
aVsaw
p6925
aVthe
p6926
aVred
p6927
aVof
p6928
aVdawn
p6929
ag69
aVshe
p6930
ag160
aVup
p6931
aVin
p6932
aVbed
p6933
aVand
p6934
aVlook
p6935
aVat
p6936
aVit
p6937
ag77
asg78
(lp6938
g80
ag80
ag80
ag80
ag80
ag80
ag80
ag80
ag80
ag80
ag80
ag80
ag80
ag80
ag80
ag80
ag80
ag80
ag80
ag80
ag80
ag80
ag80
ag80
ag80
ag80
ag80
ag80
asg81
(lp6939
g86
ag88
ag87
ag88
ag84
ag282
ag284
ag93
ag94
ag219
ag87
ag88
ag84
ag87
ag90
ag86
ag88
ag93
ag95
ag84
ag220
ag86
ag90
ag94
ag84
ag86
ag95
ag96
asg97
VAt length the sun began to rise, and when the woman saw the red of dawn, she sat up in bed and looked at it.
p6940
sba(i__main__
Sentence
p6941
(dp6942
g17
I178
sg18
(lp6943
S'And'
p6944
aS'when'
p6945
aS','
p6946
aS'through'
p6947
aS'the'
p6948
aS'window'
p6949
aS','
p6950
aS'she'
p6951
aS'saw'
p6952
aS'the'
p6953
aS'sun'
p6954
aS'thus'
p6955
aS'rising'
p6956
aS','
p6957
aS'she'
p6958
aS'said'
p6959
aS','
p6960
aS'can'
p6961
aS'not'
p6962
aS'I'
p6963
aS','
p6964
aS'too'
p6965
aS','
p6966
aS'order'
p6967
aS'the'
p6968
aS'sun'
p6969
aS'and'
p6970
aS'moon'
p6971
aS'to'
p6972
aS'rise'
p6973
aS'.'
p6974
asg49
(lp6975
VAnd
p6976
aVwhen
p6977
ag69
aVthrough
p6978
aVthe
p6979
aVwindow
p6980
ag69
aVshe
p6981
aVsaw
p6982
aVthe
p6983
aVsun
p6984
aVthus
p6985
aVrise
p6986
ag69
aVshe
p6987
ag260
ag69
aVcan
p6988
aVnot
p6989
ag266
ag69
aVtoo
p6990
ag69
aVorder
p6991
aVthe
p6992
aVsun
p6993
aVand
p6994
aVmoon
p6995
aVto
p6996
aVrise
p6997
ag77
asg78
(lp6998
g80
ag80
ag80
ag80
ag80
ag80
ag80
ag80
ag80
ag80
ag80
ag80
ag80
ag80
ag80
ag80
ag80
ag80
ag80
ag80
ag80
ag80
ag80
ag80
ag80
ag80
ag80
ag80
ag80
ag80
ag80
asg81
(lp6999
g94
ag219
ag93
ag86
ag87
ag88
ag93
ag95
ag84
ag87
ag88
ag85
ag165
ag93
ag95
ag84
ag93
ag311
ag85
ag95
ag93
ag85
ag93
ag88
ag87
ag88
ag94
ag88
ag282
ag284
ag96
asg97
VAnd when, through the window, she saw the sun thus rising, she said, cannot I, too, order the sun and moon to rise.
p7000
sba(i__main__
Sentence
p7001
(dp7002
g17
I179
sg18
(lp7003
S'Husband'
p7004
aS','
p7005
aS'she'
p7006
aS'said'
p7007
aS','
p7008
aS'poking'
p7009
aS'him'
p7010
aS'in'
p7011
aS'the'
p7012
aS'ribs'
p7013
aS'with'
p7014
aS'her'
p7015
aS'elbows'
p7016
aS','
p7017
aS'wake'
p7018
aS'up'
p7019
aS'.'
p7020
asg49
(lp7021
VHusband
p7022
ag69
aVshe
p7023
ag260
ag69
aVpoking
p7024
aVhim
p7025
aVin
p7026
aVthe
p7027
aVrib
p7028
aVwith
p7029
aVher
p7030
aVelbow
p7031
ag69
aVwake
p7032
aVup
p7033
ag77
asg78
(lp7034
g80
ag80
ag80
ag80
ag80
ag80
ag80
ag80
ag80
ag80
ag80
ag80
ag80
ag80
ag80
ag80
ag80
asg81
(lp7035
g415
ag93
ag95
ag84
ag93
ag88
ag95
ag86
ag87
ag417
ag86
ag91
ag417
ag93
ag283
ag220
ag96
asg97
VHusband, she said, poking him in the ribs with her elbows, wake up.
p7036
sba(i__main__
Sentence
p7037
(dp7038
g17
I180
sg18
(lp7039
S'Go'
p7040
aS'to'
p7041
aS'the'
p7042
aS'flounder'
p7043
aS','
p7044
aS'for'
p7045
aS'I'
p7046
aS'wish'
p7047
aS'to'
p7048
aS'be'
p7049
aS'even'
p7050
aS'as'
p7051
aS'God'
p7052
aS'is'
p7053
aS'.'
p7054
asg49
(lp7055
VGo
p7056
aVto
p7057
aVthe
p7058
aVflounder
p7059
ag69
aVfor
p7060
ag266
aVwish
p7061
aVto
p7062
aVbe
p7063
aVeven
p7064
ag55
aVGod
p7065
ag394
ag77
asg78
(lp7066
g80
ag80
ag80
ag80
ag80
ag80
ag80
ag80
ag80
ag80
ag80
ag80
ag80
ag80
ag80
asg81
(lp7067
g415
ag282
ag87
ag88
ag93
ag86
ag95
ag283
ag282
ag284
ag85
ag86
ag415
ag416
ag96
asg97
VGo to the flounder, for I wish to be even as God is.
p7068
sba(i__main__
Sentence
p7069
(dp7070
g17
I181
sg18
(lp7071
S'The'
p7072
aS'man'
p7073
aS'was'
p7074
aS'still'
p7075
aS'half'
p7076
aS'asleep'
p7077
aS','
p7078
aS'but'
p7079
aS'he'
p7080
aS'was'
p7081
aS'so'
p7082
aS'horrified'
p7083
aS'that'
p7084
aS'he'
p7085
aS'fell'
p7086
aS'out'
p7087
aS'of'
p7088
aS'bed'
p7089
aS'.'
p7090
asg49
(lp7091
VThe
p7092
aVman
p7093
ag52
aVstill
p7094
aVhalf
p7095
aVasleep
p7096
ag69
aVbut
p7097
aVhe
p7098
ag52
aVso
p7099
aVhorrify
p7100
aVthat
p7101
aVhe
p7102
aVfell
p7103
aVout
p7104
aVof
p7105
aVbed
p7106
ag77
asg78
(lp7107
g80
ag80
ag80
ag80
ag80
ag80
ag80
ag80
ag80
ag80
ag80
ag80
ag80
ag80
ag80
ag80
ag80
ag80
ag80
asg81
(lp7108
g87
ag88
ag84
ag85
ag87
ag88
ag93
ag94
ag95
ag84
ag85
ag90
ag86
ag95
ag84
ag220
ag86
ag90
ag96
asg97
VThe man was still half asleep, but he was so horrified that he fell out of bed.
p7109
sba(i__main__
Sentence
p7110
(dp7111
g17
I182
sg18
(lp7112
S'He'
p7113
aS'thought'
p7114
aS'he'
p7115
aS'must'
p7116
aS'have'
p7117
aS'heard'
p7118
aS'amiss'
p7119
aS','
p7120
aS'and'
p7121
aS'rubbed'
p7122
aS'his'
p7123
aS'eyes'
p7124
aS','
p7125
aS'and'
p7126
aS'said'
p7127
aS','
p7128
aS'wife'
p7129
aS','
p7130
aS'what'
p7131
aS'are'
p7132
aS'you'
p7133
aS'saying'
p7134
aS'.'
p7135
asg49
(lp7136
VHe
p7137
ag3288
aVhe
p7138
aVmust
p7139
aVhave
p7140
aVhear
p7141
aVamiss
p7142
ag69
aVand
p7143
aVrub
p7144
aVhis
p7145
aVeye
p7146
ag69
aVand
p7147
ag260
ag69
aVwife
p7148
ag69
aVwhat
p7149
ag1661
aVyou
p7150
aVsay
p7151
ag77
asg78
(lp7152
g80
ag80
ag80
ag80
ag80
ag80
ag80
ag80
ag80
ag80
ag80
ag80
ag80
ag80
ag80
ag80
ag80
ag80
ag80
ag80
ag80
ag80
ag80
asg81
(lp7153
g95
ag84
ag95
ag311
ag284
ag90
ag417
ag93
ag94
ag84
ag91
ag417
ag93
ag94
ag84
ag93
ag88
ag93
ag89
ag283
ag95
ag165
ag96
asg97
VHe thought he must have heard amiss, and rubbed his eyes, and said, wife, what are you saying.
p7154
sba(i__main__
Sentence
p7155
(dp7156
g17
I183
sg18
(lp7157
S'Husband'
p7158
aS','
p7159
aS'said'
p7160
aS'she'
p7161
aS','
p7162
aS'if'
p7163
aS'I'
p7164
aS'ca'
p7165
aS"n't"
p7166
aS'order'
p7167
aS'the'
p7168
aS'sun'
p7169
aS'and'
p7170
aS'moon'
p7171
aS'to'
p7172
aS'rise'
p7173
aS','
p7174
aS'and'
p7175
aS'have'
p7176
aS'to'
p7177
aS'look'
p7178
aS'on'
p7179
aS'and'
p7180
aS'see'
p7181
aS'the'
p7182
aS'sun'
p7183
aS'and'
p7184
aS'moon'
p7185
aS'rising'
p7186
aS','
p7187
aS'I'
p7188
aS'ca'
p7189
aS"n't"
p7190
aS'bear'
p7191
aS'it'
p7192
aS'.'
p7193
asg49
(lp7194
VHusband
p7195
ag69
ag260
aVshe
p7196
ag69
aVif
p7197
ag266
aVca
p7198
aVn't
p7199
aVorder
p7200
aVthe
p7201
aVsun
p7202
aVand
p7203
aVmoon
p7204
aVto
p7205
aVrise
p7206
ag69
aVand
p7207
aVhave
p7208
aVto
p7209
aVlook
p7210
aVon
p7211
aVand
p7212
aVsee
p7213
aVthe
p7214
aVsun
p7215
aVand
p7216
aVmoon
p7217
aVrise
p7218
ag69
ag266
aVca
p7219
aVn't
p7220
aVbear
p7221
aVit
p7222
ag77
asg78
(lp7223
VPERSON
p7224
ag80
ag80
ag80
ag80
ag80
ag80
ag80
ag80
ag80
ag80
ag80
ag80
ag80
ag80
ag80
ag80
ag80
ag80
ag80
ag80
ag80
ag80
ag80
ag80
ag80
ag80
ag80
ag80
ag80
ag80
ag80
ag80
ag80
ag80
ag80
asg81
(lp7225
g415
ag93
ag84
ag95
ag93
ag86
ag95
ag311
ag85
ag284
ag87
ag88
ag94
ag88
ag282
ag284
ag93
ag94
ag283
ag282
ag284
ag86
ag94
ag284
ag87
ag88
ag94
ag88
ag165
ag93
ag95
ag311
ag85
ag284
ag95
ag96
asg97
VHusband, said she, if I can't order the sun and moon to rise, and have to look on and see the sun and moon rising, I can't bear it.
p7226
sba(i__main__
Sentence
p7227
(dp7228
g17
I184
sg18
(lp7229
S'I'
p7230
aS'shall'
p7231
aS'not'
p7232
aS'know'
p7233
aS'what'
p7234
aS'it'
p7235
aS'is'
p7236
aS'to'
p7237
aS'have'
p7238
aS'another'
p7239
aS'happy'
p7240
aS'hour'
p7241
aS','
p7242
aS'unless'
p7243
aS'I'
p7244
aS'can'
p7245
aS'make'
p7246
aS'them'
p7247
aS'rise'
p7248
aS'myself'
p7249
aS'.'
p7250
asg49
(lp7251
g266
aVshall
p7252
aVnot
p7253
aVknow
p7254
aVwhat
p7255
aVit
p7256
ag394
aVto
p7257
aVhave
p7258
aVanother
p7259
aVhappy
p7260
aVhour
p7261
ag69
aVunless
p7262
ag266
aVcan
p7263
aVmake
p7264
aVthem
p7265
aVrise
p7266
aVmyself
p7267
ag77
asg78
(lp7268
g80
ag80
ag80
ag80
ag80
ag80
ag80
ag80
ag80
ag80
ag80
ag80
ag80
ag80
ag80
ag80
ag80
ag80
ag80
ag80
ag80
asg81
(lp7269
g95
ag283
ag85
ag284
ag89
ag95
ag416
ag282
ag284
ag87
ag88
ag88
ag93
ag86
ag95
ag311
ag284
ag95
ag284
ag95
ag96
asg97
VI shall not know what it is to have another happy hour, unless I can make them rise myself.
p7270
sba(i__main__
Sentence
p7271
(dp7272
g17
I185
sg18
(lp7273
S'Then'
p7274
aS'she'
p7275
aS'looked'
p7276
aS'at'
p7277
aS'him'
p7278
aS'so'
p7279
aS'terribly'
p7280
aS'that'
p7281
aS'a'
p7282
aS'shudder'
p7283
aS'ran'
p7284
aS'over'
p7285
aS'him'
p7286
aS','
p7287
aS'and'
p7288
aS'said'
p7289
aS','
p7290
aS'go'
p7291
aS'at'
p7292
aS'once'
p7293
aS'.'
p7294
asg49
(lp7295
VThen
p7296
aVshe
p7297
aVlook
p7298
aVat
p7299
aVhim
p7300
aVso
p7301
aVterribly
p7302
aVthat
p7303
ag55
aVshudder
p7304
aVrun
p7305
aVover
p7306
aVhim
p7307
ag69
aVand
p7308
ag260
ag69
aVgo
p7309
aVat
p7310
aVonce
p7311
ag77
asg78
(lp7312
g80
ag80
ag80
ag80
ag80
ag80
ag80
ag80
ag80
ag80
ag80
ag80
ag80
ag80
ag80
ag80
ag80
ag80
ag80
ag80
ag80
asg81
(lp7313
g85
ag95
ag84
ag86
ag95
ag85
ag85
ag86
ag87
ag88
ag84
ag86
ag95
ag93
ag94
ag84
ag93
ag86
ag86
ag85
ag96
asg97
VThen she looked at him so terribly that a shudder ran over him, and said, go at once.
p7314
sba(i__main__
Sentence
p7315
(dp7316
g17
I186
sg18
(lp7317
S'I'
p7318
aS'wish'
p7319
aS'to'
p7320
aS'be'
p7321
aS'like'
p7322
aS'unto'
p7323
aS'God'
p7324
aS'.'
p7325
asg49
(lp7326
g266
aVwish
p7327
aVto
p7328
aVbe
p7329
aVlike
p7330
aVunto
p7331
aVGod
p7332
ag77
asg78
(lp7333
g80
ag80
ag80
ag80
ag80
ag80
ag80
ag80
asg81
(lp7334
g95
ag283
ag282
ag284
ag86
ag86
ag415
ag96
asg97
VI wish to be like unto God.
p7335
sba(i__main__
Sentence
p7336
(dp7337
g17
I187
sg18
(lp7338
S'Alas'
p7339
aS','
p7340
aS'wife'
p7341
aS','
p7342
aS'said'
p7343
aS'the'
p7344
aS'man'
p7345
aS','
p7346
aS'falling'
p7347
aS'on'
p7348
aS'his'
p7349
aS'knees'
p7350
aS'before'
p7351
aS'her'
p7352
aS','
p7353
aS'the'
p7354
aS'flounder'
p7355
aS'can'
p7356
aS'not'
p7357
aS'do'
p7358
aS'that'
p7359
aS'.'
p7360
asg49
(lp7361
VAlas
p7362
ag69
aVwife
p7363
ag69
ag260
aVthe
p7364
aVman
p7365
ag69
aVfall
p7366
aVon
p7367
aVhis
p7368
aVknee
p7369
aVbefore
p7370
aVher
p7371
ag69
aVthe
p7372
aVflounder
p7373
aVcan
p7374
aVnot
p7375
aVdo
p7376
aVthat
p7377
ag77
asg78
(lp7378
g80
ag80
ag80
ag80
ag80
ag80
ag80
ag80
ag80
ag80
ag80
ag80
ag80
ag80
ag80
ag80
ag80
ag80
ag80
ag80
ag80
ag80
asg81
(lp7379
g415
ag93
ag88
ag93
ag84
ag87
ag88
ag93
ag165
ag86
ag91
ag417
ag86
ag91
ag93
ag87
ag88
ag311
ag85
ag284
ag87
ag96
asg97
VAlas, wife, said the man, falling on his knees before her, the flounder cannot do that.
p7380
sba(i__main__
Sentence
p7381
(dp7382
g17
I188
sg18
(lp7383
S'He'
p7384
aS'can'
p7385
aS'make'
p7386
aS'an'
p7387
aS'emperor'
p7388
aS'and'
p7389
aS'a'
p7390
aS'pope'
p7391
aS'.'
p7392
asg49
(lp7393
VHe
p7394
aVcan
p7395
aVmake
p7396
aVan
p7397
aVemperor
p7398
aVand
p7399
ag55
aVpope
p7400
ag77
asg78
(lp7401
g80
ag80
ag80
ag80
ag80
ag80
ag80
ag80
ag80
asg81
(lp7402
g95
ag311
ag284
ag87
ag88
ag94
ag87
ag88
ag96
asg97
VHe can make an emperor and a pope.
p7403
sba(i__main__
Sentence
p7404
(dp7405
g17
I189
sg18
(lp7406
S'I'
p7407
aS'beseech'
p7408
aS'you'
p7409
aS','
p7410
aS'go'
p7411
aS'on'
p7412
aS'as'
p7413
aS'you'
p7414
aS'are'
p7415
aS','
p7416
aS'and'
p7417
aS'be'
p7418
aS'pope'
p7419
aS'.'
p7420
asg49
(lp7421
g266
aVbeseech
p7422
aVyou
p7423
ag69
aVgo
p7424
aVon
p7425
ag55
aVyou
p7426
ag1661
ag69
aVand
p7427
aVbe
p7428
aVpope
p7429
ag77
asg78
(lp7430
g80
ag80
ag80
ag80
ag80
ag80
ag80
ag80
ag80
ag80
ag80
ag80
ag80
ag80
asg81
(lp7431
g95
ag283
ag95
ag93
ag283
ag86
ag86
ag95
ag283
ag93
ag94
ag284
ag88
ag96
asg97
VI beseech you, go on as you are, and be pope.
p7432
sba(i__main__
Sentence
p7433
(dp7434
g17
I190
sg18
(lp7435
S'Then'
p7436
aS'she'
p7437
aS'fell'
p7438
aS'into'
p7439
aS'a'
p7440
aS'rage'
p7441
aS','
p7442
aS'and'
p7443
aS'her'
p7444
aS'hair'
p7445
aS'flew'
p7446
aS'wildly'
p7447
aS'about'
p7448
aS'her'
p7449
aS'head'
p7450
aS','
p7451
aS'she'
p7452
aS'tore'
p7453
aS'open'
p7454
aS'her'
p7455
aS'bodice'
p7456
aS','
p7457
aS'kicked'
p7458
aS'him'
p7459
aS'with'
p7460
aS'her'
p7461
aS'foot'
p7462
aS','
p7463
aS'and'
p7464
aS'screamed'
p7465
aS','
p7466
aS'I'
p7467
aS'ca'
p7468
aS"n't"
p7469
aS'stand'
p7470
aS'it'
p7471
aS','
p7472
aS'I'
p7473
aS'ca'
p7474
aS"n't"
p7475
aS'stand'
p7476
aS'it'
p7477
aS'any'
p7478
aS'longer'
p7479
aS'.'
p7480
asg49
(lp7481
VThen
p7482
aVshe
p7483
aVfell
p7484
aVinto
p7485
ag55
aVrage
p7486
ag69
aVand
p7487
aVher
p7488
aVhair
p7489
aVflew
p7490
aVwildly
p7491
aVabout
p7492
aVher
p7493
aVhead
p7494
ag69
aVshe
p7495
aVtear
p7496
aVopen
p7497
aVher
p7498
aVbodice
p7499
ag69
aVkick
p7500
aVhim
p7501
aVwith
p7502
aVher
p7503
aVfoot
p7504
ag69
aVand
p7505
aVscream
p7506
ag69
ag266
aVca
p7507
aVn't
p7508
aVstand
p7509
aVit
p7510
ag69
ag266
aVca
p7511
aVn't
p7512
aVstand
p7513
aVit
p7514
aVany
p7515
aVlonger
p7516
ag77
asg78
(lp7517
g80
ag80
ag80
ag80
ag80
ag80
ag80
ag80
ag80
ag80
ag80
ag80
ag80
ag80
ag80
ag80
ag80
ag80
ag80
ag80
ag80
ag80
ag80
ag80
ag80
ag80
ag80
ag80
ag80
ag80
ag80
ag80
ag80
ag80
ag80
ag80
ag80
ag80
ag80
ag80
ag80
ag80
ag80
ag80
ag80
asg81
(lp7518
g85
ag95
ag84
ag86
ag87
ag88
ag93
ag94
ag91
ag88
ag88
ag85
ag86
ag91
ag88
ag93
ag95
ag283
ag92
ag91
ag88
ag93
ag84
ag95
ag86
ag91
ag88
ag93
ag94
ag84
ag93
ag95
ag311
ag85
ag284
ag95
ag93
ag95
ag311
ag85
ag284
ag95
ag87
ag88
ag96
asg97
VThen she fell into a rage, and her hair flew wildly about her head, she tore open her bodice, kicked him with her foot, and screamed, I can't stand it, I can't stand it any longer.
p7519
sba(i__main__
Sentence
p7520
(dp7521
g17
I191
sg18
(lp7522
S'Will'
p7523
aS'you'
p7524
aS'go'
p7525
aS'this'
p7526
aS'instant'
p7527
aS'.'
p7528
asg49
(lp7529
VWill
p7530
aVyou
p7531
aVgo
p7532
aVthis
p7533
aVinstant
p7534
ag77
asg78
(lp7535
g80
ag80
ag80
ag80
ag80
ag80
asg81
(lp7536
g415
ag95
ag283
ag87
ag88
ag96
asg97
VWill you go this instant.
p7537
sba(i__main__
Sentence
p7538
(dp7539
g17
I192
sg18
(lp7540
S'Then'
p7541
aS'he'
p7542
aS'put'
p7543
aS'on'
p7544
aS'his'
p7545
aS'trousers'
p7546
aS'and'
p7547
aS'ran'
p7548
aS'away'
p7549
aS'like'
p7550
aS'a'
p7551
aS'madman'
p7552
aS'.'
p7553
asg49
(lp7554
VThen
p7555
aVhe
p7556
aVput
p7557
aVon
p7558
aVhis
p7559
aVtrouser
p7560
aVand
p7561
ag7305
aVaway
p7562
aVlike
p7563
ag55
aVmadman
p7564
ag77
asg78
(lp7565
g80
ag80
ag80
ag80
ag80
ag80
ag80
ag80
ag80
ag80
ag80
ag80
ag80
asg81
(lp7566
g85
ag95
ag84
ag86
ag91
ag417
ag94
ag84
ag85
ag86
ag87
ag88
ag96
asg97
VThen he put on his trousers and ran away like a madman.
p7567
sba(i__main__
Sentence
p7568
(dp7569
g17
I193
sg18
(lp7570
S'But'
p7571
aS'outside'
p7572
aS'a'
p7573
aS'great'
p7574
aS'storm'
p7575
aS'was'
p7576
aS'raging'
p7577
aS','
p7578
aS'and'
p7579
aS'blowing'
p7580
aS'so'
p7581
aS'hard'
p7582
aS'that'
p7583
aS'he'
p7584
aS'could'
p7585
aS'scarcely'
p7586
aS'keep'
p7587
aS'his'
p7588
aS'feet'
p7589
aS'.'
p7590
asg49
(lp7591
VBut
p7592
aVoutside
p7593
ag55
aVgreat
p7594
aVstorm
p7595
ag52
aVrag
p7596
ag69
aVand
p7597
aVblow
p7598
aVso
p7599
aVhard
p7600
aVthat
p7601
aVhe
p7602
aVcould
p7603
aVscarcely
p7604
aVkeep
p7605
aVhis
p7606
aVfoot
p7607
ag77
asg78
(lp7608
g80
ag80
ag80
ag80
ag80
ag80
ag80
ag80
ag80
ag80
ag80
ag80
ag80
ag80
ag80
ag80
ag80
ag80
ag80
ag80
asg81
(lp7609
g94
ag86
ag87
ag92
ag88
ag84
ag165
ag93
ag94
ag165
ag85
ag85
ag86
ag95
ag311
ag85
ag284
ag91
ag88
ag96
asg97
VBut outside a great storm was raging, and blowing so hard that he could scarcely keep his feet.
p7610
sba(i__main__
Sentence
p7611
(dp7612
g17
I194
sg18
(lp7613
S'Houses'
p7614
aS'and'
p7615
aS'trees'
p7616
aS'toppled'
p7617
aS'over'
p7618
aS','
p7619
aS'the'
p7620
aS'mountains'
p7621
aS'trembled'
p7622
aS','
p7623
aS'rocks'
p7624
aS'rolled'
p7625
aS'into'
p7626
aS'the'
p7627
aS'sea'
p7628
aS','
p7629
aS'the'
p7630
aS'sky'
p7631
aS'was'
p7632
aS'pitch'
p7633
aS'black'
p7634
aS','
p7635
aS'and'
p7636
aS'it'
p7637
aS'thundered'
p7638
aS'and'
p7639
aS'lightened'
p7640
aS','
p7641
aS'and'
p7642
aS'the'
p7643
aS'sea'
p7644
aS'came'
p7645
aS'in'
p7646
aS'with'
p7647
aS'black'
p7648
aS'waves'
p7649
aS'as'
p7650
aS'high'
p7651
aS'as'
p7652
aS'church-towers'
p7653
aS'and'
p7654
aS'mountains'
p7655
aS','
p7656
aS'and'
p7657
aS'all'
p7658
aS'with'
p7659
aS'crests'
p7660
aS'of'
p7661
aS'white'
p7662
aS'foam'
p7663
aS'at'
p7664
aS'the'
p7665
aS'top'
p7666
aS'.'
p7667
asg49
(lp7668
VHouses
p7669
aVand
p7670
aVtree
p7671
aVtopple
p7672
aVover
p7673
ag69
aVthe
p7674
aVmountain
p7675
aVtremble
p7676
ag69
aVrock
p7677
aVroll
p7678
aVinto
p7679
aVthe
p7680
aVsea
p7681
ag69
aVthe
p7682
aVsky
p7683
ag52
aVpitch
p7684
aVblack
p7685
ag69
aVand
p7686
aVit
p7687
aVthunder
p7688
aVand
p7689
aVlighten
p7690
ag69
aVand
p7691
aVthe
p7692
aVsea
p7693
ag1071
aVin
p7694
aVwith
p7695
aVblack
p7696
aVwave
p7697
ag55
aVhigh
p7698
ag55
aVchurch-towers
p7699
aVand
p7700
aVmountain
p7701
ag69
aVand
p7702
aVall
p7703
aVwith
p7704
aVcrest
p7705
aVof
p7706
aVwhite
p7707
aVfoam
p7708
aVat
p7709
aVthe
p7710
aVtop
p7711
ag77
asg78
(lp7712
g80
ag80
ag80
ag80
ag80
ag80
ag80
ag80
ag80
ag80
ag80
ag80
ag80
ag80
ag80
ag80
ag80
ag80
ag80
ag80
ag80
ag80
ag80
ag80
ag80
ag80
ag80
ag80
ag80
ag80
ag80
ag80
ag80
ag80
ag80
ag80
ag80
ag80
ag80
ag80
ag80
ag80
ag80
ag80
ag80
ag80
ag80
ag80
ag80
ag80
ag80
ag80
ag80
ag80
asg81
(lp7713
g417
ag94
ag417
ag84
ag86
ag93
ag87
ag417
ag84
ag93
ag417
ag84
ag86
ag87
ag88
ag93
ag87
ag88
ag84
ag92
ag88
ag93
ag94
ag95
ag84
ag94
ag90
ag93
ag94
ag87
ag88
ag84
ag86
ag86
ag92
ag417
ag86
ag92
ag86
ag417
ag94
ag417
ag93
ag94
ag87
ag86
ag417
ag86
ag92
ag88
ag86
ag87
ag92
ag96
asg97
VHouses and trees toppled over, the mountains trembled, rocks rolled into the sea, the sky was pitch black, and it thundered and lightened, and the sea came in with black waves as high as church-towers and mountains, and all with crests of white foam at the top.
p7714
sba(i__main__
Sentence
p7715
(dp7716
g17
I195
sg18
(lp7717
S'Then'
p7718
aS'he'
p7719
aS'cried'
p7720
aS','
p7721
aS'but'
p7722
aS'could'
p7723
aS'not'
p7724
aS'hear'
p7725
aS'his'
p7726
aS'own'
p7727
aS'words'
p7728
aS','
p7729
aS'flounder'
p7730
aS','
p7731
aS'flounder'
p7732
aS'in'
p7733
aS'the'
p7734
aS'sea'
p7735
aS','
p7736
aS'come'
p7737
aS','
p7738
aS'I'
p7739
aS'pray'
p7740
aS'thee'
p7741
aS','
p7742
aS'here'
p7743
aS'to'
p7744
aS'me'
p7745
aS'.'
p7746
asg49
(lp7747
VThen
p7748
aVhe
p7749
aVcry
p7750
ag69
aVbut
p7751
aVcould
p7752
aVnot
p7753
aVhear
p7754
aVhis
p7755
aVown
p7756
aVword
p7757
ag69
aVflounder
p7758
ag69
aVflounder
p7759
aVin
p7760
aVthe
p7761
aVsea
p7762
ag69
aVcome
p7763
ag69
ag266
aVpray
p7764
aVthee
p7765
ag69
aVhere
p7766
aVto
p7767
aVme
p7768
ag77
asg78
(lp7769
g80
ag80
ag80
ag80
ag80
ag80
ag80
ag80
ag80
ag80
ag80
ag80
ag80
ag80
ag80
ag80
ag80
ag80
ag80
ag80
ag80
ag80
ag80
ag80
ag80
ag80
ag80
ag80
ag80
asg81
(lp7770
g85
ag95
ag84
ag93
ag94
ag311
ag85
ag284
ag91
ag92
ag417
ag93
ag88
ag93
ag88
ag86
ag87
ag88
ag93
ag283
ag93
ag95
ag283
ag92
ag93
ag85
ag282
ag95
ag96
asg97
VThen he cried, but could not hear his own words,           flounder, flounder in the sea,           come, I pray thee, here to me.
p7771
sba(i__main__
Sentence
p7772
(dp7773
g17
I196
sg18
(lp7774
S'For'
p7775
aS'my'
p7776
aS'wife'
p7777
aS','
p7778
aS'good'
p7779
aS'ilsabil'
p7780
aS','
p7781
aS'wills'
p7782
aS'not'
p7783
aS'as'
p7784
aS'I'
p7785
aS"'d"
p7786
aS'have'
p7787
aS'her'
p7788
aS'will'
p7789
aS'.'
p7790
asg49
(lp7791
VFor
p7792
aVmy
p7793
aVwife
p7794
ag69
aVgood
p7795
aVilsabil
p7796
ag69
aVwill
p7797
aVnot
p7798
ag55
ag266
aV'd
p7799
aVhave
p7800
aVher
p7801
aVwill
p7802
ag77
asg78
(lp7803
g80
ag80
ag80
ag80
ag80
ag80
ag80
ag80
ag80
ag80
ag80
ag80
ag80
ag80
ag80
ag80
asg81
(lp7804
g86
ag91
ag88
ag93
ag92
ag88
ag93
ag417
ag85
ag86
ag95
ag311
ag284
ag91
ag311
ag96
asg97
VFor my wife, good ilsabil,           wills not as I'd have her will.
p7805
sba(i__main__
Sentence
p7806
(dp7807
g17
I197
sg18
(lp7808
S'Well'
p7809
aS','
p7810
aS'what'
p7811
aS'does'
p7812
aS'she'
p7813
aS'want'
p7814
aS','
p7815
aS'now'
p7816
aS','
p7817
aS'said'
p7818
aS'the'
p7819
aS'flounder'
p7820
aS'.'
p7821
asg49
(lp7822
VWell
p7823
ag69
aVwhat
p7824
aVdo
p7825
aVshe
p7826
aVwant
p7827
ag69
aVnow
p7828
ag69
ag260
aVthe
p7829
aVflounder
p7830
ag77
asg78
(lp7831
g80
ag80
ag80
ag80
ag80
ag80
ag80
ag80
ag80
ag80
ag80
ag80
ag80
asg81
(lp7832
g415
ag93
ag89
ag416
ag95
ag283
ag93
ag85
ag93
ag84
ag87
ag88
ag96
asg97
VWell, what does she want, now, said the flounder.
p7833
sba(i__main__
Sentence
p7834
(dp7835
g17
I198
sg18
(lp7836
S'Alas'
p7837
aS','
p7838
aS'said'
p7839
aS'he'
p7840
aS','
p7841
aS'she'
p7842
aS'wants'
p7843
aS'to'
p7844
aS'be'
p7845
aS'like'
p7846
aS'unto'
p7847
aS'God'
p7848
aS'.'
p7849
asg49
(lp7850
VAlas
p7851
ag69
ag260
aVhe
p7852
ag69
aVshe
p7853
aVwant
p7854
aVto
p7855
aVbe
p7856
aVlike
p7857
aVunto
p7858
aVGod
p7859
ag77
asg78
(lp7860
g80
ag80
ag80
ag80
ag80
ag80
ag80
ag80
ag80
ag80
ag80
ag80
ag80
asg81
(lp7861
g415
ag93
ag84
ag95
ag93
ag95
ag416
ag282
ag284
ag86
ag86
ag415
ag96
asg97
VAlas, said he, she wants to be like unto God.
p7862
sba(i__main__
Sentence
p7863
(dp7864
g17
I199
sg18
(lp7865
S'Go'
p7866
aS'to'
p7867
aS'her'
p7868
aS','
p7869
aS'and'
p7870
aS'you'
p7871
aS'will'
p7872
aS'find'
p7873
aS'her'
p7874
aS'back'
p7875
aS'again'
p7876
aS'in'
p7877
aS'the'
p7878
aS'pig-stye'
p7879
aS'.'
p7880
asg49
(lp7881
VGo
p7882
aVto
p7883
aVher
p7884
ag69
aVand
p7885
aVyou
p7886
aVwill
p7887
aVfind
p7888
aVher
p7889
aVback
p7890
aVagain
p7891
aVin
p7892
aVthe
p7893
aVpig-stye
p7894
ag77
asg78
(lp7895
g80
ag80
ag80
ag80
ag80
ag80
ag80
ag80
ag80
ag80
ag80
ag80
ag80
ag80
ag80
asg81
(lp7896
g415
ag282
ag91
ag93
ag94
ag95
ag311
ag284
ag95
ag85
ag85
ag86
ag87
ag92
ag96
asg97
VGo to her, and you will find her back again in the pig-stye.
p7897
sba(i__main__
Sentence
p7898
(dp7899
g17
I200
sg18
(lp7900
S'And'
p7901
aS'there'
p7902
aS'they'
p7903
aS'are'
p7904
aS'still'
p7905
aS'living'
p7906
aS'to'
p7907
aS'this'
p7908
aS'day'
p7909
aS'.'
p7910
asg49
(lp7911
VAnd
p7912
aVthere
p7913
aVthey
p7914
ag1661
aVstill
p7915
aVlive
p7916
aVto
p7917
aVthis
p7918
aVday
p7919
ag77
asg78
(lp7920
g80
ag80
ag80
ag80
ag80
ag80
ag80
ag80
ag80
ag80
asg81
(lp7921
g94
ag83
ag95
ag283
ag85
ag165
ag282
ag87
ag88
ag96
asg97
VAnd there they are still living to this day. 
p7922
sbasbsS'summary'
p7923
g0
(g7
g2
Ntp7924
Rp7925
(dp7926
g11
S'A fisherman catches an enchanted flounder that gives him and his wife a new house. The wife soon becomes unhappy with her house and wants a bigger one. The fish grants her this wish. This happens several times. The woman eventually wishes to be like God. The fish grants this wish also and puts her back in her pig-sty. '
p7927
sg13
(lp7928
(i__main__
Sentence
p7929
(dp7930
g17
I0
sg18
(lp7931
S'A'
p7932
aS'fisherman'
p7933
aS'catches'
p7934
aS'an'
p7935
aS'enchanted'
p7936
aS'flounder'
p7937
aS'that'
p7938
aS'gives'
p7939
aS'him'
p7940
aS'and'
p7941
aS'his'
p7942
aS'wife'
p7943
aS'a'
p7944
aS'new'
p7945
aS'house'
p7946
aS'.'
p7947
asg49
(lp7948
VA
p7949
aVfisherman
p7950
aVcatch
p7951
aVan
p7952
aVenchant
p7953
aVflounder
p7954
aVthat
p7955
aVgive
p7956
aVhim
p7957
aVand
p7958
aVhis
p7959
aVwife
p7960
ag55
aVnew
p7961
aVhouse
p7962
ag77
asg78
(lp7963
g80
ag80
ag80
ag80
ag80
ag80
ag80
ag80
ag80
ag80
ag80
ag80
ag80
ag80
ag80
ag80
asg81
(lp7964
g87
ag88
ag416
ag87
ag90
ag88
ag86
ag416
ag95
ag94
ag91
ag88
ag87
ag92
ag88
ag96
asg97
VA fisherman catches an enchanted flounder that gives him and his wife a new house.
p7965
sba(i__main__
Sentence
p7966
(dp7967
g17
I1
sg18
(lp7968
S'The'
p7969
aS'wife'
p7970
aS'soon'
p7971
aS'becomes'
p7972
aS'unhappy'
p7973
aS'with'
p7974
aS'her'
p7975
aS'house'
p7976
aS'and'
p7977
aS'wants'
p7978
aS'a'
p7979
aS'bigger'
p7980
aS'one'
p7981
aS'.'
p7982
asg49
(lp7983
VThe
p7984
aVwife
p7985
aVsoon
p7986
aVbecome
p7987
aVunhappy
p7988
aVwith
p7989
aVher
p7990
aVhouse
p7991
aVand
p7992
aVwant
p7993
ag55
aVbig
p7994
aVone
p7995
ag77
asg78
(lp7996
g80
ag80
ag80
ag80
ag80
ag80
ag80
ag80
ag80
ag80
ag80
ag80
ag80
ag80
asg81
(lp7997
g87
ag88
ag85
ag416
ag92
ag86
ag91
ag88
ag94
ag416
ag87
ag1695
ag3841
ag96
asg97
VThe wife soon becomes unhappy with her house and wants a bigger one.
p7998
sba(i__main__
Sentence
p7999
(dp8000
g17
I2
sg18
(lp8001
S'The'
p8002
aS'fish'
p8003
aS'grants'
p8004
aS'her'
p8005
aS'this'
p8006
aS'wish'
p8007
aS'.'
p8008
asg49
(lp8009
VThe
p8010
aVfish
p8011
aVgrant
p8012
aVher
p8013
aVthis
p8014
aVwish
p8015
ag77
asg78
(lp8016
g80
ag80
ag80
ag80
ag80
ag80
ag80
asg81
(lp8017
g87
ag92
ag417
ag95
ag87
ag88
ag96
asg97
VThe fish grants her this wish.
p8018
sba(i__main__
Sentence
p8019
(dp8020
g17
I3
sg18
(lp8021
S'This'
p8022
aS'happens'
p8023
aS'several'
p8024
aS'times'
p8025
aS'.'
p8026
asg49
(lp8027
VThis
p8028
aVhappens
p8029
aVseveral
p8030
aVtime
p8031
ag77
asg78
(lp8032
g80
ag80
ag80
ag80
ag80
asg81
(lp8033
g87
ag417
ag92
ag417
ag96
asg97
VThis happens several times.
p8034
sba(i__main__
Sentence
p8035
(dp8036
g17
I4
sg18
(lp8037
S'The'
p8038
aS'woman'
p8039
aS'eventually'
p8040
aS'wishes'
p8041
aS'to'
p8042
aS'be'
p8043
aS'like'
p8044
aS'God'
p8045
aS'.'
p8046
asg49
(lp8047
VThe
p8048
aVwoman
p8049
aVeventually
p8050
aVwish
p8051
aVto
p8052
aVbe
p8053
aVlike
p8054
aVGod
p8055
ag77
asg78
(lp8056
g80
ag80
ag80
ag80
ag80
ag80
ag80
ag80
ag80
asg81
(lp8057
g87
ag88
ag85
ag416
ag282
ag284
ag86
ag415
ag96
asg97
VThe woman eventually wishes to be like God.
p8058
sba(i__main__
Sentence
p8059
(dp8060
g17
I5
sg18
(lp8061
S'The'
p8062
aS'fish'
p8063
aS'grants'
p8064
aS'this'
p8065
aS'wish'
p8066
aS'also'
p8067
aS'and'
p8068
aS'puts'
p8069
aS'her'
p8070
aS'back'
p8071
aS'in'
p8072
aS'her'
p8073
aS'pig-sty'
p8074
aS'.'
p8075
asg49
(lp8076
VThe
p8077
aVfish
p8078
aVgrant
p8079
aVthis
p8080
aVwish
p8081
aValso
p8082
aVand
p8083
aVput
p8084
aVher
p8085
aVback
p8086
aVin
p8087
aVher
p8088
aVpig-sty
p8089
ag77
asg78
(lp8090
g80
ag80
ag80
ag80
ag80
ag80
ag80
ag80
ag80
ag80
ag80
ag80
ag80
ag80
asg81
(lp8091
g87
ag92
ag417
ag87
ag88
ag85
ag94
ag417
ag91
ag88
ag86
ag91
ag92
ag96
asg97
VThe fish grants this wish also and puts her back in her pig-sty. 
p8092
sbasbsS'name'
p8093
S'The Fisherman and His Wife'
p8094
sS'summaries'
p8095
(lp8096
g7925
asb.