ccopy_reg
_reconstructor
p0
(c__main__
Story
p1
c__builtin__
object
p2
Ntp3
Rp4
(dp5
S'text'
p6
g0
(c__main__
Document
p7
g2
Ntp8
Rp9
(dp10
S'_Document__initialContent'
p11
S'Between werrel and soist there lived a man whose name was knoist,\nand he had three sons.  One was blind, the other lame, and the\nthird stark-naked.  Once on a time they went into a field,\nand there they saw a hare.  The blind one shot it, the lame one\ncaught it, the naked one put it in his pocket.  Then they came to\na mighty big lake, on which there were three boats, one sailed,\none sank, the third had no bottom to it.  They all three got\ninto the one with no bottom to it.  Then they came to a mighty\nbig forest in which there was a mighty big tree, in the tree\nwas a mighty big chapel - in the chapel was a sexton made of\nbeech-wood and a box-wood parson, who dealt out holy water with\ncudgels.\n               How truly happy is that one\n               who can from holy water run.\n'
p12
sS'sentences'
p13
(lp14
(i__main__
Sentence
p15
(dp16
S'index'
p17
I0
sS'words'
p18
(lp19
S'Between'
p20
aS'werrel'
p21
aS'and'
p22
aS'soist'
p23
aS'there'
p24
aS'lived'
p25
aS'a'
p26
aS'man'
p27
aS'whose'
p28
aS'name'
p29
aS'was'
p30
aS'knoist'
p31
aS','
p32
aS'and'
p33
aS'he'
p34
aS'had'
p35
aS'three'
p36
aS'sons'
p37
aS'.'
p38
asS'lemmas'
p39
(lp40
VBetween
p41
aVwerrel
p42
aVand
p43
aVsoist
p44
aVthere
p45
aVlive
p46
aVa
p47
aVman
p48
aVwhose
p49
aVname
p50
aVbe
p51
aVknoist
p52
aV,
p53
aVand
p54
aVhe
p55
aVhave
p56
aVthree
p57
aVson
p58
aV.
p59
asS'nerTags'
p60
(lp61
VO
p62
ag62
ag62
ag62
ag62
ag62
ag62
ag62
ag62
ag62
ag62
ag62
ag62
ag62
ag62
ag62
ag62
ag62
ag62
asS'posTags'
p63
(lp64
S'IN'
p65
aS'NN'
p66
aS'CC'
p67
ag66
aS'EX'
p68
aS'VBN'
p69
aS'DT'
p70
ag66
aS'WP$'
p71
ag66
aS'VBD'
p72
aS'JJ'
p73
aS','
p74
ag67
aS'PRP'
p75
ag72
aS'CD'
p76
aS'NNS'
p77
aS'.'
p78
asS'_Sentence__initialContent'
p79
VBetween werrel and soist there lived a man whose name was knoist, and he had three sons.
p80
sba(i__main__
Sentence
p81
(dp82
g17
I1
sg18
(lp83
S'One'
p84
aS'was'
p85
aS'blind'
p86
aS','
p87
aS'the'
p88
aS'other'
p89
aS'lame'
p90
aS','
p91
aS'and'
p92
aS'the'
p93
aS'third'
p94
aS'stark-naked'
p95
aS'.'
p96
asg39
(lp97
VOne
p98
ag51
aVblind
p99
ag53
aVthe
p100
aVother
p101
aVlame
p102
ag53
aVand
p103
aVthe
p104
aVthird
p105
aVstark-naked
p106
ag59
asg60
(lp107
g62
ag62
ag62
ag62
ag62
ag62
ag62
ag62
ag62
ag62
ag62
ag62
ag62
asg63
(lp108
g76
ag72
ag73
ag74
ag70
ag73
ag66
ag74
ag67
ag70
ag73
ag73
ag78
asg79
VOne was blind, the other lame, and the third stark-naked.
p109
sba(i__main__
Sentence
p110
(dp111
g17
I2
sg18
(lp112
S'Once'
p113
aS'on'
p114
aS'a'
p115
aS'time'
p116
aS'they'
p117
aS'went'
p118
aS'into'
p119
aS'a'
p120
aS'field'
p121
aS','
p122
aS'and'
p123
aS'there'
p124
aS'they'
p125
aS'saw'
p126
aS'a'
p127
aS'hare'
p128
aS'.'
p129
asg39
(lp130
VOnce
p131
aVon
p132
ag47
aVtime
p133
aVthey
p134
aVgo
p135
aVinto
p136
ag47
aVfield
p137
ag53
aVand
p138
aVthere
p139
aVthey
p140
aVsaw
p141
ag47
aVhare
p142
ag59
asg60
(lp143
g62
ag62
ag62
ag62
ag62
ag62
ag62
ag62
ag62
ag62
ag62
ag62
ag62
ag62
ag62
ag62
ag62
asg63
(lp144
S'RB'
p145
ag65
ag70
ag66
ag75
ag72
ag65
ag70
ag66
ag74
ag67
ag68
ag75
ag72
ag70
ag66
ag78
asg79
VOnce on a time they went into a field, and there they saw a hare.
p146
sba(i__main__
Sentence
p147
(dp148
g17
I3
sg18
(lp149
S'The'
p150
aS'blind'
p151
aS'one'
p152
aS'shot'
p153
aS'it'
p154
aS','
p155
aS'the'
p156
aS'lame'
p157
aS'one'
p158
aS'caught'
p159
aS'it'
p160
aS','
p161
aS'the'
p162
aS'naked'
p163
aS'one'
p164
aS'put'
p165
aS'it'
p166
aS'in'
p167
aS'his'
p168
aS'pocket'
p169
aS'.'
p170
asg39
(lp171
VThe
p172
aVblind
p173
aVone
p174
aVshot
p175
aVit
p176
ag53
aVthe
p177
aVlame
p178
aVone
p179
aVcaught
p180
aVit
p181
ag53
aVthe
p182
aVnaked
p183
aVone
p184
aVput
p185
aVit
p186
aVin
p187
aVhis
p188
aVpocket
p189
ag59
asg60
(lp190
g62
ag62
ag62
ag62
ag62
ag62
ag62
ag62
ag62
ag62
ag62
ag62
ag62
ag62
ag62
ag62
ag62
ag62
ag62
ag62
ag62
asg63
(lp191
g70
ag73
ag76
ag66
ag75
ag74
ag70
ag66
ag76
ag66
ag75
ag74
ag70
ag69
ag76
ag66
ag75
ag65
aS'PRP$'
p192
ag66
ag78
asg79
VThe blind one shot it, the lame one caught it, the naked one put it in his pocket.
p193
sba(i__main__
Sentence
p194
(dp195
g17
I4
sg18
(lp196
S'Then'
p197
aS'they'
p198
aS'came'
p199
aS'to'
p200
aS'a'
p201
aS'mighty'
p202
aS'big'
p203
aS'lake'
p204
aS','
p205
aS'on'
p206
aS'which'
p207
aS'there'
p208
aS'were'
p209
aS'three'
p210
aS'boats'
p211
aS','
p212
aS'one'
p213
aS'sailed'
p214
aS','
p215
aS'one'
p216
aS'sank'
p217
aS','
p218
aS'the'
p219
aS'third'
p220
aS'had'
p221
aS'no'
p222
aS'bottom'
p223
aS'to'
p224
aS'it'
p225
aS'.'
p226
asg39
(lp227
VThen
p228
aVthey
p229
aVcome
p230
aVto
p231
ag47
aVmighty
p232
aVbig
p233
aVlake
p234
ag53
aVon
p235
aVwhich
p236
aVthere
p237
aVbe
p238
aVthree
p239
aVboat
p240
ag53
aVone
p241
aVsail
p242
ag53
aVone
p243
aVsank
p244
ag53
aVthe
p245
aVthird
p246
ag56
aVno
p247
aVbottom
p248
aVto
p249
aVit
p250
ag59
asg60
(lp251
g62
ag62
ag62
ag62
ag62
ag62
ag62
ag62
ag62
ag62
ag62
ag62
ag62
ag62
ag62
ag62
ag62
ag62
ag62
ag62
ag62
ag62
ag62
ag62
ag62
ag62
ag62
ag62
ag62
ag62
asg63
(lp252
g145
ag75
ag72
aS'TO'
p253
ag70
ag66
ag73
ag66
ag74
ag65
aS'WDT'
p254
ag68
ag72
ag76
ag77
ag74
ag76
ag72
ag74
ag76
ag66
ag74
ag70
ag73
ag72
ag70
ag66
ag253
ag75
ag78
asg79
VThen they came to a mighty big lake, on which there were three boats, one sailed, one sank, the third had no bottom to it.
p255
sba(i__main__
Sentence
p256
(dp257
g17
I5
sg18
(lp258
S'They'
p259
aS'all'
p260
aS'three'
p261
aS'got'
p262
aS'into'
p263
aS'the'
p264
aS'one'
p265
aS'with'
p266
aS'no'
p267
aS'bottom'
p268
aS'to'
p269
aS'it'
p270
aS'.'
p271
asg39
(lp272
VThey
p273
aVall
p274
aVthree
p275
aVget
p276
aVinto
p277
aVthe
p278
aVone
p279
aVwith
p280
aVno
p281
aVbottom
p282
aVto
p283
aVit
p284
ag59
asg60
(lp285
g62
ag62
ag62
ag62
ag62
ag62
ag62
ag62
ag62
ag62
ag62
ag62
ag62
asg63
(lp286
g75
aS'VBP'
p287
ag76
ag69
ag65
ag70
ag76
ag65
ag70
ag66
ag253
ag75
ag78
asg79
VThey all three got into the one with no bottom to it.
p288
sba(i__main__
Sentence
p289
(dp290
g17
I6
sg18
(lp291
S'Then'
p292
aS'they'
p293
aS'came'
p294
aS'to'
p295
aS'a'
p296
aS'mighty'
p297
aS'big'
p298
aS'forest'
p299
aS'in'
p300
aS'which'
p301
aS'there'
p302
aS'was'
p303
aS'a'
p304
aS'mighty'
p305
aS'big'
p306
aS'tree'
p307
aS','
p308
aS'in'
p309
aS'the'
p310
aS'tree'
p311
aS'was'
p312
aS'a'
p313
aS'mighty'
p314
aS'big'
p315
aS'chapel'
p316
aS'-'
p317
aS'in'
p318
aS'the'
p319
aS'chapel'
p320
aS'was'
p321
aS'a'
p322
aS'sexton'
p323
aS'made'
p324
aS'of'
p325
aS'beech-wood'
p326
aS'and'
p327
aS'a'
p328
aS'box-wood'
p329
aS'parson'
p330
aS','
p331
aS'who'
p332
aS'dealt'
p333
aS'out'
p334
aS'holy'
p335
aS'water'
p336
aS'with'
p337
aS'cudgels'
p338
aS'.'
p339
asg39
(lp340
VThen
p341
aVthey
p342
ag230
aVto
p343
ag47
aVmighty
p344
aVbig
p345
aVforest
p346
aVin
p347
aVwhich
p348
aVthere
p349
ag51
ag47
aVmighty
p350
aVbig
p351
aVtree
p352
ag53
aVin
p353
aVthe
p354
aVtree
p355
ag51
ag47
aVmighty
p356
aVbig
p357
aVchapel
p358
aV-
p359
aVin
p360
aVthe
p361
aVchapel
p362
ag51
ag47
aVsexton
p363
aVmake
p364
aVof
p365
aVbeech-wood
p366
aVand
p367
ag47
aVbox-wood
p368
aVparson
p369
ag53
aVwho
p370
aVdealt
p371
aVout
p372
aVholy
p373
aVwater
p374
aVwith
p375
aVcudgel
p376
ag59
asg60
(lp377
g62
ag62
ag62
ag62
ag62
ag62
ag62
ag62
ag62
ag62
ag62
ag62
ag62
ag62
ag62
ag62
ag62
ag62
ag62
ag62
ag62
ag62
ag62
ag62
ag62
ag62
ag62
ag62
ag62
ag62
ag62
ag62
ag62
ag62
ag62
ag62
ag62
ag62
ag62
ag62
ag62
ag62
ag62
ag62
ag62
ag62
ag62
ag62
asg63
(lp378
g145
ag75
ag72
ag253
ag70
ag66
ag73
ag66
ag65
ag254
ag68
ag72
ag70
ag66
ag73
ag66
ag74
ag65
ag70
ag66
ag72
ag70
ag66
ag73
ag66
aS':'
p379
ag65
ag70
ag66
ag72
ag70
ag66
ag69
ag65
ag73
ag67
ag70
ag73
ag66
ag74
aS'WP'
p380
ag66
ag65
ag145
aS'JJR'
p381
ag65
ag77
ag78
asg79
VThen they came to a mighty big forest in which there was a mighty big tree, in the tree was a mighty big chapel - in the chapel was a sexton made of beech-wood and a box-wood parson, who dealt out holy water with cudgels.
p382
sba(i__main__
Sentence
p383
(dp384
g17
I7
sg18
(lp385
S'How'
p386
aS'truly'
p387
aS'happy'
p388
aS'is'
p389
aS'that'
p390
aS'one'
p391
aS'who'
p392
aS'can'
p393
aS'from'
p394
aS'holy'
p395
aS'water'
p396
aS'run'
p397
aS'.'
p398
asg39
(lp399
VHow
p400
aVtruly
p401
aVhappy
p402
aVbe
p403
aVthat
p404
aVone
p405
aVwho
p406
aVcan
p407
aVfrom
p408
aVholy
p409
aVwater
p410
aVrun
p411
ag59
asg60
(lp412
g62
ag62
ag62
ag62
ag62
ag62
ag62
ag62
ag62
ag62
ag62
ag62
ag62
asg63
(lp413
S'WRB'
p414
ag145
ag73
aS'VBZ'
p415
ag65
ag76
ag380
aS'MD'
p416
ag65
ag145
ag381
ag69
ag78
asg79
VHow truly happy is that one                who can from holy water run. 
p417
sbasbsS'summary'
p418
g0
(g7
g2
Ntp419
Rp420
(dp421
g11
S'This curious story is about a man and his three sons who sail in a boat with no bottom to a forest. '
p422
sg13
(lp423
(i__main__
Sentence
p424
(dp425
g17
I0
sg18
(lp426
S'This'
p427
aS'curious'
p428
aS'story'
p429
aS'is'
p430
aS'about'
p431
aS'a'
p432
aS'man'
p433
aS'and'
p434
aS'his'
p435
aS'three'
p436
aS'sons'
p437
aS'who'
p438
aS'sail'
p439
aS'in'
p440
aS'a'
p441
aS'boat'
p442
aS'with'
p443
aS'no'
p444
aS'bottom'
p445
aS'to'
p446
aS'a'
p447
aS'forest'
p448
aS'.'
p449
asg39
(lp450
VThis
p451
aVcurious
p452
aVstory
p453
ag403
aVabout
p454
ag47
aVman
p455
aVand
p456
aVhis
p457
aVthree
p458
aVson
p459
aVwho
p460
aVsail
p461
aVin
p462
ag47
aVboat
p463
aVwith
p464
aVno
p465
aVbottom
p466
aVto
p467
ag47
aVforest
p468
ag59
asg60
(lp469
g62
ag62
ag62
ag62
ag62
ag62
ag62
ag62
ag62
ag62
ag62
ag62
ag62
ag62
ag62
ag62
ag62
ag62
ag62
ag62
ag62
ag62
ag62
asg63
(lp470
g70
ag73
ag66
ag415
ag65
ag70
ag66
ag67
ag192
ag76
ag77
ag380
ag66
ag65
ag70
ag73
ag65
ag70
ag66
ag253
ag70
ag66
ag78
asg79
VThis curious story is about a man and his three sons who sail in a boat with no bottom to a forest. 
p471
sbasbsS'name'
p472
S'Knoist and His Three Sons'
p473
sS'summaries'
p474
(lp475
g420
asb.