ccopy_reg
_reconstructor
p0
(c__main__
Story
p1
c__builtin__
object
p2
Ntp3
Rp4
(dp5
S'text'
p6
g0
(c__main__
Document
p7
g2
Ntp8
Rp9
(dp10
S'_Document__initialContent'
p11
S"There was once a sorcerer who was standing in the midst of a\ngreat crowd of people performing his wonders.  He had a cock\nbrought in, which lifted a heavy beam and carried it as if\nit were light as a feather.  But a girl was present who had\njust found a four-leaved clover, and had thus become so wise\nthat no deception could stand out against her, and she saw\nthat the beam was nothing but a straw.  So she cried, you\npeople, do you not see that it is a straw that the cock is\ncarrying, and no beam.  Immediately the enchantment vanished,\nand the people saw what it was, and drove the magician away\nin shame and disgrace.  He, however, full of inward anger,\nsaid, I will soon revenge myself.\nAfter some time the girl's wedding-day came, and she was\ndecked out, and went in a great procession over the fields to\nthe place where the church was.  All at once she came to a\nstream which was very much swollen, and there was no bridge\nand no plank to cross it.  Then the bride nimbly took her\nclothes up, and wanted to wade through it.  And just as she\nwas thus standing in the water, a man, and it was the\nsorcerer, cried mockingly close beside her, aha.  Where are\nyour eyes that you take that for water.  Then her eyes were\nopened, and she saw that she was standing with her clothes\nlifted up in the middle of a field that was blue with the\nflowers of blue flax.  Then all the people saw it likewise,\nand chased her away with ridicule and laughter.\n"
p12
sS'sentences'
p13
(lp14
(i__main__
Sentence
p15
(dp16
S'index'
p17
I0
sS'words'
p18
(lp19
S'There'
p20
aS'was'
p21
aS'once'
p22
aS'a'
p23
aS'sorcerer'
p24
aS'who'
p25
aS'was'
p26
aS'standing'
p27
aS'in'
p28
aS'the'
p29
aS'midst'
p30
aS'of'
p31
aS'a'
p32
aS'great'
p33
aS'crowd'
p34
aS'of'
p35
aS'people'
p36
aS'performing'
p37
aS'his'
p38
aS'wonders'
p39
aS'.'
p40
asS'lemmas'
p41
(lp42
VThere
p43
aVbe
p44
aVonce
p45
aVa
p46
aVsorcerer
p47
aVwho
p48
ag44
aVstand
p49
aVin
p50
aVthe
p51
aVmidst
p52
aVof
p53
ag46
aVgreat
p54
aVcrowd
p55
aVof
p56
aVpeople
p57
aVperform
p58
aVhis
p59
aVwonder
p60
aV.
p61
asS'nerTags'
p62
(lp63
VO
p64
ag64
ag64
ag64
ag64
ag64
ag64
ag64
ag64
ag64
ag64
ag64
ag64
ag64
ag64
ag64
ag64
ag64
ag64
ag64
ag64
asS'posTags'
p65
(lp66
S'EX'
p67
aS'VBD'
p68
aS'RB'
p69
aS'DT'
p70
aS'NN'
p71
aS'WP'
p72
ag68
aS'VBG'
p73
aS'IN'
p74
ag70
ag71
ag74
ag70
aS'JJ'
p75
ag71
ag74
aS'NNS'
p76
ag73
aS'PRP$'
p77
ag76
aS'.'
p78
asS'_Sentence__initialContent'
p79
VThere was once a sorcerer who was standing in the midst of a great crowd of people performing his wonders.
p80
sba(i__main__
Sentence
p81
(dp82
g17
I1
sg18
(lp83
S'He'
p84
aS'had'
p85
aS'a'
p86
aS'cock'
p87
aS'brought'
p88
aS'in'
p89
aS','
p90
aS'which'
p91
aS'lifted'
p92
aS'a'
p93
aS'heavy'
p94
aS'beam'
p95
aS'and'
p96
aS'carried'
p97
aS'it'
p98
aS'as'
p99
aS'if'
p100
aS'it'
p101
aS'were'
p102
aS'light'
p103
aS'as'
p104
aS'a'
p105
aS'feather'
p106
aS'.'
p107
asg41
(lp108
VHe
p109
aVhave
p110
ag46
aVcock
p111
aVbring
p112
aVin
p113
aV,
p114
aVwhich
p115
aVlift
p116
ag46
aVheavy
p117
aVbeam
p118
aVand
p119
aVcarry
p120
aVit
p121
ag46
aVif
p122
aVit
p123
aVbe
p124
aVlight
p125
ag46
ag46
aVfeather
p126
ag61
asg62
(lp127
g64
ag64
ag64
ag64
ag64
ag64
ag64
ag64
ag64
ag64
ag64
ag64
ag64
ag64
ag64
ag64
ag64
ag64
ag64
ag64
ag64
ag64
ag64
ag64
asg65
(lp128
S'PRP'
p129
ag68
ag70
ag71
aS'VBN'
p130
ag74
aS','
p131
aS'WDT'
p132
ag130
ag70
ag75
ag71
aS'CC'
p133
ag68
ag129
ag74
ag74
ag129
ag68
ag75
ag74
ag70
ag71
ag78
asg79
VHe had a cock brought in, which lifted a heavy beam and carried it as if it were light as a feather.
p134
sba(i__main__
Sentence
p135
(dp136
g17
I2
sg18
(lp137
S'But'
p138
aS'a'
p139
aS'girl'
p140
aS'was'
p141
aS'present'
p142
aS'who'
p143
aS'had'
p144
aS'just'
p145
aS'found'
p146
aS'a'
p147
aS'four-leaved'
p148
aS'clover'
p149
aS','
p150
aS'and'
p151
aS'had'
p152
aS'thus'
p153
aS'become'
p154
aS'so'
p155
aS'wise'
p156
aS'that'
p157
aS'no'
p158
aS'deception'
p159
aS'could'
p160
aS'stand'
p161
aS'out'
p162
aS'against'
p163
aS'her'
p164
aS','
p165
aS'and'
p166
aS'she'
p167
aS'saw'
p168
aS'that'
p169
aS'the'
p170
aS'beam'
p171
aS'was'
p172
aS'nothing'
p173
aS'but'
p174
aS'a'
p175
aS'straw'
p176
aS'.'
p177
asg41
(lp178
VBut
p179
ag46
aVgirl
p180
ag44
aVpresent
p181
aVwho
p182
ag110
aVjust
p183
aVfind
p184
ag46
aVfour-leaved
p185
aVclover
p186
ag114
aVand
p187
ag110
aVthus
p188
aVbecome
p189
aVso
p190
aVwise
p191
aVthat
p192
aVno
p193
aVdeception
p194
aVcould
p195
aVstand
p196
aVout
p197
aVagainst
p198
aVher
p199
ag114
aVand
p200
aVshe
p201
aVsaw
p202
aVthat
p203
aVthe
p204
aVbeam
p205
ag44
aVnothing
p206
aVbut
p207
ag46
aVstraw
p208
ag61
asg62
(lp209
g64
ag64
ag64
ag64
ag64
ag64
ag64
ag64
ag64
ag64
ag64
ag64
ag64
ag64
ag64
ag64
ag64
ag64
ag64
ag64
ag64
ag64
ag64
ag64
ag64
ag64
ag64
ag64
ag64
ag64
ag64
ag64
ag64
ag64
ag64
ag64
ag64
ag64
ag64
ag64
asg65
(lp210
g133
ag70
ag71
ag68
ag75
ag72
ag68
ag69
ag130
ag70
ag75
ag71
ag131
ag133
ag68
ag69
ag130
ag69
ag69
ag74
ag70
ag71
aS'MD'
p211
aS'VB'
p212
aS'RP'
p213
ag74
ag77
ag131
ag133
ag129
ag68
ag74
ag70
ag71
ag68
ag71
ag133
ag70
ag71
ag78
asg79
VBut a girl was present who had just found a four-leaved clover, and had thus become so wise that no deception could stand out against her, and she saw that the beam was nothing but a straw.
p214
sba(i__main__
Sentence
p215
(dp216
g17
I3
sg18
(lp217
S'So'
p218
aS'she'
p219
aS'cried'
p220
aS','
p221
aS'you'
p222
aS'people'
p223
aS','
p224
aS'do'
p225
aS'you'
p226
aS'not'
p227
aS'see'
p228
aS'that'
p229
aS'it'
p230
aS'is'
p231
aS'a'
p232
aS'straw'
p233
aS'that'
p234
aS'the'
p235
aS'cock'
p236
aS'is'
p237
aS'carrying'
p238
aS','
p239
aS'and'
p240
aS'no'
p241
aS'beam'
p242
aS'.'
p243
asg41
(lp244
VSo
p245
aVshe
p246
aVcry
p247
ag114
aVyou
p248
aVpeople
p249
ag114
aVdo
p250
aVyou
p251
aVnot
p252
aVsee
p253
aVthat
p254
aVit
p255
aVbe
p256
ag46
aVstraw
p257
aVthat
p258
aVthe
p259
aVcock
p260
ag256
aVcarry
p261
ag114
aVand
p262
aVno
p263
aVbeam
p264
ag61
asg62
(lp265
g64
ag64
ag64
ag64
ag64
ag64
ag64
ag64
ag64
ag64
ag64
ag64
ag64
ag64
ag64
ag64
ag64
ag64
ag64
ag64
ag64
ag64
ag64
ag64
ag64
ag64
asg65
(lp266
g74
ag129
ag68
ag131
ag129
ag76
ag131
aS'VBP'
p267
ag129
ag69
ag212
ag74
ag129
aS'VBZ'
p268
ag70
ag71
ag132
ag70
ag71
ag268
ag73
ag131
ag133
ag70
ag71
ag78
asg79
VSo she cried, you people, do you not see that it is a straw that the cock is carrying, and no beam.
p269
sba(i__main__
Sentence
p270
(dp271
g17
I4
sg18
(lp272
S'Immediately'
p273
aS'the'
p274
aS'enchantment'
p275
aS'vanished'
p276
aS','
p277
aS'and'
p278
aS'the'
p279
aS'people'
p280
aS'saw'
p281
aS'what'
p282
aS'it'
p283
aS'was'
p284
aS','
p285
aS'and'
p286
aS'drove'
p287
aS'the'
p288
aS'magician'
p289
aS'away'
p290
aS'in'
p291
aS'shame'
p292
aS'and'
p293
aS'disgrace'
p294
aS'.'
p295
asg41
(lp296
VImmediately
p297
aVthe
p298
aVenchantment
p299
aVvanish
p300
ag114
aVand
p301
aVthe
p302
aVpeople
p303
aVsaw
p304
aVwhat
p305
aVit
p306
ag44
ag114
aVand
p307
aVdrive
p308
aVthe
p309
aVmagician
p310
aVaway
p311
aVin
p312
aVshame
p313
aVand
p314
aVdisgrace
p315
ag61
asg62
(lp316
g64
ag64
ag64
ag64
ag64
ag64
ag64
ag64
ag64
ag64
ag64
ag64
ag64
ag64
ag64
ag64
ag64
ag64
ag64
ag64
ag64
ag64
ag64
asg65
(lp317
g69
ag70
ag71
ag68
ag131
ag133
ag70
ag76
ag68
ag72
ag129
ag68
ag131
ag133
ag68
ag70
ag75
ag71
ag74
ag71
ag133
ag71
ag78
asg79
VImmediately the enchantment vanished, and the people saw what it was, and drove the magician away in shame and disgrace.
p318
sba(i__main__
Sentence
p319
(dp320
g17
I5
sg18
(lp321
S'He'
p322
aS','
p323
aS'however'
p324
aS','
p325
aS'full'
p326
aS'of'
p327
aS'inward'
p328
aS'anger'
p329
aS','
p330
aS'said'
p331
aS','
p332
aS'I'
p333
aS'will'
p334
aS'soon'
p335
aS'revenge'
p336
aS'myself'
p337
aS'.'
p338
asg41
(lp339
VHe
p340
ag114
aVhowever
p341
ag114
aVfull
p342
aVof
p343
aVinward
p344
aVanger
p345
ag114
aVsay
p346
ag114
aVI
p347
aVwill
p348
aVsoon
p349
aVrevenge
p350
aVmyself
p351
ag61
asg62
(lp352
g64
ag64
ag64
ag64
ag64
ag64
ag64
ag64
ag64
ag64
ag64
ag64
ag64
ag64
ag64
ag64
ag64
asg65
(lp353
g129
ag131
ag69
ag131
ag75
ag74
ag71
ag71
ag131
ag68
ag131
ag129
ag211
ag69
ag212
ag129
ag78
asg79
VHe, however, full of inward anger, said, I will soon revenge myself.
p354
sba(i__main__
Sentence
p355
(dp356
g17
I6
sg18
(lp357
S'After'
p358
aS'some'
p359
aS'time'
p360
aS'the'
p361
aS'girl'
p362
aS"'s"
p363
aS'wedding-day'
p364
aS'came'
p365
aS','
p366
aS'and'
p367
aS'she'
p368
aS'was'
p369
aS'decked'
p370
aS'out'
p371
aS','
p372
aS'and'
p373
aS'went'
p374
aS'in'
p375
aS'a'
p376
aS'great'
p377
aS'procession'
p378
aS'over'
p379
aS'the'
p380
aS'fields'
p381
aS'to'
p382
aS'the'
p383
aS'place'
p384
aS'where'
p385
aS'the'
p386
aS'church'
p387
aS'was'
p388
aS'.'
p389
asg41
(lp390
VAfter
p391
aVsome
p392
aVtime
p393
aVthe
p394
aVgirl
p395
aV's
p396
aVwedding-day
p397
aVcame
p398
ag114
aVand
p399
aVshe
p400
ag44
aVdeck
p401
aVout
p402
ag114
aVand
p403
aVgo
p404
aVin
p405
ag46
aVgreat
p406
aVprocession
p407
aVover
p408
aVthe
p409
aVfield
p410
aVto
p411
aVthe
p412
aVplace
p413
aVwhere
p414
aVthe
p415
aVchurch
p416
ag44
ag61
asg62
(lp417
g64
ag64
ag64
ag64
ag64
ag64
ag64
ag64
ag64
ag64
ag64
ag64
ag64
ag64
ag64
ag64
ag64
ag64
ag64
ag64
ag64
ag64
ag64
ag64
ag64
ag64
ag64
ag64
ag64
ag64
ag64
ag64
asg65
(lp418
g74
ag70
ag71
ag70
ag71
aS'POS'
p419
ag75
ag71
ag131
ag133
ag129
ag68
ag130
ag213
ag131
ag133
ag68
ag74
ag70
ag75
ag71
ag74
ag70
ag76
aS'TO'
p420
ag70
ag71
aS'WRB'
p421
ag70
ag71
ag68
ag78
asg79
VAfter some time the girl's wedding-day came, and she was decked out, and went in a great procession over the fields to the place where the church was.
p422
sba(i__main__
Sentence
p423
(dp424
g17
I7
sg18
(lp425
S'All'
p426
aS'at'
p427
aS'once'
p428
aS'she'
p429
aS'came'
p430
aS'to'
p431
aS'a'
p432
aS'stream'
p433
aS'which'
p434
aS'was'
p435
aS'very'
p436
aS'much'
p437
aS'swollen'
p438
aS','
p439
aS'and'
p440
aS'there'
p441
aS'was'
p442
aS'no'
p443
aS'bridge'
p444
aS'and'
p445
aS'no'
p446
aS'plank'
p447
aS'to'
p448
aS'cross'
p449
aS'it'
p450
aS'.'
p451
asg41
(lp452
VAll
p453
aVat
p454
aVonce
p455
aVshe
p456
aVcome
p457
aVto
p458
ag46
aVstream
p459
aVwhich
p460
ag44
aVvery
p461
aVmuch
p462
aVswell
p463
ag114
aVand
p464
aVthere
p465
ag44
aVno
p466
aVbridge
p467
aVand
p468
aVno
p469
aVplank
p470
aVto
p471
aVcross
p472
aVit
p473
ag61
asg62
(lp474
g64
ag64
ag64
ag64
ag64
ag64
ag64
ag64
ag64
ag64
ag64
ag64
ag64
ag64
ag64
ag64
ag64
ag64
ag64
ag64
ag64
ag64
ag64
ag64
ag64
ag64
asg65
(lp475
g70
ag74
ag69
ag129
ag68
ag420
ag70
ag71
ag132
ag68
ag69
ag69
ag130
ag131
ag133
ag67
ag68
ag70
ag71
ag133
ag70
ag71
ag420
ag76
ag129
ag78
asg79
VAll at once she came to a stream which was very much swollen, and there was no bridge and no plank to cross it.
p476
sba(i__main__
Sentence
p477
(dp478
g17
I8
sg18
(lp479
S'Then'
p480
aS'the'
p481
aS'bride'
p482
aS'nimbly'
p483
aS'took'
p484
aS'her'
p485
aS'clothes'
p486
aS'up'
p487
aS','
p488
aS'and'
p489
aS'wanted'
p490
aS'to'
p491
aS'wade'
p492
aS'through'
p493
aS'it'
p494
aS'.'
p495
asg41
(lp496
VThen
p497
aVthe
p498
aVbride
p499
aVnimbly
p500
aVtake
p501
aVher
p502
aVclothes
p503
aVup
p504
ag114
aVand
p505
aVwant
p506
aVto
p507
aVwade
p508
aVthrough
p509
aVit
p510
ag61
asg62
(lp511
g64
ag64
ag64
ag64
ag64
ag64
ag64
ag64
ag64
ag64
ag64
ag64
ag64
ag64
ag64
ag64
asg65
(lp512
g69
ag70
ag71
ag69
ag68
ag77
ag76
ag74
ag131
ag133
ag68
ag420
ag212
ag74
ag129
ag78
asg79
VThen the bride nimbly took her clothes up, and wanted to wade through it.
p513
sba(i__main__
Sentence
p514
(dp515
g17
I9
sg18
(lp516
S'And'
p517
aS'just'
p518
aS'as'
p519
aS'she'
p520
aS'was'
p521
aS'thus'
p522
aS'standing'
p523
aS'in'
p524
aS'the'
p525
aS'water'
p526
aS','
p527
aS'a'
p528
aS'man'
p529
aS','
p530
aS'and'
p531
aS'it'
p532
aS'was'
p533
aS'the'
p534
aS'sorcerer'
p535
aS','
p536
aS'cried'
p537
aS'mockingly'
p538
aS'close'
p539
aS'beside'
p540
aS'her'
p541
aS','
p542
aS'aha'
p543
aS'.'
p544
asg41
(lp545
VAnd
p546
aVjust
p547
ag46
aVshe
p548
ag44
aVthus
p549
aVstand
p550
aVin
p551
aVthe
p552
aVwater
p553
ag114
ag46
aVman
p554
ag114
aVand
p555
aVit
p556
ag44
aVthe
p557
aVsorcerer
p558
ag114
ag247
aVmockingly
p559
aVclose
p560
aVbeside
p561
aVher
p562
ag114
aVaha
p563
ag61
asg62
(lp564
g64
ag64
ag64
ag64
ag64
ag64
ag64
ag64
ag64
ag64
ag64
ag64
ag64
ag64
ag64
ag64
ag64
ag64
ag64
ag64
ag64
ag64
ag64
ag64
ag64
ag64
ag64
ag64
asg65
(lp565
g133
ag69
ag74
ag129
ag68
ag69
ag73
ag74
ag70
ag71
ag131
ag70
ag71
ag131
ag133
ag129
ag68
ag70
ag71
ag131
ag68
ag69
ag75
ag71
ag129
ag131
ag71
ag78
asg79
VAnd just as she was thus standing in the water, a man, and it was the sorcerer, cried mockingly close beside her, aha.
p566
sba(i__main__
Sentence
p567
(dp568
g17
I10
sg18
(lp569
S'Where'
p570
aS'are'
p571
aS'your'
p572
aS'eyes'
p573
aS'that'
p574
aS'you'
p575
aS'take'
p576
aS'that'
p577
aS'for'
p578
aS'water'
p579
aS'.'
p580
asg41
(lp581
VWhere
p582
aVbe
p583
aVyour
p584
aVeye
p585
aVthat
p586
aVyou
p587
aVtake
p588
aVthat
p589
aVfor
p590
aVwater
p591
ag61
asg62
(lp592
g64
ag64
ag64
ag64
ag64
ag64
ag64
ag64
ag64
ag64
ag64
asg65
(lp593
g421
ag267
ag77
ag76
ag132
ag129
ag267
ag74
ag74
ag71
ag78
asg79
VWhere are your eyes that you take that for water.
p594
sba(i__main__
Sentence
p595
(dp596
g17
I11
sg18
(lp597
S'Then'
p598
aS'her'
p599
aS'eyes'
p600
aS'were'
p601
aS'opened'
p602
aS','
p603
aS'and'
p604
aS'she'
p605
aS'saw'
p606
aS'that'
p607
aS'she'
p608
aS'was'
p609
aS'standing'
p610
aS'with'
p611
aS'her'
p612
aS'clothes'
p613
aS'lifted'
p614
aS'up'
p615
aS'in'
p616
aS'the'
p617
aS'middle'
p618
aS'of'
p619
aS'a'
p620
aS'field'
p621
aS'that'
p622
aS'was'
p623
aS'blue'
p624
aS'with'
p625
aS'the'
p626
aS'flowers'
p627
aS'of'
p628
aS'blue'
p629
aS'flax'
p630
aS'.'
p631
asg41
(lp632
VThen
p633
aVher
p634
aVeye
p635
ag124
aVopen
p636
ag114
aVand
p637
aVshe
p638
aVsaw
p639
aVthat
p640
aVshe
p641
ag44
aVstand
p642
aVwith
p643
aVher
p644
aVclothes
p645
aVlift
p646
aVup
p647
aVin
p648
aVthe
p649
aVmiddle
p650
aVof
p651
ag46
aVfield
p652
aVthat
p653
ag44
aVblue
p654
aVwith
p655
aVthe
p656
aVflower
p657
aVof
p658
aVblue
p659
aVflax
p660
ag61
asg62
(lp661
g64
ag64
ag64
ag64
ag64
ag64
ag64
ag64
ag64
ag64
ag64
ag64
ag64
ag64
ag64
ag64
ag64
ag64
ag64
ag64
ag64
ag64
ag64
ag64
ag64
ag64
ag64
ag64
ag64
ag64
ag64
ag64
ag64
ag64
asg65
(lp662
g69
ag77
ag76
ag68
ag130
ag131
ag133
ag129
ag68
ag74
ag129
ag68
ag73
ag74
ag77
ag76
ag130
ag213
ag74
ag70
ag71
ag74
ag70
ag71
ag132
ag68
ag75
ag74
ag70
ag76
ag74
ag75
ag71
ag78
asg79
VThen her eyes were opened, and she saw that she was standing with her clothes lifted up in the middle of a field that was blue with the flowers of blue flax.
p663
sba(i__main__
Sentence
p664
(dp665
g17
I12
sg18
(lp666
S'Then'
p667
aS'all'
p668
aS'the'
p669
aS'people'
p670
aS'saw'
p671
aS'it'
p672
aS'likewise'
p673
aS','
p674
aS'and'
p675
aS'chased'
p676
aS'her'
p677
aS'away'
p678
aS'with'
p679
aS'ridicule'
p680
aS'and'
p681
aS'laughter'
p682
aS'.'
p683
asg41
(lp684
VThen
p685
aVall
p686
aVthe
p687
aVpeople
p688
aVsaw
p689
aVit
p690
aVlikewise
p691
ag114
aVand
p692
aVchase
p693
aVher
p694
aVaway
p695
aVwith
p696
aVridicule
p697
aVand
p698
aVlaughter
p699
ag61
asg62
(lp700
g64
ag64
ag64
ag64
ag64
ag64
ag64
ag64
ag64
ag64
ag64
ag64
ag64
ag64
ag64
ag64
ag64
asg65
(lp701
g69
ag70
ag70
ag76
ag68
ag129
ag267
ag131
ag133
ag68
ag129
ag69
ag74
ag71
ag133
ag71
ag78
asg79
VThen all the people saw it likewise, and chased her away with ridicule and laughter. 
p702
sbasbsS'summary'
p703
g0
(g7
g2
Ntp704
Rp705
(dp706
g11
S'A magician has a rooster that carries a heavy beam. A girl sees that the beam is only a straw. She ridicules the man and the crowd drives him away in disgrace. The magician decides to get revenge on the girl on her wedding day. As she goes to the church, she reaches a swollen creek and lifts her dress so she can wade across. The magician has enchanted the creek and it is really only a field of blue flowers the girl walks across with her lifted dress. All the townspeople ridicule the girl and chase her away.'
p707
sg13
(lp708
(i__main__
Sentence
p709
(dp710
g17
I0
sg18
(lp711
S'A'
p712
aS'magician'
p713
aS'has'
p714
aS'a'
p715
aS'rooster'
p716
aS'that'
p717
aS'carries'
p718
aS'a'
p719
aS'heavy'
p720
aS'beam'
p721
aS'.'
p722
asg41
(lp723
VA
p724
aVmagician
p725
aVhave
p726
ag46
aVrooster
p727
aVthat
p728
aVcarry
p729
ag46
aVheavy
p730
aVbeam
p731
ag61
asg62
(lp732
g64
ag64
ag64
ag64
ag64
ag64
ag64
ag64
ag64
ag64
ag64
asg65
(lp733
g70
ag75
ag268
ag70
ag71
ag132
ag268
ag70
ag75
ag71
ag78
asg79
VA magician has a rooster that carries a heavy beam.
p734
sba(i__main__
Sentence
p735
(dp736
g17
I1
sg18
(lp737
S'A'
p738
aS'girl'
p739
aS'sees'
p740
aS'that'
p741
aS'the'
p742
aS'beam'
p743
aS'is'
p744
aS'only'
p745
aS'a'
p746
aS'straw'
p747
aS'.'
p748
asg41
(lp749
g724
aVgirl
p750
aVsee
p751
aVthat
p752
aVthe
p753
aVbeam
p754
ag256
aVonly
p755
ag46
aVstraw
p756
ag61
asg62
(lp757
g64
ag64
ag64
ag64
ag64
ag64
ag64
ag64
ag64
ag64
ag64
asg65
(lp758
g70
ag71
ag268
ag74
ag70
ag71
ag268
ag69
ag70
ag71
ag78
asg79
VA girl sees that the beam is only a straw.
p759
sba(i__main__
Sentence
p760
(dp761
g17
I2
sg18
(lp762
S'She'
p763
aS'ridicules'
p764
aS'the'
p765
aS'man'
p766
aS'and'
p767
aS'the'
p768
aS'crowd'
p769
aS'drives'
p770
aS'him'
p771
aS'away'
p772
aS'in'
p773
aS'disgrace'
p774
aS'.'
p775
asg41
(lp776
VShe
p777
aVridicule
p778
aVthe
p779
aVman
p780
aVand
p781
aVthe
p782
aVcrowd
p783
aVdrive
p784
aVhim
p785
aVaway
p786
aVin
p787
aVdisgrace
p788
ag61
asg62
(lp789
g64
ag64
ag64
ag64
ag64
ag64
ag64
ag64
ag64
ag64
ag64
ag64
ag64
asg65
(lp790
g129
ag268
ag70
ag71
ag133
ag70
ag71
ag76
ag129
ag69
ag74
ag71
ag78
asg79
VShe ridicules the man and the crowd drives him away in disgrace.
p791
sba(i__main__
Sentence
p792
(dp793
g17
I3
sg18
(lp794
S'The'
p795
aS'magician'
p796
aS'decides'
p797
aS'to'
p798
aS'get'
p799
aS'revenge'
p800
aS'on'
p801
aS'the'
p802
aS'girl'
p803
aS'on'
p804
aS'her'
p805
aS'wedding'
p806
aS'day'
p807
aS'.'
p808
asg41
(lp809
VThe
p810
aVmagician
p811
aVdecides
p812
aVto
p813
aVget
p814
aVrevenge
p815
aVon
p816
aVthe
p817
aVgirl
p818
aVon
p819
aVher
p820
aVwedding
p821
aVday
p822
ag61
asg62
(lp823
g64
ag64
ag64
ag64
ag64
ag64
ag64
ag64
ag64
ag64
ag64
ag64
ag64
ag64
asg65
(lp824
g70
ag75
ag76
ag420
ag212
ag71
ag74
ag70
ag71
ag74
ag77
ag71
ag71
ag78
asg79
VThe magician decides to get revenge on the girl on her wedding day.
p825
sba(i__main__
Sentence
p826
(dp827
g17
I4
sg18
(lp828
S'As'
p829
aS'she'
p830
aS'goes'
p831
aS'to'
p832
aS'the'
p833
aS'church'
p834
aS','
p835
aS'she'
p836
aS'reaches'
p837
aS'a'
p838
aS'swollen'
p839
aS'creek'
p840
aS'and'
p841
aS'lifts'
p842
aS'her'
p843
aS'dress'
p844
aS'so'
p845
aS'she'
p846
aS'can'
p847
aS'wade'
p848
aS'across'
p849
aS'.'
p850
asg41
(lp851
VAs
p852
aVshe
p853
aVgo
p854
aVto
p855
aVthe
p856
aVchurch
p857
ag114
aVshe
p858
aVreach
p859
ag46
aVswollen
p860
aVcreek
p861
aVand
p862
aVlift
p863
aVher
p864
aVdress
p865
aVso
p866
aVshe
p867
aVcan
p868
aVwade
p869
aVacross
p870
ag61
asg62
(lp871
g64
ag64
ag64
ag64
ag64
ag64
ag64
ag64
ag64
ag64
ag64
ag64
ag64
ag64
ag64
ag64
ag64
ag64
ag64
ag64
ag64
ag64
asg65
(lp872
g74
ag129
ag268
ag420
ag70
ag71
ag131
ag129
ag268
ag70
ag71
ag71
ag133
ag76
ag77
ag71
ag74
ag129
ag211
ag212
ag74
ag78
asg79
VAs she goes to the church, she reaches a swollen creek and lifts her dress so she can wade across.
p873
sba(i__main__
Sentence
p874
(dp875
g17
I5
sg18
(lp876
S'The'
p877
aS'magician'
p878
aS'has'
p879
aS'enchanted'
p880
aS'the'
p881
aS'creek'
p882
aS'and'
p883
aS'it'
p884
aS'is'
p885
aS'really'
p886
aS'only'
p887
aS'a'
p888
aS'field'
p889
aS'of'
p890
aS'blue'
p891
aS'flowers'
p892
aS'the'
p893
aS'girl'
p894
aS'walks'
p895
aS'across'
p896
aS'with'
p897
aS'her'
p898
aS'lifted'
p899
aS'dress'
p900
aS'.'
p901
asg41
(lp902
VThe
p903
aVmagician
p904
ag726
aVenchant
p905
aVthe
p906
aVcreek
p907
aVand
p908
aVit
p909
ag256
aVreally
p910
aVonly
p911
ag46
aVfield
p912
aVof
p913
aVblue
p914
aVflower
p915
aVthe
p916
aVgirl
p917
aVwalk
p918
aVacross
p919
aVwith
p920
aVher
p921
aVlift
p922
aVdress
p923
ag61
asg62
(lp924
g64
ag64
ag64
ag64
ag64
ag64
ag64
ag64
ag64
ag64
ag64
ag64
ag64
ag64
ag64
ag64
ag64
ag64
ag64
ag64
ag64
ag64
ag64
ag64
ag64
asg65
(lp925
g70
ag75
ag268
ag130
ag70
ag71
ag133
ag129
ag268
ag69
ag69
ag70
ag71
ag74
ag75
ag76
ag70
ag71
ag76
ag74
ag74
ag77
ag130
ag71
ag78
asg79
VThe magician has enchanted the creek and it is really only a field of blue flowers the girl walks across with her lifted dress.
p926
sba(i__main__
Sentence
p927
(dp928
g17
I6
sg18
(lp929
S'All'
p930
aS'the'
p931
aS'townspeople'
p932
aS'ridicule'
p933
aS'the'
p934
aS'girl'
p935
aS'and'
p936
aS'chase'
p937
aS'her'
p938
aS'away'
p939
aS'.'
p940
asg41
(lp941
VAll
p942
aVthe
p943
aVtownspeople
p944
aVridicule
p945
aVthe
p946
aVgirl
p947
aVand
p948
aVchase
p949
aVher
p950
aVaway
p951
ag61
asg62
(lp952
g64
ag64
ag64
ag64
ag64
ag64
ag64
ag64
ag64
ag64
ag64
asg65
(lp953
g70
ag70
ag71
ag71
ag70
ag71
ag133
ag71
ag77
ag71
ag78
asg79
VAll the townspeople ridicule the girl and chase her away.
p954
sbasbsS'name'
p955
S'The Beam'
p956
sS'summaries'
p957
(lp958
g705
asb.